; Listing generated by Microsoft (R) Optimizing Compiler Version 15.00.30729.01 

	TITLE	c:\Users\CriuS\Documents\Visual Studio 2008\Projects\DRAMsimIIhg\src\fbdSystem.cpp
	.686P
	.XMM
	include listing.inc
	.model	flat

INCLUDELIB OLDNAMES

PUBLIC	??_R4fbdSystem@DRAMsimII@@6B@			; DRAMsimII::fbdSystem::`RTTI Complete Object Locator'
PUBLIC	??_R3fbdSystem@DRAMsimII@@8			; DRAMsimII::fbdSystem::`RTTI Class Hierarchy Descriptor'
PUBLIC	??_R2fbdSystem@DRAMsimII@@8			; DRAMsimII::fbdSystem::`RTTI Base Class Array'
PUBLIC	??_R1A@?0A@EA@System@DRAMsimII@@8		; DRAMsimII::System::`RTTI Base Class Descriptor at (0,-1,0,64)'
PUBLIC	??_R3System@DRAMsimII@@8			; DRAMsimII::System::`RTTI Class Hierarchy Descriptor'
PUBLIC	??_R2System@DRAMsimII@@8			; DRAMsimII::System::`RTTI Base Class Array'
PUBLIC	??_R0?AVSystem@DRAMsimII@@@8			; DRAMsimII::System `RTTI Type Descriptor'
PUBLIC	??_R1A@?0A@EA@fbdSystem@DRAMsimII@@8		; DRAMsimII::fbdSystem::`RTTI Base Class Descriptor at (0,-1,0,64)'
PUBLIC	??_R0?AVfbdSystem@DRAMsimII@@@8			; DRAMsimII::fbdSystem `RTTI Type Descriptor'
PUBLIC	??_R4out_of_range@std@@6B@			; std::out_of_range::`RTTI Complete Object Locator'
PUBLIC	??_R3out_of_range@std@@8			; std::out_of_range::`RTTI Class Hierarchy Descriptor'
PUBLIC	??_R2out_of_range@std@@8			; std::out_of_range::`RTTI Base Class Array'
PUBLIC	??_R1A@?0A@EA@out_of_range@std@@8		; std::out_of_range::`RTTI Base Class Descriptor at (0,-1,0,64)'
PUBLIC	??1?$_Umap_traits@IIV?$_Hash_compare@IV?$hash@I@tr1@std@@U?$equal_to@I@3@@stdext@@V?$allocator@U?$pair@$$CBII@std@@@std@@$0A@@tr1@std@@QAE@XZ ; std::tr1::_Umap_traits<unsigned int,unsigned int,stdext::_Hash_compare<unsigned int,std::tr1::hash<unsigned int>,std::equal_to<unsigned int> >,std::allocator<std::pair<unsigned int const ,unsigned int> >,0>::~_Umap_traits<unsigned int,unsigned int,stdext::_Hash_compare<unsigned int,std::tr1::hash<unsigned int>,std::equal_to<unsigned int> >,std::allocator<std::pair<unsigned int const ,unsigned int> >,0>
PUBLIC	??1?$_Container_base_aux_alloc_real@V?$allocator@U?$pair@$$CBII@std@@@std@@@std@@IAE@XZ ; std::_Container_base_aux_alloc_real<std::allocator<std::pair<unsigned int const ,unsigned int> > >::~_Container_base_aux_alloc_real<std::allocator<std::pair<unsigned int const ,unsigned int> > >
PUBLIC	??1?$_List_nod@U?$pair@$$CBII@std@@V?$allocator@U?$pair@$$CBII@std@@@2@@std@@QAE@XZ ; std::_List_nod<std::pair<unsigned int const ,unsigned int>,std::allocator<std::pair<unsigned int const ,unsigned int> > >::~_List_nod<std::pair<unsigned int const ,unsigned int>,std::allocator<std::pair<unsigned int const ,unsigned int> > >
PUBLIC	??1?$_List_ptr@U?$pair@$$CBII@std@@V?$allocator@U?$pair@$$CBII@std@@@2@@std@@QAE@XZ ; std::_List_ptr<std::pair<unsigned int const ,unsigned int>,std::allocator<std::pair<unsigned int const ,unsigned int> > >::~_List_ptr<std::pair<unsigned int const ,unsigned int>,std::allocator<std::pair<unsigned int const ,unsigned int> > >
PUBLIC	??1?$_List_val@U?$pair@$$CBII@std@@V?$allocator@U?$pair@$$CBII@std@@@2@@std@@QAE@XZ ; std::_List_val<std::pair<unsigned int const ,unsigned int>,std::allocator<std::pair<unsigned int const ,unsigned int> > >::~_List_val<std::pair<unsigned int const ,unsigned int>,std::allocator<std::pair<unsigned int const ,unsigned int> > >
PUBLIC	??$_Destroy@PAU_Node@?$_List_nod@U?$pair@$$CBII@std@@V?$allocator@U?$pair@$$CBII@std@@@2@@std@@@std@@YAXPAPAU_Node@?$_List_nod@U?$pair@$$CBII@std@@V?$allocator@U?$pair@$$CBII@std@@@2@@0@@Z ; std::_Destroy<std::_List_nod<std::pair<unsigned int const ,unsigned int>,std::allocator<std::pair<unsigned int const ,unsigned int> > >::_Node *>
PUBLIC	?destroy@?$allocator@PAU_Node@?$_List_nod@U?$pair@$$CBII@std@@V?$allocator@U?$pair@$$CBII@std@@@2@@std@@@std@@QAEXPAPAU_Node@?$_List_nod@U?$pair@$$CBII@std@@V?$allocator@U?$pair@$$CBII@std@@@2@@2@@Z ; std::allocator<std::_List_nod<std::pair<unsigned int const ,unsigned int>,std::allocator<std::pair<unsigned int const ,unsigned int> > >::_Node *>::destroy
PUBLIC	?deallocate@?$allocator@U_Node@?$_List_nod@U?$pair@$$CBII@std@@V?$allocator@U?$pair@$$CBII@std@@@2@@std@@@std@@QAEXPAU_Node@?$_List_nod@U?$pair@$$CBII@std@@V?$allocator@U?$pair@$$CBII@std@@@2@@2@I@Z ; std::allocator<std::_List_nod<std::pair<unsigned int const ,unsigned int>,std::allocator<std::pair<unsigned int const ,unsigned int> > >::_Node>::deallocate
PUBLIC	??$_Destroy@U_Node@?$_List_nod@U?$pair@$$CBII@std@@V?$allocator@U?$pair@$$CBII@std@@@2@@std@@@std@@YAXPAU_Node@?$_List_nod@U?$pair@$$CBII@std@@V?$allocator@U?$pair@$$CBII@std@@@2@@0@@Z ; std::_Destroy<std::_List_nod<std::pair<unsigned int const ,unsigned int>,std::allocator<std::pair<unsigned int const ,unsigned int> > >::_Node>
PUBLIC	?destroy@?$allocator@U_Node@?$_List_nod@U?$pair@$$CBII@std@@V?$allocator@U?$pair@$$CBII@std@@@2@@std@@@std@@QAEXPAU_Node@?$_List_nod@U?$pair@$$CBII@std@@V?$allocator@U?$pair@$$CBII@std@@@2@@2@@Z ; std::allocator<std::_List_nod<std::pair<unsigned int const ,unsigned int>,std::allocator<std::pair<unsigned int const ,unsigned int> > >::_Node>::destroy
PUBLIC	?_Nextnode@?$list@U?$pair@$$CBII@std@@V?$allocator@U?$pair@$$CBII@std@@@2@@std@@KAAAPAU_Node@?$_List_nod@U?$pair@$$CBII@std@@V?$allocator@U?$pair@$$CBII@std@@@2@@2@PAU342@@Z ; std::list<std::pair<unsigned int const ,unsigned int>,std::allocator<std::pair<unsigned int const ,unsigned int> > >::_Nextnode
PUBLIC	?_Prevnode@?$list@U?$pair@$$CBII@std@@V?$allocator@U?$pair@$$CBII@std@@@2@@std@@KAAAPAU_Node@?$_List_nod@U?$pair@$$CBII@std@@V?$allocator@U?$pair@$$CBII@std@@@2@@2@PAU342@@Z ; std::list<std::pair<unsigned int const ,unsigned int>,std::allocator<std::pair<unsigned int const ,unsigned int> > >::_Prevnode
PUBLIC	?clear@?$list@U?$pair@$$CBII@std@@V?$allocator@U?$pair@$$CBII@std@@@2@@std@@QAEXXZ ; std::list<std::pair<unsigned int const ,unsigned int>,std::allocator<std::pair<unsigned int const ,unsigned int> > >::clear
PUBLIC	?_Tidy@?$list@U?$pair@$$CBII@std@@V?$allocator@U?$pair@$$CBII@std@@@2@@std@@IAEXXZ ; std::list<std::pair<unsigned int const ,unsigned int>,std::allocator<std::pair<unsigned int const ,unsigned int> > >::_Tidy
PUBLIC	??1?$list@U?$pair@$$CBII@std@@V?$allocator@U?$pair@$$CBII@std@@@2@@std@@QAE@XZ ; std::list<std::pair<unsigned int const ,unsigned int>,std::allocator<std::pair<unsigned int const ,unsigned int> > >::~list<std::pair<unsigned int const ,unsigned int>,std::allocator<std::pair<unsigned int const ,unsigned int> > >
PUBLIC	??1?$_Container_base_aux_alloc_real@V?$allocator@U_List_position@?$_Hash@V?$_Umap_traits@IIV?$_Hash_compare@IV?$hash@I@tr1@std@@U?$equal_to@I@3@@stdext@@V?$allocator@U?$pair@$$CBII@std@@@std@@$0A@@tr1@std@@@stdext@@@std@@@std@@IAE@XZ ; std::_Container_base_aux_alloc_real<std::allocator<stdext::_Hash<std::tr1::_Umap_traits<unsigned int,unsigned int,stdext::_Hash_compare<unsigned int,std::tr1::hash<unsigned int>,std::equal_to<unsigned int> >,std::allocator<std::pair<unsigned int const ,unsigned int> >,0> >::_List_position> >::~_Container_base_aux_alloc_real<std::allocator<stdext::_Hash<std::tr1::_Umap_traits<unsigned int,unsigned int,stdext::_Hash_compare<unsigned int,std::tr1::hash<unsigned int>,std::equal_to<unsigned int> >,std::allocator<std::pair<unsigned int const ,unsigned int> >,0> >::_List_position> >
PUBLIC	??1?$_Vector_val@U_List_position@?$_Hash@V?$_Umap_traits@IIV?$_Hash_compare@IV?$hash@I@tr1@std@@U?$equal_to@I@3@@stdext@@V?$allocator@U?$pair@$$CBII@std@@@std@@$0A@@tr1@std@@@stdext@@V?$allocator@U_List_position@?$_Hash@V?$_Umap_traits@IIV?$_Hash_compare@IV?$hash@I@tr1@std@@U?$equal_to@I@3@@stdext@@V?$allocator@U?$pair@$$CBII@std@@@std@@$0A@@tr1@std@@@stdext@@@std@@@std@@QAE@XZ ; std::_Vector_val<stdext::_Hash<std::tr1::_Umap_traits<unsigned int,unsigned int,stdext::_Hash_compare<unsigned int,std::tr1::hash<unsigned int>,std::equal_to<unsigned int> >,std::allocator<std::pair<unsigned int const ,unsigned int> >,0> >::_List_position,std::allocator<stdext::_Hash<std::tr1::_Umap_traits<unsigned int,unsigned int,stdext::_Hash_compare<unsigned int,std::tr1::hash<unsigned int>,std::equal_to<unsigned int> >,std::allocator<std::pair<unsigned int const ,unsigned int> >,0> >::_List_position> >::~_Vector_val<stdext::_Hash<std::tr1::_Umap_traits<unsigned int,unsigned int,stdext::_Hash_compare<unsigned int,std::tr1::hash<unsigned int>,std::equal_to<unsigned int> >,std::allocator<std::pair<unsigned int const ,unsigned int> >,0> >::_List_position,std::allocator<stdext::_Hash<std::tr1::_Umap_traits<unsigned int,unsigned int,stdext::_Hash_compare<unsigned int,std::tr1::hash<unsigned int>,std::equal_to<unsigned int> >,std::allocator<std::pair<unsigned int const ,unsigned int> >,0> >::_List_position> >
PUBLIC	?deallocate@?$allocator@U_List_position@?$_Hash@V?$_Umap_traits@IIV?$_Hash_compare@IV?$hash@I@tr1@std@@U?$equal_to@I@3@@stdext@@V?$allocator@U?$pair@$$CBII@std@@@std@@$0A@@tr1@std@@@stdext@@@std@@QAEXPAU_List_position@?$_Hash@V?$_Umap_traits@IIV?$_Hash_compare@IV?$hash@I@tr1@std@@U?$equal_to@I@3@@stdext@@V?$allocator@U?$pair@$$CBII@std@@@std@@$0A@@tr1@std@@@stdext@@I@Z ; std::allocator<stdext::_Hash<std::tr1::_Umap_traits<unsigned int,unsigned int,stdext::_Hash_compare<unsigned int,std::tr1::hash<unsigned int>,std::equal_to<unsigned int> >,std::allocator<std::pair<unsigned int const ,unsigned int> >,0> >::_List_position>::deallocate
PUBLIC	??$_Ptr_cat@PAU_List_position@?$_Hash@V?$_Umap_traits@IIV?$_Hash_compare@IV?$hash@I@tr1@std@@U?$equal_to@I@3@@stdext@@V?$allocator@U?$pair@$$CBII@std@@@std@@$0A@@tr1@std@@@stdext@@PAU123@@std@@YA?AU_Nonscalar_ptr_iterator_tag@0@AAPAU_List_position@?$_Hash@V?$_Umap_traits@IIV?$_Hash_compare@IV?$hash@I@tr1@std@@U?$equal_to@I@3@@stdext@@V?$allocator@U?$pair@$$CBII@std@@@std@@$0A@@tr1@std@@@stdext@@0@Z ; std::_Ptr_cat<stdext::_Hash<std::tr1::_Umap_traits<unsigned int,unsigned int,stdext::_Hash_compare<unsigned int,std::tr1::hash<unsigned int>,std::equal_to<unsigned int> >,std::allocator<std::pair<unsigned int const ,unsigned int> >,0> >::_List_position *,stdext::_Hash<std::tr1::_Umap_traits<unsigned int,unsigned int,stdext::_Hash_compare<unsigned int,std::tr1::hash<unsigned int>,std::equal_to<unsigned int> >,std::allocator<std::pair<unsigned int const ,unsigned int> >,0> >::_List_position *>
PUBLIC	??$_Destroy@U_List_position@?$_Hash@V?$_Umap_traits@IIV?$_Hash_compare@IV?$hash@I@tr1@std@@U?$equal_to@I@3@@stdext@@V?$allocator@U?$pair@$$CBII@std@@@std@@$0A@@tr1@std@@@stdext@@@std@@YAXPAU_List_position@?$_Hash@V?$_Umap_traits@IIV?$_Hash_compare@IV?$hash@I@tr1@std@@U?$equal_to@I@3@@stdext@@V?$allocator@U?$pair@$$CBII@std@@@std@@$0A@@tr1@std@@@stdext@@@Z ; std::_Destroy<stdext::_Hash<std::tr1::_Umap_traits<unsigned int,unsigned int,stdext::_Hash_compare<unsigned int,std::tr1::hash<unsigned int>,std::equal_to<unsigned int> >,std::allocator<std::pair<unsigned int const ,unsigned int> >,0> >::_List_position>
PUBLIC	?destroy@?$allocator@U_List_position@?$_Hash@V?$_Umap_traits@IIV?$_Hash_compare@IV?$hash@I@tr1@std@@U?$equal_to@I@3@@stdext@@V?$allocator@U?$pair@$$CBII@std@@@std@@$0A@@tr1@std@@@stdext@@@std@@QAEXPAU_List_position@?$_Hash@V?$_Umap_traits@IIV?$_Hash_compare@IV?$hash@I@tr1@std@@U?$equal_to@I@3@@stdext@@V?$allocator@U?$pair@$$CBII@std@@@std@@$0A@@tr1@std@@@stdext@@@Z ; std::allocator<stdext::_Hash<std::tr1::_Umap_traits<unsigned int,unsigned int,stdext::_Hash_compare<unsigned int,std::tr1::hash<unsigned int>,std::equal_to<unsigned int> >,std::allocator<std::pair<unsigned int const ,unsigned int> >,0> >::_List_position>::destroy
PUBLIC	??$_Destroy_range@V?$allocator@U_List_position@?$_Hash@V?$_Umap_traits@IIV?$_Hash_compare@IV?$hash@I@tr1@std@@U?$equal_to@I@3@@stdext@@V?$allocator@U?$pair@$$CBII@std@@@std@@$0A@@tr1@std@@@stdext@@@std@@@std@@YAXPAU_List_position@?$_Hash@V?$_Umap_traits@IIV?$_Hash_compare@IV?$hash@I@tr1@std@@U?$equal_to@I@3@@stdext@@V?$allocator@U?$pair@$$CBII@std@@@std@@$0A@@tr1@std@@@stdext@@0AAV?$allocator@U_List_position@?$_Hash@V?$_Umap_traits@IIV?$_Hash_compare@IV?$hash@I@tr1@std@@U?$equal_to@I@3@@stdext@@V?$allocator@U?$pair@$$CBII@std@@@std@@$0A@@tr1@std@@@stdext@@@0@U_Nonscalar_ptr_iterator_tag@0@@Z ; std::_Destroy_range<std::allocator<stdext::_Hash<std::tr1::_Umap_traits<unsigned int,unsigned int,stdext::_Hash_compare<unsigned int,std::tr1::hash<unsigned int>,std::equal_to<unsigned int> >,std::allocator<std::pair<unsigned int const ,unsigned int> >,0> >::_List_position> >
PUBLIC	??$_Destroy_range@V?$allocator@U_List_position@?$_Hash@V?$_Umap_traits@IIV?$_Hash_compare@IV?$hash@I@tr1@std@@U?$equal_to@I@3@@stdext@@V?$allocator@U?$pair@$$CBII@std@@@std@@$0A@@tr1@std@@@stdext@@@std@@@std@@YAXPAU_List_position@?$_Hash@V?$_Umap_traits@IIV?$_Hash_compare@IV?$hash@I@tr1@std@@U?$equal_to@I@3@@stdext@@V?$allocator@U?$pair@$$CBII@std@@@std@@$0A@@tr1@std@@@stdext@@0AAV?$allocator@U_List_position@?$_Hash@V?$_Umap_traits@IIV?$_Hash_compare@IV?$hash@I@tr1@std@@U?$equal_to@I@3@@stdext@@V?$allocator@U?$pair@$$CBII@std@@@std@@$0A@@tr1@std@@@stdext@@@0@@Z ; std::_Destroy_range<std::allocator<stdext::_Hash<std::tr1::_Umap_traits<unsigned int,unsigned int,stdext::_Hash_compare<unsigned int,std::tr1::hash<unsigned int>,std::equal_to<unsigned int> >,std::allocator<std::pair<unsigned int const ,unsigned int> >,0> >::_List_position> >
PUBLIC	?_Destroy@?$vector@U_List_position@?$_Hash@V?$_Umap_traits@IIV?$_Hash_compare@IV?$hash@I@tr1@std@@U?$equal_to@I@3@@stdext@@V?$allocator@U?$pair@$$CBII@std@@@std@@$0A@@tr1@std@@@stdext@@V?$allocator@U_List_position@?$_Hash@V?$_Umap_traits@IIV?$_Hash_compare@IV?$hash@I@tr1@std@@U?$equal_to@I@3@@stdext@@V?$allocator@U?$pair@$$CBII@std@@@std@@$0A@@tr1@std@@@stdext@@@std@@@std@@IAEXPAU_List_position@?$_Hash@V?$_Umap_traits@IIV?$_Hash_compare@IV?$hash@I@tr1@std@@U?$equal_to@I@3@@stdext@@V?$allocator@U?$pair@$$CBII@std@@@std@@$0A@@tr1@std@@@stdext@@0@Z ; std::vector<stdext::_Hash<std::tr1::_Umap_traits<unsigned int,unsigned int,stdext::_Hash_compare<unsigned int,std::tr1::hash<unsigned int>,std::equal_to<unsigned int> >,std::allocator<std::pair<unsigned int const ,unsigned int> >,0> >::_List_position,std::allocator<stdext::_Hash<std::tr1::_Umap_traits<unsigned int,unsigned int,stdext::_Hash_compare<unsigned int,std::tr1::hash<unsigned int>,std::equal_to<unsigned int> >,std::allocator<std::pair<unsigned int const ,unsigned int> >,0> >::_List_position> >::_Destroy
PUBLIC	?_Tidy@?$vector@U_List_position@?$_Hash@V?$_Umap_traits@IIV?$_Hash_compare@IV?$hash@I@tr1@std@@U?$equal_to@I@3@@stdext@@V?$allocator@U?$pair@$$CBII@std@@@std@@$0A@@tr1@std@@@stdext@@V?$allocator@U_List_position@?$_Hash@V?$_Umap_traits@IIV?$_Hash_compare@IV?$hash@I@tr1@std@@U?$equal_to@I@3@@stdext@@V?$allocator@U?$pair@$$CBII@std@@@std@@$0A@@tr1@std@@@stdext@@@std@@@std@@IAEXXZ ; std::vector<stdext::_Hash<std::tr1::_Umap_traits<unsigned int,unsigned int,stdext::_Hash_compare<unsigned int,std::tr1::hash<unsigned int>,std::equal_to<unsigned int> >,std::allocator<std::pair<unsigned int const ,unsigned int> >,0> >::_List_position,std::allocator<stdext::_Hash<std::tr1::_Umap_traits<unsigned int,unsigned int,stdext::_Hash_compare<unsigned int,std::tr1::hash<unsigned int>,std::equal_to<unsigned int> >,std::allocator<std::pair<unsigned int const ,unsigned int> >,0> >::_List_position> >::_Tidy
PUBLIC	??1?$vector@U_List_position@?$_Hash@V?$_Umap_traits@IIV?$_Hash_compare@IV?$hash@I@tr1@std@@U?$equal_to@I@3@@stdext@@V?$allocator@U?$pair@$$CBII@std@@@std@@$0A@@tr1@std@@@stdext@@V?$allocator@U_List_position@?$_Hash@V?$_Umap_traits@IIV?$_Hash_compare@IV?$hash@I@tr1@std@@U?$equal_to@I@3@@stdext@@V?$allocator@U?$pair@$$CBII@std@@@std@@$0A@@tr1@std@@@stdext@@@std@@@std@@QAE@XZ ; std::vector<stdext::_Hash<std::tr1::_Umap_traits<unsigned int,unsigned int,stdext::_Hash_compare<unsigned int,std::tr1::hash<unsigned int>,std::equal_to<unsigned int> >,std::allocator<std::pair<unsigned int const ,unsigned int> >,0> >::_List_position,std::allocator<stdext::_Hash<std::tr1::_Umap_traits<unsigned int,unsigned int,stdext::_Hash_compare<unsigned int,std::tr1::hash<unsigned int>,std::equal_to<unsigned int> >,std::allocator<std::pair<unsigned int const ,unsigned int> >,0> >::_List_position> >::~vector<stdext::_Hash<std::tr1::_Umap_traits<unsigned int,unsigned int,stdext::_Hash_compare<unsigned int,std::tr1::hash<unsigned int>,std::equal_to<unsigned int> >,std::allocator<std::pair<unsigned int const ,unsigned int> >,0> >::_List_position,std::allocator<stdext::_Hash<std::tr1::_Umap_traits<unsigned int,unsigned int,stdext::_Hash_compare<unsigned int,std::tr1::hash<unsigned int>,std::equal_to<unsigned int> >,std::allocator<std::pair<unsigned int const ,unsigned int> >,0> >::_List_position> >
PUBLIC	??1?$_Hash@V?$_Umap_traits@IIV?$_Hash_compare@IV?$hash@I@tr1@std@@U?$equal_to@I@3@@stdext@@V?$allocator@U?$pair@$$CBII@std@@@std@@$0A@@tr1@std@@@stdext@@QAE@XZ ; stdext::_Hash<std::tr1::_Umap_traits<unsigned int,unsigned int,stdext::_Hash_compare<unsigned int,std::tr1::hash<unsigned int>,std::equal_to<unsigned int> >,std::allocator<std::pair<unsigned int const ,unsigned int> >,0> >::~_Hash<std::tr1::_Umap_traits<unsigned int,unsigned int,stdext::_Hash_compare<unsigned int,std::tr1::hash<unsigned int>,std::equal_to<unsigned int> >,std::allocator<std::pair<unsigned int const ,unsigned int> >,0> >
PUBLIC	??1?$unordered_map@IIV?$hash@I@tr1@std@@U?$equal_to@I@3@V?$allocator@U?$pair@$$CBII@std@@@3@@tr1@std@@QAE@XZ ; std::tr1::unordered_map<unsigned int,unsigned int,std::tr1::hash<unsigned int>,std::equal_to<unsigned int>,std::allocator<std::pair<unsigned int const ,unsigned int> > >::~unordered_map<unsigned int,unsigned int,std::tr1::hash<unsigned int>,std::equal_to<unsigned int>,std::allocator<std::pair<unsigned int const ,unsigned int> > >
PUBLIC	??1?$_Container_base_aux_alloc_real@V?$allocator@U?$pair@$$CB_KVDelayCounter@Statistics@DRAMsimII@@@std@@@std@@@std@@IAE@XZ ; std::_Container_base_aux_alloc_real<std::allocator<std::pair<unsigned __int64 const ,DRAMsimII::Statistics::DelayCounter> > >::~_Container_base_aux_alloc_real<std::allocator<std::pair<unsigned __int64 const ,DRAMsimII::Statistics::DelayCounter> > >
PUBLIC	??1?$_Tmap_traits@_KVDelayCounter@Statistics@DRAMsimII@@U?$less@_K@std@@V?$allocator@U?$pair@$$CB_KVDelayCounter@Statistics@DRAMsimII@@@std@@@5@$0A@@std@@QAE@XZ ; std::_Tmap_traits<unsigned __int64,DRAMsimII::Statistics::DelayCounter,std::less<unsigned __int64>,std::allocator<std::pair<unsigned __int64 const ,DRAMsimII::Statistics::DelayCounter> >,0>::~_Tmap_traits<unsigned __int64,DRAMsimII::Statistics::DelayCounter,std::less<unsigned __int64>,std::allocator<std::pair<unsigned __int64 const ,DRAMsimII::Statistics::DelayCounter> >,0>
PUBLIC	??1?$_Tree_nod@V?$_Tmap_traits@_KVDelayCounter@Statistics@DRAMsimII@@U?$less@_K@std@@V?$allocator@U?$pair@$$CB_KVDelayCounter@Statistics@DRAMsimII@@@std@@@5@$0A@@std@@@std@@QAE@XZ ; std::_Tree_nod<std::_Tmap_traits<unsigned __int64,DRAMsimII::Statistics::DelayCounter,std::less<unsigned __int64>,std::allocator<std::pair<unsigned __int64 const ,DRAMsimII::Statistics::DelayCounter> >,0> >::~_Tree_nod<std::_Tmap_traits<unsigned __int64,DRAMsimII::Statistics::DelayCounter,std::less<unsigned __int64>,std::allocator<std::pair<unsigned __int64 const ,DRAMsimII::Statistics::DelayCounter> >,0> >
PUBLIC	??1?$_Tree_ptr@V?$_Tmap_traits@_KVDelayCounter@Statistics@DRAMsimII@@U?$less@_K@std@@V?$allocator@U?$pair@$$CB_KVDelayCounter@Statistics@DRAMsimII@@@std@@@5@$0A@@std@@@std@@QAE@XZ ; std::_Tree_ptr<std::_Tmap_traits<unsigned __int64,DRAMsimII::Statistics::DelayCounter,std::less<unsigned __int64>,std::allocator<std::pair<unsigned __int64 const ,DRAMsimII::Statistics::DelayCounter> >,0> >::~_Tree_ptr<std::_Tmap_traits<unsigned __int64,DRAMsimII::Statistics::DelayCounter,std::less<unsigned __int64>,std::allocator<std::pair<unsigned __int64 const ,DRAMsimII::Statistics::DelayCounter> >,0> >
PUBLIC	??1?$_Tree_val@V?$_Tmap_traits@_KVDelayCounter@Statistics@DRAMsimII@@U?$less@_K@std@@V?$allocator@U?$pair@$$CB_KVDelayCounter@Statistics@DRAMsimII@@@std@@@5@$0A@@std@@@std@@QAE@XZ ; std::_Tree_val<std::_Tmap_traits<unsigned __int64,DRAMsimII::Statistics::DelayCounter,std::less<unsigned __int64>,std::allocator<std::pair<unsigned __int64 const ,DRAMsimII::Statistics::DelayCounter> >,0> >::~_Tree_val<std::_Tmap_traits<unsigned __int64,DRAMsimII::Statistics::DelayCounter,std::less<unsigned __int64>,std::allocator<std::pair<unsigned __int64 const ,DRAMsimII::Statistics::DelayCounter> >,0> >
PUBLIC	??$_Destroy@PAU_Node@?$_Tree_nod@V?$_Tmap_traits@_KVDelayCounter@Statistics@DRAMsimII@@U?$less@_K@std@@V?$allocator@U?$pair@$$CB_KVDelayCounter@Statistics@DRAMsimII@@@std@@@5@$0A@@std@@@std@@@std@@YAXPAPAU_Node@?$_Tree_nod@V?$_Tmap_traits@_KVDelayCounter@Statistics@DRAMsimII@@U?$less@_K@std@@V?$allocator@U?$pair@$$CB_KVDelayCounter@Statistics@DRAMsimII@@@std@@@5@$0A@@std@@@0@@Z ; std::_Destroy<std::_Tree_nod<std::_Tmap_traits<unsigned __int64,DRAMsimII::Statistics::DelayCounter,std::less<unsigned __int64>,std::allocator<std::pair<unsigned __int64 const ,DRAMsimII::Statistics::DelayCounter> >,0> >::_Node *>
PUBLIC	?destroy@?$allocator@PAU_Node@?$_Tree_nod@V?$_Tmap_traits@_KVDelayCounter@Statistics@DRAMsimII@@U?$less@_K@std@@V?$allocator@U?$pair@$$CB_KVDelayCounter@Statistics@DRAMsimII@@@std@@@5@$0A@@std@@@std@@@std@@QAEXPAPAU_Node@?$_Tree_nod@V?$_Tmap_traits@_KVDelayCounter@Statistics@DRAMsimII@@U?$less@_K@std@@V?$allocator@U?$pair@$$CB_KVDelayCounter@Statistics@DRAMsimII@@@std@@@5@$0A@@std@@@2@@Z ; std::allocator<std::_Tree_nod<std::_Tmap_traits<unsigned __int64,DRAMsimII::Statistics::DelayCounter,std::less<unsigned __int64>,std::allocator<std::pair<unsigned __int64 const ,DRAMsimII::Statistics::DelayCounter> >,0> >::_Node *>::destroy
PUBLIC	?begin@?$_Tree@V?$_Tmap_traits@_KVDelayCounter@Statistics@DRAMsimII@@U?$less@_K@std@@V?$allocator@U?$pair@$$CB_KVDelayCounter@Statistics@DRAMsimII@@@std@@@5@$0A@@std@@@std@@QAE?AViterator@12@XZ ; std::_Tree<std::_Tmap_traits<unsigned __int64,DRAMsimII::Statistics::DelayCounter,std::less<unsigned __int64>,std::allocator<std::pair<unsigned __int64 const ,DRAMsimII::Statistics::DelayCounter> >,0> >::begin
PUBLIC	?end@?$_Tree@V?$_Tmap_traits@_KVDelayCounter@Statistics@DRAMsimII@@U?$less@_K@std@@V?$allocator@U?$pair@$$CB_KVDelayCounter@Statistics@DRAMsimII@@@std@@@5@$0A@@std@@@std@@QAE?AViterator@12@XZ ; std::_Tree<std::_Tmap_traits<unsigned __int64,DRAMsimII::Statistics::DelayCounter,std::less<unsigned __int64>,std::allocator<std::pair<unsigned __int64 const ,DRAMsimII::Statistics::DelayCounter> >,0> >::end
PUBLIC	?_Color@?$_Tree@V?$_Tmap_traits@_KVDelayCounter@Statistics@DRAMsimII@@U?$less@_K@std@@V?$allocator@U?$pair@$$CB_KVDelayCounter@Statistics@DRAMsimII@@@std@@@5@$0A@@std@@@std@@KAAADPAU_Node@?$_Tree_nod@V?$_Tmap_traits@_KVDelayCounter@Statistics@DRAMsimII@@U?$less@_K@std@@V?$allocator@U?$pair@$$CB_KVDelayCounter@Statistics@DRAMsimII@@@std@@@5@$0A@@std@@@2@@Z ; std::_Tree<std::_Tmap_traits<unsigned __int64,DRAMsimII::Statistics::DelayCounter,std::less<unsigned __int64>,std::allocator<std::pair<unsigned __int64 const ,DRAMsimII::Statistics::DelayCounter> >,0> >::_Color
PUBLIC	??0?$_Iterator_with_base@Ubidirectional_iterator_tag@std@@U?$pair@$$CB_KVDelayCounter@Statistics@DRAMsimII@@@2@HPBU32@ABU32@V_Iterator_base_aux@2@@std@@QAE@XZ ; std::_Iterator_with_base<std::bidirectional_iterator_tag,std::pair<unsigned __int64 const ,DRAMsimII::Statistics::DelayCounter>,int,std::pair<unsigned __int64 const ,DRAMsimII::Statistics::DelayCounter> const *,std::pair<unsigned __int64 const ,DRAMsimII::Statistics::DelayCounter> const &,std::_Iterator_base_aux>::_Iterator_with_base<std::bidirectional_iterator_tag,std::pair<unsigned __int64 const ,DRAMsimII::Statistics::DelayCounter>,int,std::pair<unsigned __int64 const ,DRAMsimII::Statistics::DelayCounter> const *,std::pair<unsigned __int64 const ,DRAMsimII::Statistics::DelayCounter> const &,std::_Iterator_base_aux>
PUBLIC	??0?$_Bidit@U?$pair@$$CB_KVDelayCounter@Statistics@DRAMsimII@@@std@@HPBU12@ABU12@@std@@QAE@XZ ; std::_Bidit<std::pair<unsigned __int64 const ,DRAMsimII::Statistics::DelayCounter>,int,std::pair<unsigned __int64 const ,DRAMsimII::Statistics::DelayCounter> const *,std::pair<unsigned __int64 const ,DRAMsimII::Statistics::DelayCounter> const &>::_Bidit<std::pair<unsigned __int64 const ,DRAMsimII::Statistics::DelayCounter>,int,std::pair<unsigned __int64 const ,DRAMsimII::Statistics::DelayCounter> const *,std::pair<unsigned __int64 const ,DRAMsimII::Statistics::DelayCounter> const &>
PUBLIC	??0const_iterator@?$_Tree@V?$_Tmap_traits@_KVDelayCounter@Statistics@DRAMsimII@@U?$less@_K@std@@V?$allocator@U?$pair@$$CB_KVDelayCounter@Statistics@DRAMsimII@@@std@@@5@$0A@@std@@@std@@QAE@PAU_Node@?$_Tree_nod@V?$_Tmap_traits@_KVDelayCounter@Statistics@DRAMsimII@@U?$less@_K@std@@V?$allocator@U?$pair@$$CB_KVDelayCounter@Statistics@DRAMsimII@@@std@@@5@$0A@@std@@@2@PBV12@@Z ; std::_Tree<std::_Tmap_traits<unsigned __int64,DRAMsimII::Statistics::DelayCounter,std::less<unsigned __int64>,std::allocator<std::pair<unsigned __int64 const ,DRAMsimII::Statistics::DelayCounter> >,0> >::const_iterator::const_iterator
PUBLIC	??0iterator@?$_Tree@V?$_Tmap_traits@_KVDelayCounter@Statistics@DRAMsimII@@U?$less@_K@std@@V?$allocator@U?$pair@$$CB_KVDelayCounter@Statistics@DRAMsimII@@@std@@@5@$0A@@std@@@std@@QAE@PAU_Node@?$_Tree_nod@V?$_Tmap_traits@_KVDelayCounter@Statistics@DRAMsimII@@U?$less@_K@std@@V?$allocator@U?$pair@$$CB_KVDelayCounter@Statistics@DRAMsimII@@@std@@@5@$0A@@std@@@2@PBV12@@Z ; std::_Tree<std::_Tmap_traits<unsigned __int64,DRAMsimII::Statistics::DelayCounter,std::less<unsigned __int64>,std::allocator<std::pair<unsigned __int64 const ,DRAMsimII::Statistics::DelayCounter> >,0> >::iterator::iterator
PUBLIC	?_Make_iter@?$_Tree@V?$_Tmap_traits@_KVDelayCounter@Statistics@DRAMsimII@@U?$less@_K@std@@V?$allocator@U?$pair@$$CB_KVDelayCounter@Statistics@DRAMsimII@@@std@@@5@$0A@@std@@@std@@QBE?AViterator@12@Vconst_iterator@12@@Z ; std::_Tree<std::_Tmap_traits<unsigned __int64,DRAMsimII::Statistics::DelayCounter,std::less<unsigned __int64>,std::allocator<std::pair<unsigned __int64 const ,DRAMsimII::Statistics::DelayCounter> >,0> >::_Make_iter
PUBLIC	?_Lrotate@?$_Tree@V?$_Tmap_traits@_KVDelayCounter@Statistics@DRAMsimII@@U?$less@_K@std@@V?$allocator@U?$pair@$$CB_KVDelayCounter@Statistics@DRAMsimII@@@std@@@5@$0A@@std@@@std@@IAEXPAU_Node@?$_Tree_nod@V?$_Tmap_traits@_KVDelayCounter@Statistics@DRAMsimII@@U?$less@_K@std@@V?$allocator@U?$pair@$$CB_KVDelayCounter@Statistics@DRAMsimII@@@std@@@5@$0A@@std@@@2@@Z ; std::_Tree<std::_Tmap_traits<unsigned __int64,DRAMsimII::Statistics::DelayCounter,std::less<unsigned __int64>,std::allocator<std::pair<unsigned __int64 const ,DRAMsimII::Statistics::DelayCounter> >,0> >::_Lrotate
PUBLIC	?_Max@?$_Tree@V?$_Tmap_traits@_KVDelayCounter@Statistics@DRAMsimII@@U?$less@_K@std@@V?$allocator@U?$pair@$$CB_KVDelayCounter@Statistics@DRAMsimII@@@std@@@5@$0A@@std@@@std@@KAPAU_Node@?$_Tree_nod@V?$_Tmap_traits@_KVDelayCounter@Statistics@DRAMsimII@@U?$less@_K@std@@V?$allocator@U?$pair@$$CB_KVDelayCounter@Statistics@DRAMsimII@@@std@@@5@$0A@@std@@@2@PAU342@@Z ; std::_Tree<std::_Tmap_traits<unsigned __int64,DRAMsimII::Statistics::DelayCounter,std::less<unsigned __int64>,std::allocator<std::pair<unsigned __int64 const ,DRAMsimII::Statistics::DelayCounter> >,0> >::_Max
PUBLIC	?_Rrotate@?$_Tree@V?$_Tmap_traits@_KVDelayCounter@Statistics@DRAMsimII@@U?$less@_K@std@@V?$allocator@U?$pair@$$CB_KVDelayCounter@Statistics@DRAMsimII@@@std@@@5@$0A@@std@@@std@@IAEXPAU_Node@?$_Tree_nod@V?$_Tmap_traits@_KVDelayCounter@Statistics@DRAMsimII@@U?$less@_K@std@@V?$allocator@U?$pair@$$CB_KVDelayCounter@Statistics@DRAMsimII@@@std@@@5@$0A@@std@@@2@@Z ; std::_Tree<std::_Tmap_traits<unsigned __int64,DRAMsimII::Statistics::DelayCounter,std::less<unsigned __int64>,std::allocator<std::pair<unsigned __int64 const ,DRAMsimII::Statistics::DelayCounter> >,0> >::_Rrotate
PUBLIC	?_Mynode@const_iterator@?$_Tree@V?$_Tmap_traits@_KVDelayCounter@Statistics@DRAMsimII@@U?$less@_K@std@@V?$allocator@U?$pair@$$CB_KVDelayCounter@Statistics@DRAMsimII@@@std@@@5@$0A@@std@@@std@@QBEPAU_Node@?$_Tree_nod@V?$_Tmap_traits@_KVDelayCounter@Statistics@DRAMsimII@@U?$less@_K@std@@V?$allocator@U?$pair@$$CB_KVDelayCounter@Statistics@DRAMsimII@@@std@@@5@$0A@@std@@@3@XZ ; std::_Tree<std::_Tmap_traits<unsigned __int64,DRAMsimII::Statistics::DelayCounter,std::less<unsigned __int64>,std::allocator<std::pair<unsigned __int64 const ,DRAMsimII::Statistics::DelayCounter> >,0> >::const_iterator::_Mynode
PUBLIC	?erase@?$_Tree@V?$_Tmap_traits@_KVDelayCounter@Statistics@DRAMsimII@@U?$less@_K@std@@V?$allocator@U?$pair@$$CB_KVDelayCounter@Statistics@DRAMsimII@@@std@@@5@$0A@@std@@@std@@QAE?AViterator@12@Vconst_iterator@12@@Z ; std::_Tree<std::_Tmap_traits<unsigned __int64,DRAMsimII::Statistics::DelayCounter,std::less<unsigned __int64>,std::allocator<std::pair<unsigned __int64 const ,DRAMsimII::Statistics::DelayCounter> >,0> >::erase
PUBLIC	?deallocate@?$allocator@U_Node@?$_Tree_nod@V?$_Tmap_traits@_KVDelayCounter@Statistics@DRAMsimII@@U?$less@_K@std@@V?$allocator@U?$pair@$$CB_KVDelayCounter@Statistics@DRAMsimII@@@std@@@5@$0A@@std@@@std@@@std@@QAEXPAU_Node@?$_Tree_nod@V?$_Tmap_traits@_KVDelayCounter@Statistics@DRAMsimII@@U?$less@_K@std@@V?$allocator@U?$pair@$$CB_KVDelayCounter@Statistics@DRAMsimII@@@std@@@5@$0A@@std@@@2@I@Z ; std::allocator<std::_Tree_nod<std::_Tmap_traits<unsigned __int64,DRAMsimII::Statistics::DelayCounter,std::less<unsigned __int64>,std::allocator<std::pair<unsigned __int64 const ,DRAMsimII::Statistics::DelayCounter> >,0> >::_Node>::deallocate
PUBLIC	??$_Destroy@U_Node@?$_Tree_nod@V?$_Tmap_traits@_KVDelayCounter@Statistics@DRAMsimII@@U?$less@_K@std@@V?$allocator@U?$pair@$$CB_KVDelayCounter@Statistics@DRAMsimII@@@std@@@5@$0A@@std@@@std@@@std@@YAXPAU_Node@?$_Tree_nod@V?$_Tmap_traits@_KVDelayCounter@Statistics@DRAMsimII@@U?$less@_K@std@@V?$allocator@U?$pair@$$CB_KVDelayCounter@Statistics@DRAMsimII@@@std@@@5@$0A@@std@@@0@@Z ; std::_Destroy<std::_Tree_nod<std::_Tmap_traits<unsigned __int64,DRAMsimII::Statistics::DelayCounter,std::less<unsigned __int64>,std::allocator<std::pair<unsigned __int64 const ,DRAMsimII::Statistics::DelayCounter> >,0> >::_Node>
PUBLIC	?destroy@?$allocator@U_Node@?$_Tree_nod@V?$_Tmap_traits@_KVDelayCounter@Statistics@DRAMsimII@@U?$less@_K@std@@V?$allocator@U?$pair@$$CB_KVDelayCounter@Statistics@DRAMsimII@@@std@@@5@$0A@@std@@@std@@@std@@QAEXPAU_Node@?$_Tree_nod@V?$_Tmap_traits@_KVDelayCounter@Statistics@DRAMsimII@@U?$less@_K@std@@V?$allocator@U?$pair@$$CB_KVDelayCounter@Statistics@DRAMsimII@@@std@@@5@$0A@@std@@@2@@Z ; std::allocator<std::_Tree_nod<std::_Tmap_traits<unsigned __int64,DRAMsimII::Statistics::DelayCounter,std::less<unsigned __int64>,std::allocator<std::pair<unsigned __int64 const ,DRAMsimII::Statistics::DelayCounter> >,0> >::_Node>::destroy
PUBLIC	?_Erase@?$_Tree@V?$_Tmap_traits@_KVDelayCounter@Statistics@DRAMsimII@@U?$less@_K@std@@V?$allocator@U?$pair@$$CB_KVDelayCounter@Statistics@DRAMsimII@@@std@@@5@$0A@@std@@@std@@IAEXPAU_Node@?$_Tree_nod@V?$_Tmap_traits@_KVDelayCounter@Statistics@DRAMsimII@@U?$less@_K@std@@V?$allocator@U?$pair@$$CB_KVDelayCounter@Statistics@DRAMsimII@@@std@@@5@$0A@@std@@@2@@Z ; std::_Tree<std::_Tmap_traits<unsigned __int64,DRAMsimII::Statistics::DelayCounter,std::less<unsigned __int64>,std::allocator<std::pair<unsigned __int64 const ,DRAMsimII::Statistics::DelayCounter> >,0> >::_Erase
PUBLIC	?_Lmost@?$_Tree@V?$_Tmap_traits@_KVDelayCounter@Statistics@DRAMsimII@@U?$less@_K@std@@V?$allocator@U?$pair@$$CB_KVDelayCounter@Statistics@DRAMsimII@@@std@@@5@$0A@@std@@@std@@IBEAAPAU_Node@?$_Tree_nod@V?$_Tmap_traits@_KVDelayCounter@Statistics@DRAMsimII@@U?$less@_K@std@@V?$allocator@U?$pair@$$CB_KVDelayCounter@Statistics@DRAMsimII@@@std@@@5@$0A@@std@@@2@XZ ; std::_Tree<std::_Tmap_traits<unsigned __int64,DRAMsimII::Statistics::DelayCounter,std::less<unsigned __int64>,std::allocator<std::pair<unsigned __int64 const ,DRAMsimII::Statistics::DelayCounter> >,0> >::_Lmost
PUBLIC	?_Rmost@?$_Tree@V?$_Tmap_traits@_KVDelayCounter@Statistics@DRAMsimII@@U?$less@_K@std@@V?$allocator@U?$pair@$$CB_KVDelayCounter@Statistics@DRAMsimII@@@std@@@5@$0A@@std@@@std@@IBEAAPAU_Node@?$_Tree_nod@V?$_Tmap_traits@_KVDelayCounter@Statistics@DRAMsimII@@U?$less@_K@std@@V?$allocator@U?$pair@$$CB_KVDelayCounter@Statistics@DRAMsimII@@@std@@@5@$0A@@std@@@2@XZ ; std::_Tree<std::_Tmap_traits<unsigned __int64,DRAMsimII::Statistics::DelayCounter,std::less<unsigned __int64>,std::allocator<std::pair<unsigned __int64 const ,DRAMsimII::Statistics::DelayCounter> >,0> >::_Rmost
PUBLIC	?_Root@?$_Tree@V?$_Tmap_traits@_KVDelayCounter@Statistics@DRAMsimII@@U?$less@_K@std@@V?$allocator@U?$pair@$$CB_KVDelayCounter@Statistics@DRAMsimII@@@std@@@5@$0A@@std@@@std@@IBEAAPAU_Node@?$_Tree_nod@V?$_Tmap_traits@_KVDelayCounter@Statistics@DRAMsimII@@U?$less@_K@std@@V?$allocator@U?$pair@$$CB_KVDelayCounter@Statistics@DRAMsimII@@@std@@@5@$0A@@std@@@2@XZ ; std::_Tree<std::_Tmap_traits<unsigned __int64,DRAMsimII::Statistics::DelayCounter,std::less<unsigned __int64>,std::allocator<std::pair<unsigned __int64 const ,DRAMsimII::Statistics::DelayCounter> >,0> >::_Root
PUBLIC	?clear@?$_Tree@V?$_Tmap_traits@_KVDelayCounter@Statistics@DRAMsimII@@U?$less@_K@std@@V?$allocator@U?$pair@$$CB_KVDelayCounter@Statistics@DRAMsimII@@@std@@@5@$0A@@std@@@std@@QAEXXZ ; std::_Tree<std::_Tmap_traits<unsigned __int64,DRAMsimII::Statistics::DelayCounter,std::less<unsigned __int64>,std::allocator<std::pair<unsigned __int64 const ,DRAMsimII::Statistics::DelayCounter> >,0> >::clear
PUBLIC	?_Parent@?$_Tree@V?$_Tmap_traits@_KVDelayCounter@Statistics@DRAMsimII@@U?$less@_K@std@@V?$allocator@U?$pair@$$CB_KVDelayCounter@Statistics@DRAMsimII@@@std@@@5@$0A@@std@@@std@@KAAAPAU_Node@?$_Tree_nod@V?$_Tmap_traits@_KVDelayCounter@Statistics@DRAMsimII@@U?$less@_K@std@@V?$allocator@U?$pair@$$CB_KVDelayCounter@Statistics@DRAMsimII@@@std@@@5@$0A@@std@@@2@PAU342@@Z ; std::_Tree<std::_Tmap_traits<unsigned __int64,DRAMsimII::Statistics::DelayCounter,std::less<unsigned __int64>,std::allocator<std::pair<unsigned __int64 const ,DRAMsimII::Statistics::DelayCounter> >,0> >::_Parent
PUBLIC	?_Right@?$_Tree@V?$_Tmap_traits@_KVDelayCounter@Statistics@DRAMsimII@@U?$less@_K@std@@V?$allocator@U?$pair@$$CB_KVDelayCounter@Statistics@DRAMsimII@@@std@@@5@$0A@@std@@@std@@KAAAPAU_Node@?$_Tree_nod@V?$_Tmap_traits@_KVDelayCounter@Statistics@DRAMsimII@@U?$less@_K@std@@V?$allocator@U?$pair@$$CB_KVDelayCounter@Statistics@DRAMsimII@@@std@@@5@$0A@@std@@@2@PAU342@@Z ; std::_Tree<std::_Tmap_traits<unsigned __int64,DRAMsimII::Statistics::DelayCounter,std::less<unsigned __int64>,std::allocator<std::pair<unsigned __int64 const ,DRAMsimII::Statistics::DelayCounter> >,0> >::_Right
PUBLIC	?_Isnil@?$_Tree@V?$_Tmap_traits@_KVDelayCounter@Statistics@DRAMsimII@@U?$less@_K@std@@V?$allocator@U?$pair@$$CB_KVDelayCounter@Statistics@DRAMsimII@@@std@@@5@$0A@@std@@@std@@KAAADPAU_Node@?$_Tree_nod@V?$_Tmap_traits@_KVDelayCounter@Statistics@DRAMsimII@@U?$less@_K@std@@V?$allocator@U?$pair@$$CB_KVDelayCounter@Statistics@DRAMsimII@@@std@@@5@$0A@@std@@@2@@Z ; std::_Tree<std::_Tmap_traits<unsigned __int64,DRAMsimII::Statistics::DelayCounter,std::less<unsigned __int64>,std::allocator<std::pair<unsigned __int64 const ,DRAMsimII::Statistics::DelayCounter> >,0> >::_Isnil
PUBLIC	?_Left@?$_Tree@V?$_Tmap_traits@_KVDelayCounter@Statistics@DRAMsimII@@U?$less@_K@std@@V?$allocator@U?$pair@$$CB_KVDelayCounter@Statistics@DRAMsimII@@@std@@@5@$0A@@std@@@std@@KAAAPAU_Node@?$_Tree_nod@V?$_Tmap_traits@_KVDelayCounter@Statistics@DRAMsimII@@U?$less@_K@std@@V?$allocator@U?$pair@$$CB_KVDelayCounter@Statistics@DRAMsimII@@@std@@@5@$0A@@std@@@2@PAU342@@Z ; std::_Tree<std::_Tmap_traits<unsigned __int64,DRAMsimII::Statistics::DelayCounter,std::less<unsigned __int64>,std::allocator<std::pair<unsigned __int64 const ,DRAMsimII::Statistics::DelayCounter> >,0> >::_Left
PUBLIC	?_Min@?$_Tree@V?$_Tmap_traits@_KVDelayCounter@Statistics@DRAMsimII@@U?$less@_K@std@@V?$allocator@U?$pair@$$CB_KVDelayCounter@Statistics@DRAMsimII@@@std@@@5@$0A@@std@@@std@@KAPAU_Node@?$_Tree_nod@V?$_Tmap_traits@_KVDelayCounter@Statistics@DRAMsimII@@U?$less@_K@std@@V?$allocator@U?$pair@$$CB_KVDelayCounter@Statistics@DRAMsimII@@@std@@@5@$0A@@std@@@2@PAU342@@Z ; std::_Tree<std::_Tmap_traits<unsigned __int64,DRAMsimII::Statistics::DelayCounter,std::less<unsigned __int64>,std::allocator<std::pair<unsigned __int64 const ,DRAMsimII::Statistics::DelayCounter> >,0> >::_Min
PUBLIC	?_Inc@const_iterator@?$_Tree@V?$_Tmap_traits@_KVDelayCounter@Statistics@DRAMsimII@@U?$less@_K@std@@V?$allocator@U?$pair@$$CB_KVDelayCounter@Statistics@DRAMsimII@@@std@@@5@$0A@@std@@@std@@QAEXXZ ; std::_Tree<std::_Tmap_traits<unsigned __int64,DRAMsimII::Statistics::DelayCounter,std::less<unsigned __int64>,std::allocator<std::pair<unsigned __int64 const ,DRAMsimII::Statistics::DelayCounter> >,0> >::const_iterator::_Inc
PUBLIC	??Econst_iterator@?$_Tree@V?$_Tmap_traits@_KVDelayCounter@Statistics@DRAMsimII@@U?$less@_K@std@@V?$allocator@U?$pair@$$CB_KVDelayCounter@Statistics@DRAMsimII@@@std@@@5@$0A@@std@@@std@@QAEAAV012@XZ ; std::_Tree<std::_Tmap_traits<unsigned __int64,DRAMsimII::Statistics::DelayCounter,std::less<unsigned __int64>,std::allocator<std::pair<unsigned __int64 const ,DRAMsimII::Statistics::DelayCounter> >,0> >::const_iterator::operator++
PUBLIC	??Econst_iterator@?$_Tree@V?$_Tmap_traits@_KVDelayCounter@Statistics@DRAMsimII@@U?$less@_K@std@@V?$allocator@U?$pair@$$CB_KVDelayCounter@Statistics@DRAMsimII@@@std@@@5@$0A@@std@@@std@@QAE?AV012@H@Z ; std::_Tree<std::_Tmap_traits<unsigned __int64,DRAMsimII::Statistics::DelayCounter,std::less<unsigned __int64>,std::allocator<std::pair<unsigned __int64 const ,DRAMsimII::Statistics::DelayCounter> >,0> >::const_iterator::operator++
PUBLIC	??8const_iterator@?$_Tree@V?$_Tmap_traits@_KVDelayCounter@Statistics@DRAMsimII@@U?$less@_K@std@@V?$allocator@U?$pair@$$CB_KVDelayCounter@Statistics@DRAMsimII@@@std@@@5@$0A@@std@@@std@@QBE_NABV012@@Z ; std::_Tree<std::_Tmap_traits<unsigned __int64,DRAMsimII::Statistics::DelayCounter,std::less<unsigned __int64>,std::allocator<std::pair<unsigned __int64 const ,DRAMsimII::Statistics::DelayCounter> >,0> >::const_iterator::operator==
PUBLIC	??9const_iterator@?$_Tree@V?$_Tmap_traits@_KVDelayCounter@Statistics@DRAMsimII@@U?$less@_K@std@@V?$allocator@U?$pair@$$CB_KVDelayCounter@Statistics@DRAMsimII@@@std@@@5@$0A@@std@@@std@@QBE_NABV012@@Z ; std::_Tree<std::_Tmap_traits<unsigned __int64,DRAMsimII::Statistics::DelayCounter,std::less<unsigned __int64>,std::allocator<std::pair<unsigned __int64 const ,DRAMsimII::Statistics::DelayCounter> >,0> >::const_iterator::operator!=
PUBLIC	?erase@?$_Tree@V?$_Tmap_traits@_KVDelayCounter@Statistics@DRAMsimII@@U?$less@_K@std@@V?$allocator@U?$pair@$$CB_KVDelayCounter@Statistics@DRAMsimII@@@std@@@5@$0A@@std@@@std@@QAE?AViterator@12@Vconst_iterator@12@0@Z ; std::_Tree<std::_Tmap_traits<unsigned __int64,DRAMsimII::Statistics::DelayCounter,std::less<unsigned __int64>,std::allocator<std::pair<unsigned __int64 const ,DRAMsimII::Statistics::DelayCounter> >,0> >::erase
PUBLIC	?_Tidy@?$_Tree@V?$_Tmap_traits@_KVDelayCounter@Statistics@DRAMsimII@@U?$less@_K@std@@V?$allocator@U?$pair@$$CB_KVDelayCounter@Statistics@DRAMsimII@@@std@@@5@$0A@@std@@@std@@IAEXXZ ; std::_Tree<std::_Tmap_traits<unsigned __int64,DRAMsimII::Statistics::DelayCounter,std::less<unsigned __int64>,std::allocator<std::pair<unsigned __int64 const ,DRAMsimII::Statistics::DelayCounter> >,0> >::_Tidy
PUBLIC	??1?$_Tree@V?$_Tmap_traits@_KVDelayCounter@Statistics@DRAMsimII@@U?$less@_K@std@@V?$allocator@U?$pair@$$CB_KVDelayCounter@Statistics@DRAMsimII@@@std@@@5@$0A@@std@@@std@@QAE@XZ ; std::_Tree<std::_Tmap_traits<unsigned __int64,DRAMsimII::Statistics::DelayCounter,std::less<unsigned __int64>,std::allocator<std::pair<unsigned __int64 const ,DRAMsimII::Statistics::DelayCounter> >,0> >::~_Tree<std::_Tmap_traits<unsigned __int64,DRAMsimII::Statistics::DelayCounter,std::less<unsigned __int64>,std::allocator<std::pair<unsigned __int64 const ,DRAMsimII::Statistics::DelayCounter> >,0> >
PUBLIC	??1?$map@_KVDelayCounter@Statistics@DRAMsimII@@U?$less@_K@std@@V?$allocator@U?$pair@$$CB_KVDelayCounter@Statistics@DRAMsimII@@@std@@@5@@std@@QAE@XZ ; std::map<unsigned __int64,DRAMsimII::Statistics::DelayCounter,std::less<unsigned __int64>,std::allocator<std::pair<unsigned __int64 const ,DRAMsimII::Statistics::DelayCounter> > >::~map<unsigned __int64,DRAMsimII::Statistics::DelayCounter,std::less<unsigned __int64>,std::allocator<std::pair<unsigned __int64 const ,DRAMsimII::Statistics::DelayCounter> > >
PUBLIC	??1?$_Container_base_aux_alloc_real@V?$allocator@U?$pair@$$CB_KI@std@@@std@@@std@@IAE@XZ ; std::_Container_base_aux_alloc_real<std::allocator<std::pair<unsigned __int64 const ,unsigned int> > >::~_Container_base_aux_alloc_real<std::allocator<std::pair<unsigned __int64 const ,unsigned int> > >
PUBLIC	??1?$_Tmap_traits@_KIU?$less@_K@std@@V?$allocator@U?$pair@$$CB_KI@std@@@2@$0A@@std@@QAE@XZ ; std::_Tmap_traits<unsigned __int64,unsigned int,std::less<unsigned __int64>,std::allocator<std::pair<unsigned __int64 const ,unsigned int> >,0>::~_Tmap_traits<unsigned __int64,unsigned int,std::less<unsigned __int64>,std::allocator<std::pair<unsigned __int64 const ,unsigned int> >,0>
PUBLIC	??1?$_Tree_nod@V?$_Tmap_traits@_KIU?$less@_K@std@@V?$allocator@U?$pair@$$CB_KI@std@@@2@$0A@@std@@@std@@QAE@XZ ; std::_Tree_nod<std::_Tmap_traits<unsigned __int64,unsigned int,std::less<unsigned __int64>,std::allocator<std::pair<unsigned __int64 const ,unsigned int> >,0> >::~_Tree_nod<std::_Tmap_traits<unsigned __int64,unsigned int,std::less<unsigned __int64>,std::allocator<std::pair<unsigned __int64 const ,unsigned int> >,0> >
PUBLIC	??1?$_Tree_ptr@V?$_Tmap_traits@_KIU?$less@_K@std@@V?$allocator@U?$pair@$$CB_KI@std@@@2@$0A@@std@@@std@@QAE@XZ ; std::_Tree_ptr<std::_Tmap_traits<unsigned __int64,unsigned int,std::less<unsigned __int64>,std::allocator<std::pair<unsigned __int64 const ,unsigned int> >,0> >::~_Tree_ptr<std::_Tmap_traits<unsigned __int64,unsigned int,std::less<unsigned __int64>,std::allocator<std::pair<unsigned __int64 const ,unsigned int> >,0> >
PUBLIC	??1?$_Tree_val@V?$_Tmap_traits@_KIU?$less@_K@std@@V?$allocator@U?$pair@$$CB_KI@std@@@2@$0A@@std@@@std@@QAE@XZ ; std::_Tree_val<std::_Tmap_traits<unsigned __int64,unsigned int,std::less<unsigned __int64>,std::allocator<std::pair<unsigned __int64 const ,unsigned int> >,0> >::~_Tree_val<std::_Tmap_traits<unsigned __int64,unsigned int,std::less<unsigned __int64>,std::allocator<std::pair<unsigned __int64 const ,unsigned int> >,0> >
PUBLIC	??$_Destroy@PAU_Node@?$_Tree_nod@V?$_Tmap_traits@_KIU?$less@_K@std@@V?$allocator@U?$pair@$$CB_KI@std@@@2@$0A@@std@@@std@@@std@@YAXPAPAU_Node@?$_Tree_nod@V?$_Tmap_traits@_KIU?$less@_K@std@@V?$allocator@U?$pair@$$CB_KI@std@@@2@$0A@@std@@@0@@Z ; std::_Destroy<std::_Tree_nod<std::_Tmap_traits<unsigned __int64,unsigned int,std::less<unsigned __int64>,std::allocator<std::pair<unsigned __int64 const ,unsigned int> >,0> >::_Node *>
PUBLIC	?destroy@?$allocator@PAU_Node@?$_Tree_nod@V?$_Tmap_traits@_KIU?$less@_K@std@@V?$allocator@U?$pair@$$CB_KI@std@@@2@$0A@@std@@@std@@@std@@QAEXPAPAU_Node@?$_Tree_nod@V?$_Tmap_traits@_KIU?$less@_K@std@@V?$allocator@U?$pair@$$CB_KI@std@@@2@$0A@@std@@@2@@Z ; std::allocator<std::_Tree_nod<std::_Tmap_traits<unsigned __int64,unsigned int,std::less<unsigned __int64>,std::allocator<std::pair<unsigned __int64 const ,unsigned int> >,0> >::_Node *>::destroy
PUBLIC	?begin@?$_Tree@V?$_Tmap_traits@_KIU?$less@_K@std@@V?$allocator@U?$pair@$$CB_KI@std@@@2@$0A@@std@@@std@@QAE?AViterator@12@XZ ; std::_Tree<std::_Tmap_traits<unsigned __int64,unsigned int,std::less<unsigned __int64>,std::allocator<std::pair<unsigned __int64 const ,unsigned int> >,0> >::begin
PUBLIC	?end@?$_Tree@V?$_Tmap_traits@_KIU?$less@_K@std@@V?$allocator@U?$pair@$$CB_KI@std@@@2@$0A@@std@@@std@@QAE?AViterator@12@XZ ; std::_Tree<std::_Tmap_traits<unsigned __int64,unsigned int,std::less<unsigned __int64>,std::allocator<std::pair<unsigned __int64 const ,unsigned int> >,0> >::end
PUBLIC	??0out_of_range@std@@QAE@ABV?$basic_string@DU?$char_traits@D@std@@V?$allocator@D@2@@1@@Z ; std::out_of_range::out_of_range
PUBLIC	??1out_of_range@std@@UAE@XZ			; std::out_of_range::~out_of_range
PUBLIC	??_Gout_of_range@std@@UAEPAXI@Z			; std::out_of_range::`scalar deleting destructor'
PUBLIC	??0out_of_range@std@@QAE@ABV01@@Z		; std::out_of_range::out_of_range
PUBLIC	?_Color@?$_Tree@V?$_Tmap_traits@_KIU?$less@_K@std@@V?$allocator@U?$pair@$$CB_KI@std@@@2@$0A@@std@@@std@@KAAADPAU_Node@?$_Tree_nod@V?$_Tmap_traits@_KIU?$less@_K@std@@V?$allocator@U?$pair@$$CB_KI@std@@@2@$0A@@std@@@2@@Z ; std::_Tree<std::_Tmap_traits<unsigned __int64,unsigned int,std::less<unsigned __int64>,std::allocator<std::pair<unsigned __int64 const ,unsigned int> >,0> >::_Color
PUBLIC	??0?$_Iterator_with_base@Ubidirectional_iterator_tag@std@@U?$pair@$$CB_KI@2@HPBU32@ABU32@V_Iterator_base_aux@2@@std@@QAE@XZ ; std::_Iterator_with_base<std::bidirectional_iterator_tag,std::pair<unsigned __int64 const ,unsigned int>,int,std::pair<unsigned __int64 const ,unsigned int> const *,std::pair<unsigned __int64 const ,unsigned int> const &,std::_Iterator_base_aux>::_Iterator_with_base<std::bidirectional_iterator_tag,std::pair<unsigned __int64 const ,unsigned int>,int,std::pair<unsigned __int64 const ,unsigned int> const *,std::pair<unsigned __int64 const ,unsigned int> const &,std::_Iterator_base_aux>
PUBLIC	??0?$_Bidit@U?$pair@$$CB_KI@std@@HPBU12@ABU12@@std@@QAE@XZ ; std::_Bidit<std::pair<unsigned __int64 const ,unsigned int>,int,std::pair<unsigned __int64 const ,unsigned int> const *,std::pair<unsigned __int64 const ,unsigned int> const &>::_Bidit<std::pair<unsigned __int64 const ,unsigned int>,int,std::pair<unsigned __int64 const ,unsigned int> const *,std::pair<unsigned __int64 const ,unsigned int> const &>
PUBLIC	??0const_iterator@?$_Tree@V?$_Tmap_traits@_KIU?$less@_K@std@@V?$allocator@U?$pair@$$CB_KI@std@@@2@$0A@@std@@@std@@QAE@PAU_Node@?$_Tree_nod@V?$_Tmap_traits@_KIU?$less@_K@std@@V?$allocator@U?$pair@$$CB_KI@std@@@2@$0A@@std@@@2@PBV12@@Z ; std::_Tree<std::_Tmap_traits<unsigned __int64,unsigned int,std::less<unsigned __int64>,std::allocator<std::pair<unsigned __int64 const ,unsigned int> >,0> >::const_iterator::const_iterator
PUBLIC	??0iterator@?$_Tree@V?$_Tmap_traits@_KIU?$less@_K@std@@V?$allocator@U?$pair@$$CB_KI@std@@@2@$0A@@std@@@std@@QAE@PAU_Node@?$_Tree_nod@V?$_Tmap_traits@_KIU?$less@_K@std@@V?$allocator@U?$pair@$$CB_KI@std@@@2@$0A@@std@@@2@PBV12@@Z ; std::_Tree<std::_Tmap_traits<unsigned __int64,unsigned int,std::less<unsigned __int64>,std::allocator<std::pair<unsigned __int64 const ,unsigned int> >,0> >::iterator::iterator
PUBLIC	?_Make_iter@?$_Tree@V?$_Tmap_traits@_KIU?$less@_K@std@@V?$allocator@U?$pair@$$CB_KI@std@@@2@$0A@@std@@@std@@QBE?AViterator@12@Vconst_iterator@12@@Z ; std::_Tree<std::_Tmap_traits<unsigned __int64,unsigned int,std::less<unsigned __int64>,std::allocator<std::pair<unsigned __int64 const ,unsigned int> >,0> >::_Make_iter
PUBLIC	?_Lrotate@?$_Tree@V?$_Tmap_traits@_KIU?$less@_K@std@@V?$allocator@U?$pair@$$CB_KI@std@@@2@$0A@@std@@@std@@IAEXPAU_Node@?$_Tree_nod@V?$_Tmap_traits@_KIU?$less@_K@std@@V?$allocator@U?$pair@$$CB_KI@std@@@2@$0A@@std@@@2@@Z ; std::_Tree<std::_Tmap_traits<unsigned __int64,unsigned int,std::less<unsigned __int64>,std::allocator<std::pair<unsigned __int64 const ,unsigned int> >,0> >::_Lrotate
PUBLIC	?_Max@?$_Tree@V?$_Tmap_traits@_KIU?$less@_K@std@@V?$allocator@U?$pair@$$CB_KI@std@@@2@$0A@@std@@@std@@KAPAU_Node@?$_Tree_nod@V?$_Tmap_traits@_KIU?$less@_K@std@@V?$allocator@U?$pair@$$CB_KI@std@@@2@$0A@@std@@@2@PAU342@@Z ; std::_Tree<std::_Tmap_traits<unsigned __int64,unsigned int,std::less<unsigned __int64>,std::allocator<std::pair<unsigned __int64 const ,unsigned int> >,0> >::_Max
PUBLIC	?_Rrotate@?$_Tree@V?$_Tmap_traits@_KIU?$less@_K@std@@V?$allocator@U?$pair@$$CB_KI@std@@@2@$0A@@std@@@std@@IAEXPAU_Node@?$_Tree_nod@V?$_Tmap_traits@_KIU?$less@_K@std@@V?$allocator@U?$pair@$$CB_KI@std@@@2@$0A@@std@@@2@@Z ; std::_Tree<std::_Tmap_traits<unsigned __int64,unsigned int,std::less<unsigned __int64>,std::allocator<std::pair<unsigned __int64 const ,unsigned int> >,0> >::_Rrotate
PUBLIC	?_Mynode@const_iterator@?$_Tree@V?$_Tmap_traits@_KIU?$less@_K@std@@V?$allocator@U?$pair@$$CB_KI@std@@@2@$0A@@std@@@std@@QBEPAU_Node@?$_Tree_nod@V?$_Tmap_traits@_KIU?$less@_K@std@@V?$allocator@U?$pair@$$CB_KI@std@@@2@$0A@@std@@@3@XZ ; std::_Tree<std::_Tmap_traits<unsigned __int64,unsigned int,std::less<unsigned __int64>,std::allocator<std::pair<unsigned __int64 const ,unsigned int> >,0> >::const_iterator::_Mynode
PUBLIC	??$swap@D@std@@YAXAAD0@Z			; std::swap<char>
PUBLIC	?erase@?$_Tree@V?$_Tmap_traits@_KIU?$less@_K@std@@V?$allocator@U?$pair@$$CB_KI@std@@@2@$0A@@std@@@std@@QAE?AViterator@12@Vconst_iterator@12@@Z ; std::_Tree<std::_Tmap_traits<unsigned __int64,unsigned int,std::less<unsigned __int64>,std::allocator<std::pair<unsigned __int64 const ,unsigned int> >,0> >::erase
PUBLIC	?deallocate@?$allocator@U_Node@?$_Tree_nod@V?$_Tmap_traits@_KIU?$less@_K@std@@V?$allocator@U?$pair@$$CB_KI@std@@@2@$0A@@std@@@std@@@std@@QAEXPAU_Node@?$_Tree_nod@V?$_Tmap_traits@_KIU?$less@_K@std@@V?$allocator@U?$pair@$$CB_KI@std@@@2@$0A@@std@@@2@I@Z ; std::allocator<std::_Tree_nod<std::_Tmap_traits<unsigned __int64,unsigned int,std::less<unsigned __int64>,std::allocator<std::pair<unsigned __int64 const ,unsigned int> >,0> >::_Node>::deallocate
PUBLIC	??$_Destroy@U_Node@?$_Tree_nod@V?$_Tmap_traits@_KIU?$less@_K@std@@V?$allocator@U?$pair@$$CB_KI@std@@@2@$0A@@std@@@std@@@std@@YAXPAU_Node@?$_Tree_nod@V?$_Tmap_traits@_KIU?$less@_K@std@@V?$allocator@U?$pair@$$CB_KI@std@@@2@$0A@@std@@@0@@Z ; std::_Destroy<std::_Tree_nod<std::_Tmap_traits<unsigned __int64,unsigned int,std::less<unsigned __int64>,std::allocator<std::pair<unsigned __int64 const ,unsigned int> >,0> >::_Node>
PUBLIC	?destroy@?$allocator@U_Node@?$_Tree_nod@V?$_Tmap_traits@_KIU?$less@_K@std@@V?$allocator@U?$pair@$$CB_KI@std@@@2@$0A@@std@@@std@@@std@@QAEXPAU_Node@?$_Tree_nod@V?$_Tmap_traits@_KIU?$less@_K@std@@V?$allocator@U?$pair@$$CB_KI@std@@@2@$0A@@std@@@2@@Z ; std::allocator<std::_Tree_nod<std::_Tmap_traits<unsigned __int64,unsigned int,std::less<unsigned __int64>,std::allocator<std::pair<unsigned __int64 const ,unsigned int> >,0> >::_Node>::destroy
PUBLIC	?_Erase@?$_Tree@V?$_Tmap_traits@_KIU?$less@_K@std@@V?$allocator@U?$pair@$$CB_KI@std@@@2@$0A@@std@@@std@@IAEXPAU_Node@?$_Tree_nod@V?$_Tmap_traits@_KIU?$less@_K@std@@V?$allocator@U?$pair@$$CB_KI@std@@@2@$0A@@std@@@2@@Z ; std::_Tree<std::_Tmap_traits<unsigned __int64,unsigned int,std::less<unsigned __int64>,std::allocator<std::pair<unsigned __int64 const ,unsigned int> >,0> >::_Erase
PUBLIC	?_Lmost@?$_Tree@V?$_Tmap_traits@_KIU?$less@_K@std@@V?$allocator@U?$pair@$$CB_KI@std@@@2@$0A@@std@@@std@@IBEAAPAU_Node@?$_Tree_nod@V?$_Tmap_traits@_KIU?$less@_K@std@@V?$allocator@U?$pair@$$CB_KI@std@@@2@$0A@@std@@@2@XZ ; std::_Tree<std::_Tmap_traits<unsigned __int64,unsigned int,std::less<unsigned __int64>,std::allocator<std::pair<unsigned __int64 const ,unsigned int> >,0> >::_Lmost
PUBLIC	?_Rmost@?$_Tree@V?$_Tmap_traits@_KIU?$less@_K@std@@V?$allocator@U?$pair@$$CB_KI@std@@@2@$0A@@std@@@std@@IBEAAPAU_Node@?$_Tree_nod@V?$_Tmap_traits@_KIU?$less@_K@std@@V?$allocator@U?$pair@$$CB_KI@std@@@2@$0A@@std@@@2@XZ ; std::_Tree<std::_Tmap_traits<unsigned __int64,unsigned int,std::less<unsigned __int64>,std::allocator<std::pair<unsigned __int64 const ,unsigned int> >,0> >::_Rmost
PUBLIC	?_Root@?$_Tree@V?$_Tmap_traits@_KIU?$less@_K@std@@V?$allocator@U?$pair@$$CB_KI@std@@@2@$0A@@std@@@std@@IBEAAPAU_Node@?$_Tree_nod@V?$_Tmap_traits@_KIU?$less@_K@std@@V?$allocator@U?$pair@$$CB_KI@std@@@2@$0A@@std@@@2@XZ ; std::_Tree<std::_Tmap_traits<unsigned __int64,unsigned int,std::less<unsigned __int64>,std::allocator<std::pair<unsigned __int64 const ,unsigned int> >,0> >::_Root
PUBLIC	?clear@?$_Tree@V?$_Tmap_traits@_KIU?$less@_K@std@@V?$allocator@U?$pair@$$CB_KI@std@@@2@$0A@@std@@@std@@QAEXXZ ; std::_Tree<std::_Tmap_traits<unsigned __int64,unsigned int,std::less<unsigned __int64>,std::allocator<std::pair<unsigned __int64 const ,unsigned int> >,0> >::clear
PUBLIC	?_Parent@?$_Tree@V?$_Tmap_traits@_KIU?$less@_K@std@@V?$allocator@U?$pair@$$CB_KI@std@@@2@$0A@@std@@@std@@KAAAPAU_Node@?$_Tree_nod@V?$_Tmap_traits@_KIU?$less@_K@std@@V?$allocator@U?$pair@$$CB_KI@std@@@2@$0A@@std@@@2@PAU342@@Z ; std::_Tree<std::_Tmap_traits<unsigned __int64,unsigned int,std::less<unsigned __int64>,std::allocator<std::pair<unsigned __int64 const ,unsigned int> >,0> >::_Parent
PUBLIC	?_Right@?$_Tree@V?$_Tmap_traits@_KIU?$less@_K@std@@V?$allocator@U?$pair@$$CB_KI@std@@@2@$0A@@std@@@std@@KAAAPAU_Node@?$_Tree_nod@V?$_Tmap_traits@_KIU?$less@_K@std@@V?$allocator@U?$pair@$$CB_KI@std@@@2@$0A@@std@@@2@PAU342@@Z ; std::_Tree<std::_Tmap_traits<unsigned __int64,unsigned int,std::less<unsigned __int64>,std::allocator<std::pair<unsigned __int64 const ,unsigned int> >,0> >::_Right
PUBLIC	?_Isnil@?$_Tree@V?$_Tmap_traits@_KIU?$less@_K@std@@V?$allocator@U?$pair@$$CB_KI@std@@@2@$0A@@std@@@std@@KAAADPAU_Node@?$_Tree_nod@V?$_Tmap_traits@_KIU?$less@_K@std@@V?$allocator@U?$pair@$$CB_KI@std@@@2@$0A@@std@@@2@@Z ; std::_Tree<std::_Tmap_traits<unsigned __int64,unsigned int,std::less<unsigned __int64>,std::allocator<std::pair<unsigned __int64 const ,unsigned int> >,0> >::_Isnil
PUBLIC	?_Left@?$_Tree@V?$_Tmap_traits@_KIU?$less@_K@std@@V?$allocator@U?$pair@$$CB_KI@std@@@2@$0A@@std@@@std@@KAAAPAU_Node@?$_Tree_nod@V?$_Tmap_traits@_KIU?$less@_K@std@@V?$allocator@U?$pair@$$CB_KI@std@@@2@$0A@@std@@@2@PAU342@@Z ; std::_Tree<std::_Tmap_traits<unsigned __int64,unsigned int,std::less<unsigned __int64>,std::allocator<std::pair<unsigned __int64 const ,unsigned int> >,0> >::_Left
PUBLIC	?_Min@?$_Tree@V?$_Tmap_traits@_KIU?$less@_K@std@@V?$allocator@U?$pair@$$CB_KI@std@@@2@$0A@@std@@@std@@KAPAU_Node@?$_Tree_nod@V?$_Tmap_traits@_KIU?$less@_K@std@@V?$allocator@U?$pair@$$CB_KI@std@@@2@$0A@@std@@@2@PAU342@@Z ; std::_Tree<std::_Tmap_traits<unsigned __int64,unsigned int,std::less<unsigned __int64>,std::allocator<std::pair<unsigned __int64 const ,unsigned int> >,0> >::_Min
PUBLIC	?_Inc@const_iterator@?$_Tree@V?$_Tmap_traits@_KIU?$less@_K@std@@V?$allocator@U?$pair@$$CB_KI@std@@@2@$0A@@std@@@std@@QAEXXZ ; std::_Tree<std::_Tmap_traits<unsigned __int64,unsigned int,std::less<unsigned __int64>,std::allocator<std::pair<unsigned __int64 const ,unsigned int> >,0> >::const_iterator::_Inc
PUBLIC	??Econst_iterator@?$_Tree@V?$_Tmap_traits@_KIU?$less@_K@std@@V?$allocator@U?$pair@$$CB_KI@std@@@2@$0A@@std@@@std@@QAEAAV012@XZ ; std::_Tree<std::_Tmap_traits<unsigned __int64,unsigned int,std::less<unsigned __int64>,std::allocator<std::pair<unsigned __int64 const ,unsigned int> >,0> >::const_iterator::operator++
PUBLIC	??Econst_iterator@?$_Tree@V?$_Tmap_traits@_KIU?$less@_K@std@@V?$allocator@U?$pair@$$CB_KI@std@@@2@$0A@@std@@@std@@QAE?AV012@H@Z ; std::_Tree<std::_Tmap_traits<unsigned __int64,unsigned int,std::less<unsigned __int64>,std::allocator<std::pair<unsigned __int64 const ,unsigned int> >,0> >::const_iterator::operator++
PUBLIC	??8const_iterator@?$_Tree@V?$_Tmap_traits@_KIU?$less@_K@std@@V?$allocator@U?$pair@$$CB_KI@std@@@2@$0A@@std@@@std@@QBE_NABV012@@Z ; std::_Tree<std::_Tmap_traits<unsigned __int64,unsigned int,std::less<unsigned __int64>,std::allocator<std::pair<unsigned __int64 const ,unsigned int> >,0> >::const_iterator::operator==
PUBLIC	??9const_iterator@?$_Tree@V?$_Tmap_traits@_KIU?$less@_K@std@@V?$allocator@U?$pair@$$CB_KI@std@@@2@$0A@@std@@@std@@QBE_NABV012@@Z ; std::_Tree<std::_Tmap_traits<unsigned __int64,unsigned int,std::less<unsigned __int64>,std::allocator<std::pair<unsigned __int64 const ,unsigned int> >,0> >::const_iterator::operator!=
PUBLIC	?erase@?$_Tree@V?$_Tmap_traits@_KIU?$less@_K@std@@V?$allocator@U?$pair@$$CB_KI@std@@@2@$0A@@std@@@std@@QAE?AViterator@12@Vconst_iterator@12@0@Z ; std::_Tree<std::_Tmap_traits<unsigned __int64,unsigned int,std::less<unsigned __int64>,std::allocator<std::pair<unsigned __int64 const ,unsigned int> >,0> >::erase
PUBLIC	?_Tidy@?$_Tree@V?$_Tmap_traits@_KIU?$less@_K@std@@V?$allocator@U?$pair@$$CB_KI@std@@@2@$0A@@std@@@std@@IAEXXZ ; std::_Tree<std::_Tmap_traits<unsigned __int64,unsigned int,std::less<unsigned __int64>,std::allocator<std::pair<unsigned __int64 const ,unsigned int> >,0> >::_Tidy
PUBLIC	??1?$_Tree@V?$_Tmap_traits@_KIU?$less@_K@std@@V?$allocator@U?$pair@$$CB_KI@std@@@2@$0A@@std@@@std@@QAE@XZ ; std::_Tree<std::_Tmap_traits<unsigned __int64,unsigned int,std::less<unsigned __int64>,std::allocator<std::pair<unsigned __int64 const ,unsigned int> >,0> >::~_Tree<std::_Tmap_traits<unsigned __int64,unsigned int,std::less<unsigned __int64>,std::allocator<std::pair<unsigned __int64 const ,unsigned int> >,0> >
PUBLIC	??1?$map@_KIU?$less@_K@std@@V?$allocator@U?$pair@$$CB_KI@std@@@2@@std@@QAE@XZ ; std::map<unsigned __int64,unsigned int,std::less<unsigned __int64>,std::allocator<std::pair<unsigned __int64 const ,unsigned int> > >::~map<unsigned __int64,unsigned int,std::less<unsigned __int64>,std::allocator<std::pair<unsigned __int64 const ,unsigned int> > >
PUBLIC	??1?$_Container_base_aux_alloc_real@V?$allocator@I@std@@@std@@IAE@XZ ; std::_Container_base_aux_alloc_real<std::allocator<unsigned int> >::~_Container_base_aux_alloc_real<std::allocator<unsigned int> >
PUBLIC	??1?$_Vector_val@IV?$allocator@I@std@@@std@@QAE@XZ ; std::_Vector_val<unsigned int,std::allocator<unsigned int> >::~_Vector_val<unsigned int,std::allocator<unsigned int> >
PUBLIC	?deallocate@?$allocator@I@std@@QAEXPAII@Z	; std::allocator<unsigned int>::deallocate
PUBLIC	??$_Ptr_cat@PAIPAI@std@@YA?AU_Scalar_ptr_iterator_tag@0@AAPAI0@Z ; std::_Ptr_cat<unsigned int *,unsigned int *>
PUBLIC	??$_Destroy_range@V?$allocator@I@std@@@std@@YAXPAI0AAV?$allocator@I@0@U_Scalar_ptr_iterator_tag@0@@Z ; std::_Destroy_range<std::allocator<unsigned int> >
PUBLIC	??$_Destroy_range@V?$allocator@I@std@@@std@@YAXPAI0AAV?$allocator@I@0@@Z ; std::_Destroy_range<std::allocator<unsigned int> >
PUBLIC	?_Destroy@?$vector@IV?$allocator@I@std@@@std@@IAEXPAI0@Z ; std::vector<unsigned int,std::allocator<unsigned int> >::_Destroy
PUBLIC	?_Tidy@?$vector@IV?$allocator@I@std@@@std@@IAEXXZ ; std::vector<unsigned int,std::allocator<unsigned int> >::_Tidy
PUBLIC	??1?$vector@IV?$allocator@I@std@@@std@@QAE@XZ	; std::vector<unsigned int,std::allocator<unsigned int> >::~vector<unsigned int,std::allocator<unsigned int> >
PUBLIC	??1Statistics@DRAMsimII@@QAE@XZ			; DRAMsimII::Statistics::~Statistics
PUBLIC	??1?$_Container_base_aux_alloc_real@V?$allocator@VChannel@DRAMsimII@@@std@@@std@@IAE@XZ ; std::_Container_base_aux_alloc_real<std::allocator<DRAMsimII::Channel> >::~_Container_base_aux_alloc_real<std::allocator<DRAMsimII::Channel> >
PUBLIC	??1?$_Vector_val@VChannel@DRAMsimII@@V?$allocator@VChannel@DRAMsimII@@@std@@@std@@QAE@XZ ; std::_Vector_val<DRAMsimII::Channel,std::allocator<DRAMsimII::Channel> >::~_Vector_val<DRAMsimII::Channel,std::allocator<DRAMsimII::Channel> >
PUBLIC	?deallocate@?$allocator@VChannel@DRAMsimII@@@std@@QAEXPAVChannel@DRAMsimII@@I@Z ; std::allocator<DRAMsimII::Channel>::deallocate
PUBLIC	??$_Ptr_cat@PAVChannel@DRAMsimII@@PAV12@@std@@YA?AU_Nonscalar_ptr_iterator_tag@0@AAPAVChannel@DRAMsimII@@0@Z ; std::_Ptr_cat<DRAMsimII::Channel *,DRAMsimII::Channel *>
PUBLIC	??$_Destroy@VChannel@DRAMsimII@@@std@@YAXPAVChannel@DRAMsimII@@@Z ; std::_Destroy<DRAMsimII::Channel>
PUBLIC	?destroy@?$allocator@VChannel@DRAMsimII@@@std@@QAEXPAVChannel@DRAMsimII@@@Z ; std::allocator<DRAMsimII::Channel>::destroy
PUBLIC	??$_Destroy_range@V?$allocator@VChannel@DRAMsimII@@@std@@@std@@YAXPAVChannel@DRAMsimII@@0AAV?$allocator@VChannel@DRAMsimII@@@0@U_Nonscalar_ptr_iterator_tag@0@@Z ; std::_Destroy_range<std::allocator<DRAMsimII::Channel> >
PUBLIC	??$_Destroy_range@V?$allocator@VChannel@DRAMsimII@@@std@@@std@@YAXPAVChannel@DRAMsimII@@0AAV?$allocator@VChannel@DRAMsimII@@@0@@Z ; std::_Destroy_range<std::allocator<DRAMsimII::Channel> >
PUBLIC	?_Destroy@?$vector@VChannel@DRAMsimII@@V?$allocator@VChannel@DRAMsimII@@@std@@@std@@IAEXPAVChannel@DRAMsimII@@0@Z ; std::vector<DRAMsimII::Channel,std::allocator<DRAMsimII::Channel> >::_Destroy
PUBLIC	?_Tidy@?$vector@VChannel@DRAMsimII@@V?$allocator@VChannel@DRAMsimII@@@std@@@std@@IAEXXZ ; std::vector<DRAMsimII::Channel,std::allocator<DRAMsimII::Channel> >::_Tidy
PUBLIC	??1?$vector@VChannel@DRAMsimII@@V?$allocator@VChannel@DRAMsimII@@@std@@@std@@QAE@XZ ; std::vector<DRAMsimII::Channel,std::allocator<DRAMsimII::Channel> >::~vector<DRAMsimII::Channel,std::allocator<DRAMsimII::Channel> >
PUBLIC	??1System@DRAMsimII@@QAE@XZ			; DRAMsimII::System::~System
PUBLIC	??0?$allocator@VfbdChannel@DRAMsimII@@@std@@QAE@XZ ; std::allocator<DRAMsimII::fbdChannel>::allocator<DRAMsimII::fbdChannel>
PUBLIC	??$?0VfbdChannel@DRAMsimII@@@?$allocator@V_Aux_cont@std@@@std@@QAE@ABV?$allocator@VfbdChannel@DRAMsimII@@@1@@Z ; std::allocator<std::_Aux_cont>::allocator<std::_Aux_cont><DRAMsimII::fbdChannel>
PUBLIC	??0?$_Container_base_aux_alloc_real@V?$allocator@VfbdChannel@DRAMsimII@@@std@@@std@@IAE@V?$allocator@VfbdChannel@DRAMsimII@@@1@@Z ; std::_Container_base_aux_alloc_real<std::allocator<DRAMsimII::fbdChannel> >::_Container_base_aux_alloc_real<std::allocator<DRAMsimII::fbdChannel> >
PUBLIC	??0?$allocator@VfbdChannel@DRAMsimII@@@std@@QAE@ABV01@@Z ; std::allocator<DRAMsimII::fbdChannel>::allocator<DRAMsimII::fbdChannel>
PUBLIC	??0?$_Vector_val@VfbdChannel@DRAMsimII@@V?$allocator@VfbdChannel@DRAMsimII@@@std@@@std@@IAE@V?$allocator@VfbdChannel@DRAMsimII@@@1@@Z ; std::_Vector_val<DRAMsimII::fbdChannel,std::allocator<DRAMsimII::fbdChannel> >::_Vector_val<DRAMsimII::fbdChannel,std::allocator<DRAMsimII::fbdChannel> >
PUBLIC	??$_Allocate@VfbdChannel@DRAMsimII@@@std@@YAPAVfbdChannel@DRAMsimII@@IPAV12@@Z ; std::_Allocate<DRAMsimII::fbdChannel>
PUBLIC	?allocate@?$allocator@VfbdChannel@DRAMsimII@@@std@@QAEPAVfbdChannel@DRAMsimII@@I@Z ; std::allocator<DRAMsimII::fbdChannel>::allocate
PUBLIC	?max_size@?$allocator@VfbdChannel@DRAMsimII@@@std@@QBEIXZ ; std::allocator<DRAMsimII::fbdChannel>::max_size
PUBLIC	?max_size@?$vector@VfbdChannel@DRAMsimII@@V?$allocator@VfbdChannel@DRAMsimII@@@std@@@std@@QBEIXZ ; std::vector<DRAMsimII::fbdChannel,std::allocator<DRAMsimII::fbdChannel> >::max_size
PUBLIC	?_Xlen@?$vector@VfbdChannel@DRAMsimII@@V?$allocator@VfbdChannel@DRAMsimII@@@std@@@std@@KAXXZ ; std::vector<DRAMsimII::fbdChannel,std::allocator<DRAMsimII::fbdChannel> >::_Xlen
PUBLIC	?_Buy@?$vector@VfbdChannel@DRAMsimII@@V?$allocator@VfbdChannel@DRAMsimII@@@std@@@std@@IAE_NI@Z ; std::vector<DRAMsimII::fbdChannel,std::allocator<DRAMsimII::fbdChannel> >::_Buy
PUBLIC	?at@?$Queue@VfbdFrame@DRAMsimII@@@DRAMsimII@@QBEPBVfbdFrame@2@I@Z ; DRAMsimII::Queue<DRAMsimII::fbdFrame>::at
PUBLIC	??0?$Queue@VfbdFrame@DRAMsimII@@@DRAMsimII@@QAE@ABV01@@Z ; DRAMsimII::Queue<DRAMsimII::fbdFrame>::Queue<DRAMsimII::fbdFrame>
PUBLIC	??0fbdChannel@DRAMsimII@@QAE@ABV01@@Z		; DRAMsimII::fbdChannel::fbdChannel
PUBLIC	??$_Construct@VfbdChannel@DRAMsimII@@V12@@std@@YAXPAVfbdChannel@DRAMsimII@@ABV12@@Z ; std::_Construct<DRAMsimII::fbdChannel,DRAMsimII::fbdChannel>
PUBLIC	?construct@?$allocator@VfbdChannel@DRAMsimII@@@std@@QAEXPAVfbdChannel@DRAMsimII@@ABV34@@Z ; std::allocator<DRAMsimII::fbdChannel>::construct
PUBLIC	??$_Uninit_fill_n@PAVfbdChannel@DRAMsimII@@IV12@V?$allocator@VfbdChannel@DRAMsimII@@@std@@@std@@YAXPAVfbdChannel@DRAMsimII@@IABV12@AAV?$allocator@VfbdChannel@DRAMsimII@@@0@U_Nonscalar_ptr_iterator_tag@0@U_Range_checked_iterator_tag@0@@Z ; std::_Uninit_fill_n<DRAMsimII::fbdChannel *,unsigned int,DRAMsimII::fbdChannel,std::allocator<DRAMsimII::fbdChannel> >
PUBLIC	??$unchecked_uninitialized_fill_n@PAVfbdChannel@DRAMsimII@@IV12@V?$allocator@VfbdChannel@DRAMsimII@@@std@@@stdext@@YAXPAVfbdChannel@DRAMsimII@@IABV12@AAV?$allocator@VfbdChannel@DRAMsimII@@@std@@@Z ; stdext::unchecked_uninitialized_fill_n<DRAMsimII::fbdChannel *,unsigned int,DRAMsimII::fbdChannel,std::allocator<DRAMsimII::fbdChannel> >
PUBLIC	?_Ufill@?$vector@VfbdChannel@DRAMsimII@@V?$allocator@VfbdChannel@DRAMsimII@@@std@@@std@@IAEPAVfbdChannel@DRAMsimII@@PAV34@IABV34@@Z ; std::vector<DRAMsimII::fbdChannel,std::allocator<DRAMsimII::fbdChannel> >::_Ufill
PUBLIC	?_Construct_n@?$vector@VfbdChannel@DRAMsimII@@V?$allocator@VfbdChannel@DRAMsimII@@@std@@@std@@QAEXIABVfbdChannel@DRAMsimII@@@Z ; std::vector<DRAMsimII::fbdChannel,std::allocator<DRAMsimII::fbdChannel> >::_Construct_n
PUBLIC	??0?$vector@VfbdChannel@DRAMsimII@@V?$allocator@VfbdChannel@DRAMsimII@@@std@@@std@@QAE@IABVfbdChannel@DRAMsimII@@@Z ; std::vector<DRAMsimII::fbdChannel,std::allocator<DRAMsimII::fbdChannel> >::vector<DRAMsimII::fbdChannel,std::allocator<DRAMsimII::fbdChannel> >
PUBLIC	??1?$_Container_base_aux_alloc_real@V?$allocator@VfbdChannel@DRAMsimII@@@std@@@std@@IAE@XZ ; std::_Container_base_aux_alloc_real<std::allocator<DRAMsimII::fbdChannel> >::~_Container_base_aux_alloc_real<std::allocator<DRAMsimII::fbdChannel> >
PUBLIC	??1?$_Vector_val@VfbdChannel@DRAMsimII@@V?$allocator@VfbdChannel@DRAMsimII@@@std@@@std@@QAE@XZ ; std::_Vector_val<DRAMsimII::fbdChannel,std::allocator<DRAMsimII::fbdChannel> >::~_Vector_val<DRAMsimII::fbdChannel,std::allocator<DRAMsimII::fbdChannel> >
PUBLIC	?deallocate@?$allocator@VfbdChannel@DRAMsimII@@@std@@QAEXPAVfbdChannel@DRAMsimII@@I@Z ; std::allocator<DRAMsimII::fbdChannel>::deallocate
PUBLIC	??$_Ptr_cat@PAVfbdChannel@DRAMsimII@@PAV12@@std@@YA?AU_Nonscalar_ptr_iterator_tag@0@AAPAVfbdChannel@DRAMsimII@@0@Z ; std::_Ptr_cat<DRAMsimII::fbdChannel *,DRAMsimII::fbdChannel *>
PUBLIC	??$_Destroy@VfbdChannel@DRAMsimII@@@std@@YAXPAVfbdChannel@DRAMsimII@@@Z ; std::_Destroy<DRAMsimII::fbdChannel>
PUBLIC	?destroy@?$allocator@VfbdChannel@DRAMsimII@@@std@@QAEXPAVfbdChannel@DRAMsimII@@@Z ; std::allocator<DRAMsimII::fbdChannel>::destroy
PUBLIC	??$_Destroy_range@V?$allocator@VfbdChannel@DRAMsimII@@@std@@@std@@YAXPAVfbdChannel@DRAMsimII@@0AAV?$allocator@VfbdChannel@DRAMsimII@@@0@U_Nonscalar_ptr_iterator_tag@0@@Z ; std::_Destroy_range<std::allocator<DRAMsimII::fbdChannel> >
PUBLIC	??$_Destroy_range@V?$allocator@VfbdChannel@DRAMsimII@@@std@@@std@@YAXPAVfbdChannel@DRAMsimII@@0AAV?$allocator@VfbdChannel@DRAMsimII@@@0@@Z ; std::_Destroy_range<std::allocator<DRAMsimII::fbdChannel> >
PUBLIC	?_Destroy@?$vector@VfbdChannel@DRAMsimII@@V?$allocator@VfbdChannel@DRAMsimII@@@std@@@std@@IAEXPAVfbdChannel@DRAMsimII@@0@Z ; std::vector<DRAMsimII::fbdChannel,std::allocator<DRAMsimII::fbdChannel> >::_Destroy
PUBLIC	?_Tidy@?$vector@VfbdChannel@DRAMsimII@@V?$allocator@VfbdChannel@DRAMsimII@@@std@@@std@@IAEXXZ ; std::vector<DRAMsimII::fbdChannel,std::allocator<DRAMsimII::fbdChannel> >::_Tidy
PUBLIC	??1?$vector@VfbdChannel@DRAMsimII@@V?$allocator@VfbdChannel@DRAMsimII@@@std@@@std@@QAE@XZ ; std::vector<DRAMsimII::fbdChannel,std::allocator<DRAMsimII::fbdChannel> >::~vector<DRAMsimII::fbdChannel,std::allocator<DRAMsimII::fbdChannel> >
PUBLIC	??_R0?AVout_of_range@std@@@8			; std::out_of_range `RTTI Type Descriptor'
PUBLIC	__CT??_R0?AVout_of_range@std@@@8??0out_of_range@std@@QAE@ABV01@@Z40
PUBLIC	__CTA3?AVout_of_range@std@@
PUBLIC	__TI3?AVout_of_range@std@@
PUBLIC	??_C@_0BM@PAPJHAGI@invalid?5map?1set?$DMT?$DO?5iterator?$AA@ ; `string'
PUBLIC	??_7out_of_range@std@@6B@			; std::out_of_range::`vftable'
PUBLIC	??_7fbdSystem@DRAMsimII@@6B@			; DRAMsimII::fbdSystem::`vftable'
EXTRN	??_Eout_of_range@std@@UAEPAXI@Z:PROC		; std::out_of_range::`vector deleting destructor'
;	COMDAT ??_7fbdSystem@DRAMsimII@@6B@
CONST	SEGMENT
??_7fbdSystem@DRAMsimII@@6B@ DD FLAT:??_R4fbdSystem@DRAMsimII@@6B@ ; DRAMsimII::fbdSystem::`vftable'
	DD	FLAT:?doPowerCalculation@System@DRAMsimII@@MAEXXZ
	DD	FLAT:?printStatistics@System@DRAMsimII@@MAEXXZ
	DD	FLAT:?nextTick@System@DRAMsimII@@UBE_JXZ
CONST	ENDS
;	COMDAT ??_R4fbdSystem@DRAMsimII@@6B@
rdata$r	SEGMENT
??_R4fbdSystem@DRAMsimII@@6B@ DD 00H			; DRAMsimII::fbdSystem::`RTTI Complete Object Locator'
	DD	00H
	DD	00H
	DD	FLAT:??_R0?AVfbdSystem@DRAMsimII@@@8
	DD	FLAT:??_R3fbdSystem@DRAMsimII@@8
rdata$r	ENDS
;	COMDAT ??_R3fbdSystem@DRAMsimII@@8
rdata$r	SEGMENT
??_R3fbdSystem@DRAMsimII@@8 DD 00H			; DRAMsimII::fbdSystem::`RTTI Class Hierarchy Descriptor'
	DD	00H
	DD	02H
	DD	FLAT:??_R2fbdSystem@DRAMsimII@@8
rdata$r	ENDS
;	COMDAT ??_R2fbdSystem@DRAMsimII@@8
rdata$r	SEGMENT
??_R2fbdSystem@DRAMsimII@@8 DD FLAT:??_R1A@?0A@EA@fbdSystem@DRAMsimII@@8 ; DRAMsimII::fbdSystem::`RTTI Base Class Array'
	DD	FLAT:??_R1A@?0A@EA@System@DRAMsimII@@8
rdata$r	ENDS
;	COMDAT ??_R1A@?0A@EA@System@DRAMsimII@@8
rdata$r	SEGMENT
??_R1A@?0A@EA@System@DRAMsimII@@8 DD FLAT:??_R0?AVSystem@DRAMsimII@@@8 ; DRAMsimII::System::`RTTI Base Class Descriptor at (0,-1,0,64)'
	DD	00H
	DD	00H
	DD	0ffffffffH
	DD	00H
	DD	040H
	DD	FLAT:??_R3System@DRAMsimII@@8
rdata$r	ENDS
;	COMDAT ??_R3System@DRAMsimII@@8
rdata$r	SEGMENT
??_R3System@DRAMsimII@@8 DD 00H				; DRAMsimII::System::`RTTI Class Hierarchy Descriptor'
	DD	00H
	DD	01H
	DD	FLAT:??_R2System@DRAMsimII@@8
rdata$r	ENDS
;	COMDAT ??_R2System@DRAMsimII@@8
rdata$r	SEGMENT
??_R2System@DRAMsimII@@8 DD FLAT:??_R1A@?0A@EA@System@DRAMsimII@@8 ; DRAMsimII::System::`RTTI Base Class Array'
rdata$r	ENDS
;	COMDAT ??_R0?AVSystem@DRAMsimII@@@8
_DATA	SEGMENT
??_R0?AVSystem@DRAMsimII@@@8 DD FLAT:??_7type_info@@6B@	; DRAMsimII::System `RTTI Type Descriptor'
	DD	00H
	DB	'.?AVSystem@DRAMsimII@@', 00H
_DATA	ENDS
;	COMDAT ??_R1A@?0A@EA@fbdSystem@DRAMsimII@@8
rdata$r	SEGMENT
??_R1A@?0A@EA@fbdSystem@DRAMsimII@@8 DD FLAT:??_R0?AVfbdSystem@DRAMsimII@@@8 ; DRAMsimII::fbdSystem::`RTTI Base Class Descriptor at (0,-1,0,64)'
	DD	01H
	DD	00H
	DD	0ffffffffH
	DD	00H
	DD	040H
	DD	FLAT:??_R3fbdSystem@DRAMsimII@@8
rdata$r	ENDS
;	COMDAT ??_R0?AVfbdSystem@DRAMsimII@@@8
_DATA	SEGMENT
??_R0?AVfbdSystem@DRAMsimII@@@8 DD FLAT:??_7type_info@@6B@ ; DRAMsimII::fbdSystem `RTTI Type Descriptor'
	DD	00H
	DB	'.?AVfbdSystem@DRAMsimII@@', 00H
_DATA	ENDS
;	COMDAT ??_7out_of_range@std@@6B@
CONST	SEGMENT
??_7out_of_range@std@@6B@ DD FLAT:??_R4out_of_range@std@@6B@ ; std::out_of_range::`vftable'
	DD	FLAT:??_Eout_of_range@std@@UAEPAXI@Z
	DD	FLAT:?what@logic_error@std@@UBEPBDXZ
CONST	ENDS
;	COMDAT ??_R4out_of_range@std@@6B@
rdata$r	SEGMENT
??_R4out_of_range@std@@6B@ DD 00H			; std::out_of_range::`RTTI Complete Object Locator'
	DD	00H
	DD	00H
	DD	FLAT:??_R0?AVout_of_range@std@@@8
	DD	FLAT:??_R3out_of_range@std@@8
rdata$r	ENDS
;	COMDAT ??_R3out_of_range@std@@8
rdata$r	SEGMENT
??_R3out_of_range@std@@8 DD 00H				; std::out_of_range::`RTTI Class Hierarchy Descriptor'
	DD	00H
	DD	03H
	DD	FLAT:??_R2out_of_range@std@@8
rdata$r	ENDS
;	COMDAT ??_R2out_of_range@std@@8
rdata$r	SEGMENT
??_R2out_of_range@std@@8 DD FLAT:??_R1A@?0A@EA@out_of_range@std@@8 ; std::out_of_range::`RTTI Base Class Array'
	DD	FLAT:??_R1A@?0A@EA@logic_error@std@@8
	DD	FLAT:??_R1A@?0A@EA@exception@std@@8
rdata$r	ENDS
;	COMDAT ??_R1A@?0A@EA@out_of_range@std@@8
rdata$r	SEGMENT
??_R1A@?0A@EA@out_of_range@std@@8 DD FLAT:??_R0?AVout_of_range@std@@@8 ; std::out_of_range::`RTTI Base Class Descriptor at (0,-1,0,64)'
	DD	02H
	DD	00H
	DD	0ffffffffH
	DD	00H
	DD	040H
	DD	FLAT:??_R3out_of_range@std@@8
rdata$r	ENDS
;	COMDAT ??_C@_0BM@PAPJHAGI@invalid?5map?1set?$DMT?$DO?5iterator?$AA@
CONST	SEGMENT
??_C@_0BM@PAPJHAGI@invalid?5map?1set?$DMT?$DO?5iterator?$AA@ DB 'invalid '
	DB	'map/set<T> iterator', 00H			; `string'
CONST	ENDS
;	COMDAT __TI3?AVout_of_range@std@@
xdata$x	SEGMENT
__TI3?AVout_of_range@std@@ DD 00H
	DD	FLAT:??1out_of_range@std@@UAE@XZ
	DD	00H
	DD	FLAT:__CTA3?AVout_of_range@std@@
xdata$x	ENDS
;	COMDAT __CTA3?AVout_of_range@std@@
xdata$x	SEGMENT
__CTA3?AVout_of_range@std@@ DD 03H
	DD	FLAT:__CT??_R0?AVout_of_range@std@@@8??0out_of_range@std@@QAE@ABV01@@Z40
	DD	FLAT:__CT??_R0?AVlogic_error@std@@@8??0logic_error@std@@QAE@ABV01@@Z40
	DD	FLAT:__CT??_R0?AVexception@std@@@8??0exception@std@@QAE@ABV01@@Z12
xdata$x	ENDS
;	COMDAT __CT??_R0?AVout_of_range@std@@@8??0out_of_range@std@@QAE@ABV01@@Z40
xdata$x	SEGMENT
__CT??_R0?AVout_of_range@std@@@8??0out_of_range@std@@QAE@ABV01@@Z40 DD 00H
	DD	FLAT:??_R0?AVout_of_range@std@@@8
	DD	00H
	DD	0ffffffffH
	ORG $+4
	DD	028H
	DD	FLAT:??0out_of_range@std@@QAE@ABV01@@Z
xdata$x	ENDS
;	COMDAT ??_R0?AVout_of_range@std@@@8
_DATA	SEGMENT
??_R0?AVout_of_range@std@@@8 DD FLAT:??_7type_info@@6B@	; std::out_of_range `RTTI Type Descriptor'
	DD	00H
	DB	'.?AVout_of_range@std@@', 00H
__bad_alloc_Message DD FLAT:??_C@_0P@GHFPNOJB@bad?5allocation?$AA@
; Function compile flags: /Ogtpy
; File c:\program files\microsoft visual studio 9.0\vc\include\xmemory
;	COMDAT ??$_Destroy@VfbdChannel@DRAMsimII@@@std@@YAXPAVfbdChannel@DRAMsimII@@@Z
_TEXT	SEGMENT
??$_Destroy@VfbdChannel@DRAMsimII@@@std@@YAXPAVfbdChannel@DRAMsimII@@@Z PROC ; std::_Destroy<DRAMsimII::fbdChannel>, COMDAT
; __Ptr$ = ecx

; 59   : 	_DESTRUCTOR(_Ty, _Ptr);

	mov	eax, DWORD PTR [ecx]
	mov	edx, DWORD PTR [eax+16]
	push	0
	call	edx

; 60   : 	}

	ret	0
??$_Destroy@VfbdChannel@DRAMsimII@@@std@@YAXPAVfbdChannel@DRAMsimII@@@Z ENDP ; std::_Destroy<DRAMsimII::fbdChannel>
; Function compile flags: /Ogtpy
_TEXT	ENDS
;	COMDAT ??$_Destroy@VChannel@DRAMsimII@@@std@@YAXPAVChannel@DRAMsimII@@@Z
_TEXT	SEGMENT
??$_Destroy@VChannel@DRAMsimII@@@std@@YAXPAVChannel@DRAMsimII@@@Z PROC ; std::_Destroy<DRAMsimII::Channel>, COMDAT
; __Ptr$ = ecx

; 59   : 	_DESTRUCTOR(_Ty, _Ptr);

	mov	eax, DWORD PTR [ecx]
	mov	edx, DWORD PTR [eax+16]
	push	0
	call	edx

; 60   : 	}

	ret	0
??$_Destroy@VChannel@DRAMsimII@@@std@@YAXPAVChannel@DRAMsimII@@@Z ENDP ; std::_Destroy<DRAMsimII::Channel>
; Function compile flags: /Ogtpy
_TEXT	ENDS
;	COMDAT ??$_Destroy@U_List_position@?$_Hash@V?$_Umap_traits@IIV?$_Hash_compare@IV?$hash@I@tr1@std@@U?$equal_to@I@3@@stdext@@V?$allocator@U?$pair@$$CBII@std@@@std@@$0A@@tr1@std@@@stdext@@@std@@YAXPAU_List_position@?$_Hash@V?$_Umap_traits@IIV?$_Hash_compare@IV?$hash@I@tr1@std@@U?$equal_to@I@3@@stdext@@V?$allocator@U?$pair@$$CBII@std@@@std@@$0A@@tr1@std@@@stdext@@@Z
_TEXT	SEGMENT
??$_Destroy@U_List_position@?$_Hash@V?$_Umap_traits@IIV?$_Hash_compare@IV?$hash@I@tr1@std@@U?$equal_to@I@3@@stdext@@V?$allocator@U?$pair@$$CBII@std@@@std@@$0A@@tr1@std@@@stdext@@@std@@YAXPAU_List_position@?$_Hash@V?$_Umap_traits@IIV?$_Hash_compare@IV?$hash@I@tr1@std@@U?$equal_to@I@3@@stdext@@V?$allocator@U?$pair@$$CBII@std@@@std@@$0A@@tr1@std@@@stdext@@@Z PROC ; std::_Destroy<stdext::_Hash<std::tr1::_Umap_traits<unsigned int,unsigned int,stdext::_Hash_compare<unsigned int,std::tr1::hash<unsigned int>,std::equal_to<unsigned int> >,std::allocator<std::pair<unsigned int const ,unsigned int> >,0> >::_List_position>, COMDAT

; 59   : 	_DESTRUCTOR(_Ty, _Ptr);
; 60   : 	}

	ret	0
??$_Destroy@U_List_position@?$_Hash@V?$_Umap_traits@IIV?$_Hash_compare@IV?$hash@I@tr1@std@@U?$equal_to@I@3@@stdext@@V?$allocator@U?$pair@$$CBII@std@@@std@@$0A@@tr1@std@@@stdext@@@std@@YAXPAU_List_position@?$_Hash@V?$_Umap_traits@IIV?$_Hash_compare@IV?$hash@I@tr1@std@@U?$equal_to@I@3@@stdext@@V?$allocator@U?$pair@$$CBII@std@@@std@@$0A@@tr1@std@@@stdext@@@Z ENDP ; std::_Destroy<stdext::_Hash<std::tr1::_Umap_traits<unsigned int,unsigned int,stdext::_Hash_compare<unsigned int,std::tr1::hash<unsigned int>,std::equal_to<unsigned int> >,std::allocator<std::pair<unsigned int const ,unsigned int> >,0> >::_List_position>
; Function compile flags: /Ogtpy
_TEXT	ENDS
;	COMDAT ?destroy@?$allocator@VfbdChannel@DRAMsimII@@@std@@QAEXPAVfbdChannel@DRAMsimII@@@Z
_TEXT	SEGMENT
?destroy@?$allocator@VfbdChannel@DRAMsimII@@@std@@QAEXPAVfbdChannel@DRAMsimII@@@Z PROC ; std::allocator<DRAMsimII::fbdChannel>::destroy, COMDAT
; __Ptr$ = ecx

; 160  : 		_Destroy(_Ptr);

	mov	eax, DWORD PTR [ecx]
	mov	edx, DWORD PTR [eax+16]
	push	0
	call	edx

; 161  : 		}

	ret	0
?destroy@?$allocator@VfbdChannel@DRAMsimII@@@std@@QAEXPAVfbdChannel@DRAMsimII@@@Z ENDP ; std::allocator<DRAMsimII::fbdChannel>::destroy
; Function compile flags: /Ogtpy
_TEXT	ENDS
;	COMDAT ?destroy@?$allocator@VChannel@DRAMsimII@@@std@@QAEXPAVChannel@DRAMsimII@@@Z
_TEXT	SEGMENT
?destroy@?$allocator@VChannel@DRAMsimII@@@std@@QAEXPAVChannel@DRAMsimII@@@Z PROC ; std::allocator<DRAMsimII::Channel>::destroy, COMDAT
; __Ptr$ = ecx

; 160  : 		_Destroy(_Ptr);

	mov	eax, DWORD PTR [ecx]
	mov	edx, DWORD PTR [eax+16]
	push	0
	call	edx

; 161  : 		}

	ret	0
?destroy@?$allocator@VChannel@DRAMsimII@@@std@@QAEXPAVChannel@DRAMsimII@@@Z ENDP ; std::allocator<DRAMsimII::Channel>::destroy
; Function compile flags: /Ogtpy
_TEXT	ENDS
;	COMDAT ?destroy@?$allocator@U_List_position@?$_Hash@V?$_Umap_traits@IIV?$_Hash_compare@IV?$hash@I@tr1@std@@U?$equal_to@I@3@@stdext@@V?$allocator@U?$pair@$$CBII@std@@@std@@$0A@@tr1@std@@@stdext@@@std@@QAEXPAU_List_position@?$_Hash@V?$_Umap_traits@IIV?$_Hash_compare@IV?$hash@I@tr1@std@@U?$equal_to@I@3@@stdext@@V?$allocator@U?$pair@$$CBII@std@@@std@@$0A@@tr1@std@@@stdext@@@Z
_TEXT	SEGMENT
?destroy@?$allocator@U_List_position@?$_Hash@V?$_Umap_traits@IIV?$_Hash_compare@IV?$hash@I@tr1@std@@U?$equal_to@I@3@@stdext@@V?$allocator@U?$pair@$$CBII@std@@@std@@$0A@@tr1@std@@@stdext@@@std@@QAEXPAU_List_position@?$_Hash@V?$_Umap_traits@IIV?$_Hash_compare@IV?$hash@I@tr1@std@@U?$equal_to@I@3@@stdext@@V?$allocator@U?$pair@$$CBII@std@@@std@@$0A@@tr1@std@@@stdext@@@Z PROC ; std::allocator<stdext::_Hash<std::tr1::_Umap_traits<unsigned int,unsigned int,stdext::_Hash_compare<unsigned int,std::tr1::hash<unsigned int>,std::equal_to<unsigned int> >,std::allocator<std::pair<unsigned int const ,unsigned int> >,0> >::_List_position>::destroy, COMDAT

; 160  : 		_Destroy(_Ptr);
; 161  : 		}

	ret	0
?destroy@?$allocator@U_List_position@?$_Hash@V?$_Umap_traits@IIV?$_Hash_compare@IV?$hash@I@tr1@std@@U?$equal_to@I@3@@stdext@@V?$allocator@U?$pair@$$CBII@std@@@std@@$0A@@tr1@std@@@stdext@@@std@@QAEXPAU_List_position@?$_Hash@V?$_Umap_traits@IIV?$_Hash_compare@IV?$hash@I@tr1@std@@U?$equal_to@I@3@@stdext@@V?$allocator@U?$pair@$$CBII@std@@@std@@$0A@@tr1@std@@@stdext@@@Z ENDP ; std::allocator<stdext::_Hash<std::tr1::_Umap_traits<unsigned int,unsigned int,stdext::_Hash_compare<unsigned int,std::tr1::hash<unsigned int>,std::equal_to<unsigned int> >,std::allocator<std::pair<unsigned int const ,unsigned int> >,0> >::_List_position>::destroy
; Function compile flags: /Ogtpy
_TEXT	ENDS
;	COMDAT ??$_Destroy_range@V?$allocator@U_List_position@?$_Hash@V?$_Umap_traits@IIV?$_Hash_compare@IV?$hash@I@tr1@std@@U?$equal_to@I@3@@stdext@@V?$allocator@U?$pair@$$CBII@std@@@std@@$0A@@tr1@std@@@stdext@@@std@@@std@@YAXPAU_List_position@?$_Hash@V?$_Umap_traits@IIV?$_Hash_compare@IV?$hash@I@tr1@std@@U?$equal_to@I@3@@stdext@@V?$allocator@U?$pair@$$CBII@std@@@std@@$0A@@tr1@std@@@stdext@@0AAV?$allocator@U_List_position@?$_Hash@V?$_Umap_traits@IIV?$_Hash_compare@IV?$hash@I@tr1@std@@U?$equal_to@I@3@@stdext@@V?$allocator@U?$pair@$$CBII@std@@@std@@$0A@@tr1@std@@@stdext@@@0@U_Nonscalar_ptr_iterator_tag@0@@Z
_TEXT	SEGMENT
___formal$ = 8						; size = 1
??$_Destroy_range@V?$allocator@U_List_position@?$_Hash@V?$_Umap_traits@IIV?$_Hash_compare@IV?$hash@I@tr1@std@@U?$equal_to@I@3@@stdext@@V?$allocator@U?$pair@$$CBII@std@@@std@@$0A@@tr1@std@@@stdext@@@std@@@std@@YAXPAU_List_position@?$_Hash@V?$_Umap_traits@IIV?$_Hash_compare@IV?$hash@I@tr1@std@@U?$equal_to@I@3@@stdext@@V?$allocator@U?$pair@$$CBII@std@@@std@@$0A@@tr1@std@@@stdext@@0AAV?$allocator@U_List_position@?$_Hash@V?$_Umap_traits@IIV?$_Hash_compare@IV?$hash@I@tr1@std@@U?$equal_to@I@3@@stdext@@V?$allocator@U?$pair@$$CBII@std@@@std@@$0A@@tr1@std@@@stdext@@@0@U_Nonscalar_ptr_iterator_tag@0@@Z PROC ; std::_Destroy_range<std::allocator<stdext::_Hash<std::tr1::_Umap_traits<unsigned int,unsigned int,stdext::_Hash_compare<unsigned int,std::tr1::hash<unsigned int>,std::equal_to<unsigned int> >,std::allocator<std::pair<unsigned int const ,unsigned int> >,0> >::_List_position> >, COMDAT

; 233  : 	for (; _First != _Last; ++_First)
; 234  : 		_Al.destroy(_First);
; 235  : 	}

	ret	0
??$_Destroy_range@V?$allocator@U_List_position@?$_Hash@V?$_Umap_traits@IIV?$_Hash_compare@IV?$hash@I@tr1@std@@U?$equal_to@I@3@@stdext@@V?$allocator@U?$pair@$$CBII@std@@@std@@$0A@@tr1@std@@@stdext@@@std@@@std@@YAXPAU_List_position@?$_Hash@V?$_Umap_traits@IIV?$_Hash_compare@IV?$hash@I@tr1@std@@U?$equal_to@I@3@@stdext@@V?$allocator@U?$pair@$$CBII@std@@@std@@$0A@@tr1@std@@@stdext@@0AAV?$allocator@U_List_position@?$_Hash@V?$_Umap_traits@IIV?$_Hash_compare@IV?$hash@I@tr1@std@@U?$equal_to@I@3@@stdext@@V?$allocator@U?$pair@$$CBII@std@@@std@@$0A@@tr1@std@@@stdext@@@0@U_Nonscalar_ptr_iterator_tag@0@@Z ENDP ; std::_Destroy_range<std::allocator<stdext::_Hash<std::tr1::_Umap_traits<unsigned int,unsigned int,stdext::_Hash_compare<unsigned int,std::tr1::hash<unsigned int>,std::equal_to<unsigned int> >,std::allocator<std::pair<unsigned int const ,unsigned int> >,0> >::_List_position> >
; Function compile flags: /Ogtpy
; File c:\program files\microsoft visual studio 9.0\vc\include\xutility
_TEXT	ENDS
;	COMDAT ??$_Ptr_cat@PAU_List_position@?$_Hash@V?$_Umap_traits@IIV?$_Hash_compare@IV?$hash@I@tr1@std@@U?$equal_to@I@3@@stdext@@V?$allocator@U?$pair@$$CBII@std@@@std@@$0A@@tr1@std@@@stdext@@PAU123@@std@@YA?AU_Nonscalar_ptr_iterator_tag@0@AAPAU_List_position@?$_Hash@V?$_Umap_traits@IIV?$_Hash_compare@IV?$hash@I@tr1@std@@U?$equal_to@I@3@@stdext@@V?$allocator@U?$pair@$$CBII@std@@@std@@$0A@@tr1@std@@@stdext@@0@Z
_TEXT	SEGMENT
__Cat$ = -1						; size = 1
??$_Ptr_cat@PAU_List_position@?$_Hash@V?$_Umap_traits@IIV?$_Hash_compare@IV?$hash@I@tr1@std@@U?$equal_to@I@3@@stdext@@V?$allocator@U?$pair@$$CBII@std@@@std@@$0A@@tr1@std@@@stdext@@PAU123@@std@@YA?AU_Nonscalar_ptr_iterator_tag@0@AAPAU_List_position@?$_Hash@V?$_Umap_traits@IIV?$_Hash_compare@IV?$hash@I@tr1@std@@U?$equal_to@I@3@@stdext@@V?$allocator@U?$pair@$$CBII@std@@@std@@$0A@@tr1@std@@@stdext@@0@Z PROC ; std::_Ptr_cat<stdext::_Hash<std::tr1::_Umap_traits<unsigned int,unsigned int,stdext::_Hash_compare<unsigned int,std::tr1::hash<unsigned int>,std::equal_to<unsigned int> >,std::allocator<std::pair<unsigned int const ,unsigned int> >,0> >::_List_position *,stdext::_Hash<std::tr1::_Umap_traits<unsigned int,unsigned int,stdext::_Hash_compare<unsigned int,std::tr1::hash<unsigned int>,std::equal_to<unsigned int> >,std::allocator<std::pair<unsigned int const ,unsigned int> >,0> >::_List_position *>, COMDAT

; 1509 : 	{

	push	ecx

; 1510 : 	typename _Ptr_cat_helper<_T1, _T2>::_Ptr_cat _Cat;
; 1511 : 	return (_Cat);

	mov	al, BYTE PTR __Cat$[esp+4]

; 1512 : 	}

	pop	ecx
	ret	0
??$_Ptr_cat@PAU_List_position@?$_Hash@V?$_Umap_traits@IIV?$_Hash_compare@IV?$hash@I@tr1@std@@U?$equal_to@I@3@@stdext@@V?$allocator@U?$pair@$$CBII@std@@@std@@$0A@@tr1@std@@@stdext@@PAU123@@std@@YA?AU_Nonscalar_ptr_iterator_tag@0@AAPAU_List_position@?$_Hash@V?$_Umap_traits@IIV?$_Hash_compare@IV?$hash@I@tr1@std@@U?$equal_to@I@3@@stdext@@V?$allocator@U?$pair@$$CBII@std@@@std@@$0A@@tr1@std@@@stdext@@0@Z ENDP ; std::_Ptr_cat<stdext::_Hash<std::tr1::_Umap_traits<unsigned int,unsigned int,stdext::_Hash_compare<unsigned int,std::tr1::hash<unsigned int>,std::equal_to<unsigned int> >,std::allocator<std::pair<unsigned int const ,unsigned int> >,0> >::_List_position *,stdext::_Hash<std::tr1::_Umap_traits<unsigned int,unsigned int,stdext::_Hash_compare<unsigned int,std::tr1::hash<unsigned int>,std::equal_to<unsigned int> >,std::allocator<std::pair<unsigned int const ,unsigned int> >,0> >::_List_position *>
; Function compile flags: /Ogtpy
; File c:\program files\microsoft visual studio 9.0\vc\include\xmemory
_TEXT	ENDS
;	COMDAT ??$_Destroy_range@V?$allocator@VfbdChannel@DRAMsimII@@@std@@@std@@YAXPAVfbdChannel@DRAMsimII@@0AAV?$allocator@VfbdChannel@DRAMsimII@@@0@U_Nonscalar_ptr_iterator_tag@0@@Z
_TEXT	SEGMENT
___formal$ = 8						; size = 1
??$_Destroy_range@V?$allocator@VfbdChannel@DRAMsimII@@@std@@@std@@YAXPAVfbdChannel@DRAMsimII@@0AAV?$allocator@VfbdChannel@DRAMsimII@@@0@U_Nonscalar_ptr_iterator_tag@0@@Z PROC ; std::_Destroy_range<std::allocator<DRAMsimII::fbdChannel> >, COMDAT
; __First$ = eax
; __Last$ = edi

; 232  : 	{	// destroy [_First, _Last), arbitrary type

	push	esi
	mov	esi, eax

; 233  : 	for (; _First != _Last; ++_First)

	cmp	esi, edi
	je	SHORT $LN1@Destroy_ra
$LL3@Destroy_ra:

; 234  : 		_Al.destroy(_First);

	mov	eax, DWORD PTR [esi]
	mov	edx, DWORD PTR [eax+16]
	push	0
	mov	ecx, esi
	call	edx
	add	esi, 464				; 000001d0H
	cmp	esi, edi
	jne	SHORT $LL3@Destroy_ra
$LN1@Destroy_ra:
	pop	esi

; 235  : 	}

	ret	0
??$_Destroy_range@V?$allocator@VfbdChannel@DRAMsimII@@@std@@@std@@YAXPAVfbdChannel@DRAMsimII@@0AAV?$allocator@VfbdChannel@DRAMsimII@@@0@U_Nonscalar_ptr_iterator_tag@0@@Z ENDP ; std::_Destroy_range<std::allocator<DRAMsimII::fbdChannel> >
; Function compile flags: /Ogtpy
; File c:\program files\microsoft visual studio 9.0\vc\include\xutility
_TEXT	ENDS
;	COMDAT ??$_Ptr_cat@PAVfbdChannel@DRAMsimII@@PAV12@@std@@YA?AU_Nonscalar_ptr_iterator_tag@0@AAPAVfbdChannel@DRAMsimII@@0@Z
_TEXT	SEGMENT
__Cat$ = -1						; size = 1
??$_Ptr_cat@PAVfbdChannel@DRAMsimII@@PAV12@@std@@YA?AU_Nonscalar_ptr_iterator_tag@0@AAPAVfbdChannel@DRAMsimII@@0@Z PROC ; std::_Ptr_cat<DRAMsimII::fbdChannel *,DRAMsimII::fbdChannel *>, COMDAT

; 1509 : 	{

	push	ecx

; 1510 : 	typename _Ptr_cat_helper<_T1, _T2>::_Ptr_cat _Cat;
; 1511 : 	return (_Cat);

	mov	al, BYTE PTR __Cat$[esp+4]

; 1512 : 	}

	pop	ecx
	ret	0
??$_Ptr_cat@PAVfbdChannel@DRAMsimII@@PAV12@@std@@YA?AU_Nonscalar_ptr_iterator_tag@0@AAPAVfbdChannel@DRAMsimII@@0@Z ENDP ; std::_Ptr_cat<DRAMsimII::fbdChannel *,DRAMsimII::fbdChannel *>
; Function compile flags: /Ogtpy
; File c:\program files\microsoft visual studio 9.0\vc\include\xmemory
_TEXT	ENDS
;	COMDAT ??$_Destroy_range@V?$allocator@VChannel@DRAMsimII@@@std@@@std@@YAXPAVChannel@DRAMsimII@@0AAV?$allocator@VChannel@DRAMsimII@@@0@U_Nonscalar_ptr_iterator_tag@0@@Z
_TEXT	SEGMENT
___formal$ = 8						; size = 1
??$_Destroy_range@V?$allocator@VChannel@DRAMsimII@@@std@@@std@@YAXPAVChannel@DRAMsimII@@0AAV?$allocator@VChannel@DRAMsimII@@@0@U_Nonscalar_ptr_iterator_tag@0@@Z PROC ; std::_Destroy_range<std::allocator<DRAMsimII::Channel> >, COMDAT
; __First$ = eax
; __Last$ = edi

; 232  : 	{	// destroy [_First, _Last), arbitrary type

	push	esi
	mov	esi, eax

; 233  : 	for (; _First != _Last; ++_First)

	cmp	esi, edi
	je	SHORT $LN1@Destroy_ra@2
$LL3@Destroy_ra@2:

; 234  : 		_Al.destroy(_First);

	mov	eax, DWORD PTR [esi]
	mov	edx, DWORD PTR [eax+16]
	push	0
	mov	ecx, esi
	call	edx
	add	esi, 424				; 000001a8H
	cmp	esi, edi
	jne	SHORT $LL3@Destroy_ra@2
$LN1@Destroy_ra@2:
	pop	esi

; 235  : 	}

	ret	0
??$_Destroy_range@V?$allocator@VChannel@DRAMsimII@@@std@@@std@@YAXPAVChannel@DRAMsimII@@0AAV?$allocator@VChannel@DRAMsimII@@@0@U_Nonscalar_ptr_iterator_tag@0@@Z ENDP ; std::_Destroy_range<std::allocator<DRAMsimII::Channel> >
; Function compile flags: /Ogtpy
; File c:\program files\microsoft visual studio 9.0\vc\include\xutility
_TEXT	ENDS
;	COMDAT ??$_Ptr_cat@PAVChannel@DRAMsimII@@PAV12@@std@@YA?AU_Nonscalar_ptr_iterator_tag@0@AAPAVChannel@DRAMsimII@@0@Z
_TEXT	SEGMENT
__Cat$ = -1						; size = 1
??$_Ptr_cat@PAVChannel@DRAMsimII@@PAV12@@std@@YA?AU_Nonscalar_ptr_iterator_tag@0@AAPAVChannel@DRAMsimII@@0@Z PROC ; std::_Ptr_cat<DRAMsimII::Channel *,DRAMsimII::Channel *>, COMDAT

; 1509 : 	{

	push	ecx

; 1510 : 	typename _Ptr_cat_helper<_T1, _T2>::_Ptr_cat _Cat;
; 1511 : 	return (_Cat);

	mov	al, BYTE PTR __Cat$[esp+4]

; 1512 : 	}

	pop	ecx
	ret	0
??$_Ptr_cat@PAVChannel@DRAMsimII@@PAV12@@std@@YA?AU_Nonscalar_ptr_iterator_tag@0@AAPAVChannel@DRAMsimII@@0@Z ENDP ; std::_Ptr_cat<DRAMsimII::Channel *,DRAMsimII::Channel *>
; Function compile flags: /Ogtpy
; File c:\program files\microsoft visual studio 9.0\vc\include\xmemory
_TEXT	ENDS
;	COMDAT ??$_Destroy_range@V?$allocator@I@std@@@std@@YAXPAI0AAV?$allocator@I@0@U_Scalar_ptr_iterator_tag@0@@Z
_TEXT	SEGMENT
___formal$ = 8						; size = 1
??$_Destroy_range@V?$allocator@I@std@@@std@@YAXPAI0AAV?$allocator@I@0@U_Scalar_ptr_iterator_tag@0@@Z PROC ; std::_Destroy_range<std::allocator<unsigned int> >, COMDAT

; 242  : 	}

	ret	0
??$_Destroy_range@V?$allocator@I@std@@@std@@YAXPAI0AAV?$allocator@I@0@U_Scalar_ptr_iterator_tag@0@@Z ENDP ; std::_Destroy_range<std::allocator<unsigned int> >
; Function compile flags: /Ogtpy
; File c:\program files\microsoft visual studio 9.0\vc\include\xutility
_TEXT	ENDS
;	COMDAT ??$_Ptr_cat@PAIPAI@std@@YA?AU_Scalar_ptr_iterator_tag@0@AAPAI0@Z
_TEXT	SEGMENT
__Cat$ = -1						; size = 1
??$_Ptr_cat@PAIPAI@std@@YA?AU_Scalar_ptr_iterator_tag@0@AAPAI0@Z PROC ; std::_Ptr_cat<unsigned int *,unsigned int *>, COMDAT

; 1509 : 	{

	push	ecx

; 1510 : 	typename _Ptr_cat_helper<_T1, _T2>::_Ptr_cat _Cat;
; 1511 : 	return (_Cat);

	mov	al, BYTE PTR __Cat$[esp+4]

; 1512 : 	}

	pop	ecx
	ret	0
??$_Ptr_cat@PAIPAI@std@@YA?AU_Scalar_ptr_iterator_tag@0@AAPAI0@Z ENDP ; std::_Ptr_cat<unsigned int *,unsigned int *>
; Function compile flags: /Ogtpy
; File c:\program files\microsoft visual studio 9.0\vc\include\xmemory
_TEXT	ENDS
;	COMDAT ??$_Destroy@U_Node@?$_Tree_nod@V?$_Tmap_traits@_KIU?$less@_K@std@@V?$allocator@U?$pair@$$CB_KI@std@@@2@$0A@@std@@@std@@@std@@YAXPAU_Node@?$_Tree_nod@V?$_Tmap_traits@_KIU?$less@_K@std@@V?$allocator@U?$pair@$$CB_KI@std@@@2@$0A@@std@@@0@@Z
_TEXT	SEGMENT
??$_Destroy@U_Node@?$_Tree_nod@V?$_Tmap_traits@_KIU?$less@_K@std@@V?$allocator@U?$pair@$$CB_KI@std@@@2@$0A@@std@@@std@@@std@@YAXPAU_Node@?$_Tree_nod@V?$_Tmap_traits@_KIU?$less@_K@std@@V?$allocator@U?$pair@$$CB_KI@std@@@2@$0A@@std@@@0@@Z PROC ; std::_Destroy<std::_Tree_nod<std::_Tmap_traits<unsigned __int64,unsigned int,std::less<unsigned __int64>,std::allocator<std::pair<unsigned __int64 const ,unsigned int> >,0> >::_Node>, COMDAT

; 59   : 	_DESTRUCTOR(_Ty, _Ptr);
; 60   : 	}

	ret	0
??$_Destroy@U_Node@?$_Tree_nod@V?$_Tmap_traits@_KIU?$less@_K@std@@V?$allocator@U?$pair@$$CB_KI@std@@@2@$0A@@std@@@std@@@std@@YAXPAU_Node@?$_Tree_nod@V?$_Tmap_traits@_KIU?$less@_K@std@@V?$allocator@U?$pair@$$CB_KI@std@@@2@$0A@@std@@@0@@Z ENDP ; std::_Destroy<std::_Tree_nod<std::_Tmap_traits<unsigned __int64,unsigned int,std::less<unsigned __int64>,std::allocator<std::pair<unsigned __int64 const ,unsigned int> >,0> >::_Node>
; Function compile flags: /Ogtpy
_TEXT	ENDS
;	COMDAT ??$_Destroy@U_Node@?$_Tree_nod@V?$_Tmap_traits@_KVDelayCounter@Statistics@DRAMsimII@@U?$less@_K@std@@V?$allocator@U?$pair@$$CB_KVDelayCounter@Statistics@DRAMsimII@@@std@@@5@$0A@@std@@@std@@@std@@YAXPAU_Node@?$_Tree_nod@V?$_Tmap_traits@_KVDelayCounter@Statistics@DRAMsimII@@U?$less@_K@std@@V?$allocator@U?$pair@$$CB_KVDelayCounter@Statistics@DRAMsimII@@@std@@@5@$0A@@std@@@0@@Z
_TEXT	SEGMENT
??$_Destroy@U_Node@?$_Tree_nod@V?$_Tmap_traits@_KVDelayCounter@Statistics@DRAMsimII@@U?$less@_K@std@@V?$allocator@U?$pair@$$CB_KVDelayCounter@Statistics@DRAMsimII@@@std@@@5@$0A@@std@@@std@@@std@@YAXPAU_Node@?$_Tree_nod@V?$_Tmap_traits@_KVDelayCounter@Statistics@DRAMsimII@@U?$less@_K@std@@V?$allocator@U?$pair@$$CB_KVDelayCounter@Statistics@DRAMsimII@@@std@@@5@$0A@@std@@@0@@Z PROC ; std::_Destroy<std::_Tree_nod<std::_Tmap_traits<unsigned __int64,DRAMsimII::Statistics::DelayCounter,std::less<unsigned __int64>,std::allocator<std::pair<unsigned __int64 const ,DRAMsimII::Statistics::DelayCounter> >,0> >::_Node>, COMDAT

; 59   : 	_DESTRUCTOR(_Ty, _Ptr);
; 60   : 	}

	ret	0
??$_Destroy@U_Node@?$_Tree_nod@V?$_Tmap_traits@_KVDelayCounter@Statistics@DRAMsimII@@U?$less@_K@std@@V?$allocator@U?$pair@$$CB_KVDelayCounter@Statistics@DRAMsimII@@@std@@@5@$0A@@std@@@std@@@std@@YAXPAU_Node@?$_Tree_nod@V?$_Tmap_traits@_KVDelayCounter@Statistics@DRAMsimII@@U?$less@_K@std@@V?$allocator@U?$pair@$$CB_KVDelayCounter@Statistics@DRAMsimII@@@std@@@5@$0A@@std@@@0@@Z ENDP ; std::_Destroy<std::_Tree_nod<std::_Tmap_traits<unsigned __int64,DRAMsimII::Statistics::DelayCounter,std::less<unsigned __int64>,std::allocator<std::pair<unsigned __int64 const ,DRAMsimII::Statistics::DelayCounter> >,0> >::_Node>
; Function compile flags: /Ogtpy
_TEXT	ENDS
;	COMDAT ??$_Destroy@U_Node@?$_List_nod@U?$pair@$$CBII@std@@V?$allocator@U?$pair@$$CBII@std@@@2@@std@@@std@@YAXPAU_Node@?$_List_nod@U?$pair@$$CBII@std@@V?$allocator@U?$pair@$$CBII@std@@@2@@0@@Z
_TEXT	SEGMENT
??$_Destroy@U_Node@?$_List_nod@U?$pair@$$CBII@std@@V?$allocator@U?$pair@$$CBII@std@@@2@@std@@@std@@YAXPAU_Node@?$_List_nod@U?$pair@$$CBII@std@@V?$allocator@U?$pair@$$CBII@std@@@2@@0@@Z PROC ; std::_Destroy<std::_List_nod<std::pair<unsigned int const ,unsigned int>,std::allocator<std::pair<unsigned int const ,unsigned int> > >::_Node>, COMDAT

; 59   : 	_DESTRUCTOR(_Ty, _Ptr);
; 60   : 	}

	ret	0
??$_Destroy@U_Node@?$_List_nod@U?$pair@$$CBII@std@@V?$allocator@U?$pair@$$CBII@std@@@2@@std@@@std@@YAXPAU_Node@?$_List_nod@U?$pair@$$CBII@std@@V?$allocator@U?$pair@$$CBII@std@@@2@@0@@Z ENDP ; std::_Destroy<std::_List_nod<std::pair<unsigned int const ,unsigned int>,std::allocator<std::pair<unsigned int const ,unsigned int> > >::_Node>
; Function compile flags: /Ogtpy
_TEXT	ENDS
;	COMDAT ??$_Destroy_range@V?$allocator@U_List_position@?$_Hash@V?$_Umap_traits@IIV?$_Hash_compare@IV?$hash@I@tr1@std@@U?$equal_to@I@3@@stdext@@V?$allocator@U?$pair@$$CBII@std@@@std@@$0A@@tr1@std@@@stdext@@@std@@@std@@YAXPAU_List_position@?$_Hash@V?$_Umap_traits@IIV?$_Hash_compare@IV?$hash@I@tr1@std@@U?$equal_to@I@3@@stdext@@V?$allocator@U?$pair@$$CBII@std@@@std@@$0A@@tr1@std@@@stdext@@0AAV?$allocator@U_List_position@?$_Hash@V?$_Umap_traits@IIV?$_Hash_compare@IV?$hash@I@tr1@std@@U?$equal_to@I@3@@stdext@@V?$allocator@U?$pair@$$CBII@std@@@std@@$0A@@tr1@std@@@stdext@@@0@@Z
_TEXT	SEGMENT
??$_Destroy_range@V?$allocator@U_List_position@?$_Hash@V?$_Umap_traits@IIV?$_Hash_compare@IV?$hash@I@tr1@std@@U?$equal_to@I@3@@stdext@@V?$allocator@U?$pair@$$CBII@std@@@std@@$0A@@tr1@std@@@stdext@@@std@@@std@@YAXPAU_List_position@?$_Hash@V?$_Umap_traits@IIV?$_Hash_compare@IV?$hash@I@tr1@std@@U?$equal_to@I@3@@stdext@@V?$allocator@U?$pair@$$CBII@std@@@std@@$0A@@tr1@std@@@stdext@@0AAV?$allocator@U_List_position@?$_Hash@V?$_Umap_traits@IIV?$_Hash_compare@IV?$hash@I@tr1@std@@U?$equal_to@I@3@@stdext@@V?$allocator@U?$pair@$$CBII@std@@@std@@$0A@@tr1@std@@@stdext@@@0@@Z PROC ; std::_Destroy_range<std::allocator<stdext::_Hash<std::tr1::_Umap_traits<unsigned int,unsigned int,stdext::_Hash_compare<unsigned int,std::tr1::hash<unsigned int>,std::equal_to<unsigned int> >,std::allocator<std::pair<unsigned int const ,unsigned int> >,0> >::_List_position> >, COMDAT

; 225  : 	_Destroy_range(_First, _Last, _Al, _Ptr_cat(_First, _Last));
; 226  : 	}

	ret	0
??$_Destroy_range@V?$allocator@U_List_position@?$_Hash@V?$_Umap_traits@IIV?$_Hash_compare@IV?$hash@I@tr1@std@@U?$equal_to@I@3@@stdext@@V?$allocator@U?$pair@$$CBII@std@@@std@@$0A@@tr1@std@@@stdext@@@std@@@std@@YAXPAU_List_position@?$_Hash@V?$_Umap_traits@IIV?$_Hash_compare@IV?$hash@I@tr1@std@@U?$equal_to@I@3@@stdext@@V?$allocator@U?$pair@$$CBII@std@@@std@@$0A@@tr1@std@@@stdext@@0AAV?$allocator@U_List_position@?$_Hash@V?$_Umap_traits@IIV?$_Hash_compare@IV?$hash@I@tr1@std@@U?$equal_to@I@3@@stdext@@V?$allocator@U?$pair@$$CBII@std@@@std@@$0A@@tr1@std@@@stdext@@@0@@Z ENDP ; std::_Destroy_range<std::allocator<stdext::_Hash<std::tr1::_Umap_traits<unsigned int,unsigned int,stdext::_Hash_compare<unsigned int,std::tr1::hash<unsigned int>,std::equal_to<unsigned int> >,std::allocator<std::pair<unsigned int const ,unsigned int> >,0> >::_List_position> >
; Function compile flags: /Ogtpy
_TEXT	ENDS
;	COMDAT ??$_Destroy@PAU_Node@?$_List_nod@U?$pair@$$CBII@std@@V?$allocator@U?$pair@$$CBII@std@@@2@@std@@@std@@YAXPAPAU_Node@?$_List_nod@U?$pair@$$CBII@std@@V?$allocator@U?$pair@$$CBII@std@@@2@@0@@Z
_TEXT	SEGMENT
??$_Destroy@PAU_Node@?$_List_nod@U?$pair@$$CBII@std@@V?$allocator@U?$pair@$$CBII@std@@@2@@std@@@std@@YAXPAPAU_Node@?$_List_nod@U?$pair@$$CBII@std@@V?$allocator@U?$pair@$$CBII@std@@@2@@0@@Z PROC ; std::_Destroy<std::_List_nod<std::pair<unsigned int const ,unsigned int>,std::allocator<std::pair<unsigned int const ,unsigned int> > >::_Node *>, COMDAT

; 59   : 	_DESTRUCTOR(_Ty, _Ptr);
; 60   : 	}

	ret	0
??$_Destroy@PAU_Node@?$_List_nod@U?$pair@$$CBII@std@@V?$allocator@U?$pair@$$CBII@std@@@2@@std@@@std@@YAXPAPAU_Node@?$_List_nod@U?$pair@$$CBII@std@@V?$allocator@U?$pair@$$CBII@std@@@2@@0@@Z ENDP ; std::_Destroy<std::_List_nod<std::pair<unsigned int const ,unsigned int>,std::allocator<std::pair<unsigned int const ,unsigned int> > >::_Node *>
; Function compile flags: /Ogtpy
; File c:\program files\microsoft visual studio 9.0\vc\include\utility
_TEXT	ENDS
;	COMDAT ??$swap@D@std@@YAXAAD0@Z
_TEXT	SEGMENT
__Left$ = 8						; size = 4
__Right$ = 12						; size = 4
??$swap@D@std@@YAXAAD0@Z PROC				; std::swap<char>, COMDAT

; 18   : 	if (&_Left != &_Right)

	mov	eax, DWORD PTR __Left$[esp-4]
	mov	ecx, DWORD PTR __Right$[esp-4]
	cmp	eax, ecx
	je	SHORT $LN1@swap@11

; 19   : 		{	// different, worth swapping
; 20   : 		_Ty _Tmp = _Left;

	mov	dl, BYTE PTR [eax]
	push	ebx

; 21   : 
; 22   : 		_Left = _Right;

	mov	bl, BYTE PTR [ecx]
	mov	BYTE PTR [eax], bl

; 23   : 		_Right = _Tmp;

	mov	BYTE PTR [ecx], dl
	pop	ebx
$LN1@swap@11:

; 24   : 		}
; 25   : 	}

	ret	0
??$swap@D@std@@YAXAAD0@Z ENDP				; std::swap<char>
; Function compile flags: /Ogtpy
; File c:\program files\microsoft visual studio 9.0\vc\include\xmemory
_TEXT	ENDS
;	COMDAT ??$?0VfbdChannel@DRAMsimII@@@?$allocator@V_Aux_cont@std@@@std@@QAE@ABV?$allocator@VfbdChannel@DRAMsimII@@@1@@Z
_TEXT	SEGMENT
??$?0VfbdChannel@DRAMsimII@@@?$allocator@V_Aux_cont@std@@@std@@QAE@ABV?$allocator@VfbdChannel@DRAMsimII@@@1@@Z PROC ; std::allocator<std::_Aux_cont>::allocator<std::_Aux_cont><DRAMsimII::fbdChannel>, COMDAT
; _this$ = eax

; 129  : 		{	// construct from a related allocator (do nothing)
; 130  : 		}

	ret	0
??$?0VfbdChannel@DRAMsimII@@@?$allocator@V_Aux_cont@std@@@std@@QAE@ABV?$allocator@VfbdChannel@DRAMsimII@@@1@@Z ENDP ; std::allocator<std::_Aux_cont>::allocator<std::_Aux_cont><DRAMsimII::fbdChannel>
; Function compile flags: /Ogtpy
_TEXT	ENDS
;	COMDAT ??$_Destroy_range@V?$allocator@VfbdChannel@DRAMsimII@@@std@@@std@@YAXPAVfbdChannel@DRAMsimII@@0AAV?$allocator@VfbdChannel@DRAMsimII@@@0@@Z
_TEXT	SEGMENT
??$_Destroy_range@V?$allocator@VfbdChannel@DRAMsimII@@@std@@@std@@YAXPAVfbdChannel@DRAMsimII@@0AAV?$allocator@VfbdChannel@DRAMsimII@@@0@@Z PROC ; std::_Destroy_range<std::allocator<DRAMsimII::fbdChannel> >, COMDAT
; __First$ = eax
; __Last$ = edi

; 224  : 	{	// destroy [_First, _Last)

	push	esi
	mov	esi, eax

; 225  : 	_Destroy_range(_First, _Last, _Al, _Ptr_cat(_First, _Last));

	cmp	esi, edi
	je	SHORT $LN5@Destroy_ra@3
$LL7@Destroy_ra@3:
	mov	eax, DWORD PTR [esi]
	mov	edx, DWORD PTR [eax+16]
	push	0
	mov	ecx, esi
	call	edx
	add	esi, 464				; 000001d0H
	cmp	esi, edi
	jne	SHORT $LL7@Destroy_ra@3
$LN5@Destroy_ra@3:
	pop	esi

; 226  : 	}

	ret	0
??$_Destroy_range@V?$allocator@VfbdChannel@DRAMsimII@@@std@@@std@@YAXPAVfbdChannel@DRAMsimII@@0AAV?$allocator@VfbdChannel@DRAMsimII@@@0@@Z ENDP ; std::_Destroy_range<std::allocator<DRAMsimII::fbdChannel> >
; Function compile flags: /Ogtpy
_TEXT	ENDS
;	COMDAT ??$_Destroy_range@V?$allocator@VChannel@DRAMsimII@@@std@@@std@@YAXPAVChannel@DRAMsimII@@0AAV?$allocator@VChannel@DRAMsimII@@@0@@Z
_TEXT	SEGMENT
??$_Destroy_range@V?$allocator@VChannel@DRAMsimII@@@std@@@std@@YAXPAVChannel@DRAMsimII@@0AAV?$allocator@VChannel@DRAMsimII@@@0@@Z PROC ; std::_Destroy_range<std::allocator<DRAMsimII::Channel> >, COMDAT
; __First$ = eax
; __Last$ = edi

; 224  : 	{	// destroy [_First, _Last)

	push	esi
	mov	esi, eax

; 225  : 	_Destroy_range(_First, _Last, _Al, _Ptr_cat(_First, _Last));

	cmp	esi, edi
	je	SHORT $LN5@Destroy_ra@4
$LL7@Destroy_ra@4:
	mov	eax, DWORD PTR [esi]
	mov	edx, DWORD PTR [eax+16]
	push	0
	mov	ecx, esi
	call	edx
	add	esi, 424				; 000001a8H
	cmp	esi, edi
	jne	SHORT $LL7@Destroy_ra@4
$LN5@Destroy_ra@4:
	pop	esi

; 226  : 	}

	ret	0
??$_Destroy_range@V?$allocator@VChannel@DRAMsimII@@@std@@@std@@YAXPAVChannel@DRAMsimII@@0AAV?$allocator@VChannel@DRAMsimII@@@0@@Z ENDP ; std::_Destroy_range<std::allocator<DRAMsimII::Channel> >
; Function compile flags: /Ogtpy
_TEXT	ENDS
;	COMDAT ??$_Destroy_range@V?$allocator@I@std@@@std@@YAXPAI0AAV?$allocator@I@0@@Z
_TEXT	SEGMENT
??$_Destroy_range@V?$allocator@I@std@@@std@@YAXPAI0AAV?$allocator@I@0@@Z PROC ; std::_Destroy_range<std::allocator<unsigned int> >, COMDAT

; 225  : 	_Destroy_range(_First, _Last, _Al, _Ptr_cat(_First, _Last));
; 226  : 	}

	ret	0
??$_Destroy_range@V?$allocator@I@std@@@std@@YAXPAI0AAV?$allocator@I@0@@Z ENDP ; std::_Destroy_range<std::allocator<unsigned int> >
; Function compile flags: /Ogtpy
_TEXT	ENDS
;	COMDAT ??$_Destroy@PAU_Node@?$_Tree_nod@V?$_Tmap_traits@_KIU?$less@_K@std@@V?$allocator@U?$pair@$$CB_KI@std@@@2@$0A@@std@@@std@@@std@@YAXPAPAU_Node@?$_Tree_nod@V?$_Tmap_traits@_KIU?$less@_K@std@@V?$allocator@U?$pair@$$CB_KI@std@@@2@$0A@@std@@@0@@Z
_TEXT	SEGMENT
??$_Destroy@PAU_Node@?$_Tree_nod@V?$_Tmap_traits@_KIU?$less@_K@std@@V?$allocator@U?$pair@$$CB_KI@std@@@2@$0A@@std@@@std@@@std@@YAXPAPAU_Node@?$_Tree_nod@V?$_Tmap_traits@_KIU?$less@_K@std@@V?$allocator@U?$pair@$$CB_KI@std@@@2@$0A@@std@@@0@@Z PROC ; std::_Destroy<std::_Tree_nod<std::_Tmap_traits<unsigned __int64,unsigned int,std::less<unsigned __int64>,std::allocator<std::pair<unsigned __int64 const ,unsigned int> >,0> >::_Node *>, COMDAT

; 59   : 	_DESTRUCTOR(_Ty, _Ptr);
; 60   : 	}

	ret	0
??$_Destroy@PAU_Node@?$_Tree_nod@V?$_Tmap_traits@_KIU?$less@_K@std@@V?$allocator@U?$pair@$$CB_KI@std@@@2@$0A@@std@@@std@@@std@@YAXPAPAU_Node@?$_Tree_nod@V?$_Tmap_traits@_KIU?$less@_K@std@@V?$allocator@U?$pair@$$CB_KI@std@@@2@$0A@@std@@@0@@Z ENDP ; std::_Destroy<std::_Tree_nod<std::_Tmap_traits<unsigned __int64,unsigned int,std::less<unsigned __int64>,std::allocator<std::pair<unsigned __int64 const ,unsigned int> >,0> >::_Node *>
; Function compile flags: /Ogtpy
_TEXT	ENDS
;	COMDAT ??$_Destroy@PAU_Node@?$_Tree_nod@V?$_Tmap_traits@_KVDelayCounter@Statistics@DRAMsimII@@U?$less@_K@std@@V?$allocator@U?$pair@$$CB_KVDelayCounter@Statistics@DRAMsimII@@@std@@@5@$0A@@std@@@std@@@std@@YAXPAPAU_Node@?$_Tree_nod@V?$_Tmap_traits@_KVDelayCounter@Statistics@DRAMsimII@@U?$less@_K@std@@V?$allocator@U?$pair@$$CB_KVDelayCounter@Statistics@DRAMsimII@@@std@@@5@$0A@@std@@@0@@Z
_TEXT	SEGMENT
??$_Destroy@PAU_Node@?$_Tree_nod@V?$_Tmap_traits@_KVDelayCounter@Statistics@DRAMsimII@@U?$less@_K@std@@V?$allocator@U?$pair@$$CB_KVDelayCounter@Statistics@DRAMsimII@@@std@@@5@$0A@@std@@@std@@@std@@YAXPAPAU_Node@?$_Tree_nod@V?$_Tmap_traits@_KVDelayCounter@Statistics@DRAMsimII@@U?$less@_K@std@@V?$allocator@U?$pair@$$CB_KVDelayCounter@Statistics@DRAMsimII@@@std@@@5@$0A@@std@@@0@@Z PROC ; std::_Destroy<std::_Tree_nod<std::_Tmap_traits<unsigned __int64,DRAMsimII::Statistics::DelayCounter,std::less<unsigned __int64>,std::allocator<std::pair<unsigned __int64 const ,DRAMsimII::Statistics::DelayCounter> >,0> >::_Node *>, COMDAT

; 59   : 	_DESTRUCTOR(_Ty, _Ptr);
; 60   : 	}

	ret	0
??$_Destroy@PAU_Node@?$_Tree_nod@V?$_Tmap_traits@_KVDelayCounter@Statistics@DRAMsimII@@U?$less@_K@std@@V?$allocator@U?$pair@$$CB_KVDelayCounter@Statistics@DRAMsimII@@@std@@@5@$0A@@std@@@std@@@std@@YAXPAPAU_Node@?$_Tree_nod@V?$_Tmap_traits@_KVDelayCounter@Statistics@DRAMsimII@@U?$less@_K@std@@V?$allocator@U?$pair@$$CB_KVDelayCounter@Statistics@DRAMsimII@@@std@@@5@$0A@@std@@@0@@Z ENDP ; std::_Destroy<std::_Tree_nod<std::_Tmap_traits<unsigned __int64,DRAMsimII::Statistics::DelayCounter,std::less<unsigned __int64>,std::allocator<std::pair<unsigned __int64 const ,DRAMsimII::Statistics::DelayCounter> >,0> >::_Node *>
; Function compile flags: /Ogtpy
; File c:\program files\microsoft visual studio 9.0\vc\include\xtree
_TEXT	ENDS
;	COMDAT ?_Mynode@const_iterator@?$_Tree@V?$_Tmap_traits@_KIU?$less@_K@std@@V?$allocator@U?$pair@$$CB_KI@std@@@2@$0A@@std@@@std@@QBEPAU_Node@?$_Tree_nod@V?$_Tmap_traits@_KIU?$less@_K@std@@V?$allocator@U?$pair@$$CB_KI@std@@@2@$0A@@std@@@3@XZ
_TEXT	SEGMENT
?_Mynode@const_iterator@?$_Tree@V?$_Tmap_traits@_KIU?$less@_K@std@@V?$allocator@U?$pair@$$CB_KI@std@@@2@$0A@@std@@@std@@QBEPAU_Node@?$_Tree_nod@V?$_Tmap_traits@_KIU?$less@_K@std@@V?$allocator@U?$pair@$$CB_KI@std@@@2@$0A@@std@@@3@XZ PROC ; std::_Tree<std::_Tmap_traits<unsigned __int64,unsigned int,std::less<unsigned __int64>,std::allocator<std::pair<unsigned __int64 const ,unsigned int> >,0> >::const_iterator::_Mynode, COMDAT
; _this$ = eax

; 410  : 			return (_Ptr);

	mov	eax, DWORD PTR [eax+4]

; 411  : 			}

	ret	0
?_Mynode@const_iterator@?$_Tree@V?$_Tmap_traits@_KIU?$less@_K@std@@V?$allocator@U?$pair@$$CB_KI@std@@@2@$0A@@std@@@std@@QBEPAU_Node@?$_Tree_nod@V?$_Tmap_traits@_KIU?$less@_K@std@@V?$allocator@U?$pair@$$CB_KI@std@@@2@$0A@@std@@@3@XZ ENDP ; std::_Tree<std::_Tmap_traits<unsigned __int64,unsigned int,std::less<unsigned __int64>,std::allocator<std::pair<unsigned __int64 const ,unsigned int> >,0> >::const_iterator::_Mynode
; Function compile flags: /Ogtpy
_TEXT	ENDS
;	COMDAT ?_Mynode@const_iterator@?$_Tree@V?$_Tmap_traits@_KVDelayCounter@Statistics@DRAMsimII@@U?$less@_K@std@@V?$allocator@U?$pair@$$CB_KVDelayCounter@Statistics@DRAMsimII@@@std@@@5@$0A@@std@@@std@@QBEPAU_Node@?$_Tree_nod@V?$_Tmap_traits@_KVDelayCounter@Statistics@DRAMsimII@@U?$less@_K@std@@V?$allocator@U?$pair@$$CB_KVDelayCounter@Statistics@DRAMsimII@@@std@@@5@$0A@@std@@@3@XZ
_TEXT	SEGMENT
?_Mynode@const_iterator@?$_Tree@V?$_Tmap_traits@_KVDelayCounter@Statistics@DRAMsimII@@U?$less@_K@std@@V?$allocator@U?$pair@$$CB_KVDelayCounter@Statistics@DRAMsimII@@@std@@@5@$0A@@std@@@std@@QBEPAU_Node@?$_Tree_nod@V?$_Tmap_traits@_KVDelayCounter@Statistics@DRAMsimII@@U?$less@_K@std@@V?$allocator@U?$pair@$$CB_KVDelayCounter@Statistics@DRAMsimII@@@std@@@5@$0A@@std@@@3@XZ PROC ; std::_Tree<std::_Tmap_traits<unsigned __int64,DRAMsimII::Statistics::DelayCounter,std::less<unsigned __int64>,std::allocator<std::pair<unsigned __int64 const ,DRAMsimII::Statistics::DelayCounter> >,0> >::const_iterator::_Mynode, COMDAT
; _this$ = eax

; 410  : 			return (_Ptr);

	mov	eax, DWORD PTR [eax+4]

; 411  : 			}

	ret	0
?_Mynode@const_iterator@?$_Tree@V?$_Tmap_traits@_KVDelayCounter@Statistics@DRAMsimII@@U?$less@_K@std@@V?$allocator@U?$pair@$$CB_KVDelayCounter@Statistics@DRAMsimII@@@std@@@5@$0A@@std@@@std@@QBEPAU_Node@?$_Tree_nod@V?$_Tmap_traits@_KVDelayCounter@Statistics@DRAMsimII@@U?$less@_K@std@@V?$allocator@U?$pair@$$CB_KVDelayCounter@Statistics@DRAMsimII@@@std@@@5@$0A@@std@@@3@XZ ENDP ; std::_Tree<std::_Tmap_traits<unsigned __int64,DRAMsimII::Statistics::DelayCounter,std::less<unsigned __int64>,std::allocator<std::pair<unsigned __int64 const ,DRAMsimII::Statistics::DelayCounter> >,0> >::const_iterator::_Mynode
; Function compile flags: /Ogtpy
; File c:\program files\microsoft visual studio 9.0\vc\include\xmemory
_TEXT	ENDS
;	COMDAT ?max_size@?$allocator@VfbdChannel@DRAMsimII@@@std@@QBEIXZ
_TEXT	SEGMENT
?max_size@?$allocator@VfbdChannel@DRAMsimII@@@std@@QBEIXZ PROC ; std::allocator<DRAMsimII::fbdChannel>::max_size, COMDAT

; 165  : 		_SIZT _Count = (_SIZT)(-1) / sizeof (_Ty);
; 166  : 		return (0 < _Count ? _Count : 1);

	mov	eax, 9256395				; 008d3dcbH

; 167  : 		}

	ret	0
?max_size@?$allocator@VfbdChannel@DRAMsimII@@@std@@QBEIXZ ENDP ; std::allocator<DRAMsimII::fbdChannel>::max_size
; Function compile flags: /Ogtpy
_TEXT	ENDS
;	COMDAT ?destroy@?$allocator@U_Node@?$_Tree_nod@V?$_Tmap_traits@_KIU?$less@_K@std@@V?$allocator@U?$pair@$$CB_KI@std@@@2@$0A@@std@@@std@@@std@@QAEXPAU_Node@?$_Tree_nod@V?$_Tmap_traits@_KIU?$less@_K@std@@V?$allocator@U?$pair@$$CB_KI@std@@@2@$0A@@std@@@2@@Z
_TEXT	SEGMENT
?destroy@?$allocator@U_Node@?$_Tree_nod@V?$_Tmap_traits@_KIU?$less@_K@std@@V?$allocator@U?$pair@$$CB_KI@std@@@2@$0A@@std@@@std@@@std@@QAEXPAU_Node@?$_Tree_nod@V?$_Tmap_traits@_KIU?$less@_K@std@@V?$allocator@U?$pair@$$CB_KI@std@@@2@$0A@@std@@@2@@Z PROC ; std::allocator<std::_Tree_nod<std::_Tmap_traits<unsigned __int64,unsigned int,std::less<unsigned __int64>,std::allocator<std::pair<unsigned __int64 const ,unsigned int> >,0> >::_Node>::destroy, COMDAT

; 160  : 		_Destroy(_Ptr);
; 161  : 		}

	ret	0
?destroy@?$allocator@U_Node@?$_Tree_nod@V?$_Tmap_traits@_KIU?$less@_K@std@@V?$allocator@U?$pair@$$CB_KI@std@@@2@$0A@@std@@@std@@@std@@QAEXPAU_Node@?$_Tree_nod@V?$_Tmap_traits@_KIU?$less@_K@std@@V?$allocator@U?$pair@$$CB_KI@std@@@2@$0A@@std@@@2@@Z ENDP ; std::allocator<std::_Tree_nod<std::_Tmap_traits<unsigned __int64,unsigned int,std::less<unsigned __int64>,std::allocator<std::pair<unsigned __int64 const ,unsigned int> >,0> >::_Node>::destroy
; Function compile flags: /Ogtpy
; File c:\program files\microsoft visual studio 9.0\vc\include\xtree
_TEXT	ENDS
;	COMDAT ?_Isnil@?$_Tree@V?$_Tmap_traits@_KIU?$less@_K@std@@V?$allocator@U?$pair@$$CB_KI@std@@@2@$0A@@std@@@std@@KAAADPAU_Node@?$_Tree_nod@V?$_Tmap_traits@_KIU?$less@_K@std@@V?$allocator@U?$pair@$$CB_KI@std@@@2@$0A@@std@@@2@@Z
_TEXT	SEGMENT
?_Isnil@?$_Tree@V?$_Tmap_traits@_KIU?$less@_K@std@@V?$allocator@U?$pair@$$CB_KI@std@@@2@$0A@@std@@@std@@KAAADPAU_Node@?$_Tree_nod@V?$_Tmap_traits@_KIU?$less@_K@std@@V?$allocator@U?$pair@$$CB_KI@std@@@2@$0A@@std@@@2@@Z PROC ; std::_Tree<std::_Tmap_traits<unsigned __int64,unsigned int,std::less<unsigned __int64>,std::allocator<std::pair<unsigned __int64 const ,unsigned int> >,0> >::_Isnil, COMDAT
; __Pnode$ = eax

; 157  : 		return ((_Charref)(*_Pnode)._Isnil);

	add	eax, 33					; 00000021H

; 158  : 		}

	ret	0
?_Isnil@?$_Tree@V?$_Tmap_traits@_KIU?$less@_K@std@@V?$allocator@U?$pair@$$CB_KI@std@@@2@$0A@@std@@@std@@KAAADPAU_Node@?$_Tree_nod@V?$_Tmap_traits@_KIU?$less@_K@std@@V?$allocator@U?$pair@$$CB_KI@std@@@2@$0A@@std@@@2@@Z ENDP ; std::_Tree<std::_Tmap_traits<unsigned __int64,unsigned int,std::less<unsigned __int64>,std::allocator<std::pair<unsigned __int64 const ,unsigned int> >,0> >::_Isnil
; Function compile flags: /Ogtpy
_TEXT	ENDS
;	COMDAT ?_Color@?$_Tree@V?$_Tmap_traits@_KIU?$less@_K@std@@V?$allocator@U?$pair@$$CB_KI@std@@@2@$0A@@std@@@std@@KAAADPAU_Node@?$_Tree_nod@V?$_Tmap_traits@_KIU?$less@_K@std@@V?$allocator@U?$pair@$$CB_KI@std@@@2@$0A@@std@@@2@@Z
_TEXT	SEGMENT
?_Color@?$_Tree@V?$_Tmap_traits@_KIU?$less@_K@std@@V?$allocator@U?$pair@$$CB_KI@std@@@2@$0A@@std@@@std@@KAAADPAU_Node@?$_Tree_nod@V?$_Tmap_traits@_KIU?$less@_K@std@@V?$allocator@U?$pair@$$CB_KI@std@@@2@$0A@@std@@@2@@Z PROC ; std::_Tree<std::_Tmap_traits<unsigned __int64,unsigned int,std::less<unsigned __int64>,std::allocator<std::pair<unsigned __int64 const ,unsigned int> >,0> >::_Color, COMDAT
; __Pnode$ = eax

; 152  : 		return ((_Charref)(*_Pnode)._Color);

	add	eax, 32					; 00000020H

; 153  : 		}

	ret	0
?_Color@?$_Tree@V?$_Tmap_traits@_KIU?$less@_K@std@@V?$allocator@U?$pair@$$CB_KI@std@@@2@$0A@@std@@@std@@KAAADPAU_Node@?$_Tree_nod@V?$_Tmap_traits@_KIU?$less@_K@std@@V?$allocator@U?$pair@$$CB_KI@std@@@2@$0A@@std@@@2@@Z ENDP ; std::_Tree<std::_Tmap_traits<unsigned __int64,unsigned int,std::less<unsigned __int64>,std::allocator<std::pair<unsigned __int64 const ,unsigned int> >,0> >::_Color
; Function compile flags: /Ogtpy
; File c:\program files\microsoft visual studio 9.0\vc\include\xmemory
_TEXT	ENDS
;	COMDAT ?destroy@?$allocator@U_Node@?$_Tree_nod@V?$_Tmap_traits@_KVDelayCounter@Statistics@DRAMsimII@@U?$less@_K@std@@V?$allocator@U?$pair@$$CB_KVDelayCounter@Statistics@DRAMsimII@@@std@@@5@$0A@@std@@@std@@@std@@QAEXPAU_Node@?$_Tree_nod@V?$_Tmap_traits@_KVDelayCounter@Statistics@DRAMsimII@@U?$less@_K@std@@V?$allocator@U?$pair@$$CB_KVDelayCounter@Statistics@DRAMsimII@@@std@@@5@$0A@@std@@@2@@Z
_TEXT	SEGMENT
?destroy@?$allocator@U_Node@?$_Tree_nod@V?$_Tmap_traits@_KVDelayCounter@Statistics@DRAMsimII@@U?$less@_K@std@@V?$allocator@U?$pair@$$CB_KVDelayCounter@Statistics@DRAMsimII@@@std@@@5@$0A@@std@@@std@@@std@@QAEXPAU_Node@?$_Tree_nod@V?$_Tmap_traits@_KVDelayCounter@Statistics@DRAMsimII@@U?$less@_K@std@@V?$allocator@U?$pair@$$CB_KVDelayCounter@Statistics@DRAMsimII@@@std@@@5@$0A@@std@@@2@@Z PROC ; std::allocator<std::_Tree_nod<std::_Tmap_traits<unsigned __int64,DRAMsimII::Statistics::DelayCounter,std::less<unsigned __int64>,std::allocator<std::pair<unsigned __int64 const ,DRAMsimII::Statistics::DelayCounter> >,0> >::_Node>::destroy, COMDAT

; 160  : 		_Destroy(_Ptr);
; 161  : 		}

	ret	0
?destroy@?$allocator@U_Node@?$_Tree_nod@V?$_Tmap_traits@_KVDelayCounter@Statistics@DRAMsimII@@U?$less@_K@std@@V?$allocator@U?$pair@$$CB_KVDelayCounter@Statistics@DRAMsimII@@@std@@@5@$0A@@std@@@std@@@std@@QAEXPAU_Node@?$_Tree_nod@V?$_Tmap_traits@_KVDelayCounter@Statistics@DRAMsimII@@U?$less@_K@std@@V?$allocator@U?$pair@$$CB_KVDelayCounter@Statistics@DRAMsimII@@@std@@@5@$0A@@std@@@2@@Z ENDP ; std::allocator<std::_Tree_nod<std::_Tmap_traits<unsigned __int64,DRAMsimII::Statistics::DelayCounter,std::less<unsigned __int64>,std::allocator<std::pair<unsigned __int64 const ,DRAMsimII::Statistics::DelayCounter> >,0> >::_Node>::destroy
; Function compile flags: /Ogtpy
; File c:\program files\microsoft visual studio 9.0\vc\include\xtree
_TEXT	ENDS
;	COMDAT ?_Isnil@?$_Tree@V?$_Tmap_traits@_KVDelayCounter@Statistics@DRAMsimII@@U?$less@_K@std@@V?$allocator@U?$pair@$$CB_KVDelayCounter@Statistics@DRAMsimII@@@std@@@5@$0A@@std@@@std@@KAAADPAU_Node@?$_Tree_nod@V?$_Tmap_traits@_KVDelayCounter@Statistics@DRAMsimII@@U?$less@_K@std@@V?$allocator@U?$pair@$$CB_KVDelayCounter@Statistics@DRAMsimII@@@std@@@5@$0A@@std@@@2@@Z
_TEXT	SEGMENT
?_Isnil@?$_Tree@V?$_Tmap_traits@_KVDelayCounter@Statistics@DRAMsimII@@U?$less@_K@std@@V?$allocator@U?$pair@$$CB_KVDelayCounter@Statistics@DRAMsimII@@@std@@@5@$0A@@std@@@std@@KAAADPAU_Node@?$_Tree_nod@V?$_Tmap_traits@_KVDelayCounter@Statistics@DRAMsimII@@U?$less@_K@std@@V?$allocator@U?$pair@$$CB_KVDelayCounter@Statistics@DRAMsimII@@@std@@@5@$0A@@std@@@2@@Z PROC ; std::_Tree<std::_Tmap_traits<unsigned __int64,DRAMsimII::Statistics::DelayCounter,std::less<unsigned __int64>,std::allocator<std::pair<unsigned __int64 const ,DRAMsimII::Statistics::DelayCounter> >,0> >::_Isnil, COMDAT
; __Pnode$ = eax

; 157  : 		return ((_Charref)(*_Pnode)._Isnil);

	add	eax, 41					; 00000029H

; 158  : 		}

	ret	0
?_Isnil@?$_Tree@V?$_Tmap_traits@_KVDelayCounter@Statistics@DRAMsimII@@U?$less@_K@std@@V?$allocator@U?$pair@$$CB_KVDelayCounter@Statistics@DRAMsimII@@@std@@@5@$0A@@std@@@std@@KAAADPAU_Node@?$_Tree_nod@V?$_Tmap_traits@_KVDelayCounter@Statistics@DRAMsimII@@U?$less@_K@std@@V?$allocator@U?$pair@$$CB_KVDelayCounter@Statistics@DRAMsimII@@@std@@@5@$0A@@std@@@2@@Z ENDP ; std::_Tree<std::_Tmap_traits<unsigned __int64,DRAMsimII::Statistics::DelayCounter,std::less<unsigned __int64>,std::allocator<std::pair<unsigned __int64 const ,DRAMsimII::Statistics::DelayCounter> >,0> >::_Isnil
; Function compile flags: /Ogtpy
_TEXT	ENDS
;	COMDAT ?_Color@?$_Tree@V?$_Tmap_traits@_KVDelayCounter@Statistics@DRAMsimII@@U?$less@_K@std@@V?$allocator@U?$pair@$$CB_KVDelayCounter@Statistics@DRAMsimII@@@std@@@5@$0A@@std@@@std@@KAAADPAU_Node@?$_Tree_nod@V?$_Tmap_traits@_KVDelayCounter@Statistics@DRAMsimII@@U?$less@_K@std@@V?$allocator@U?$pair@$$CB_KVDelayCounter@Statistics@DRAMsimII@@@std@@@5@$0A@@std@@@2@@Z
_TEXT	SEGMENT
?_Color@?$_Tree@V?$_Tmap_traits@_KVDelayCounter@Statistics@DRAMsimII@@U?$less@_K@std@@V?$allocator@U?$pair@$$CB_KVDelayCounter@Statistics@DRAMsimII@@@std@@@5@$0A@@std@@@std@@KAAADPAU_Node@?$_Tree_nod@V?$_Tmap_traits@_KVDelayCounter@Statistics@DRAMsimII@@U?$less@_K@std@@V?$allocator@U?$pair@$$CB_KVDelayCounter@Statistics@DRAMsimII@@@std@@@5@$0A@@std@@@2@@Z PROC ; std::_Tree<std::_Tmap_traits<unsigned __int64,DRAMsimII::Statistics::DelayCounter,std::less<unsigned __int64>,std::allocator<std::pair<unsigned __int64 const ,DRAMsimII::Statistics::DelayCounter> >,0> >::_Color, COMDAT
; __Pnode$ = eax

; 152  : 		return ((_Charref)(*_Pnode)._Color);

	add	eax, 40					; 00000028H

; 153  : 		}

	ret	0
?_Color@?$_Tree@V?$_Tmap_traits@_KVDelayCounter@Statistics@DRAMsimII@@U?$less@_K@std@@V?$allocator@U?$pair@$$CB_KVDelayCounter@Statistics@DRAMsimII@@@std@@@5@$0A@@std@@@std@@KAAADPAU_Node@?$_Tree_nod@V?$_Tmap_traits@_KVDelayCounter@Statistics@DRAMsimII@@U?$less@_K@std@@V?$allocator@U?$pair@$$CB_KVDelayCounter@Statistics@DRAMsimII@@@std@@@5@$0A@@std@@@2@@Z ENDP ; std::_Tree<std::_Tmap_traits<unsigned __int64,DRAMsimII::Statistics::DelayCounter,std::less<unsigned __int64>,std::allocator<std::pair<unsigned __int64 const ,DRAMsimII::Statistics::DelayCounter> >,0> >::_Color
; Function compile flags: /Ogtpy
; File c:\program files\microsoft visual studio 9.0\vc\include\xmemory
_TEXT	ENDS
;	COMDAT ?destroy@?$allocator@U_Node@?$_List_nod@U?$pair@$$CBII@std@@V?$allocator@U?$pair@$$CBII@std@@@2@@std@@@std@@QAEXPAU_Node@?$_List_nod@U?$pair@$$CBII@std@@V?$allocator@U?$pair@$$CBII@std@@@2@@2@@Z
_TEXT	SEGMENT
?destroy@?$allocator@U_Node@?$_List_nod@U?$pair@$$CBII@std@@V?$allocator@U?$pair@$$CBII@std@@@2@@std@@@std@@QAEXPAU_Node@?$_List_nod@U?$pair@$$CBII@std@@V?$allocator@U?$pair@$$CBII@std@@@2@@2@@Z PROC ; std::allocator<std::_List_nod<std::pair<unsigned int const ,unsigned int>,std::allocator<std::pair<unsigned int const ,unsigned int> > >::_Node>::destroy, COMDAT

; 160  : 		_Destroy(_Ptr);
; 161  : 		}

	ret	0
?destroy@?$allocator@U_Node@?$_List_nod@U?$pair@$$CBII@std@@V?$allocator@U?$pair@$$CBII@std@@@2@@std@@@std@@QAEXPAU_Node@?$_List_nod@U?$pair@$$CBII@std@@V?$allocator@U?$pair@$$CBII@std@@@2@@2@@Z ENDP ; std::allocator<std::_List_nod<std::pair<unsigned int const ,unsigned int>,std::allocator<std::pair<unsigned int const ,unsigned int> > >::_Node>::destroy
; Function compile flags: /Ogtpy
; File c:\program files\microsoft visual studio 9.0\vc\include\vector
_TEXT	ENDS
;	COMDAT ?max_size@?$vector@VfbdChannel@DRAMsimII@@V?$allocator@VfbdChannel@DRAMsimII@@@std@@@std@@QBEIXZ
_TEXT	SEGMENT
?max_size@?$vector@VfbdChannel@DRAMsimII@@V?$allocator@VfbdChannel@DRAMsimII@@@std@@@std@@QBEIXZ PROC ; std::vector<DRAMsimII::fbdChannel,std::allocator<DRAMsimII::fbdChannel> >::max_size, COMDAT

; 731  : 		return (this->_Alval.max_size());

	mov	eax, 9256395				; 008d3dcbH

; 732  : 		}

	ret	0
?max_size@?$vector@VfbdChannel@DRAMsimII@@V?$allocator@VfbdChannel@DRAMsimII@@@std@@@std@@QBEIXZ ENDP ; std::vector<DRAMsimII::fbdChannel,std::allocator<DRAMsimII::fbdChannel> >::max_size
; Function compile flags: /Ogtpy
; File c:\program files\microsoft visual studio 9.0\vc\include\xmemory
_TEXT	ENDS
;	COMDAT ?deallocate@?$allocator@U_List_position@?$_Hash@V?$_Umap_traits@IIV?$_Hash_compare@IV?$hash@I@tr1@std@@U?$equal_to@I@3@@stdext@@V?$allocator@U?$pair@$$CBII@std@@@std@@$0A@@tr1@std@@@stdext@@@std@@QAEXPAU_List_position@?$_Hash@V?$_Umap_traits@IIV?$_Hash_compare@IV?$hash@I@tr1@std@@U?$equal_to@I@3@@stdext@@V?$allocator@U?$pair@$$CBII@std@@@std@@$0A@@tr1@std@@@stdext@@I@Z
_TEXT	SEGMENT
?deallocate@?$allocator@U_List_position@?$_Hash@V?$_Umap_traits@IIV?$_Hash_compare@IV?$hash@I@tr1@std@@U?$equal_to@I@3@@stdext@@V?$allocator@U?$pair@$$CBII@std@@@std@@$0A@@tr1@std@@@stdext@@@std@@QAEXPAU_List_position@?$_Hash@V?$_Umap_traits@IIV?$_Hash_compare@IV?$hash@I@tr1@std@@U?$equal_to@I@3@@stdext@@V?$allocator@U?$pair@$$CBII@std@@@std@@$0A@@tr1@std@@@stdext@@I@Z PROC ; std::allocator<stdext::_Hash<std::tr1::_Umap_traits<unsigned int,unsigned int,stdext::_Hash_compare<unsigned int,std::tr1::hash<unsigned int>,std::equal_to<unsigned int> >,std::allocator<std::pair<unsigned int const ,unsigned int> >,0> >::_List_position>::deallocate, COMDAT
; __Ptr$ = eax

; 140  : 		::operator delete(_Ptr);

	push	eax
	call	??3@YAXPAX@Z				; operator delete
	pop	ecx

; 141  : 		}

	ret	0
?deallocate@?$allocator@U_List_position@?$_Hash@V?$_Umap_traits@IIV?$_Hash_compare@IV?$hash@I@tr1@std@@U?$equal_to@I@3@@stdext@@V?$allocator@U?$pair@$$CBII@std@@@std@@$0A@@tr1@std@@@stdext@@@std@@QAEXPAU_List_position@?$_Hash@V?$_Umap_traits@IIV?$_Hash_compare@IV?$hash@I@tr1@std@@U?$equal_to@I@3@@stdext@@V?$allocator@U?$pair@$$CBII@std@@@std@@$0A@@tr1@std@@@stdext@@I@Z ENDP ; std::allocator<stdext::_Hash<std::tr1::_Umap_traits<unsigned int,unsigned int,stdext::_Hash_compare<unsigned int,std::tr1::hash<unsigned int>,std::equal_to<unsigned int> >,std::allocator<std::pair<unsigned int const ,unsigned int> >,0> >::_List_position>::deallocate
; Function compile flags: /Ogtpy
; File c:\program files\microsoft visual studio 9.0\vc\include\vector
_TEXT	ENDS
;	COMDAT ?_Destroy@?$vector@U_List_position@?$_Hash@V?$_Umap_traits@IIV?$_Hash_compare@IV?$hash@I@tr1@std@@U?$equal_to@I@3@@stdext@@V?$allocator@U?$pair@$$CBII@std@@@std@@$0A@@tr1@std@@@stdext@@V?$allocator@U_List_position@?$_Hash@V?$_Umap_traits@IIV?$_Hash_compare@IV?$hash@I@tr1@std@@U?$equal_to@I@3@@stdext@@V?$allocator@U?$pair@$$CBII@std@@@std@@$0A@@tr1@std@@@stdext@@@std@@@std@@IAEXPAU_List_position@?$_Hash@V?$_Umap_traits@IIV?$_Hash_compare@IV?$hash@I@tr1@std@@U?$equal_to@I@3@@stdext@@V?$allocator@U?$pair@$$CBII@std@@@std@@$0A@@tr1@std@@@stdext@@0@Z
_TEXT	SEGMENT
?_Destroy@?$vector@U_List_position@?$_Hash@V?$_Umap_traits@IIV?$_Hash_compare@IV?$hash@I@tr1@std@@U?$equal_to@I@3@@stdext@@V?$allocator@U?$pair@$$CBII@std@@@std@@$0A@@tr1@std@@@stdext@@V?$allocator@U_List_position@?$_Hash@V?$_Umap_traits@IIV?$_Hash_compare@IV?$hash@I@tr1@std@@U?$equal_to@I@3@@stdext@@V?$allocator@U?$pair@$$CBII@std@@@std@@$0A@@tr1@std@@@stdext@@@std@@@std@@IAEXPAU_List_position@?$_Hash@V?$_Umap_traits@IIV?$_Hash_compare@IV?$hash@I@tr1@std@@U?$equal_to@I@3@@stdext@@V?$allocator@U?$pair@$$CBII@std@@@std@@$0A@@tr1@std@@@stdext@@0@Z PROC ; std::vector<stdext::_Hash<std::tr1::_Umap_traits<unsigned int,unsigned int,stdext::_Hash_compare<unsigned int,std::tr1::hash<unsigned int>,std::equal_to<unsigned int> >,std::allocator<std::pair<unsigned int const ,unsigned int> >,0> >::_List_position,std::allocator<stdext::_Hash<std::tr1::_Umap_traits<unsigned int,unsigned int,stdext::_Hash_compare<unsigned int,std::tr1::hash<unsigned int>,std::equal_to<unsigned int> >,std::allocator<std::pair<unsigned int const ,unsigned int> >,0> >::_List_position> >::_Destroy, COMDAT

; 1119 : 		_Destroy_range(_First, _Last, this->_Alval);
; 1120 : 		}

	ret	0
?_Destroy@?$vector@U_List_position@?$_Hash@V?$_Umap_traits@IIV?$_Hash_compare@IV?$hash@I@tr1@std@@U?$equal_to@I@3@@stdext@@V?$allocator@U?$pair@$$CBII@std@@@std@@$0A@@tr1@std@@@stdext@@V?$allocator@U_List_position@?$_Hash@V?$_Umap_traits@IIV?$_Hash_compare@IV?$hash@I@tr1@std@@U?$equal_to@I@3@@stdext@@V?$allocator@U?$pair@$$CBII@std@@@std@@$0A@@tr1@std@@@stdext@@@std@@@std@@IAEXPAU_List_position@?$_Hash@V?$_Umap_traits@IIV?$_Hash_compare@IV?$hash@I@tr1@std@@U?$equal_to@I@3@@stdext@@V?$allocator@U?$pair@$$CBII@std@@@std@@$0A@@tr1@std@@@stdext@@0@Z ENDP ; std::vector<stdext::_Hash<std::tr1::_Umap_traits<unsigned int,unsigned int,stdext::_Hash_compare<unsigned int,std::tr1::hash<unsigned int>,std::equal_to<unsigned int> >,std::allocator<std::pair<unsigned int const ,unsigned int> >,0> >::_List_position,std::allocator<stdext::_Hash<std::tr1::_Umap_traits<unsigned int,unsigned int,stdext::_Hash_compare<unsigned int,std::tr1::hash<unsigned int>,std::equal_to<unsigned int> >,std::allocator<std::pair<unsigned int const ,unsigned int> >,0> >::_List_position> >::_Destroy
; Function compile flags: /Ogtpy
; File c:\program files\microsoft visual studio 9.0\vc\include\xmemory
_TEXT	ENDS
;	COMDAT ?destroy@?$allocator@PAU_Node@?$_List_nod@U?$pair@$$CBII@std@@V?$allocator@U?$pair@$$CBII@std@@@2@@std@@@std@@QAEXPAPAU_Node@?$_List_nod@U?$pair@$$CBII@std@@V?$allocator@U?$pair@$$CBII@std@@@2@@2@@Z
_TEXT	SEGMENT
?destroy@?$allocator@PAU_Node@?$_List_nod@U?$pair@$$CBII@std@@V?$allocator@U?$pair@$$CBII@std@@@2@@std@@@std@@QAEXPAPAU_Node@?$_List_nod@U?$pair@$$CBII@std@@V?$allocator@U?$pair@$$CBII@std@@@2@@2@@Z PROC ; std::allocator<std::_List_nod<std::pair<unsigned int const ,unsigned int>,std::allocator<std::pair<unsigned int const ,unsigned int> > >::_Node *>::destroy, COMDAT

; 160  : 		_Destroy(_Ptr);
; 161  : 		}

	ret	0
?destroy@?$allocator@PAU_Node@?$_List_nod@U?$pair@$$CBII@std@@V?$allocator@U?$pair@$$CBII@std@@@2@@std@@@std@@QAEXPAPAU_Node@?$_List_nod@U?$pair@$$CBII@std@@V?$allocator@U?$pair@$$CBII@std@@@2@@2@@Z ENDP ; std::allocator<std::_List_nod<std::pair<unsigned int const ,unsigned int>,std::allocator<std::pair<unsigned int const ,unsigned int> > >::_Node *>::destroy
; Function compile flags: /Ogtpy
_TEXT	ENDS
;	COMDAT ?deallocate@?$allocator@U_Node@?$_List_nod@U?$pair@$$CBII@std@@V?$allocator@U?$pair@$$CBII@std@@@2@@std@@@std@@QAEXPAU_Node@?$_List_nod@U?$pair@$$CBII@std@@V?$allocator@U?$pair@$$CBII@std@@@2@@2@I@Z
_TEXT	SEGMENT
?deallocate@?$allocator@U_Node@?$_List_nod@U?$pair@$$CBII@std@@V?$allocator@U?$pair@$$CBII@std@@@2@@std@@@std@@QAEXPAU_Node@?$_List_nod@U?$pair@$$CBII@std@@V?$allocator@U?$pair@$$CBII@std@@@2@@2@I@Z PROC ; std::allocator<std::_List_nod<std::pair<unsigned int const ,unsigned int>,std::allocator<std::pair<unsigned int const ,unsigned int> > >::_Node>::deallocate, COMDAT
; __Ptr$ = eax

; 140  : 		::operator delete(_Ptr);

	push	eax
	call	??3@YAXPAX@Z				; operator delete
	pop	ecx

; 141  : 		}

	ret	0
?deallocate@?$allocator@U_Node@?$_List_nod@U?$pair@$$CBII@std@@V?$allocator@U?$pair@$$CBII@std@@@2@@std@@@std@@QAEXPAU_Node@?$_List_nod@U?$pair@$$CBII@std@@V?$allocator@U?$pair@$$CBII@std@@@2@@2@I@Z ENDP ; std::allocator<std::_List_nod<std::pair<unsigned int const ,unsigned int>,std::allocator<std::pair<unsigned int const ,unsigned int> > >::_Node>::deallocate
; Function compile flags: /Ogtpy
; File c:\program files\microsoft visual studio 9.0\vc\include\list
_TEXT	ENDS
;	COMDAT ?_Prevnode@?$list@U?$pair@$$CBII@std@@V?$allocator@U?$pair@$$CBII@std@@@2@@std@@KAAAPAU_Node@?$_List_nod@U?$pair@$$CBII@std@@V?$allocator@U?$pair@$$CBII@std@@@2@@2@PAU342@@Z
_TEXT	SEGMENT
?_Prevnode@?$list@U?$pair@$$CBII@std@@V?$allocator@U?$pair@$$CBII@std@@@2@@std@@KAAAPAU_Node@?$_List_nod@U?$pair@$$CBII@std@@V?$allocator@U?$pair@$$CBII@std@@@2@@2@PAU342@@Z PROC ; std::list<std::pair<unsigned int const ,unsigned int>,std::allocator<std::pair<unsigned int const ,unsigned int> > >::_Prevnode, COMDAT
; __Pnode$ = eax

; 120  : 		return ((_Nodepref)(*_Pnode)._Prev);

	add	eax, 4

; 121  : 		}

	ret	0
?_Prevnode@?$list@U?$pair@$$CBII@std@@V?$allocator@U?$pair@$$CBII@std@@@2@@std@@KAAAPAU_Node@?$_List_nod@U?$pair@$$CBII@std@@V?$allocator@U?$pair@$$CBII@std@@@2@@2@PAU342@@Z ENDP ; std::list<std::pair<unsigned int const ,unsigned int>,std::allocator<std::pair<unsigned int const ,unsigned int> > >::_Prevnode
; Function compile flags: /Ogtpy
_TEXT	ENDS
;	COMDAT ?_Nextnode@?$list@U?$pair@$$CBII@std@@V?$allocator@U?$pair@$$CBII@std@@@2@@std@@KAAAPAU_Node@?$_List_nod@U?$pair@$$CBII@std@@V?$allocator@U?$pair@$$CBII@std@@@2@@2@PAU342@@Z
_TEXT	SEGMENT
?_Nextnode@?$list@U?$pair@$$CBII@std@@V?$allocator@U?$pair@$$CBII@std@@@2@@std@@KAAAPAU_Node@?$_List_nod@U?$pair@$$CBII@std@@V?$allocator@U?$pair@$$CBII@std@@@2@@2@PAU342@@Z PROC ; std::list<std::pair<unsigned int const ,unsigned int>,std::allocator<std::pair<unsigned int const ,unsigned int> > >::_Nextnode, COMDAT
; __Pnode$ = eax

; 115  : 		return ((_Nodepref)(*_Pnode)._Next);
; 116  : 		}

	ret	0
?_Nextnode@?$list@U?$pair@$$CBII@std@@V?$allocator@U?$pair@$$CBII@std@@@2@@std@@KAAAPAU_Node@?$_List_nod@U?$pair@$$CBII@std@@V?$allocator@U?$pair@$$CBII@std@@@2@@2@PAU342@@Z ENDP ; std::list<std::pair<unsigned int const ,unsigned int>,std::allocator<std::pair<unsigned int const ,unsigned int> > >::_Nextnode
; Function compile flags: /Ogtpy
; File c:\program files\microsoft visual studio 9.0\vc\include\xmemory
_TEXT	ENDS
;	COMDAT ?deallocate@?$allocator@VfbdChannel@DRAMsimII@@@std@@QAEXPAVfbdChannel@DRAMsimII@@I@Z
_TEXT	SEGMENT
?deallocate@?$allocator@VfbdChannel@DRAMsimII@@@std@@QAEXPAVfbdChannel@DRAMsimII@@I@Z PROC ; std::allocator<DRAMsimII::fbdChannel>::deallocate, COMDAT
; __Ptr$ = eax

; 140  : 		::operator delete(_Ptr);

	push	eax
	call	??3@YAXPAX@Z				; operator delete
	pop	ecx

; 141  : 		}

	ret	0
?deallocate@?$allocator@VfbdChannel@DRAMsimII@@@std@@QAEXPAVfbdChannel@DRAMsimII@@I@Z ENDP ; std::allocator<DRAMsimII::fbdChannel>::deallocate
; Function compile flags: /Ogtpy
_TEXT	ENDS
;	COMDAT ??0?$allocator@VfbdChannel@DRAMsimII@@@std@@QAE@ABV01@@Z
_TEXT	SEGMENT
??0?$allocator@VfbdChannel@DRAMsimII@@@std@@QAE@ABV01@@Z PROC ; std::allocator<DRAMsimII::fbdChannel>::allocator<DRAMsimII::fbdChannel>, COMDAT
; _this$ = eax

; 124  : 		{	// construct by copying (do nothing)
; 125  : 		}

	ret	0
??0?$allocator@VfbdChannel@DRAMsimII@@@std@@QAE@ABV01@@Z ENDP ; std::allocator<DRAMsimII::fbdChannel>::allocator<DRAMsimII::fbdChannel>
; Function compile flags: /Ogtpy
; File c:\program files\microsoft visual studio 9.0\vc\include\vector
_TEXT	ENDS
;	COMDAT ?_Destroy@?$vector@VfbdChannel@DRAMsimII@@V?$allocator@VfbdChannel@DRAMsimII@@@std@@@std@@IAEXPAVfbdChannel@DRAMsimII@@0@Z
_TEXT	SEGMENT
?_Destroy@?$vector@VfbdChannel@DRAMsimII@@V?$allocator@VfbdChannel@DRAMsimII@@@std@@@std@@IAEXPAVfbdChannel@DRAMsimII@@0@Z PROC ; std::vector<DRAMsimII::fbdChannel,std::allocator<DRAMsimII::fbdChannel> >::_Destroy, COMDAT
; __First$ = eax
; __Last$ = edi

; 1118 : 		{	// destroy [_First, _Last) using allocator

	push	esi
	mov	esi, eax

; 1119 : 		_Destroy_range(_First, _Last, this->_Alval);

	cmp	esi, edi
	je	SHORT $LN7@Destroy
$LL9@Destroy:
	mov	eax, DWORD PTR [esi]
	mov	edx, DWORD PTR [eax+16]
	push	0
	mov	ecx, esi
	call	edx
	add	esi, 464				; 000001d0H
	cmp	esi, edi
	jne	SHORT $LL9@Destroy
$LN7@Destroy:
	pop	esi

; 1120 : 		}

	ret	0
?_Destroy@?$vector@VfbdChannel@DRAMsimII@@V?$allocator@VfbdChannel@DRAMsimII@@@std@@@std@@IAEXPAVfbdChannel@DRAMsimII@@0@Z ENDP ; std::vector<DRAMsimII::fbdChannel,std::allocator<DRAMsimII::fbdChannel> >::_Destroy
; Function compile flags: /Ogtpy
; File c:\program files\microsoft visual studio 9.0\vc\include\xmemory
_TEXT	ENDS
;	COMDAT ?deallocate@?$allocator@VChannel@DRAMsimII@@@std@@QAEXPAVChannel@DRAMsimII@@I@Z
_TEXT	SEGMENT
?deallocate@?$allocator@VChannel@DRAMsimII@@@std@@QAEXPAVChannel@DRAMsimII@@I@Z PROC ; std::allocator<DRAMsimII::Channel>::deallocate, COMDAT
; __Ptr$ = eax

; 140  : 		::operator delete(_Ptr);

	push	eax
	call	??3@YAXPAX@Z				; operator delete
	pop	ecx

; 141  : 		}

	ret	0
?deallocate@?$allocator@VChannel@DRAMsimII@@@std@@QAEXPAVChannel@DRAMsimII@@I@Z ENDP ; std::allocator<DRAMsimII::Channel>::deallocate
; Function compile flags: /Ogtpy
; File c:\program files\microsoft visual studio 9.0\vc\include\vector
_TEXT	ENDS
;	COMDAT ?_Destroy@?$vector@VChannel@DRAMsimII@@V?$allocator@VChannel@DRAMsimII@@@std@@@std@@IAEXPAVChannel@DRAMsimII@@0@Z
_TEXT	SEGMENT
?_Destroy@?$vector@VChannel@DRAMsimII@@V?$allocator@VChannel@DRAMsimII@@@std@@@std@@IAEXPAVChannel@DRAMsimII@@0@Z PROC ; std::vector<DRAMsimII::Channel,std::allocator<DRAMsimII::Channel> >::_Destroy, COMDAT
; __First$ = eax
; __Last$ = edi

; 1118 : 		{	// destroy [_First, _Last) using allocator

	push	esi
	mov	esi, eax

; 1119 : 		_Destroy_range(_First, _Last, this->_Alval);

	cmp	esi, edi
	je	SHORT $LN7@Destroy@2
$LL9@Destroy@2:
	mov	eax, DWORD PTR [esi]
	mov	edx, DWORD PTR [eax+16]
	push	0
	mov	ecx, esi
	call	edx
	add	esi, 424				; 000001a8H
	cmp	esi, edi
	jne	SHORT $LL9@Destroy@2
$LN7@Destroy@2:
	pop	esi

; 1120 : 		}

	ret	0
?_Destroy@?$vector@VChannel@DRAMsimII@@V?$allocator@VChannel@DRAMsimII@@@std@@@std@@IAEXPAVChannel@DRAMsimII@@0@Z ENDP ; std::vector<DRAMsimII::Channel,std::allocator<DRAMsimII::Channel> >::_Destroy
; Function compile flags: /Ogtpy
; File c:\program files\microsoft visual studio 9.0\vc\include\xmemory
_TEXT	ENDS
;	COMDAT ?deallocate@?$allocator@I@std@@QAEXPAII@Z
_TEXT	SEGMENT
?deallocate@?$allocator@I@std@@QAEXPAII@Z PROC		; std::allocator<unsigned int>::deallocate, COMDAT
; __Ptr$ = eax

; 140  : 		::operator delete(_Ptr);

	push	eax
	call	??3@YAXPAX@Z				; operator delete
	pop	ecx

; 141  : 		}

	ret	0
?deallocate@?$allocator@I@std@@QAEXPAII@Z ENDP		; std::allocator<unsigned int>::deallocate
; Function compile flags: /Ogtpy
; File c:\program files\microsoft visual studio 9.0\vc\include\vector
_TEXT	ENDS
;	COMDAT ?_Destroy@?$vector@IV?$allocator@I@std@@@std@@IAEXPAI0@Z
_TEXT	SEGMENT
?_Destroy@?$vector@IV?$allocator@I@std@@@std@@IAEXPAI0@Z PROC ; std::vector<unsigned int,std::allocator<unsigned int> >::_Destroy, COMDAT

; 1119 : 		_Destroy_range(_First, _Last, this->_Alval);
; 1120 : 		}

	ret	0
?_Destroy@?$vector@IV?$allocator@I@std@@@std@@IAEXPAI0@Z ENDP ; std::vector<unsigned int,std::allocator<unsigned int> >::_Destroy
; Function compile flags: /Ogtpy
; File c:\program files\microsoft visual studio 9.0\vc\include\xmemory
_TEXT	ENDS
;	COMDAT ?destroy@?$allocator@PAU_Node@?$_Tree_nod@V?$_Tmap_traits@_KIU?$less@_K@std@@V?$allocator@U?$pair@$$CB_KI@std@@@2@$0A@@std@@@std@@@std@@QAEXPAPAU_Node@?$_Tree_nod@V?$_Tmap_traits@_KIU?$less@_K@std@@V?$allocator@U?$pair@$$CB_KI@std@@@2@$0A@@std@@@2@@Z
_TEXT	SEGMENT
?destroy@?$allocator@PAU_Node@?$_Tree_nod@V?$_Tmap_traits@_KIU?$less@_K@std@@V?$allocator@U?$pair@$$CB_KI@std@@@2@$0A@@std@@@std@@@std@@QAEXPAPAU_Node@?$_Tree_nod@V?$_Tmap_traits@_KIU?$less@_K@std@@V?$allocator@U?$pair@$$CB_KI@std@@@2@$0A@@std@@@2@@Z PROC ; std::allocator<std::_Tree_nod<std::_Tmap_traits<unsigned __int64,unsigned int,std::less<unsigned __int64>,std::allocator<std::pair<unsigned __int64 const ,unsigned int> >,0> >::_Node *>::destroy, COMDAT

; 160  : 		_Destroy(_Ptr);
; 161  : 		}

	ret	0
?destroy@?$allocator@PAU_Node@?$_Tree_nod@V?$_Tmap_traits@_KIU?$less@_K@std@@V?$allocator@U?$pair@$$CB_KI@std@@@2@$0A@@std@@@std@@@std@@QAEXPAPAU_Node@?$_Tree_nod@V?$_Tmap_traits@_KIU?$less@_K@std@@V?$allocator@U?$pair@$$CB_KI@std@@@2@$0A@@std@@@2@@Z ENDP ; std::allocator<std::_Tree_nod<std::_Tmap_traits<unsigned __int64,unsigned int,std::less<unsigned __int64>,std::allocator<std::pair<unsigned __int64 const ,unsigned int> >,0> >::_Node *>::destroy
; Function compile flags: /Ogtpy
_TEXT	ENDS
;	COMDAT ?deallocate@?$allocator@U_Node@?$_Tree_nod@V?$_Tmap_traits@_KIU?$less@_K@std@@V?$allocator@U?$pair@$$CB_KI@std@@@2@$0A@@std@@@std@@@std@@QAEXPAU_Node@?$_Tree_nod@V?$_Tmap_traits@_KIU?$less@_K@std@@V?$allocator@U?$pair@$$CB_KI@std@@@2@$0A@@std@@@2@I@Z
_TEXT	SEGMENT
?deallocate@?$allocator@U_Node@?$_Tree_nod@V?$_Tmap_traits@_KIU?$less@_K@std@@V?$allocator@U?$pair@$$CB_KI@std@@@2@$0A@@std@@@std@@@std@@QAEXPAU_Node@?$_Tree_nod@V?$_Tmap_traits@_KIU?$less@_K@std@@V?$allocator@U?$pair@$$CB_KI@std@@@2@$0A@@std@@@2@I@Z PROC ; std::allocator<std::_Tree_nod<std::_Tmap_traits<unsigned __int64,unsigned int,std::less<unsigned __int64>,std::allocator<std::pair<unsigned __int64 const ,unsigned int> >,0> >::_Node>::deallocate, COMDAT
; __Ptr$ = eax

; 140  : 		::operator delete(_Ptr);

	push	eax
	call	??3@YAXPAX@Z				; operator delete
	pop	ecx

; 141  : 		}

	ret	0
?deallocate@?$allocator@U_Node@?$_Tree_nod@V?$_Tmap_traits@_KIU?$less@_K@std@@V?$allocator@U?$pair@$$CB_KI@std@@@2@$0A@@std@@@std@@@std@@QAEXPAU_Node@?$_Tree_nod@V?$_Tmap_traits@_KIU?$less@_K@std@@V?$allocator@U?$pair@$$CB_KI@std@@@2@$0A@@std@@@2@I@Z ENDP ; std::allocator<std::_Tree_nod<std::_Tmap_traits<unsigned __int64,unsigned int,std::less<unsigned __int64>,std::allocator<std::pair<unsigned __int64 const ,unsigned int> >,0> >::_Node>::deallocate
; Function compile flags: /Ogtpy
; File c:\program files\microsoft visual studio 9.0\vc\include\xtree
_TEXT	ENDS
;	COMDAT ?_Right@?$_Tree@V?$_Tmap_traits@_KIU?$less@_K@std@@V?$allocator@U?$pair@$$CB_KI@std@@@2@$0A@@std@@@std@@KAAAPAU_Node@?$_Tree_nod@V?$_Tmap_traits@_KIU?$less@_K@std@@V?$allocator@U?$pair@$$CB_KI@std@@@2@$0A@@std@@@2@PAU342@@Z
_TEXT	SEGMENT
?_Right@?$_Tree@V?$_Tmap_traits@_KIU?$less@_K@std@@V?$allocator@U?$pair@$$CB_KI@std@@@2@$0A@@std@@@std@@KAAAPAU_Node@?$_Tree_nod@V?$_Tmap_traits@_KIU?$less@_K@std@@V?$allocator@U?$pair@$$CB_KI@std@@@2@$0A@@std@@@2@PAU342@@Z PROC ; std::_Tree<std::_Tmap_traits<unsigned __int64,unsigned int,std::less<unsigned __int64>,std::allocator<std::pair<unsigned __int64 const ,unsigned int> >,0> >::_Right, COMDAT
; __Pnode$ = eax

; 177  : 		return ((_Nodepref)(*_Pnode)._Right);

	add	eax, 8

; 178  : 		}

	ret	0
?_Right@?$_Tree@V?$_Tmap_traits@_KIU?$less@_K@std@@V?$allocator@U?$pair@$$CB_KI@std@@@2@$0A@@std@@@std@@KAAAPAU_Node@?$_Tree_nod@V?$_Tmap_traits@_KIU?$less@_K@std@@V?$allocator@U?$pair@$$CB_KI@std@@@2@$0A@@std@@@2@PAU342@@Z ENDP ; std::_Tree<std::_Tmap_traits<unsigned __int64,unsigned int,std::less<unsigned __int64>,std::allocator<std::pair<unsigned __int64 const ,unsigned int> >,0> >::_Right
; Function compile flags: /Ogtpy
_TEXT	ENDS
;	COMDAT ?_Parent@?$_Tree@V?$_Tmap_traits@_KIU?$less@_K@std@@V?$allocator@U?$pair@$$CB_KI@std@@@2@$0A@@std@@@std@@KAAAPAU_Node@?$_Tree_nod@V?$_Tmap_traits@_KIU?$less@_K@std@@V?$allocator@U?$pair@$$CB_KI@std@@@2@$0A@@std@@@2@PAU342@@Z
_TEXT	SEGMENT
?_Parent@?$_Tree@V?$_Tmap_traits@_KIU?$less@_K@std@@V?$allocator@U?$pair@$$CB_KI@std@@@2@$0A@@std@@@std@@KAAAPAU_Node@?$_Tree_nod@V?$_Tmap_traits@_KIU?$less@_K@std@@V?$allocator@U?$pair@$$CB_KI@std@@@2@$0A@@std@@@2@PAU342@@Z PROC ; std::_Tree<std::_Tmap_traits<unsigned __int64,unsigned int,std::less<unsigned __int64>,std::allocator<std::pair<unsigned __int64 const ,unsigned int> >,0> >::_Parent, COMDAT
; __Pnode$ = eax

; 172  : 		return ((_Nodepref)(*_Pnode)._Parent);

	add	eax, 4

; 173  : 		}

	ret	0
?_Parent@?$_Tree@V?$_Tmap_traits@_KIU?$less@_K@std@@V?$allocator@U?$pair@$$CB_KI@std@@@2@$0A@@std@@@std@@KAAAPAU_Node@?$_Tree_nod@V?$_Tmap_traits@_KIU?$less@_K@std@@V?$allocator@U?$pair@$$CB_KI@std@@@2@$0A@@std@@@2@PAU342@@Z ENDP ; std::_Tree<std::_Tmap_traits<unsigned __int64,unsigned int,std::less<unsigned __int64>,std::allocator<std::pair<unsigned __int64 const ,unsigned int> >,0> >::_Parent
; Function compile flags: /Ogtpy
_TEXT	ENDS
;	COMDAT ?_Left@?$_Tree@V?$_Tmap_traits@_KIU?$less@_K@std@@V?$allocator@U?$pair@$$CB_KI@std@@@2@$0A@@std@@@std@@KAAAPAU_Node@?$_Tree_nod@V?$_Tmap_traits@_KIU?$less@_K@std@@V?$allocator@U?$pair@$$CB_KI@std@@@2@$0A@@std@@@2@PAU342@@Z
_TEXT	SEGMENT
?_Left@?$_Tree@V?$_Tmap_traits@_KIU?$less@_K@std@@V?$allocator@U?$pair@$$CB_KI@std@@@2@$0A@@std@@@std@@KAAAPAU_Node@?$_Tree_nod@V?$_Tmap_traits@_KIU?$less@_K@std@@V?$allocator@U?$pair@$$CB_KI@std@@@2@$0A@@std@@@2@PAU342@@Z PROC ; std::_Tree<std::_Tmap_traits<unsigned __int64,unsigned int,std::less<unsigned __int64>,std::allocator<std::pair<unsigned __int64 const ,unsigned int> >,0> >::_Left, COMDAT
; __Pnode$ = eax

; 167  : 		return ((_Nodepref)(*_Pnode)._Left);
; 168  : 		}

	ret	0
?_Left@?$_Tree@V?$_Tmap_traits@_KIU?$less@_K@std@@V?$allocator@U?$pair@$$CB_KI@std@@@2@$0A@@std@@@std@@KAAAPAU_Node@?$_Tree_nod@V?$_Tmap_traits@_KIU?$less@_K@std@@V?$allocator@U?$pair@$$CB_KI@std@@@2@$0A@@std@@@2@PAU342@@Z ENDP ; std::_Tree<std::_Tmap_traits<unsigned __int64,unsigned int,std::less<unsigned __int64>,std::allocator<std::pair<unsigned __int64 const ,unsigned int> >,0> >::_Left
; Function compile flags: /Ogtpy
; File c:\program files\microsoft visual studio 9.0\vc\include\xmemory
_TEXT	ENDS
;	COMDAT ?destroy@?$allocator@PAU_Node@?$_Tree_nod@V?$_Tmap_traits@_KVDelayCounter@Statistics@DRAMsimII@@U?$less@_K@std@@V?$allocator@U?$pair@$$CB_KVDelayCounter@Statistics@DRAMsimII@@@std@@@5@$0A@@std@@@std@@@std@@QAEXPAPAU_Node@?$_Tree_nod@V?$_Tmap_traits@_KVDelayCounter@Statistics@DRAMsimII@@U?$less@_K@std@@V?$allocator@U?$pair@$$CB_KVDelayCounter@Statistics@DRAMsimII@@@std@@@5@$0A@@std@@@2@@Z
_TEXT	SEGMENT
?destroy@?$allocator@PAU_Node@?$_Tree_nod@V?$_Tmap_traits@_KVDelayCounter@Statistics@DRAMsimII@@U?$less@_K@std@@V?$allocator@U?$pair@$$CB_KVDelayCounter@Statistics@DRAMsimII@@@std@@@5@$0A@@std@@@std@@@std@@QAEXPAPAU_Node@?$_Tree_nod@V?$_Tmap_traits@_KVDelayCounter@Statistics@DRAMsimII@@U?$less@_K@std@@V?$allocator@U?$pair@$$CB_KVDelayCounter@Statistics@DRAMsimII@@@std@@@5@$0A@@std@@@2@@Z PROC ; std::allocator<std::_Tree_nod<std::_Tmap_traits<unsigned __int64,DRAMsimII::Statistics::DelayCounter,std::less<unsigned __int64>,std::allocator<std::pair<unsigned __int64 const ,DRAMsimII::Statistics::DelayCounter> >,0> >::_Node *>::destroy, COMDAT

; 160  : 		_Destroy(_Ptr);
; 161  : 		}

	ret	0
?destroy@?$allocator@PAU_Node@?$_Tree_nod@V?$_Tmap_traits@_KVDelayCounter@Statistics@DRAMsimII@@U?$less@_K@std@@V?$allocator@U?$pair@$$CB_KVDelayCounter@Statistics@DRAMsimII@@@std@@@5@$0A@@std@@@std@@@std@@QAEXPAPAU_Node@?$_Tree_nod@V?$_Tmap_traits@_KVDelayCounter@Statistics@DRAMsimII@@U?$less@_K@std@@V?$allocator@U?$pair@$$CB_KVDelayCounter@Statistics@DRAMsimII@@@std@@@5@$0A@@std@@@2@@Z ENDP ; std::allocator<std::_Tree_nod<std::_Tmap_traits<unsigned __int64,DRAMsimII::Statistics::DelayCounter,std::less<unsigned __int64>,std::allocator<std::pair<unsigned __int64 const ,DRAMsimII::Statistics::DelayCounter> >,0> >::_Node *>::destroy
; Function compile flags: /Ogtpy
_TEXT	ENDS
;	COMDAT ?deallocate@?$allocator@U_Node@?$_Tree_nod@V?$_Tmap_traits@_KVDelayCounter@Statistics@DRAMsimII@@U?$less@_K@std@@V?$allocator@U?$pair@$$CB_KVDelayCounter@Statistics@DRAMsimII@@@std@@@5@$0A@@std@@@std@@@std@@QAEXPAU_Node@?$_Tree_nod@V?$_Tmap_traits@_KVDelayCounter@Statistics@DRAMsimII@@U?$less@_K@std@@V?$allocator@U?$pair@$$CB_KVDelayCounter@Statistics@DRAMsimII@@@std@@@5@$0A@@std@@@2@I@Z
_TEXT	SEGMENT
?deallocate@?$allocator@U_Node@?$_Tree_nod@V?$_Tmap_traits@_KVDelayCounter@Statistics@DRAMsimII@@U?$less@_K@std@@V?$allocator@U?$pair@$$CB_KVDelayCounter@Statistics@DRAMsimII@@@std@@@5@$0A@@std@@@std@@@std@@QAEXPAU_Node@?$_Tree_nod@V?$_Tmap_traits@_KVDelayCounter@Statistics@DRAMsimII@@U?$less@_K@std@@V?$allocator@U?$pair@$$CB_KVDelayCounter@Statistics@DRAMsimII@@@std@@@5@$0A@@std@@@2@I@Z PROC ; std::allocator<std::_Tree_nod<std::_Tmap_traits<unsigned __int64,DRAMsimII::Statistics::DelayCounter,std::less<unsigned __int64>,std::allocator<std::pair<unsigned __int64 const ,DRAMsimII::Statistics::DelayCounter> >,0> >::_Node>::deallocate, COMDAT
; __Ptr$ = eax

; 140  : 		::operator delete(_Ptr);

	push	eax
	call	??3@YAXPAX@Z				; operator delete
	pop	ecx

; 141  : 		}

	ret	0
?deallocate@?$allocator@U_Node@?$_Tree_nod@V?$_Tmap_traits@_KVDelayCounter@Statistics@DRAMsimII@@U?$less@_K@std@@V?$allocator@U?$pair@$$CB_KVDelayCounter@Statistics@DRAMsimII@@@std@@@5@$0A@@std@@@std@@@std@@QAEXPAU_Node@?$_Tree_nod@V?$_Tmap_traits@_KVDelayCounter@Statistics@DRAMsimII@@U?$less@_K@std@@V?$allocator@U?$pair@$$CB_KVDelayCounter@Statistics@DRAMsimII@@@std@@@5@$0A@@std@@@2@I@Z ENDP ; std::allocator<std::_Tree_nod<std::_Tmap_traits<unsigned __int64,DRAMsimII::Statistics::DelayCounter,std::less<unsigned __int64>,std::allocator<std::pair<unsigned __int64 const ,DRAMsimII::Statistics::DelayCounter> >,0> >::_Node>::deallocate
; Function compile flags: /Ogtpy
; File c:\program files\microsoft visual studio 9.0\vc\include\xtree
_TEXT	ENDS
;	COMDAT ?_Right@?$_Tree@V?$_Tmap_traits@_KVDelayCounter@Statistics@DRAMsimII@@U?$less@_K@std@@V?$allocator@U?$pair@$$CB_KVDelayCounter@Statistics@DRAMsimII@@@std@@@5@$0A@@std@@@std@@KAAAPAU_Node@?$_Tree_nod@V?$_Tmap_traits@_KVDelayCounter@Statistics@DRAMsimII@@U?$less@_K@std@@V?$allocator@U?$pair@$$CB_KVDelayCounter@Statistics@DRAMsimII@@@std@@@5@$0A@@std@@@2@PAU342@@Z
_TEXT	SEGMENT
?_Right@?$_Tree@V?$_Tmap_traits@_KVDelayCounter@Statistics@DRAMsimII@@U?$less@_K@std@@V?$allocator@U?$pair@$$CB_KVDelayCounter@Statistics@DRAMsimII@@@std@@@5@$0A@@std@@@std@@KAAAPAU_Node@?$_Tree_nod@V?$_Tmap_traits@_KVDelayCounter@Statistics@DRAMsimII@@U?$less@_K@std@@V?$allocator@U?$pair@$$CB_KVDelayCounter@Statistics@DRAMsimII@@@std@@@5@$0A@@std@@@2@PAU342@@Z PROC ; std::_Tree<std::_Tmap_traits<unsigned __int64,DRAMsimII::Statistics::DelayCounter,std::less<unsigned __int64>,std::allocator<std::pair<unsigned __int64 const ,DRAMsimII::Statistics::DelayCounter> >,0> >::_Right, COMDAT
; __Pnode$ = eax

; 177  : 		return ((_Nodepref)(*_Pnode)._Right);

	add	eax, 8

; 178  : 		}

	ret	0
?_Right@?$_Tree@V?$_Tmap_traits@_KVDelayCounter@Statistics@DRAMsimII@@U?$less@_K@std@@V?$allocator@U?$pair@$$CB_KVDelayCounter@Statistics@DRAMsimII@@@std@@@5@$0A@@std@@@std@@KAAAPAU_Node@?$_Tree_nod@V?$_Tmap_traits@_KVDelayCounter@Statistics@DRAMsimII@@U?$less@_K@std@@V?$allocator@U?$pair@$$CB_KVDelayCounter@Statistics@DRAMsimII@@@std@@@5@$0A@@std@@@2@PAU342@@Z ENDP ; std::_Tree<std::_Tmap_traits<unsigned __int64,DRAMsimII::Statistics::DelayCounter,std::less<unsigned __int64>,std::allocator<std::pair<unsigned __int64 const ,DRAMsimII::Statistics::DelayCounter> >,0> >::_Right
; Function compile flags: /Ogtpy
_TEXT	ENDS
;	COMDAT ?_Parent@?$_Tree@V?$_Tmap_traits@_KVDelayCounter@Statistics@DRAMsimII@@U?$less@_K@std@@V?$allocator@U?$pair@$$CB_KVDelayCounter@Statistics@DRAMsimII@@@std@@@5@$0A@@std@@@std@@KAAAPAU_Node@?$_Tree_nod@V?$_Tmap_traits@_KVDelayCounter@Statistics@DRAMsimII@@U?$less@_K@std@@V?$allocator@U?$pair@$$CB_KVDelayCounter@Statistics@DRAMsimII@@@std@@@5@$0A@@std@@@2@PAU342@@Z
_TEXT	SEGMENT
?_Parent@?$_Tree@V?$_Tmap_traits@_KVDelayCounter@Statistics@DRAMsimII@@U?$less@_K@std@@V?$allocator@U?$pair@$$CB_KVDelayCounter@Statistics@DRAMsimII@@@std@@@5@$0A@@std@@@std@@KAAAPAU_Node@?$_Tree_nod@V?$_Tmap_traits@_KVDelayCounter@Statistics@DRAMsimII@@U?$less@_K@std@@V?$allocator@U?$pair@$$CB_KVDelayCounter@Statistics@DRAMsimII@@@std@@@5@$0A@@std@@@2@PAU342@@Z PROC ; std::_Tree<std::_Tmap_traits<unsigned __int64,DRAMsimII::Statistics::DelayCounter,std::less<unsigned __int64>,std::allocator<std::pair<unsigned __int64 const ,DRAMsimII::Statistics::DelayCounter> >,0> >::_Parent, COMDAT
; __Pnode$ = eax

; 172  : 		return ((_Nodepref)(*_Pnode)._Parent);

	add	eax, 4

; 173  : 		}

	ret	0
?_Parent@?$_Tree@V?$_Tmap_traits@_KVDelayCounter@Statistics@DRAMsimII@@U?$less@_K@std@@V?$allocator@U?$pair@$$CB_KVDelayCounter@Statistics@DRAMsimII@@@std@@@5@$0A@@std@@@std@@KAAAPAU_Node@?$_Tree_nod@V?$_Tmap_traits@_KVDelayCounter@Statistics@DRAMsimII@@U?$less@_K@std@@V?$allocator@U?$pair@$$CB_KVDelayCounter@Statistics@DRAMsimII@@@std@@@5@$0A@@std@@@2@PAU342@@Z ENDP ; std::_Tree<std::_Tmap_traits<unsigned __int64,DRAMsimII::Statistics::DelayCounter,std::less<unsigned __int64>,std::allocator<std::pair<unsigned __int64 const ,DRAMsimII::Statistics::DelayCounter> >,0> >::_Parent
; Function compile flags: /Ogtpy
_TEXT	ENDS
;	COMDAT ?_Left@?$_Tree@V?$_Tmap_traits@_KVDelayCounter@Statistics@DRAMsimII@@U?$less@_K@std@@V?$allocator@U?$pair@$$CB_KVDelayCounter@Statistics@DRAMsimII@@@std@@@5@$0A@@std@@@std@@KAAAPAU_Node@?$_Tree_nod@V?$_Tmap_traits@_KVDelayCounter@Statistics@DRAMsimII@@U?$less@_K@std@@V?$allocator@U?$pair@$$CB_KVDelayCounter@Statistics@DRAMsimII@@@std@@@5@$0A@@std@@@2@PAU342@@Z
_TEXT	SEGMENT
?_Left@?$_Tree@V?$_Tmap_traits@_KVDelayCounter@Statistics@DRAMsimII@@U?$less@_K@std@@V?$allocator@U?$pair@$$CB_KVDelayCounter@Statistics@DRAMsimII@@@std@@@5@$0A@@std@@@std@@KAAAPAU_Node@?$_Tree_nod@V?$_Tmap_traits@_KVDelayCounter@Statistics@DRAMsimII@@U?$less@_K@std@@V?$allocator@U?$pair@$$CB_KVDelayCounter@Statistics@DRAMsimII@@@std@@@5@$0A@@std@@@2@PAU342@@Z PROC ; std::_Tree<std::_Tmap_traits<unsigned __int64,DRAMsimII::Statistics::DelayCounter,std::less<unsigned __int64>,std::allocator<std::pair<unsigned __int64 const ,DRAMsimII::Statistics::DelayCounter> >,0> >::_Left, COMDAT
; __Pnode$ = eax

; 167  : 		return ((_Nodepref)(*_Pnode)._Left);
; 168  : 		}

	ret	0
?_Left@?$_Tree@V?$_Tmap_traits@_KVDelayCounter@Statistics@DRAMsimII@@U?$less@_K@std@@V?$allocator@U?$pair@$$CB_KVDelayCounter@Statistics@DRAMsimII@@@std@@@5@$0A@@std@@@std@@KAAAPAU_Node@?$_Tree_nod@V?$_Tmap_traits@_KVDelayCounter@Statistics@DRAMsimII@@U?$less@_K@std@@V?$allocator@U?$pair@$$CB_KVDelayCounter@Statistics@DRAMsimII@@@std@@@5@$0A@@std@@@2@PAU342@@Z ENDP ; std::_Tree<std::_Tmap_traits<unsigned __int64,DRAMsimII::Statistics::DelayCounter,std::less<unsigned __int64>,std::allocator<std::pair<unsigned __int64 const ,DRAMsimII::Statistics::DelayCounter> >,0> >::_Left
; Function compile flags: /Ogtpy
; File c:\program files\microsoft visual studio 9.0\vc\include\vector
_TEXT	ENDS
;	COMDAT ?_Tidy@?$vector@U_List_position@?$_Hash@V?$_Umap_traits@IIV?$_Hash_compare@IV?$hash@I@tr1@std@@U?$equal_to@I@3@@stdext@@V?$allocator@U?$pair@$$CBII@std@@@std@@$0A@@tr1@std@@@stdext@@V?$allocator@U_List_position@?$_Hash@V?$_Umap_traits@IIV?$_Hash_compare@IV?$hash@I@tr1@std@@U?$equal_to@I@3@@stdext@@V?$allocator@U?$pair@$$CBII@std@@@std@@$0A@@tr1@std@@@stdext@@@std@@@std@@IAEXXZ
_TEXT	SEGMENT
?_Tidy@?$vector@U_List_position@?$_Hash@V?$_Umap_traits@IIV?$_Hash_compare@IV?$hash@I@tr1@std@@U?$equal_to@I@3@@stdext@@V?$allocator@U?$pair@$$CBII@std@@@std@@$0A@@tr1@std@@@stdext@@V?$allocator@U_List_position@?$_Hash@V?$_Umap_traits@IIV?$_Hash_compare@IV?$hash@I@tr1@std@@U?$equal_to@I@3@@stdext@@V?$allocator@U?$pair@$$CBII@std@@@std@@$0A@@tr1@std@@@stdext@@@std@@@std@@IAEXXZ PROC ; std::vector<stdext::_Hash<std::tr1::_Umap_traits<unsigned int,unsigned int,stdext::_Hash_compare<unsigned int,std::tr1::hash<unsigned int>,std::equal_to<unsigned int> >,std::allocator<std::pair<unsigned int const ,unsigned int> >,0> >::_List_position,std::allocator<stdext::_Hash<std::tr1::_Umap_traits<unsigned int,unsigned int,stdext::_Hash_compare<unsigned int,std::tr1::hash<unsigned int>,std::equal_to<unsigned int> >,std::allocator<std::pair<unsigned int const ,unsigned int> >,0> >::_List_position> >::_Tidy, COMDAT
; _this$ = esi

; 1124 : 		if (_Myfirst != 0)

	mov	eax, DWORD PTR [esi+12]
	test	eax, eax
	je	SHORT $LN4@Tidy@3

; 1125 : 			{	// something to free, destroy and deallocate it
; 1126 : 
; 1127 :  #if _HAS_ITERATOR_DEBUGGING
; 1128 : 			this->_Orphan_all();
; 1129 :  #endif /* _HAS_ITERATOR_DEBUGGING */
; 1130 : 
; 1131 : 			_Destroy(_Myfirst, _Mylast);
; 1132 : 			this->_Alval.deallocate(_Myfirst, _Myend - _Myfirst);

	push	eax
	call	??3@YAXPAX@Z				; operator delete
	add	esp, 4
$LN4@Tidy@3:

; 1133 : 			}
; 1134 : 		_Myfirst = 0, _Mylast = 0, _Myend = 0;

	mov	DWORD PTR [esi+12], 0
	mov	DWORD PTR [esi+16], 0
	mov	DWORD PTR [esi+20], 0

; 1135 : 		}

	ret	0
?_Tidy@?$vector@U_List_position@?$_Hash@V?$_Umap_traits@IIV?$_Hash_compare@IV?$hash@I@tr1@std@@U?$equal_to@I@3@@stdext@@V?$allocator@U?$pair@$$CBII@std@@@std@@$0A@@tr1@std@@@stdext@@V?$allocator@U_List_position@?$_Hash@V?$_Umap_traits@IIV?$_Hash_compare@IV?$hash@I@tr1@std@@U?$equal_to@I@3@@stdext@@V?$allocator@U?$pair@$$CBII@std@@@std@@$0A@@tr1@std@@@stdext@@@std@@@std@@IAEXXZ ENDP ; std::vector<stdext::_Hash<std::tr1::_Umap_traits<unsigned int,unsigned int,stdext::_Hash_compare<unsigned int,std::tr1::hash<unsigned int>,std::equal_to<unsigned int> >,std::allocator<std::pair<unsigned int const ,unsigned int> >,0> >::_List_position,std::allocator<stdext::_Hash<std::tr1::_Umap_traits<unsigned int,unsigned int,stdext::_Hash_compare<unsigned int,std::tr1::hash<unsigned int>,std::equal_to<unsigned int> >,std::allocator<std::pair<unsigned int const ,unsigned int> >,0> >::_List_position> >::_Tidy
; Function compile flags: /Ogtpy
; File c:\program files\microsoft visual studio 9.0\vc\include\xmemory
_TEXT	ENDS
;	COMDAT ??0?$allocator@VfbdChannel@DRAMsimII@@@std@@QAE@XZ
_TEXT	SEGMENT
??0?$allocator@VfbdChannel@DRAMsimII@@@std@@QAE@XZ PROC	; std::allocator<DRAMsimII::fbdChannel>::allocator<DRAMsimII::fbdChannel>, COMDAT
; _this$ = eax

; 120  : 		{	// construct default allocator (do nothing)
; 121  : 		}

	ret	0
??0?$allocator@VfbdChannel@DRAMsimII@@@std@@QAE@XZ ENDP	; std::allocator<DRAMsimII::fbdChannel>::allocator<DRAMsimII::fbdChannel>
; Function compile flags: /Ogtpy
; File c:\program files\microsoft visual studio 9.0\vc\include\vector
_TEXT	ENDS
;	COMDAT ?_Tidy@?$vector@VfbdChannel@DRAMsimII@@V?$allocator@VfbdChannel@DRAMsimII@@@std@@@std@@IAEXXZ
_TEXT	SEGMENT
_this$ = 8						; size = 4
?_Tidy@?$vector@VfbdChannel@DRAMsimII@@V?$allocator@VfbdChannel@DRAMsimII@@@std@@@std@@IAEXXZ PROC ; std::vector<DRAMsimII::fbdChannel,std::allocator<DRAMsimII::fbdChannel> >::_Tidy, COMDAT

; 1123 : 		{	// free all storage

	push	ebx
	mov	ebx, DWORD PTR _this$[esp]
	push	esi

; 1124 : 		if (_Myfirst != 0)

	mov	esi, DWORD PTR [ebx+12]
	test	esi, esi
	je	SHORT $LN19@Tidy@4
	push	edi

; 1125 : 			{	// something to free, destroy and deallocate it
; 1126 : 
; 1127 :  #if _HAS_ITERATOR_DEBUGGING
; 1128 : 			this->_Orphan_all();
; 1129 :  #endif /* _HAS_ITERATOR_DEBUGGING */
; 1130 : 
; 1131 : 			_Destroy(_Myfirst, _Mylast);

	mov	edi, DWORD PTR [ebx+16]
	cmp	esi, edi
	je	SHORT $LN10@Tidy@4
$LL12@Tidy@4:
	mov	eax, DWORD PTR [esi]
	mov	edx, DWORD PTR [eax+16]
	push	0
	mov	ecx, esi
	call	edx
	add	esi, 464				; 000001d0H
	cmp	esi, edi
	jne	SHORT $LL12@Tidy@4
$LN10@Tidy@4:

; 1132 : 			this->_Alval.deallocate(_Myfirst, _Myend - _Myfirst);

	mov	eax, DWORD PTR [ebx+12]
	push	eax
	call	??3@YAXPAX@Z				; operator delete
	add	esp, 4
	pop	edi
$LN19@Tidy@4:
	pop	esi

; 1133 : 			}
; 1134 : 		_Myfirst = 0, _Mylast = 0, _Myend = 0;

	mov	DWORD PTR [ebx+12], 0
	mov	DWORD PTR [ebx+16], 0
	mov	DWORD PTR [ebx+20], 0
	pop	ebx

; 1135 : 		}

	ret	4
?_Tidy@?$vector@VfbdChannel@DRAMsimII@@V?$allocator@VfbdChannel@DRAMsimII@@@std@@@std@@IAEXXZ ENDP ; std::vector<DRAMsimII::fbdChannel,std::allocator<DRAMsimII::fbdChannel> >::_Tidy
; Function compile flags: /Ogtpy
_TEXT	ENDS
;	COMDAT ?_Tidy@?$vector@VChannel@DRAMsimII@@V?$allocator@VChannel@DRAMsimII@@@std@@@std@@IAEXXZ
_TEXT	SEGMENT
_this$ = 8						; size = 4
?_Tidy@?$vector@VChannel@DRAMsimII@@V?$allocator@VChannel@DRAMsimII@@@std@@@std@@IAEXXZ PROC ; std::vector<DRAMsimII::Channel,std::allocator<DRAMsimII::Channel> >::_Tidy, COMDAT

; 1123 : 		{	// free all storage

	push	ebx
	mov	ebx, DWORD PTR _this$[esp]
	push	esi

; 1124 : 		if (_Myfirst != 0)

	mov	esi, DWORD PTR [ebx+12]
	test	esi, esi
	je	SHORT $LN19@Tidy@5
	push	edi

; 1125 : 			{	// something to free, destroy and deallocate it
; 1126 : 
; 1127 :  #if _HAS_ITERATOR_DEBUGGING
; 1128 : 			this->_Orphan_all();
; 1129 :  #endif /* _HAS_ITERATOR_DEBUGGING */
; 1130 : 
; 1131 : 			_Destroy(_Myfirst, _Mylast);

	mov	edi, DWORD PTR [ebx+16]
	cmp	esi, edi
	je	SHORT $LN10@Tidy@5
$LL12@Tidy@5:
	mov	eax, DWORD PTR [esi]
	mov	edx, DWORD PTR [eax+16]
	push	0
	mov	ecx, esi
	call	edx
	add	esi, 424				; 000001a8H
	cmp	esi, edi
	jne	SHORT $LL12@Tidy@5
$LN10@Tidy@5:

; 1132 : 			this->_Alval.deallocate(_Myfirst, _Myend - _Myfirst);

	mov	eax, DWORD PTR [ebx+12]
	push	eax
	call	??3@YAXPAX@Z				; operator delete
	add	esp, 4
	pop	edi
$LN19@Tidy@5:
	pop	esi

; 1133 : 			}
; 1134 : 		_Myfirst = 0, _Mylast = 0, _Myend = 0;

	mov	DWORD PTR [ebx+12], 0
	mov	DWORD PTR [ebx+16], 0
	mov	DWORD PTR [ebx+20], 0
	pop	ebx

; 1135 : 		}

	ret	4
?_Tidy@?$vector@VChannel@DRAMsimII@@V?$allocator@VChannel@DRAMsimII@@@std@@@std@@IAEXXZ ENDP ; std::vector<DRAMsimII::Channel,std::allocator<DRAMsimII::Channel> >::_Tidy
; Function compile flags: /Ogtpy
_TEXT	ENDS
;	COMDAT ?_Tidy@?$vector@IV?$allocator@I@std@@@std@@IAEXXZ
_TEXT	SEGMENT
?_Tidy@?$vector@IV?$allocator@I@std@@@std@@IAEXXZ PROC	; std::vector<unsigned int,std::allocator<unsigned int> >::_Tidy, COMDAT
; _this$ = esi

; 1124 : 		if (_Myfirst != 0)

	mov	eax, DWORD PTR [esi+12]
	test	eax, eax
	je	SHORT $LN4@Tidy@6

; 1125 : 			{	// something to free, destroy and deallocate it
; 1126 : 
; 1127 :  #if _HAS_ITERATOR_DEBUGGING
; 1128 : 			this->_Orphan_all();
; 1129 :  #endif /* _HAS_ITERATOR_DEBUGGING */
; 1130 : 
; 1131 : 			_Destroy(_Myfirst, _Mylast);
; 1132 : 			this->_Alval.deallocate(_Myfirst, _Myend - _Myfirst);

	push	eax
	call	??3@YAXPAX@Z				; operator delete
	add	esp, 4
$LN4@Tidy@6:

; 1133 : 			}
; 1134 : 		_Myfirst = 0, _Mylast = 0, _Myend = 0;

	mov	DWORD PTR [esi+12], 0
	mov	DWORD PTR [esi+16], 0
	mov	DWORD PTR [esi+20], 0

; 1135 : 		}

	ret	0
?_Tidy@?$vector@IV?$allocator@I@std@@@std@@IAEXXZ ENDP	; std::vector<unsigned int,std::allocator<unsigned int> >::_Tidy
; Function compile flags: /Ogtpy
; File c:\program files\microsoft visual studio 9.0\vc\include\xmemory
;	COMDAT ??$_Allocate@VfbdChannel@DRAMsimII@@@std@@YAPAVfbdChannel@DRAMsimII@@IPAV12@@Z
_TEXT	SEGMENT
$T335306 = -16						; size = 4
$T335298 = -12						; size = 12
??$_Allocate@VfbdChannel@DRAMsimII@@@std@@YAPAVfbdChannel@DRAMsimII@@IPAV12@@Z PROC ; std::_Allocate<DRAMsimII::fbdChannel>, COMDAT
; __Count$ = ecx

; 37   : 	if (_Count <= 0)
; 38   : 		_Count = 0;
; 39   : 	else if (((_SIZT)(-1) / _Count) < sizeof (_Ty))

	or	eax, -1
	xor	edx, edx
	div	ecx
	sub	esp, 16					; 00000010H
	cmp	eax, 464				; 000001d0H
	jae	SHORT $LN1@Allocate@15

; 40   : 		_THROW_NCEE(std::bad_alloc, NULL);

	lea	eax, DWORD PTR $T335306[esp+16]
	push	eax
	lea	ecx, DWORD PTR $T335298[esp+20]
	mov	DWORD PTR $T335306[esp+20], 0
	call	??0exception@std@@QAE@ABQBD@Z		; std::exception::exception
	push	OFFSET __TI2?AVbad_alloc@std@@
	lea	ecx, DWORD PTR $T335298[esp+20]
	push	ecx
	mov	DWORD PTR $T335298[esp+24], OFFSET ??_7bad_alloc@std@@6B@
	call	__CxxThrowException@8
$LN13@Allocate@15:
$LN1@Allocate@15:

; 41   : 
; 42   : 		// allocate storage for _Count elements of type _Ty
; 43   : 	return ((_Ty _FARQ *)::operator new(_Count * sizeof (_Ty)));

	imul	ecx, 464				; 000001d0H
	push	ecx
	call	??2@YAPAXI@Z				; operator new
	add	esp, 4

; 44   : 	}

	add	esp, 16					; 00000010H
	ret	0
$LN12@Allocate@15:
??$_Allocate@VfbdChannel@DRAMsimII@@@std@@YAPAVfbdChannel@DRAMsimII@@IPAV12@@Z ENDP ; std::_Allocate<DRAMsimII::fbdChannel>
; Function compile flags: /Ogtpy
_TEXT	ENDS
;	COMDAT ??0?$_Iterator_with_base@Ubidirectional_iterator_tag@std@@U?$pair@$$CB_KI@2@HPBU32@ABU32@V_Iterator_base_aux@2@@std@@QAE@XZ
_TEXT	SEGMENT
??0?$_Iterator_with_base@Ubidirectional_iterator_tag@std@@U?$pair@$$CB_KI@2@HPBU32@ABU32@V_Iterator_base_aux@2@@std@@QAE@XZ PROC ; std::_Iterator_with_base<std::bidirectional_iterator_tag,std::pair<unsigned __int64 const ,unsigned int>,int,std::pair<unsigned __int64 const ,unsigned int> const *,std::pair<unsigned __int64 const ,unsigned int> const &,std::_Iterator_base_aux>::_Iterator_with_base<std::bidirectional_iterator_tag,std::pair<unsigned __int64 const ,unsigned int>,int,std::pair<unsigned __int64 const ,unsigned int> const *,std::pair<unsigned __int64 const ,unsigned int> const &,std::_Iterator_base_aux>, COMDAT
; _this$ = eax
	mov	DWORD PTR [eax], 0
	ret	0
??0?$_Iterator_with_base@Ubidirectional_iterator_tag@std@@U?$pair@$$CB_KI@2@HPBU32@ABU32@V_Iterator_base_aux@2@@std@@QAE@XZ ENDP ; std::_Iterator_with_base<std::bidirectional_iterator_tag,std::pair<unsigned __int64 const ,unsigned int>,int,std::pair<unsigned __int64 const ,unsigned int> const *,std::pair<unsigned __int64 const ,unsigned int> const &,std::_Iterator_base_aux>::_Iterator_with_base<std::bidirectional_iterator_tag,std::pair<unsigned __int64 const ,unsigned int>,int,std::pair<unsigned __int64 const ,unsigned int> const *,std::pair<unsigned __int64 const ,unsigned int> const &,std::_Iterator_base_aux>
; Function compile flags: /Ogtpy
_TEXT	ENDS
;	COMDAT ??0?$_Iterator_with_base@Ubidirectional_iterator_tag@std@@U?$pair@$$CB_KVDelayCounter@Statistics@DRAMsimII@@@2@HPBU32@ABU32@V_Iterator_base_aux@2@@std@@QAE@XZ
_TEXT	SEGMENT
??0?$_Iterator_with_base@Ubidirectional_iterator_tag@std@@U?$pair@$$CB_KVDelayCounter@Statistics@DRAMsimII@@@2@HPBU32@ABU32@V_Iterator_base_aux@2@@std@@QAE@XZ PROC ; std::_Iterator_with_base<std::bidirectional_iterator_tag,std::pair<unsigned __int64 const ,DRAMsimII::Statistics::DelayCounter>,int,std::pair<unsigned __int64 const ,DRAMsimII::Statistics::DelayCounter> const *,std::pair<unsigned __int64 const ,DRAMsimII::Statistics::DelayCounter> const &,std::_Iterator_base_aux>::_Iterator_with_base<std::bidirectional_iterator_tag,std::pair<unsigned __int64 const ,DRAMsimII::Statistics::DelayCounter>,int,std::pair<unsigned __int64 const ,DRAMsimII::Statistics::DelayCounter> const *,std::pair<unsigned __int64 const ,DRAMsimII::Statistics::DelayCounter> const &,std::_Iterator_base_aux>, COMDAT
; _this$ = eax
	mov	DWORD PTR [eax], 0
	ret	0
??0?$_Iterator_with_base@Ubidirectional_iterator_tag@std@@U?$pair@$$CB_KVDelayCounter@Statistics@DRAMsimII@@@2@HPBU32@ABU32@V_Iterator_base_aux@2@@std@@QAE@XZ ENDP ; std::_Iterator_with_base<std::bidirectional_iterator_tag,std::pair<unsigned __int64 const ,DRAMsimII::Statistics::DelayCounter>,int,std::pair<unsigned __int64 const ,DRAMsimII::Statistics::DelayCounter> const *,std::pair<unsigned __int64 const ,DRAMsimII::Statistics::DelayCounter> const &,std::_Iterator_base_aux>::_Iterator_with_base<std::bidirectional_iterator_tag,std::pair<unsigned __int64 const ,DRAMsimII::Statistics::DelayCounter>,int,std::pair<unsigned __int64 const ,DRAMsimII::Statistics::DelayCounter> const *,std::pair<unsigned __int64 const ,DRAMsimII::Statistics::DelayCounter> const &,std::_Iterator_base_aux>
; Function compile flags: /Ogtpy
_TEXT	ENDS
;	COMDAT ??0?$_Bidit@U?$pair@$$CB_KI@std@@HPBU12@ABU12@@std@@QAE@XZ
_TEXT	SEGMENT
??0?$_Bidit@U?$pair@$$CB_KI@std@@HPBU12@ABU12@@std@@QAE@XZ PROC ; std::_Bidit<std::pair<unsigned __int64 const ,unsigned int>,int,std::pair<unsigned __int64 const ,unsigned int> const *,std::pair<unsigned __int64 const ,unsigned int> const &>::_Bidit<std::pair<unsigned __int64 const ,unsigned int>,int,std::pair<unsigned __int64 const ,unsigned int> const *,std::pair<unsigned __int64 const ,unsigned int> const &>, COMDAT
; _this$ = eax
	mov	DWORD PTR [eax], 0
	ret	0
??0?$_Bidit@U?$pair@$$CB_KI@std@@HPBU12@ABU12@@std@@QAE@XZ ENDP ; std::_Bidit<std::pair<unsigned __int64 const ,unsigned int>,int,std::pair<unsigned __int64 const ,unsigned int> const *,std::pair<unsigned __int64 const ,unsigned int> const &>::_Bidit<std::pair<unsigned __int64 const ,unsigned int>,int,std::pair<unsigned __int64 const ,unsigned int> const *,std::pair<unsigned __int64 const ,unsigned int> const &>
; Function compile flags: /Ogtpy
_TEXT	ENDS
;	COMDAT ??0?$_Bidit@U?$pair@$$CB_KVDelayCounter@Statistics@DRAMsimII@@@std@@HPBU12@ABU12@@std@@QAE@XZ
_TEXT	SEGMENT
??0?$_Bidit@U?$pair@$$CB_KVDelayCounter@Statistics@DRAMsimII@@@std@@HPBU12@ABU12@@std@@QAE@XZ PROC ; std::_Bidit<std::pair<unsigned __int64 const ,DRAMsimII::Statistics::DelayCounter>,int,std::pair<unsigned __int64 const ,DRAMsimII::Statistics::DelayCounter> const *,std::pair<unsigned __int64 const ,DRAMsimII::Statistics::DelayCounter> const &>::_Bidit<std::pair<unsigned __int64 const ,DRAMsimII::Statistics::DelayCounter>,int,std::pair<unsigned __int64 const ,DRAMsimII::Statistics::DelayCounter> const *,std::pair<unsigned __int64 const ,DRAMsimII::Statistics::DelayCounter> const &>, COMDAT
; _this$ = eax
	mov	DWORD PTR [eax], 0
	ret	0
??0?$_Bidit@U?$pair@$$CB_KVDelayCounter@Statistics@DRAMsimII@@@std@@HPBU12@ABU12@@std@@QAE@XZ ENDP ; std::_Bidit<std::pair<unsigned __int64 const ,DRAMsimII::Statistics::DelayCounter>,int,std::pair<unsigned __int64 const ,DRAMsimII::Statistics::DelayCounter> const *,std::pair<unsigned __int64 const ,DRAMsimII::Statistics::DelayCounter> const &>::_Bidit<std::pair<unsigned __int64 const ,DRAMsimII::Statistics::DelayCounter>,int,std::pair<unsigned __int64 const ,DRAMsimII::Statistics::DelayCounter> const *,std::pair<unsigned __int64 const ,DRAMsimII::Statistics::DelayCounter> const &>
; Function compile flags: /Ogtpy
; File c:\program files\microsoft visual studio 9.0\vc\include\xtree
_TEXT	ENDS
;	COMDAT ??0const_iterator@?$_Tree@V?$_Tmap_traits@_KIU?$less@_K@std@@V?$allocator@U?$pair@$$CB_KI@std@@@2@$0A@@std@@@std@@QAE@PAU_Node@?$_Tree_nod@V?$_Tmap_traits@_KIU?$less@_K@std@@V?$allocator@U?$pair@$$CB_KI@std@@@2@$0A@@std@@@2@PBV12@@Z
_TEXT	SEGMENT
??0const_iterator@?$_Tree@V?$_Tmap_traits@_KIU?$less@_K@std@@V?$allocator@U?$pair@$$CB_KI@std@@@2@$0A@@std@@@std@@QAE@PAU_Node@?$_Tree_nod@V?$_Tmap_traits@_KIU?$less@_K@std@@V?$allocator@U?$pair@$$CB_KI@std@@@2@$0A@@std@@@2@PBV12@@Z PROC ; std::_Tree<std::_Tmap_traits<unsigned __int64,unsigned int,std::less<unsigned __int64>,std::allocator<std::pair<unsigned __int64 const ,unsigned int> >,0> >::const_iterator::const_iterator, COMDAT
; _this$ = esi
; __Pnode$ = eax
; __Plist$ = edi

; 234  : 			{	// construct with node pointer _Pnode

	mov	DWORD PTR [esi], 0
	mov	DWORD PTR [esi+4], eax

; 235  : 			_SCL_SECURE_VALIDATE(_Plist != NULL);

	test	edi, edi
	jne	SHORT $LN1@const_iter@5
	call	__invalid_parameter_noinfo
$LN1@const_iter@5:

; 236  : 			this->_Set_container(_Plist);

	mov	ecx, DWORD PTR [edi]
	mov	DWORD PTR [esi], ecx

; 237  : 			}

	mov	eax, esi
	ret	0
??0const_iterator@?$_Tree@V?$_Tmap_traits@_KIU?$less@_K@std@@V?$allocator@U?$pair@$$CB_KI@std@@@2@$0A@@std@@@std@@QAE@PAU_Node@?$_Tree_nod@V?$_Tmap_traits@_KIU?$less@_K@std@@V?$allocator@U?$pair@$$CB_KI@std@@@2@$0A@@std@@@2@PBV12@@Z ENDP ; std::_Tree<std::_Tmap_traits<unsigned __int64,unsigned int,std::less<unsigned __int64>,std::allocator<std::pair<unsigned __int64 const ,unsigned int> >,0> >::const_iterator::const_iterator
; Function compile flags: /Ogtpy
_TEXT	ENDS
;	COMDAT ??0const_iterator@?$_Tree@V?$_Tmap_traits@_KVDelayCounter@Statistics@DRAMsimII@@U?$less@_K@std@@V?$allocator@U?$pair@$$CB_KVDelayCounter@Statistics@DRAMsimII@@@std@@@5@$0A@@std@@@std@@QAE@PAU_Node@?$_Tree_nod@V?$_Tmap_traits@_KVDelayCounter@Statistics@DRAMsimII@@U?$less@_K@std@@V?$allocator@U?$pair@$$CB_KVDelayCounter@Statistics@DRAMsimII@@@std@@@5@$0A@@std@@@2@PBV12@@Z
_TEXT	SEGMENT
??0const_iterator@?$_Tree@V?$_Tmap_traits@_KVDelayCounter@Statistics@DRAMsimII@@U?$less@_K@std@@V?$allocator@U?$pair@$$CB_KVDelayCounter@Statistics@DRAMsimII@@@std@@@5@$0A@@std@@@std@@QAE@PAU_Node@?$_Tree_nod@V?$_Tmap_traits@_KVDelayCounter@Statistics@DRAMsimII@@U?$less@_K@std@@V?$allocator@U?$pair@$$CB_KVDelayCounter@Statistics@DRAMsimII@@@std@@@5@$0A@@std@@@2@PBV12@@Z PROC ; std::_Tree<std::_Tmap_traits<unsigned __int64,DRAMsimII::Statistics::DelayCounter,std::less<unsigned __int64>,std::allocator<std::pair<unsigned __int64 const ,DRAMsimII::Statistics::DelayCounter> >,0> >::const_iterator::const_iterator, COMDAT
; _this$ = esi
; __Pnode$ = eax
; __Plist$ = edi

; 234  : 			{	// construct with node pointer _Pnode

	mov	DWORD PTR [esi], 0
	mov	DWORD PTR [esi+4], eax

; 235  : 			_SCL_SECURE_VALIDATE(_Plist != NULL);

	test	edi, edi
	jne	SHORT $LN1@const_iter@6
	call	__invalid_parameter_noinfo
$LN1@const_iter@6:

; 236  : 			this->_Set_container(_Plist);

	mov	ecx, DWORD PTR [edi]
	mov	DWORD PTR [esi], ecx

; 237  : 			}

	mov	eax, esi
	ret	0
??0const_iterator@?$_Tree@V?$_Tmap_traits@_KVDelayCounter@Statistics@DRAMsimII@@U?$less@_K@std@@V?$allocator@U?$pair@$$CB_KVDelayCounter@Statistics@DRAMsimII@@@std@@@5@$0A@@std@@@std@@QAE@PAU_Node@?$_Tree_nod@V?$_Tmap_traits@_KVDelayCounter@Statistics@DRAMsimII@@U?$less@_K@std@@V?$allocator@U?$pair@$$CB_KVDelayCounter@Statistics@DRAMsimII@@@std@@@5@$0A@@std@@@2@PBV12@@Z ENDP ; std::_Tree<std::_Tmap_traits<unsigned __int64,DRAMsimII::Statistics::DelayCounter,std::less<unsigned __int64>,std::allocator<std::pair<unsigned __int64 const ,DRAMsimII::Statistics::DelayCounter> >,0> >::const_iterator::const_iterator
; Function compile flags: /Ogtpy
_TEXT	ENDS
;	COMDAT ?_Root@?$_Tree@V?$_Tmap_traits@_KIU?$less@_K@std@@V?$allocator@U?$pair@$$CB_KI@std@@@2@$0A@@std@@@std@@IBEAAPAU_Node@?$_Tree_nod@V?$_Tmap_traits@_KIU?$less@_K@std@@V?$allocator@U?$pair@$$CB_KI@std@@@2@$0A@@std@@@2@XZ
_TEXT	SEGMENT
?_Root@?$_Tree@V?$_Tmap_traits@_KIU?$less@_K@std@@V?$allocator@U?$pair@$$CB_KI@std@@@2@$0A@@std@@@std@@IBEAAPAU_Node@?$_Tree_nod@V?$_Tmap_traits@_KIU?$less@_K@std@@V?$allocator@U?$pair@$$CB_KI@std@@@2@$0A@@std@@@2@XZ PROC ; std::_Tree<std::_Tmap_traits<unsigned __int64,unsigned int,std::less<unsigned __int64>,std::allocator<std::pair<unsigned __int64 const ,unsigned int> >,0> >::_Root, COMDAT
; _this$ = eax

; 1325 : 		return (_Parent(_Myhead));

	mov	eax, DWORD PTR [eax+24]
	add	eax, 4

; 1326 : 		}

	ret	0
?_Root@?$_Tree@V?$_Tmap_traits@_KIU?$less@_K@std@@V?$allocator@U?$pair@$$CB_KI@std@@@2@$0A@@std@@@std@@IBEAAPAU_Node@?$_Tree_nod@V?$_Tmap_traits@_KIU?$less@_K@std@@V?$allocator@U?$pair@$$CB_KI@std@@@2@$0A@@std@@@2@XZ ENDP ; std::_Tree<std::_Tmap_traits<unsigned __int64,unsigned int,std::less<unsigned __int64>,std::allocator<std::pair<unsigned __int64 const ,unsigned int> >,0> >::_Root
; Function compile flags: /Ogtpy
_TEXT	ENDS
;	COMDAT ?_Rmost@?$_Tree@V?$_Tmap_traits@_KIU?$less@_K@std@@V?$allocator@U?$pair@$$CB_KI@std@@@2@$0A@@std@@@std@@IBEAAPAU_Node@?$_Tree_nod@V?$_Tmap_traits@_KIU?$less@_K@std@@V?$allocator@U?$pair@$$CB_KI@std@@@2@$0A@@std@@@2@XZ
_TEXT	SEGMENT
?_Rmost@?$_Tree@V?$_Tmap_traits@_KIU?$less@_K@std@@V?$allocator@U?$pair@$$CB_KI@std@@@2@$0A@@std@@@std@@IBEAAPAU_Node@?$_Tree_nod@V?$_Tmap_traits@_KIU?$less@_K@std@@V?$allocator@U?$pair@$$CB_KI@std@@@2@$0A@@std@@@2@XZ PROC ; std::_Tree<std::_Tmap_traits<unsigned __int64,unsigned int,std::less<unsigned __int64>,std::allocator<std::pair<unsigned __int64 const ,unsigned int> >,0> >::_Rmost, COMDAT
; _this$ = eax

; 1320 : 		return (_Right(_Myhead));

	mov	eax, DWORD PTR [eax+24]
	add	eax, 8

; 1321 : 		}

	ret	0
?_Rmost@?$_Tree@V?$_Tmap_traits@_KIU?$less@_K@std@@V?$allocator@U?$pair@$$CB_KI@std@@@2@$0A@@std@@@std@@IBEAAPAU_Node@?$_Tree_nod@V?$_Tmap_traits@_KIU?$less@_K@std@@V?$allocator@U?$pair@$$CB_KI@std@@@2@$0A@@std@@@2@XZ ENDP ; std::_Tree<std::_Tmap_traits<unsigned __int64,unsigned int,std::less<unsigned __int64>,std::allocator<std::pair<unsigned __int64 const ,unsigned int> >,0> >::_Rmost
; Function compile flags: /Ogtpy
_TEXT	ENDS
;	COMDAT ?_Min@?$_Tree@V?$_Tmap_traits@_KIU?$less@_K@std@@V?$allocator@U?$pair@$$CB_KI@std@@@2@$0A@@std@@@std@@KAPAU_Node@?$_Tree_nod@V?$_Tmap_traits@_KIU?$less@_K@std@@V?$allocator@U?$pair@$$CB_KI@std@@@2@$0A@@std@@@2@PAU342@@Z
_TEXT	SEGMENT
?_Min@?$_Tree@V?$_Tmap_traits@_KIU?$less@_K@std@@V?$allocator@U?$pair@$$CB_KI@std@@@2@$0A@@std@@@std@@KAPAU_Node@?$_Tree_nod@V?$_Tmap_traits@_KIU?$less@_K@std@@V?$allocator@U?$pair@$$CB_KI@std@@@2@$0A@@std@@@2@PAU342@@Z PROC ; std::_Tree<std::_Tmap_traits<unsigned __int64,unsigned int,std::less<unsigned __int64>,std::allocator<std::pair<unsigned __int64 const ,unsigned int> >,0> >::_Min, COMDAT
; __Pnode$ = eax

; 1313 : 		while (!_Isnil(_Left(_Pnode)))

	mov	ecx, DWORD PTR [eax]
	cmp	BYTE PTR [ecx+33], 0
	jne	SHORT $LN1@Min@5
$LL2@Min@5:

; 1314 : 			_Pnode = _Left(_Pnode);

	mov	eax, ecx
	mov	ecx, DWORD PTR [eax]
	cmp	BYTE PTR [ecx+33], 0
	je	SHORT $LL2@Min@5
$LN1@Min@5:

; 1315 : 		return (_Pnode);
; 1316 : 		}

	ret	0
?_Min@?$_Tree@V?$_Tmap_traits@_KIU?$less@_K@std@@V?$allocator@U?$pair@$$CB_KI@std@@@2@$0A@@std@@@std@@KAPAU_Node@?$_Tree_nod@V?$_Tmap_traits@_KIU?$less@_K@std@@V?$allocator@U?$pair@$$CB_KI@std@@@2@$0A@@std@@@2@PAU342@@Z ENDP ; std::_Tree<std::_Tmap_traits<unsigned __int64,unsigned int,std::less<unsigned __int64>,std::allocator<std::pair<unsigned __int64 const ,unsigned int> >,0> >::_Min
; Function compile flags: /Ogtpy
_TEXT	ENDS
;	COMDAT ?_Max@?$_Tree@V?$_Tmap_traits@_KIU?$less@_K@std@@V?$allocator@U?$pair@$$CB_KI@std@@@2@$0A@@std@@@std@@KAPAU_Node@?$_Tree_nod@V?$_Tmap_traits@_KIU?$less@_K@std@@V?$allocator@U?$pair@$$CB_KI@std@@@2@$0A@@std@@@2@PAU342@@Z
_TEXT	SEGMENT
?_Max@?$_Tree@V?$_Tmap_traits@_KIU?$less@_K@std@@V?$allocator@U?$pair@$$CB_KI@std@@@2@$0A@@std@@@std@@KAPAU_Node@?$_Tree_nod@V?$_Tmap_traits@_KIU?$less@_K@std@@V?$allocator@U?$pair@$$CB_KI@std@@@2@$0A@@std@@@2@PAU342@@Z PROC ; std::_Tree<std::_Tmap_traits<unsigned __int64,unsigned int,std::less<unsigned __int64>,std::allocator<std::pair<unsigned __int64 const ,unsigned int> >,0> >::_Max, COMDAT
; __Pnode$ = eax

; 1306 : 		while (!_Isnil(_Right(_Pnode)))

	mov	ecx, DWORD PTR [eax+8]
	cmp	BYTE PTR [ecx+33], 0
	jne	SHORT $LN1@Max@5
	npad	7
$LL2@Max@5:

; 1307 : 			_Pnode = _Right(_Pnode);

	mov	eax, ecx
	mov	ecx, DWORD PTR [eax+8]
	cmp	BYTE PTR [ecx+33], 0
	je	SHORT $LL2@Max@5
$LN1@Max@5:

; 1308 : 		return (_Pnode);
; 1309 : 		}

	ret	0
?_Max@?$_Tree@V?$_Tmap_traits@_KIU?$less@_K@std@@V?$allocator@U?$pair@$$CB_KI@std@@@2@$0A@@std@@@std@@KAPAU_Node@?$_Tree_nod@V?$_Tmap_traits@_KIU?$less@_K@std@@V?$allocator@U?$pair@$$CB_KI@std@@@2@$0A@@std@@@2@PAU342@@Z ENDP ; std::_Tree<std::_Tmap_traits<unsigned __int64,unsigned int,std::less<unsigned __int64>,std::allocator<std::pair<unsigned __int64 const ,unsigned int> >,0> >::_Max
; Function compile flags: /Ogtpy
_TEXT	ENDS
;	COMDAT ?_Lrotate@?$_Tree@V?$_Tmap_traits@_KIU?$less@_K@std@@V?$allocator@U?$pair@$$CB_KI@std@@@2@$0A@@std@@@std@@IAEXPAU_Node@?$_Tree_nod@V?$_Tmap_traits@_KIU?$less@_K@std@@V?$allocator@U?$pair@$$CB_KI@std@@@2@$0A@@std@@@2@@Z
_TEXT	SEGMENT
_this$ = 8						; size = 4
?_Lrotate@?$_Tree@V?$_Tmap_traits@_KIU?$less@_K@std@@V?$allocator@U?$pair@$$CB_KI@std@@@2@$0A@@std@@@std@@IAEXPAU_Node@?$_Tree_nod@V?$_Tmap_traits@_KIU?$less@_K@std@@V?$allocator@U?$pair@$$CB_KI@std@@@2@$0A@@std@@@2@@Z PROC ; std::_Tree<std::_Tmap_traits<unsigned __int64,unsigned int,std::less<unsigned __int64>,std::allocator<std::pair<unsigned __int64 const ,unsigned int> >,0> >::_Lrotate, COMDAT
; __Wherenode$ = ecx

; 1286 : 		_Nodeptr _Pnode = _Right(_Wherenode);

	mov	eax, DWORD PTR [ecx+8]

; 1287 : 		_Right(_Wherenode) = _Left(_Pnode);

	mov	edx, DWORD PTR [eax]
	mov	DWORD PTR [ecx+8], edx

; 1288 : 
; 1289 : 		if (!_Isnil(_Left(_Pnode)))

	mov	edx, DWORD PTR [eax]
	cmp	BYTE PTR [edx+33], 0
	jne	SHORT $LN5@Lrotate@2

; 1290 : 			_Parent(_Left(_Pnode)) = _Wherenode;

	mov	DWORD PTR [edx+4], ecx
$LN5@Lrotate@2:

; 1291 : 		_Parent(_Pnode) = _Parent(_Wherenode);

	mov	edx, DWORD PTR [ecx+4]
	mov	DWORD PTR [eax+4], edx

; 1292 : 
; 1293 : 		if (_Wherenode == _Root())

	mov	edx, DWORD PTR _this$[esp-4]
	mov	edx, DWORD PTR [edx+24]
	cmp	ecx, DWORD PTR [edx+4]
	jne	SHORT $LN4@Lrotate@2

; 1294 : 			_Root() = _Pnode;

	mov	DWORD PTR [edx+4], eax

; 1299 : 
; 1300 : 		_Left(_Pnode) = _Wherenode;

	mov	DWORD PTR [eax], ecx

; 1301 : 		_Parent(_Wherenode) = _Pnode;

	mov	DWORD PTR [ecx+4], eax

; 1302 : 		}

	ret	4
$LN4@Lrotate@2:

; 1295 : 		else if (_Wherenode == _Left(_Parent(_Wherenode)))

	mov	edx, DWORD PTR [ecx+4]
	cmp	ecx, DWORD PTR [edx]
	jne	SHORT $LN2@Lrotate@2

; 1296 : 			_Left(_Parent(_Wherenode)) = _Pnode;

	mov	DWORD PTR [edx], eax

; 1299 : 
; 1300 : 		_Left(_Pnode) = _Wherenode;

	mov	DWORD PTR [eax], ecx

; 1301 : 		_Parent(_Wherenode) = _Pnode;

	mov	DWORD PTR [ecx+4], eax

; 1302 : 		}

	ret	4
$LN2@Lrotate@2:

; 1297 : 		else
; 1298 : 			_Right(_Parent(_Wherenode)) = _Pnode;

	mov	DWORD PTR [edx+8], eax

; 1299 : 
; 1300 : 		_Left(_Pnode) = _Wherenode;

	mov	DWORD PTR [eax], ecx

; 1301 : 		_Parent(_Wherenode) = _Pnode;

	mov	DWORD PTR [ecx+4], eax

; 1302 : 		}

	ret	4
?_Lrotate@?$_Tree@V?$_Tmap_traits@_KIU?$less@_K@std@@V?$allocator@U?$pair@$$CB_KI@std@@@2@$0A@@std@@@std@@IAEXPAU_Node@?$_Tree_nod@V?$_Tmap_traits@_KIU?$less@_K@std@@V?$allocator@U?$pair@$$CB_KI@std@@@2@$0A@@std@@@2@@Z ENDP ; std::_Tree<std::_Tmap_traits<unsigned __int64,unsigned int,std::less<unsigned __int64>,std::allocator<std::pair<unsigned __int64 const ,unsigned int> >,0> >::_Lrotate
; Function compile flags: /Ogtpy
_TEXT	ENDS
;	COMDAT ?_Erase@?$_Tree@V?$_Tmap_traits@_KIU?$less@_K@std@@V?$allocator@U?$pair@$$CB_KI@std@@@2@$0A@@std@@@std@@IAEXPAU_Node@?$_Tree_nod@V?$_Tmap_traits@_KIU?$less@_K@std@@V?$allocator@U?$pair@$$CB_KI@std@@@2@$0A@@std@@@2@@Z
_TEXT	SEGMENT
__Rootnode$ = 8						; size = 4
?_Erase@?$_Tree@V?$_Tmap_traits@_KIU?$less@_K@std@@V?$allocator@U?$pair@$$CB_KI@std@@@2@$0A@@std@@@std@@IAEXPAU_Node@?$_Tree_nod@V?$_Tmap_traits@_KIU?$less@_K@std@@V?$allocator@U?$pair@$$CB_KI@std@@@2@$0A@@std@@@2@@Z PROC ; std::_Tree<std::_Tmap_traits<unsigned __int64,unsigned int,std::less<unsigned __int64>,std::allocator<std::pair<unsigned __int64 const ,unsigned int> >,0> >::_Erase, COMDAT
; _this$ = ecx

; 1166 : 		{	// free entire subtree, recursively

	push	ebx
	push	esi
	push	edi

; 1167 : 		for (_Nodeptr _Pnode = _Rootnode; !_Isnil(_Pnode); _Rootnode = _Pnode)

	mov	edi, DWORD PTR __Rootnode$[esp+8]
	cmp	BYTE PTR [edi+33], 0
	mov	ebx, ecx
	mov	esi, edi
	jne	SHORT $LN1@Erase
$LL3@Erase:

; 1168 : 			{	// free subtrees, then node
; 1169 : 			_Erase(_Right(_Pnode));

	mov	eax, DWORD PTR [esi+8]
	push	eax
	mov	ecx, ebx
	call	?_Erase@?$_Tree@V?$_Tmap_traits@_KIU?$less@_K@std@@V?$allocator@U?$pair@$$CB_KI@std@@@2@$0A@@std@@@std@@IAEXPAU_Node@?$_Tree_nod@V?$_Tmap_traits@_KIU?$less@_K@std@@V?$allocator@U?$pair@$$CB_KI@std@@@2@$0A@@std@@@2@@Z ; std::_Tree<std::_Tmap_traits<unsigned __int64,unsigned int,std::less<unsigned __int64>,std::allocator<std::pair<unsigned __int64 const ,unsigned int> >,0> >::_Erase

; 1170 : 			_Pnode = _Left(_Pnode);

	mov	esi, DWORD PTR [esi]

; 1171 : 			this->_Alnod.destroy(_Rootnode);	// destroy, free erased node
; 1172 : 			this->_Alnod.deallocate(_Rootnode, 1);

	push	edi
	call	??3@YAXPAX@Z				; operator delete
	add	esp, 4
	cmp	BYTE PTR [esi+33], 0
	mov	edi, esi
	je	SHORT $LL3@Erase
$LN1@Erase:
	pop	edi
	pop	esi
	pop	ebx

; 1173 : 			}
; 1174 : 		}

	ret	4
?_Erase@?$_Tree@V?$_Tmap_traits@_KIU?$less@_K@std@@V?$allocator@U?$pair@$$CB_KI@std@@@2@$0A@@std@@@std@@IAEXPAU_Node@?$_Tree_nod@V?$_Tmap_traits@_KIU?$less@_K@std@@V?$allocator@U?$pair@$$CB_KI@std@@@2@$0A@@std@@@2@@Z ENDP ; std::_Tree<std::_Tmap_traits<unsigned __int64,unsigned int,std::less<unsigned __int64>,std::allocator<std::pair<unsigned __int64 const ,unsigned int> >,0> >::_Erase
; Function compile flags: /Ogtpy
_TEXT	ENDS
;	COMDAT ?_Root@?$_Tree@V?$_Tmap_traits@_KVDelayCounter@Statistics@DRAMsimII@@U?$less@_K@std@@V?$allocator@U?$pair@$$CB_KVDelayCounter@Statistics@DRAMsimII@@@std@@@5@$0A@@std@@@std@@IBEAAPAU_Node@?$_Tree_nod@V?$_Tmap_traits@_KVDelayCounter@Statistics@DRAMsimII@@U?$less@_K@std@@V?$allocator@U?$pair@$$CB_KVDelayCounter@Statistics@DRAMsimII@@@std@@@5@$0A@@std@@@2@XZ
_TEXT	SEGMENT
?_Root@?$_Tree@V?$_Tmap_traits@_KVDelayCounter@Statistics@DRAMsimII@@U?$less@_K@std@@V?$allocator@U?$pair@$$CB_KVDelayCounter@Statistics@DRAMsimII@@@std@@@5@$0A@@std@@@std@@IBEAAPAU_Node@?$_Tree_nod@V?$_Tmap_traits@_KVDelayCounter@Statistics@DRAMsimII@@U?$less@_K@std@@V?$allocator@U?$pair@$$CB_KVDelayCounter@Statistics@DRAMsimII@@@std@@@5@$0A@@std@@@2@XZ PROC ; std::_Tree<std::_Tmap_traits<unsigned __int64,DRAMsimII::Statistics::DelayCounter,std::less<unsigned __int64>,std::allocator<std::pair<unsigned __int64 const ,DRAMsimII::Statistics::DelayCounter> >,0> >::_Root, COMDAT
; _this$ = eax

; 1325 : 		return (_Parent(_Myhead));

	mov	eax, DWORD PTR [eax+24]
	add	eax, 4

; 1326 : 		}

	ret	0
?_Root@?$_Tree@V?$_Tmap_traits@_KVDelayCounter@Statistics@DRAMsimII@@U?$less@_K@std@@V?$allocator@U?$pair@$$CB_KVDelayCounter@Statistics@DRAMsimII@@@std@@@5@$0A@@std@@@std@@IBEAAPAU_Node@?$_Tree_nod@V?$_Tmap_traits@_KVDelayCounter@Statistics@DRAMsimII@@U?$less@_K@std@@V?$allocator@U?$pair@$$CB_KVDelayCounter@Statistics@DRAMsimII@@@std@@@5@$0A@@std@@@2@XZ ENDP ; std::_Tree<std::_Tmap_traits<unsigned __int64,DRAMsimII::Statistics::DelayCounter,std::less<unsigned __int64>,std::allocator<std::pair<unsigned __int64 const ,DRAMsimII::Statistics::DelayCounter> >,0> >::_Root
; Function compile flags: /Ogtpy
_TEXT	ENDS
;	COMDAT ?_Rmost@?$_Tree@V?$_Tmap_traits@_KVDelayCounter@Statistics@DRAMsimII@@U?$less@_K@std@@V?$allocator@U?$pair@$$CB_KVDelayCounter@Statistics@DRAMsimII@@@std@@@5@$0A@@std@@@std@@IBEAAPAU_Node@?$_Tree_nod@V?$_Tmap_traits@_KVDelayCounter@Statistics@DRAMsimII@@U?$less@_K@std@@V?$allocator@U?$pair@$$CB_KVDelayCounter@Statistics@DRAMsimII@@@std@@@5@$0A@@std@@@2@XZ
_TEXT	SEGMENT
?_Rmost@?$_Tree@V?$_Tmap_traits@_KVDelayCounter@Statistics@DRAMsimII@@U?$less@_K@std@@V?$allocator@U?$pair@$$CB_KVDelayCounter@Statistics@DRAMsimII@@@std@@@5@$0A@@std@@@std@@IBEAAPAU_Node@?$_Tree_nod@V?$_Tmap_traits@_KVDelayCounter@Statistics@DRAMsimII@@U?$less@_K@std@@V?$allocator@U?$pair@$$CB_KVDelayCounter@Statistics@DRAMsimII@@@std@@@5@$0A@@std@@@2@XZ PROC ; std::_Tree<std::_Tmap_traits<unsigned __int64,DRAMsimII::Statistics::DelayCounter,std::less<unsigned __int64>,std::allocator<std::pair<unsigned __int64 const ,DRAMsimII::Statistics::DelayCounter> >,0> >::_Rmost, COMDAT
; _this$ = eax

; 1320 : 		return (_Right(_Myhead));

	mov	eax, DWORD PTR [eax+24]
	add	eax, 8

; 1321 : 		}

	ret	0
?_Rmost@?$_Tree@V?$_Tmap_traits@_KVDelayCounter@Statistics@DRAMsimII@@U?$less@_K@std@@V?$allocator@U?$pair@$$CB_KVDelayCounter@Statistics@DRAMsimII@@@std@@@5@$0A@@std@@@std@@IBEAAPAU_Node@?$_Tree_nod@V?$_Tmap_traits@_KVDelayCounter@Statistics@DRAMsimII@@U?$less@_K@std@@V?$allocator@U?$pair@$$CB_KVDelayCounter@Statistics@DRAMsimII@@@std@@@5@$0A@@std@@@2@XZ ENDP ; std::_Tree<std::_Tmap_traits<unsigned __int64,DRAMsimII::Statistics::DelayCounter,std::less<unsigned __int64>,std::allocator<std::pair<unsigned __int64 const ,DRAMsimII::Statistics::DelayCounter> >,0> >::_Rmost
; Function compile flags: /Ogtpy
_TEXT	ENDS
;	COMDAT ?_Min@?$_Tree@V?$_Tmap_traits@_KVDelayCounter@Statistics@DRAMsimII@@U?$less@_K@std@@V?$allocator@U?$pair@$$CB_KVDelayCounter@Statistics@DRAMsimII@@@std@@@5@$0A@@std@@@std@@KAPAU_Node@?$_Tree_nod@V?$_Tmap_traits@_KVDelayCounter@Statistics@DRAMsimII@@U?$less@_K@std@@V?$allocator@U?$pair@$$CB_KVDelayCounter@Statistics@DRAMsimII@@@std@@@5@$0A@@std@@@2@PAU342@@Z
_TEXT	SEGMENT
?_Min@?$_Tree@V?$_Tmap_traits@_KVDelayCounter@Statistics@DRAMsimII@@U?$less@_K@std@@V?$allocator@U?$pair@$$CB_KVDelayCounter@Statistics@DRAMsimII@@@std@@@5@$0A@@std@@@std@@KAPAU_Node@?$_Tree_nod@V?$_Tmap_traits@_KVDelayCounter@Statistics@DRAMsimII@@U?$less@_K@std@@V?$allocator@U?$pair@$$CB_KVDelayCounter@Statistics@DRAMsimII@@@std@@@5@$0A@@std@@@2@PAU342@@Z PROC ; std::_Tree<std::_Tmap_traits<unsigned __int64,DRAMsimII::Statistics::DelayCounter,std::less<unsigned __int64>,std::allocator<std::pair<unsigned __int64 const ,DRAMsimII::Statistics::DelayCounter> >,0> >::_Min, COMDAT
; __Pnode$ = eax

; 1313 : 		while (!_Isnil(_Left(_Pnode)))

	mov	ecx, DWORD PTR [eax]
	cmp	BYTE PTR [ecx+41], 0
	jne	SHORT $LN1@Min@6
$LL2@Min@6:

; 1314 : 			_Pnode = _Left(_Pnode);

	mov	eax, ecx
	mov	ecx, DWORD PTR [eax]
	cmp	BYTE PTR [ecx+41], 0
	je	SHORT $LL2@Min@6
$LN1@Min@6:

; 1315 : 		return (_Pnode);
; 1316 : 		}

	ret	0
?_Min@?$_Tree@V?$_Tmap_traits@_KVDelayCounter@Statistics@DRAMsimII@@U?$less@_K@std@@V?$allocator@U?$pair@$$CB_KVDelayCounter@Statistics@DRAMsimII@@@std@@@5@$0A@@std@@@std@@KAPAU_Node@?$_Tree_nod@V?$_Tmap_traits@_KVDelayCounter@Statistics@DRAMsimII@@U?$less@_K@std@@V?$allocator@U?$pair@$$CB_KVDelayCounter@Statistics@DRAMsimII@@@std@@@5@$0A@@std@@@2@PAU342@@Z ENDP ; std::_Tree<std::_Tmap_traits<unsigned __int64,DRAMsimII::Statistics::DelayCounter,std::less<unsigned __int64>,std::allocator<std::pair<unsigned __int64 const ,DRAMsimII::Statistics::DelayCounter> >,0> >::_Min
; Function compile flags: /Ogtpy
_TEXT	ENDS
;	COMDAT ?_Max@?$_Tree@V?$_Tmap_traits@_KVDelayCounter@Statistics@DRAMsimII@@U?$less@_K@std@@V?$allocator@U?$pair@$$CB_KVDelayCounter@Statistics@DRAMsimII@@@std@@@5@$0A@@std@@@std@@KAPAU_Node@?$_Tree_nod@V?$_Tmap_traits@_KVDelayCounter@Statistics@DRAMsimII@@U?$less@_K@std@@V?$allocator@U?$pair@$$CB_KVDelayCounter@Statistics@DRAMsimII@@@std@@@5@$0A@@std@@@2@PAU342@@Z
_TEXT	SEGMENT
?_Max@?$_Tree@V?$_Tmap_traits@_KVDelayCounter@Statistics@DRAMsimII@@U?$less@_K@std@@V?$allocator@U?$pair@$$CB_KVDelayCounter@Statistics@DRAMsimII@@@std@@@5@$0A@@std@@@std@@KAPAU_Node@?$_Tree_nod@V?$_Tmap_traits@_KVDelayCounter@Statistics@DRAMsimII@@U?$less@_K@std@@V?$allocator@U?$pair@$$CB_KVDelayCounter@Statistics@DRAMsimII@@@std@@@5@$0A@@std@@@2@PAU342@@Z PROC ; std::_Tree<std::_Tmap_traits<unsigned __int64,DRAMsimII::Statistics::DelayCounter,std::less<unsigned __int64>,std::allocator<std::pair<unsigned __int64 const ,DRAMsimII::Statistics::DelayCounter> >,0> >::_Max, COMDAT
; __Pnode$ = eax

; 1306 : 		while (!_Isnil(_Right(_Pnode)))

	mov	ecx, DWORD PTR [eax+8]
	cmp	BYTE PTR [ecx+41], 0
	jne	SHORT $LN1@Max@6
	npad	7
$LL2@Max@6:

; 1307 : 			_Pnode = _Right(_Pnode);

	mov	eax, ecx
	mov	ecx, DWORD PTR [eax+8]
	cmp	BYTE PTR [ecx+41], 0
	je	SHORT $LL2@Max@6
$LN1@Max@6:

; 1308 : 		return (_Pnode);
; 1309 : 		}

	ret	0
?_Max@?$_Tree@V?$_Tmap_traits@_KVDelayCounter@Statistics@DRAMsimII@@U?$less@_K@std@@V?$allocator@U?$pair@$$CB_KVDelayCounter@Statistics@DRAMsimII@@@std@@@5@$0A@@std@@@std@@KAPAU_Node@?$_Tree_nod@V?$_Tmap_traits@_KVDelayCounter@Statistics@DRAMsimII@@U?$less@_K@std@@V?$allocator@U?$pair@$$CB_KVDelayCounter@Statistics@DRAMsimII@@@std@@@5@$0A@@std@@@2@PAU342@@Z ENDP ; std::_Tree<std::_Tmap_traits<unsigned __int64,DRAMsimII::Statistics::DelayCounter,std::less<unsigned __int64>,std::allocator<std::pair<unsigned __int64 const ,DRAMsimII::Statistics::DelayCounter> >,0> >::_Max
; Function compile flags: /Ogtpy
_TEXT	ENDS
;	COMDAT ?_Lrotate@?$_Tree@V?$_Tmap_traits@_KVDelayCounter@Statistics@DRAMsimII@@U?$less@_K@std@@V?$allocator@U?$pair@$$CB_KVDelayCounter@Statistics@DRAMsimII@@@std@@@5@$0A@@std@@@std@@IAEXPAU_Node@?$_Tree_nod@V?$_Tmap_traits@_KVDelayCounter@Statistics@DRAMsimII@@U?$less@_K@std@@V?$allocator@U?$pair@$$CB_KVDelayCounter@Statistics@DRAMsimII@@@std@@@5@$0A@@std@@@2@@Z
_TEXT	SEGMENT
_this$ = 8						; size = 4
?_Lrotate@?$_Tree@V?$_Tmap_traits@_KVDelayCounter@Statistics@DRAMsimII@@U?$less@_K@std@@V?$allocator@U?$pair@$$CB_KVDelayCounter@Statistics@DRAMsimII@@@std@@@5@$0A@@std@@@std@@IAEXPAU_Node@?$_Tree_nod@V?$_Tmap_traits@_KVDelayCounter@Statistics@DRAMsimII@@U?$less@_K@std@@V?$allocator@U?$pair@$$CB_KVDelayCounter@Statistics@DRAMsimII@@@std@@@5@$0A@@std@@@2@@Z PROC ; std::_Tree<std::_Tmap_traits<unsigned __int64,DRAMsimII::Statistics::DelayCounter,std::less<unsigned __int64>,std::allocator<std::pair<unsigned __int64 const ,DRAMsimII::Statistics::DelayCounter> >,0> >::_Lrotate, COMDAT
; __Wherenode$ = ecx

; 1286 : 		_Nodeptr _Pnode = _Right(_Wherenode);

	mov	eax, DWORD PTR [ecx+8]

; 1287 : 		_Right(_Wherenode) = _Left(_Pnode);

	mov	edx, DWORD PTR [eax]
	mov	DWORD PTR [ecx+8], edx

; 1288 : 
; 1289 : 		if (!_Isnil(_Left(_Pnode)))

	mov	edx, DWORD PTR [eax]
	cmp	BYTE PTR [edx+41], 0
	jne	SHORT $LN5@Lrotate@3

; 1290 : 			_Parent(_Left(_Pnode)) = _Wherenode;

	mov	DWORD PTR [edx+4], ecx
$LN5@Lrotate@3:

; 1291 : 		_Parent(_Pnode) = _Parent(_Wherenode);

	mov	edx, DWORD PTR [ecx+4]
	mov	DWORD PTR [eax+4], edx

; 1292 : 
; 1293 : 		if (_Wherenode == _Root())

	mov	edx, DWORD PTR _this$[esp-4]
	mov	edx, DWORD PTR [edx+24]
	cmp	ecx, DWORD PTR [edx+4]
	jne	SHORT $LN4@Lrotate@3

; 1294 : 			_Root() = _Pnode;

	mov	DWORD PTR [edx+4], eax

; 1299 : 
; 1300 : 		_Left(_Pnode) = _Wherenode;

	mov	DWORD PTR [eax], ecx

; 1301 : 		_Parent(_Wherenode) = _Pnode;

	mov	DWORD PTR [ecx+4], eax

; 1302 : 		}

	ret	4
$LN4@Lrotate@3:

; 1295 : 		else if (_Wherenode == _Left(_Parent(_Wherenode)))

	mov	edx, DWORD PTR [ecx+4]
	cmp	ecx, DWORD PTR [edx]
	jne	SHORT $LN2@Lrotate@3

; 1296 : 			_Left(_Parent(_Wherenode)) = _Pnode;

	mov	DWORD PTR [edx], eax

; 1299 : 
; 1300 : 		_Left(_Pnode) = _Wherenode;

	mov	DWORD PTR [eax], ecx

; 1301 : 		_Parent(_Wherenode) = _Pnode;

	mov	DWORD PTR [ecx+4], eax

; 1302 : 		}

	ret	4
$LN2@Lrotate@3:

; 1297 : 		else
; 1298 : 			_Right(_Parent(_Wherenode)) = _Pnode;

	mov	DWORD PTR [edx+8], eax

; 1299 : 
; 1300 : 		_Left(_Pnode) = _Wherenode;

	mov	DWORD PTR [eax], ecx

; 1301 : 		_Parent(_Wherenode) = _Pnode;

	mov	DWORD PTR [ecx+4], eax

; 1302 : 		}

	ret	4
?_Lrotate@?$_Tree@V?$_Tmap_traits@_KVDelayCounter@Statistics@DRAMsimII@@U?$less@_K@std@@V?$allocator@U?$pair@$$CB_KVDelayCounter@Statistics@DRAMsimII@@@std@@@5@$0A@@std@@@std@@IAEXPAU_Node@?$_Tree_nod@V?$_Tmap_traits@_KVDelayCounter@Statistics@DRAMsimII@@U?$less@_K@std@@V?$allocator@U?$pair@$$CB_KVDelayCounter@Statistics@DRAMsimII@@@std@@@5@$0A@@std@@@2@@Z ENDP ; std::_Tree<std::_Tmap_traits<unsigned __int64,DRAMsimII::Statistics::DelayCounter,std::less<unsigned __int64>,std::allocator<std::pair<unsigned __int64 const ,DRAMsimII::Statistics::DelayCounter> >,0> >::_Lrotate
; Function compile flags: /Ogtpy
_TEXT	ENDS
;	COMDAT ?_Erase@?$_Tree@V?$_Tmap_traits@_KVDelayCounter@Statistics@DRAMsimII@@U?$less@_K@std@@V?$allocator@U?$pair@$$CB_KVDelayCounter@Statistics@DRAMsimII@@@std@@@5@$0A@@std@@@std@@IAEXPAU_Node@?$_Tree_nod@V?$_Tmap_traits@_KVDelayCounter@Statistics@DRAMsimII@@U?$less@_K@std@@V?$allocator@U?$pair@$$CB_KVDelayCounter@Statistics@DRAMsimII@@@std@@@5@$0A@@std@@@2@@Z
_TEXT	SEGMENT
__Rootnode$ = 8						; size = 4
?_Erase@?$_Tree@V?$_Tmap_traits@_KVDelayCounter@Statistics@DRAMsimII@@U?$less@_K@std@@V?$allocator@U?$pair@$$CB_KVDelayCounter@Statistics@DRAMsimII@@@std@@@5@$0A@@std@@@std@@IAEXPAU_Node@?$_Tree_nod@V?$_Tmap_traits@_KVDelayCounter@Statistics@DRAMsimII@@U?$less@_K@std@@V?$allocator@U?$pair@$$CB_KVDelayCounter@Statistics@DRAMsimII@@@std@@@5@$0A@@std@@@2@@Z PROC ; std::_Tree<std::_Tmap_traits<unsigned __int64,DRAMsimII::Statistics::DelayCounter,std::less<unsigned __int64>,std::allocator<std::pair<unsigned __int64 const ,DRAMsimII::Statistics::DelayCounter> >,0> >::_Erase, COMDAT
; _this$ = ecx

; 1166 : 		{	// free entire subtree, recursively

	push	ebx
	push	esi
	push	edi

; 1167 : 		for (_Nodeptr _Pnode = _Rootnode; !_Isnil(_Pnode); _Rootnode = _Pnode)

	mov	edi, DWORD PTR __Rootnode$[esp+8]
	cmp	BYTE PTR [edi+41], 0
	mov	ebx, ecx
	mov	esi, edi
	jne	SHORT $LN1@Erase@2
$LL3@Erase@2:

; 1168 : 			{	// free subtrees, then node
; 1169 : 			_Erase(_Right(_Pnode));

	mov	eax, DWORD PTR [esi+8]
	push	eax
	mov	ecx, ebx
	call	?_Erase@?$_Tree@V?$_Tmap_traits@_KVDelayCounter@Statistics@DRAMsimII@@U?$less@_K@std@@V?$allocator@U?$pair@$$CB_KVDelayCounter@Statistics@DRAMsimII@@@std@@@5@$0A@@std@@@std@@IAEXPAU_Node@?$_Tree_nod@V?$_Tmap_traits@_KVDelayCounter@Statistics@DRAMsimII@@U?$less@_K@std@@V?$allocator@U?$pair@$$CB_KVDelayCounter@Statistics@DRAMsimII@@@std@@@5@$0A@@std@@@2@@Z ; std::_Tree<std::_Tmap_traits<unsigned __int64,DRAMsimII::Statistics::DelayCounter,std::less<unsigned __int64>,std::allocator<std::pair<unsigned __int64 const ,DRAMsimII::Statistics::DelayCounter> >,0> >::_Erase

; 1170 : 			_Pnode = _Left(_Pnode);

	mov	esi, DWORD PTR [esi]

; 1171 : 			this->_Alnod.destroy(_Rootnode);	// destroy, free erased node
; 1172 : 			this->_Alnod.deallocate(_Rootnode, 1);

	push	edi
	call	??3@YAXPAX@Z				; operator delete
	add	esp, 4
	cmp	BYTE PTR [esi+41], 0
	mov	edi, esi
	je	SHORT $LL3@Erase@2
$LN1@Erase@2:
	pop	edi
	pop	esi
	pop	ebx

; 1173 : 			}
; 1174 : 		}

	ret	4
?_Erase@?$_Tree@V?$_Tmap_traits@_KVDelayCounter@Statistics@DRAMsimII@@U?$less@_K@std@@V?$allocator@U?$pair@$$CB_KVDelayCounter@Statistics@DRAMsimII@@@std@@@5@$0A@@std@@@std@@IAEXPAU_Node@?$_Tree_nod@V?$_Tmap_traits@_KVDelayCounter@Statistics@DRAMsimII@@U?$less@_K@std@@V?$allocator@U?$pair@$$CB_KVDelayCounter@Statistics@DRAMsimII@@@std@@@5@$0A@@std@@@2@@Z ENDP ; std::_Tree<std::_Tmap_traits<unsigned __int64,DRAMsimII::Statistics::DelayCounter,std::less<unsigned __int64>,std::allocator<std::pair<unsigned __int64 const ,DRAMsimII::Statistics::DelayCounter> >,0> >::_Erase
; Function compile flags: /Ogtpy
_TEXT	ENDS
;	COMDAT ??8const_iterator@?$_Tree@V?$_Tmap_traits@_KIU?$less@_K@std@@V?$allocator@U?$pair@$$CB_KI@std@@@2@$0A@@std@@@std@@QBE_NABV012@@Z
_TEXT	SEGMENT
??8const_iterator@?$_Tree@V?$_Tmap_traits@_KIU?$less@_K@std@@V?$allocator@U?$pair@$$CB_KI@std@@@2@$0A@@std@@@std@@QBE_NABV012@@Z PROC ; std::_Tree<std::_Tmap_traits<unsigned __int64,unsigned int,std::less<unsigned __int64>,std::allocator<std::pair<unsigned __int64 const ,unsigned int> >,0> >::const_iterator::operator==, COMDAT
; _this$ = edi
; __Right$ = esi

; 300  : 
; 301  :  #if _HAS_ITERATOR_DEBUGGING
; 302  : 			if (this->_Mycont == 0 || this->_Mycont != _Right._Mycont)
; 303  : 				{
; 304  : 				_DEBUG_ERROR("map/set iterators incompatible");
; 305  : 				_SCL_SECURE_INVALID_ARGUMENT;
; 306  : 				}
; 307  :  #else
; 308  : 			_SCL_SECURE_VALIDATE(this->_Has_container() && this->_Same_container(_Right));

	mov	eax, DWORD PTR [edi]
	test	eax, eax
	je	SHORT $LN1@operator@85
	cmp	eax, DWORD PTR [esi]
	je	SHORT $LN2@operator@85
$LN1@operator@85:
	call	__invalid_parameter_noinfo
$LN2@operator@85:

; 309  :  #endif /* _HAS_ITERATOR_DEBUGGING */
; 310  : 
; 311  : 			return (_Ptr == _Right._Ptr);

	mov	eax, DWORD PTR [edi+4]
	xor	ecx, ecx
	cmp	eax, DWORD PTR [esi+4]
	sete	cl
	mov	al, cl

; 312  : 			}

	ret	0
??8const_iterator@?$_Tree@V?$_Tmap_traits@_KIU?$less@_K@std@@V?$allocator@U?$pair@$$CB_KI@std@@@2@$0A@@std@@@std@@QBE_NABV012@@Z ENDP ; std::_Tree<std::_Tmap_traits<unsigned __int64,unsigned int,std::less<unsigned __int64>,std::allocator<std::pair<unsigned __int64 const ,unsigned int> >,0> >::const_iterator::operator==
; Function compile flags: /Ogtpy
_TEXT	ENDS
;	COMDAT ??0iterator@?$_Tree@V?$_Tmap_traits@_KIU?$less@_K@std@@V?$allocator@U?$pair@$$CB_KI@std@@@2@$0A@@std@@@std@@QAE@PAU_Node@?$_Tree_nod@V?$_Tmap_traits@_KIU?$less@_K@std@@V?$allocator@U?$pair@$$CB_KI@std@@@2@$0A@@std@@@2@PBV12@@Z
_TEXT	SEGMENT
??0iterator@?$_Tree@V?$_Tmap_traits@_KIU?$less@_K@std@@V?$allocator@U?$pair@$$CB_KI@std@@@2@$0A@@std@@@std@@QAE@PAU_Node@?$_Tree_nod@V?$_Tmap_traits@_KIU?$less@_K@std@@V?$allocator@U?$pair@$$CB_KI@std@@@2@$0A@@std@@@2@PBV12@@Z PROC ; std::_Tree<std::_Tmap_traits<unsigned __int64,unsigned int,std::less<unsigned __int64>,std::allocator<std::pair<unsigned __int64 const ,unsigned int> >,0> >::iterator::iterator, COMDAT
; _this$ = esi
; __Pnode$ = eax
; __Plist$ = edi

; 451  : 			{	// construct with node pointer _Pnode

	mov	DWORD PTR [esi], 0
	mov	DWORD PTR [esi+4], eax
	test	edi, edi
	jne	SHORT $LN3@iterator@4
	call	__invalid_parameter_noinfo
$LN3@iterator@4:
	mov	ecx, DWORD PTR [edi]
	mov	DWORD PTR [esi], ecx

; 452  : 			}

	mov	eax, esi
	ret	0
??0iterator@?$_Tree@V?$_Tmap_traits@_KIU?$less@_K@std@@V?$allocator@U?$pair@$$CB_KI@std@@@2@$0A@@std@@@std@@QAE@PAU_Node@?$_Tree_nod@V?$_Tmap_traits@_KIU?$less@_K@std@@V?$allocator@U?$pair@$$CB_KI@std@@@2@$0A@@std@@@2@PBV12@@Z ENDP ; std::_Tree<std::_Tmap_traits<unsigned __int64,unsigned int,std::less<unsigned __int64>,std::allocator<std::pair<unsigned __int64 const ,unsigned int> >,0> >::iterator::iterator
; Function compile flags: /Ogtpy
_TEXT	ENDS
;	COMDAT ??8const_iterator@?$_Tree@V?$_Tmap_traits@_KVDelayCounter@Statistics@DRAMsimII@@U?$less@_K@std@@V?$allocator@U?$pair@$$CB_KVDelayCounter@Statistics@DRAMsimII@@@std@@@5@$0A@@std@@@std@@QBE_NABV012@@Z
_TEXT	SEGMENT
??8const_iterator@?$_Tree@V?$_Tmap_traits@_KVDelayCounter@Statistics@DRAMsimII@@U?$less@_K@std@@V?$allocator@U?$pair@$$CB_KVDelayCounter@Statistics@DRAMsimII@@@std@@@5@$0A@@std@@@std@@QBE_NABV012@@Z PROC ; std::_Tree<std::_Tmap_traits<unsigned __int64,DRAMsimII::Statistics::DelayCounter,std::less<unsigned __int64>,std::allocator<std::pair<unsigned __int64 const ,DRAMsimII::Statistics::DelayCounter> >,0> >::const_iterator::operator==, COMDAT
; _this$ = edi
; __Right$ = esi

; 300  : 
; 301  :  #if _HAS_ITERATOR_DEBUGGING
; 302  : 			if (this->_Mycont == 0 || this->_Mycont != _Right._Mycont)
; 303  : 				{
; 304  : 				_DEBUG_ERROR("map/set iterators incompatible");
; 305  : 				_SCL_SECURE_INVALID_ARGUMENT;
; 306  : 				}
; 307  :  #else
; 308  : 			_SCL_SECURE_VALIDATE(this->_Has_container() && this->_Same_container(_Right));

	mov	eax, DWORD PTR [edi]
	test	eax, eax
	je	SHORT $LN1@operator@86
	cmp	eax, DWORD PTR [esi]
	je	SHORT $LN2@operator@86
$LN1@operator@86:
	call	__invalid_parameter_noinfo
$LN2@operator@86:

; 309  :  #endif /* _HAS_ITERATOR_DEBUGGING */
; 310  : 
; 311  : 			return (_Ptr == _Right._Ptr);

	mov	eax, DWORD PTR [edi+4]
	xor	ecx, ecx
	cmp	eax, DWORD PTR [esi+4]
	sete	cl
	mov	al, cl

; 312  : 			}

	ret	0
??8const_iterator@?$_Tree@V?$_Tmap_traits@_KVDelayCounter@Statistics@DRAMsimII@@U?$less@_K@std@@V?$allocator@U?$pair@$$CB_KVDelayCounter@Statistics@DRAMsimII@@@std@@@5@$0A@@std@@@std@@QBE_NABV012@@Z ENDP ; std::_Tree<std::_Tmap_traits<unsigned __int64,DRAMsimII::Statistics::DelayCounter,std::less<unsigned __int64>,std::allocator<std::pair<unsigned __int64 const ,DRAMsimII::Statistics::DelayCounter> >,0> >::const_iterator::operator==
; Function compile flags: /Ogtpy
_TEXT	ENDS
;	COMDAT ??0iterator@?$_Tree@V?$_Tmap_traits@_KVDelayCounter@Statistics@DRAMsimII@@U?$less@_K@std@@V?$allocator@U?$pair@$$CB_KVDelayCounter@Statistics@DRAMsimII@@@std@@@5@$0A@@std@@@std@@QAE@PAU_Node@?$_Tree_nod@V?$_Tmap_traits@_KVDelayCounter@Statistics@DRAMsimII@@U?$less@_K@std@@V?$allocator@U?$pair@$$CB_KVDelayCounter@Statistics@DRAMsimII@@@std@@@5@$0A@@std@@@2@PBV12@@Z
_TEXT	SEGMENT
??0iterator@?$_Tree@V?$_Tmap_traits@_KVDelayCounter@Statistics@DRAMsimII@@U?$less@_K@std@@V?$allocator@U?$pair@$$CB_KVDelayCounter@Statistics@DRAMsimII@@@std@@@5@$0A@@std@@@std@@QAE@PAU_Node@?$_Tree_nod@V?$_Tmap_traits@_KVDelayCounter@Statistics@DRAMsimII@@U?$less@_K@std@@V?$allocator@U?$pair@$$CB_KVDelayCounter@Statistics@DRAMsimII@@@std@@@5@$0A@@std@@@2@PBV12@@Z PROC ; std::_Tree<std::_Tmap_traits<unsigned __int64,DRAMsimII::Statistics::DelayCounter,std::less<unsigned __int64>,std::allocator<std::pair<unsigned __int64 const ,DRAMsimII::Statistics::DelayCounter> >,0> >::iterator::iterator, COMDAT
; _this$ = esi
; __Pnode$ = eax
; __Plist$ = edi

; 451  : 			{	// construct with node pointer _Pnode

	mov	DWORD PTR [esi], 0
	mov	DWORD PTR [esi+4], eax
	test	edi, edi
	jne	SHORT $LN3@iterator@5
	call	__invalid_parameter_noinfo
$LN3@iterator@5:
	mov	ecx, DWORD PTR [edi]
	mov	DWORD PTR [esi], ecx

; 452  : 			}

	mov	eax, esi
	ret	0
??0iterator@?$_Tree@V?$_Tmap_traits@_KVDelayCounter@Statistics@DRAMsimII@@U?$less@_K@std@@V?$allocator@U?$pair@$$CB_KVDelayCounter@Statistics@DRAMsimII@@@std@@@5@$0A@@std@@@std@@QAE@PAU_Node@?$_Tree_nod@V?$_Tmap_traits@_KVDelayCounter@Statistics@DRAMsimII@@U?$less@_K@std@@V?$allocator@U?$pair@$$CB_KVDelayCounter@Statistics@DRAMsimII@@@std@@@5@$0A@@std@@@2@PBV12@@Z ENDP ; std::_Tree<std::_Tmap_traits<unsigned __int64,DRAMsimII::Statistics::DelayCounter,std::less<unsigned __int64>,std::allocator<std::pair<unsigned __int64 const ,DRAMsimII::Statistics::DelayCounter> >,0> >::iterator::iterator
; Function compile flags: /Ogtpy
; File c:\program files\microsoft visual studio 9.0\vc\include\xmemory
_TEXT	ENDS
;	COMDAT ?allocate@?$allocator@VfbdChannel@DRAMsimII@@@std@@QAEPAVfbdChannel@DRAMsimII@@I@Z
_TEXT	SEGMENT
$T335793 = -16						; size = 4
$T335799 = -12						; size = 12
?allocate@?$allocator@VfbdChannel@DRAMsimII@@@std@@QAEPAVfbdChannel@DRAMsimII@@I@Z PROC ; std::allocator<DRAMsimII::fbdChannel>::allocate, COMDAT
; __Count$ = ecx

; 144  : 		{	// allocate array of _Count elements

	sub	esp, 16					; 00000010H

; 145  : 		return (_Allocate(_Count, (pointer)0));

	test	ecx, ecx
	ja	SHORT $LN5@allocate@6
	xor	ecx, ecx
$LN3@allocate@6:
	imul	ecx, 464				; 000001d0H
	push	ecx
	call	??2@YAPAXI@Z				; operator new
	add	esp, 4

; 146  : 		}

	add	esp, 16					; 00000010H
	ret	0

; 145  : 		return (_Allocate(_Count, (pointer)0));

$LN5@allocate@6:
	or	eax, -1
	xor	edx, edx
	div	ecx
	cmp	eax, 464				; 000001d0H
	jae	SHORT $LN3@allocate@6
	lea	eax, DWORD PTR $T335793[esp+16]
	push	eax
	lea	ecx, DWORD PTR $T335799[esp+20]
	mov	DWORD PTR $T335793[esp+20], 0
	call	??0exception@std@@QAE@ABQBD@Z		; std::exception::exception
	push	OFFSET __TI2?AVbad_alloc@std@@
	lea	ecx, DWORD PTR $T335799[esp+20]
	push	ecx
	mov	DWORD PTR $T335799[esp+24], OFFSET ??_7bad_alloc@std@@6B@
	call	__CxxThrowException@8
$LN12@allocate@6:
$LN11@allocate@6:
	int	3
?allocate@?$allocator@VfbdChannel@DRAMsimII@@@std@@QAEPAVfbdChannel@DRAMsimII@@I@Z ENDP ; std::allocator<DRAMsimII::fbdChannel>::allocate
; Function compile flags: /Ogtpy
; File c:\program files\microsoft visual studio 9.0\vc\include\xtree
_TEXT	ENDS
;	COMDAT ?_Lmost@?$_Tree@V?$_Tmap_traits@_KIU?$less@_K@std@@V?$allocator@U?$pair@$$CB_KI@std@@@2@$0A@@std@@@std@@IBEAAPAU_Node@?$_Tree_nod@V?$_Tmap_traits@_KIU?$less@_K@std@@V?$allocator@U?$pair@$$CB_KI@std@@@2@$0A@@std@@@2@XZ
_TEXT	SEGMENT
?_Lmost@?$_Tree@V?$_Tmap_traits@_KIU?$less@_K@std@@V?$allocator@U?$pair@$$CB_KI@std@@@2@$0A@@std@@@std@@IBEAAPAU_Node@?$_Tree_nod@V?$_Tmap_traits@_KIU?$less@_K@std@@V?$allocator@U?$pair@$$CB_KI@std@@@2@$0A@@std@@@2@XZ PROC ; std::_Tree<std::_Tmap_traits<unsigned __int64,unsigned int,std::less<unsigned __int64>,std::allocator<std::pair<unsigned __int64 const ,unsigned int> >,0> >::_Lmost, COMDAT
; _this$ = eax

; 1281 : 		return (_Left(_Myhead));

	mov	eax, DWORD PTR [eax+24]

; 1282 : 		}

	ret	0
?_Lmost@?$_Tree@V?$_Tmap_traits@_KIU?$less@_K@std@@V?$allocator@U?$pair@$$CB_KI@std@@@2@$0A@@std@@@std@@IBEAAPAU_Node@?$_Tree_nod@V?$_Tmap_traits@_KIU?$less@_K@std@@V?$allocator@U?$pair@$$CB_KI@std@@@2@$0A@@std@@@2@XZ ENDP ; std::_Tree<std::_Tmap_traits<unsigned __int64,unsigned int,std::less<unsigned __int64>,std::allocator<std::pair<unsigned __int64 const ,unsigned int> >,0> >::_Lmost
; Function compile flags: /Ogtpy
_TEXT	ENDS
;	COMDAT ?clear@?$_Tree@V?$_Tmap_traits@_KIU?$less@_K@std@@V?$allocator@U?$pair@$$CB_KI@std@@@2@$0A@@std@@@std@@QAEXXZ
_TEXT	SEGMENT
?clear@?$_Tree@V?$_Tmap_traits@_KIU?$less@_K@std@@V?$allocator@U?$pair@$$CB_KI@std@@@2@$0A@@std@@@std@@QAEXXZ PROC ; std::_Tree<std::_Tmap_traits<unsigned __int64,unsigned int,std::less<unsigned __int64>,std::allocator<std::pair<unsigned __int64 const ,unsigned int> >,0> >::clear, COMDAT
; _this$ = eax

; 965  : 		{	// erase all

	push	esi
	mov	esi, eax

; 966  : 
; 967  :  #if _HAS_ITERATOR_DEBUGGING
; 968  : 		this->_Orphan_ptr(*this, 0);
; 969  :  #endif /* _HAS_ITERATOR_DEBUGGING */
; 970  : 
; 971  : 		_Erase(_Root());

	mov	eax, DWORD PTR [esi+24]
	mov	ecx, DWORD PTR [eax+4]
	push	ecx
	mov	ecx, esi
	call	?_Erase@?$_Tree@V?$_Tmap_traits@_KIU?$less@_K@std@@V?$allocator@U?$pair@$$CB_KI@std@@@2@$0A@@std@@@std@@IAEXPAU_Node@?$_Tree_nod@V?$_Tmap_traits@_KIU?$less@_K@std@@V?$allocator@U?$pair@$$CB_KI@std@@@2@$0A@@std@@@2@@Z ; std::_Tree<std::_Tmap_traits<unsigned __int64,unsigned int,std::less<unsigned __int64>,std::allocator<std::pair<unsigned __int64 const ,unsigned int> >,0> >::_Erase

; 972  : 		_Root() = _Myhead, _Mysize = 0;

	mov	eax, DWORD PTR [esi+24]
	mov	DWORD PTR [eax+4], eax

; 973  : 		_Lmost() = _Myhead, _Rmost() = _Myhead;

	mov	eax, DWORD PTR [esi+24]
	mov	DWORD PTR [esi+28], 0
	mov	DWORD PTR [eax], eax
	mov	esi, DWORD PTR [esi+24]
	mov	DWORD PTR [esi+8], esi
	pop	esi

; 974  : 		}

	ret	0
?clear@?$_Tree@V?$_Tmap_traits@_KIU?$less@_K@std@@V?$allocator@U?$pair@$$CB_KI@std@@@2@$0A@@std@@@std@@QAEXXZ ENDP ; std::_Tree<std::_Tmap_traits<unsigned __int64,unsigned int,std::less<unsigned __int64>,std::allocator<std::pair<unsigned __int64 const ,unsigned int> >,0> >::clear
; Function compile flags: /Ogtpy
_TEXT	ENDS
;	COMDAT ?_Make_iter@?$_Tree@V?$_Tmap_traits@_KIU?$less@_K@std@@V?$allocator@U?$pair@$$CB_KI@std@@@2@$0A@@std@@@std@@QBE?AViterator@12@Vconst_iterator@12@@Z
_TEXT	SEGMENT
__Where$ = 8						; size = 8
?_Make_iter@?$_Tree@V?$_Tmap_traits@_KIU?$less@_K@std@@V?$allocator@U?$pair@$$CB_KI@std@@@2@$0A@@std@@@std@@QBE?AViterator@12@Vconst_iterator@12@@Z PROC ; std::_Tree<std::_Tmap_traits<unsigned __int64,unsigned int,std::less<unsigned __int64>,std::allocator<std::pair<unsigned __int64 const ,unsigned int> >,0> >::_Make_iter, COMDAT
; _this$ = edi
; ___$ReturnUdt$ = esi

; 575  : 		{	// make iterator from const_iterator

	push	ebx

; 576  : 		return (iterator(_TREE_ITERATOR(_Where._Ptr)));

	mov	ebx, DWORD PTR __Where$[esp+4]
	test	edi, edi
	jne	SHORT $LN5@Make_iter@5
	call	__invalid_parameter_noinfo
$LN5@Make_iter@5:
	mov	eax, DWORD PTR [edi]
	mov	DWORD PTR [esi], eax
	mov	DWORD PTR [esi+4], ebx
	mov	eax, esi

; 577  : 		}

	pop	ebx
	ret	8
?_Make_iter@?$_Tree@V?$_Tmap_traits@_KIU?$less@_K@std@@V?$allocator@U?$pair@$$CB_KI@std@@@2@$0A@@std@@@std@@QBE?AViterator@12@Vconst_iterator@12@@Z ENDP ; std::_Tree<std::_Tmap_traits<unsigned __int64,unsigned int,std::less<unsigned __int64>,std::allocator<std::pair<unsigned __int64 const ,unsigned int> >,0> >::_Make_iter
; Function compile flags: /Ogtpy
_TEXT	ENDS
;	COMDAT ?_Lmost@?$_Tree@V?$_Tmap_traits@_KVDelayCounter@Statistics@DRAMsimII@@U?$less@_K@std@@V?$allocator@U?$pair@$$CB_KVDelayCounter@Statistics@DRAMsimII@@@std@@@5@$0A@@std@@@std@@IBEAAPAU_Node@?$_Tree_nod@V?$_Tmap_traits@_KVDelayCounter@Statistics@DRAMsimII@@U?$less@_K@std@@V?$allocator@U?$pair@$$CB_KVDelayCounter@Statistics@DRAMsimII@@@std@@@5@$0A@@std@@@2@XZ
_TEXT	SEGMENT
?_Lmost@?$_Tree@V?$_Tmap_traits@_KVDelayCounter@Statistics@DRAMsimII@@U?$less@_K@std@@V?$allocator@U?$pair@$$CB_KVDelayCounter@Statistics@DRAMsimII@@@std@@@5@$0A@@std@@@std@@IBEAAPAU_Node@?$_Tree_nod@V?$_Tmap_traits@_KVDelayCounter@Statistics@DRAMsimII@@U?$less@_K@std@@V?$allocator@U?$pair@$$CB_KVDelayCounter@Statistics@DRAMsimII@@@std@@@5@$0A@@std@@@2@XZ PROC ; std::_Tree<std::_Tmap_traits<unsigned __int64,DRAMsimII::Statistics::DelayCounter,std::less<unsigned __int64>,std::allocator<std::pair<unsigned __int64 const ,DRAMsimII::Statistics::DelayCounter> >,0> >::_Lmost, COMDAT
; _this$ = eax

; 1281 : 		return (_Left(_Myhead));

	mov	eax, DWORD PTR [eax+24]

; 1282 : 		}

	ret	0
?_Lmost@?$_Tree@V?$_Tmap_traits@_KVDelayCounter@Statistics@DRAMsimII@@U?$less@_K@std@@V?$allocator@U?$pair@$$CB_KVDelayCounter@Statistics@DRAMsimII@@@std@@@5@$0A@@std@@@std@@IBEAAPAU_Node@?$_Tree_nod@V?$_Tmap_traits@_KVDelayCounter@Statistics@DRAMsimII@@U?$less@_K@std@@V?$allocator@U?$pair@$$CB_KVDelayCounter@Statistics@DRAMsimII@@@std@@@5@$0A@@std@@@2@XZ ENDP ; std::_Tree<std::_Tmap_traits<unsigned __int64,DRAMsimII::Statistics::DelayCounter,std::less<unsigned __int64>,std::allocator<std::pair<unsigned __int64 const ,DRAMsimII::Statistics::DelayCounter> >,0> >::_Lmost
; Function compile flags: /Ogtpy
_TEXT	ENDS
;	COMDAT ?clear@?$_Tree@V?$_Tmap_traits@_KVDelayCounter@Statistics@DRAMsimII@@U?$less@_K@std@@V?$allocator@U?$pair@$$CB_KVDelayCounter@Statistics@DRAMsimII@@@std@@@5@$0A@@std@@@std@@QAEXXZ
_TEXT	SEGMENT
?clear@?$_Tree@V?$_Tmap_traits@_KVDelayCounter@Statistics@DRAMsimII@@U?$less@_K@std@@V?$allocator@U?$pair@$$CB_KVDelayCounter@Statistics@DRAMsimII@@@std@@@5@$0A@@std@@@std@@QAEXXZ PROC ; std::_Tree<std::_Tmap_traits<unsigned __int64,DRAMsimII::Statistics::DelayCounter,std::less<unsigned __int64>,std::allocator<std::pair<unsigned __int64 const ,DRAMsimII::Statistics::DelayCounter> >,0> >::clear, COMDAT
; _this$ = eax

; 965  : 		{	// erase all

	push	esi
	mov	esi, eax

; 966  : 
; 967  :  #if _HAS_ITERATOR_DEBUGGING
; 968  : 		this->_Orphan_ptr(*this, 0);
; 969  :  #endif /* _HAS_ITERATOR_DEBUGGING */
; 970  : 
; 971  : 		_Erase(_Root());

	mov	eax, DWORD PTR [esi+24]
	mov	ecx, DWORD PTR [eax+4]
	push	ecx
	mov	ecx, esi
	call	?_Erase@?$_Tree@V?$_Tmap_traits@_KVDelayCounter@Statistics@DRAMsimII@@U?$less@_K@std@@V?$allocator@U?$pair@$$CB_KVDelayCounter@Statistics@DRAMsimII@@@std@@@5@$0A@@std@@@std@@IAEXPAU_Node@?$_Tree_nod@V?$_Tmap_traits@_KVDelayCounter@Statistics@DRAMsimII@@U?$less@_K@std@@V?$allocator@U?$pair@$$CB_KVDelayCounter@Statistics@DRAMsimII@@@std@@@5@$0A@@std@@@2@@Z ; std::_Tree<std::_Tmap_traits<unsigned __int64,DRAMsimII::Statistics::DelayCounter,std::less<unsigned __int64>,std::allocator<std::pair<unsigned __int64 const ,DRAMsimII::Statistics::DelayCounter> >,0> >::_Erase

; 972  : 		_Root() = _Myhead, _Mysize = 0;

	mov	eax, DWORD PTR [esi+24]
	mov	DWORD PTR [eax+4], eax

; 973  : 		_Lmost() = _Myhead, _Rmost() = _Myhead;

	mov	eax, DWORD PTR [esi+24]
	mov	DWORD PTR [esi+28], 0
	mov	DWORD PTR [eax], eax
	mov	esi, DWORD PTR [esi+24]
	mov	DWORD PTR [esi+8], esi
	pop	esi

; 974  : 		}

	ret	0
?clear@?$_Tree@V?$_Tmap_traits@_KVDelayCounter@Statistics@DRAMsimII@@U?$less@_K@std@@V?$allocator@U?$pair@$$CB_KVDelayCounter@Statistics@DRAMsimII@@@std@@@5@$0A@@std@@@std@@QAEXXZ ENDP ; std::_Tree<std::_Tmap_traits<unsigned __int64,DRAMsimII::Statistics::DelayCounter,std::less<unsigned __int64>,std::allocator<std::pair<unsigned __int64 const ,DRAMsimII::Statistics::DelayCounter> >,0> >::clear
; Function compile flags: /Ogtpy
_TEXT	ENDS
;	COMDAT ?_Make_iter@?$_Tree@V?$_Tmap_traits@_KVDelayCounter@Statistics@DRAMsimII@@U?$less@_K@std@@V?$allocator@U?$pair@$$CB_KVDelayCounter@Statistics@DRAMsimII@@@std@@@5@$0A@@std@@@std@@QBE?AViterator@12@Vconst_iterator@12@@Z
_TEXT	SEGMENT
__Where$ = 8						; size = 8
?_Make_iter@?$_Tree@V?$_Tmap_traits@_KVDelayCounter@Statistics@DRAMsimII@@U?$less@_K@std@@V?$allocator@U?$pair@$$CB_KVDelayCounter@Statistics@DRAMsimII@@@std@@@5@$0A@@std@@@std@@QBE?AViterator@12@Vconst_iterator@12@@Z PROC ; std::_Tree<std::_Tmap_traits<unsigned __int64,DRAMsimII::Statistics::DelayCounter,std::less<unsigned __int64>,std::allocator<std::pair<unsigned __int64 const ,DRAMsimII::Statistics::DelayCounter> >,0> >::_Make_iter, COMDAT
; _this$ = edi
; ___$ReturnUdt$ = esi

; 575  : 		{	// make iterator from const_iterator

	push	ebx

; 576  : 		return (iterator(_TREE_ITERATOR(_Where._Ptr)));

	mov	ebx, DWORD PTR __Where$[esp+4]
	test	edi, edi
	jne	SHORT $LN5@Make_iter@6
	call	__invalid_parameter_noinfo
$LN5@Make_iter@6:
	mov	eax, DWORD PTR [edi]
	mov	DWORD PTR [esi], eax
	mov	DWORD PTR [esi+4], ebx
	mov	eax, esi

; 577  : 		}

	pop	ebx
	ret	8
?_Make_iter@?$_Tree@V?$_Tmap_traits@_KVDelayCounter@Statistics@DRAMsimII@@U?$less@_K@std@@V?$allocator@U?$pair@$$CB_KVDelayCounter@Statistics@DRAMsimII@@@std@@@5@$0A@@std@@@std@@QBE?AViterator@12@Vconst_iterator@12@@Z ENDP ; std::_Tree<std::_Tmap_traits<unsigned __int64,DRAMsimII::Statistics::DelayCounter,std::less<unsigned __int64>,std::allocator<std::pair<unsigned __int64 const ,DRAMsimII::Statistics::DelayCounter> >,0> >::_Make_iter
; Function compile flags: /Ogtpy
; File c:\program files\microsoft visual studio 9.0\vc\include\list
_TEXT	ENDS
;	COMDAT ?clear@?$list@U?$pair@$$CBII@std@@V?$allocator@U?$pair@$$CBII@std@@@2@@std@@QAEXXZ
_TEXT	SEGMENT
?clear@?$list@U?$pair@$$CBII@std@@V?$allocator@U?$pair@$$CBII@std@@@2@@std@@QAEXXZ PROC ; std::list<std::pair<unsigned int const ,unsigned int>,std::allocator<std::pair<unsigned int const ,unsigned int> > >::clear, COMDAT
; _this$ = esi

; 826  : 
; 827  :  #if _HAS_ITERATOR_DEBUGGING
; 828  : 		this->_Orphan_ptr(*this, 0);
; 829  :  #endif /* _HAS_ITERATOR_DEBUGGING */
; 830  : 
; 831  : 		_Nodeptr _Pnext;
; 832  : 		_Nodeptr _Pnode = _Nextnode(_Myhead);

	mov	ecx, DWORD PTR [esi+20]
	mov	eax, DWORD PTR [ecx]

; 833  : 		_Nextnode(_Myhead) = _Myhead;

	mov	DWORD PTR [ecx], ecx

; 834  : 		_Prevnode(_Myhead) = _Myhead;

	mov	ecx, DWORD PTR [esi+20]
	mov	DWORD PTR [ecx+4], ecx

; 835  : 		_Mysize = 0;

	mov	DWORD PTR [esi+24], 0

; 836  : 
; 837  : 		for (; _Pnode != _Myhead; _Pnode = _Pnext)

	cmp	eax, DWORD PTR [esi+20]
	je	SHORT $LN1@clear@11
	push	edi
	npad	6
$LL3@clear@11:

; 838  : 			{	// delete an element
; 839  : 			_Pnext = _Nextnode(_Pnode);

	mov	edi, DWORD PTR [eax]

; 840  : 			this->_Alnod.destroy(_Pnode);
; 841  : 			this->_Alnod.deallocate(_Pnode, 1);

	push	eax
	call	??3@YAXPAX@Z				; operator delete
	add	esp, 4
	mov	eax, edi
	cmp	edi, DWORD PTR [esi+20]
	jne	SHORT $LL3@clear@11
	pop	edi
$LN1@clear@11:

; 842  : 			}
; 843  : 		}

	ret	0
?clear@?$list@U?$pair@$$CBII@std@@V?$allocator@U?$pair@$$CBII@std@@@2@@std@@QAEXXZ ENDP ; std::list<std::pair<unsigned int const ,unsigned int>,std::allocator<std::pair<unsigned int const ,unsigned int> > >::clear
; Function compile flags: /Ogtpy
; File c:\program files\microsoft visual studio 9.0\vc\include\xtree
_TEXT	ENDS
;	COMDAT ?end@?$_Tree@V?$_Tmap_traits@_KIU?$less@_K@std@@V?$allocator@U?$pair@$$CB_KI@std@@@2@$0A@@std@@@std@@QAE?AViterator@12@XZ
_TEXT	SEGMENT
?end@?$_Tree@V?$_Tmap_traits@_KIU?$less@_K@std@@V?$allocator@U?$pair@$$CB_KI@std@@@2@$0A@@std@@@std@@QAE?AViterator@12@XZ PROC ; std::_Tree<std::_Tmap_traits<unsigned __int64,unsigned int,std::less<unsigned __int64>,std::allocator<std::pair<unsigned __int64 const ,unsigned int> >,0> >::end, COMDAT
; _this$ = ecx
; ___$ReturnUdt$ = eax

; 566  : 		return (_TREE_ITERATOR(_Myhead));

	mov	edx, DWORD PTR [ecx+24]
	mov	ecx, DWORD PTR [ecx]
	mov	DWORD PTR [eax+4], edx
	mov	DWORD PTR [eax], ecx

; 567  : 		}

	ret	0
?end@?$_Tree@V?$_Tmap_traits@_KIU?$less@_K@std@@V?$allocator@U?$pair@$$CB_KI@std@@@2@$0A@@std@@@std@@QAE?AViterator@12@XZ ENDP ; std::_Tree<std::_Tmap_traits<unsigned __int64,unsigned int,std::less<unsigned __int64>,std::allocator<std::pair<unsigned __int64 const ,unsigned int> >,0> >::end
; Function compile flags: /Ogtpy
_TEXT	ENDS
;	COMDAT ?begin@?$_Tree@V?$_Tmap_traits@_KIU?$less@_K@std@@V?$allocator@U?$pair@$$CB_KI@std@@@2@$0A@@std@@@std@@QAE?AViterator@12@XZ
_TEXT	SEGMENT
?begin@?$_Tree@V?$_Tmap_traits@_KIU?$less@_K@std@@V?$allocator@U?$pair@$$CB_KI@std@@@2@$0A@@std@@@std@@QAE?AViterator@12@XZ PROC ; std::_Tree<std::_Tmap_traits<unsigned __int64,unsigned int,std::less<unsigned __int64>,std::allocator<std::pair<unsigned __int64 const ,unsigned int> >,0> >::begin, COMDAT
; _this$ = ecx
; ___$ReturnUdt$ = eax

; 556  : 		return (_TREE_ITERATOR(_Lmost()));

	mov	edx, DWORD PTR [ecx+24]
	mov	edx, DWORD PTR [edx]
	mov	ecx, DWORD PTR [ecx]
	mov	DWORD PTR [eax+4], edx
	mov	DWORD PTR [eax], ecx

; 557  : 		}

	ret	0
?begin@?$_Tree@V?$_Tmap_traits@_KIU?$less@_K@std@@V?$allocator@U?$pair@$$CB_KI@std@@@2@$0A@@std@@@std@@QAE?AViterator@12@XZ ENDP ; std::_Tree<std::_Tmap_traits<unsigned __int64,unsigned int,std::less<unsigned __int64>,std::allocator<std::pair<unsigned __int64 const ,unsigned int> >,0> >::begin
; Function compile flags: /Ogtpy
_TEXT	ENDS
;	COMDAT ?end@?$_Tree@V?$_Tmap_traits@_KVDelayCounter@Statistics@DRAMsimII@@U?$less@_K@std@@V?$allocator@U?$pair@$$CB_KVDelayCounter@Statistics@DRAMsimII@@@std@@@5@$0A@@std@@@std@@QAE?AViterator@12@XZ
_TEXT	SEGMENT
?end@?$_Tree@V?$_Tmap_traits@_KVDelayCounter@Statistics@DRAMsimII@@U?$less@_K@std@@V?$allocator@U?$pair@$$CB_KVDelayCounter@Statistics@DRAMsimII@@@std@@@5@$0A@@std@@@std@@QAE?AViterator@12@XZ PROC ; std::_Tree<std::_Tmap_traits<unsigned __int64,DRAMsimII::Statistics::DelayCounter,std::less<unsigned __int64>,std::allocator<std::pair<unsigned __int64 const ,DRAMsimII::Statistics::DelayCounter> >,0> >::end, COMDAT
; _this$ = ecx
; ___$ReturnUdt$ = eax

; 566  : 		return (_TREE_ITERATOR(_Myhead));

	mov	edx, DWORD PTR [ecx+24]
	mov	ecx, DWORD PTR [ecx]
	mov	DWORD PTR [eax+4], edx
	mov	DWORD PTR [eax], ecx

; 567  : 		}

	ret	0
?end@?$_Tree@V?$_Tmap_traits@_KVDelayCounter@Statistics@DRAMsimII@@U?$less@_K@std@@V?$allocator@U?$pair@$$CB_KVDelayCounter@Statistics@DRAMsimII@@@std@@@5@$0A@@std@@@std@@QAE?AViterator@12@XZ ENDP ; std::_Tree<std::_Tmap_traits<unsigned __int64,DRAMsimII::Statistics::DelayCounter,std::less<unsigned __int64>,std::allocator<std::pair<unsigned __int64 const ,DRAMsimII::Statistics::DelayCounter> >,0> >::end
; Function compile flags: /Ogtpy
_TEXT	ENDS
;	COMDAT ?begin@?$_Tree@V?$_Tmap_traits@_KVDelayCounter@Statistics@DRAMsimII@@U?$less@_K@std@@V?$allocator@U?$pair@$$CB_KVDelayCounter@Statistics@DRAMsimII@@@std@@@5@$0A@@std@@@std@@QAE?AViterator@12@XZ
_TEXT	SEGMENT
?begin@?$_Tree@V?$_Tmap_traits@_KVDelayCounter@Statistics@DRAMsimII@@U?$less@_K@std@@V?$allocator@U?$pair@$$CB_KVDelayCounter@Statistics@DRAMsimII@@@std@@@5@$0A@@std@@@std@@QAE?AViterator@12@XZ PROC ; std::_Tree<std::_Tmap_traits<unsigned __int64,DRAMsimII::Statistics::DelayCounter,std::less<unsigned __int64>,std::allocator<std::pair<unsigned __int64 const ,DRAMsimII::Statistics::DelayCounter> >,0> >::begin, COMDAT
; _this$ = ecx
; ___$ReturnUdt$ = eax

; 556  : 		return (_TREE_ITERATOR(_Lmost()));

	mov	edx, DWORD PTR [ecx+24]
	mov	edx, DWORD PTR [edx]
	mov	ecx, DWORD PTR [ecx]
	mov	DWORD PTR [eax+4], edx
	mov	DWORD PTR [eax], ecx

; 557  : 		}

	ret	0
?begin@?$_Tree@V?$_Tmap_traits@_KVDelayCounter@Statistics@DRAMsimII@@U?$less@_K@std@@V?$allocator@U?$pair@$$CB_KVDelayCounter@Statistics@DRAMsimII@@@std@@@5@$0A@@std@@@std@@QAE?AViterator@12@XZ ENDP ; std::_Tree<std::_Tmap_traits<unsigned __int64,DRAMsimII::Statistics::DelayCounter,std::less<unsigned __int64>,std::allocator<std::pair<unsigned __int64 const ,DRAMsimII::Statistics::DelayCounter> >,0> >::begin
; Function compile flags: /Ogtpy
; File c:\program files\microsoft visual studio 9.0\vc\include\xutility
_TEXT	ENDS
;	COMDAT ??1?$_Container_base_aux_alloc_real@V?$allocator@U_List_position@?$_Hash@V?$_Umap_traits@IIV?$_Hash_compare@IV?$hash@I@tr1@std@@U?$equal_to@I@3@@stdext@@V?$allocator@U?$pair@$$CBII@std@@@std@@$0A@@tr1@std@@@stdext@@@std@@@std@@IAE@XZ
_TEXT	SEGMENT
??1?$_Container_base_aux_alloc_real@V?$allocator@U_List_position@?$_Hash@V?$_Umap_traits@IIV?$_Hash_compare@IV?$hash@I@tr1@std@@U?$equal_to@I@3@@stdext@@V?$allocator@U?$pair@$$CBII@std@@@std@@$0A@@tr1@std@@@stdext@@@std@@@std@@IAE@XZ PROC ; std::_Container_base_aux_alloc_real<std::allocator<stdext::_Hash<std::tr1::_Umap_traits<unsigned int,unsigned int,stdext::_Hash_compare<unsigned int,std::tr1::hash<unsigned int>,std::equal_to<unsigned int> >,std::allocator<std::pair<unsigned int const ,unsigned int> >,0> >::_List_position> >::~_Container_base_aux_alloc_real<std::allocator<stdext::_Hash<std::tr1::_Umap_traits<unsigned int,unsigned int,stdext::_Hash_compare<unsigned int,std::tr1::hash<unsigned int>,std::equal_to<unsigned int> >,std::allocator<std::pair<unsigned int const ,unsigned int> >,0> >::_List_position> >, COMDAT
; _this$ = eax

; 437  : 		_Myownedaux->~_Aux_cont();
; 438  : 
; 439  : 		_Alaux.deallocate(_Myownedaux, 1);

	mov	ecx, DWORD PTR [eax]
	push	ecx
	call	??3@YAXPAX@Z				; operator delete
	pop	ecx

; 440  : 		}

	ret	0
??1?$_Container_base_aux_alloc_real@V?$allocator@U_List_position@?$_Hash@V?$_Umap_traits@IIV?$_Hash_compare@IV?$hash@I@tr1@std@@U?$equal_to@I@3@@stdext@@V?$allocator@U?$pair@$$CBII@std@@@std@@$0A@@tr1@std@@@stdext@@@std@@@std@@IAE@XZ ENDP ; std::_Container_base_aux_alloc_real<std::allocator<stdext::_Hash<std::tr1::_Umap_traits<unsigned int,unsigned int,stdext::_Hash_compare<unsigned int,std::tr1::hash<unsigned int>,std::equal_to<unsigned int> >,std::allocator<std::pair<unsigned int const ,unsigned int> >,0> >::_List_position> >::~_Container_base_aux_alloc_real<std::allocator<stdext::_Hash<std::tr1::_Umap_traits<unsigned int,unsigned int,stdext::_Hash_compare<unsigned int,std::tr1::hash<unsigned int>,std::equal_to<unsigned int> >,std::allocator<std::pair<unsigned int const ,unsigned int> >,0> >::_List_position> >
; Function compile flags: /Ogtpy
_TEXT	ENDS
;	COMDAT ??1?$_Container_base_aux_alloc_real@V?$allocator@U?$pair@$$CBII@std@@@std@@@std@@IAE@XZ
_TEXT	SEGMENT
??1?$_Container_base_aux_alloc_real@V?$allocator@U?$pair@$$CBII@std@@@std@@@std@@IAE@XZ PROC ; std::_Container_base_aux_alloc_real<std::allocator<std::pair<unsigned int const ,unsigned int> > >::~_Container_base_aux_alloc_real<std::allocator<std::pair<unsigned int const ,unsigned int> > >, COMDAT
; _this$ = eax

; 437  : 		_Myownedaux->~_Aux_cont();
; 438  : 
; 439  : 		_Alaux.deallocate(_Myownedaux, 1);

	mov	ecx, DWORD PTR [eax]
	push	ecx
	call	??3@YAXPAX@Z				; operator delete
	pop	ecx

; 440  : 		}

	ret	0
??1?$_Container_base_aux_alloc_real@V?$allocator@U?$pair@$$CBII@std@@@std@@@std@@IAE@XZ ENDP ; std::_Container_base_aux_alloc_real<std::allocator<std::pair<unsigned int const ,unsigned int> > >::~_Container_base_aux_alloc_real<std::allocator<std::pair<unsigned int const ,unsigned int> > >
; Function compile flags: /Ogtpy
; File c:\program files\microsoft visual studio 9.0\vc\include\list
_TEXT	ENDS
;	COMDAT ?_Tidy@?$list@U?$pair@$$CBII@std@@V?$allocator@U?$pair@$$CBII@std@@@2@@std@@IAEXXZ
_TEXT	SEGMENT
?_Tidy@?$list@U?$pair@$$CBII@std@@V?$allocator@U?$pair@$$CBII@std@@@2@@std@@IAEXXZ PROC ; std::list<std::pair<unsigned int const ,unsigned int>,std::allocator<std::pair<unsigned int const ,unsigned int> > >::_Tidy, COMDAT
; _this$ = esi

; 1213 : 		clear();

	mov	ecx, DWORD PTR [esi+20]
	mov	eax, DWORD PTR [ecx]
	mov	DWORD PTR [ecx], ecx
	mov	ecx, DWORD PTR [esi+20]
	mov	DWORD PTR [ecx+4], ecx
	mov	DWORD PTR [esi+24], 0
	cmp	eax, DWORD PTR [esi+20]
	je	SHORT $LN3@Tidy@12
	push	edi
	npad	6
$LL5@Tidy@12:
	mov	edi, DWORD PTR [eax]
	push	eax
	call	??3@YAXPAX@Z				; operator delete
	add	esp, 4
	mov	eax, edi
	cmp	edi, DWORD PTR [esi+20]
	jne	SHORT $LL5@Tidy@12
	pop	edi
$LN3@Tidy@12:

; 1214 : 		this->_Alptr.destroy(&_Nextnode(_Myhead));
; 1215 : 		this->_Alptr.destroy(&_Prevnode(_Myhead));
; 1216 : 		this->_Alnod.deallocate(_Myhead, 1);

	mov	eax, DWORD PTR [esi+20]
	push	eax
	call	??3@YAXPAX@Z				; operator delete
	add	esp, 4

; 1217 : 		_Myhead = 0;

	mov	DWORD PTR [esi+20], 0

; 1218 : 		}

	ret	0
?_Tidy@?$list@U?$pair@$$CBII@std@@V?$allocator@U?$pair@$$CBII@std@@@2@@std@@IAEXXZ ENDP ; std::list<std::pair<unsigned int const ,unsigned int>,std::allocator<std::pair<unsigned int const ,unsigned int> > >::_Tidy
; Function compile flags: /Ogtpy
_TEXT	ENDS
;	COMDAT ??1?$_List_nod@U?$pair@$$CBII@std@@V?$allocator@U?$pair@$$CBII@std@@@2@@std@@QAE@XZ
_TEXT	SEGMENT
??1?$_List_nod@U?$pair@$$CBII@std@@V?$allocator@U?$pair@$$CBII@std@@@2@@std@@QAE@XZ PROC ; std::_List_nod<std::pair<unsigned int const ,unsigned int>,std::allocator<std::pair<unsigned int const ,unsigned int> > >::~_List_nod<std::pair<unsigned int const ,unsigned int>,std::allocator<std::pair<unsigned int const ,unsigned int> > >, COMDAT
; _this$ = eax
	mov	ecx, DWORD PTR [eax]
	push	ecx
	call	??3@YAXPAX@Z				; operator delete
	pop	ecx
	ret	0
??1?$_List_nod@U?$pair@$$CBII@std@@V?$allocator@U?$pair@$$CBII@std@@@2@@std@@QAE@XZ ENDP ; std::_List_nod<std::pair<unsigned int const ,unsigned int>,std::allocator<std::pair<unsigned int const ,unsigned int> > >::~_List_nod<std::pair<unsigned int const ,unsigned int>,std::allocator<std::pair<unsigned int const ,unsigned int> > >
; Function compile flags: /Ogtpy
_TEXT	ENDS
;	COMDAT ??1?$_List_ptr@U?$pair@$$CBII@std@@V?$allocator@U?$pair@$$CBII@std@@@2@@std@@QAE@XZ
_TEXT	SEGMENT
??1?$_List_ptr@U?$pair@$$CBII@std@@V?$allocator@U?$pair@$$CBII@std@@@2@@std@@QAE@XZ PROC ; std::_List_ptr<std::pair<unsigned int const ,unsigned int>,std::allocator<std::pair<unsigned int const ,unsigned int> > >::~_List_ptr<std::pair<unsigned int const ,unsigned int>,std::allocator<std::pair<unsigned int const ,unsigned int> > >, COMDAT
; _this$ = eax
	mov	ecx, DWORD PTR [eax]
	push	ecx
	call	??3@YAXPAX@Z				; operator delete
	pop	ecx
	ret	0
??1?$_List_ptr@U?$pair@$$CBII@std@@V?$allocator@U?$pair@$$CBII@std@@@2@@std@@QAE@XZ ENDP ; std::_List_ptr<std::pair<unsigned int const ,unsigned int>,std::allocator<std::pair<unsigned int const ,unsigned int> > >::~_List_ptr<std::pair<unsigned int const ,unsigned int>,std::allocator<std::pair<unsigned int const ,unsigned int> > >
; Function compile flags: /Ogtpy
_TEXT	ENDS
;	COMDAT ??1?$_Vector_val@U_List_position@?$_Hash@V?$_Umap_traits@IIV?$_Hash_compare@IV?$hash@I@tr1@std@@U?$equal_to@I@3@@stdext@@V?$allocator@U?$pair@$$CBII@std@@@std@@$0A@@tr1@std@@@stdext@@V?$allocator@U_List_position@?$_Hash@V?$_Umap_traits@IIV?$_Hash_compare@IV?$hash@I@tr1@std@@U?$equal_to@I@3@@stdext@@V?$allocator@U?$pair@$$CBII@std@@@std@@$0A@@tr1@std@@@stdext@@@std@@@std@@QAE@XZ
_TEXT	SEGMENT
??1?$_Vector_val@U_List_position@?$_Hash@V?$_Umap_traits@IIV?$_Hash_compare@IV?$hash@I@tr1@std@@U?$equal_to@I@3@@stdext@@V?$allocator@U?$pair@$$CBII@std@@@std@@$0A@@tr1@std@@@stdext@@V?$allocator@U_List_position@?$_Hash@V?$_Umap_traits@IIV?$_Hash_compare@IV?$hash@I@tr1@std@@U?$equal_to@I@3@@stdext@@V?$allocator@U?$pair@$$CBII@std@@@std@@$0A@@tr1@std@@@stdext@@@std@@@std@@QAE@XZ PROC ; std::_Vector_val<stdext::_Hash<std::tr1::_Umap_traits<unsigned int,unsigned int,stdext::_Hash_compare<unsigned int,std::tr1::hash<unsigned int>,std::equal_to<unsigned int> >,std::allocator<std::pair<unsigned int const ,unsigned int> >,0> >::_List_position,std::allocator<stdext::_Hash<std::tr1::_Umap_traits<unsigned int,unsigned int,stdext::_Hash_compare<unsigned int,std::tr1::hash<unsigned int>,std::equal_to<unsigned int> >,std::allocator<std::pair<unsigned int const ,unsigned int> >,0> >::_List_position> >::~_Vector_val<stdext::_Hash<std::tr1::_Umap_traits<unsigned int,unsigned int,stdext::_Hash_compare<unsigned int,std::tr1::hash<unsigned int>,std::equal_to<unsigned int> >,std::allocator<std::pair<unsigned int const ,unsigned int> >,0> >::_List_position,std::allocator<stdext::_Hash<std::tr1::_Umap_traits<unsigned int,unsigned int,stdext::_Hash_compare<unsigned int,std::tr1::hash<unsigned int>,std::equal_to<unsigned int> >,std::allocator<std::pair<unsigned int const ,unsigned int> >,0> >::_List_position> >, COMDAT
; _this$ = eax
	mov	ecx, DWORD PTR [eax]
	push	ecx
	call	??3@YAXPAX@Z				; operator delete
	pop	ecx
	ret	0
??1?$_Vector_val@U_List_position@?$_Hash@V?$_Umap_traits@IIV?$_Hash_compare@IV?$hash@I@tr1@std@@U?$equal_to@I@3@@stdext@@V?$allocator@U?$pair@$$CBII@std@@@std@@$0A@@tr1@std@@@stdext@@V?$allocator@U_List_position@?$_Hash@V?$_Umap_traits@IIV?$_Hash_compare@IV?$hash@I@tr1@std@@U?$equal_to@I@3@@stdext@@V?$allocator@U?$pair@$$CBII@std@@@std@@$0A@@tr1@std@@@stdext@@@std@@@std@@QAE@XZ ENDP ; std::_Vector_val<stdext::_Hash<std::tr1::_Umap_traits<unsigned int,unsigned int,stdext::_Hash_compare<unsigned int,std::tr1::hash<unsigned int>,std::equal_to<unsigned int> >,std::allocator<std::pair<unsigned int const ,unsigned int> >,0> >::_List_position,std::allocator<stdext::_Hash<std::tr1::_Umap_traits<unsigned int,unsigned int,stdext::_Hash_compare<unsigned int,std::tr1::hash<unsigned int>,std::equal_to<unsigned int> >,std::allocator<std::pair<unsigned int const ,unsigned int> >,0> >::_List_position> >::~_Vector_val<stdext::_Hash<std::tr1::_Umap_traits<unsigned int,unsigned int,stdext::_Hash_compare<unsigned int,std::tr1::hash<unsigned int>,std::equal_to<unsigned int> >,std::allocator<std::pair<unsigned int const ,unsigned int> >,0> >::_List_position,std::allocator<stdext::_Hash<std::tr1::_Umap_traits<unsigned int,unsigned int,stdext::_Hash_compare<unsigned int,std::tr1::hash<unsigned int>,std::equal_to<unsigned int> >,std::allocator<std::pair<unsigned int const ,unsigned int> >,0> >::_List_position> >
; Function compile flags: /Ogtpy
_TEXT	ENDS
;	COMDAT ??1?$_List_val@U?$pair@$$CBII@std@@V?$allocator@U?$pair@$$CBII@std@@@2@@std@@QAE@XZ
_TEXT	SEGMENT
??1?$_List_val@U?$pair@$$CBII@std@@V?$allocator@U?$pair@$$CBII@std@@@2@@std@@QAE@XZ PROC ; std::_List_val<std::pair<unsigned int const ,unsigned int>,std::allocator<std::pair<unsigned int const ,unsigned int> > >::~_List_val<std::pair<unsigned int const ,unsigned int>,std::allocator<std::pair<unsigned int const ,unsigned int> > >, COMDAT
; _this$ = eax
	mov	ecx, DWORD PTR [eax]
	push	ecx
	call	??3@YAXPAX@Z				; operator delete
	pop	ecx
	ret	0
??1?$_List_val@U?$pair@$$CBII@std@@V?$allocator@U?$pair@$$CBII@std@@@2@@std@@QAE@XZ ENDP ; std::_List_val<std::pair<unsigned int const ,unsigned int>,std::allocator<std::pair<unsigned int const ,unsigned int> > >::~_List_val<std::pair<unsigned int const ,unsigned int>,std::allocator<std::pair<unsigned int const ,unsigned int> > >
; Function compile flags: /Ogtpy
; File c:\program files\microsoft visual studio 9.0\vc\include\xutility
_TEXT	ENDS
;	COMDAT ??1?$_Container_base_aux_alloc_real@V?$allocator@VfbdChannel@DRAMsimII@@@std@@@std@@IAE@XZ
_TEXT	SEGMENT
??1?$_Container_base_aux_alloc_real@V?$allocator@VfbdChannel@DRAMsimII@@@std@@@std@@IAE@XZ PROC ; std::_Container_base_aux_alloc_real<std::allocator<DRAMsimII::fbdChannel> >::~_Container_base_aux_alloc_real<std::allocator<DRAMsimII::fbdChannel> >, COMDAT
; _this$ = eax

; 437  : 		_Myownedaux->~_Aux_cont();
; 438  : 
; 439  : 		_Alaux.deallocate(_Myownedaux, 1);

	mov	ecx, DWORD PTR [eax]
	push	ecx
	call	??3@YAXPAX@Z				; operator delete
	pop	ecx

; 440  : 		}

	ret	0
??1?$_Container_base_aux_alloc_real@V?$allocator@VfbdChannel@DRAMsimII@@@std@@@std@@IAE@XZ ENDP ; std::_Container_base_aux_alloc_real<std::allocator<DRAMsimII::fbdChannel> >::~_Container_base_aux_alloc_real<std::allocator<DRAMsimII::fbdChannel> >
; Function compile flags: /Ogtpy
_TEXT	ENDS
;	COMDAT ??1?$_Container_base_aux_alloc_real@V?$allocator@VChannel@DRAMsimII@@@std@@@std@@IAE@XZ
_TEXT	SEGMENT
??1?$_Container_base_aux_alloc_real@V?$allocator@VChannel@DRAMsimII@@@std@@@std@@IAE@XZ PROC ; std::_Container_base_aux_alloc_real<std::allocator<DRAMsimII::Channel> >::~_Container_base_aux_alloc_real<std::allocator<DRAMsimII::Channel> >, COMDAT
; _this$ = eax

; 437  : 		_Myownedaux->~_Aux_cont();
; 438  : 
; 439  : 		_Alaux.deallocate(_Myownedaux, 1);

	mov	ecx, DWORD PTR [eax]
	push	ecx
	call	??3@YAXPAX@Z				; operator delete
	pop	ecx

; 440  : 		}

	ret	0
??1?$_Container_base_aux_alloc_real@V?$allocator@VChannel@DRAMsimII@@@std@@@std@@IAE@XZ ENDP ; std::_Container_base_aux_alloc_real<std::allocator<DRAMsimII::Channel> >::~_Container_base_aux_alloc_real<std::allocator<DRAMsimII::Channel> >
; Function compile flags: /Ogtpy
_TEXT	ENDS
;	COMDAT ??1?$_Container_base_aux_alloc_real@V?$allocator@I@std@@@std@@IAE@XZ
_TEXT	SEGMENT
??1?$_Container_base_aux_alloc_real@V?$allocator@I@std@@@std@@IAE@XZ PROC ; std::_Container_base_aux_alloc_real<std::allocator<unsigned int> >::~_Container_base_aux_alloc_real<std::allocator<unsigned int> >, COMDAT
; _this$ = eax

; 437  : 		_Myownedaux->~_Aux_cont();
; 438  : 
; 439  : 		_Alaux.deallocate(_Myownedaux, 1);

	mov	ecx, DWORD PTR [eax]
	push	ecx
	call	??3@YAXPAX@Z				; operator delete
	pop	ecx

; 440  : 		}

	ret	0
??1?$_Container_base_aux_alloc_real@V?$allocator@I@std@@@std@@IAE@XZ ENDP ; std::_Container_base_aux_alloc_real<std::allocator<unsigned int> >::~_Container_base_aux_alloc_real<std::allocator<unsigned int> >
; Function compile flags: /Ogtpy
_TEXT	ENDS
;	COMDAT ??1?$_Container_base_aux_alloc_real@V?$allocator@U?$pair@$$CB_KI@std@@@std@@@std@@IAE@XZ
_TEXT	SEGMENT
??1?$_Container_base_aux_alloc_real@V?$allocator@U?$pair@$$CB_KI@std@@@std@@@std@@IAE@XZ PROC ; std::_Container_base_aux_alloc_real<std::allocator<std::pair<unsigned __int64 const ,unsigned int> > >::~_Container_base_aux_alloc_real<std::allocator<std::pair<unsigned __int64 const ,unsigned int> > >, COMDAT
; _this$ = eax

; 437  : 		_Myownedaux->~_Aux_cont();
; 438  : 
; 439  : 		_Alaux.deallocate(_Myownedaux, 1);

	mov	ecx, DWORD PTR [eax]
	push	ecx
	call	??3@YAXPAX@Z				; operator delete
	pop	ecx

; 440  : 		}

	ret	0
??1?$_Container_base_aux_alloc_real@V?$allocator@U?$pair@$$CB_KI@std@@@std@@@std@@IAE@XZ ENDP ; std::_Container_base_aux_alloc_real<std::allocator<std::pair<unsigned __int64 const ,unsigned int> > >::~_Container_base_aux_alloc_real<std::allocator<std::pair<unsigned __int64 const ,unsigned int> > >
; Function compile flags: /Ogtpy
_TEXT	ENDS
;	COMDAT ??1?$_Container_base_aux_alloc_real@V?$allocator@U?$pair@$$CB_KVDelayCounter@Statistics@DRAMsimII@@@std@@@std@@@std@@IAE@XZ
_TEXT	SEGMENT
??1?$_Container_base_aux_alloc_real@V?$allocator@U?$pair@$$CB_KVDelayCounter@Statistics@DRAMsimII@@@std@@@std@@@std@@IAE@XZ PROC ; std::_Container_base_aux_alloc_real<std::allocator<std::pair<unsigned __int64 const ,DRAMsimII::Statistics::DelayCounter> > >::~_Container_base_aux_alloc_real<std::allocator<std::pair<unsigned __int64 const ,DRAMsimII::Statistics::DelayCounter> > >, COMDAT
; _this$ = eax

; 437  : 		_Myownedaux->~_Aux_cont();
; 438  : 
; 439  : 		_Alaux.deallocate(_Myownedaux, 1);

	mov	ecx, DWORD PTR [eax]
	push	ecx
	call	??3@YAXPAX@Z				; operator delete
	pop	ecx

; 440  : 		}

	ret	0
??1?$_Container_base_aux_alloc_real@V?$allocator@U?$pair@$$CB_KVDelayCounter@Statistics@DRAMsimII@@@std@@@std@@@std@@IAE@XZ ENDP ; std::_Container_base_aux_alloc_real<std::allocator<std::pair<unsigned __int64 const ,DRAMsimII::Statistics::DelayCounter> > >::~_Container_base_aux_alloc_real<std::allocator<std::pair<unsigned __int64 const ,DRAMsimII::Statistics::DelayCounter> > >
; Function compile flags: /Ogtpy
; File c:\program files\microsoft visual studio 9.0\vc\include\vector
_TEXT	ENDS
;	COMDAT ??1?$vector@U_List_position@?$_Hash@V?$_Umap_traits@IIV?$_Hash_compare@IV?$hash@I@tr1@std@@U?$equal_to@I@3@@stdext@@V?$allocator@U?$pair@$$CBII@std@@@std@@$0A@@tr1@std@@@stdext@@V?$allocator@U_List_position@?$_Hash@V?$_Umap_traits@IIV?$_Hash_compare@IV?$hash@I@tr1@std@@U?$equal_to@I@3@@stdext@@V?$allocator@U?$pair@$$CBII@std@@@std@@$0A@@tr1@std@@@stdext@@@std@@@std@@QAE@XZ
_TEXT	SEGMENT
??1?$vector@U_List_position@?$_Hash@V?$_Umap_traits@IIV?$_Hash_compare@IV?$hash@I@tr1@std@@U?$equal_to@I@3@@stdext@@V?$allocator@U?$pair@$$CBII@std@@@std@@$0A@@tr1@std@@@stdext@@V?$allocator@U_List_position@?$_Hash@V?$_Umap_traits@IIV?$_Hash_compare@IV?$hash@I@tr1@std@@U?$equal_to@I@3@@stdext@@V?$allocator@U?$pair@$$CBII@std@@@std@@$0A@@tr1@std@@@stdext@@@std@@@std@@QAE@XZ PROC ; std::vector<stdext::_Hash<std::tr1::_Umap_traits<unsigned int,unsigned int,stdext::_Hash_compare<unsigned int,std::tr1::hash<unsigned int>,std::equal_to<unsigned int> >,std::allocator<std::pair<unsigned int const ,unsigned int> >,0> >::_List_position,std::allocator<stdext::_Hash<std::tr1::_Umap_traits<unsigned int,unsigned int,stdext::_Hash_compare<unsigned int,std::tr1::hash<unsigned int>,std::equal_to<unsigned int> >,std::allocator<std::pair<unsigned int const ,unsigned int> >,0> >::_List_position> >::~vector<stdext::_Hash<std::tr1::_Umap_traits<unsigned int,unsigned int,stdext::_Hash_compare<unsigned int,std::tr1::hash<unsigned int>,std::equal_to<unsigned int> >,std::allocator<std::pair<unsigned int const ,unsigned int> >,0> >::_List_position,std::allocator<stdext::_Hash<std::tr1::_Umap_traits<unsigned int,unsigned int,stdext::_Hash_compare<unsigned int,std::tr1::hash<unsigned int>,std::equal_to<unsigned int> >,std::allocator<std::pair<unsigned int const ,unsigned int> >,0> >::_List_position> >, COMDAT
; _this$ = esi

; 559  : 		_Tidy();

	mov	eax, DWORD PTR [esi+12]
	test	eax, eax
	je	SHORT $LN6@vector@9
	push	eax
	call	??3@YAXPAX@Z				; operator delete
	add	esp, 4
$LN6@vector@9:

; 560  : 		}

	mov	eax, DWORD PTR [esi]
	push	eax
	mov	DWORD PTR [esi+12], 0
	mov	DWORD PTR [esi+16], 0
	mov	DWORD PTR [esi+20], 0
	call	??3@YAXPAX@Z				; operator delete
	pop	ecx
	ret	0
??1?$vector@U_List_position@?$_Hash@V?$_Umap_traits@IIV?$_Hash_compare@IV?$hash@I@tr1@std@@U?$equal_to@I@3@@stdext@@V?$allocator@U?$pair@$$CBII@std@@@std@@$0A@@tr1@std@@@stdext@@V?$allocator@U_List_position@?$_Hash@V?$_Umap_traits@IIV?$_Hash_compare@IV?$hash@I@tr1@std@@U?$equal_to@I@3@@stdext@@V?$allocator@U?$pair@$$CBII@std@@@std@@$0A@@tr1@std@@@stdext@@@std@@@std@@QAE@XZ ENDP ; std::vector<stdext::_Hash<std::tr1::_Umap_traits<unsigned int,unsigned int,stdext::_Hash_compare<unsigned int,std::tr1::hash<unsigned int>,std::equal_to<unsigned int> >,std::allocator<std::pair<unsigned int const ,unsigned int> >,0> >::_List_position,std::allocator<stdext::_Hash<std::tr1::_Umap_traits<unsigned int,unsigned int,stdext::_Hash_compare<unsigned int,std::tr1::hash<unsigned int>,std::equal_to<unsigned int> >,std::allocator<std::pair<unsigned int const ,unsigned int> >,0> >::_List_position> >::~vector<stdext::_Hash<std::tr1::_Umap_traits<unsigned int,unsigned int,stdext::_Hash_compare<unsigned int,std::tr1::hash<unsigned int>,std::equal_to<unsigned int> >,std::allocator<std::pair<unsigned int const ,unsigned int> >,0> >::_List_position,std::allocator<stdext::_Hash<std::tr1::_Umap_traits<unsigned int,unsigned int,stdext::_Hash_compare<unsigned int,std::tr1::hash<unsigned int>,std::equal_to<unsigned int> >,std::allocator<std::pair<unsigned int const ,unsigned int> >,0> >::_List_position> >
; Function compile flags: /Ogtpy
; File c:\program files\microsoft visual studio 9.0\vc\include\list
_TEXT	ENDS
;	COMDAT ??1?$list@U?$pair@$$CBII@std@@V?$allocator@U?$pair@$$CBII@std@@@2@@std@@QAE@XZ
_TEXT	SEGMENT
??1?$list@U?$pair@$$CBII@std@@V?$allocator@U?$pair@$$CBII@std@@@2@@std@@QAE@XZ PROC ; std::list<std::pair<unsigned int const ,unsigned int>,std::allocator<std::pair<unsigned int const ,unsigned int> > >::~list<std::pair<unsigned int const ,unsigned int>,std::allocator<std::pair<unsigned int const ,unsigned int> > >, COMDAT
; _this$ = eax

; 520  : 		{	// destroy the object

	push	esi
	mov	esi, eax

; 521  : 		_Tidy();

	call	?_Tidy@?$list@U?$pair@$$CBII@std@@V?$allocator@U?$pair@$$CBII@std@@@2@@std@@IAEXXZ ; std::list<std::pair<unsigned int const ,unsigned int>,std::allocator<std::pair<unsigned int const ,unsigned int> > >::_Tidy

; 522  : 		}

	mov	eax, DWORD PTR [esi]
	push	eax
	call	??3@YAXPAX@Z				; operator delete
	add	esp, 4
	pop	esi
	ret	0
??1?$list@U?$pair@$$CBII@std@@V?$allocator@U?$pair@$$CBII@std@@@2@@std@@QAE@XZ ENDP ; std::list<std::pair<unsigned int const ,unsigned int>,std::allocator<std::pair<unsigned int const ,unsigned int> > >::~list<std::pair<unsigned int const ,unsigned int>,std::allocator<std::pair<unsigned int const ,unsigned int> > >
; Function compile flags: /Ogtpy
_TEXT	ENDS
;	COMDAT ??1?$_Tmap_traits@_KIU?$less@_K@std@@V?$allocator@U?$pair@$$CB_KI@std@@@2@$0A@@std@@QAE@XZ
_TEXT	SEGMENT
??1?$_Tmap_traits@_KIU?$less@_K@std@@V?$allocator@U?$pair@$$CB_KI@std@@@2@$0A@@std@@QAE@XZ PROC ; std::_Tmap_traits<unsigned __int64,unsigned int,std::less<unsigned __int64>,std::allocator<std::pair<unsigned __int64 const ,unsigned int> >,0>::~_Tmap_traits<unsigned __int64,unsigned int,std::less<unsigned __int64>,std::allocator<std::pair<unsigned __int64 const ,unsigned int> >,0>, COMDAT
; _this$ = eax
	mov	ecx, DWORD PTR [eax]
	push	ecx
	call	??3@YAXPAX@Z				; operator delete
	pop	ecx
	ret	0
??1?$_Tmap_traits@_KIU?$less@_K@std@@V?$allocator@U?$pair@$$CB_KI@std@@@2@$0A@@std@@QAE@XZ ENDP ; std::_Tmap_traits<unsigned __int64,unsigned int,std::less<unsigned __int64>,std::allocator<std::pair<unsigned __int64 const ,unsigned int> >,0>::~_Tmap_traits<unsigned __int64,unsigned int,std::less<unsigned __int64>,std::allocator<std::pair<unsigned __int64 const ,unsigned int> >,0>
; Function compile flags: /Ogtpy
_TEXT	ENDS
;	COMDAT ??1?$_Tmap_traits@_KVDelayCounter@Statistics@DRAMsimII@@U?$less@_K@std@@V?$allocator@U?$pair@$$CB_KVDelayCounter@Statistics@DRAMsimII@@@std@@@5@$0A@@std@@QAE@XZ
_TEXT	SEGMENT
??1?$_Tmap_traits@_KVDelayCounter@Statistics@DRAMsimII@@U?$less@_K@std@@V?$allocator@U?$pair@$$CB_KVDelayCounter@Statistics@DRAMsimII@@@std@@@5@$0A@@std@@QAE@XZ PROC ; std::_Tmap_traits<unsigned __int64,DRAMsimII::Statistics::DelayCounter,std::less<unsigned __int64>,std::allocator<std::pair<unsigned __int64 const ,DRAMsimII::Statistics::DelayCounter> >,0>::~_Tmap_traits<unsigned __int64,DRAMsimII::Statistics::DelayCounter,std::less<unsigned __int64>,std::allocator<std::pair<unsigned __int64 const ,DRAMsimII::Statistics::DelayCounter> >,0>, COMDAT
; _this$ = eax
	mov	ecx, DWORD PTR [eax]
	push	ecx
	call	??3@YAXPAX@Z				; operator delete
	pop	ecx
	ret	0
??1?$_Tmap_traits@_KVDelayCounter@Statistics@DRAMsimII@@U?$less@_K@std@@V?$allocator@U?$pair@$$CB_KVDelayCounter@Statistics@DRAMsimII@@@std@@@5@$0A@@std@@QAE@XZ ENDP ; std::_Tmap_traits<unsigned __int64,DRAMsimII::Statistics::DelayCounter,std::less<unsigned __int64>,std::allocator<std::pair<unsigned __int64 const ,DRAMsimII::Statistics::DelayCounter> >,0>::~_Tmap_traits<unsigned __int64,DRAMsimII::Statistics::DelayCounter,std::less<unsigned __int64>,std::allocator<std::pair<unsigned __int64 const ,DRAMsimII::Statistics::DelayCounter> >,0>
; Function compile flags: /Ogtpy
_TEXT	ENDS
;	COMDAT ??1?$_Tree_nod@V?$_Tmap_traits@_KIU?$less@_K@std@@V?$allocator@U?$pair@$$CB_KI@std@@@2@$0A@@std@@@std@@QAE@XZ
_TEXT	SEGMENT
??1?$_Tree_nod@V?$_Tmap_traits@_KIU?$less@_K@std@@V?$allocator@U?$pair@$$CB_KI@std@@@2@$0A@@std@@@std@@QAE@XZ PROC ; std::_Tree_nod<std::_Tmap_traits<unsigned __int64,unsigned int,std::less<unsigned __int64>,std::allocator<std::pair<unsigned __int64 const ,unsigned int> >,0> >::~_Tree_nod<std::_Tmap_traits<unsigned __int64,unsigned int,std::less<unsigned __int64>,std::allocator<std::pair<unsigned __int64 const ,unsigned int> >,0> >, COMDAT
; _this$ = eax
	mov	ecx, DWORD PTR [eax]
	push	ecx
	call	??3@YAXPAX@Z				; operator delete
	pop	ecx
	ret	0
??1?$_Tree_nod@V?$_Tmap_traits@_KIU?$less@_K@std@@V?$allocator@U?$pair@$$CB_KI@std@@@2@$0A@@std@@@std@@QAE@XZ ENDP ; std::_Tree_nod<std::_Tmap_traits<unsigned __int64,unsigned int,std::less<unsigned __int64>,std::allocator<std::pair<unsigned __int64 const ,unsigned int> >,0> >::~_Tree_nod<std::_Tmap_traits<unsigned __int64,unsigned int,std::less<unsigned __int64>,std::allocator<std::pair<unsigned __int64 const ,unsigned int> >,0> >
; Function compile flags: /Ogtpy
_TEXT	ENDS
;	COMDAT ??1?$_Tree_nod@V?$_Tmap_traits@_KVDelayCounter@Statistics@DRAMsimII@@U?$less@_K@std@@V?$allocator@U?$pair@$$CB_KVDelayCounter@Statistics@DRAMsimII@@@std@@@5@$0A@@std@@@std@@QAE@XZ
_TEXT	SEGMENT
??1?$_Tree_nod@V?$_Tmap_traits@_KVDelayCounter@Statistics@DRAMsimII@@U?$less@_K@std@@V?$allocator@U?$pair@$$CB_KVDelayCounter@Statistics@DRAMsimII@@@std@@@5@$0A@@std@@@std@@QAE@XZ PROC ; std::_Tree_nod<std::_Tmap_traits<unsigned __int64,DRAMsimII::Statistics::DelayCounter,std::less<unsigned __int64>,std::allocator<std::pair<unsigned __int64 const ,DRAMsimII::Statistics::DelayCounter> >,0> >::~_Tree_nod<std::_Tmap_traits<unsigned __int64,DRAMsimII::Statistics::DelayCounter,std::less<unsigned __int64>,std::allocator<std::pair<unsigned __int64 const ,DRAMsimII::Statistics::DelayCounter> >,0> >, COMDAT
; _this$ = eax
	mov	ecx, DWORD PTR [eax]
	push	ecx
	call	??3@YAXPAX@Z				; operator delete
	pop	ecx
	ret	0
??1?$_Tree_nod@V?$_Tmap_traits@_KVDelayCounter@Statistics@DRAMsimII@@U?$less@_K@std@@V?$allocator@U?$pair@$$CB_KVDelayCounter@Statistics@DRAMsimII@@@std@@@5@$0A@@std@@@std@@QAE@XZ ENDP ; std::_Tree_nod<std::_Tmap_traits<unsigned __int64,DRAMsimII::Statistics::DelayCounter,std::less<unsigned __int64>,std::allocator<std::pair<unsigned __int64 const ,DRAMsimII::Statistics::DelayCounter> >,0> >::~_Tree_nod<std::_Tmap_traits<unsigned __int64,DRAMsimII::Statistics::DelayCounter,std::less<unsigned __int64>,std::allocator<std::pair<unsigned __int64 const ,DRAMsimII::Statistics::DelayCounter> >,0> >
; Function compile flags: /Ogtpy
_TEXT	ENDS
;	COMDAT ??1?$_Tree_ptr@V?$_Tmap_traits@_KIU?$less@_K@std@@V?$allocator@U?$pair@$$CB_KI@std@@@2@$0A@@std@@@std@@QAE@XZ
_TEXT	SEGMENT
??1?$_Tree_ptr@V?$_Tmap_traits@_KIU?$less@_K@std@@V?$allocator@U?$pair@$$CB_KI@std@@@2@$0A@@std@@@std@@QAE@XZ PROC ; std::_Tree_ptr<std::_Tmap_traits<unsigned __int64,unsigned int,std::less<unsigned __int64>,std::allocator<std::pair<unsigned __int64 const ,unsigned int> >,0> >::~_Tree_ptr<std::_Tmap_traits<unsigned __int64,unsigned int,std::less<unsigned __int64>,std::allocator<std::pair<unsigned __int64 const ,unsigned int> >,0> >, COMDAT
; _this$ = eax
	mov	ecx, DWORD PTR [eax]
	push	ecx
	call	??3@YAXPAX@Z				; operator delete
	pop	ecx
	ret	0
??1?$_Tree_ptr@V?$_Tmap_traits@_KIU?$less@_K@std@@V?$allocator@U?$pair@$$CB_KI@std@@@2@$0A@@std@@@std@@QAE@XZ ENDP ; std::_Tree_ptr<std::_Tmap_traits<unsigned __int64,unsigned int,std::less<unsigned __int64>,std::allocator<std::pair<unsigned __int64 const ,unsigned int> >,0> >::~_Tree_ptr<std::_Tmap_traits<unsigned __int64,unsigned int,std::less<unsigned __int64>,std::allocator<std::pair<unsigned __int64 const ,unsigned int> >,0> >
; Function compile flags: /Ogtpy
_TEXT	ENDS
;	COMDAT ??1?$_Tree_ptr@V?$_Tmap_traits@_KVDelayCounter@Statistics@DRAMsimII@@U?$less@_K@std@@V?$allocator@U?$pair@$$CB_KVDelayCounter@Statistics@DRAMsimII@@@std@@@5@$0A@@std@@@std@@QAE@XZ
_TEXT	SEGMENT
??1?$_Tree_ptr@V?$_Tmap_traits@_KVDelayCounter@Statistics@DRAMsimII@@U?$less@_K@std@@V?$allocator@U?$pair@$$CB_KVDelayCounter@Statistics@DRAMsimII@@@std@@@5@$0A@@std@@@std@@QAE@XZ PROC ; std::_Tree_ptr<std::_Tmap_traits<unsigned __int64,DRAMsimII::Statistics::DelayCounter,std::less<unsigned __int64>,std::allocator<std::pair<unsigned __int64 const ,DRAMsimII::Statistics::DelayCounter> >,0> >::~_Tree_ptr<std::_Tmap_traits<unsigned __int64,DRAMsimII::Statistics::DelayCounter,std::less<unsigned __int64>,std::allocator<std::pair<unsigned __int64 const ,DRAMsimII::Statistics::DelayCounter> >,0> >, COMDAT
; _this$ = eax
	mov	ecx, DWORD PTR [eax]
	push	ecx
	call	??3@YAXPAX@Z				; operator delete
	pop	ecx
	ret	0
??1?$_Tree_ptr@V?$_Tmap_traits@_KVDelayCounter@Statistics@DRAMsimII@@U?$less@_K@std@@V?$allocator@U?$pair@$$CB_KVDelayCounter@Statistics@DRAMsimII@@@std@@@5@$0A@@std@@@std@@QAE@XZ ENDP ; std::_Tree_ptr<std::_Tmap_traits<unsigned __int64,DRAMsimII::Statistics::DelayCounter,std::less<unsigned __int64>,std::allocator<std::pair<unsigned __int64 const ,DRAMsimII::Statistics::DelayCounter> >,0> >::~_Tree_ptr<std::_Tmap_traits<unsigned __int64,DRAMsimII::Statistics::DelayCounter,std::less<unsigned __int64>,std::allocator<std::pair<unsigned __int64 const ,DRAMsimII::Statistics::DelayCounter> >,0> >
; Function compile flags: /Ogtpy
_TEXT	ENDS
;	COMDAT ??1?$_Vector_val@VfbdChannel@DRAMsimII@@V?$allocator@VfbdChannel@DRAMsimII@@@std@@@std@@QAE@XZ
_TEXT	SEGMENT
??1?$_Vector_val@VfbdChannel@DRAMsimII@@V?$allocator@VfbdChannel@DRAMsimII@@@std@@@std@@QAE@XZ PROC ; std::_Vector_val<DRAMsimII::fbdChannel,std::allocator<DRAMsimII::fbdChannel> >::~_Vector_val<DRAMsimII::fbdChannel,std::allocator<DRAMsimII::fbdChannel> >, COMDAT
; _this$ = eax
	mov	ecx, DWORD PTR [eax]
	push	ecx
	call	??3@YAXPAX@Z				; operator delete
	pop	ecx
	ret	0
??1?$_Vector_val@VfbdChannel@DRAMsimII@@V?$allocator@VfbdChannel@DRAMsimII@@@std@@@std@@QAE@XZ ENDP ; std::_Vector_val<DRAMsimII::fbdChannel,std::allocator<DRAMsimII::fbdChannel> >::~_Vector_val<DRAMsimII::fbdChannel,std::allocator<DRAMsimII::fbdChannel> >
; Function compile flags: /Ogtpy
_TEXT	ENDS
;	COMDAT ??1?$_Vector_val@VChannel@DRAMsimII@@V?$allocator@VChannel@DRAMsimII@@@std@@@std@@QAE@XZ
_TEXT	SEGMENT
??1?$_Vector_val@VChannel@DRAMsimII@@V?$allocator@VChannel@DRAMsimII@@@std@@@std@@QAE@XZ PROC ; std::_Vector_val<DRAMsimII::Channel,std::allocator<DRAMsimII::Channel> >::~_Vector_val<DRAMsimII::Channel,std::allocator<DRAMsimII::Channel> >, COMDAT
; _this$ = eax
	mov	ecx, DWORD PTR [eax]
	push	ecx
	call	??3@YAXPAX@Z				; operator delete
	pop	ecx
	ret	0
??1?$_Vector_val@VChannel@DRAMsimII@@V?$allocator@VChannel@DRAMsimII@@@std@@@std@@QAE@XZ ENDP ; std::_Vector_val<DRAMsimII::Channel,std::allocator<DRAMsimII::Channel> >::~_Vector_val<DRAMsimII::Channel,std::allocator<DRAMsimII::Channel> >
; Function compile flags: /Ogtpy
_TEXT	ENDS
;	COMDAT ??1?$_Vector_val@IV?$allocator@I@std@@@std@@QAE@XZ
_TEXT	SEGMENT
??1?$_Vector_val@IV?$allocator@I@std@@@std@@QAE@XZ PROC	; std::_Vector_val<unsigned int,std::allocator<unsigned int> >::~_Vector_val<unsigned int,std::allocator<unsigned int> >, COMDAT
; _this$ = eax
	mov	ecx, DWORD PTR [eax]
	push	ecx
	call	??3@YAXPAX@Z				; operator delete
	pop	ecx
	ret	0
??1?$_Vector_val@IV?$allocator@I@std@@@std@@QAE@XZ ENDP	; std::_Vector_val<unsigned int,std::allocator<unsigned int> >::~_Vector_val<unsigned int,std::allocator<unsigned int> >
; Function compile flags: /Ogtpy
_TEXT	ENDS
;	COMDAT ??1?$_Tree_val@V?$_Tmap_traits@_KIU?$less@_K@std@@V?$allocator@U?$pair@$$CB_KI@std@@@2@$0A@@std@@@std@@QAE@XZ
_TEXT	SEGMENT
??1?$_Tree_val@V?$_Tmap_traits@_KIU?$less@_K@std@@V?$allocator@U?$pair@$$CB_KI@std@@@2@$0A@@std@@@std@@QAE@XZ PROC ; std::_Tree_val<std::_Tmap_traits<unsigned __int64,unsigned int,std::less<unsigned __int64>,std::allocator<std::pair<unsigned __int64 const ,unsigned int> >,0> >::~_Tree_val<std::_Tmap_traits<unsigned __int64,unsigned int,std::less<unsigned __int64>,std::allocator<std::pair<unsigned __int64 const ,unsigned int> >,0> >, COMDAT
; _this$ = eax
	mov	ecx, DWORD PTR [eax]
	push	ecx
	call	??3@YAXPAX@Z				; operator delete
	pop	ecx
	ret	0
??1?$_Tree_val@V?$_Tmap_traits@_KIU?$less@_K@std@@V?$allocator@U?$pair@$$CB_KI@std@@@2@$0A@@std@@@std@@QAE@XZ ENDP ; std::_Tree_val<std::_Tmap_traits<unsigned __int64,unsigned int,std::less<unsigned __int64>,std::allocator<std::pair<unsigned __int64 const ,unsigned int> >,0> >::~_Tree_val<std::_Tmap_traits<unsigned __int64,unsigned int,std::less<unsigned __int64>,std::allocator<std::pair<unsigned __int64 const ,unsigned int> >,0> >
; Function compile flags: /Ogtpy
_TEXT	ENDS
;	COMDAT ??1?$_Tree_val@V?$_Tmap_traits@_KVDelayCounter@Statistics@DRAMsimII@@U?$less@_K@std@@V?$allocator@U?$pair@$$CB_KVDelayCounter@Statistics@DRAMsimII@@@std@@@5@$0A@@std@@@std@@QAE@XZ
_TEXT	SEGMENT
??1?$_Tree_val@V?$_Tmap_traits@_KVDelayCounter@Statistics@DRAMsimII@@U?$less@_K@std@@V?$allocator@U?$pair@$$CB_KVDelayCounter@Statistics@DRAMsimII@@@std@@@5@$0A@@std@@@std@@QAE@XZ PROC ; std::_Tree_val<std::_Tmap_traits<unsigned __int64,DRAMsimII::Statistics::DelayCounter,std::less<unsigned __int64>,std::allocator<std::pair<unsigned __int64 const ,DRAMsimII::Statistics::DelayCounter> >,0> >::~_Tree_val<std::_Tmap_traits<unsigned __int64,DRAMsimII::Statistics::DelayCounter,std::less<unsigned __int64>,std::allocator<std::pair<unsigned __int64 const ,DRAMsimII::Statistics::DelayCounter> >,0> >, COMDAT
; _this$ = eax
	mov	ecx, DWORD PTR [eax]
	push	ecx
	call	??3@YAXPAX@Z				; operator delete
	pop	ecx
	ret	0
??1?$_Tree_val@V?$_Tmap_traits@_KVDelayCounter@Statistics@DRAMsimII@@U?$less@_K@std@@V?$allocator@U?$pair@$$CB_KVDelayCounter@Statistics@DRAMsimII@@@std@@@5@$0A@@std@@@std@@QAE@XZ ENDP ; std::_Tree_val<std::_Tmap_traits<unsigned __int64,DRAMsimII::Statistics::DelayCounter,std::less<unsigned __int64>,std::allocator<std::pair<unsigned __int64 const ,DRAMsimII::Statistics::DelayCounter> >,0> >::~_Tree_val<std::_Tmap_traits<unsigned __int64,DRAMsimII::Statistics::DelayCounter,std::less<unsigned __int64>,std::allocator<std::pair<unsigned __int64 const ,DRAMsimII::Statistics::DelayCounter> >,0> >
; Function compile flags: /Ogtpy
_TEXT	ENDS
;	COMDAT ??1?$_Umap_traits@IIV?$_Hash_compare@IV?$hash@I@tr1@std@@U?$equal_to@I@3@@stdext@@V?$allocator@U?$pair@$$CBII@std@@@std@@$0A@@tr1@std@@QAE@XZ
_TEXT	SEGMENT
??1?$_Umap_traits@IIV?$_Hash_compare@IV?$hash@I@tr1@std@@U?$equal_to@I@3@@stdext@@V?$allocator@U?$pair@$$CBII@std@@@std@@$0A@@tr1@std@@QAE@XZ PROC ; std::tr1::_Umap_traits<unsigned int,unsigned int,stdext::_Hash_compare<unsigned int,std::tr1::hash<unsigned int>,std::equal_to<unsigned int> >,std::allocator<std::pair<unsigned int const ,unsigned int> >,0>::~_Umap_traits<unsigned int,unsigned int,stdext::_Hash_compare<unsigned int,std::tr1::hash<unsigned int>,std::equal_to<unsigned int> >,std::allocator<std::pair<unsigned int const ,unsigned int> >,0>, COMDAT
	ret	0
??1?$_Umap_traits@IIV?$_Hash_compare@IV?$hash@I@tr1@std@@U?$equal_to@I@3@@stdext@@V?$allocator@U?$pair@$$CBII@std@@@std@@$0A@@tr1@std@@QAE@XZ ENDP ; std::tr1::_Umap_traits<unsigned int,unsigned int,stdext::_Hash_compare<unsigned int,std::tr1::hash<unsigned int>,std::equal_to<unsigned int> >,std::allocator<std::pair<unsigned int const ,unsigned int> >,0>::~_Umap_traits<unsigned int,unsigned int,stdext::_Hash_compare<unsigned int,std::tr1::hash<unsigned int>,std::equal_to<unsigned int> >,std::allocator<std::pair<unsigned int const ,unsigned int> >,0>
_TEXT	ENDS
;	COMDAT xdata$x
; File c:\program files\microsoft visual studio 9.0\vc\include\xutility
xdata$x	SEGMENT
__unwindtable$??1?$vector@VfbdChannel@DRAMsimII@@V?$allocator@VfbdChannel@DRAMsimII@@@std@@@std@@QAE@XZ DD 0ffffffffH
	DD	FLAT:__unwindfunclet$??1?$vector@VfbdChannel@DRAMsimII@@V?$allocator@VfbdChannel@DRAMsimII@@@std@@@std@@QAE@XZ$0
__ehfuncinfo$??1?$vector@VfbdChannel@DRAMsimII@@V?$allocator@VfbdChannel@DRAMsimII@@@std@@@std@@QAE@XZ DD 019930522H
	DD	01H
	DD	FLAT:__unwindtable$??1?$vector@VfbdChannel@DRAMsimII@@V?$allocator@VfbdChannel@DRAMsimII@@@std@@@std@@QAE@XZ
	DD	2 DUP(00H)
	DD	2 DUP(00H)
	DD	00H
	DD	01H
; Function compile flags: /Ogtpy
; File c:\program files\microsoft visual studio 9.0\vc\include\vector
xdata$x	ENDS
;	COMDAT ??1?$vector@VfbdChannel@DRAMsimII@@V?$allocator@VfbdChannel@DRAMsimII@@@std@@@std@@QAE@XZ
_TEXT	SEGMENT
__$EHRec$ = -12						; size = 12
_this$ = 8						; size = 4
??1?$vector@VfbdChannel@DRAMsimII@@V?$allocator@VfbdChannel@DRAMsimII@@@std@@@std@@QAE@XZ PROC ; std::vector<DRAMsimII::fbdChannel,std::allocator<DRAMsimII::fbdChannel> >::~vector<DRAMsimII::fbdChannel,std::allocator<DRAMsimII::fbdChannel> >, COMDAT

; 558  : 		{	// destroy the object

	push	-1
	push	__ehhandler$??1?$vector@VfbdChannel@DRAMsimII@@V?$allocator@VfbdChannel@DRAMsimII@@@std@@@std@@QAE@XZ
	mov	eax, DWORD PTR fs:0
	push	eax
	push	esi
	mov	eax, DWORD PTR ___security_cookie
	xor	eax, esp
	push	eax
	lea	eax, DWORD PTR __$EHRec$[esp+20]
	mov	DWORD PTR fs:0, eax
	mov	esi, DWORD PTR _this$[esp+16]

; 559  : 		_Tidy();

	push	esi
	mov	DWORD PTR __$EHRec$[esp+32], 0
	call	?_Tidy@?$vector@VfbdChannel@DRAMsimII@@V?$allocator@VfbdChannel@DRAMsimII@@@std@@@std@@IAEXXZ ; std::vector<DRAMsimII::fbdChannel,std::allocator<DRAMsimII::fbdChannel> >::_Tidy

; 560  : 		}

	mov	eax, DWORD PTR [esi]
	push	eax
	call	??3@YAXPAX@Z				; operator delete
	add	esp, 4
	mov	ecx, DWORD PTR __$EHRec$[esp+20]
	mov	DWORD PTR fs:0, ecx
	pop	ecx
	pop	esi
	add	esp, 12					; 0000000cH
	ret	4
_TEXT	ENDS
;	COMDAT text$x
text$x	SEGMENT
__unwindfunclet$??1?$vector@VfbdChannel@DRAMsimII@@V?$allocator@VfbdChannel@DRAMsimII@@@std@@@std@@QAE@XZ$0:
	mov	eax, DWORD PTR _this$[ebp-4]
	jmp	??1?$_Vector_val@VfbdChannel@DRAMsimII@@V?$allocator@VfbdChannel@DRAMsimII@@@std@@@std@@QAE@XZ
__ehhandler$??1?$vector@VfbdChannel@DRAMsimII@@V?$allocator@VfbdChannel@DRAMsimII@@@std@@@std@@QAE@XZ:
	mov	edx, DWORD PTR [esp+8]
	lea	eax, DWORD PTR [edx-4]
	mov	ecx, DWORD PTR [edx-8]
	xor	ecx, eax
	call	@__security_check_cookie@4
	mov	eax, OFFSET __ehfuncinfo$??1?$vector@VfbdChannel@DRAMsimII@@V?$allocator@VfbdChannel@DRAMsimII@@@std@@@std@@QAE@XZ
	jmp	___CxxFrameHandler3
text$x	ENDS
??1?$vector@VfbdChannel@DRAMsimII@@V?$allocator@VfbdChannel@DRAMsimII@@@std@@@std@@QAE@XZ ENDP ; std::vector<DRAMsimII::fbdChannel,std::allocator<DRAMsimII::fbdChannel> >::~vector<DRAMsimII::fbdChannel,std::allocator<DRAMsimII::fbdChannel> >
;	COMDAT xdata$x
; File c:\program files\microsoft visual studio 9.0\vc\include\xutility
xdata$x	SEGMENT
__unwindtable$??1?$vector@VChannel@DRAMsimII@@V?$allocator@VChannel@DRAMsimII@@@std@@@std@@QAE@XZ DD 0ffffffffH
	DD	FLAT:__unwindfunclet$??1?$vector@VChannel@DRAMsimII@@V?$allocator@VChannel@DRAMsimII@@@std@@@std@@QAE@XZ$0
__ehfuncinfo$??1?$vector@VChannel@DRAMsimII@@V?$allocator@VChannel@DRAMsimII@@@std@@@std@@QAE@XZ DD 019930522H
	DD	01H
	DD	FLAT:__unwindtable$??1?$vector@VChannel@DRAMsimII@@V?$allocator@VChannel@DRAMsimII@@@std@@@std@@QAE@XZ
	DD	2 DUP(00H)
	DD	2 DUP(00H)
	DD	00H
	DD	01H
; Function compile flags: /Ogtpy
; File c:\program files\microsoft visual studio 9.0\vc\include\vector
xdata$x	ENDS
;	COMDAT ??1?$vector@VChannel@DRAMsimII@@V?$allocator@VChannel@DRAMsimII@@@std@@@std@@QAE@XZ
_TEXT	SEGMENT
__$EHRec$ = -12						; size = 12
_this$ = 8						; size = 4
??1?$vector@VChannel@DRAMsimII@@V?$allocator@VChannel@DRAMsimII@@@std@@@std@@QAE@XZ PROC ; std::vector<DRAMsimII::Channel,std::allocator<DRAMsimII::Channel> >::~vector<DRAMsimII::Channel,std::allocator<DRAMsimII::Channel> >, COMDAT

; 558  : 		{	// destroy the object

	push	-1
	push	__ehhandler$??1?$vector@VChannel@DRAMsimII@@V?$allocator@VChannel@DRAMsimII@@@std@@@std@@QAE@XZ
	mov	eax, DWORD PTR fs:0
	push	eax
	push	esi
	mov	eax, DWORD PTR ___security_cookie
	xor	eax, esp
	push	eax
	lea	eax, DWORD PTR __$EHRec$[esp+20]
	mov	DWORD PTR fs:0, eax
	mov	esi, DWORD PTR _this$[esp+16]

; 559  : 		_Tidy();

	push	esi
	mov	DWORD PTR __$EHRec$[esp+32], 0
	call	?_Tidy@?$vector@VChannel@DRAMsimII@@V?$allocator@VChannel@DRAMsimII@@@std@@@std@@IAEXXZ ; std::vector<DRAMsimII::Channel,std::allocator<DRAMsimII::Channel> >::_Tidy

; 560  : 		}

	mov	eax, DWORD PTR [esi]
	push	eax
	call	??3@YAXPAX@Z				; operator delete
	add	esp, 4
	mov	ecx, DWORD PTR __$EHRec$[esp+20]
	mov	DWORD PTR fs:0, ecx
	pop	ecx
	pop	esi
	add	esp, 12					; 0000000cH
	ret	4
_TEXT	ENDS
;	COMDAT text$x
text$x	SEGMENT
__unwindfunclet$??1?$vector@VChannel@DRAMsimII@@V?$allocator@VChannel@DRAMsimII@@@std@@@std@@QAE@XZ$0:
	mov	eax, DWORD PTR _this$[ebp-4]
	jmp	??1?$_Vector_val@VChannel@DRAMsimII@@V?$allocator@VChannel@DRAMsimII@@@std@@@std@@QAE@XZ
__ehhandler$??1?$vector@VChannel@DRAMsimII@@V?$allocator@VChannel@DRAMsimII@@@std@@@std@@QAE@XZ:
	mov	edx, DWORD PTR [esp+8]
	lea	eax, DWORD PTR [edx-4]
	mov	ecx, DWORD PTR [edx-8]
	xor	ecx, eax
	call	@__security_check_cookie@4
	mov	eax, OFFSET __ehfuncinfo$??1?$vector@VChannel@DRAMsimII@@V?$allocator@VChannel@DRAMsimII@@@std@@@std@@QAE@XZ
	jmp	___CxxFrameHandler3
text$x	ENDS
??1?$vector@VChannel@DRAMsimII@@V?$allocator@VChannel@DRAMsimII@@@std@@@std@@QAE@XZ ENDP ; std::vector<DRAMsimII::Channel,std::allocator<DRAMsimII::Channel> >::~vector<DRAMsimII::Channel,std::allocator<DRAMsimII::Channel> >
; Function compile flags: /Ogtpy
;	COMDAT ??1?$vector@IV?$allocator@I@std@@@std@@QAE@XZ
_TEXT	SEGMENT
??1?$vector@IV?$allocator@I@std@@@std@@QAE@XZ PROC	; std::vector<unsigned int,std::allocator<unsigned int> >::~vector<unsigned int,std::allocator<unsigned int> >, COMDAT
; _this$ = esi

; 559  : 		_Tidy();

	mov	eax, DWORD PTR [esi+12]
	test	eax, eax
	je	SHORT $LN6@vector@10
	push	eax
	call	??3@YAXPAX@Z				; operator delete
	add	esp, 4
$LN6@vector@10:

; 560  : 		}

	mov	eax, DWORD PTR [esi]
	push	eax
	mov	DWORD PTR [esi+12], 0
	mov	DWORD PTR [esi+16], 0
	mov	DWORD PTR [esi+20], 0
	call	??3@YAXPAX@Z				; operator delete
	pop	ecx
	ret	0
??1?$vector@IV?$allocator@I@std@@@std@@QAE@XZ ENDP	; std::vector<unsigned int,std::allocator<unsigned int> >::~vector<unsigned int,std::allocator<unsigned int> >
; Function compile flags: /Ogtpy
; File c:\program files\microsoft visual studio 9.0\vc\include\xhash
_TEXT	ENDS
;	COMDAT ??1?$_Hash@V?$_Umap_traits@IIV?$_Hash_compare@IV?$hash@I@tr1@std@@U?$equal_to@I@3@@stdext@@V?$allocator@U?$pair@$$CBII@std@@@std@@$0A@@tr1@std@@@stdext@@QAE@XZ
_TEXT	SEGMENT
??1?$_Hash@V?$_Umap_traits@IIV?$_Hash_compare@IV?$hash@I@tr1@std@@U?$equal_to@I@3@@stdext@@V?$allocator@U?$pair@$$CBII@std@@@std@@$0A@@tr1@std@@@stdext@@QAE@XZ PROC ; stdext::_Hash<std::tr1::_Umap_traits<unsigned int,unsigned int,stdext::_Hash_compare<unsigned int,std::tr1::hash<unsigned int>,std::equal_to<unsigned int> >,std::allocator<std::pair<unsigned int const ,unsigned int> >,0> >::~_Hash<std::tr1::_Umap_traits<unsigned int,unsigned int,stdext::_Hash_compare<unsigned int,std::tr1::hash<unsigned int>,std::equal_to<unsigned int> >,std::allocator<std::pair<unsigned int const ,unsigned int> >,0> >, COMDAT
; _this$ = eax

; 365  : 		{	// destroy hash table

	push	esi
	mov	esi, eax

; 366  : 		}

	mov	eax, DWORD PTR [esi+48]
	test	eax, eax
	je	SHORT $LN8@Hash@2
	push	eax
	call	??3@YAXPAX@Z				; operator delete
	add	esp, 4
$LN8@Hash@2:
	mov	eax, DWORD PTR [esi+36]
	push	eax
	mov	DWORD PTR [esi+48], 0
	mov	DWORD PTR [esi+52], 0
	mov	DWORD PTR [esi+56], 0
	call	??3@YAXPAX@Z				; operator delete
	add	esp, 4
	add	esi, 8
	call	?_Tidy@?$list@U?$pair@$$CBII@std@@V?$allocator@U?$pair@$$CBII@std@@@2@@std@@IAEXXZ ; std::list<std::pair<unsigned int const ,unsigned int>,std::allocator<std::pair<unsigned int const ,unsigned int> > >::_Tidy
	mov	ecx, DWORD PTR [esi]
	push	ecx
	call	??3@YAXPAX@Z				; operator delete
	add	esp, 4
	pop	esi
	ret	0
??1?$_Hash@V?$_Umap_traits@IIV?$_Hash_compare@IV?$hash@I@tr1@std@@U?$equal_to@I@3@@stdext@@V?$allocator@U?$pair@$$CBII@std@@@std@@$0A@@tr1@std@@@stdext@@QAE@XZ ENDP ; stdext::_Hash<std::tr1::_Umap_traits<unsigned int,unsigned int,stdext::_Hash_compare<unsigned int,std::tr1::hash<unsigned int>,std::equal_to<unsigned int> >,std::allocator<std::pair<unsigned int const ,unsigned int> >,0> >::~_Hash<std::tr1::_Umap_traits<unsigned int,unsigned int,stdext::_Hash_compare<unsigned int,std::tr1::hash<unsigned int>,std::equal_to<unsigned int> >,std::allocator<std::pair<unsigned int const ,unsigned int> >,0> >
; Function compile flags: /Ogtpy
_TEXT	ENDS
;	COMDAT ??1?$unordered_map@IIV?$hash@I@tr1@std@@U?$equal_to@I@3@V?$allocator@U?$pair@$$CBII@std@@@3@@tr1@std@@QAE@XZ
_TEXT	SEGMENT
??1?$unordered_map@IIV?$hash@I@tr1@std@@U?$equal_to@I@3@V?$allocator@U?$pair@$$CBII@std@@@3@@tr1@std@@QAE@XZ PROC ; std::tr1::unordered_map<unsigned int,unsigned int,std::tr1::hash<unsigned int>,std::equal_to<unsigned int>,std::allocator<std::pair<unsigned int const ,unsigned int> > >::~unordered_map<unsigned int,unsigned int,std::tr1::hash<unsigned int>,std::equal_to<unsigned int>,std::allocator<std::pair<unsigned int const ,unsigned int> > >, COMDAT
; _this$ = eax
	push	esi
	mov	esi, eax
	mov	eax, DWORD PTR [esi+48]
	test	eax, eax
	je	SHORT $LN10@unordered_@2
	push	eax
	call	??3@YAXPAX@Z				; operator delete
	add	esp, 4
$LN10@unordered_@2:
	mov	eax, DWORD PTR [esi+36]
	push	eax
	mov	DWORD PTR [esi+48], 0
	mov	DWORD PTR [esi+52], 0
	mov	DWORD PTR [esi+56], 0
	call	??3@YAXPAX@Z				; operator delete
	add	esp, 4
	add	esi, 8
	call	?_Tidy@?$list@U?$pair@$$CBII@std@@V?$allocator@U?$pair@$$CBII@std@@@2@@std@@IAEXXZ ; std::list<std::pair<unsigned int const ,unsigned int>,std::allocator<std::pair<unsigned int const ,unsigned int> > >::_Tidy
	mov	ecx, DWORD PTR [esi]
	push	ecx
	call	??3@YAXPAX@Z				; operator delete
	add	esp, 4
	pop	esi
	ret	0
??1?$unordered_map@IIV?$hash@I@tr1@std@@U?$equal_to@I@3@V?$allocator@U?$pair@$$CBII@std@@@3@@tr1@std@@QAE@XZ ENDP ; std::tr1::unordered_map<unsigned int,unsigned int,std::tr1::hash<unsigned int>,std::equal_to<unsigned int>,std::allocator<std::pair<unsigned int const ,unsigned int> > >::~unordered_map<unsigned int,unsigned int,std::tr1::hash<unsigned int>,std::equal_to<unsigned int>,std::allocator<std::pair<unsigned int const ,unsigned int> > >
; Function compile flags: /Ogtpy
; File c:\users\crius\documents\visual studio 2008\projects\dramsimiihg\src\queue.h
;	COMDAT ?at@?$Queue@VfbdFrame@DRAMsimII@@@DRAMsimII@@QBEPBVfbdFrame@2@I@Z
_TEXT	SEGMENT
?at@?$Queue@VfbdFrame@DRAMsimII@@@DRAMsimII@@QBEPBVfbdFrame@2@I@Z PROC ; DRAMsimII::Queue<DRAMsimII::fbdFrame>::at, COMDAT
; _this$ = esi
; _value$ = ecx

; 380  : 			assert(value < count);
; 381  : 			return read(value);

	cmp	ecx, DWORD PTR [esi]
	jge	SHORT $LN4@at@3
	test	ecx, ecx
	jl	SHORT $LN4@at@3
	mov	eax, DWORD PTR [esi+4]
	push	edi
	mov	edi, DWORD PTR [esi+28]
	sub	edi, DWORD PTR [esi+24]
	add	eax, ecx
	sar	edi, 2
	xor	edx, edx
	div	edi
	mov	eax, DWORD PTR [esi+28]
	sub	eax, DWORD PTR [esi+24]
	sar	eax, 2
	mov	edi, edx
	cmp	edi, eax
	jb	SHORT $LN10@at@3
	call	__invalid_parameter_noinfo
$LN10@at@3:
	mov	ecx, DWORD PTR [esi+24]
	mov	eax, DWORD PTR [ecx+edi*4]
	pop	edi

; 382  : 		}

	ret	0

; 380  : 			assert(value < count);
; 381  : 			return read(value);

$LN4@at@3:
	xor	eax, eax

; 382  : 		}

	ret	0
?at@?$Queue@VfbdFrame@DRAMsimII@@@DRAMsimII@@QBEPBVfbdFrame@2@I@Z ENDP ; DRAMsimII::Queue<DRAMsimII::fbdFrame>::at
; Function compile flags: /Ogtpy
; File c:\program files\microsoft visual studio 9.0\vc\include\xtree
_TEXT	ENDS
;	COMDAT ?_Inc@const_iterator@?$_Tree@V?$_Tmap_traits@_KIU?$less@_K@std@@V?$allocator@U?$pair@$$CB_KI@std@@@2@$0A@@std@@@std@@QAEXXZ
_TEXT	SEGMENT
?_Inc@const_iterator@?$_Tree@V?$_Tmap_traits@_KIU?$less@_K@std@@V?$allocator@U?$pair@$$CB_KI@std@@@2@$0A@@std@@@std@@QAEXXZ PROC ; std::_Tree<std::_Tmap_traits<unsigned __int64,unsigned int,std::less<unsigned __int64>,std::allocator<std::pair<unsigned __int64 const ,unsigned int> >,0> >::const_iterator::_Inc, COMDAT
; _this$ = esi

; 378  : 
; 379  :  #if _HAS_ITERATOR_DEBUGGING
; 380  : 			if (this->_Mycont == 0
; 381  : 				|| _Ptr == 0
; 382  : 				|| _Isnil(_Ptr))
; 383  : 				{
; 384  : 				_DEBUG_ERROR("map/set iterator not incrementable");
; 385  : 				_SCL_SECURE_OUT_OF_RANGE;
; 386  : 				}
; 387  :  #else
; 388  : 			_SCL_SECURE_VALIDATE(this->_Has_container());

	cmp	DWORD PTR [esi], 0
	jne	SHORT $LN7@Inc@6
	call	__invalid_parameter_noinfo
$LN7@Inc@6:

; 389  : 			if (_Isnil(_Ptr))

	mov	eax, DWORD PTR [esi+4]
	cmp	BYTE PTR [eax+33], 0
	je	SHORT $LN6@Inc@6

; 390  : 				{
; 391  : 				_SCL_SECURE_OUT_OF_RANGE;

	jmp	__invalid_parameter_noinfo
$LN6@Inc@6:

; 392  : 				// end() shouldn't be incremented, don't move if _SCL_SECURE is not turned on
; 393  : 				}
; 394  :  #endif /* _HAS_ITERATOR_DEBUGGING */
; 395  : 
; 396  : 			else if (!_Isnil(_Right(_Ptr)))

	mov	ecx, DWORD PTR [eax+8]
	cmp	BYTE PTR [ecx+33], 0
	jne	SHORT $LN37@Inc@6

; 397  : 				_Ptr = _Min(_Right(_Ptr));	// ==> smallest of right subtree

	mov	eax, DWORD PTR [ecx]
	cmp	BYTE PTR [eax+33], 0
	jne	SHORT $LN20@Inc@6
	npad	7
$LL21@Inc@6:
	mov	ecx, eax
	mov	eax, DWORD PTR [ecx]
	cmp	BYTE PTR [eax+33], 0
	je	SHORT $LL21@Inc@6
$LN20@Inc@6:
	mov	DWORD PTR [esi+4], ecx

; 405  : 				}
; 406  : 			}

	ret	0
$LN37@Inc@6:

; 398  : 			else
; 399  : 				{	// climb looking for right subtree
; 400  : 				_Nodeptr _Pnode;
; 401  : 				while (!_Isnil(_Pnode = _Parent(_Ptr))
; 402  : 					&& _Ptr == _Right(_Pnode))

	mov	eax, DWORD PTR [eax+4]
	cmp	BYTE PTR [eax+33], 0
	jne	SHORT $LN1@Inc@6
$LL2@Inc@6:
	mov	ecx, DWORD PTR [esi+4]
	cmp	ecx, DWORD PTR [eax+8]
	jne	SHORT $LN1@Inc@6

; 403  : 					_Ptr = _Pnode;	// ==> parent while right subtree

	mov	DWORD PTR [esi+4], eax
	mov	edx, eax
	mov	eax, DWORD PTR [edx+4]
	cmp	BYTE PTR [eax+33], 0
	je	SHORT $LL2@Inc@6
$LN1@Inc@6:

; 404  : 				_Ptr = _Pnode;	// ==> parent (head if end())

	mov	DWORD PTR [esi+4], eax

; 405  : 				}
; 406  : 			}

	ret	0
?_Inc@const_iterator@?$_Tree@V?$_Tmap_traits@_KIU?$less@_K@std@@V?$allocator@U?$pair@$$CB_KI@std@@@2@$0A@@std@@@std@@QAEXXZ ENDP ; std::_Tree<std::_Tmap_traits<unsigned __int64,unsigned int,std::less<unsigned __int64>,std::allocator<std::pair<unsigned __int64 const ,unsigned int> >,0> >::const_iterator::_Inc
; Function compile flags: /Ogtpy
_TEXT	ENDS
;	COMDAT ?_Inc@const_iterator@?$_Tree@V?$_Tmap_traits@_KVDelayCounter@Statistics@DRAMsimII@@U?$less@_K@std@@V?$allocator@U?$pair@$$CB_KVDelayCounter@Statistics@DRAMsimII@@@std@@@5@$0A@@std@@@std@@QAEXXZ
_TEXT	SEGMENT
?_Inc@const_iterator@?$_Tree@V?$_Tmap_traits@_KVDelayCounter@Statistics@DRAMsimII@@U?$less@_K@std@@V?$allocator@U?$pair@$$CB_KVDelayCounter@Statistics@DRAMsimII@@@std@@@5@$0A@@std@@@std@@QAEXXZ PROC ; std::_Tree<std::_Tmap_traits<unsigned __int64,DRAMsimII::Statistics::DelayCounter,std::less<unsigned __int64>,std::allocator<std::pair<unsigned __int64 const ,DRAMsimII::Statistics::DelayCounter> >,0> >::const_iterator::_Inc, COMDAT
; _this$ = esi

; 378  : 
; 379  :  #if _HAS_ITERATOR_DEBUGGING
; 380  : 			if (this->_Mycont == 0
; 381  : 				|| _Ptr == 0
; 382  : 				|| _Isnil(_Ptr))
; 383  : 				{
; 384  : 				_DEBUG_ERROR("map/set iterator not incrementable");
; 385  : 				_SCL_SECURE_OUT_OF_RANGE;
; 386  : 				}
; 387  :  #else
; 388  : 			_SCL_SECURE_VALIDATE(this->_Has_container());

	cmp	DWORD PTR [esi], 0
	jne	SHORT $LN7@Inc@7
	call	__invalid_parameter_noinfo
$LN7@Inc@7:

; 389  : 			if (_Isnil(_Ptr))

	mov	eax, DWORD PTR [esi+4]
	cmp	BYTE PTR [eax+41], 0
	je	SHORT $LN6@Inc@7

; 390  : 				{
; 391  : 				_SCL_SECURE_OUT_OF_RANGE;

	jmp	__invalid_parameter_noinfo
$LN6@Inc@7:

; 392  : 				// end() shouldn't be incremented, don't move if _SCL_SECURE is not turned on
; 393  : 				}
; 394  :  #endif /* _HAS_ITERATOR_DEBUGGING */
; 395  : 
; 396  : 			else if (!_Isnil(_Right(_Ptr)))

	mov	ecx, DWORD PTR [eax+8]
	cmp	BYTE PTR [ecx+41], 0
	jne	SHORT $LN37@Inc@7

; 397  : 				_Ptr = _Min(_Right(_Ptr));	// ==> smallest of right subtree

	mov	eax, DWORD PTR [ecx]
	cmp	BYTE PTR [eax+41], 0
	jne	SHORT $LN20@Inc@7
	npad	7
$LL21@Inc@7:
	mov	ecx, eax
	mov	eax, DWORD PTR [ecx]
	cmp	BYTE PTR [eax+41], 0
	je	SHORT $LL21@Inc@7
$LN20@Inc@7:
	mov	DWORD PTR [esi+4], ecx

; 405  : 				}
; 406  : 			}

	ret	0
$LN37@Inc@7:

; 398  : 			else
; 399  : 				{	// climb looking for right subtree
; 400  : 				_Nodeptr _Pnode;
; 401  : 				while (!_Isnil(_Pnode = _Parent(_Ptr))
; 402  : 					&& _Ptr == _Right(_Pnode))

	mov	eax, DWORD PTR [eax+4]
	cmp	BYTE PTR [eax+41], 0
	jne	SHORT $LN1@Inc@7
$LL2@Inc@7:
	mov	ecx, DWORD PTR [esi+4]
	cmp	ecx, DWORD PTR [eax+8]
	jne	SHORT $LN1@Inc@7

; 403  : 					_Ptr = _Pnode;	// ==> parent while right subtree

	mov	DWORD PTR [esi+4], eax
	mov	edx, eax
	mov	eax, DWORD PTR [edx+4]
	cmp	BYTE PTR [eax+41], 0
	je	SHORT $LL2@Inc@7
$LN1@Inc@7:

; 404  : 				_Ptr = _Pnode;	// ==> parent (head if end())

	mov	DWORD PTR [esi+4], eax

; 405  : 				}
; 406  : 			}

	ret	0
?_Inc@const_iterator@?$_Tree@V?$_Tmap_traits@_KVDelayCounter@Statistics@DRAMsimII@@U?$less@_K@std@@V?$allocator@U?$pair@$$CB_KVDelayCounter@Statistics@DRAMsimII@@@std@@@5@$0A@@std@@@std@@QAEXXZ ENDP ; std::_Tree<std::_Tmap_traits<unsigned __int64,DRAMsimII::Statistics::DelayCounter,std::less<unsigned __int64>,std::allocator<std::pair<unsigned __int64 const ,DRAMsimII::Statistics::DelayCounter> >,0> >::const_iterator::_Inc
; Function compile flags: /Ogtpy
_TEXT	ENDS
;	COMDAT ??Econst_iterator@?$_Tree@V?$_Tmap_traits@_KIU?$less@_K@std@@V?$allocator@U?$pair@$$CB_KI@std@@@2@$0A@@std@@@std@@QAEAAV012@XZ
_TEXT	SEGMENT
??Econst_iterator@?$_Tree@V?$_Tmap_traits@_KIU?$less@_K@std@@V?$allocator@U?$pair@$$CB_KI@std@@@2@$0A@@std@@@std@@QAEAAV012@XZ PROC ; std::_Tree<std::_Tmap_traits<unsigned __int64,unsigned int,std::less<unsigned __int64>,std::allocator<std::pair<unsigned __int64 const ,unsigned int> >,0> >::const_iterator::operator++, COMDAT
; _this$ = eax

; 273  : 			{	// preincrement

	push	esi
	mov	esi, eax

; 274  : 			_Inc();

	call	?_Inc@const_iterator@?$_Tree@V?$_Tmap_traits@_KIU?$less@_K@std@@V?$allocator@U?$pair@$$CB_KI@std@@@2@$0A@@std@@@std@@QAEXXZ ; std::_Tree<std::_Tmap_traits<unsigned __int64,unsigned int,std::less<unsigned __int64>,std::allocator<std::pair<unsigned __int64 const ,unsigned int> >,0> >::const_iterator::_Inc

; 275  : 			return (*this);

	mov	eax, esi
	pop	esi

; 276  : 			}

	ret	0
??Econst_iterator@?$_Tree@V?$_Tmap_traits@_KIU?$less@_K@std@@V?$allocator@U?$pair@$$CB_KI@std@@@2@$0A@@std@@@std@@QAEAAV012@XZ ENDP ; std::_Tree<std::_Tmap_traits<unsigned __int64,unsigned int,std::less<unsigned __int64>,std::allocator<std::pair<unsigned __int64 const ,unsigned int> >,0> >::const_iterator::operator++
; Function compile flags: /Ogtpy
_TEXT	ENDS
;	COMDAT ??Econst_iterator@?$_Tree@V?$_Tmap_traits@_KVDelayCounter@Statistics@DRAMsimII@@U?$less@_K@std@@V?$allocator@U?$pair@$$CB_KVDelayCounter@Statistics@DRAMsimII@@@std@@@5@$0A@@std@@@std@@QAEAAV012@XZ
_TEXT	SEGMENT
??Econst_iterator@?$_Tree@V?$_Tmap_traits@_KVDelayCounter@Statistics@DRAMsimII@@U?$less@_K@std@@V?$allocator@U?$pair@$$CB_KVDelayCounter@Statistics@DRAMsimII@@@std@@@5@$0A@@std@@@std@@QAEAAV012@XZ PROC ; std::_Tree<std::_Tmap_traits<unsigned __int64,DRAMsimII::Statistics::DelayCounter,std::less<unsigned __int64>,std::allocator<std::pair<unsigned __int64 const ,DRAMsimII::Statistics::DelayCounter> >,0> >::const_iterator::operator++, COMDAT
; _this$ = eax

; 273  : 			{	// preincrement

	push	esi
	mov	esi, eax

; 274  : 			_Inc();

	call	?_Inc@const_iterator@?$_Tree@V?$_Tmap_traits@_KVDelayCounter@Statistics@DRAMsimII@@U?$less@_K@std@@V?$allocator@U?$pair@$$CB_KVDelayCounter@Statistics@DRAMsimII@@@std@@@5@$0A@@std@@@std@@QAEXXZ ; std::_Tree<std::_Tmap_traits<unsigned __int64,DRAMsimII::Statistics::DelayCounter,std::less<unsigned __int64>,std::allocator<std::pair<unsigned __int64 const ,DRAMsimII::Statistics::DelayCounter> >,0> >::const_iterator::_Inc

; 275  : 			return (*this);

	mov	eax, esi
	pop	esi

; 276  : 			}

	ret	0
??Econst_iterator@?$_Tree@V?$_Tmap_traits@_KVDelayCounter@Statistics@DRAMsimII@@U?$less@_K@std@@V?$allocator@U?$pair@$$CB_KVDelayCounter@Statistics@DRAMsimII@@@std@@@5@$0A@@std@@@std@@QAEAAV012@XZ ENDP ; std::_Tree<std::_Tmap_traits<unsigned __int64,DRAMsimII::Statistics::DelayCounter,std::less<unsigned __int64>,std::allocator<std::pair<unsigned __int64 const ,DRAMsimII::Statistics::DelayCounter> >,0> >::const_iterator::operator++
; Function compile flags: /Ogtpy
_TEXT	ENDS
;	COMDAT ?_Rrotate@?$_Tree@V?$_Tmap_traits@_KIU?$less@_K@std@@V?$allocator@U?$pair@$$CB_KI@std@@@2@$0A@@std@@@std@@IAEXPAU_Node@?$_Tree_nod@V?$_Tmap_traits@_KIU?$less@_K@std@@V?$allocator@U?$pair@$$CB_KI@std@@@2@$0A@@std@@@2@@Z
_TEXT	SEGMENT
_this$ = 8						; size = 4
?_Rrotate@?$_Tree@V?$_Tmap_traits@_KIU?$less@_K@std@@V?$allocator@U?$pair@$$CB_KI@std@@@2@$0A@@std@@@std@@IAEXPAU_Node@?$_Tree_nod@V?$_Tmap_traits@_KIU?$less@_K@std@@V?$allocator@U?$pair@$$CB_KI@std@@@2@$0A@@std@@@2@@Z PROC ; std::_Tree<std::_Tmap_traits<unsigned __int64,unsigned int,std::less<unsigned __int64>,std::allocator<std::pair<unsigned __int64 const ,unsigned int> >,0> >::_Rrotate, COMDAT
; __Wherenode$ = ecx

; 1330 : 		_Nodeptr _Pnode = _Left(_Wherenode);

	mov	eax, DWORD PTR [ecx]

; 1331 : 		_Left(_Wherenode) = _Right(_Pnode);

	mov	edx, DWORD PTR [eax+8]
	mov	DWORD PTR [ecx], edx

; 1332 : 
; 1333 : 		if (!_Isnil(_Right(_Pnode)))

	mov	edx, DWORD PTR [eax+8]
	cmp	BYTE PTR [edx+33], 0
	jne	SHORT $LN5@Rrotate@5

; 1334 : 			_Parent(_Right(_Pnode)) = _Wherenode;

	mov	DWORD PTR [edx+4], ecx
$LN5@Rrotate@5:

; 1335 : 		_Parent(_Pnode) = _Parent(_Wherenode);

	mov	edx, DWORD PTR [ecx+4]
	mov	DWORD PTR [eax+4], edx

; 1336 : 
; 1337 : 		if (_Wherenode == _Root())

	mov	edx, DWORD PTR _this$[esp-4]
	mov	edx, DWORD PTR [edx+24]
	cmp	ecx, DWORD PTR [edx+4]
	jne	SHORT $LN4@Rrotate@5

; 1338 : 			_Root() = _Pnode;

	mov	DWORD PTR [edx+4], eax

; 1343 : 
; 1344 : 		_Right(_Pnode) = _Wherenode;

	mov	DWORD PTR [eax+8], ecx

; 1345 : 		_Parent(_Wherenode) = _Pnode;

	mov	DWORD PTR [ecx+4], eax

; 1346 : 		}

	ret	4
$LN4@Rrotate@5:

; 1339 : 		else if (_Wherenode == _Right(_Parent(_Wherenode)))

	mov	edx, DWORD PTR [ecx+4]
	cmp	ecx, DWORD PTR [edx+8]
	jne	SHORT $LN2@Rrotate@5

; 1340 : 			_Right(_Parent(_Wherenode)) = _Pnode;

	mov	DWORD PTR [edx+8], eax

; 1343 : 
; 1344 : 		_Right(_Pnode) = _Wherenode;

	mov	DWORD PTR [eax+8], ecx

; 1345 : 		_Parent(_Wherenode) = _Pnode;

	mov	DWORD PTR [ecx+4], eax

; 1346 : 		}

	ret	4
$LN2@Rrotate@5:

; 1341 : 		else
; 1342 : 			_Left(_Parent(_Wherenode)) = _Pnode;

	mov	DWORD PTR [edx], eax

; 1343 : 
; 1344 : 		_Right(_Pnode) = _Wherenode;

	mov	DWORD PTR [eax+8], ecx

; 1345 : 		_Parent(_Wherenode) = _Pnode;

	mov	DWORD PTR [ecx+4], eax

; 1346 : 		}

	ret	4
?_Rrotate@?$_Tree@V?$_Tmap_traits@_KIU?$less@_K@std@@V?$allocator@U?$pair@$$CB_KI@std@@@2@$0A@@std@@@std@@IAEXPAU_Node@?$_Tree_nod@V?$_Tmap_traits@_KIU?$less@_K@std@@V?$allocator@U?$pair@$$CB_KI@std@@@2@$0A@@std@@@2@@Z ENDP ; std::_Tree<std::_Tmap_traits<unsigned __int64,unsigned int,std::less<unsigned __int64>,std::allocator<std::pair<unsigned __int64 const ,unsigned int> >,0> >::_Rrotate
; Function compile flags: /Ogtpy
_TEXT	ENDS
;	COMDAT ?_Rrotate@?$_Tree@V?$_Tmap_traits@_KVDelayCounter@Statistics@DRAMsimII@@U?$less@_K@std@@V?$allocator@U?$pair@$$CB_KVDelayCounter@Statistics@DRAMsimII@@@std@@@5@$0A@@std@@@std@@IAEXPAU_Node@?$_Tree_nod@V?$_Tmap_traits@_KVDelayCounter@Statistics@DRAMsimII@@U?$less@_K@std@@V?$allocator@U?$pair@$$CB_KVDelayCounter@Statistics@DRAMsimII@@@std@@@5@$0A@@std@@@2@@Z
_TEXT	SEGMENT
_this$ = 8						; size = 4
?_Rrotate@?$_Tree@V?$_Tmap_traits@_KVDelayCounter@Statistics@DRAMsimII@@U?$less@_K@std@@V?$allocator@U?$pair@$$CB_KVDelayCounter@Statistics@DRAMsimII@@@std@@@5@$0A@@std@@@std@@IAEXPAU_Node@?$_Tree_nod@V?$_Tmap_traits@_KVDelayCounter@Statistics@DRAMsimII@@U?$less@_K@std@@V?$allocator@U?$pair@$$CB_KVDelayCounter@Statistics@DRAMsimII@@@std@@@5@$0A@@std@@@2@@Z PROC ; std::_Tree<std::_Tmap_traits<unsigned __int64,DRAMsimII::Statistics::DelayCounter,std::less<unsigned __int64>,std::allocator<std::pair<unsigned __int64 const ,DRAMsimII::Statistics::DelayCounter> >,0> >::_Rrotate, COMDAT
; __Wherenode$ = ecx

; 1330 : 		_Nodeptr _Pnode = _Left(_Wherenode);

	mov	eax, DWORD PTR [ecx]

; 1331 : 		_Left(_Wherenode) = _Right(_Pnode);

	mov	edx, DWORD PTR [eax+8]
	mov	DWORD PTR [ecx], edx

; 1332 : 
; 1333 : 		if (!_Isnil(_Right(_Pnode)))

	mov	edx, DWORD PTR [eax+8]
	cmp	BYTE PTR [edx+41], 0
	jne	SHORT $LN5@Rrotate@6

; 1334 : 			_Parent(_Right(_Pnode)) = _Wherenode;

	mov	DWORD PTR [edx+4], ecx
$LN5@Rrotate@6:

; 1335 : 		_Parent(_Pnode) = _Parent(_Wherenode);

	mov	edx, DWORD PTR [ecx+4]
	mov	DWORD PTR [eax+4], edx

; 1336 : 
; 1337 : 		if (_Wherenode == _Root())

	mov	edx, DWORD PTR _this$[esp-4]
	mov	edx, DWORD PTR [edx+24]
	cmp	ecx, DWORD PTR [edx+4]
	jne	SHORT $LN4@Rrotate@6

; 1338 : 			_Root() = _Pnode;

	mov	DWORD PTR [edx+4], eax

; 1343 : 
; 1344 : 		_Right(_Pnode) = _Wherenode;

	mov	DWORD PTR [eax+8], ecx

; 1345 : 		_Parent(_Wherenode) = _Pnode;

	mov	DWORD PTR [ecx+4], eax

; 1346 : 		}

	ret	4
$LN4@Rrotate@6:

; 1339 : 		else if (_Wherenode == _Right(_Parent(_Wherenode)))

	mov	edx, DWORD PTR [ecx+4]
	cmp	ecx, DWORD PTR [edx+8]
	jne	SHORT $LN2@Rrotate@6

; 1340 : 			_Right(_Parent(_Wherenode)) = _Pnode;

	mov	DWORD PTR [edx+8], eax

; 1343 : 
; 1344 : 		_Right(_Pnode) = _Wherenode;

	mov	DWORD PTR [eax+8], ecx

; 1345 : 		_Parent(_Wherenode) = _Pnode;

	mov	DWORD PTR [ecx+4], eax

; 1346 : 		}

	ret	4
$LN2@Rrotate@6:

; 1341 : 		else
; 1342 : 			_Left(_Parent(_Wherenode)) = _Pnode;

	mov	DWORD PTR [edx], eax

; 1343 : 
; 1344 : 		_Right(_Pnode) = _Wherenode;

	mov	DWORD PTR [eax+8], ecx

; 1345 : 		_Parent(_Wherenode) = _Pnode;

	mov	DWORD PTR [ecx+4], eax

; 1346 : 		}

	ret	4
?_Rrotate@?$_Tree@V?$_Tmap_traits@_KVDelayCounter@Statistics@DRAMsimII@@U?$less@_K@std@@V?$allocator@U?$pair@$$CB_KVDelayCounter@Statistics@DRAMsimII@@@std@@@5@$0A@@std@@@std@@IAEXPAU_Node@?$_Tree_nod@V?$_Tmap_traits@_KVDelayCounter@Statistics@DRAMsimII@@U?$less@_K@std@@V?$allocator@U?$pair@$$CB_KVDelayCounter@Statistics@DRAMsimII@@@std@@@5@$0A@@std@@@2@@Z ENDP ; std::_Tree<std::_Tmap_traits<unsigned __int64,DRAMsimII::Statistics::DelayCounter,std::less<unsigned __int64>,std::allocator<std::pair<unsigned __int64 const ,DRAMsimII::Statistics::DelayCounter> >,0> >::_Rrotate
; Function compile flags: /Ogtpy
_TEXT	ENDS
;	COMDAT ??9const_iterator@?$_Tree@V?$_Tmap_traits@_KIU?$less@_K@std@@V?$allocator@U?$pair@$$CB_KI@std@@@2@$0A@@std@@@std@@QBE_NABV012@@Z
_TEXT	SEGMENT
??9const_iterator@?$_Tree@V?$_Tmap_traits@_KIU?$less@_K@std@@V?$allocator@U?$pair@$$CB_KI@std@@@2@$0A@@std@@@std@@QBE_NABV012@@Z PROC ; std::_Tree<std::_Tmap_traits<unsigned __int64,unsigned int,std::less<unsigned __int64>,std::allocator<std::pair<unsigned __int64 const ,unsigned int> >,0> >::const_iterator::operator!=, COMDAT
; _this$ = edi
; __Right$ = esi

; 316  : 			return (!(*this == _Right));

	mov	eax, DWORD PTR [edi]
	test	eax, eax
	je	SHORT $LN3@operator@185
	cmp	eax, DWORD PTR [esi]
	je	SHORT $LN4@operator@185
$LN3@operator@185:
	call	__invalid_parameter_noinfo
$LN4@operator@185:
	mov	eax, DWORD PTR [edi+4]
	xor	ecx, ecx
	cmp	eax, DWORD PTR [esi+4]
	setne	cl
	mov	al, cl

; 317  : 			}

	ret	0
??9const_iterator@?$_Tree@V?$_Tmap_traits@_KIU?$less@_K@std@@V?$allocator@U?$pair@$$CB_KI@std@@@2@$0A@@std@@@std@@QBE_NABV012@@Z ENDP ; std::_Tree<std::_Tmap_traits<unsigned __int64,unsigned int,std::less<unsigned __int64>,std::allocator<std::pair<unsigned __int64 const ,unsigned int> >,0> >::const_iterator::operator!=
; Function compile flags: /Ogtpy
_TEXT	ENDS
;	COMDAT ??Econst_iterator@?$_Tree@V?$_Tmap_traits@_KIU?$less@_K@std@@V?$allocator@U?$pair@$$CB_KI@std@@@2@$0A@@std@@@std@@QAE?AV012@H@Z
_TEXT	SEGMENT
??Econst_iterator@?$_Tree@V?$_Tmap_traits@_KIU?$less@_K@std@@V?$allocator@U?$pair@$$CB_KI@std@@@2@$0A@@std@@@std@@QAE?AV012@H@Z PROC ; std::_Tree<std::_Tmap_traits<unsigned __int64,unsigned int,std::less<unsigned __int64>,std::allocator<std::pair<unsigned __int64 const ,unsigned int> >,0> >::const_iterator::operator++, COMDAT
; _this$ = eax
; ___$ReturnUdt$ = edi

; 279  : 			{	// postincrement

	push	esi
	mov	esi, eax

; 280  : 			const_iterator _Tmp = *this;

	mov	eax, DWORD PTR [esi]
	mov	ecx, DWORD PTR [esi+4]
	mov	DWORD PTR [edi], eax
	mov	DWORD PTR [edi+4], ecx

; 281  : 			++*this;

	call	?_Inc@const_iterator@?$_Tree@V?$_Tmap_traits@_KIU?$less@_K@std@@V?$allocator@U?$pair@$$CB_KI@std@@@2@$0A@@std@@@std@@QAEXXZ ; std::_Tree<std::_Tmap_traits<unsigned __int64,unsigned int,std::less<unsigned __int64>,std::allocator<std::pair<unsigned __int64 const ,unsigned int> >,0> >::const_iterator::_Inc

; 282  : 			return (_Tmp);

	mov	eax, edi
	pop	esi

; 283  : 			}

	ret	0
??Econst_iterator@?$_Tree@V?$_Tmap_traits@_KIU?$less@_K@std@@V?$allocator@U?$pair@$$CB_KI@std@@@2@$0A@@std@@@std@@QAE?AV012@H@Z ENDP ; std::_Tree<std::_Tmap_traits<unsigned __int64,unsigned int,std::less<unsigned __int64>,std::allocator<std::pair<unsigned __int64 const ,unsigned int> >,0> >::const_iterator::operator++
; Function compile flags: /Ogtpy
_TEXT	ENDS
;	COMDAT ??9const_iterator@?$_Tree@V?$_Tmap_traits@_KVDelayCounter@Statistics@DRAMsimII@@U?$less@_K@std@@V?$allocator@U?$pair@$$CB_KVDelayCounter@Statistics@DRAMsimII@@@std@@@5@$0A@@std@@@std@@QBE_NABV012@@Z
_TEXT	SEGMENT
??9const_iterator@?$_Tree@V?$_Tmap_traits@_KVDelayCounter@Statistics@DRAMsimII@@U?$less@_K@std@@V?$allocator@U?$pair@$$CB_KVDelayCounter@Statistics@DRAMsimII@@@std@@@5@$0A@@std@@@std@@QBE_NABV012@@Z PROC ; std::_Tree<std::_Tmap_traits<unsigned __int64,DRAMsimII::Statistics::DelayCounter,std::less<unsigned __int64>,std::allocator<std::pair<unsigned __int64 const ,DRAMsimII::Statistics::DelayCounter> >,0> >::const_iterator::operator!=, COMDAT
; _this$ = edi
; __Right$ = esi

; 316  : 			return (!(*this == _Right));

	mov	eax, DWORD PTR [edi]
	test	eax, eax
	je	SHORT $LN3@operator@186
	cmp	eax, DWORD PTR [esi]
	je	SHORT $LN4@operator@186
$LN3@operator@186:
	call	__invalid_parameter_noinfo
$LN4@operator@186:
	mov	eax, DWORD PTR [edi+4]
	xor	ecx, ecx
	cmp	eax, DWORD PTR [esi+4]
	setne	cl
	mov	al, cl

; 317  : 			}

	ret	0
??9const_iterator@?$_Tree@V?$_Tmap_traits@_KVDelayCounter@Statistics@DRAMsimII@@U?$less@_K@std@@V?$allocator@U?$pair@$$CB_KVDelayCounter@Statistics@DRAMsimII@@@std@@@5@$0A@@std@@@std@@QBE_NABV012@@Z ENDP ; std::_Tree<std::_Tmap_traits<unsigned __int64,DRAMsimII::Statistics::DelayCounter,std::less<unsigned __int64>,std::allocator<std::pair<unsigned __int64 const ,DRAMsimII::Statistics::DelayCounter> >,0> >::const_iterator::operator!=
; Function compile flags: /Ogtpy
_TEXT	ENDS
;	COMDAT ??Econst_iterator@?$_Tree@V?$_Tmap_traits@_KVDelayCounter@Statistics@DRAMsimII@@U?$less@_K@std@@V?$allocator@U?$pair@$$CB_KVDelayCounter@Statistics@DRAMsimII@@@std@@@5@$0A@@std@@@std@@QAE?AV012@H@Z
_TEXT	SEGMENT
??Econst_iterator@?$_Tree@V?$_Tmap_traits@_KVDelayCounter@Statistics@DRAMsimII@@U?$less@_K@std@@V?$allocator@U?$pair@$$CB_KVDelayCounter@Statistics@DRAMsimII@@@std@@@5@$0A@@std@@@std@@QAE?AV012@H@Z PROC ; std::_Tree<std::_Tmap_traits<unsigned __int64,DRAMsimII::Statistics::DelayCounter,std::less<unsigned __int64>,std::allocator<std::pair<unsigned __int64 const ,DRAMsimII::Statistics::DelayCounter> >,0> >::const_iterator::operator++, COMDAT
; _this$ = eax
; ___$ReturnUdt$ = edi

; 279  : 			{	// postincrement

	push	esi
	mov	esi, eax

; 280  : 			const_iterator _Tmp = *this;

	mov	eax, DWORD PTR [esi]
	mov	ecx, DWORD PTR [esi+4]
	mov	DWORD PTR [edi], eax
	mov	DWORD PTR [edi+4], ecx

; 281  : 			++*this;

	call	?_Inc@const_iterator@?$_Tree@V?$_Tmap_traits@_KVDelayCounter@Statistics@DRAMsimII@@U?$less@_K@std@@V?$allocator@U?$pair@$$CB_KVDelayCounter@Statistics@DRAMsimII@@@std@@@5@$0A@@std@@@std@@QAEXXZ ; std::_Tree<std::_Tmap_traits<unsigned __int64,DRAMsimII::Statistics::DelayCounter,std::less<unsigned __int64>,std::allocator<std::pair<unsigned __int64 const ,DRAMsimII::Statistics::DelayCounter> >,0> >::const_iterator::_Inc

; 282  : 			return (_Tmp);

	mov	eax, edi
	pop	esi

; 283  : 			}

	ret	0
??Econst_iterator@?$_Tree@V?$_Tmap_traits@_KVDelayCounter@Statistics@DRAMsimII@@U?$less@_K@std@@V?$allocator@U?$pair@$$CB_KVDelayCounter@Statistics@DRAMsimII@@@std@@@5@$0A@@std@@@std@@QAE?AV012@H@Z ENDP ; std::_Tree<std::_Tmap_traits<unsigned __int64,DRAMsimII::Statistics::DelayCounter,std::less<unsigned __int64>,std::allocator<std::pair<unsigned __int64 const ,DRAMsimII::Statistics::DelayCounter> >,0> >::const_iterator::operator++
; Function compile flags: /Ogtpy
; File c:\program files\microsoft visual studio 9.0\vc\include\xutility
_TEXT	ENDS
;	COMDAT ??0?$_Container_base_aux_alloc_real@V?$allocator@VfbdChannel@DRAMsimII@@@std@@@std@@IAE@V?$allocator@VfbdChannel@DRAMsimII@@@1@@Z
_TEXT	SEGMENT
__Al$ = 8						; size = 1
??0?$_Container_base_aux_alloc_real@V?$allocator@VfbdChannel@DRAMsimII@@@std@@@std@@IAE@V?$allocator@VfbdChannel@DRAMsimII@@@1@@Z PROC ; std::_Container_base_aux_alloc_real<std::allocator<DRAMsimII::fbdChannel> >::_Container_base_aux_alloc_real<std::allocator<DRAMsimII::fbdChannel> >, COMDAT
; _this$ = esi

; 420  : 		_Myownedaux = new (_Alaux.allocate(1)) _Aux_cont(this);

	push	4
	call	??2@YAPAXI@Z				; operator new
	add	esp, 4
	test	eax, eax
	je	SHORT $LN3@Container_@16
	mov	DWORD PTR [eax], esi
	mov	DWORD PTR [esi], eax

; 421  : 		}

	mov	eax, esi
	ret	4
$LN3@Container_@16:

; 420  : 		_Myownedaux = new (_Alaux.allocate(1)) _Aux_cont(this);

	xor	eax, eax
	mov	DWORD PTR [esi], eax

; 421  : 		}

	mov	eax, esi
	ret	4
??0?$_Container_base_aux_alloc_real@V?$allocator@VfbdChannel@DRAMsimII@@@std@@@std@@IAE@V?$allocator@VfbdChannel@DRAMsimII@@@1@@Z ENDP ; std::_Container_base_aux_alloc_real<std::allocator<DRAMsimII::fbdChannel> >::_Container_base_aux_alloc_real<std::allocator<DRAMsimII::fbdChannel> >
; Function compile flags: /Ogtpy
; File c:\program files\microsoft visual studio 9.0\vc\include\vector
_TEXT	ENDS
;	COMDAT ??0?$_Vector_val@VfbdChannel@DRAMsimII@@V?$allocator@VfbdChannel@DRAMsimII@@@std@@@std@@IAE@V?$allocator@VfbdChannel@DRAMsimII@@@1@@Z
_TEXT	SEGMENT
__Al$ = 8						; size = 1
??0?$_Vector_val@VfbdChannel@DRAMsimII@@V?$allocator@VfbdChannel@DRAMsimII@@@std@@@std@@IAE@V?$allocator@VfbdChannel@DRAMsimII@@@1@@Z PROC ; std::_Vector_val<DRAMsimII::fbdChannel,std::allocator<DRAMsimII::fbdChannel> >::_Vector_val<DRAMsimII::fbdChannel,std::allocator<DRAMsimII::fbdChannel> >, COMDAT
; _this$ = esi

; 425  : 		{	// construct allocator from _Al

	push	4
	call	??2@YAPAXI@Z				; operator new
	add	esp, 4
	test	eax, eax
	je	SHORT $LN8@Vector_val@9
	mov	DWORD PTR [eax], esi
	mov	DWORD PTR [esi], eax

; 426  : 		}

	mov	eax, esi
	ret	4

; 425  : 		{	// construct allocator from _Al

$LN8@Vector_val@9:
	xor	eax, eax
	mov	DWORD PTR [esi], eax

; 426  : 		}

	mov	eax, esi
	ret	4
??0?$_Vector_val@VfbdChannel@DRAMsimII@@V?$allocator@VfbdChannel@DRAMsimII@@@std@@@std@@IAE@V?$allocator@VfbdChannel@DRAMsimII@@@1@@Z ENDP ; std::_Vector_val<DRAMsimII::fbdChannel,std::allocator<DRAMsimII::fbdChannel> >::_Vector_val<DRAMsimII::fbdChannel,std::allocator<DRAMsimII::fbdChannel> >
; Function compile flags: /Ogtpy
; File c:\program files\microsoft visual studio 9.0\vc\include\stdexcept
;	COMDAT ??1out_of_range@std@@UAE@XZ
_TEXT	SEGMENT
??1out_of_range@std@@UAE@XZ PROC			; std::out_of_range::~out_of_range, COMDAT
; _this$ = ecx

; 133  : 		{	// destroy the object

	push	esi
	mov	esi, ecx

; 134  : 		}

	mov	DWORD PTR [esi], OFFSET ??_7logic_error@std@@6B@
	cmp	DWORD PTR [esi+36], 16			; 00000010H
	jb	SHORT $LN21@out_of_ran
	mov	eax, DWORD PTR [esi+16]
	push	eax
	call	??3@YAXPAX@Z				; operator delete
	add	esp, 4
$LN21@out_of_ran:
	xor	eax, eax
	mov	DWORD PTR [esi+36], 15			; 0000000fH
	mov	DWORD PTR [esi+32], eax
	mov	BYTE PTR [esi+16], al
	mov	ecx, esi
	pop	esi
	jmp	??1exception@std@@UAE@XZ		; std::exception::~exception
??1out_of_range@std@@UAE@XZ ENDP			; std::out_of_range::~out_of_range
; Function compile flags: /Ogtpy
;	COMDAT ??0out_of_range@std@@QAE@ABV01@@Z
_TEXT	SEGMENT
___that$ = 8						; size = 4
??0out_of_range@std@@QAE@ABV01@@Z PROC			; std::out_of_range::out_of_range, COMDAT
; _this$ = ecx
	mov	eax, DWORD PTR ___that$[esp-4]
	push	esi
	push	eax
	mov	esi, ecx
	call	??0logic_error@std@@QAE@ABV01@@Z
	mov	DWORD PTR [esi], OFFSET ??_7out_of_range@std@@6B@
	mov	eax, esi
	pop	esi
	ret	4
??0out_of_range@std@@QAE@ABV01@@Z ENDP			; std::out_of_range::out_of_range
; Function compile flags: /Ogtpy
_TEXT	ENDS
;	COMDAT ??_Gout_of_range@std@@UAEPAXI@Z
_TEXT	SEGMENT
___flags$ = 8						; size = 4
??_Gout_of_range@std@@UAEPAXI@Z PROC			; std::out_of_range::`scalar deleting destructor', COMDAT
; _this$ = ecx
	push	esi
	mov	esi, ecx
	mov	DWORD PTR [esi], OFFSET ??_7logic_error@std@@6B@
	cmp	DWORD PTR [esi+36], 16			; 00000010H
	jb	SHORT $LN24@scalar@78
	mov	eax, DWORD PTR [esi+16]
	push	eax
	call	??3@YAXPAX@Z				; operator delete
	add	esp, 4
$LN24@scalar@78:
	xor	eax, eax
	mov	DWORD PTR [esi+36], 15			; 0000000fH
	mov	DWORD PTR [esi+32], eax
	mov	ecx, esi
	mov	BYTE PTR [esi+16], al
	call	??1exception@std@@UAE@XZ		; std::exception::~exception
	test	BYTE PTR ___flags$[esp], 1
	je	SHORT $LN34@scalar@78
	push	esi
	call	??3@YAXPAX@Z				; operator delete
	add	esp, 4
$LN34@scalar@78:
	mov	eax, esi
	pop	esi
	ret	4
??_Gout_of_range@std@@UAEPAXI@Z ENDP			; std::out_of_range::`scalar deleting destructor'
; Function compile flags: /Ogtpy
_TEXT	ENDS
;	COMDAT ??0out_of_range@std@@QAE@ABV?$basic_string@DU?$char_traits@D@std@@V?$allocator@D@2@@1@@Z
_TEXT	SEGMENT
__Message$ = 8						; size = 4
??0out_of_range@std@@QAE@ABV?$basic_string@DU?$char_traits@D@std@@V?$allocator@D@2@@1@@Z PROC ; std::out_of_range::out_of_range, COMDAT
; _this$ = ecx

; 129  : 		{	// construct from message string

	mov	eax, DWORD PTR __Message$[esp-4]
	push	esi
	push	eax
	mov	esi, ecx
	call	??0logic_error@std@@QAE@ABV?$basic_string@DU?$char_traits@D@std@@V?$allocator@D@2@@1@@Z ; std::logic_error::logic_error
	mov	DWORD PTR [esi], OFFSET ??_7out_of_range@std@@6B@

; 130  : 		}

	mov	eax, esi
	pop	esi
	ret	4
??0out_of_range@std@@QAE@ABV?$basic_string@DU?$char_traits@D@std@@V?$allocator@D@2@@1@@Z ENDP ; std::out_of_range::out_of_range
;	COMDAT xdata$x
xdata$x	SEGMENT
__unwindtable$?_Xlen@?$vector@VfbdChannel@DRAMsimII@@V?$allocator@VfbdChannel@DRAMsimII@@@std@@@std@@KAXXZ DD 0ffffffffH
	DD	FLAT:__unwindfunclet$?_Xlen@?$vector@VfbdChannel@DRAMsimII@@V?$allocator@VfbdChannel@DRAMsimII@@@std@@@std@@KAXXZ$0
__ehfuncinfo$?_Xlen@?$vector@VfbdChannel@DRAMsimII@@V?$allocator@VfbdChannel@DRAMsimII@@@std@@@std@@KAXXZ DD 019930522H
	DD	01H
	DD	FLAT:__unwindtable$?_Xlen@?$vector@VfbdChannel@DRAMsimII@@V?$allocator@VfbdChannel@DRAMsimII@@@std@@@std@@KAXXZ
	DD	2 DUP(00H)
	DD	2 DUP(00H)
	DD	00H
	DD	01H
; Function compile flags: /Ogtpy
; File c:\program files\microsoft visual studio 9.0\vc\include\vector
xdata$x	ENDS
;	COMDAT ?_Xlen@?$vector@VfbdChannel@DRAMsimII@@V?$allocator@VfbdChannel@DRAMsimII@@@std@@@std@@KAXXZ
_TEXT	SEGMENT
$T528873 = -80						; size = 28
$T528872 = -52						; size = 40
__$EHRec$ = -12						; size = 12
?_Xlen@?$vector@VfbdChannel@DRAMsimII@@V?$allocator@VfbdChannel@DRAMsimII@@@std@@@std@@KAXXZ PROC ; std::vector<DRAMsimII::fbdChannel,std::allocator<DRAMsimII::fbdChannel> >::_Xlen, COMDAT

; 1259 : 		{	// report a length_error

	push	-1
	push	__ehhandler$?_Xlen@?$vector@VfbdChannel@DRAMsimII@@V?$allocator@VfbdChannel@DRAMsimII@@@std@@@std@@KAXXZ
	mov	eax, DWORD PTR fs:0
	push	eax
	sub	esp, 68					; 00000044H
	mov	eax, DWORD PTR ___security_cookie
	xor	eax, esp
	push	eax
	lea	eax, DWORD PTR __$EHRec$[esp+84]
	mov	DWORD PTR fs:0, eax

; 1260 : 		_THROW(length_error, "vector<T> too long");

	push	18					; 00000012H
	push	OFFSET ??_C@_0BD@OLBABOEK@vector?$DMT?$DO?5too?5long?$AA@
	lea	ecx, DWORD PTR $T528873[esp+92]
	mov	DWORD PTR $T528873[esp+116], 15		; 0000000fH
	mov	DWORD PTR $T528873[esp+112], 0
	mov	BYTE PTR $T528873[esp+96], 0
	call	?assign@?$basic_string@DU?$char_traits@D@std@@V?$allocator@D@2@@std@@QAEAAV12@PBDI@Z ; std::basic_string<char,std::char_traits<char>,std::allocator<char> >::assign
	lea	eax, DWORD PTR $T528873[esp+84]
	push	eax
	lea	ecx, DWORD PTR $T528872[esp+88]
	mov	DWORD PTR __$EHRec$[esp+96], 0
	call	??0logic_error@std@@QAE@ABV?$basic_string@DU?$char_traits@D@std@@V?$allocator@D@2@@1@@Z ; std::logic_error::logic_error
	push	OFFSET __TI3?AVlength_error@std@@
	lea	ecx, DWORD PTR $T528872[esp+88]
	push	ecx
	mov	DWORD PTR $T528872[esp+92], OFFSET ??_7length_error@std@@6B@
	call	__CxxThrowException@8
$LN45@Xlen@8:
$LN44@Xlen@8:
	int	3
_TEXT	ENDS
;	COMDAT text$x
text$x	SEGMENT
__unwindfunclet$?_Xlen@?$vector@VfbdChannel@DRAMsimII@@V?$allocator@VfbdChannel@DRAMsimII@@@std@@@std@@KAXXZ$0:
	lea	ecx, DWORD PTR $T528873[ebp]
	jmp	??1?$basic_string@DU?$char_traits@D@std@@V?$allocator@D@2@@std@@QAE@XZ ; std::basic_string<char,std::char_traits<char>,std::allocator<char> >::~basic_string<char,std::char_traits<char>,std::allocator<char> >
__ehhandler$?_Xlen@?$vector@VfbdChannel@DRAMsimII@@V?$allocator@VfbdChannel@DRAMsimII@@@std@@@std@@KAXXZ:
	mov	edx, DWORD PTR [esp+8]
	lea	eax, DWORD PTR [edx-68]
	mov	ecx, DWORD PTR [edx-72]
	xor	ecx, eax
	call	@__security_check_cookie@4
	mov	eax, OFFSET __ehfuncinfo$?_Xlen@?$vector@VfbdChannel@DRAMsimII@@V?$allocator@VfbdChannel@DRAMsimII@@@std@@@std@@KAXXZ
	jmp	___CxxFrameHandler3
text$x	ENDS
?_Xlen@?$vector@VfbdChannel@DRAMsimII@@V?$allocator@VfbdChannel@DRAMsimII@@@std@@@std@@KAXXZ ENDP ; std::vector<DRAMsimII::fbdChannel,std::allocator<DRAMsimII::fbdChannel> >::_Xlen
;	COMDAT xdata$x
; File c:\program files\microsoft visual studio 9.0\vc\include\xutility
xdata$x	SEGMENT
__unwindtable$?erase@?$_Tree@V?$_Tmap_traits@_KIU?$less@_K@std@@V?$allocator@U?$pair@$$CB_KI@std@@@2@$0A@@std@@@std@@QAE?AViterator@12@Vconst_iterator@12@@Z DD 0ffffffffH
	DD	FLAT:__unwindfunclet$?erase@?$_Tree@V?$_Tmap_traits@_KIU?$less@_K@std@@V?$allocator@U?$pair@$$CB_KI@std@@@2@$0A@@std@@@std@@QAE?AViterator@12@Vconst_iterator@12@@Z$0
__ehfuncinfo$?erase@?$_Tree@V?$_Tmap_traits@_KIU?$less@_K@std@@V?$allocator@U?$pair@$$CB_KI@std@@@2@$0A@@std@@@std@@QAE?AViterator@12@Vconst_iterator@12@@Z DD 019930522H
	DD	01H
	DD	FLAT:__unwindtable$?erase@?$_Tree@V?$_Tmap_traits@_KIU?$less@_K@std@@V?$allocator@U?$pair@$$CB_KI@std@@@2@$0A@@std@@@std@@QAE?AViterator@12@Vconst_iterator@12@@Z
	DD	2 DUP(00H)
	DD	2 DUP(00H)
	DD	00H
	DD	01H
; Function compile flags: /Ogtpy
; File c:\program files\microsoft visual studio 9.0\vc\include\xtree
xdata$x	ENDS
;	COMDAT ?erase@?$_Tree@V?$_Tmap_traits@_KIU?$less@_K@std@@V?$allocator@U?$pair@$$CB_KI@std@@@2@$0A@@std@@@std@@QAE?AViterator@12@Vconst_iterator@12@@Z
_TEXT	SEGMENT
$T529034 = -80						; size = 28
$T529033 = -52						; size = 40
__$EHRec$ = -12						; size = 12
__Erasednode$ = 8					; size = 4
_this$ = 8						; size = 4
___$ReturnUdt$ = 12					; size = 4
__Where$ = 16						; size = 8
?erase@?$_Tree@V?$_Tmap_traits@_KIU?$less@_K@std@@V?$allocator@U?$pair@$$CB_KI@std@@@2@$0A@@std@@@std@@QAE?AViterator@12@Vconst_iterator@12@@Z PROC ; std::_Tree<std::_Tmap_traits<unsigned __int64,unsigned int,std::less<unsigned __int64>,std::allocator<std::pair<unsigned __int64 const ,unsigned int> >,0> >::erase, COMDAT

; 764  : 		{	// erase element at _Where

	push	-1
	push	__ehhandler$?erase@?$_Tree@V?$_Tmap_traits@_KIU?$less@_K@std@@V?$allocator@U?$pair@$$CB_KI@std@@@2@$0A@@std@@@std@@QAE?AViterator@12@Vconst_iterator@12@@Z
	mov	eax, DWORD PTR fs:0
	push	eax
	sub	esp, 68					; 00000044H
	push	ebx
	push	ebp
	push	esi
	push	edi
	mov	eax, DWORD PTR ___security_cookie
	xor	eax, esp
	push	eax
	lea	eax, DWORD PTR __$EHRec$[esp+100]
	mov	DWORD PTR fs:0, eax
	mov	ebp, DWORD PTR _this$[esp+96]

; 765  : 
; 766  :  #if _HAS_ITERATOR_DEBUGGING
; 767  : 		if (_Where._Mycont != this || _Isnil(_Where._Mynode()))
; 768  : 			_DEBUG_ERROR("map/set erase iterator outside range");
; 769  : 		_Nodeptr _Erasednode = _Where._Mynode();	// node to erase
; 770  : 		++_Where;	// save successor iterator for return
; 771  : 		_Orphan_ptr(*this, _Erasednode);
; 772  : 
; 773  :  #else /* _HAS_ITERATOR_DEBUGGING */
; 774  : 		if (_Isnil(_Where._Mynode()))

	mov	eax, DWORD PTR __Where$[esp+100]
	cmp	BYTE PTR [eax+33], 0
	je	SHORT $LN40@erase@25

; 775  : 			_THROW(out_of_range, "invalid map/set<T> iterator");

	push	27					; 0000001bH
	xor	esi, esi
	push	OFFSET ??_C@_0BM@PAPJHAGI@invalid?5map?1set?$DMT?$DO?5iterator?$AA@
	lea	ecx, DWORD PTR $T529034[esp+108]
	mov	DWORD PTR $T529034[esp+132], 15		; 0000000fH
	mov	DWORD PTR $T529034[esp+128], esi
	mov	BYTE PTR $T529034[esp+112], 0
	call	?assign@?$basic_string@DU?$char_traits@D@std@@V?$allocator@D@2@@std@@QAEAAV12@PBDI@Z ; std::basic_string<char,std::char_traits<char>,std::allocator<char> >::assign
	lea	eax, DWORD PTR $T529034[esp+100]
	push	eax
	lea	ecx, DWORD PTR $T529033[esp+104]
	mov	DWORD PTR __$EHRec$[esp+112], esi
	call	??0logic_error@std@@QAE@ABV?$basic_string@DU?$char_traits@D@std@@V?$allocator@D@2@@1@@Z ; std::logic_error::logic_error
	push	OFFSET __TI3?AVout_of_range@std@@
	lea	ecx, DWORD PTR $T529033[esp+104]
	push	ecx
	mov	DWORD PTR $T529033[esp+108], OFFSET ??_7out_of_range@std@@6B@
	call	__CxxThrowException@8
$LN346@erase@25:
$LN40@erase@25:

; 776  : 		_Nodeptr _Erasednode = _Where._Mynode();	// node to erase

	mov	ebx, eax

; 777  : 		++_Where;	// save successor iterator for return

	lea	esi, DWORD PTR __Where$[esp+96]
	mov	DWORD PTR __Erasednode$[esp+96], ebx
	call	?_Inc@const_iterator@?$_Tree@V?$_Tmap_traits@_KIU?$less@_K@std@@V?$allocator@U?$pair@$$CB_KI@std@@@2@$0A@@std@@@std@@QAEXXZ ; std::_Tree<std::_Tmap_traits<unsigned __int64,unsigned int,std::less<unsigned __int64>,std::allocator<std::pair<unsigned __int64 const ,unsigned int> >,0> >::const_iterator::_Inc

; 778  :  #endif /* _HAS_ITERATOR_DEBUGGING */
; 779  : 
; 780  : 		_Nodeptr _Fixnode;	// the node to recolor as needed
; 781  : 		_Nodeptr _Fixnodeparent;	// parent of _Fixnode (which may be nil)
; 782  : 		_Nodeptr _Pnode = _Erasednode;
; 783  : 
; 784  : 		if (_Isnil(_Left(_Pnode)))

	mov	ecx, DWORD PTR [ebx]
	cmp	BYTE PTR [ecx+33], 0
	je	SHORT $LN39@erase@25

; 785  : 			_Fixnode = _Right(_Pnode);	// must stitch up right subtree

	mov	edi, DWORD PTR [ebx+8]
	jmp	SHORT $LN341@erase@25
$LN39@erase@25:

; 786  : 		else if (_Isnil(_Right(_Pnode)))

	mov	edx, DWORD PTR [ebx+8]
	cmp	BYTE PTR [edx+33], 0
	je	SHORT $LN37@erase@25

; 787  : 			_Fixnode = _Left(_Pnode);	// must stitch up left subtree

	mov	edi, ecx

; 788  : 		else

	jmp	SHORT $LN341@erase@25
$LN37@erase@25:

; 789  : 			{	// two subtrees, must lift successor node to replace erased
; 790  : 			_Pnode = _Where._Mynode();	// _Pnode is successor node

	mov	eax, DWORD PTR __Where$[esp+100]

; 791  : 			_Fixnode = _Right(_Pnode);	// _Fixnode is its only subtree

	mov	edi, DWORD PTR [eax+8]
	lea	edx, DWORD PTR [eax+8]

; 792  : 			}
; 793  : 
; 794  : 		if (_Pnode == _Erasednode)

	cmp	eax, ebx
	jne	SHORT $LN35@erase@25
$LN341@erase@25:

; 795  : 			{	// at most one subtree, relink it
; 796  : 			_Fixnodeparent = _Parent(_Erasednode);
; 797  : 			if (!_Isnil(_Fixnode))

	cmp	BYTE PTR [edi+33], 0
	mov	esi, DWORD PTR [ebx+4]
	jne	SHORT $LN34@erase@25

; 798  : 				_Parent(_Fixnode) = _Fixnodeparent;	// link up

	mov	DWORD PTR [edi+4], esi
$LN34@erase@25:

; 799  : 
; 800  : 			if (_Root() == _Erasednode)

	mov	eax, DWORD PTR [ebp+24]
	cmp	DWORD PTR [eax+4], ebx
	jne	SHORT $LN33@erase@25

; 801  : 				_Root() = _Fixnode;	// link down from root

	mov	DWORD PTR [eax+4], edi
	jmp	SHORT $LN30@erase@25
$LN33@erase@25:

; 802  : 			else if (_Left(_Fixnodeparent) == _Erasednode)

	cmp	DWORD PTR [esi], ebx
	jne	SHORT $LN31@erase@25

; 803  : 				_Left(_Fixnodeparent) = _Fixnode;	// link down to left

	mov	DWORD PTR [esi], edi

; 804  : 			else

	jmp	SHORT $LN30@erase@25
$LN31@erase@25:

; 805  : 				_Right(_Fixnodeparent) = _Fixnode;	// link down to right

	mov	DWORD PTR [esi+8], edi
$LN30@erase@25:

; 806  : 
; 807  : 			if (_Lmost() == _Erasednode)

	mov	edx, DWORD PTR [ebp+24]
	cmp	DWORD PTR [edx], ebx
	jne	SHORT $LN29@erase@25

; 808  : 				_Lmost() = _Isnil(_Fixnode)
; 809  : 					? _Fixnodeparent	// smallest is parent of erased node
; 810  : 					: _Min(_Fixnode);	// smallest in relinked subtree

	cmp	BYTE PTR [edi+33], 0
	je	SHORT $LN43@erase@25
	mov	ecx, esi
	jmp	SHORT $LN137@erase@25
$LN43@erase@25:
	mov	eax, DWORD PTR [edi]
	cmp	BYTE PTR [eax+33], 0
	mov	ecx, edi
	jne	SHORT $LN137@erase@25
$LL138@erase@25:
	mov	ecx, eax
	mov	eax, DWORD PTR [ecx]
	cmp	BYTE PTR [eax+33], 0
	je	SHORT $LL138@erase@25
$LN137@erase@25:
	mov	DWORD PTR [edx], ecx
$LN29@erase@25:

; 811  : 
; 812  : 			if (_Rmost() == _Erasednode)

	mov	ebx, DWORD PTR [ebp+24]
	mov	eax, DWORD PTR __Erasednode$[esp+96]
	cmp	DWORD PTR [ebx+8], eax
	jne	SHORT $LN215@erase@25

; 813  : 				_Rmost() = _Isnil(_Fixnode)
; 814  : 					? _Fixnodeparent	// largest is parent of erased node
; 815  : 					: _Max(_Fixnode);	// largest in relinked subtree

	cmp	BYTE PTR [edi+33], 0
	je	SHORT $LN45@erase@25
	mov	eax, esi
	mov	DWORD PTR [ebx+8], eax

; 816  : 			}
; 817  : 		else

	jmp	SHORT $LN215@erase@25
$LN45@erase@25:

; 813  : 				_Rmost() = _Isnil(_Fixnode)
; 814  : 					? _Fixnodeparent	// largest is parent of erased node
; 815  : 					: _Max(_Fixnode);	// largest in relinked subtree

	mov	eax, edi
	call	?_Max@?$_Tree@V?$_Tmap_traits@_KIU?$less@_K@std@@V?$allocator@U?$pair@$$CB_KI@std@@@2@$0A@@std@@@std@@KAPAU_Node@?$_Tree_nod@V?$_Tmap_traits@_KIU?$less@_K@std@@V?$allocator@U?$pair@$$CB_KI@std@@@2@$0A@@std@@@2@PAU342@@Z ; std::_Tree<std::_Tmap_traits<unsigned __int64,unsigned int,std::less<unsigned __int64>,std::allocator<std::pair<unsigned __int64 const ,unsigned int> >,0> >::_Max
	mov	DWORD PTR [ebx+8], eax

; 816  : 			}
; 817  : 		else

	jmp	SHORT $LN215@erase@25
$LN35@erase@25:

; 818  : 			{	// erased has two subtrees, _Pnode is successor to erased
; 819  : 			_Parent(_Left(_Erasednode)) = _Pnode;	// link left up

	mov	DWORD PTR [ecx+4], eax

; 820  : 			_Left(_Pnode) = _Left(_Erasednode);	// link successor down

	mov	ecx, DWORD PTR [ebx]
	mov	DWORD PTR [eax], ecx

; 821  : 
; 822  : 			if (_Pnode == _Right(_Erasednode))

	cmp	eax, DWORD PTR [ebx+8]
	jne	SHORT $LN26@erase@25

; 823  : 				_Fixnodeparent = _Pnode;	// successor is next to erased

	mov	esi, eax

; 824  : 			else

	jmp	SHORT $LN25@erase@25
$LN26@erase@25:

; 825  : 				{	// successor further down, link in place of erased
; 826  : 				_Fixnodeparent = _Parent(_Pnode);	// parent is successor's
; 827  : 				if (!_Isnil(_Fixnode))

	cmp	BYTE PTR [edi+33], 0
	mov	esi, DWORD PTR [eax+4]
	jne	SHORT $LN24@erase@25

; 828  : 					_Parent(_Fixnode) = _Fixnodeparent;	// link fix up

	mov	DWORD PTR [edi+4], esi
$LN24@erase@25:

; 829  : 				_Left(_Fixnodeparent) = _Fixnode;	// link fix down

	mov	DWORD PTR [esi], edi

; 830  : 				_Right(_Pnode) = _Right(_Erasednode);	// link successor down

	mov	ecx, DWORD PTR [ebx+8]
	mov	DWORD PTR [edx], ecx

; 831  : 				_Parent(_Right(_Erasednode)) = _Pnode;	// link right up

	mov	edx, DWORD PTR [ebx+8]
	mov	DWORD PTR [edx+4], eax
$LN25@erase@25:

; 832  : 				}
; 833  : 
; 834  : 			if (_Root() == _Erasednode)

	mov	ecx, DWORD PTR [ebp+24]
	cmp	DWORD PTR [ecx+4], ebx
	jne	SHORT $LN23@erase@25

; 835  : 				_Root() = _Pnode;	// link down from root

	mov	DWORD PTR [ecx+4], eax
	jmp	SHORT $LN20@erase@25
$LN23@erase@25:

; 836  : 			else if (_Left(_Parent(_Erasednode)) == _Erasednode)

	mov	ecx, DWORD PTR [ebx+4]
	cmp	DWORD PTR [ecx], ebx
	jne	SHORT $LN21@erase@25

; 837  : 				_Left(_Parent(_Erasednode)) = _Pnode;	// link down to left

	mov	DWORD PTR [ecx], eax

; 838  : 			else

	jmp	SHORT $LN20@erase@25
$LN21@erase@25:

; 839  : 				_Right(_Parent(_Erasednode)) = _Pnode;	// link down to right

	mov	DWORD PTR [ecx+8], eax
$LN20@erase@25:

; 840  : 
; 841  : 			_Parent(_Pnode) = _Parent(_Erasednode);	// link successor up

	mov	ecx, DWORD PTR [ebx+4]
	mov	DWORD PTR [eax+4], ecx

; 842  : 			_STD swap(_Color(_Pnode), _Color(_Erasednode));	// recolor it

	lea	ecx, DWORD PTR [ebx+32]
	add	eax, 32					; 00000020H
	cmp	eax, ecx
	je	SHORT $LN215@erase@25
	mov	bl, BYTE PTR [ecx]
	mov	dl, BYTE PTR [eax]
	mov	BYTE PTR [eax], bl
	mov	BYTE PTR [ecx], dl
$LN215@erase@25:

; 843  : 			}
; 844  : 
; 845  : 		if (_Color(_Erasednode) == _Black)

	mov	edx, DWORD PTR __Erasednode$[esp+96]
	mov	bl, 1
	cmp	BYTE PTR [edx+32], bl
	jne	$LN19@erase@25

; 846  : 			{	// erasing black link, must recolor/rebalance tree
; 847  : 			for (; _Fixnode != _Root() && _Color(_Fixnode) == _Black;
; 848  : 				_Fixnodeparent = _Parent(_Fixnode))

	mov	eax, DWORD PTR [ebp+24]
	cmp	edi, DWORD PTR [eax+4]
	je	$LN16@erase@25
	npad	1
$LL18@erase@25:
	cmp	BYTE PTR [edi+32], bl
	jne	$LN16@erase@25

; 849  : 				if (_Fixnode == _Left(_Fixnodeparent))

	mov	ecx, DWORD PTR [esi]
	cmp	edi, ecx
	jne	SHORT $LN15@erase@25

; 850  : 					{	// fixup left subtree
; 851  : 					_Pnode = _Right(_Fixnodeparent);

	mov	ecx, DWORD PTR [esi+8]

; 852  : 					if (_Color(_Pnode) == _Red)

	cmp	BYTE PTR [ecx+32], 0
	jne	SHORT $LN14@erase@25

; 853  : 						{	// rotate red up from right subtree
; 854  : 						_Color(_Pnode) = _Black;

	mov	BYTE PTR [ecx+32], bl

; 855  : 						_Color(_Fixnodeparent) = _Red;
; 856  : 						_Lrotate(_Fixnodeparent);

	push	ebp
	mov	ecx, esi
	mov	BYTE PTR [esi+32], 0
	call	?_Lrotate@?$_Tree@V?$_Tmap_traits@_KIU?$less@_K@std@@V?$allocator@U?$pair@$$CB_KI@std@@@2@$0A@@std@@@std@@IAEXPAU_Node@?$_Tree_nod@V?$_Tmap_traits@_KIU?$less@_K@std@@V?$allocator@U?$pair@$$CB_KI@std@@@2@$0A@@std@@@2@@Z ; std::_Tree<std::_Tmap_traits<unsigned __int64,unsigned int,std::less<unsigned __int64>,std::allocator<std::pair<unsigned __int64 const ,unsigned int> >,0> >::_Lrotate

; 857  : 						_Pnode = _Right(_Fixnodeparent);

	mov	ecx, DWORD PTR [esi+8]
$LN14@erase@25:

; 858  : 						}
; 859  : 
; 860  : 					if (_Isnil(_Pnode))

	cmp	BYTE PTR [ecx+33], 0

; 861  : 						_Fixnode = _Fixnodeparent;	// shouldn't happen
; 862  : 					else if (_Color(_Left(_Pnode)) == _Black

	jne	SHORT $LN344@erase@25

; 863  : 						&& _Color(_Right(_Pnode)) == _Black)

	mov	edx, DWORD PTR [ecx]
	cmp	BYTE PTR [edx+32], bl
	jne	SHORT $LN11@erase@25
	mov	eax, DWORD PTR [ecx+8]
	cmp	BYTE PTR [eax+32], bl
	je	SHORT $LN345@erase@25
$LN11@erase@25:

; 864  : 						{	// redden right subtree with black children
; 865  : 						_Color(_Pnode) = _Red;
; 866  : 						_Fixnode = _Fixnodeparent;
; 867  : 						}
; 868  : 					else
; 869  : 						{	// must rearrange right subtree
; 870  : 						if (_Color(_Right(_Pnode)) == _Black)

	mov	edx, DWORD PTR [ecx+8]
	cmp	BYTE PTR [edx+32], bl
	jne	SHORT $LN9@erase@25

; 871  : 							{	// rotate red up from left sub-subtree
; 872  : 							_Color(_Left(_Pnode)) = _Black;

	mov	eax, DWORD PTR [ecx]
	mov	BYTE PTR [eax+32], bl

; 873  : 							_Color(_Pnode) = _Red;
; 874  : 							_Rrotate(_Pnode);

	push	ebp
	mov	BYTE PTR [ecx+32], 0
	call	?_Rrotate@?$_Tree@V?$_Tmap_traits@_KIU?$less@_K@std@@V?$allocator@U?$pair@$$CB_KI@std@@@2@$0A@@std@@@std@@IAEXPAU_Node@?$_Tree_nod@V?$_Tmap_traits@_KIU?$less@_K@std@@V?$allocator@U?$pair@$$CB_KI@std@@@2@$0A@@std@@@2@@Z ; std::_Tree<std::_Tmap_traits<unsigned __int64,unsigned int,std::less<unsigned __int64>,std::allocator<std::pair<unsigned __int64 const ,unsigned int> >,0> >::_Rrotate

; 875  : 							_Pnode = _Right(_Fixnodeparent);

	mov	ecx, DWORD PTR [esi+8]
$LN9@erase@25:

; 876  : 							}
; 877  : 
; 878  : 						_Color(_Pnode) = _Color(_Fixnodeparent);

	mov	dl, BYTE PTR [esi+32]
	mov	BYTE PTR [ecx+32], dl

; 879  : 						_Color(_Fixnodeparent) = _Black;

	mov	BYTE PTR [esi+32], bl

; 880  : 						_Color(_Right(_Pnode)) = _Black;

	mov	eax, DWORD PTR [ecx+8]

; 881  : 						_Lrotate(_Fixnodeparent);

	push	ebp
	mov	ecx, esi
	mov	BYTE PTR [eax+32], bl
	call	?_Lrotate@?$_Tree@V?$_Tmap_traits@_KIU?$less@_K@std@@V?$allocator@U?$pair@$$CB_KI@std@@@2@$0A@@std@@@std@@IAEXPAU_Node@?$_Tree_nod@V?$_Tmap_traits@_KIU?$less@_K@std@@V?$allocator@U?$pair@$$CB_KI@std@@@2@$0A@@std@@@2@@Z ; std::_Tree<std::_Tmap_traits<unsigned __int64,unsigned int,std::less<unsigned __int64>,std::allocator<std::pair<unsigned __int64 const ,unsigned int> >,0> >::_Lrotate

; 882  : 						break;	// tree now recolored/rebalanced

	jmp	SHORT $LN16@erase@25
$LN15@erase@25:

; 883  : 						}
; 884  : 					}
; 885  : 				else
; 886  : 					{	// fixup right subtree
; 887  : 					_Pnode = _Left(_Fixnodeparent);
; 888  : 					if (_Color(_Pnode) == _Red)

	cmp	BYTE PTR [ecx+32], 0
	jne	SHORT $LN7@erase@25

; 889  : 						{	// rotate red up from left subtree
; 890  : 						_Color(_Pnode) = _Black;

	mov	BYTE PTR [ecx+32], bl

; 891  : 						_Color(_Fixnodeparent) = _Red;
; 892  : 						_Rrotate(_Fixnodeparent);

	push	ebp
	mov	ecx, esi
	mov	BYTE PTR [esi+32], 0
	call	?_Rrotate@?$_Tree@V?$_Tmap_traits@_KIU?$less@_K@std@@V?$allocator@U?$pair@$$CB_KI@std@@@2@$0A@@std@@@std@@IAEXPAU_Node@?$_Tree_nod@V?$_Tmap_traits@_KIU?$less@_K@std@@V?$allocator@U?$pair@$$CB_KI@std@@@2@$0A@@std@@@2@@Z ; std::_Tree<std::_Tmap_traits<unsigned __int64,unsigned int,std::less<unsigned __int64>,std::allocator<std::pair<unsigned __int64 const ,unsigned int> >,0> >::_Rrotate

; 893  : 						_Pnode = _Left(_Fixnodeparent);

	mov	ecx, DWORD PTR [esi]
$LN7@erase@25:

; 894  : 						}
; 895  : 					if (_Isnil(_Pnode))

	cmp	BYTE PTR [ecx+33], 0

; 896  : 						_Fixnode = _Fixnodeparent;	// shouldn't happen
; 897  : 					else if (_Color(_Right(_Pnode)) == _Black

	jne	SHORT $LN344@erase@25

; 898  : 						&& _Color(_Left(_Pnode)) == _Black)

	mov	edx, DWORD PTR [ecx+8]
	cmp	BYTE PTR [edx+32], bl
	jne	SHORT $LN4@erase@25
	mov	eax, DWORD PTR [ecx]
	cmp	BYTE PTR [eax+32], bl
	jne	SHORT $LN4@erase@25
$LN345@erase@25:

; 899  : 						{	// redden left subtree with black children
; 900  : 						_Color(_Pnode) = _Red;

	mov	BYTE PTR [ecx+32], 0
$LN344@erase@25:

; 846  : 			{	// erasing black link, must recolor/rebalance tree
; 847  : 			for (; _Fixnode != _Root() && _Color(_Fixnode) == _Black;
; 848  : 				_Fixnodeparent = _Parent(_Fixnode))

	mov	ecx, DWORD PTR [ebp+24]

; 901  : 						_Fixnode = _Fixnodeparent;

	mov	edi, esi
	mov	esi, DWORD PTR [esi+4]
	cmp	edi, DWORD PTR [ecx+4]
	jne	$LL18@erase@25

; 846  : 			{	// erasing black link, must recolor/rebalance tree
; 847  : 			for (; _Fixnode != _Root() && _Color(_Fixnode) == _Black;
; 848  : 				_Fixnodeparent = _Parent(_Fixnode))

	jmp	SHORT $LN16@erase@25
$LN4@erase@25:

; 902  : 						}
; 903  : 					else
; 904  : 						{	// must rearrange left subtree
; 905  : 						if (_Color(_Left(_Pnode)) == _Black)

	mov	edx, DWORD PTR [ecx]
	cmp	BYTE PTR [edx+32], bl
	jne	SHORT $LN2@erase@25

; 906  : 							{	// rotate red up from right sub-subtree
; 907  : 							_Color(_Right(_Pnode)) = _Black;

	mov	eax, DWORD PTR [ecx+8]
	mov	BYTE PTR [eax+32], bl

; 908  : 							_Color(_Pnode) = _Red;
; 909  : 							_Lrotate(_Pnode);

	push	ebp
	mov	BYTE PTR [ecx+32], 0
	call	?_Lrotate@?$_Tree@V?$_Tmap_traits@_KIU?$less@_K@std@@V?$allocator@U?$pair@$$CB_KI@std@@@2@$0A@@std@@@std@@IAEXPAU_Node@?$_Tree_nod@V?$_Tmap_traits@_KIU?$less@_K@std@@V?$allocator@U?$pair@$$CB_KI@std@@@2@$0A@@std@@@2@@Z ; std::_Tree<std::_Tmap_traits<unsigned __int64,unsigned int,std::less<unsigned __int64>,std::allocator<std::pair<unsigned __int64 const ,unsigned int> >,0> >::_Lrotate

; 910  : 							_Pnode = _Left(_Fixnodeparent);

	mov	ecx, DWORD PTR [esi]
$LN2@erase@25:

; 911  : 							}
; 912  : 
; 913  : 						_Color(_Pnode) = _Color(_Fixnodeparent);

	mov	dl, BYTE PTR [esi+32]
	mov	BYTE PTR [ecx+32], dl

; 914  : 						_Color(_Fixnodeparent) = _Black;

	mov	BYTE PTR [esi+32], bl

; 915  : 						_Color(_Left(_Pnode)) = _Black;

	mov	eax, DWORD PTR [ecx]

; 916  : 						_Rrotate(_Fixnodeparent);

	push	ebp
	mov	ecx, esi
	mov	BYTE PTR [eax+32], bl
	call	?_Rrotate@?$_Tree@V?$_Tmap_traits@_KIU?$less@_K@std@@V?$allocator@U?$pair@$$CB_KI@std@@@2@$0A@@std@@@std@@IAEXPAU_Node@?$_Tree_nod@V?$_Tmap_traits@_KIU?$less@_K@std@@V?$allocator@U?$pair@$$CB_KI@std@@@2@$0A@@std@@@2@@Z ; std::_Tree<std::_Tmap_traits<unsigned __int64,unsigned int,std::less<unsigned __int64>,std::allocator<std::pair<unsigned __int64 const ,unsigned int> >,0> >::_Rrotate
$LN16@erase@25:

; 917  : 						break;	// tree now recolored/rebalanced
; 918  : 						}
; 919  : 					}
; 920  : 
; 921  : 			_Color(_Fixnode) = _Black;	// ensure stopping node is black

	mov	BYTE PTR [edi+32], bl
$LN19@erase@25:

; 922  : 			}
; 923  : 
; 924  : 		this->_Alnod.destroy(_Erasednode);	// destroy, free erased node
; 925  : 		this->_Alnod.deallocate(_Erasednode, 1);

	mov	ecx, DWORD PTR __Erasednode$[esp+96]
	push	ecx
	call	??3@YAXPAX@Z				; operator delete

; 926  : 
; 927  : 		if (0 < _Mysize)

	mov	eax, DWORD PTR [ebp+28]
	add	esp, 4
	test	eax, eax
	jbe	SHORT $LN1@erase@25

; 928  : 			--_Mysize;

	dec	eax
	mov	DWORD PTR [ebp+28], eax
$LN1@erase@25:

; 929  : 
; 930  : 		return (_Make_iter(_Where));	// return successor iterator

	mov	edx, DWORD PTR ___$ReturnUdt$[esp+96]
	mov	eax, DWORD PTR __Where$[esp+100]
	mov	ecx, DWORD PTR [ebp]
	mov	DWORD PTR [edx+4], eax
	mov	DWORD PTR [edx], ecx
	mov	eax, edx

; 931  : 		}

	mov	ecx, DWORD PTR __$EHRec$[esp+100]
	mov	DWORD PTR fs:0, ecx
	pop	ecx
	pop	edi
	pop	esi
	pop	ebp
	pop	ebx
	add	esp, 80					; 00000050H
	ret	16					; 00000010H
$LN343@erase@25:
_TEXT	ENDS
;	COMDAT text$x
text$x	SEGMENT
__unwindfunclet$?erase@?$_Tree@V?$_Tmap_traits@_KIU?$less@_K@std@@V?$allocator@U?$pair@$$CB_KI@std@@@2@$0A@@std@@@std@@QAE?AViterator@12@Vconst_iterator@12@@Z$0:
	lea	ecx, DWORD PTR $T529034[ebp]
	jmp	??1?$basic_string@DU?$char_traits@D@std@@V?$allocator@D@2@@std@@QAE@XZ ; std::basic_string<char,std::char_traits<char>,std::allocator<char> >::~basic_string<char,std::char_traits<char>,std::allocator<char> >
__ehhandler$?erase@?$_Tree@V?$_Tmap_traits@_KIU?$less@_K@std@@V?$allocator@U?$pair@$$CB_KI@std@@@2@$0A@@std@@@std@@QAE?AViterator@12@Vconst_iterator@12@@Z:
	mov	edx, DWORD PTR [esp+8]
	lea	eax, DWORD PTR [edx-84]
	mov	ecx, DWORD PTR [edx-88]
	xor	ecx, eax
	call	@__security_check_cookie@4
	mov	eax, OFFSET __ehfuncinfo$?erase@?$_Tree@V?$_Tmap_traits@_KIU?$less@_K@std@@V?$allocator@U?$pair@$$CB_KI@std@@@2@$0A@@std@@@std@@QAE?AViterator@12@Vconst_iterator@12@@Z
	jmp	___CxxFrameHandler3
text$x	ENDS
?erase@?$_Tree@V?$_Tmap_traits@_KIU?$less@_K@std@@V?$allocator@U?$pair@$$CB_KI@std@@@2@$0A@@std@@@std@@QAE?AViterator@12@Vconst_iterator@12@@Z ENDP ; std::_Tree<std::_Tmap_traits<unsigned __int64,unsigned int,std::less<unsigned __int64>,std::allocator<std::pair<unsigned __int64 const ,unsigned int> >,0> >::erase
;	COMDAT xdata$x
; File c:\program files\microsoft visual studio 9.0\vc\include\xutility
xdata$x	SEGMENT
__unwindtable$?erase@?$_Tree@V?$_Tmap_traits@_KVDelayCounter@Statistics@DRAMsimII@@U?$less@_K@std@@V?$allocator@U?$pair@$$CB_KVDelayCounter@Statistics@DRAMsimII@@@std@@@5@$0A@@std@@@std@@QAE?AViterator@12@Vconst_iterator@12@@Z DD 0ffffffffH
	DD	FLAT:__unwindfunclet$?erase@?$_Tree@V?$_Tmap_traits@_KVDelayCounter@Statistics@DRAMsimII@@U?$less@_K@std@@V?$allocator@U?$pair@$$CB_KVDelayCounter@Statistics@DRAMsimII@@@std@@@5@$0A@@std@@@std@@QAE?AViterator@12@Vconst_iterator@12@@Z$0
__ehfuncinfo$?erase@?$_Tree@V?$_Tmap_traits@_KVDelayCounter@Statistics@DRAMsimII@@U?$less@_K@std@@V?$allocator@U?$pair@$$CB_KVDelayCounter@Statistics@DRAMsimII@@@std@@@5@$0A@@std@@@std@@QAE?AViterator@12@Vconst_iterator@12@@Z DD 019930522H
	DD	01H
	DD	FLAT:__unwindtable$?erase@?$_Tree@V?$_Tmap_traits@_KVDelayCounter@Statistics@DRAMsimII@@U?$less@_K@std@@V?$allocator@U?$pair@$$CB_KVDelayCounter@Statistics@DRAMsimII@@@std@@@5@$0A@@std@@@std@@QAE?AViterator@12@Vconst_iterator@12@@Z
	DD	2 DUP(00H)
	DD	2 DUP(00H)
	DD	00H
	DD	01H
; Function compile flags: /Ogtpy
; File c:\program files\microsoft visual studio 9.0\vc\include\xtree
xdata$x	ENDS
;	COMDAT ?erase@?$_Tree@V?$_Tmap_traits@_KVDelayCounter@Statistics@DRAMsimII@@U?$less@_K@std@@V?$allocator@U?$pair@$$CB_KVDelayCounter@Statistics@DRAMsimII@@@std@@@5@$0A@@std@@@std@@QAE?AViterator@12@Vconst_iterator@12@@Z
_TEXT	SEGMENT
$T529653 = -80						; size = 28
$T529652 = -52						; size = 40
__$EHRec$ = -12						; size = 12
__Erasednode$ = 8					; size = 4
_this$ = 8						; size = 4
___$ReturnUdt$ = 12					; size = 4
__Where$ = 16						; size = 8
?erase@?$_Tree@V?$_Tmap_traits@_KVDelayCounter@Statistics@DRAMsimII@@U?$less@_K@std@@V?$allocator@U?$pair@$$CB_KVDelayCounter@Statistics@DRAMsimII@@@std@@@5@$0A@@std@@@std@@QAE?AViterator@12@Vconst_iterator@12@@Z PROC ; std::_Tree<std::_Tmap_traits<unsigned __int64,DRAMsimII::Statistics::DelayCounter,std::less<unsigned __int64>,std::allocator<std::pair<unsigned __int64 const ,DRAMsimII::Statistics::DelayCounter> >,0> >::erase, COMDAT

; 764  : 		{	// erase element at _Where

	push	-1
	push	__ehhandler$?erase@?$_Tree@V?$_Tmap_traits@_KVDelayCounter@Statistics@DRAMsimII@@U?$less@_K@std@@V?$allocator@U?$pair@$$CB_KVDelayCounter@Statistics@DRAMsimII@@@std@@@5@$0A@@std@@@std@@QAE?AViterator@12@Vconst_iterator@12@@Z
	mov	eax, DWORD PTR fs:0
	push	eax
	sub	esp, 68					; 00000044H
	push	ebx
	push	ebp
	push	esi
	push	edi
	mov	eax, DWORD PTR ___security_cookie
	xor	eax, esp
	push	eax
	lea	eax, DWORD PTR __$EHRec$[esp+100]
	mov	DWORD PTR fs:0, eax
	mov	ebp, DWORD PTR _this$[esp+96]

; 765  : 
; 766  :  #if _HAS_ITERATOR_DEBUGGING
; 767  : 		if (_Where._Mycont != this || _Isnil(_Where._Mynode()))
; 768  : 			_DEBUG_ERROR("map/set erase iterator outside range");
; 769  : 		_Nodeptr _Erasednode = _Where._Mynode();	// node to erase
; 770  : 		++_Where;	// save successor iterator for return
; 771  : 		_Orphan_ptr(*this, _Erasednode);
; 772  : 
; 773  :  #else /* _HAS_ITERATOR_DEBUGGING */
; 774  : 		if (_Isnil(_Where._Mynode()))

	mov	eax, DWORD PTR __Where$[esp+100]
	cmp	BYTE PTR [eax+41], 0
	je	SHORT $LN40@erase@26

; 775  : 			_THROW(out_of_range, "invalid map/set<T> iterator");

	push	27					; 0000001bH
	xor	esi, esi
	push	OFFSET ??_C@_0BM@PAPJHAGI@invalid?5map?1set?$DMT?$DO?5iterator?$AA@
	lea	ecx, DWORD PTR $T529653[esp+108]
	mov	DWORD PTR $T529653[esp+132], 15		; 0000000fH
	mov	DWORD PTR $T529653[esp+128], esi
	mov	BYTE PTR $T529653[esp+112], 0
	call	?assign@?$basic_string@DU?$char_traits@D@std@@V?$allocator@D@2@@std@@QAEAAV12@PBDI@Z ; std::basic_string<char,std::char_traits<char>,std::allocator<char> >::assign
	lea	eax, DWORD PTR $T529653[esp+100]
	push	eax
	lea	ecx, DWORD PTR $T529652[esp+104]
	mov	DWORD PTR __$EHRec$[esp+112], esi
	call	??0logic_error@std@@QAE@ABV?$basic_string@DU?$char_traits@D@std@@V?$allocator@D@2@@1@@Z ; std::logic_error::logic_error
	push	OFFSET __TI3?AVout_of_range@std@@
	lea	ecx, DWORD PTR $T529652[esp+104]
	push	ecx
	mov	DWORD PTR $T529652[esp+108], OFFSET ??_7out_of_range@std@@6B@
	call	__CxxThrowException@8
$LN346@erase@26:
$LN40@erase@26:

; 776  : 		_Nodeptr _Erasednode = _Where._Mynode();	// node to erase

	mov	ebx, eax

; 777  : 		++_Where;	// save successor iterator for return

	lea	esi, DWORD PTR __Where$[esp+96]
	mov	DWORD PTR __Erasednode$[esp+96], ebx
	call	?_Inc@const_iterator@?$_Tree@V?$_Tmap_traits@_KVDelayCounter@Statistics@DRAMsimII@@U?$less@_K@std@@V?$allocator@U?$pair@$$CB_KVDelayCounter@Statistics@DRAMsimII@@@std@@@5@$0A@@std@@@std@@QAEXXZ ; std::_Tree<std::_Tmap_traits<unsigned __int64,DRAMsimII::Statistics::DelayCounter,std::less<unsigned __int64>,std::allocator<std::pair<unsigned __int64 const ,DRAMsimII::Statistics::DelayCounter> >,0> >::const_iterator::_Inc

; 778  :  #endif /* _HAS_ITERATOR_DEBUGGING */
; 779  : 
; 780  : 		_Nodeptr _Fixnode;	// the node to recolor as needed
; 781  : 		_Nodeptr _Fixnodeparent;	// parent of _Fixnode (which may be nil)
; 782  : 		_Nodeptr _Pnode = _Erasednode;
; 783  : 
; 784  : 		if (_Isnil(_Left(_Pnode)))

	mov	ecx, DWORD PTR [ebx]
	cmp	BYTE PTR [ecx+41], 0
	je	SHORT $LN39@erase@26

; 785  : 			_Fixnode = _Right(_Pnode);	// must stitch up right subtree

	mov	edi, DWORD PTR [ebx+8]
	jmp	SHORT $LN341@erase@26
$LN39@erase@26:

; 786  : 		else if (_Isnil(_Right(_Pnode)))

	mov	edx, DWORD PTR [ebx+8]
	cmp	BYTE PTR [edx+41], 0
	je	SHORT $LN37@erase@26

; 787  : 			_Fixnode = _Left(_Pnode);	// must stitch up left subtree

	mov	edi, ecx

; 788  : 		else

	jmp	SHORT $LN341@erase@26
$LN37@erase@26:

; 789  : 			{	// two subtrees, must lift successor node to replace erased
; 790  : 			_Pnode = _Where._Mynode();	// _Pnode is successor node

	mov	eax, DWORD PTR __Where$[esp+100]

; 791  : 			_Fixnode = _Right(_Pnode);	// _Fixnode is its only subtree

	mov	edi, DWORD PTR [eax+8]
	lea	edx, DWORD PTR [eax+8]

; 792  : 			}
; 793  : 
; 794  : 		if (_Pnode == _Erasednode)

	cmp	eax, ebx
	jne	SHORT $LN35@erase@26
$LN341@erase@26:

; 795  : 			{	// at most one subtree, relink it
; 796  : 			_Fixnodeparent = _Parent(_Erasednode);
; 797  : 			if (!_Isnil(_Fixnode))

	cmp	BYTE PTR [edi+41], 0
	mov	esi, DWORD PTR [ebx+4]
	jne	SHORT $LN34@erase@26

; 798  : 				_Parent(_Fixnode) = _Fixnodeparent;	// link up

	mov	DWORD PTR [edi+4], esi
$LN34@erase@26:

; 799  : 
; 800  : 			if (_Root() == _Erasednode)

	mov	eax, DWORD PTR [ebp+24]
	cmp	DWORD PTR [eax+4], ebx
	jne	SHORT $LN33@erase@26

; 801  : 				_Root() = _Fixnode;	// link down from root

	mov	DWORD PTR [eax+4], edi
	jmp	SHORT $LN30@erase@26
$LN33@erase@26:

; 802  : 			else if (_Left(_Fixnodeparent) == _Erasednode)

	cmp	DWORD PTR [esi], ebx
	jne	SHORT $LN31@erase@26

; 803  : 				_Left(_Fixnodeparent) = _Fixnode;	// link down to left

	mov	DWORD PTR [esi], edi

; 804  : 			else

	jmp	SHORT $LN30@erase@26
$LN31@erase@26:

; 805  : 				_Right(_Fixnodeparent) = _Fixnode;	// link down to right

	mov	DWORD PTR [esi+8], edi
$LN30@erase@26:

; 806  : 
; 807  : 			if (_Lmost() == _Erasednode)

	mov	edx, DWORD PTR [ebp+24]
	cmp	DWORD PTR [edx], ebx
	jne	SHORT $LN29@erase@26

; 808  : 				_Lmost() = _Isnil(_Fixnode)
; 809  : 					? _Fixnodeparent	// smallest is parent of erased node
; 810  : 					: _Min(_Fixnode);	// smallest in relinked subtree

	cmp	BYTE PTR [edi+41], 0
	je	SHORT $LN43@erase@26
	mov	ecx, esi
	jmp	SHORT $LN137@erase@26
$LN43@erase@26:
	mov	eax, DWORD PTR [edi]
	cmp	BYTE PTR [eax+41], 0
	mov	ecx, edi
	jne	SHORT $LN137@erase@26
$LL138@erase@26:
	mov	ecx, eax
	mov	eax, DWORD PTR [ecx]
	cmp	BYTE PTR [eax+41], 0
	je	SHORT $LL138@erase@26
$LN137@erase@26:
	mov	DWORD PTR [edx], ecx
$LN29@erase@26:

; 811  : 
; 812  : 			if (_Rmost() == _Erasednode)

	mov	ebx, DWORD PTR [ebp+24]
	mov	eax, DWORD PTR __Erasednode$[esp+96]
	cmp	DWORD PTR [ebx+8], eax
	jne	SHORT $LN215@erase@26

; 813  : 				_Rmost() = _Isnil(_Fixnode)
; 814  : 					? _Fixnodeparent	// largest is parent of erased node
; 815  : 					: _Max(_Fixnode);	// largest in relinked subtree

	cmp	BYTE PTR [edi+41], 0
	je	SHORT $LN45@erase@26
	mov	eax, esi
	mov	DWORD PTR [ebx+8], eax

; 816  : 			}
; 817  : 		else

	jmp	SHORT $LN215@erase@26
$LN45@erase@26:

; 813  : 				_Rmost() = _Isnil(_Fixnode)
; 814  : 					? _Fixnodeparent	// largest is parent of erased node
; 815  : 					: _Max(_Fixnode);	// largest in relinked subtree

	mov	eax, edi
	call	?_Max@?$_Tree@V?$_Tmap_traits@_KVDelayCounter@Statistics@DRAMsimII@@U?$less@_K@std@@V?$allocator@U?$pair@$$CB_KVDelayCounter@Statistics@DRAMsimII@@@std@@@5@$0A@@std@@@std@@KAPAU_Node@?$_Tree_nod@V?$_Tmap_traits@_KVDelayCounter@Statistics@DRAMsimII@@U?$less@_K@std@@V?$allocator@U?$pair@$$CB_KVDelayCounter@Statistics@DRAMsimII@@@std@@@5@$0A@@std@@@2@PAU342@@Z ; std::_Tree<std::_Tmap_traits<unsigned __int64,DRAMsimII::Statistics::DelayCounter,std::less<unsigned __int64>,std::allocator<std::pair<unsigned __int64 const ,DRAMsimII::Statistics::DelayCounter> >,0> >::_Max
	mov	DWORD PTR [ebx+8], eax

; 816  : 			}
; 817  : 		else

	jmp	SHORT $LN215@erase@26
$LN35@erase@26:

; 818  : 			{	// erased has two subtrees, _Pnode is successor to erased
; 819  : 			_Parent(_Left(_Erasednode)) = _Pnode;	// link left up

	mov	DWORD PTR [ecx+4], eax

; 820  : 			_Left(_Pnode) = _Left(_Erasednode);	// link successor down

	mov	ecx, DWORD PTR [ebx]
	mov	DWORD PTR [eax], ecx

; 821  : 
; 822  : 			if (_Pnode == _Right(_Erasednode))

	cmp	eax, DWORD PTR [ebx+8]
	jne	SHORT $LN26@erase@26

; 823  : 				_Fixnodeparent = _Pnode;	// successor is next to erased

	mov	esi, eax

; 824  : 			else

	jmp	SHORT $LN25@erase@26
$LN26@erase@26:

; 825  : 				{	// successor further down, link in place of erased
; 826  : 				_Fixnodeparent = _Parent(_Pnode);	// parent is successor's
; 827  : 				if (!_Isnil(_Fixnode))

	cmp	BYTE PTR [edi+41], 0
	mov	esi, DWORD PTR [eax+4]
	jne	SHORT $LN24@erase@26

; 828  : 					_Parent(_Fixnode) = _Fixnodeparent;	// link fix up

	mov	DWORD PTR [edi+4], esi
$LN24@erase@26:

; 829  : 				_Left(_Fixnodeparent) = _Fixnode;	// link fix down

	mov	DWORD PTR [esi], edi

; 830  : 				_Right(_Pnode) = _Right(_Erasednode);	// link successor down

	mov	ecx, DWORD PTR [ebx+8]
	mov	DWORD PTR [edx], ecx

; 831  : 				_Parent(_Right(_Erasednode)) = _Pnode;	// link right up

	mov	edx, DWORD PTR [ebx+8]
	mov	DWORD PTR [edx+4], eax
$LN25@erase@26:

; 832  : 				}
; 833  : 
; 834  : 			if (_Root() == _Erasednode)

	mov	ecx, DWORD PTR [ebp+24]
	cmp	DWORD PTR [ecx+4], ebx
	jne	SHORT $LN23@erase@26

; 835  : 				_Root() = _Pnode;	// link down from root

	mov	DWORD PTR [ecx+4], eax
	jmp	SHORT $LN20@erase@26
$LN23@erase@26:

; 836  : 			else if (_Left(_Parent(_Erasednode)) == _Erasednode)

	mov	ecx, DWORD PTR [ebx+4]
	cmp	DWORD PTR [ecx], ebx
	jne	SHORT $LN21@erase@26

; 837  : 				_Left(_Parent(_Erasednode)) = _Pnode;	// link down to left

	mov	DWORD PTR [ecx], eax

; 838  : 			else

	jmp	SHORT $LN20@erase@26
$LN21@erase@26:

; 839  : 				_Right(_Parent(_Erasednode)) = _Pnode;	// link down to right

	mov	DWORD PTR [ecx+8], eax
$LN20@erase@26:

; 840  : 
; 841  : 			_Parent(_Pnode) = _Parent(_Erasednode);	// link successor up

	mov	ecx, DWORD PTR [ebx+4]
	mov	DWORD PTR [eax+4], ecx

; 842  : 			_STD swap(_Color(_Pnode), _Color(_Erasednode));	// recolor it

	lea	ecx, DWORD PTR [ebx+40]
	add	eax, 40					; 00000028H
	cmp	eax, ecx
	je	SHORT $LN215@erase@26
	mov	bl, BYTE PTR [ecx]
	mov	dl, BYTE PTR [eax]
	mov	BYTE PTR [eax], bl
	mov	BYTE PTR [ecx], dl
$LN215@erase@26:

; 843  : 			}
; 844  : 
; 845  : 		if (_Color(_Erasednode) == _Black)

	mov	edx, DWORD PTR __Erasednode$[esp+96]
	mov	bl, 1
	cmp	BYTE PTR [edx+40], bl
	jne	$LN19@erase@26

; 846  : 			{	// erasing black link, must recolor/rebalance tree
; 847  : 			for (; _Fixnode != _Root() && _Color(_Fixnode) == _Black;
; 848  : 				_Fixnodeparent = _Parent(_Fixnode))

	mov	eax, DWORD PTR [ebp+24]
	cmp	edi, DWORD PTR [eax+4]
	je	$LN16@erase@26
	npad	1
$LL18@erase@26:
	cmp	BYTE PTR [edi+40], bl
	jne	$LN16@erase@26

; 849  : 				if (_Fixnode == _Left(_Fixnodeparent))

	mov	ecx, DWORD PTR [esi]
	cmp	edi, ecx
	jne	SHORT $LN15@erase@26

; 850  : 					{	// fixup left subtree
; 851  : 					_Pnode = _Right(_Fixnodeparent);

	mov	ecx, DWORD PTR [esi+8]

; 852  : 					if (_Color(_Pnode) == _Red)

	cmp	BYTE PTR [ecx+40], 0
	jne	SHORT $LN14@erase@26

; 853  : 						{	// rotate red up from right subtree
; 854  : 						_Color(_Pnode) = _Black;

	mov	BYTE PTR [ecx+40], bl

; 855  : 						_Color(_Fixnodeparent) = _Red;
; 856  : 						_Lrotate(_Fixnodeparent);

	push	ebp
	mov	ecx, esi
	mov	BYTE PTR [esi+40], 0
	call	?_Lrotate@?$_Tree@V?$_Tmap_traits@_KVDelayCounter@Statistics@DRAMsimII@@U?$less@_K@std@@V?$allocator@U?$pair@$$CB_KVDelayCounter@Statistics@DRAMsimII@@@std@@@5@$0A@@std@@@std@@IAEXPAU_Node@?$_Tree_nod@V?$_Tmap_traits@_KVDelayCounter@Statistics@DRAMsimII@@U?$less@_K@std@@V?$allocator@U?$pair@$$CB_KVDelayCounter@Statistics@DRAMsimII@@@std@@@5@$0A@@std@@@2@@Z ; std::_Tree<std::_Tmap_traits<unsigned __int64,DRAMsimII::Statistics::DelayCounter,std::less<unsigned __int64>,std::allocator<std::pair<unsigned __int64 const ,DRAMsimII::Statistics::DelayCounter> >,0> >::_Lrotate

; 857  : 						_Pnode = _Right(_Fixnodeparent);

	mov	ecx, DWORD PTR [esi+8]
$LN14@erase@26:

; 858  : 						}
; 859  : 
; 860  : 					if (_Isnil(_Pnode))

	cmp	BYTE PTR [ecx+41], 0

; 861  : 						_Fixnode = _Fixnodeparent;	// shouldn't happen
; 862  : 					else if (_Color(_Left(_Pnode)) == _Black

	jne	SHORT $LN344@erase@26

; 863  : 						&& _Color(_Right(_Pnode)) == _Black)

	mov	edx, DWORD PTR [ecx]
	cmp	BYTE PTR [edx+40], bl
	jne	SHORT $LN11@erase@26
	mov	eax, DWORD PTR [ecx+8]
	cmp	BYTE PTR [eax+40], bl
	je	SHORT $LN345@erase@26
$LN11@erase@26:

; 864  : 						{	// redden right subtree with black children
; 865  : 						_Color(_Pnode) = _Red;
; 866  : 						_Fixnode = _Fixnodeparent;
; 867  : 						}
; 868  : 					else
; 869  : 						{	// must rearrange right subtree
; 870  : 						if (_Color(_Right(_Pnode)) == _Black)

	mov	edx, DWORD PTR [ecx+8]
	cmp	BYTE PTR [edx+40], bl
	jne	SHORT $LN9@erase@26

; 871  : 							{	// rotate red up from left sub-subtree
; 872  : 							_Color(_Left(_Pnode)) = _Black;

	mov	eax, DWORD PTR [ecx]
	mov	BYTE PTR [eax+40], bl

; 873  : 							_Color(_Pnode) = _Red;
; 874  : 							_Rrotate(_Pnode);

	push	ebp
	mov	BYTE PTR [ecx+40], 0
	call	?_Rrotate@?$_Tree@V?$_Tmap_traits@_KVDelayCounter@Statistics@DRAMsimII@@U?$less@_K@std@@V?$allocator@U?$pair@$$CB_KVDelayCounter@Statistics@DRAMsimII@@@std@@@5@$0A@@std@@@std@@IAEXPAU_Node@?$_Tree_nod@V?$_Tmap_traits@_KVDelayCounter@Statistics@DRAMsimII@@U?$less@_K@std@@V?$allocator@U?$pair@$$CB_KVDelayCounter@Statistics@DRAMsimII@@@std@@@5@$0A@@std@@@2@@Z ; std::_Tree<std::_Tmap_traits<unsigned __int64,DRAMsimII::Statistics::DelayCounter,std::less<unsigned __int64>,std::allocator<std::pair<unsigned __int64 const ,DRAMsimII::Statistics::DelayCounter> >,0> >::_Rrotate

; 875  : 							_Pnode = _Right(_Fixnodeparent);

	mov	ecx, DWORD PTR [esi+8]
$LN9@erase@26:

; 876  : 							}
; 877  : 
; 878  : 						_Color(_Pnode) = _Color(_Fixnodeparent);

	mov	dl, BYTE PTR [esi+40]
	mov	BYTE PTR [ecx+40], dl

; 879  : 						_Color(_Fixnodeparent) = _Black;

	mov	BYTE PTR [esi+40], bl

; 880  : 						_Color(_Right(_Pnode)) = _Black;

	mov	eax, DWORD PTR [ecx+8]

; 881  : 						_Lrotate(_Fixnodeparent);

	push	ebp
	mov	ecx, esi
	mov	BYTE PTR [eax+40], bl
	call	?_Lrotate@?$_Tree@V?$_Tmap_traits@_KVDelayCounter@Statistics@DRAMsimII@@U?$less@_K@std@@V?$allocator@U?$pair@$$CB_KVDelayCounter@Statistics@DRAMsimII@@@std@@@5@$0A@@std@@@std@@IAEXPAU_Node@?$_Tree_nod@V?$_Tmap_traits@_KVDelayCounter@Statistics@DRAMsimII@@U?$less@_K@std@@V?$allocator@U?$pair@$$CB_KVDelayCounter@Statistics@DRAMsimII@@@std@@@5@$0A@@std@@@2@@Z ; std::_Tree<std::_Tmap_traits<unsigned __int64,DRAMsimII::Statistics::DelayCounter,std::less<unsigned __int64>,std::allocator<std::pair<unsigned __int64 const ,DRAMsimII::Statistics::DelayCounter> >,0> >::_Lrotate

; 882  : 						break;	// tree now recolored/rebalanced

	jmp	SHORT $LN16@erase@26
$LN15@erase@26:

; 883  : 						}
; 884  : 					}
; 885  : 				else
; 886  : 					{	// fixup right subtree
; 887  : 					_Pnode = _Left(_Fixnodeparent);
; 888  : 					if (_Color(_Pnode) == _Red)

	cmp	BYTE PTR [ecx+40], 0
	jne	SHORT $LN7@erase@26

; 889  : 						{	// rotate red up from left subtree
; 890  : 						_Color(_Pnode) = _Black;

	mov	BYTE PTR [ecx+40], bl

; 891  : 						_Color(_Fixnodeparent) = _Red;
; 892  : 						_Rrotate(_Fixnodeparent);

	push	ebp
	mov	ecx, esi
	mov	BYTE PTR [esi+40], 0
	call	?_Rrotate@?$_Tree@V?$_Tmap_traits@_KVDelayCounter@Statistics@DRAMsimII@@U?$less@_K@std@@V?$allocator@U?$pair@$$CB_KVDelayCounter@Statistics@DRAMsimII@@@std@@@5@$0A@@std@@@std@@IAEXPAU_Node@?$_Tree_nod@V?$_Tmap_traits@_KVDelayCounter@Statistics@DRAMsimII@@U?$less@_K@std@@V?$allocator@U?$pair@$$CB_KVDelayCounter@Statistics@DRAMsimII@@@std@@@5@$0A@@std@@@2@@Z ; std::_Tree<std::_Tmap_traits<unsigned __int64,DRAMsimII::Statistics::DelayCounter,std::less<unsigned __int64>,std::allocator<std::pair<unsigned __int64 const ,DRAMsimII::Statistics::DelayCounter> >,0> >::_Rrotate

; 893  : 						_Pnode = _Left(_Fixnodeparent);

	mov	ecx, DWORD PTR [esi]
$LN7@erase@26:

; 894  : 						}
; 895  : 					if (_Isnil(_Pnode))

	cmp	BYTE PTR [ecx+41], 0

; 896  : 						_Fixnode = _Fixnodeparent;	// shouldn't happen
; 897  : 					else if (_Color(_Right(_Pnode)) == _Black

	jne	SHORT $LN344@erase@26

; 898  : 						&& _Color(_Left(_Pnode)) == _Black)

	mov	edx, DWORD PTR [ecx+8]
	cmp	BYTE PTR [edx+40], bl
	jne	SHORT $LN4@erase@26
	mov	eax, DWORD PTR [ecx]
	cmp	BYTE PTR [eax+40], bl
	jne	SHORT $LN4@erase@26
$LN345@erase@26:

; 899  : 						{	// redden left subtree with black children
; 900  : 						_Color(_Pnode) = _Red;

	mov	BYTE PTR [ecx+40], 0
$LN344@erase@26:

; 846  : 			{	// erasing black link, must recolor/rebalance tree
; 847  : 			for (; _Fixnode != _Root() && _Color(_Fixnode) == _Black;
; 848  : 				_Fixnodeparent = _Parent(_Fixnode))

	mov	ecx, DWORD PTR [ebp+24]

; 901  : 						_Fixnode = _Fixnodeparent;

	mov	edi, esi
	mov	esi, DWORD PTR [esi+4]
	cmp	edi, DWORD PTR [ecx+4]
	jne	$LL18@erase@26

; 846  : 			{	// erasing black link, must recolor/rebalance tree
; 847  : 			for (; _Fixnode != _Root() && _Color(_Fixnode) == _Black;
; 848  : 				_Fixnodeparent = _Parent(_Fixnode))

	jmp	SHORT $LN16@erase@26
$LN4@erase@26:

; 902  : 						}
; 903  : 					else
; 904  : 						{	// must rearrange left subtree
; 905  : 						if (_Color(_Left(_Pnode)) == _Black)

	mov	edx, DWORD PTR [ecx]
	cmp	BYTE PTR [edx+40], bl
	jne	SHORT $LN2@erase@26

; 906  : 							{	// rotate red up from right sub-subtree
; 907  : 							_Color(_Right(_Pnode)) = _Black;

	mov	eax, DWORD PTR [ecx+8]
	mov	BYTE PTR [eax+40], bl

; 908  : 							_Color(_Pnode) = _Red;
; 909  : 							_Lrotate(_Pnode);

	push	ebp
	mov	BYTE PTR [ecx+40], 0
	call	?_Lrotate@?$_Tree@V?$_Tmap_traits@_KVDelayCounter@Statistics@DRAMsimII@@U?$less@_K@std@@V?$allocator@U?$pair@$$CB_KVDelayCounter@Statistics@DRAMsimII@@@std@@@5@$0A@@std@@@std@@IAEXPAU_Node@?$_Tree_nod@V?$_Tmap_traits@_KVDelayCounter@Statistics@DRAMsimII@@U?$less@_K@std@@V?$allocator@U?$pair@$$CB_KVDelayCounter@Statistics@DRAMsimII@@@std@@@5@$0A@@std@@@2@@Z ; std::_Tree<std::_Tmap_traits<unsigned __int64,DRAMsimII::Statistics::DelayCounter,std::less<unsigned __int64>,std::allocator<std::pair<unsigned __int64 const ,DRAMsimII::Statistics::DelayCounter> >,0> >::_Lrotate

; 910  : 							_Pnode = _Left(_Fixnodeparent);

	mov	ecx, DWORD PTR [esi]
$LN2@erase@26:

; 911  : 							}
; 912  : 
; 913  : 						_Color(_Pnode) = _Color(_Fixnodeparent);

	mov	dl, BYTE PTR [esi+40]
	mov	BYTE PTR [ecx+40], dl

; 914  : 						_Color(_Fixnodeparent) = _Black;

	mov	BYTE PTR [esi+40], bl

; 915  : 						_Color(_Left(_Pnode)) = _Black;

	mov	eax, DWORD PTR [ecx]

; 916  : 						_Rrotate(_Fixnodeparent);

	push	ebp
	mov	ecx, esi
	mov	BYTE PTR [eax+40], bl
	call	?_Rrotate@?$_Tree@V?$_Tmap_traits@_KVDelayCounter@Statistics@DRAMsimII@@U?$less@_K@std@@V?$allocator@U?$pair@$$CB_KVDelayCounter@Statistics@DRAMsimII@@@std@@@5@$0A@@std@@@std@@IAEXPAU_Node@?$_Tree_nod@V?$_Tmap_traits@_KVDelayCounter@Statistics@DRAMsimII@@U?$less@_K@std@@V?$allocator@U?$pair@$$CB_KVDelayCounter@Statistics@DRAMsimII@@@std@@@5@$0A@@std@@@2@@Z ; std::_Tree<std::_Tmap_traits<unsigned __int64,DRAMsimII::Statistics::DelayCounter,std::less<unsigned __int64>,std::allocator<std::pair<unsigned __int64 const ,DRAMsimII::Statistics::DelayCounter> >,0> >::_Rrotate
$LN16@erase@26:

; 917  : 						break;	// tree now recolored/rebalanced
; 918  : 						}
; 919  : 					}
; 920  : 
; 921  : 			_Color(_Fixnode) = _Black;	// ensure stopping node is black

	mov	BYTE PTR [edi+40], bl
$LN19@erase@26:

; 922  : 			}
; 923  : 
; 924  : 		this->_Alnod.destroy(_Erasednode);	// destroy, free erased node
; 925  : 		this->_Alnod.deallocate(_Erasednode, 1);

	mov	ecx, DWORD PTR __Erasednode$[esp+96]
	push	ecx
	call	??3@YAXPAX@Z				; operator delete

; 926  : 
; 927  : 		if (0 < _Mysize)

	mov	eax, DWORD PTR [ebp+28]
	add	esp, 4
	test	eax, eax
	jbe	SHORT $LN1@erase@26

; 928  : 			--_Mysize;

	dec	eax
	mov	DWORD PTR [ebp+28], eax
$LN1@erase@26:

; 929  : 
; 930  : 		return (_Make_iter(_Where));	// return successor iterator

	mov	edx, DWORD PTR ___$ReturnUdt$[esp+96]
	mov	eax, DWORD PTR __Where$[esp+100]
	mov	ecx, DWORD PTR [ebp]
	mov	DWORD PTR [edx+4], eax
	mov	DWORD PTR [edx], ecx
	mov	eax, edx

; 931  : 		}

	mov	ecx, DWORD PTR __$EHRec$[esp+100]
	mov	DWORD PTR fs:0, ecx
	pop	ecx
	pop	edi
	pop	esi
	pop	ebp
	pop	ebx
	add	esp, 80					; 00000050H
	ret	16					; 00000010H
$LN343@erase@26:
_TEXT	ENDS
;	COMDAT text$x
text$x	SEGMENT
__unwindfunclet$?erase@?$_Tree@V?$_Tmap_traits@_KVDelayCounter@Statistics@DRAMsimII@@U?$less@_K@std@@V?$allocator@U?$pair@$$CB_KVDelayCounter@Statistics@DRAMsimII@@@std@@@5@$0A@@std@@@std@@QAE?AViterator@12@Vconst_iterator@12@@Z$0:
	lea	ecx, DWORD PTR $T529653[ebp]
	jmp	??1?$basic_string@DU?$char_traits@D@std@@V?$allocator@D@2@@std@@QAE@XZ ; std::basic_string<char,std::char_traits<char>,std::allocator<char> >::~basic_string<char,std::char_traits<char>,std::allocator<char> >
__ehhandler$?erase@?$_Tree@V?$_Tmap_traits@_KVDelayCounter@Statistics@DRAMsimII@@U?$less@_K@std@@V?$allocator@U?$pair@$$CB_KVDelayCounter@Statistics@DRAMsimII@@@std@@@5@$0A@@std@@@std@@QAE?AViterator@12@Vconst_iterator@12@@Z:
	mov	edx, DWORD PTR [esp+8]
	lea	eax, DWORD PTR [edx-84]
	mov	ecx, DWORD PTR [edx-88]
	xor	ecx, eax
	call	@__security_check_cookie@4
	mov	eax, OFFSET __ehfuncinfo$?erase@?$_Tree@V?$_Tmap_traits@_KVDelayCounter@Statistics@DRAMsimII@@U?$less@_K@std@@V?$allocator@U?$pair@$$CB_KVDelayCounter@Statistics@DRAMsimII@@@std@@@5@$0A@@std@@@std@@QAE?AViterator@12@Vconst_iterator@12@@Z
	jmp	___CxxFrameHandler3
text$x	ENDS
?erase@?$_Tree@V?$_Tmap_traits@_KVDelayCounter@Statistics@DRAMsimII@@U?$less@_K@std@@V?$allocator@U?$pair@$$CB_KVDelayCounter@Statistics@DRAMsimII@@@std@@@5@$0A@@std@@@std@@QAE?AViterator@12@Vconst_iterator@12@@Z ENDP ; std::_Tree<std::_Tmap_traits<unsigned __int64,DRAMsimII::Statistics::DelayCounter,std::less<unsigned __int64>,std::allocator<std::pair<unsigned __int64 const ,DRAMsimII::Statistics::DelayCounter> >,0> >::erase
; Function compile flags: /Ogtpy
; File c:\program files\microsoft visual studio 9.0\vc\include\vector
;	COMDAT ?_Buy@?$vector@VfbdChannel@DRAMsimII@@V?$allocator@VfbdChannel@DRAMsimII@@@std@@@std@@IAE_NI@Z
_TEXT	SEGMENT
?_Buy@?$vector@VfbdChannel@DRAMsimII@@V?$allocator@VfbdChannel@DRAMsimII@@@std@@@std@@IAE_NI@Z PROC ; std::vector<DRAMsimII::fbdChannel,std::allocator<DRAMsimII::fbdChannel> >::_Buy, COMDAT
; _this$ = edi
; __Capacity$ = eax

; 1102 : 		{	// allocate array with _Capacity elements

	push	esi
	mov	esi, eax

; 1103 : 		_Myfirst = 0, _Mylast = 0, _Myend = 0;

	xor	eax, eax
	mov	DWORD PTR [edi+12], eax
	mov	DWORD PTR [edi+16], eax
	mov	DWORD PTR [edi+20], eax

; 1104 : 		if (_Capacity == 0)

	cmp	esi, eax
	jne	SHORT $LN4@Buy@7

; 1105 : 			return (false);

	xor	al, al
	pop	esi

; 1115 : 		}

	ret	0
$LN4@Buy@7:

; 1106 : 		else if (max_size() < _Capacity)

	cmp	esi, 9256395				; 008d3dcbH
	jbe	SHORT $LN2@Buy@7

; 1107 : 			_Xlen();	// result too long

	call	?_Xlen@?$vector@VfbdChannel@DRAMsimII@@V?$allocator@VfbdChannel@DRAMsimII@@@std@@@std@@KAXXZ ; std::vector<DRAMsimII::fbdChannel,std::allocator<DRAMsimII::fbdChannel> >::_Xlen
$LN14@Buy@7:
$LN2@Buy@7:

; 1108 : 		else
; 1109 : 			{	// nonempty array, allocate storage
; 1110 : 			_Myfirst = this->_Alval.allocate(_Capacity);

	mov	ecx, esi
	call	?allocate@?$allocator@VfbdChannel@DRAMsimII@@@std@@QAEPAVfbdChannel@DRAMsimII@@I@Z ; std::allocator<DRAMsimII::fbdChannel>::allocate

; 1111 : 			_Mylast = _Myfirst;
; 1112 : 			_Myend = _Myfirst + _Capacity;

	imul	esi, 464				; 000001d0H
	add	esi, eax
	mov	DWORD PTR [edi+12], eax
	mov	DWORD PTR [edi+16], eax
	mov	DWORD PTR [edi+20], esi

; 1113 : 			}
; 1114 : 		return (true);

	mov	al, 1
	pop	esi

; 1115 : 		}

	ret	0
$LN13@Buy@7:
?_Buy@?$vector@VfbdChannel@DRAMsimII@@V?$allocator@VfbdChannel@DRAMsimII@@@std@@@std@@IAE_NI@Z ENDP ; std::vector<DRAMsimII::fbdChannel,std::allocator<DRAMsimII::fbdChannel> >::_Buy
; Function compile flags: /Ogtpy
; File c:\program files\microsoft visual studio 9.0\vc\include\xtree
_TEXT	ENDS
;	COMDAT ?erase@?$_Tree@V?$_Tmap_traits@_KIU?$less@_K@std@@V?$allocator@U?$pair@$$CB_KI@std@@@2@$0A@@std@@@std@@QAE?AViterator@12@Vconst_iterator@12@0@Z
_TEXT	SEGMENT
$T530295 = -8						; size = 8
___$ReturnUdt$ = 8					; size = 4
__First$ = 12						; size = 8
__Last$ = 20						; size = 8
?erase@?$_Tree@V?$_Tmap_traits@_KIU?$less@_K@std@@V?$allocator@U?$pair@$$CB_KI@std@@@2@$0A@@std@@@std@@QAE?AViterator@12@Vconst_iterator@12@0@Z PROC ; std::_Tree<std::_Tmap_traits<unsigned __int64,unsigned int,std::less<unsigned __int64>,std::allocator<std::pair<unsigned __int64 const ,unsigned int> >,0> >::erase, COMDAT
; _this$ = eax

; 934  : 		{	// erase [_First, _Last)

	sub	esp, 8
	push	ebx

; 935  : 		if (_First == begin() && _Last == end())

	mov	ebx, DWORD PTR __First$[esp+8]
	push	ebp
	push	esi
	push	edi
	mov	edi, eax
	mov	eax, DWORD PTR [edi+24]
	mov	esi, DWORD PTR [eax]
	mov	eax, DWORD PTR [edi]
	test	ebx, ebx
	je	SHORT $LN26@erase@27
	cmp	ebx, eax
	je	SHORT $LN27@erase@27
$LN26@erase@27:
	call	__invalid_parameter_noinfo
	mov	ebx, DWORD PTR __First$[esp+20]
$LN27@erase@27:
	cmp	DWORD PTR __First$[esp+24], esi
	jne	SHORT $LL2@erase@27
	mov	ecx, DWORD PTR __Last$[esp+20]
	mov	esi, DWORD PTR [edi+24]
	mov	eax, DWORD PTR [edi]
	test	ecx, ecx
	je	SHORT $LN49@erase@27
	cmp	ecx, eax
	je	SHORT $LN50@erase@27
$LN49@erase@27:
	call	__invalid_parameter_noinfo
	mov	ebx, DWORD PTR __First$[esp+20]
$LN50@erase@27:
	cmp	DWORD PTR __Last$[esp+24], esi
	jne	SHORT $LL2@erase@27

; 936  : 			{	// erase all
; 937  : 			clear();

	mov	ecx, DWORD PTR [edi+24]
	mov	edx, DWORD PTR [ecx+4]
	push	edx
	mov	ecx, edi
	call	?_Erase@?$_Tree@V?$_Tmap_traits@_KIU?$less@_K@std@@V?$allocator@U?$pair@$$CB_KI@std@@@2@$0A@@std@@@std@@IAEXPAU_Node@?$_Tree_nod@V?$_Tmap_traits@_KIU?$less@_K@std@@V?$allocator@U?$pair@$$CB_KI@std@@@2@$0A@@std@@@2@@Z ; std::_Tree<std::_Tmap_traits<unsigned __int64,unsigned int,std::less<unsigned __int64>,std::allocator<std::pair<unsigned __int64 const ,unsigned int> >,0> >::_Erase
	mov	eax, DWORD PTR [edi+24]
	mov	DWORD PTR [eax+4], eax
	mov	eax, DWORD PTR [edi+24]
	mov	DWORD PTR [edi+28], 0
	mov	DWORD PTR [eax], eax
	mov	eax, DWORD PTR [edi+24]
	mov	DWORD PTR [eax+8], eax

; 938  : 			return (begin());

	mov	eax, DWORD PTR [edi+24]
	mov	ecx, DWORD PTR [eax]
	mov	eax, DWORD PTR ___$ReturnUdt$[esp+20]
	mov	edx, DWORD PTR [edi]
	mov	DWORD PTR [eax+4], ecx
	mov	DWORD PTR [eax], edx

; 945  : 			}
; 946  : 		}

	pop	edi
	pop	esi
	pop	ebp
	pop	ebx
	add	esp, 8
	ret	20					; 00000014H
	npad	5
$LL2@erase@27:

; 939  : 			}
; 940  : 		else
; 941  : 			{	// partial erase, one at a time
; 942  : 			while (_First != _Last)

	test	ebx, ebx
	je	SHORT $LN96@erase@27
	cmp	ebx, DWORD PTR __Last$[esp+20]
	je	SHORT $LN97@erase@27
$LN96@erase@27:
	call	__invalid_parameter_noinfo
	mov	ebx, DWORD PTR __First$[esp+20]
$LN97@erase@27:
	mov	ebp, DWORD PTR __First$[esp+24]
	cmp	ebp, DWORD PTR __Last$[esp+24]
	je	SHORT $LN1@erase@27

; 943  : 				erase(_First++);

	lea	esi, DWORD PTR __First$[esp+20]
	call	?_Inc@const_iterator@?$_Tree@V?$_Tmap_traits@_KIU?$less@_K@std@@V?$allocator@U?$pair@$$CB_KI@std@@@2@$0A@@std@@@std@@QAEXXZ ; std::_Tree<std::_Tmap_traits<unsigned __int64,unsigned int,std::less<unsigned __int64>,std::allocator<std::pair<unsigned __int64 const ,unsigned int> >,0> >::const_iterator::_Inc
	push	ebp
	push	ebx
	lea	eax, DWORD PTR $T530295[esp+32]
	push	eax
	push	edi
	call	?erase@?$_Tree@V?$_Tmap_traits@_KIU?$less@_K@std@@V?$allocator@U?$pair@$$CB_KI@std@@@2@$0A@@std@@@std@@QAE?AViterator@12@Vconst_iterator@12@@Z ; std::_Tree<std::_Tmap_traits<unsigned __int64,unsigned int,std::less<unsigned __int64>,std::allocator<std::pair<unsigned __int64 const ,unsigned int> >,0> >::erase
	mov	ebx, DWORD PTR __First$[esp+20]
	jmp	SHORT $LL2@erase@27
$LN1@erase@27:

; 944  : 			return (_Make_iter(_First));

	mov	edi, DWORD PTR [edi]
	mov	eax, DWORD PTR ___$ReturnUdt$[esp+20]
	mov	DWORD PTR [eax], edi

; 945  : 			}
; 946  : 		}

	pop	edi
	pop	esi
	mov	DWORD PTR [eax+4], ebp
	pop	ebp
	pop	ebx
	add	esp, 8
	ret	20					; 00000014H
?erase@?$_Tree@V?$_Tmap_traits@_KIU?$less@_K@std@@V?$allocator@U?$pair@$$CB_KI@std@@@2@$0A@@std@@@std@@QAE?AViterator@12@Vconst_iterator@12@0@Z ENDP ; std::_Tree<std::_Tmap_traits<unsigned __int64,unsigned int,std::less<unsigned __int64>,std::allocator<std::pair<unsigned __int64 const ,unsigned int> >,0> >::erase
; Function compile flags: /Ogtpy
_TEXT	ENDS
;	COMDAT ?erase@?$_Tree@V?$_Tmap_traits@_KVDelayCounter@Statistics@DRAMsimII@@U?$less@_K@std@@V?$allocator@U?$pair@$$CB_KVDelayCounter@Statistics@DRAMsimII@@@std@@@5@$0A@@std@@@std@@QAE?AViterator@12@Vconst_iterator@12@0@Z
_TEXT	SEGMENT
$T530695 = -8						; size = 8
___$ReturnUdt$ = 8					; size = 4
__First$ = 12						; size = 8
__Last$ = 20						; size = 8
?erase@?$_Tree@V?$_Tmap_traits@_KVDelayCounter@Statistics@DRAMsimII@@U?$less@_K@std@@V?$allocator@U?$pair@$$CB_KVDelayCounter@Statistics@DRAMsimII@@@std@@@5@$0A@@std@@@std@@QAE?AViterator@12@Vconst_iterator@12@0@Z PROC ; std::_Tree<std::_Tmap_traits<unsigned __int64,DRAMsimII::Statistics::DelayCounter,std::less<unsigned __int64>,std::allocator<std::pair<unsigned __int64 const ,DRAMsimII::Statistics::DelayCounter> >,0> >::erase, COMDAT
; _this$ = eax

; 934  : 		{	// erase [_First, _Last)

	sub	esp, 8
	push	ebx

; 935  : 		if (_First == begin() && _Last == end())

	mov	ebx, DWORD PTR __First$[esp+8]
	push	ebp
	push	esi
	push	edi
	mov	edi, eax
	mov	eax, DWORD PTR [edi+24]
	mov	esi, DWORD PTR [eax]
	mov	eax, DWORD PTR [edi]
	test	ebx, ebx
	je	SHORT $LN26@erase@28
	cmp	ebx, eax
	je	SHORT $LN27@erase@28
$LN26@erase@28:
	call	__invalid_parameter_noinfo
	mov	ebx, DWORD PTR __First$[esp+20]
$LN27@erase@28:
	cmp	DWORD PTR __First$[esp+24], esi
	jne	SHORT $LL2@erase@28
	mov	ecx, DWORD PTR __Last$[esp+20]
	mov	esi, DWORD PTR [edi+24]
	mov	eax, DWORD PTR [edi]
	test	ecx, ecx
	je	SHORT $LN49@erase@28
	cmp	ecx, eax
	je	SHORT $LN50@erase@28
$LN49@erase@28:
	call	__invalid_parameter_noinfo
	mov	ebx, DWORD PTR __First$[esp+20]
$LN50@erase@28:
	cmp	DWORD PTR __Last$[esp+24], esi
	jne	SHORT $LL2@erase@28

; 936  : 			{	// erase all
; 937  : 			clear();

	mov	ecx, DWORD PTR [edi+24]
	mov	edx, DWORD PTR [ecx+4]
	push	edx
	mov	ecx, edi
	call	?_Erase@?$_Tree@V?$_Tmap_traits@_KVDelayCounter@Statistics@DRAMsimII@@U?$less@_K@std@@V?$allocator@U?$pair@$$CB_KVDelayCounter@Statistics@DRAMsimII@@@std@@@5@$0A@@std@@@std@@IAEXPAU_Node@?$_Tree_nod@V?$_Tmap_traits@_KVDelayCounter@Statistics@DRAMsimII@@U?$less@_K@std@@V?$allocator@U?$pair@$$CB_KVDelayCounter@Statistics@DRAMsimII@@@std@@@5@$0A@@std@@@2@@Z ; std::_Tree<std::_Tmap_traits<unsigned __int64,DRAMsimII::Statistics::DelayCounter,std::less<unsigned __int64>,std::allocator<std::pair<unsigned __int64 const ,DRAMsimII::Statistics::DelayCounter> >,0> >::_Erase
	mov	eax, DWORD PTR [edi+24]
	mov	DWORD PTR [eax+4], eax
	mov	eax, DWORD PTR [edi+24]
	mov	DWORD PTR [edi+28], 0
	mov	DWORD PTR [eax], eax
	mov	eax, DWORD PTR [edi+24]
	mov	DWORD PTR [eax+8], eax

; 938  : 			return (begin());

	mov	eax, DWORD PTR [edi+24]
	mov	ecx, DWORD PTR [eax]
	mov	eax, DWORD PTR ___$ReturnUdt$[esp+20]
	mov	edx, DWORD PTR [edi]
	mov	DWORD PTR [eax+4], ecx
	mov	DWORD PTR [eax], edx

; 945  : 			}
; 946  : 		}

	pop	edi
	pop	esi
	pop	ebp
	pop	ebx
	add	esp, 8
	ret	20					; 00000014H
	npad	5
$LL2@erase@28:

; 939  : 			}
; 940  : 		else
; 941  : 			{	// partial erase, one at a time
; 942  : 			while (_First != _Last)

	test	ebx, ebx
	je	SHORT $LN96@erase@28
	cmp	ebx, DWORD PTR __Last$[esp+20]
	je	SHORT $LN97@erase@28
$LN96@erase@28:
	call	__invalid_parameter_noinfo
	mov	ebx, DWORD PTR __First$[esp+20]
$LN97@erase@28:
	mov	ebp, DWORD PTR __First$[esp+24]
	cmp	ebp, DWORD PTR __Last$[esp+24]
	je	SHORT $LN1@erase@28

; 943  : 				erase(_First++);

	lea	esi, DWORD PTR __First$[esp+20]
	call	?_Inc@const_iterator@?$_Tree@V?$_Tmap_traits@_KVDelayCounter@Statistics@DRAMsimII@@U?$less@_K@std@@V?$allocator@U?$pair@$$CB_KVDelayCounter@Statistics@DRAMsimII@@@std@@@5@$0A@@std@@@std@@QAEXXZ ; std::_Tree<std::_Tmap_traits<unsigned __int64,DRAMsimII::Statistics::DelayCounter,std::less<unsigned __int64>,std::allocator<std::pair<unsigned __int64 const ,DRAMsimII::Statistics::DelayCounter> >,0> >::const_iterator::_Inc
	push	ebp
	push	ebx
	lea	eax, DWORD PTR $T530695[esp+32]
	push	eax
	push	edi
	call	?erase@?$_Tree@V?$_Tmap_traits@_KVDelayCounter@Statistics@DRAMsimII@@U?$less@_K@std@@V?$allocator@U?$pair@$$CB_KVDelayCounter@Statistics@DRAMsimII@@@std@@@5@$0A@@std@@@std@@QAE?AViterator@12@Vconst_iterator@12@@Z ; std::_Tree<std::_Tmap_traits<unsigned __int64,DRAMsimII::Statistics::DelayCounter,std::less<unsigned __int64>,std::allocator<std::pair<unsigned __int64 const ,DRAMsimII::Statistics::DelayCounter> >,0> >::erase
	mov	ebx, DWORD PTR __First$[esp+20]
	jmp	SHORT $LL2@erase@28
$LN1@erase@28:

; 944  : 			return (_Make_iter(_First));

	mov	edi, DWORD PTR [edi]
	mov	eax, DWORD PTR ___$ReturnUdt$[esp+20]
	mov	DWORD PTR [eax], edi

; 945  : 			}
; 946  : 		}

	pop	edi
	pop	esi
	mov	DWORD PTR [eax+4], ebp
	pop	ebp
	pop	ebx
	add	esp, 8
	ret	20					; 00000014H
?erase@?$_Tree@V?$_Tmap_traits@_KVDelayCounter@Statistics@DRAMsimII@@U?$less@_K@std@@V?$allocator@U?$pair@$$CB_KVDelayCounter@Statistics@DRAMsimII@@@std@@@5@$0A@@std@@@std@@QAE?AViterator@12@Vconst_iterator@12@0@Z ENDP ; std::_Tree<std::_Tmap_traits<unsigned __int64,DRAMsimII::Statistics::DelayCounter,std::less<unsigned __int64>,std::allocator<std::pair<unsigned __int64 const ,DRAMsimII::Statistics::DelayCounter> >,0> >::erase
; Function compile flags: /Ogtpy
_TEXT	ENDS
;	COMDAT ?_Tidy@?$_Tree@V?$_Tmap_traits@_KIU?$less@_K@std@@V?$allocator@U?$pair@$$CB_KI@std@@@2@$0A@@std@@@std@@IAEXXZ
_TEXT	SEGMENT
$T531096 = -8						; size = 8
?_Tidy@?$_Tree@V?$_Tmap_traits@_KIU?$less@_K@std@@V?$allocator@U?$pair@$$CB_KI@std@@@2@$0A@@std@@@std@@IAEXXZ PROC ; std::_Tree<std::_Tmap_traits<unsigned __int64,unsigned int,std::less<unsigned __int64>,std::allocator<std::pair<unsigned __int64 const ,unsigned int> >,0> >::_Tidy, COMDAT
; _this$ = esi

; 1420 : 		{	// free all storage

	push	ebp
	mov	ebp, esp
	and	esp, -8					; fffffff8H

; 1421 : 		erase(begin(), end());

	mov	eax, DWORD PTR [esi+24]
	mov	ecx, DWORD PTR [esi]
	mov	edx, DWORD PTR [eax]
	sub	esp, 8
	push	eax
	push	ecx
	push	edx
	push	ecx
	lea	eax, DWORD PTR $T531096[esp+24]
	push	eax
	mov	eax, esi
	call	?erase@?$_Tree@V?$_Tmap_traits@_KIU?$less@_K@std@@V?$allocator@U?$pair@$$CB_KI@std@@@2@$0A@@std@@@std@@QAE?AViterator@12@Vconst_iterator@12@0@Z ; std::_Tree<std::_Tmap_traits<unsigned __int64,unsigned int,std::less<unsigned __int64>,std::allocator<std::pair<unsigned __int64 const ,unsigned int> >,0> >::erase

; 1422 : 		this->_Alptr.destroy(&_Left(_Myhead));
; 1423 : 		this->_Alptr.destroy(&_Parent(_Myhead));
; 1424 : 		this->_Alptr.destroy(&_Right(_Myhead));
; 1425 : 		this->_Alnod.deallocate(_Myhead, 1);

	mov	ecx, DWORD PTR [esi+24]
	push	ecx
	call	??3@YAXPAX@Z				; operator delete
	add	esp, 4

; 1426 : 		_Myhead = 0, _Mysize = 0;

	xor	eax, eax
	mov	DWORD PTR [esi+24], eax
	mov	DWORD PTR [esi+28], eax

; 1427 : 		}

	mov	esp, ebp
	pop	ebp
	ret	0
?_Tidy@?$_Tree@V?$_Tmap_traits@_KIU?$less@_K@std@@V?$allocator@U?$pair@$$CB_KI@std@@@2@$0A@@std@@@std@@IAEXXZ ENDP ; std::_Tree<std::_Tmap_traits<unsigned __int64,unsigned int,std::less<unsigned __int64>,std::allocator<std::pair<unsigned __int64 const ,unsigned int> >,0> >::_Tidy
; Function compile flags: /Ogtpy
_TEXT	ENDS
;	COMDAT ?_Tidy@?$_Tree@V?$_Tmap_traits@_KVDelayCounter@Statistics@DRAMsimII@@U?$less@_K@std@@V?$allocator@U?$pair@$$CB_KVDelayCounter@Statistics@DRAMsimII@@@std@@@5@$0A@@std@@@std@@IAEXXZ
_TEXT	SEGMENT
$T531252 = -8						; size = 8
?_Tidy@?$_Tree@V?$_Tmap_traits@_KVDelayCounter@Statistics@DRAMsimII@@U?$less@_K@std@@V?$allocator@U?$pair@$$CB_KVDelayCounter@Statistics@DRAMsimII@@@std@@@5@$0A@@std@@@std@@IAEXXZ PROC ; std::_Tree<std::_Tmap_traits<unsigned __int64,DRAMsimII::Statistics::DelayCounter,std::less<unsigned __int64>,std::allocator<std::pair<unsigned __int64 const ,DRAMsimII::Statistics::DelayCounter> >,0> >::_Tidy, COMDAT
; _this$ = esi

; 1420 : 		{	// free all storage

	push	ebp
	mov	ebp, esp
	and	esp, -8					; fffffff8H

; 1421 : 		erase(begin(), end());

	mov	eax, DWORD PTR [esi+24]
	mov	ecx, DWORD PTR [esi]
	mov	edx, DWORD PTR [eax]
	sub	esp, 8
	push	eax
	push	ecx
	push	edx
	push	ecx
	lea	eax, DWORD PTR $T531252[esp+24]
	push	eax
	mov	eax, esi
	call	?erase@?$_Tree@V?$_Tmap_traits@_KVDelayCounter@Statistics@DRAMsimII@@U?$less@_K@std@@V?$allocator@U?$pair@$$CB_KVDelayCounter@Statistics@DRAMsimII@@@std@@@5@$0A@@std@@@std@@QAE?AViterator@12@Vconst_iterator@12@0@Z ; std::_Tree<std::_Tmap_traits<unsigned __int64,DRAMsimII::Statistics::DelayCounter,std::less<unsigned __int64>,std::allocator<std::pair<unsigned __int64 const ,DRAMsimII::Statistics::DelayCounter> >,0> >::erase

; 1422 : 		this->_Alptr.destroy(&_Left(_Myhead));
; 1423 : 		this->_Alptr.destroy(&_Parent(_Myhead));
; 1424 : 		this->_Alptr.destroy(&_Right(_Myhead));
; 1425 : 		this->_Alnod.deallocate(_Myhead, 1);

	mov	ecx, DWORD PTR [esi+24]
	push	ecx
	call	??3@YAXPAX@Z				; operator delete
	add	esp, 4

; 1426 : 		_Myhead = 0, _Mysize = 0;

	xor	eax, eax
	mov	DWORD PTR [esi+24], eax
	mov	DWORD PTR [esi+28], eax

; 1427 : 		}

	mov	esp, ebp
	pop	ebp
	ret	0
?_Tidy@?$_Tree@V?$_Tmap_traits@_KVDelayCounter@Statistics@DRAMsimII@@U?$less@_K@std@@V?$allocator@U?$pair@$$CB_KVDelayCounter@Statistics@DRAMsimII@@@std@@@5@$0A@@std@@@std@@IAEXXZ ENDP ; std::_Tree<std::_Tmap_traits<unsigned __int64,DRAMsimII::Statistics::DelayCounter,std::less<unsigned __int64>,std::allocator<std::pair<unsigned __int64 const ,DRAMsimII::Statistics::DelayCounter> >,0> >::_Tidy
_TEXT	ENDS
;	COMDAT xdata$x
; File c:\program files\microsoft visual studio 9.0\vc\include\xutility
xdata$x	SEGMENT
__unwindtable$??1?$_Tree@V?$_Tmap_traits@_KIU?$less@_K@std@@V?$allocator@U?$pair@$$CB_KI@std@@@2@$0A@@std@@@std@@QAE@XZ DD 0ffffffffH
	DD	FLAT:__unwindfunclet$??1?$_Tree@V?$_Tmap_traits@_KIU?$less@_K@std@@V?$allocator@U?$pair@$$CB_KI@std@@@2@$0A@@std@@@std@@QAE@XZ$0
__ehfuncinfo$??1?$_Tree@V?$_Tmap_traits@_KIU?$less@_K@std@@V?$allocator@U?$pair@$$CB_KI@std@@@2@$0A@@std@@@std@@QAE@XZ DD 019930522H
	DD	01H
	DD	FLAT:__unwindtable$??1?$_Tree@V?$_Tmap_traits@_KIU?$less@_K@std@@V?$allocator@U?$pair@$$CB_KI@std@@@2@$0A@@std@@@std@@QAE@XZ
	DD	2 DUP(00H)
	DD	2 DUP(00H)
	DD	00H
	DD	01H
; Function compile flags: /Ogtpy
; File c:\program files\microsoft visual studio 9.0\vc\include\xtree
xdata$x	ENDS
;	COMDAT ??1?$_Tree@V?$_Tmap_traits@_KIU?$less@_K@std@@V?$allocator@U?$pair@$$CB_KI@std@@@2@$0A@@std@@@std@@QAE@XZ
_TEXT	SEGMENT
__$EHRec$ = -12						; size = 12
_this$ = 8						; size = 4
??1?$_Tree@V?$_Tmap_traits@_KIU?$less@_K@std@@V?$allocator@U?$pair@$$CB_KI@std@@@2@$0A@@std@@@std@@QAE@XZ PROC ; std::_Tree<std::_Tmap_traits<unsigned __int64,unsigned int,std::less<unsigned __int64>,std::allocator<std::pair<unsigned __int64 const ,unsigned int> >,0> >::~_Tree<std::_Tmap_traits<unsigned __int64,unsigned int,std::less<unsigned __int64>,std::allocator<std::pair<unsigned __int64 const ,unsigned int> >,0> >, COMDAT

; 539  : 		{	// destroy tree

	push	-1
	push	__ehhandler$??1?$_Tree@V?$_Tmap_traits@_KIU?$less@_K@std@@V?$allocator@U?$pair@$$CB_KI@std@@@2@$0A@@std@@@std@@QAE@XZ
	mov	eax, DWORD PTR fs:0
	push	eax
	push	esi
	mov	eax, DWORD PTR ___security_cookie
	xor	eax, esp
	push	eax
	lea	eax, DWORD PTR __$EHRec$[esp+20]
	mov	DWORD PTR fs:0, eax
	mov	esi, DWORD PTR _this$[esp+16]
	mov	DWORD PTR __$EHRec$[esp+28], 0

; 540  : 		_Tidy();

	call	?_Tidy@?$_Tree@V?$_Tmap_traits@_KIU?$less@_K@std@@V?$allocator@U?$pair@$$CB_KI@std@@@2@$0A@@std@@@std@@IAEXXZ ; std::_Tree<std::_Tmap_traits<unsigned __int64,unsigned int,std::less<unsigned __int64>,std::allocator<std::pair<unsigned __int64 const ,unsigned int> >,0> >::_Tidy

; 541  : 		}

	mov	eax, DWORD PTR [esi]
	push	eax
	call	??3@YAXPAX@Z				; operator delete
	add	esp, 4
	mov	ecx, DWORD PTR __$EHRec$[esp+20]
	mov	DWORD PTR fs:0, ecx
	pop	ecx
	pop	esi
	add	esp, 12					; 0000000cH
	ret	4
_TEXT	ENDS
;	COMDAT text$x
text$x	SEGMENT
__unwindfunclet$??1?$_Tree@V?$_Tmap_traits@_KIU?$less@_K@std@@V?$allocator@U?$pair@$$CB_KI@std@@@2@$0A@@std@@@std@@QAE@XZ$0:
	mov	eax, DWORD PTR _this$[ebp-4]
	jmp	??1?$_Tree_val@V?$_Tmap_traits@_KIU?$less@_K@std@@V?$allocator@U?$pair@$$CB_KI@std@@@2@$0A@@std@@@std@@QAE@XZ
__ehhandler$??1?$_Tree@V?$_Tmap_traits@_KIU?$less@_K@std@@V?$allocator@U?$pair@$$CB_KI@std@@@2@$0A@@std@@@std@@QAE@XZ:
	mov	edx, DWORD PTR [esp+8]
	lea	eax, DWORD PTR [edx-4]
	mov	ecx, DWORD PTR [edx-8]
	xor	ecx, eax
	call	@__security_check_cookie@4
	mov	eax, OFFSET __ehfuncinfo$??1?$_Tree@V?$_Tmap_traits@_KIU?$less@_K@std@@V?$allocator@U?$pair@$$CB_KI@std@@@2@$0A@@std@@@std@@QAE@XZ
	jmp	___CxxFrameHandler3
text$x	ENDS
??1?$_Tree@V?$_Tmap_traits@_KIU?$less@_K@std@@V?$allocator@U?$pair@$$CB_KI@std@@@2@$0A@@std@@@std@@QAE@XZ ENDP ; std::_Tree<std::_Tmap_traits<unsigned __int64,unsigned int,std::less<unsigned __int64>,std::allocator<std::pair<unsigned __int64 const ,unsigned int> >,0> >::~_Tree<std::_Tmap_traits<unsigned __int64,unsigned int,std::less<unsigned __int64>,std::allocator<std::pair<unsigned __int64 const ,unsigned int> >,0> >
;	COMDAT xdata$x
; File c:\program files\microsoft visual studio 9.0\vc\include\xutility
xdata$x	SEGMENT
__unwindtable$??1?$_Tree@V?$_Tmap_traits@_KVDelayCounter@Statistics@DRAMsimII@@U?$less@_K@std@@V?$allocator@U?$pair@$$CB_KVDelayCounter@Statistics@DRAMsimII@@@std@@@5@$0A@@std@@@std@@QAE@XZ DD 0ffffffffH
	DD	FLAT:__unwindfunclet$??1?$_Tree@V?$_Tmap_traits@_KVDelayCounter@Statistics@DRAMsimII@@U?$less@_K@std@@V?$allocator@U?$pair@$$CB_KVDelayCounter@Statistics@DRAMsimII@@@std@@@5@$0A@@std@@@std@@QAE@XZ$0
__ehfuncinfo$??1?$_Tree@V?$_Tmap_traits@_KVDelayCounter@Statistics@DRAMsimII@@U?$less@_K@std@@V?$allocator@U?$pair@$$CB_KVDelayCounter@Statistics@DRAMsimII@@@std@@@5@$0A@@std@@@std@@QAE@XZ DD 019930522H
	DD	01H
	DD	FLAT:__unwindtable$??1?$_Tree@V?$_Tmap_traits@_KVDelayCounter@Statistics@DRAMsimII@@U?$less@_K@std@@V?$allocator@U?$pair@$$CB_KVDelayCounter@Statistics@DRAMsimII@@@std@@@5@$0A@@std@@@std@@QAE@XZ
	DD	2 DUP(00H)
	DD	2 DUP(00H)
	DD	00H
	DD	01H
; Function compile flags: /Ogtpy
; File c:\program files\microsoft visual studio 9.0\vc\include\xtree
xdata$x	ENDS
;	COMDAT ??1?$_Tree@V?$_Tmap_traits@_KVDelayCounter@Statistics@DRAMsimII@@U?$less@_K@std@@V?$allocator@U?$pair@$$CB_KVDelayCounter@Statistics@DRAMsimII@@@std@@@5@$0A@@std@@@std@@QAE@XZ
_TEXT	SEGMENT
__$EHRec$ = -12						; size = 12
_this$ = 8						; size = 4
??1?$_Tree@V?$_Tmap_traits@_KVDelayCounter@Statistics@DRAMsimII@@U?$less@_K@std@@V?$allocator@U?$pair@$$CB_KVDelayCounter@Statistics@DRAMsimII@@@std@@@5@$0A@@std@@@std@@QAE@XZ PROC ; std::_Tree<std::_Tmap_traits<unsigned __int64,DRAMsimII::Statistics::DelayCounter,std::less<unsigned __int64>,std::allocator<std::pair<unsigned __int64 const ,DRAMsimII::Statistics::DelayCounter> >,0> >::~_Tree<std::_Tmap_traits<unsigned __int64,DRAMsimII::Statistics::DelayCounter,std::less<unsigned __int64>,std::allocator<std::pair<unsigned __int64 const ,DRAMsimII::Statistics::DelayCounter> >,0> >, COMDAT

; 539  : 		{	// destroy tree

	push	-1
	push	__ehhandler$??1?$_Tree@V?$_Tmap_traits@_KVDelayCounter@Statistics@DRAMsimII@@U?$less@_K@std@@V?$allocator@U?$pair@$$CB_KVDelayCounter@Statistics@DRAMsimII@@@std@@@5@$0A@@std@@@std@@QAE@XZ
	mov	eax, DWORD PTR fs:0
	push	eax
	push	esi
	mov	eax, DWORD PTR ___security_cookie
	xor	eax, esp
	push	eax
	lea	eax, DWORD PTR __$EHRec$[esp+20]
	mov	DWORD PTR fs:0, eax
	mov	esi, DWORD PTR _this$[esp+16]
	mov	DWORD PTR __$EHRec$[esp+28], 0

; 540  : 		_Tidy();

	call	?_Tidy@?$_Tree@V?$_Tmap_traits@_KVDelayCounter@Statistics@DRAMsimII@@U?$less@_K@std@@V?$allocator@U?$pair@$$CB_KVDelayCounter@Statistics@DRAMsimII@@@std@@@5@$0A@@std@@@std@@IAEXXZ ; std::_Tree<std::_Tmap_traits<unsigned __int64,DRAMsimII::Statistics::DelayCounter,std::less<unsigned __int64>,std::allocator<std::pair<unsigned __int64 const ,DRAMsimII::Statistics::DelayCounter> >,0> >::_Tidy

; 541  : 		}

	mov	eax, DWORD PTR [esi]
	push	eax
	call	??3@YAXPAX@Z				; operator delete
	add	esp, 4
	mov	ecx, DWORD PTR __$EHRec$[esp+20]
	mov	DWORD PTR fs:0, ecx
	pop	ecx
	pop	esi
	add	esp, 12					; 0000000cH
	ret	4
_TEXT	ENDS
;	COMDAT text$x
text$x	SEGMENT
__unwindfunclet$??1?$_Tree@V?$_Tmap_traits@_KVDelayCounter@Statistics@DRAMsimII@@U?$less@_K@std@@V?$allocator@U?$pair@$$CB_KVDelayCounter@Statistics@DRAMsimII@@@std@@@5@$0A@@std@@@std@@QAE@XZ$0:
	mov	eax, DWORD PTR _this$[ebp-4]
	jmp	??1?$_Tree_val@V?$_Tmap_traits@_KVDelayCounter@Statistics@DRAMsimII@@U?$less@_K@std@@V?$allocator@U?$pair@$$CB_KVDelayCounter@Statistics@DRAMsimII@@@std@@@5@$0A@@std@@@std@@QAE@XZ
__ehhandler$??1?$_Tree@V?$_Tmap_traits@_KVDelayCounter@Statistics@DRAMsimII@@U?$less@_K@std@@V?$allocator@U?$pair@$$CB_KVDelayCounter@Statistics@DRAMsimII@@@std@@@5@$0A@@std@@@std@@QAE@XZ:
	mov	edx, DWORD PTR [esp+8]
	lea	eax, DWORD PTR [edx-4]
	mov	ecx, DWORD PTR [edx-8]
	xor	ecx, eax
	call	@__security_check_cookie@4
	mov	eax, OFFSET __ehfuncinfo$??1?$_Tree@V?$_Tmap_traits@_KVDelayCounter@Statistics@DRAMsimII@@U?$less@_K@std@@V?$allocator@U?$pair@$$CB_KVDelayCounter@Statistics@DRAMsimII@@@std@@@5@$0A@@std@@@std@@QAE@XZ
	jmp	___CxxFrameHandler3
text$x	ENDS
??1?$_Tree@V?$_Tmap_traits@_KVDelayCounter@Statistics@DRAMsimII@@U?$less@_K@std@@V?$allocator@U?$pair@$$CB_KVDelayCounter@Statistics@DRAMsimII@@@std@@@5@$0A@@std@@@std@@QAE@XZ ENDP ; std::_Tree<std::_Tmap_traits<unsigned __int64,DRAMsimII::Statistics::DelayCounter,std::less<unsigned __int64>,std::allocator<std::pair<unsigned __int64 const ,DRAMsimII::Statistics::DelayCounter> >,0> >::~_Tree<std::_Tmap_traits<unsigned __int64,DRAMsimII::Statistics::DelayCounter,std::less<unsigned __int64>,std::allocator<std::pair<unsigned __int64 const ,DRAMsimII::Statistics::DelayCounter> >,0> >
;	COMDAT xdata$x
xdata$x	SEGMENT
__unwindtable$??1?$map@_KIU?$less@_K@std@@V?$allocator@U?$pair@$$CB_KI@std@@@2@@std@@QAE@XZ DD 0ffffffffH
	DD	FLAT:__unwindfunclet$??1?$map@_KIU?$less@_K@std@@V?$allocator@U?$pair@$$CB_KI@std@@@2@@std@@QAE@XZ$1
__ehfuncinfo$??1?$map@_KIU?$less@_K@std@@V?$allocator@U?$pair@$$CB_KI@std@@@2@@std@@QAE@XZ DD 019930522H
	DD	01H
	DD	FLAT:__unwindtable$??1?$map@_KIU?$less@_K@std@@V?$allocator@U?$pair@$$CB_KI@std@@@2@@std@@QAE@XZ
	DD	2 DUP(00H)
	DD	2 DUP(00H)
	DD	00H
	DD	01H
; Function compile flags: /Ogtpy
xdata$x	ENDS
;	COMDAT ??1?$map@_KIU?$less@_K@std@@V?$allocator@U?$pair@$$CB_KI@std@@@2@@std@@QAE@XZ
_TEXT	SEGMENT
__$EHRec$ = -12						; size = 12
_this$ = 8						; size = 4
??1?$map@_KIU?$less@_K@std@@V?$allocator@U?$pair@$$CB_KI@std@@@2@@std@@QAE@XZ PROC ; std::map<unsigned __int64,unsigned int,std::less<unsigned __int64>,std::allocator<std::pair<unsigned __int64 const ,unsigned int> > >::~map<unsigned __int64,unsigned int,std::less<unsigned __int64>,std::allocator<std::pair<unsigned __int64 const ,unsigned int> > >, COMDAT
	push	-1
	push	__ehhandler$??1?$map@_KIU?$less@_K@std@@V?$allocator@U?$pair@$$CB_KI@std@@@2@@std@@QAE@XZ
	mov	eax, DWORD PTR fs:0
	push	eax
	push	ecx
	push	esi
	mov	eax, DWORD PTR ___security_cookie
	xor	eax, esp
	push	eax
	lea	eax, DWORD PTR __$EHRec$[esp+24]
	mov	DWORD PTR fs:0, eax
	mov	esi, DWORD PTR _this$[esp+20]
	mov	DWORD PTR __$EHRec$[esp+32], 0
	call	?_Tidy@?$_Tree@V?$_Tmap_traits@_KIU?$less@_K@std@@V?$allocator@U?$pair@$$CB_KI@std@@@2@$0A@@std@@@std@@IAEXXZ ; std::_Tree<std::_Tmap_traits<unsigned __int64,unsigned int,std::less<unsigned __int64>,std::allocator<std::pair<unsigned __int64 const ,unsigned int> >,0> >::_Tidy
	mov	eax, DWORD PTR [esi]
	push	eax
	call	??3@YAXPAX@Z				; operator delete
	add	esp, 4
	mov	ecx, DWORD PTR __$EHRec$[esp+24]
	mov	DWORD PTR fs:0, ecx
	pop	ecx
	pop	esi
	add	esp, 16					; 00000010H
	ret	4
_TEXT	ENDS
;	COMDAT text$x
text$x	SEGMENT
__unwindfunclet$??1?$map@_KIU?$less@_K@std@@V?$allocator@U?$pair@$$CB_KI@std@@@2@@std@@QAE@XZ$1:
	mov	eax, DWORD PTR _this$[ebp-4]
	jmp	??1?$_Tree_val@V?$_Tmap_traits@_KIU?$less@_K@std@@V?$allocator@U?$pair@$$CB_KI@std@@@2@$0A@@std@@@std@@QAE@XZ
__ehhandler$??1?$map@_KIU?$less@_K@std@@V?$allocator@U?$pair@$$CB_KI@std@@@2@@std@@QAE@XZ:
	mov	edx, DWORD PTR [esp+8]
	lea	eax, DWORD PTR [edx-8]
	mov	ecx, DWORD PTR [edx-12]
	xor	ecx, eax
	call	@__security_check_cookie@4
	mov	eax, OFFSET __ehfuncinfo$??1?$map@_KIU?$less@_K@std@@V?$allocator@U?$pair@$$CB_KI@std@@@2@@std@@QAE@XZ
	jmp	___CxxFrameHandler3
text$x	ENDS
??1?$map@_KIU?$less@_K@std@@V?$allocator@U?$pair@$$CB_KI@std@@@2@@std@@QAE@XZ ENDP ; std::map<unsigned __int64,unsigned int,std::less<unsigned __int64>,std::allocator<std::pair<unsigned __int64 const ,unsigned int> > >::~map<unsigned __int64,unsigned int,std::less<unsigned __int64>,std::allocator<std::pair<unsigned __int64 const ,unsigned int> > >
;	COMDAT xdata$x
xdata$x	SEGMENT
__unwindtable$??1?$map@_KVDelayCounter@Statistics@DRAMsimII@@U?$less@_K@std@@V?$allocator@U?$pair@$$CB_KVDelayCounter@Statistics@DRAMsimII@@@std@@@5@@std@@QAE@XZ DD 0ffffffffH
	DD	FLAT:__unwindfunclet$??1?$map@_KVDelayCounter@Statistics@DRAMsimII@@U?$less@_K@std@@V?$allocator@U?$pair@$$CB_KVDelayCounter@Statistics@DRAMsimII@@@std@@@5@@std@@QAE@XZ$1
__ehfuncinfo$??1?$map@_KVDelayCounter@Statistics@DRAMsimII@@U?$less@_K@std@@V?$allocator@U?$pair@$$CB_KVDelayCounter@Statistics@DRAMsimII@@@std@@@5@@std@@QAE@XZ DD 019930522H
	DD	01H
	DD	FLAT:__unwindtable$??1?$map@_KVDelayCounter@Statistics@DRAMsimII@@U?$less@_K@std@@V?$allocator@U?$pair@$$CB_KVDelayCounter@Statistics@DRAMsimII@@@std@@@5@@std@@QAE@XZ
	DD	2 DUP(00H)
	DD	2 DUP(00H)
	DD	00H
	DD	01H
; Function compile flags: /Ogtpy
xdata$x	ENDS
;	COMDAT ??1?$map@_KVDelayCounter@Statistics@DRAMsimII@@U?$less@_K@std@@V?$allocator@U?$pair@$$CB_KVDelayCounter@Statistics@DRAMsimII@@@std@@@5@@std@@QAE@XZ
_TEXT	SEGMENT
__$EHRec$ = -12						; size = 12
_this$ = 8						; size = 4
??1?$map@_KVDelayCounter@Statistics@DRAMsimII@@U?$less@_K@std@@V?$allocator@U?$pair@$$CB_KVDelayCounter@Statistics@DRAMsimII@@@std@@@5@@std@@QAE@XZ PROC ; std::map<unsigned __int64,DRAMsimII::Statistics::DelayCounter,std::less<unsigned __int64>,std::allocator<std::pair<unsigned __int64 const ,DRAMsimII::Statistics::DelayCounter> > >::~map<unsigned __int64,DRAMsimII::Statistics::DelayCounter,std::less<unsigned __int64>,std::allocator<std::pair<unsigned __int64 const ,DRAMsimII::Statistics::DelayCounter> > >, COMDAT
	push	-1
	push	__ehhandler$??1?$map@_KVDelayCounter@Statistics@DRAMsimII@@U?$less@_K@std@@V?$allocator@U?$pair@$$CB_KVDelayCounter@Statistics@DRAMsimII@@@std@@@5@@std@@QAE@XZ
	mov	eax, DWORD PTR fs:0
	push	eax
	push	ecx
	push	esi
	mov	eax, DWORD PTR ___security_cookie
	xor	eax, esp
	push	eax
	lea	eax, DWORD PTR __$EHRec$[esp+24]
	mov	DWORD PTR fs:0, eax
	mov	esi, DWORD PTR _this$[esp+20]
	mov	DWORD PTR __$EHRec$[esp+32], 0
	call	?_Tidy@?$_Tree@V?$_Tmap_traits@_KVDelayCounter@Statistics@DRAMsimII@@U?$less@_K@std@@V?$allocator@U?$pair@$$CB_KVDelayCounter@Statistics@DRAMsimII@@@std@@@5@$0A@@std@@@std@@IAEXXZ ; std::_Tree<std::_Tmap_traits<unsigned __int64,DRAMsimII::Statistics::DelayCounter,std::less<unsigned __int64>,std::allocator<std::pair<unsigned __int64 const ,DRAMsimII::Statistics::DelayCounter> >,0> >::_Tidy
	mov	eax, DWORD PTR [esi]
	push	eax
	call	??3@YAXPAX@Z				; operator delete
	add	esp, 4
	mov	ecx, DWORD PTR __$EHRec$[esp+24]
	mov	DWORD PTR fs:0, ecx
	pop	ecx
	pop	esi
	add	esp, 16					; 00000010H
	ret	4
_TEXT	ENDS
;	COMDAT text$x
text$x	SEGMENT
__unwindfunclet$??1?$map@_KVDelayCounter@Statistics@DRAMsimII@@U?$less@_K@std@@V?$allocator@U?$pair@$$CB_KVDelayCounter@Statistics@DRAMsimII@@@std@@@5@@std@@QAE@XZ$1:
	mov	eax, DWORD PTR _this$[ebp-4]
	jmp	??1?$_Tree_val@V?$_Tmap_traits@_KVDelayCounter@Statistics@DRAMsimII@@U?$less@_K@std@@V?$allocator@U?$pair@$$CB_KVDelayCounter@Statistics@DRAMsimII@@@std@@@5@$0A@@std@@@std@@QAE@XZ
__ehhandler$??1?$map@_KVDelayCounter@Statistics@DRAMsimII@@U?$less@_K@std@@V?$allocator@U?$pair@$$CB_KVDelayCounter@Statistics@DRAMsimII@@@std@@@5@@std@@QAE@XZ:
	mov	edx, DWORD PTR [esp+8]
	lea	eax, DWORD PTR [edx-8]
	mov	ecx, DWORD PTR [edx-12]
	xor	ecx, eax
	call	@__security_check_cookie@4
	mov	eax, OFFSET __ehfuncinfo$??1?$map@_KVDelayCounter@Statistics@DRAMsimII@@U?$less@_K@std@@V?$allocator@U?$pair@$$CB_KVDelayCounter@Statistics@DRAMsimII@@@std@@@5@@std@@QAE@XZ
	jmp	___CxxFrameHandler3
text$x	ENDS
??1?$map@_KVDelayCounter@Statistics@DRAMsimII@@U?$less@_K@std@@V?$allocator@U?$pair@$$CB_KVDelayCounter@Statistics@DRAMsimII@@@std@@@5@@std@@QAE@XZ ENDP ; std::map<unsigned __int64,DRAMsimII::Statistics::DelayCounter,std::less<unsigned __int64>,std::allocator<std::pair<unsigned __int64 const ,DRAMsimII::Statistics::DelayCounter> > >::~map<unsigned __int64,DRAMsimII::Statistics::DelayCounter,std::less<unsigned __int64>,std::allocator<std::pair<unsigned __int64 const ,DRAMsimII::Statistics::DelayCounter> > >
;	COMDAT xdata$x
xdata$x	SEGMENT
__unwindtable$??1Statistics@DRAMsimII@@QAE@XZ DD 0ffffffffH
	DD	FLAT:__unwindfunclet$??1Statistics@DRAMsimII@@QAE@XZ$0
	DD	00H
	DD	FLAT:__unwindfunclet$??1Statistics@DRAMsimII@@QAE@XZ$1
	DD	01H
	DD	FLAT:__unwindfunclet$??1Statistics@DRAMsimII@@QAE@XZ$2
	DD	02H
	DD	FLAT:__unwindfunclet$??1Statistics@DRAMsimII@@QAE@XZ$3
	DD	03H
	DD	FLAT:__unwindfunclet$??1Statistics@DRAMsimII@@QAE@XZ$4
	DD	04H
	DD	FLAT:__unwindfunclet$??1Statistics@DRAMsimII@@QAE@XZ$5
	DD	05H
	DD	FLAT:__unwindfunclet$??1Statistics@DRAMsimII@@QAE@XZ$10
	DD	04H
	DD	FLAT:__unwindfunclet$??1Statistics@DRAMsimII@@QAE@XZ$12
__ehfuncinfo$??1Statistics@DRAMsimII@@QAE@XZ DD 019930522H
	DD	08H
	DD	FLAT:__unwindtable$??1Statistics@DRAMsimII@@QAE@XZ
	DD	2 DUP(00H)
	DD	2 DUP(00H)
	DD	00H
	DD	01H
; Function compile flags: /Ogtpy
xdata$x	ENDS
;	COMDAT ??1Statistics@DRAMsimII@@QAE@XZ
_TEXT	SEGMENT
$T532970 = -16						; size = 4
$T532714 = -16						; size = 4
__$EHRec$ = -12						; size = 12
_this$ = 8						; size = 4
??1Statistics@DRAMsimII@@QAE@XZ PROC			; DRAMsimII::Statistics::~Statistics, COMDAT
	push	-1
	push	__ehhandler$??1Statistics@DRAMsimII@@QAE@XZ
	mov	eax, DWORD PTR fs:0
	push	eax
	push	ecx
	push	ebx
	push	esi
	push	edi
	mov	eax, DWORD PTR ___security_cookie
	xor	eax, esp
	push	eax
	lea	eax, DWORD PTR __$EHRec$[esp+32]
	mov	DWORD PTR fs:0, eax
	mov	edi, DWORD PTR _this$[esp+28]
	xor	ebx, ebx
	mov	DWORD PTR __$EHRec$[esp+40], ebx
	mov	eax, DWORD PTR [edi+528]
	cmp	eax, ebx
	je	SHORT $LN17@Statistics@10
	push	eax
	call	??3@YAXPAX@Z				; operator delete
	add	esp, 4
$LN17@Statistics@10:
	mov	eax, DWORD PTR [edi+516]
	push	eax
	mov	DWORD PTR [edi+528], ebx
	mov	DWORD PTR [edi+532], ebx
	mov	DWORD PTR [edi+536], ebx
	call	??3@YAXPAX@Z				; operator delete
	mov	eax, DWORD PTR [edi+504]
	add	esp, 4
	cmp	eax, ebx
	je	SHORT $LN32@Statistics@10
	push	eax
	call	??3@YAXPAX@Z				; operator delete
	add	esp, 4
$LN32@Statistics@10:
	mov	eax, DWORD PTR [edi+492]
	push	eax
	mov	DWORD PTR [edi+504], ebx
	mov	DWORD PTR [edi+508], ebx
	mov	DWORD PTR [edi+512], ebx
	call	??3@YAXPAX@Z				; operator delete
	lea	esi, DWORD PTR [edi+460]
	add	esp, 4
	mov	DWORD PTR $T532714[esp+32], esi
	mov	BYTE PTR __$EHRec$[esp+40], 6
	call	?_Tidy@?$_Tree@V?$_Tmap_traits@_KIU?$less@_K@std@@V?$allocator@U?$pair@$$CB_KI@std@@@2@$0A@@std@@@std@@IAEXXZ ; std::_Tree<std::_Tmap_traits<unsigned __int64,unsigned int,std::less<unsigned __int64>,std::allocator<std::pair<unsigned __int64 const ,unsigned int> >,0> >::_Tidy
	mov	esi, DWORD PTR [esi]
	push	esi
	call	??3@YAXPAX@Z				; operator delete
	lea	esi, DWORD PTR [edi+428]
	add	esp, 4
	mov	DWORD PTR $T532970[esp+32], esi
	mov	BYTE PTR __$EHRec$[esp+40], 7
	call	?_Tidy@?$_Tree@V?$_Tmap_traits@_KVDelayCounter@Statistics@DRAMsimII@@U?$less@_K@std@@V?$allocator@U?$pair@$$CB_KVDelayCounter@Statistics@DRAMsimII@@@std@@@5@$0A@@std@@@std@@IAEXXZ ; std::_Tree<std::_Tmap_traits<unsigned __int64,DRAMsimII::Statistics::DelayCounter,std::less<unsigned __int64>,std::allocator<std::pair<unsigned __int64 const ,DRAMsimII::Statistics::DelayCounter> >,0> >::_Tidy
	mov	eax, DWORD PTR [esi]
	push	eax
	call	??3@YAXPAX@Z				; operator delete
	mov	eax, DWORD PTR [edi+404]
	add	esp, 4
	cmp	eax, ebx
	je	SHORT $LN179@Statistics@10
	push	eax
	call	??3@YAXPAX@Z				; operator delete
	add	esp, 4
$LN179@Statistics@10:
	mov	ecx, DWORD PTR [edi+392]
	push	ecx
	mov	DWORD PTR [edi+404], ebx
	mov	DWORD PTR [edi+408], ebx
	mov	DWORD PTR [edi+412], ebx
	call	??3@YAXPAX@Z				; operator delete
	add	esp, 4
	lea	esi, DWORD PTR [edi+364]
	call	?_Tidy@?$list@U?$pair@$$CBII@std@@V?$allocator@U?$pair@$$CBII@std@@@2@@std@@IAEXXZ ; std::list<std::pair<unsigned int const ,unsigned int>,std::allocator<std::pair<unsigned int const ,unsigned int> > >::_Tidy
	mov	edx, DWORD PTR [esi]
	push	edx
	call	??3@YAXPAX@Z				; operator delete
	mov	eax, DWORD PTR [edi+332]
	add	esp, 4
	cmp	eax, ebx
	je	SHORT $LN212@Statistics@10
	push	eax
	call	??3@YAXPAX@Z				; operator delete
	add	esp, 4
$LN212@Statistics@10:
	mov	eax, DWORD PTR [edi+320]
	push	eax
	mov	DWORD PTR [edi+332], ebx
	mov	DWORD PTR [edi+336], ebx
	mov	DWORD PTR [edi+340], ebx
	call	??3@YAXPAX@Z				; operator delete
	add	esp, 4
	lea	esi, DWORD PTR [edi+292]
	call	?_Tidy@?$list@U?$pair@$$CBII@std@@V?$allocator@U?$pair@$$CBII@std@@@2@@std@@IAEXXZ ; std::list<std::pair<unsigned int const ,unsigned int>,std::allocator<std::pair<unsigned int const ,unsigned int> > >::_Tidy
	mov	ecx, DWORD PTR [esi]
	push	ecx
	call	??3@YAXPAX@Z				; operator delete
	mov	eax, DWORD PTR [edi+260]
	add	esp, 4
	cmp	eax, ebx
	je	SHORT $LN245@Statistics@10
	push	eax
	call	??3@YAXPAX@Z				; operator delete
	add	esp, 4
$LN245@Statistics@10:
	mov	edx, DWORD PTR [edi+248]
	push	edx
	mov	DWORD PTR [edi+260], ebx
	mov	DWORD PTR [edi+264], ebx
	mov	DWORD PTR [edi+268], ebx
	call	??3@YAXPAX@Z				; operator delete
	add	esp, 4
	lea	esi, DWORD PTR [edi+220]
	call	?_Tidy@?$list@U?$pair@$$CBII@std@@V?$allocator@U?$pair@$$CBII@std@@@2@@std@@IAEXXZ ; std::list<std::pair<unsigned int const ,unsigned int>,std::allocator<std::pair<unsigned int const ,unsigned int> > >::_Tidy
	mov	eax, DWORD PTR [esi]
	push	eax
	call	??3@YAXPAX@Z				; operator delete
	mov	eax, DWORD PTR [edi+188]
	add	esp, 4
	cmp	eax, ebx
	je	SHORT $LN278@Statistics@10
	push	eax
	call	??3@YAXPAX@Z				; operator delete
	add	esp, 4
$LN278@Statistics@10:
	mov	ecx, DWORD PTR [edi+176]
	push	ecx
	mov	DWORD PTR [edi+188], ebx
	mov	DWORD PTR [edi+192], ebx
	mov	DWORD PTR [edi+196], ebx
	call	??3@YAXPAX@Z				; operator delete
	add	esp, 4
	lea	esi, DWORD PTR [edi+148]
	call	?_Tidy@?$list@U?$pair@$$CBII@std@@V?$allocator@U?$pair@$$CBII@std@@@2@@std@@IAEXXZ ; std::list<std::pair<unsigned int const ,unsigned int>,std::allocator<std::pair<unsigned int const ,unsigned int> > >::_Tidy
	mov	edx, DWORD PTR [esi]
	push	edx
	call	??3@YAXPAX@Z				; operator delete
	mov	eax, DWORD PTR [edi+116]
	add	esp, 4
	cmp	eax, ebx
	je	SHORT $LN311@Statistics@10
	push	eax
	call	??3@YAXPAX@Z				; operator delete
	add	esp, 4
$LN311@Statistics@10:
	mov	eax, DWORD PTR [edi+104]
	push	eax
	mov	DWORD PTR [edi+116], ebx
	mov	DWORD PTR [edi+120], ebx
	mov	DWORD PTR [edi+124], ebx
	call	??3@YAXPAX@Z				; operator delete
	add	esp, 4
	lea	esi, DWORD PTR [edi+76]
	call	?_Tidy@?$list@U?$pair@$$CBII@std@@V?$allocator@U?$pair@$$CBII@std@@@2@@std@@IAEXXZ ; std::list<std::pair<unsigned int const ,unsigned int>,std::allocator<std::pair<unsigned int const ,unsigned int> > >::_Tidy
	mov	ecx, DWORD PTR [esi]
	push	ecx
	call	??3@YAXPAX@Z				; operator delete
	add	esp, 4
	mov	ecx, DWORD PTR __$EHRec$[esp+32]
	mov	DWORD PTR fs:0, ecx
	pop	ecx
	pop	edi
	pop	esi
	pop	ebx
	add	esp, 16					; 00000010H
	ret	4
_TEXT	ENDS
;	COMDAT text$x
text$x	SEGMENT
__unwindfunclet$??1Statistics@DRAMsimII@@QAE@XZ$0:
	mov	eax, DWORD PTR _this$[ebp-4]
	add	eax, 68					; 00000044H
	jmp	??1?$unordered_map@IIV?$hash@I@tr1@std@@U?$equal_to@I@3@V?$allocator@U?$pair@$$CBII@std@@@3@@tr1@std@@QAE@XZ
__unwindfunclet$??1Statistics@DRAMsimII@@QAE@XZ$1:
	mov	eax, DWORD PTR _this$[ebp-4]
	add	eax, 140				; 0000008cH
	jmp	??1?$unordered_map@IIV?$hash@I@tr1@std@@U?$equal_to@I@3@V?$allocator@U?$pair@$$CBII@std@@@3@@tr1@std@@QAE@XZ
__unwindfunclet$??1Statistics@DRAMsimII@@QAE@XZ$2:
	mov	eax, DWORD PTR _this$[ebp-4]
	add	eax, 212				; 000000d4H
	jmp	??1?$unordered_map@IIV?$hash@I@tr1@std@@U?$equal_to@I@3@V?$allocator@U?$pair@$$CBII@std@@@3@@tr1@std@@QAE@XZ
__unwindfunclet$??1Statistics@DRAMsimII@@QAE@XZ$3:
	mov	eax, DWORD PTR _this$[ebp-4]
	add	eax, 284				; 0000011cH
	jmp	??1?$unordered_map@IIV?$hash@I@tr1@std@@U?$equal_to@I@3@V?$allocator@U?$pair@$$CBII@std@@@3@@tr1@std@@QAE@XZ
__unwindfunclet$??1Statistics@DRAMsimII@@QAE@XZ$4:
	mov	eax, DWORD PTR _this$[ebp-4]
	add	eax, 356				; 00000164H
	jmp	??1?$unordered_map@IIV?$hash@I@tr1@std@@U?$equal_to@I@3@V?$allocator@U?$pair@$$CBII@std@@@3@@tr1@std@@QAE@XZ
__unwindfunclet$??1Statistics@DRAMsimII@@QAE@XZ$5:
	mov	eax, DWORD PTR _this$[ebp-4]
	add	eax, 428				; 000001acH
	push	eax
	call	??1?$map@_KVDelayCounter@Statistics@DRAMsimII@@U?$less@_K@std@@V?$allocator@U?$pair@$$CB_KVDelayCounter@Statistics@DRAMsimII@@@std@@@5@@std@@QAE@XZ
	ret	0
__unwindfunclet$??1Statistics@DRAMsimII@@QAE@XZ$10:
	mov	eax, DWORD PTR $T532714[ebp]
	jmp	??1?$_Tree_val@V?$_Tmap_traits@_KIU?$less@_K@std@@V?$allocator@U?$pair@$$CB_KI@std@@@2@$0A@@std@@@std@@QAE@XZ
__unwindfunclet$??1Statistics@DRAMsimII@@QAE@XZ$12:
	mov	eax, DWORD PTR $T532970[ebp]
	jmp	??1?$_Tree_val@V?$_Tmap_traits@_KVDelayCounter@Statistics@DRAMsimII@@U?$less@_K@std@@V?$allocator@U?$pair@$$CB_KVDelayCounter@Statistics@DRAMsimII@@@std@@@5@$0A@@std@@@std@@QAE@XZ
__ehhandler$??1Statistics@DRAMsimII@@QAE@XZ:
	mov	edx, DWORD PTR [esp+8]
	lea	eax, DWORD PTR [edx-16]
	mov	ecx, DWORD PTR [edx-20]
	xor	ecx, eax
	call	@__security_check_cookie@4
	mov	eax, OFFSET __ehfuncinfo$??1Statistics@DRAMsimII@@QAE@XZ
	jmp	___CxxFrameHandler3
text$x	ENDS
??1Statistics@DRAMsimII@@QAE@XZ ENDP			; DRAMsimII::Statistics::~Statistics
;	COMDAT xdata$x
xdata$x	SEGMENT
__unwindtable$??1System@DRAMsimII@@QAE@XZ DD 0ffffffffH
	DD	FLAT:__unwindfunclet$??1System@DRAMsimII@@QAE@XZ$0
	DD	00H
	DD	FLAT:__unwindfunclet$??1System@DRAMsimII@@QAE@XZ$1
	DD	01H
	DD	FLAT:__unwindfunclet$??1System@DRAMsimII@@QAE@XZ$2
	DD	01H
	DD	FLAT:__unwindfunclet$??1System@DRAMsimII@@QAE@XZ$4
__ehfuncinfo$??1System@DRAMsimII@@QAE@XZ DD 019930522H
	DD	04H
	DD	FLAT:__unwindtable$??1System@DRAMsimII@@QAE@XZ
	DD	2 DUP(00H)
	DD	2 DUP(00H)
	DD	00H
	DD	01H
; Function compile flags: /Ogtpy
xdata$x	ENDS
;	COMDAT ??1System@DRAMsimII@@QAE@XZ
_TEXT	SEGMENT
$T533924 = -16						; size = 4
__$EHRec$ = -12						; size = 12
_this$ = 8						; size = 4
??1System@DRAMsimII@@QAE@XZ PROC			; DRAMsimII::System::~System, COMDAT
	push	-1
	push	__ehhandler$??1System@DRAMsimII@@QAE@XZ
	mov	eax, DWORD PTR fs:0
	push	eax
	sub	esp, 8
	push	esi
	push	edi
	mov	eax, DWORD PTR ___security_cookie
	xor	eax, esp
	push	eax
	lea	eax, DWORD PTR __$EHRec$[esp+32]
	mov	DWORD PTR fs:0, eax
	mov	esi, DWORD PTR _this$[esp+28]
	lea	eax, DWORD PTR [esi+1136]
	push	eax
	mov	DWORD PTR __$EHRec$[esp+44], 2
	call	??1InputStream@DRAMsimII@@QAE@XZ	; DRAMsimII::InputStream::~InputStream
	lea	edi, DWORD PTR [esi+1108]
	mov	DWORD PTR $T533924[esp+32], edi
	push	edi
	mov	BYTE PTR __$EHRec$[esp+44], 3
	call	?_Tidy@?$vector@VChannel@DRAMsimII@@V?$allocator@VChannel@DRAMsimII@@@std@@@std@@IAEXXZ ; std::vector<DRAMsimII::Channel,std::allocator<DRAMsimII::Channel> >::_Tidy
	mov	edi, DWORD PTR [edi]
	push	edi
	call	??3@YAXPAX@Z				; operator delete
	add	esp, 4
	lea	ecx, DWORD PTR [esi+568]
	push	ecx
	mov	BYTE PTR __$EHRec$[esp+44], 0
	call	??1Statistics@DRAMsimII@@QAE@XZ
	add	esi, 8
	push	esi
	mov	DWORD PTR __$EHRec$[esp+44], -1
	call	??1SystemConfiguration@DRAMsimII@@QAE@XZ ; DRAMsimII::SystemConfiguration::~SystemConfiguration
	mov	ecx, DWORD PTR __$EHRec$[esp+32]
	mov	DWORD PTR fs:0, ecx
	pop	ecx
	pop	edi
	pop	esi
	add	esp, 20					; 00000014H
	ret	4
_TEXT	ENDS
;	COMDAT text$x
text$x	SEGMENT
__unwindfunclet$??1System@DRAMsimII@@QAE@XZ$0:
	mov	eax, DWORD PTR _this$[ebp-4]
	add	eax, 8
	push	eax
	call	??1SystemConfiguration@DRAMsimII@@QAE@XZ ; DRAMsimII::SystemConfiguration::~SystemConfiguration
	ret	0
__unwindfunclet$??1System@DRAMsimII@@QAE@XZ$1:
	mov	eax, DWORD PTR _this$[ebp-4]
	add	eax, 568				; 00000238H
	push	eax
	call	??1Statistics@DRAMsimII@@QAE@XZ
	ret	0
__unwindfunclet$??1System@DRAMsimII@@QAE@XZ$2:
	mov	eax, DWORD PTR _this$[ebp-4]
	add	eax, 1108				; 00000454H
	push	eax
	call	??1?$vector@VChannel@DRAMsimII@@V?$allocator@VChannel@DRAMsimII@@@std@@@std@@QAE@XZ ; std::vector<DRAMsimII::Channel,std::allocator<DRAMsimII::Channel> >::~vector<DRAMsimII::Channel,std::allocator<DRAMsimII::Channel> >
	ret	0
__unwindfunclet$??1System@DRAMsimII@@QAE@XZ$4:
	mov	eax, DWORD PTR $T533924[ebp]
	jmp	??1?$_Vector_val@VChannel@DRAMsimII@@V?$allocator@VChannel@DRAMsimII@@@std@@@std@@QAE@XZ
__ehhandler$??1System@DRAMsimII@@QAE@XZ:
	mov	edx, DWORD PTR [esp+8]
	lea	eax, DWORD PTR [edx-16]
	mov	ecx, DWORD PTR [edx-20]
	xor	ecx, eax
	call	@__security_check_cookie@4
	mov	eax, OFFSET __ehfuncinfo$??1System@DRAMsimII@@QAE@XZ
	jmp	___CxxFrameHandler3
text$x	ENDS
??1System@DRAMsimII@@QAE@XZ ENDP			; DRAMsimII::System::~System
;	COMDAT xdata$x
; File c:\program files\microsoft visual studio 9.0\vc\include\vector
xdata$x	SEGMENT
__unwindtable$??0?$Queue@VfbdFrame@DRAMsimII@@@DRAMsimII@@QAE@ABV01@@Z DD 0ffffffffH
	DD	FLAT:__unwindfunclet$??0?$Queue@VfbdFrame@DRAMsimII@@@DRAMsimII@@QAE@ABV01@@Z$0
__ehfuncinfo$??0?$Queue@VfbdFrame@DRAMsimII@@@DRAMsimII@@QAE@ABV01@@Z DD 019930522H
	DD	01H
	DD	FLAT:__unwindtable$??0?$Queue@VfbdFrame@DRAMsimII@@@DRAMsimII@@QAE@ABV01@@Z
	DD	2 DUP(00H)
	DD	2 DUP(00H)
	DD	00H
	DD	01H
; Function compile flags: /Ogtpy
; File c:\users\crius\documents\visual studio 2008\projects\dramsimiihg\src\queue.h
xdata$x	ENDS
;	COMDAT ??0?$Queue@VfbdFrame@DRAMsimII@@@DRAMsimII@@QAE@ABV01@@Z
_TEXT	SEGMENT
__$EHRec$ = -12						; size = 12
_this$ = 8						; size = 4
_i$148024 = 12						; size = 4
_rhs$ = 12						; size = 4
??0?$Queue@VfbdFrame@DRAMsimII@@@DRAMsimII@@QAE@ABV01@@Z PROC ; DRAMsimII::Queue<DRAMsimII::fbdFrame>::Queue<DRAMsimII::fbdFrame>, COMDAT

; 64   : 		{

	push	-1
	push	__ehhandler$??0?$Queue@VfbdFrame@DRAMsimII@@@DRAMsimII@@QAE@ABV01@@Z
	mov	eax, DWORD PTR fs:0
	push	eax
	push	ebx
	push	ebp
	push	esi
	push	edi
	mov	eax, DWORD PTR ___security_cookie
	xor	eax, esp
	push	eax
	lea	eax, DWORD PTR __$EHRec$[esp+32]
	mov	DWORD PTR fs:0, eax
	mov	ebx, DWORD PTR _rhs$[esp+28]
	mov	eax, DWORD PTR [ebx]
	mov	esi, DWORD PTR _this$[esp+28]
	mov	DWORD PTR [esi], eax
	mov	ecx, DWORD PTR [ebx+4]
	mov	DWORD PTR [esi+4], ecx
	mov	edx, DWORD PTR [ebx+8]
	mov	DWORD PTR [esi+8], edx
	mov	edi, DWORD PTR [ebx+28]
	sub	edi, DWORD PTR [ebx+24]
	lea	ebp, DWORD PTR [esi+12]
	sar	edi, 2
	push	ebp
	call	??0?$vector@PAVfbdFrame@DRAMsimII@@V?$allocator@PAVfbdFrame@DRAMsimII@@@std@@@std@@QAE@I@Z ; std::vector<DRAMsimII::fbdFrame *,std::allocator<DRAMsimII::fbdFrame *> >::vector<DRAMsimII::fbdFrame *,std::allocator<DRAMsimII::fbdFrame *> >
	xor	edi, edi
	mov	DWORD PTR __$EHRec$[esp+40], edi
	mov	al, BYTE PTR [ebx+36]
	mov	BYTE PTR [esi+36], al

; 65   : 			entry.reserve(rhs.entry.size());

	mov	ecx, DWORD PTR [ebx+28]
	sub	ecx, DWORD PTR [ebx+24]
	mov	esi, ebp
	sar	ecx, 2
	push	ecx
	call	?reserve@?$vector@PAVfbdFrame@DRAMsimII@@V?$allocator@PAVfbdFrame@DRAMsimII@@@std@@@std@@QAEXI@Z ; std::vector<DRAMsimII::fbdFrame *,std::allocator<DRAMsimII::fbdFrame *> >::reserve

; 66   : 
; 67   : 			for (unsigned i = 0; i < rhs.count; i++)

	xor	esi, esi
	mov	DWORD PTR _i$148024[esp+28], esi
	cmp	DWORD PTR [ebx], edi
	jbe	$LN69@Queue@7
	jmp	SHORT $LN6@Queue@7
	npad	5
$LL70@Queue@7:
	mov	esi, DWORD PTR _i$148024[esp+28]
	xor	edi, edi
$LN6@Queue@7:

; 68   : 			{
; 69   : 				assert(rhs.at(i) != NULL);
; 70   : 				// attempt to copy the contents of this queue
; 71   : 				entry[(head + i) % entry.size()] = new T(*rhs.at(i));

	cmp	DWORD PTR ?freeFramePool@fbdFrame@DRAMsimII@@0V?$Queue@VfbdFrame@DRAMsimII@@@2@A, edi
	jne	SHORT $LN29@Queue@7
	push	48					; 00000030H
	call	??2@YAPAXI@Z				; operator new
	add	esp, 4
	cmp	eax, edi
	je	SHORT $LN23@Queue@7
	mov	ecx, 16					; 00000010H
	mov	DWORD PTR [eax+40], edi
	mov	DWORD PTR [eax+44], edi
	mov	DWORD PTR [eax+24], ecx
	mov	DWORD PTR [eax+20], ecx
	mov	DWORD PTR [eax+16], ecx
	mov	edi, eax
	jmp	$LN28@Queue@7
$LN23@Queue@7:
	xor	eax, eax
	mov	edi, eax
	jmp	$LN28@Queue@7
$LN29@Queue@7:
	mov	eax, DWORD PTR ?freeFramePool@fbdFrame@DRAMsimII@@0V?$Queue@VfbdFrame@DRAMsimII@@@2@A+28
	mov	ecx, DWORD PTR ?freeFramePool@fbdFrame@DRAMsimII@@0V?$Queue@VfbdFrame@DRAMsimII@@@2@A+24
	mov	edx, DWORD PTR ?freeFramePool@fbdFrame@DRAMsimII@@0V?$Queue@VfbdFrame@DRAMsimII@@@2@A+4
	dec	DWORD PTR ?freeFramePool@fbdFrame@DRAMsimII@@0V?$Queue@VfbdFrame@DRAMsimII@@@2@A
	mov	edi, eax
	sub	edi, ecx
	sar	edi, 2
	mov	esi, edx
	cmp	edx, edi
	jb	SHORT $LN32@Queue@7
	call	__invalid_parameter_noinfo
	mov	eax, DWORD PTR ?freeFramePool@fbdFrame@DRAMsimII@@0V?$Queue@VfbdFrame@DRAMsimII@@@2@A+28
	mov	ecx, DWORD PTR ?freeFramePool@fbdFrame@DRAMsimII@@0V?$Queue@VfbdFrame@DRAMsimII@@@2@A+24
	mov	edx, DWORD PTR ?freeFramePool@fbdFrame@DRAMsimII@@0V?$Queue@VfbdFrame@DRAMsimII@@@2@A+4
$LN32@Queue@7:
	mov	edi, DWORD PTR [ecx+esi*4]
	sub	eax, ecx
	sar	eax, 2
	mov	esi, edx
	cmp	edx, eax
	jb	SHORT $LN37@Queue@7
	call	__invalid_parameter_noinfo
	mov	ecx, DWORD PTR ?freeFramePool@fbdFrame@DRAMsimII@@0V?$Queue@VfbdFrame@DRAMsimII@@@2@A+24
$LN37@Queue@7:
	mov	DWORD PTR [ecx+esi*4], 0
	mov	ecx, DWORD PTR ?freeFramePool@fbdFrame@DRAMsimII@@0V?$Queue@VfbdFrame@DRAMsimII@@@2@A+28
	sub	ecx, DWORD PTR ?freeFramePool@fbdFrame@DRAMsimII@@0V?$Queue@VfbdFrame@DRAMsimII@@@2@A+24
	mov	eax, DWORD PTR ?freeFramePool@fbdFrame@DRAMsimII@@0V?$Queue@VfbdFrame@DRAMsimII@@@2@A+4
	sar	ecx, 2
	inc	eax
	xor	edx, edx
	div	ecx
	mov	esi, DWORD PTR _i$148024[esp+28]
	mov	DWORD PTR ?freeFramePool@fbdFrame@DRAMsimII@@0V?$Queue@VfbdFrame@DRAMsimII@@@2@A+4, edx
$LN28@Queue@7:
	test	edi, edi
	je	SHORT $LN9@Queue@7
	cmp	esi, DWORD PTR [ebx]
	jge	SHORT $LN47@Queue@7
	test	esi, esi
	jl	SHORT $LN47@Queue@7
	mov	ecx, DWORD PTR [ebx+28]
	sub	ecx, DWORD PTR [ebx+24]
	mov	eax, DWORD PTR [ebx+4]
	xor	edx, edx
	add	eax, esi
	sar	ecx, 2
	div	ecx
	mov	esi, edx
	mov	edx, DWORD PTR [ebx+28]
	sub	edx, DWORD PTR [ebx+24]
	sar	edx, 2
	cmp	esi, edx
	jb	SHORT $LN53@Queue@7
	call	__invalid_parameter_noinfo
$LN53@Queue@7:
	mov	eax, DWORD PTR [ebx+24]
	mov	eax, DWORD PTR [eax+esi*4]
	mov	esi, DWORD PTR _i$148024[esp+28]
	jmp	SHORT $LN46@Queue@7
$LN47@Queue@7:
	xor	eax, eax
$LN46@Queue@7:
	movq	xmm0, QWORD PTR [eax]
	movq	QWORD PTR [edi], xmm0
	movq	xmm0, QWORD PTR [eax+8]
	movq	QWORD PTR [edi+8], xmm0
	movq	xmm0, QWORD PTR [eax+16]
	movq	QWORD PTR [edi+16], xmm0
	movq	xmm0, QWORD PTR [eax+24]
	movq	QWORD PTR [edi+24], xmm0
	movq	xmm0, QWORD PTR [eax+32]
	movq	QWORD PTR [edi+32], xmm0
	movq	xmm0, QWORD PTR [eax+40]
	movq	QWORD PTR [edi+40], xmm0
	jmp	SHORT $LN10@Queue@7
$LN9@Queue@7:
	xor	edi, edi
$LN10@Queue@7:
	mov	ecx, DWORD PTR [ebp+16]
	mov	edx, DWORD PTR _this$[esp+28]
	sub	ecx, DWORD PTR [ebp+12]
	mov	eax, DWORD PTR [edx+4]
	add	eax, esi
	sar	ecx, 2
	xor	edx, edx
	div	ecx
	mov	eax, DWORD PTR [ebp+16]
	sub	eax, DWORD PTR [ebp+12]
	sar	eax, 2
	mov	esi, edx
	cmp	esi, eax
	jb	SHORT $LN60@Queue@7
	call	__invalid_parameter_noinfo
$LN60@Queue@7:
	mov	eax, DWORD PTR _i$148024[esp+28]
	mov	ecx, DWORD PTR [ebp+12]
	inc	eax
	mov	DWORD PTR [ecx+esi*4], edi
	mov	DWORD PTR _i$148024[esp+28], eax
	cmp	eax, DWORD PTR [ebx]
	jb	$LL70@Queue@7
$LN69@Queue@7:

; 72   : 			}
; 73   : 
; 74   : 			for (unsigned i = 0; i < count; i++)
; 75   : 				assert(at(i) && rhs.at(i));
; 76   : 		}	

	mov	eax, DWORD PTR _this$[esp+28]
	mov	ecx, DWORD PTR __$EHRec$[esp+32]
	mov	DWORD PTR fs:0, ecx
	pop	ecx
	pop	edi
	pop	esi
	pop	ebp
	pop	ebx
	add	esp, 12					; 0000000cH
	ret	8
_TEXT	ENDS
;	COMDAT text$x
text$x	SEGMENT
__unwindfunclet$??0?$Queue@VfbdFrame@DRAMsimII@@@DRAMsimII@@QAE@ABV01@@Z$0:
	mov	esi, DWORD PTR _this$[ebp-4]
	add	esi, 12					; 0000000cH
	jmp	??1?$vector@PAVfbdFrame@DRAMsimII@@V?$allocator@PAVfbdFrame@DRAMsimII@@@std@@@std@@QAE@XZ ; std::vector<DRAMsimII::fbdFrame *,std::allocator<DRAMsimII::fbdFrame *> >::~vector<DRAMsimII::fbdFrame *,std::allocator<DRAMsimII::fbdFrame *> >
__ehhandler$??0?$Queue@VfbdFrame@DRAMsimII@@@DRAMsimII@@QAE@ABV01@@Z:
	mov	edx, DWORD PTR [esp+8]
	lea	eax, DWORD PTR [edx-16]
	mov	ecx, DWORD PTR [edx-20]
	xor	ecx, eax
	call	@__security_check_cookie@4
	mov	eax, OFFSET __ehfuncinfo$??0?$Queue@VfbdFrame@DRAMsimII@@@DRAMsimII@@QAE@ABV01@@Z
	jmp	___CxxFrameHandler3
text$x	ENDS
??0?$Queue@VfbdFrame@DRAMsimII@@@DRAMsimII@@QAE@ABV01@@Z ENDP ; DRAMsimII::Queue<DRAMsimII::fbdFrame>::Queue<DRAMsimII::fbdFrame>
;	COMDAT xdata$x
xdata$x	SEGMENT
__unwindtable$??0fbdChannel@DRAMsimII@@QAE@ABV01@@Z DD 0ffffffffH
	DD	FLAT:__unwindfunclet$??0fbdChannel@DRAMsimII@@QAE@ABV01@@Z$0
__ehfuncinfo$??0fbdChannel@DRAMsimII@@QAE@ABV01@@Z DD 019930522H
	DD	01H
	DD	FLAT:__unwindtable$??0fbdChannel@DRAMsimII@@QAE@ABV01@@Z
	DD	2 DUP(00H)
	DD	2 DUP(00H)
	DD	00H
	DD	01H
; Function compile flags: /Ogtpy
xdata$x	ENDS
;	COMDAT ??0fbdChannel@DRAMsimII@@QAE@ABV01@@Z
_TEXT	SEGMENT
__$EHRec$ = -12						; size = 12
_this$ = 8						; size = 4
??0fbdChannel@DRAMsimII@@QAE@ABV01@@Z PROC		; DRAMsimII::fbdChannel::fbdChannel, COMDAT
; ___that$ = ecx
	push	-1
	push	__ehhandler$??0fbdChannel@DRAMsimII@@QAE@ABV01@@Z
	mov	eax, DWORD PTR fs:0
	push	eax
	push	esi
	push	edi
	mov	eax, DWORD PTR ___security_cookie
	xor	eax, esp
	push	eax
	lea	eax, DWORD PTR __$EHRec$[esp+24]
	mov	DWORD PTR fs:0, eax
	mov	edi, ecx
	mov	esi, DWORD PTR _this$[esp+20]
	push	edi
	push	esi
	call	??0Channel@DRAMsimII@@QAE@ABV01@@Z	; DRAMsimII::Channel::Channel
	add	edi, 424				; 000001a8H
	push	edi
	lea	eax, DWORD PTR [esi+424]
	mov	DWORD PTR __$EHRec$[esp+36], 0
	push	eax
	mov	DWORD PTR [esi], OFFSET ??_7fbdChannel@DRAMsimII@@6B@
	call	??0?$Queue@VfbdFrame@DRAMsimII@@@DRAMsimII@@QAE@ABV01@@Z ; DRAMsimII::Queue<DRAMsimII::fbdFrame>::Queue<DRAMsimII::fbdFrame>
	mov	eax, esi
	mov	ecx, DWORD PTR __$EHRec$[esp+24]
	mov	DWORD PTR fs:0, ecx
	pop	ecx
	pop	edi
	pop	esi
	add	esp, 12					; 0000000cH
	ret	4
_TEXT	ENDS
;	COMDAT text$x
text$x	SEGMENT
__unwindfunclet$??0fbdChannel@DRAMsimII@@QAE@ABV01@@Z$0:
	mov	ecx, DWORD PTR _this$[ebp-4]
	jmp	??1Channel@DRAMsimII@@UAE@XZ		; DRAMsimII::Channel::~Channel
__ehhandler$??0fbdChannel@DRAMsimII@@QAE@ABV01@@Z:
	mov	edx, DWORD PTR [esp+8]
	lea	eax, DWORD PTR [edx-8]
	mov	ecx, DWORD PTR [edx-12]
	xor	ecx, eax
	call	@__security_check_cookie@4
	mov	eax, OFFSET __ehfuncinfo$??0fbdChannel@DRAMsimII@@QAE@ABV01@@Z
	jmp	___CxxFrameHandler3
text$x	ENDS
??0fbdChannel@DRAMsimII@@QAE@ABV01@@Z ENDP		; DRAMsimII::fbdChannel::fbdChannel
;	COMDAT xdata$x
; File c:\program files\microsoft visual studio 9.0\vc\include\new
xdata$x	SEGMENT
__unwindtable$??$_Construct@VfbdChannel@DRAMsimII@@V12@@std@@YAXPAVfbdChannel@DRAMsimII@@ABV12@@Z DD 0ffffffffH
	DD	FLAT:__unwindfunclet$??$_Construct@VfbdChannel@DRAMsimII@@V12@@std@@YAXPAVfbdChannel@DRAMsimII@@ABV12@@Z$0
__ehfuncinfo$??$_Construct@VfbdChannel@DRAMsimII@@V12@@std@@YAXPAVfbdChannel@DRAMsimII@@ABV12@@Z DD 019930522H
	DD	01H
	DD	FLAT:__unwindtable$??$_Construct@VfbdChannel@DRAMsimII@@V12@@std@@YAXPAVfbdChannel@DRAMsimII@@ABV12@@Z
	DD	2 DUP(00H)
	DD	2 DUP(00H)
	DD	00H
	DD	01H
; Function compile flags: /Ogtpy
; File c:\program files\microsoft visual studio 9.0\vc\include\xmemory
xdata$x	ENDS
;	COMDAT ??$_Construct@VfbdChannel@DRAMsimII@@V12@@std@@YAXPAVfbdChannel@DRAMsimII@@ABV12@@Z
_TEXT	SEGMENT
$T658716 = -16						; size = 4
__$EHRec$ = -12						; size = 12
__Vptr$ = 8						; size = 4
__Ptr$ = 8						; size = 4
??$_Construct@VfbdChannel@DRAMsimII@@V12@@std@@YAXPAVfbdChannel@DRAMsimII@@ABV12@@Z PROC ; std::_Construct<DRAMsimII::fbdChannel,DRAMsimII::fbdChannel>, COMDAT
; __Val$ = ecx

; 50   : 	{	// construct object at _Ptr with value _Val

	push	-1
	push	__ehhandler$??$_Construct@VfbdChannel@DRAMsimII@@V12@@std@@YAXPAVfbdChannel@DRAMsimII@@ABV12@@Z
	mov	eax, DWORD PTR fs:0
	push	eax
	push	ecx
	mov	eax, DWORD PTR ___security_cookie
	xor	eax, esp
	push	eax
	lea	eax, DWORD PTR __$EHRec$[esp+20]
	mov	DWORD PTR fs:0, eax
	mov	eax, DWORD PTR __Ptr$[esp+16]

; 51   : 	void _FARQ *_Vptr = _Ptr;

	mov	DWORD PTR __Vptr$[esp+16], eax

; 52   : 	::new (_Vptr) _T1(_Val);

	mov	DWORD PTR $T658716[esp+20], eax
	mov	DWORD PTR __$EHRec$[esp+28], 0
	test	eax, eax
	je	SHORT $LN3@Construct@23
	push	eax
	call	??0fbdChannel@DRAMsimII@@QAE@ABV01@@Z
$LN3@Construct@23:

; 53   : 	}

	mov	ecx, DWORD PTR __$EHRec$[esp+20]
	mov	DWORD PTR fs:0, ecx
	pop	ecx
	add	esp, 16					; 00000010H
	ret	0
_TEXT	ENDS
;	COMDAT text$x
text$x	SEGMENT
__unwindfunclet$??$_Construct@VfbdChannel@DRAMsimII@@V12@@std@@YAXPAVfbdChannel@DRAMsimII@@ABV12@@Z$0:
	mov	eax, DWORD PTR __Vptr$[ebp-4]
	push	eax
	mov	ecx, DWORD PTR $T658716[ebp]
	push	ecx
	call	??3@YAXPAX0@Z				; operator delete
	add	esp, 8
	ret	0
__ehhandler$??$_Construct@VfbdChannel@DRAMsimII@@V12@@std@@YAXPAVfbdChannel@DRAMsimII@@ABV12@@Z:
	mov	edx, DWORD PTR [esp+8]
	lea	eax, DWORD PTR [edx-4]
	mov	ecx, DWORD PTR [edx-8]
	xor	ecx, eax
	call	@__security_check_cookie@4
	mov	eax, OFFSET __ehfuncinfo$??$_Construct@VfbdChannel@DRAMsimII@@V12@@std@@YAXPAVfbdChannel@DRAMsimII@@ABV12@@Z
	jmp	___CxxFrameHandler3
text$x	ENDS
??$_Construct@VfbdChannel@DRAMsimII@@V12@@std@@YAXPAVfbdChannel@DRAMsimII@@ABV12@@Z ENDP ; std::_Construct<DRAMsimII::fbdChannel,DRAMsimII::fbdChannel>
;	COMDAT xdata$x
; File c:\program files\microsoft visual studio 9.0\vc\include\new
xdata$x	SEGMENT
__unwindtable$?construct@?$allocator@VfbdChannel@DRAMsimII@@@std@@QAEXPAVfbdChannel@DRAMsimII@@ABV34@@Z DD 0ffffffffH
	DD	FLAT:__unwindfunclet$?construct@?$allocator@VfbdChannel@DRAMsimII@@@std@@QAEXPAVfbdChannel@DRAMsimII@@ABV34@@Z$0
__ehfuncinfo$?construct@?$allocator@VfbdChannel@DRAMsimII@@@std@@QAEXPAVfbdChannel@DRAMsimII@@ABV34@@Z DD 019930522H
	DD	01H
	DD	FLAT:__unwindtable$?construct@?$allocator@VfbdChannel@DRAMsimII@@@std@@QAEXPAVfbdChannel@DRAMsimII@@ABV34@@Z
	DD	2 DUP(00H)
	DD	2 DUP(00H)
	DD	00H
	DD	01H
; Function compile flags: /Ogtpy
; File c:\program files\microsoft visual studio 9.0\vc\include\xmemory
xdata$x	ENDS
;	COMDAT ?construct@?$allocator@VfbdChannel@DRAMsimII@@@std@@QAEXPAVfbdChannel@DRAMsimII@@ABV34@@Z
_TEXT	SEGMENT
$T658743 = -16						; size = 4
__$EHRec$ = -12						; size = 12
__Vptr$658749 = 8					; size = 4
__Ptr$ = 8						; size = 4
?construct@?$allocator@VfbdChannel@DRAMsimII@@@std@@QAEXPAVfbdChannel@DRAMsimII@@ABV34@@Z PROC ; std::allocator<DRAMsimII::fbdChannel>::construct, COMDAT
; __Val$ = ecx

; 154  : 		{	// construct object at _Ptr with value _Val

	push	-1
	push	__ehhandler$?construct@?$allocator@VfbdChannel@DRAMsimII@@@std@@QAEXPAVfbdChannel@DRAMsimII@@ABV34@@Z
	mov	eax, DWORD PTR fs:0
	push	eax
	push	ecx
	mov	eax, DWORD PTR ___security_cookie
	xor	eax, esp
	push	eax
	lea	eax, DWORD PTR __$EHRec$[esp+20]
	mov	DWORD PTR fs:0, eax
	mov	eax, DWORD PTR __Ptr$[esp+16]

; 155  : 		_Construct(_Ptr, _Val);

	mov	DWORD PTR __Vptr$658749[esp+16], eax
	mov	DWORD PTR $T658743[esp+20], eax
	mov	DWORD PTR __$EHRec$[esp+28], 0
	test	eax, eax
	je	SHORT $LN5@construct@19
	push	eax
	call	??0fbdChannel@DRAMsimII@@QAE@ABV01@@Z
$LN5@construct@19:

; 156  : 		}

	mov	ecx, DWORD PTR __$EHRec$[esp+20]
	mov	DWORD PTR fs:0, ecx
	pop	ecx
	add	esp, 16					; 00000010H
	ret	4
_TEXT	ENDS
;	COMDAT text$x
text$x	SEGMENT
__unwindfunclet$?construct@?$allocator@VfbdChannel@DRAMsimII@@@std@@QAEXPAVfbdChannel@DRAMsimII@@ABV34@@Z$0:
	mov	eax, DWORD PTR __Vptr$658749[ebp-4]
	push	eax
	mov	ecx, DWORD PTR $T658743[ebp]
	push	ecx
	call	??3@YAXPAX0@Z				; operator delete
	add	esp, 8
	ret	0
__ehhandler$?construct@?$allocator@VfbdChannel@DRAMsimII@@@std@@QAEXPAVfbdChannel@DRAMsimII@@ABV34@@Z:
	mov	edx, DWORD PTR [esp+8]
	lea	eax, DWORD PTR [edx-4]
	mov	ecx, DWORD PTR [edx-8]
	xor	ecx, eax
	call	@__security_check_cookie@4
	mov	eax, OFFSET __ehfuncinfo$?construct@?$allocator@VfbdChannel@DRAMsimII@@@std@@QAEXPAVfbdChannel@DRAMsimII@@ABV34@@Z
	jmp	___CxxFrameHandler3
text$x	ENDS
?construct@?$allocator@VfbdChannel@DRAMsimII@@@std@@QAEXPAVfbdChannel@DRAMsimII@@ABV34@@Z ENDP ; std::allocator<DRAMsimII::fbdChannel>::construct
;	COMDAT xdata$x
xdata$x	SEGMENT
__unwindtable$??$_Uninit_fill_n@PAVfbdChannel@DRAMsimII@@IV12@V?$allocator@VfbdChannel@DRAMsimII@@@std@@@std@@YAXPAVfbdChannel@DRAMsimII@@IABV12@AAV?$allocator@VfbdChannel@DRAMsimII@@@0@U_Nonscalar_ptr_iterator_tag@0@U_Range_checked_iterator_tag@0@@Z DD 0ffffffffH
	DD	00H
	DD	00H
	DD	FLAT:__unwindfunclet$??$_Uninit_fill_n@PAVfbdChannel@DRAMsimII@@IV12@V?$allocator@VfbdChannel@DRAMsimII@@@std@@@std@@YAXPAVfbdChannel@DRAMsimII@@IABV12@AAV?$allocator@VfbdChannel@DRAMsimII@@@0@U_Nonscalar_ptr_iterator_tag@0@U_Range_checked_iterator_tag@0@@Z$2
	DD	01H
	DD	FLAT:__unwindfunclet$??$_Uninit_fill_n@PAVfbdChannel@DRAMsimII@@IV12@V?$allocator@VfbdChannel@DRAMsimII@@@std@@@std@@YAXPAVfbdChannel@DRAMsimII@@IABV12@AAV?$allocator@VfbdChannel@DRAMsimII@@@0@U_Nonscalar_ptr_iterator_tag@0@U_Range_checked_iterator_tag@0@@Z$3
	DD	0ffffffffH
	DD	00H
__catchsym$??$_Uninit_fill_n@PAVfbdChannel@DRAMsimII@@IV12@V?$allocator@VfbdChannel@DRAMsimII@@@std@@@std@@YAXPAVfbdChannel@DRAMsimII@@IABV12@AAV?$allocator@VfbdChannel@DRAMsimII@@@0@U_Nonscalar_ptr_iterator_tag@0@U_Range_checked_iterator_tag@0@@Z$5 DD 040H
	DD	00H
	DD	00H
	DD	FLAT:__catch$??$_Uninit_fill_n@PAVfbdChannel@DRAMsimII@@IV12@V?$allocator@VfbdChannel@DRAMsimII@@@std@@@std@@YAXPAVfbdChannel@DRAMsimII@@IABV12@AAV?$allocator@VfbdChannel@DRAMsimII@@@0@U_Nonscalar_ptr_iterator_tag@0@U_Range_checked_iterator_tag@0@@Z$0
__tryblocktable$??$_Uninit_fill_n@PAVfbdChannel@DRAMsimII@@IV12@V?$allocator@VfbdChannel@DRAMsimII@@@std@@@std@@YAXPAVfbdChannel@DRAMsimII@@IABV12@AAV?$allocator@VfbdChannel@DRAMsimII@@@0@U_Nonscalar_ptr_iterator_tag@0@U_Range_checked_iterator_tag@0@@Z DD 00H
	DD	02H
	DD	03H
	DD	01H
	DD	FLAT:__catchsym$??$_Uninit_fill_n@PAVfbdChannel@DRAMsimII@@IV12@V?$allocator@VfbdChannel@DRAMsimII@@@std@@@std@@YAXPAVfbdChannel@DRAMsimII@@IABV12@AAV?$allocator@VfbdChannel@DRAMsimII@@@0@U_Nonscalar_ptr_iterator_tag@0@U_Range_checked_iterator_tag@0@@Z$5
__ehfuncinfo$??$_Uninit_fill_n@PAVfbdChannel@DRAMsimII@@IV12@V?$allocator@VfbdChannel@DRAMsimII@@@std@@@std@@YAXPAVfbdChannel@DRAMsimII@@IABV12@AAV?$allocator@VfbdChannel@DRAMsimII@@@0@U_Nonscalar_ptr_iterator_tag@0@U_Range_checked_iterator_tag@0@@Z DD 019930522H
	DD	04H
	DD	FLAT:__unwindtable$??$_Uninit_fill_n@PAVfbdChannel@DRAMsimII@@IV12@V?$allocator@VfbdChannel@DRAMsimII@@@std@@@std@@YAXPAVfbdChannel@DRAMsimII@@IABV12@AAV?$allocator@VfbdChannel@DRAMsimII@@@0@U_Nonscalar_ptr_iterator_tag@0@U_Range_checked_iterator_tag@0@@Z
	DD	01H
	DD	FLAT:__tryblocktable$??$_Uninit_fill_n@PAVfbdChannel@DRAMsimII@@IV12@V?$allocator@VfbdChannel@DRAMsimII@@@std@@@std@@YAXPAVfbdChannel@DRAMsimII@@IABV12@AAV?$allocator@VfbdChannel@DRAMsimII@@@0@U_Nonscalar_ptr_iterator_tag@0@U_Range_checked_iterator_tag@0@@Z
	DD	2 DUP(00H)
	DD	00H
	DD	01H
; Function compile flags: /Ogtpy
; File c:\program files\microsoft visual studio 9.0\vc\include\memory
xdata$x	ENDS
;	COMDAT ??$_Uninit_fill_n@PAVfbdChannel@DRAMsimII@@IV12@V?$allocator@VfbdChannel@DRAMsimII@@@std@@@std@@YAXPAVfbdChannel@DRAMsimII@@IABV12@AAV?$allocator@VfbdChannel@DRAMsimII@@@0@U_Nonscalar_ptr_iterator_tag@0@U_Range_checked_iterator_tag@0@@Z
_TEXT	SEGMENT
$T658793 = -28						; size = 4
__Vptr$658799 = -24					; size = 4
__Next$ = -20						; size = 4
__$EHRec$ = -16						; size = 16
__First$ = 8						; size = 4
__Val$ = 12						; size = 4
___formal$ = 16						; size = 1
___formal$ = 20						; size = 1
??$_Uninit_fill_n@PAVfbdChannel@DRAMsimII@@IV12@V?$allocator@VfbdChannel@DRAMsimII@@@std@@@std@@YAXPAVfbdChannel@DRAMsimII@@IABV12@AAV?$allocator@VfbdChannel@DRAMsimII@@@0@U_Nonscalar_ptr_iterator_tag@0@U_Range_checked_iterator_tag@0@@Z PROC ; std::_Uninit_fill_n<DRAMsimII::fbdChannel *,unsigned int,DRAMsimII::fbdChannel,std::allocator<DRAMsimII::fbdChannel> >, COMDAT
; __Count$ = ecx

; 393  : 	{	// copy _Count *_Val to raw _First, using _Al, arbitrary type

	push	ebp
	mov	ebp, esp
	push	-1
	push	__ehhandler$??$_Uninit_fill_n@PAVfbdChannel@DRAMsimII@@IV12@V?$allocator@VfbdChannel@DRAMsimII@@@std@@@std@@YAXPAVfbdChannel@DRAMsimII@@IABV12@AAV?$allocator@VfbdChannel@DRAMsimII@@@0@U_Nonscalar_ptr_iterator_tag@0@U_Range_checked_iterator_tag@0@@Z
	mov	eax, DWORD PTR fs:0
	push	eax
	sub	esp, 16					; 00000010H
	push	ebx
	push	esi
	push	edi
	mov	eax, DWORD PTR ___security_cookie
	xor	eax, ebp
	push	eax
	lea	eax, DWORD PTR __$EHRec$[ebp+4]
	mov	DWORD PTR fs:0, eax
	mov	DWORD PTR __$EHRec$[ebp], esp
	mov	ebx, DWORD PTR __Val$[ebp]
	mov	edi, ecx
	mov	esi, DWORD PTR __First$[ebp]

; 394  : 
; 395  :  #if _HAS_ITERATOR_DEBUGGING
; 396  : //	if (_Count < 0)
; 397  : //		_DEBUG_ERROR("negative count in uninitialized fill");
; 398  :  #endif /* _HAS_ITERATOR_DEBUGGING */
; 399  : 
; 400  : 	_FwdIt _Next = _First;

	mov	DWORD PTR __Next$[ebp], esi

; 401  : 
; 402  : 	_TRY_BEGIN

	mov	DWORD PTR __$EHRec$[ebp+12], 0
	npad	3
$LL6@Uninit_fil@16:

; 403  : 	for (; 0 < _Count; --_Count, ++_First)

	test	edi, edi
	jbe	SHORT $LN4@Uninit_fil@16

; 404  : 		_Al.construct(_First, _Val);

	mov	DWORD PTR __Vptr$658799[ebp], esi
	mov	DWORD PTR $T658793[ebp], esi
	mov	BYTE PTR __$EHRec$[ebp+12], 1
	test	esi, esi
	je	SHORT $LN18@Uninit_fil@16
	push	ebx
	push	esi
	call	??0Channel@DRAMsimII@@QAE@ABV01@@Z	; DRAMsimII::Channel::Channel
	lea	eax, DWORD PTR [ebx+424]
	push	eax
	lea	ecx, DWORD PTR [esi+424]
	mov	BYTE PTR __$EHRec$[ebp+12], 2
	push	ecx
	mov	DWORD PTR [esi], OFFSET ??_7fbdChannel@DRAMsimII@@6B@
	call	??0?$Queue@VfbdFrame@DRAMsimII@@@DRAMsimII@@QAE@ABV01@@Z ; DRAMsimII::Queue<DRAMsimII::fbdFrame>::Queue<DRAMsimII::fbdFrame>
$LN18@Uninit_fil@16:
	dec	edi
	add	esi, 464				; 000001d0H
	mov	BYTE PTR __$EHRec$[ebp+12], 0
	mov	DWORD PTR __First$[ebp], esi
	jmp	SHORT $LL6@Uninit_fil@16
__catch$??$_Uninit_fill_n@PAVfbdChannel@DRAMsimII@@IV12@V?$allocator@VfbdChannel@DRAMsimII@@@std@@@std@@YAXPAVfbdChannel@DRAMsimII@@IABV12@AAV?$allocator@VfbdChannel@DRAMsimII@@@0@U_Nonscalar_ptr_iterator_tag@0@U_Range_checked_iterator_tag@0@@Z$0:

; 405  : 	_CATCH_ALL
; 406  : 	for (; _Next != _First; ++_Next)

	mov	esi, DWORD PTR __Next$[ebp]
	mov	edi, DWORD PTR __First$[ebp]
	cmp	esi, edi
	je	SHORT $LN1@Uninit_fil@16
$LL3@Uninit_fil@16:

; 407  : 		_Al.destroy(_Next);

	mov	edx, DWORD PTR [esi]
	mov	eax, DWORD PTR [edx+16]
	push	0
	mov	ecx, esi
	call	eax
	add	esi, 464				; 000001d0H
	cmp	esi, edi
	jne	SHORT $LL3@Uninit_fil@16
$LN1@Uninit_fil@16:

; 408  : 	_RERAISE;

	push	0
	push	0
	call	__CxxThrowException@8
$LN38@Uninit_fil@16:
$LN4@Uninit_fil@16:

; 409  : 	_CATCH_END
; 410  : 	}

	mov	ecx, DWORD PTR __$EHRec$[ebp+4]
	mov	DWORD PTR fs:0, ecx
	pop	ecx
	pop	edi
	pop	esi
	pop	ebx
	mov	esp, ebp
	pop	ebp
	ret	0
$LN37@Uninit_fil@16:
_TEXT	ENDS
;	COMDAT text$x
text$x	SEGMENT
__unwindfunclet$??$_Uninit_fill_n@PAVfbdChannel@DRAMsimII@@IV12@V?$allocator@VfbdChannel@DRAMsimII@@@std@@@std@@YAXPAVfbdChannel@DRAMsimII@@IABV12@AAV?$allocator@VfbdChannel@DRAMsimII@@@0@U_Nonscalar_ptr_iterator_tag@0@U_Range_checked_iterator_tag@0@@Z$2:
	mov	eax, DWORD PTR __Vptr$658799[ebp]
	push	eax
	mov	ecx, DWORD PTR $T658793[ebp]
	push	ecx
	call	??3@YAXPAX0@Z				; operator delete
	add	esp, 8
	ret	0
__unwindfunclet$??$_Uninit_fill_n@PAVfbdChannel@DRAMsimII@@IV12@V?$allocator@VfbdChannel@DRAMsimII@@@std@@@std@@YAXPAVfbdChannel@DRAMsimII@@IABV12@AAV?$allocator@VfbdChannel@DRAMsimII@@@0@U_Nonscalar_ptr_iterator_tag@0@U_Range_checked_iterator_tag@0@@Z$3:
	mov	ecx, DWORD PTR $T658793[ebp]
	jmp	??1Channel@DRAMsimII@@UAE@XZ		; DRAMsimII::Channel::~Channel
__ehhandler$??$_Uninit_fill_n@PAVfbdChannel@DRAMsimII@@IV12@V?$allocator@VfbdChannel@DRAMsimII@@@std@@@std@@YAXPAVfbdChannel@DRAMsimII@@IABV12@AAV?$allocator@VfbdChannel@DRAMsimII@@@0@U_Nonscalar_ptr_iterator_tag@0@U_Range_checked_iterator_tag@0@@Z:
	mov	edx, DWORD PTR [esp+8]
	lea	eax, DWORD PTR [edx+12]
	mov	ecx, DWORD PTR [edx-32]
	xor	ecx, eax
	call	@__security_check_cookie@4
	mov	eax, OFFSET __ehfuncinfo$??$_Uninit_fill_n@PAVfbdChannel@DRAMsimII@@IV12@V?$allocator@VfbdChannel@DRAMsimII@@@std@@@std@@YAXPAVfbdChannel@DRAMsimII@@IABV12@AAV?$allocator@VfbdChannel@DRAMsimII@@@0@U_Nonscalar_ptr_iterator_tag@0@U_Range_checked_iterator_tag@0@@Z
	jmp	___CxxFrameHandler3
text$x	ENDS
??$_Uninit_fill_n@PAVfbdChannel@DRAMsimII@@IV12@V?$allocator@VfbdChannel@DRAMsimII@@@std@@@std@@YAXPAVfbdChannel@DRAMsimII@@IABV12@AAV?$allocator@VfbdChannel@DRAMsimII@@@0@U_Nonscalar_ptr_iterator_tag@0@U_Range_checked_iterator_tag@0@@Z ENDP ; std::_Uninit_fill_n<DRAMsimII::fbdChannel *,unsigned int,DRAMsimII::fbdChannel,std::allocator<DRAMsimII::fbdChannel> >
; Function compile flags: /Ogtpy
;	COMDAT ??$unchecked_uninitialized_fill_n@PAVfbdChannel@DRAMsimII@@IV12@V?$allocator@VfbdChannel@DRAMsimII@@@std@@@stdext@@YAXPAVfbdChannel@DRAMsimII@@IABV12@AAV?$allocator@VfbdChannel@DRAMsimII@@@std@@@Z
_TEXT	SEGMENT
$T658827 = -4						; size = 1
__Cat$658831 = -4					; size = 1
__First$ = 8						; size = 4
__Count$ = 12						; size = 4
??$unchecked_uninitialized_fill_n@PAVfbdChannel@DRAMsimII@@IV12@V?$allocator@VfbdChannel@DRAMsimII@@@std@@@stdext@@YAXPAVfbdChannel@DRAMsimII@@IABV12@AAV?$allocator@VfbdChannel@DRAMsimII@@@std@@@Z PROC ; stdext::unchecked_uninitialized_fill_n<DRAMsimII::fbdChannel *,unsigned int,DRAMsimII::fbdChannel,std::allocator<DRAMsimII::fbdChannel> >, COMDAT
; __Val$ = edx

; 940  : 	{	// copy _Count *_Val to raw _First, using _Al

	push	ecx

; 941  : 	_STD _Uninit_fill_n(_First, _Count, _Val, _Al,
; 942  : 		_STD _Ptr_cat(_First, _First), _STD _Range_checked_iterator_tag());

	mov	BYTE PTR $T658827[esp+4], 0
	mov	eax, DWORD PTR $T658827[esp+4]
	mov	ecx, DWORD PTR __Cat$658831[esp+4]
	push	eax
	mov	eax, DWORD PTR __First$[esp+4]
	push	ecx
	mov	ecx, DWORD PTR __Count$[esp+8]
	push	edx
	push	eax
	call	??$_Uninit_fill_n@PAVfbdChannel@DRAMsimII@@IV12@V?$allocator@VfbdChannel@DRAMsimII@@@std@@@std@@YAXPAVfbdChannel@DRAMsimII@@IABV12@AAV?$allocator@VfbdChannel@DRAMsimII@@@0@U_Nonscalar_ptr_iterator_tag@0@U_Range_checked_iterator_tag@0@@Z ; std::_Uninit_fill_n<DRAMsimII::fbdChannel *,unsigned int,DRAMsimII::fbdChannel,std::allocator<DRAMsimII::fbdChannel> >

; 943  : 	}

	add	esp, 20					; 00000014H
	ret	0
??$unchecked_uninitialized_fill_n@PAVfbdChannel@DRAMsimII@@IV12@V?$allocator@VfbdChannel@DRAMsimII@@@std@@@stdext@@YAXPAVfbdChannel@DRAMsimII@@IABV12@AAV?$allocator@VfbdChannel@DRAMsimII@@@std@@@Z ENDP ; stdext::unchecked_uninitialized_fill_n<DRAMsimII::fbdChannel *,unsigned int,DRAMsimII::fbdChannel,std::allocator<DRAMsimII::fbdChannel> >
; Function compile flags: /Ogtpy
; File c:\program files\microsoft visual studio 9.0\vc\include\vector
_TEXT	ENDS
;	COMDAT ?_Ufill@?$vector@VfbdChannel@DRAMsimII@@V?$allocator@VfbdChannel@DRAMsimII@@@std@@@std@@IAEPAVfbdChannel@DRAMsimII@@PAV34@IABV34@@Z
_TEXT	SEGMENT
$T658845 = -4						; size = 1
__Cat$658848 = -4					; size = 1
?_Ufill@?$vector@VfbdChannel@DRAMsimII@@V?$allocator@VfbdChannel@DRAMsimII@@@std@@@std@@IAEPAVfbdChannel@DRAMsimII@@PAV34@IABV34@@Z PROC ; std::vector<DRAMsimII::fbdChannel,std::allocator<DRAMsimII::fbdChannel> >::_Ufill, COMDAT
; __Ptr$ = edi
; __Count$ = esi
; __Val$ = edx

; 1253 : 		{	// copy initializing _Count * _Val, using allocator

	push	ecx

; 1254 : 		_STDEXT unchecked_uninitialized_fill_n(_Ptr, _Count, _Val, this->_Alval);

	mov	BYTE PTR $T658845[esp+4], 0
	mov	eax, DWORD PTR $T658845[esp+4]
	mov	ecx, DWORD PTR __Cat$658848[esp+4]
	push	eax
	push	ecx
	push	edx
	push	edi
	mov	ecx, esi
	call	??$_Uninit_fill_n@PAVfbdChannel@DRAMsimII@@IV12@V?$allocator@VfbdChannel@DRAMsimII@@@std@@@std@@YAXPAVfbdChannel@DRAMsimII@@IABV12@AAV?$allocator@VfbdChannel@DRAMsimII@@@0@U_Nonscalar_ptr_iterator_tag@0@U_Range_checked_iterator_tag@0@@Z ; std::_Uninit_fill_n<DRAMsimII::fbdChannel *,unsigned int,DRAMsimII::fbdChannel,std::allocator<DRAMsimII::fbdChannel> >

; 1255 : 		return (_Ptr + _Count);

	mov	eax, esi
	imul	eax, 464				; 000001d0H
	add	eax, edi

; 1256 : 		}

	add	esp, 20					; 00000014H
	ret	0
?_Ufill@?$vector@VfbdChannel@DRAMsimII@@V?$allocator@VfbdChannel@DRAMsimII@@@std@@@std@@IAEPAVfbdChannel@DRAMsimII@@PAV34@IABV34@@Z ENDP ; std::vector<DRAMsimII::fbdChannel,std::allocator<DRAMsimII::fbdChannel> >::_Ufill
_TEXT	ENDS
;	COMDAT xdata$x
; File c:\program files\microsoft visual studio 9.0\vc\include\xutility
xdata$x	SEGMENT
__unwindtable$?_Construct_n@?$vector@VfbdChannel@DRAMsimII@@V?$allocator@VfbdChannel@DRAMsimII@@@std@@@std@@QAEXIABVfbdChannel@DRAMsimII@@@Z DD 0ffffffffH
	DD	00H
	DD	0ffffffffH
	DD	00H
__catchsym$?_Construct_n@?$vector@VfbdChannel@DRAMsimII@@V?$allocator@VfbdChannel@DRAMsimII@@@std@@@std@@QAEXIABVfbdChannel@DRAMsimII@@@Z$2 DD 040H
	DD	00H
	DD	00H
	DD	FLAT:__catch$?_Construct_n@?$vector@VfbdChannel@DRAMsimII@@V?$allocator@VfbdChannel@DRAMsimII@@@std@@@std@@QAEXIABVfbdChannel@DRAMsimII@@@Z$0
__tryblocktable$?_Construct_n@?$vector@VfbdChannel@DRAMsimII@@V?$allocator@VfbdChannel@DRAMsimII@@@std@@@std@@QAEXIABVfbdChannel@DRAMsimII@@@Z DD 00H
	DD	00H
	DD	01H
	DD	01H
	DD	FLAT:__catchsym$?_Construct_n@?$vector@VfbdChannel@DRAMsimII@@V?$allocator@VfbdChannel@DRAMsimII@@@std@@@std@@QAEXIABVfbdChannel@DRAMsimII@@@Z$2
__ehfuncinfo$?_Construct_n@?$vector@VfbdChannel@DRAMsimII@@V?$allocator@VfbdChannel@DRAMsimII@@@std@@@std@@QAEXIABVfbdChannel@DRAMsimII@@@Z DD 019930522H
	DD	02H
	DD	FLAT:__unwindtable$?_Construct_n@?$vector@VfbdChannel@DRAMsimII@@V?$allocator@VfbdChannel@DRAMsimII@@@std@@@std@@QAEXIABVfbdChannel@DRAMsimII@@@Z
	DD	01H
	DD	FLAT:__tryblocktable$?_Construct_n@?$vector@VfbdChannel@DRAMsimII@@V?$allocator@VfbdChannel@DRAMsimII@@@std@@@std@@QAEXIABVfbdChannel@DRAMsimII@@@Z
	DD	2 DUP(00H)
	DD	00H
	DD	01H
; Function compile flags: /Ogtpy
; File c:\program files\microsoft visual studio 9.0\vc\include\vector
xdata$x	ENDS
;	COMDAT ?_Construct_n@?$vector@VfbdChannel@DRAMsimII@@V?$allocator@VfbdChannel@DRAMsimII@@@std@@@std@@QAEXIABVfbdChannel@DRAMsimII@@@Z
_TEXT	SEGMENT
$T658909 = -20						; size = 1
__$EHRec$ = -16						; size = 16
_this$ = 8						; size = 4
__Cat$658912 = 12					; size = 1
__Count$ = 12						; size = 4
__Val$ = 16						; size = 4
?_Construct_n@?$vector@VfbdChannel@DRAMsimII@@V?$allocator@VfbdChannel@DRAMsimII@@@std@@@std@@QAEXIABVfbdChannel@DRAMsimII@@@Z PROC ; std::vector<DRAMsimII::fbdChannel,std::allocator<DRAMsimII::fbdChannel> >::_Construct_n, COMDAT

; 545  : 		{	// construct from _Count * _Val

	push	ebp
	mov	ebp, esp
	push	-1
	push	__ehhandler$?_Construct_n@?$vector@VfbdChannel@DRAMsimII@@V?$allocator@VfbdChannel@DRAMsimII@@@std@@@std@@QAEXIABVfbdChannel@DRAMsimII@@@Z
	mov	eax, DWORD PTR fs:0
	push	eax
	sub	esp, 8
	push	ebx
	push	esi
	push	edi
	mov	eax, DWORD PTR ___security_cookie
	xor	eax, ebp
	push	eax
	lea	eax, DWORD PTR __$EHRec$[ebp+4]
	mov	DWORD PTR fs:0, eax
	mov	DWORD PTR __$EHRec$[ebp], esp
	mov	esi, DWORD PTR _this$[ebp]

; 546  : 		if (_Buy(_Count))

	mov	ebx, DWORD PTR __Count$[ebp]
	xor	eax, eax
	mov	DWORD PTR [esi+12], eax
	mov	DWORD PTR [esi+16], eax
	mov	DWORD PTR [esi+20], eax
	cmp	ebx, eax
	je	SHORT $LN7@Construct_@11
	cmp	ebx, 9256395				; 008d3dcbH
	jbe	SHORT $LN10@Construct_@11
	call	?_Xlen@?$vector@VfbdChannel@DRAMsimII@@V?$allocator@VfbdChannel@DRAMsimII@@@std@@@std@@KAXXZ ; std::vector<DRAMsimII::fbdChannel,std::allocator<DRAMsimII::fbdChannel> >::_Xlen
$LN32@Construct_@11:
$LN10@Construct_@11:
	mov	ecx, ebx
	call	?allocate@?$allocator@VfbdChannel@DRAMsimII@@@std@@QAEPAVfbdChannel@DRAMsimII@@I@Z ; std::allocator<DRAMsimII::fbdChannel>::allocate
	imul	ebx, 464				; 000001d0H
	mov	edi, eax

; 547  : 			{	// nonzero, fill it
; 548  : 			_TRY_BEGIN

	mov	DWORD PTR __$EHRec$[ebp+12], 0

; 549  : 			_Mylast = _Ufill(_Myfirst, _Count, _Val);

	mov	edx, DWORD PTR __Cat$658912[ebp]
	mov	BYTE PTR $T658909[ebp], 0
	mov	ecx, DWORD PTR $T658909[ebp]
	push	ecx
	mov	ecx, DWORD PTR __Count$[ebp]
	lea	eax, DWORD PTR [ebx+edi]
	mov	DWORD PTR [esi+20], eax
	mov	eax, DWORD PTR __Val$[ebp]
	push	edx
	push	eax
	push	edi
	mov	DWORD PTR [esi+12], edi
	mov	DWORD PTR [esi+16], edi
	call	??$_Uninit_fill_n@PAVfbdChannel@DRAMsimII@@IV12@V?$allocator@VfbdChannel@DRAMsimII@@@std@@@std@@YAXPAVfbdChannel@DRAMsimII@@IABV12@AAV?$allocator@VfbdChannel@DRAMsimII@@@0@U_Nonscalar_ptr_iterator_tag@0@U_Range_checked_iterator_tag@0@@Z ; std::_Uninit_fill_n<DRAMsimII::fbdChannel *,unsigned int,DRAMsimII::fbdChannel,std::allocator<DRAMsimII::fbdChannel> >
	add	esp, 16					; 00000010H
	add	ebx, edi
	mov	DWORD PTR [esi+16], ebx
$LN7@Construct_@11:

; 553  : 			_CATCH_END
; 554  : 			}
; 555  : 		}

	mov	ecx, DWORD PTR __$EHRec$[ebp+4]
	mov	DWORD PTR fs:0, ecx
	pop	ecx
	pop	edi
	pop	esi
	pop	ebx
	mov	esp, ebp
	pop	ebp
	ret	12					; 0000000cH
__catch$?_Construct_n@?$vector@VfbdChannel@DRAMsimII@@V?$allocator@VfbdChannel@DRAMsimII@@@std@@@std@@QAEXIABVfbdChannel@DRAMsimII@@@Z$0:

; 550  : 			_CATCH_ALL
; 551  : 			_Tidy();

	mov	ecx, DWORD PTR _this$[ebp]
	push	ecx
	call	?_Tidy@?$vector@VfbdChannel@DRAMsimII@@V?$allocator@VfbdChannel@DRAMsimII@@@std@@@std@@IAEXXZ ; std::vector<DRAMsimII::fbdChannel,std::allocator<DRAMsimII::fbdChannel> >::_Tidy

; 552  : 			_RERAISE;

	push	0
	push	0
	call	__CxxThrowException@8
$LN33@Construct_@11:
$LN31@Construct_@11:
	int	3
_TEXT	ENDS
;	COMDAT text$x
text$x	SEGMENT
__ehhandler$?_Construct_n@?$vector@VfbdChannel@DRAMsimII@@V?$allocator@VfbdChannel@DRAMsimII@@@std@@@std@@QAEXIABVfbdChannel@DRAMsimII@@@Z:
	mov	edx, DWORD PTR [esp+8]
	lea	eax, DWORD PTR [edx+12]
	mov	ecx, DWORD PTR [edx-24]
	xor	ecx, eax
	call	@__security_check_cookie@4
	mov	eax, OFFSET __ehfuncinfo$?_Construct_n@?$vector@VfbdChannel@DRAMsimII@@V?$allocator@VfbdChannel@DRAMsimII@@@std@@@std@@QAEXIABVfbdChannel@DRAMsimII@@@Z
	jmp	___CxxFrameHandler3
text$x	ENDS
?_Construct_n@?$vector@VfbdChannel@DRAMsimII@@V?$allocator@VfbdChannel@DRAMsimII@@@std@@@std@@QAEXIABVfbdChannel@DRAMsimII@@@Z ENDP ; std::vector<DRAMsimII::fbdChannel,std::allocator<DRAMsimII::fbdChannel> >::_Construct_n
;	COMDAT xdata$x
; File c:\program files\microsoft visual studio 9.0\vc\include\xmemory
xdata$x	SEGMENT
__unwindtable$??0?$vector@VfbdChannel@DRAMsimII@@V?$allocator@VfbdChannel@DRAMsimII@@@std@@@std@@QAE@IABVfbdChannel@DRAMsimII@@@Z DD 0ffffffffH
	DD	FLAT:__unwindfunclet$??0?$vector@VfbdChannel@DRAMsimII@@V?$allocator@VfbdChannel@DRAMsimII@@@std@@@std@@QAE@IABVfbdChannel@DRAMsimII@@@Z$0
__ehfuncinfo$??0?$vector@VfbdChannel@DRAMsimII@@V?$allocator@VfbdChannel@DRAMsimII@@@std@@@std@@QAE@IABVfbdChannel@DRAMsimII@@@Z DD 019930522H
	DD	01H
	DD	FLAT:__unwindtable$??0?$vector@VfbdChannel@DRAMsimII@@V?$allocator@VfbdChannel@DRAMsimII@@@std@@@std@@QAE@IABVfbdChannel@DRAMsimII@@@Z
	DD	2 DUP(00H)
	DD	2 DUP(00H)
	DD	00H
	DD	01H
; Function compile flags: /Ogtpy
; File c:\program files\microsoft visual studio 9.0\vc\include\vector
xdata$x	ENDS
;	COMDAT ??0?$vector@VfbdChannel@DRAMsimII@@V?$allocator@VfbdChannel@DRAMsimII@@@std@@@std@@QAE@IABVfbdChannel@DRAMsimII@@@Z
_TEXT	SEGMENT
__$EHRec$ = -12						; size = 12
_this$ = 8						; size = 4
__Count$ = 12						; size = 4
__Val$ = 16						; size = 4
??0?$vector@VfbdChannel@DRAMsimII@@V?$allocator@VfbdChannel@DRAMsimII@@@std@@@std@@QAE@IABVfbdChannel@DRAMsimII@@@Z PROC ; std::vector<DRAMsimII::fbdChannel,std::allocator<DRAMsimII::fbdChannel> >::vector<DRAMsimII::fbdChannel,std::allocator<DRAMsimII::fbdChannel> >, COMDAT

; 488  : 		{	// construct from _Count * _Val

	push	-1
	push	__ehhandler$??0?$vector@VfbdChannel@DRAMsimII@@V?$allocator@VfbdChannel@DRAMsimII@@@std@@@std@@QAE@IABVfbdChannel@DRAMsimII@@@Z
	mov	eax, DWORD PTR fs:0
	push	eax
	push	esi
	mov	eax, DWORD PTR ___security_cookie
	xor	eax, esp
	push	eax
	lea	eax, DWORD PTR __$EHRec$[esp+20]
	mov	DWORD PTR fs:0, eax
	mov	esi, DWORD PTR _this$[esp+16]
	push	4
	call	??2@YAPAXI@Z				; operator new
	add	esp, 4
	test	eax, eax
	je	SHORT $LN13@vector@51
	mov	DWORD PTR [eax], esi
	jmp	SHORT $LN14@vector@51
$LN13@vector@51:
	xor	eax, eax
$LN14@vector@51:
	mov	DWORD PTR [esi], eax

; 489  : 		_Construct_n(_Count, _Val);

	mov	eax, DWORD PTR __Val$[esp+16]
	mov	ecx, DWORD PTR __Count$[esp+16]
	push	eax
	push	ecx
	push	esi
	mov	DWORD PTR __$EHRec$[esp+40], 0
	call	?_Construct_n@?$vector@VfbdChannel@DRAMsimII@@V?$allocator@VfbdChannel@DRAMsimII@@@std@@@std@@QAEXIABVfbdChannel@DRAMsimII@@@Z ; std::vector<DRAMsimII::fbdChannel,std::allocator<DRAMsimII::fbdChannel> >::_Construct_n

; 490  : 		}

	mov	eax, esi
	mov	ecx, DWORD PTR __$EHRec$[esp+20]
	mov	DWORD PTR fs:0, ecx
	pop	ecx
	pop	esi
	add	esp, 12					; 0000000cH
	ret	12					; 0000000cH
_TEXT	ENDS
;	COMDAT text$x
text$x	SEGMENT
__unwindfunclet$??0?$vector@VfbdChannel@DRAMsimII@@V?$allocator@VfbdChannel@DRAMsimII@@@std@@@std@@QAE@IABVfbdChannel@DRAMsimII@@@Z$0:
	mov	eax, DWORD PTR _this$[ebp-4]
	jmp	??1?$_Vector_val@VfbdChannel@DRAMsimII@@V?$allocator@VfbdChannel@DRAMsimII@@@std@@@std@@QAE@XZ
__ehhandler$??0?$vector@VfbdChannel@DRAMsimII@@V?$allocator@VfbdChannel@DRAMsimII@@@std@@@std@@QAE@IABVfbdChannel@DRAMsimII@@@Z:
	mov	edx, DWORD PTR [esp+8]
	lea	eax, DWORD PTR [edx-4]
	mov	ecx, DWORD PTR [edx-8]
	xor	ecx, eax
	call	@__security_check_cookie@4
	mov	eax, OFFSET __ehfuncinfo$??0?$vector@VfbdChannel@DRAMsimII@@V?$allocator@VfbdChannel@DRAMsimII@@@std@@@std@@QAE@IABVfbdChannel@DRAMsimII@@@Z
	jmp	___CxxFrameHandler3
text$x	ENDS
??0?$vector@VfbdChannel@DRAMsimII@@V?$allocator@VfbdChannel@DRAMsimII@@@std@@@std@@QAE@IABVfbdChannel@DRAMsimII@@@Z ENDP ; std::vector<DRAMsimII::fbdChannel,std::allocator<DRAMsimII::fbdChannel> >::vector<DRAMsimII::fbdChannel,std::allocator<DRAMsimII::fbdChannel> >
PUBLIC	??0fbdSystem@DRAMsimII@@QAE@ABVSettings@1@@Z	; DRAMsimII::fbdSystem::fbdSystem
__unwindtable$??0fbdSystem@DRAMsimII@@QAE@ABVSettings@1@@Z DD 0ffffffffH
	DD	FLAT:__unwindfunclet$??0fbdSystem@DRAMsimII@@QAE@ABVSettings@1@@Z$0
	DD	00H
	DD	FLAT:__unwindfunclet$??0fbdSystem@DRAMsimII@@QAE@ABVSettings@1@@Z$1
	DD	01H
	DD	FLAT:__unwindfunclet$??0fbdSystem@DRAMsimII@@QAE@ABVSettings@1@@Z$2
	DD	00H
	DD	FLAT:__unwindfunclet$??0fbdSystem@DRAMsimII@@QAE@ABVSettings@1@@Z$2
__ehfuncinfo$??0fbdSystem@DRAMsimII@@QAE@ABVSettings@1@@Z DD 019930522H
	DD	04H
	DD	FLAT:__unwindtable$??0fbdSystem@DRAMsimII@@QAE@ABVSettings@1@@Z
	DD	2 DUP(00H)
	DD	2 DUP(00H)
	DD	00H
	DD	01H
; Function compile flags: /Ogtpy
; File c:\users\crius\documents\visual studio 2008\projects\dramsimiihg\src\fbdsystem.cpp
_TEXT	SEGMENT
$T659058 = -476						; size = 464
__$EHRec$ = -12						; size = 12
_this$ = 8						; size = 4
??0fbdSystem@DRAMsimII@@QAE@ABVSettings@1@@Z PROC	; DRAMsimII::fbdSystem::fbdSystem
; _settings$ = edi

; 24   : {}

	push	-1
	push	__ehhandler$??0fbdSystem@DRAMsimII@@QAE@ABVSettings@1@@Z
	mov	eax, DWORD PTR fs:0
	push	eax
	sub	esp, 464				; 000001d0H
	push	esi
	mov	eax, DWORD PTR ___security_cookie
	xor	eax, esp
	push	eax
	lea	eax, DWORD PTR __$EHRec$[esp+484]
	mov	DWORD PTR fs:0, eax
	mov	esi, DWORD PTR _this$[esp+480]
	push	edi
	push	esi
	call	??0System@DRAMsimII@@QAE@ABVSettings@1@@Z ; DRAMsimII::System::System
	lea	eax, DWORD PTR [esi+568]
	push	eax
	lea	edx, DWORD PTR $T659058[esp+488]
	push	edx
	mov	DWORD PTR __$EHRec$[esp+500], 0
	lea	ecx, DWORD PTR [esi+8]
	mov	edx, edi
	mov	DWORD PTR [esi], OFFSET ??_7fbdSystem@DRAMsimII@@6B@
	call	??0fbdChannel@DRAMsimII@@QAE@ABVSettings@1@ABVSystemConfiguration@1@AAVStatistics@1@@Z ; DRAMsimII::fbdChannel::fbdChannel
	push	eax
	mov	BYTE PTR __$EHRec$[esp+496], 1
	mov	ecx, DWORD PTR [esi+364]
	push	ecx
	lea	eax, DWORD PTR [esi+11496]
	push	eax
	call	??0?$vector@VfbdChannel@DRAMsimII@@V?$allocator@VfbdChannel@DRAMsimII@@@std@@@std@@QAE@IABVfbdChannel@DRAMsimII@@@Z ; std::vector<DRAMsimII::fbdChannel,std::allocator<DRAMsimII::fbdChannel> >::vector<DRAMsimII::fbdChannel,std::allocator<DRAMsimII::fbdChannel> >
	lea	ecx, DWORD PTR $T659058[esp+484]
	push	ecx
	mov	BYTE PTR __$EHRec$[esp+496], 3
	call	??1fbdChannel@DRAMsimII@@UAE@XZ
	mov	eax, esi
	mov	ecx, DWORD PTR __$EHRec$[esp+484]
	mov	DWORD PTR fs:0, ecx
	pop	ecx
	pop	esi
	add	esp, 476				; 000001dcH
	ret	4
__unwindfunclet$??0fbdSystem@DRAMsimII@@QAE@ABVSettings@1@@Z$0:
	mov	eax, DWORD PTR _this$[ebp-4]
	push	eax
	call	??1System@DRAMsimII@@QAE@XZ
	ret	0
__unwindfunclet$??0fbdSystem@DRAMsimII@@QAE@ABVSettings@1@@Z$1:
	lea	eax, DWORD PTR $T659058[ebp]
	push	eax
	call	??1fbdChannel@DRAMsimII@@UAE@XZ
	ret	0
__unwindfunclet$??0fbdSystem@DRAMsimII@@QAE@ABVSettings@1@@Z$2:
	mov	eax, DWORD PTR _this$[ebp-4]
	add	eax, 11496				; 00002ce8H
	push	eax
	call	??1?$vector@VfbdChannel@DRAMsimII@@V?$allocator@VfbdChannel@DRAMsimII@@@std@@@std@@QAE@XZ ; std::vector<DRAMsimII::fbdChannel,std::allocator<DRAMsimII::fbdChannel> >::~vector<DRAMsimII::fbdChannel,std::allocator<DRAMsimII::fbdChannel> >
	ret	0
__ehhandler$??0fbdSystem@DRAMsimII@@QAE@ABVSettings@1@@Z:
	mov	edx, DWORD PTR [esp+8]
	lea	eax, DWORD PTR [edx-468]
	mov	ecx, DWORD PTR [edx-472]
	xor	ecx, eax
	call	@__security_check_cookie@4
	mov	eax, OFFSET __ehfuncinfo$??0fbdSystem@DRAMsimII@@QAE@ABVSettings@1@@Z
	jmp	___CxxFrameHandler3
??0fbdSystem@DRAMsimII@@QAE@ABVSettings@1@@Z ENDP	; DRAMsimII::fbdSystem::fbdSystem
END
