; Listing generated by Microsoft (R) Optimizing Compiler Version 15.00.30729.01 

	TITLE	c:\Users\CriuS\Documents\Visual Studio 2008\Projects\DRAMsimIIhg\src\InputStream.cpp
	.686P
	.XMM
	include listing.inc
	.model	flat

INCLUDELIB OLDNAMES

PUBLIC	??_R4?$sp_counted_impl_p@Uimpl@?$basic_file@D@iostreams@boost@@@detail@boost@@6B@ ; boost::detail::sp_counted_impl_p<boost::iostreams::basic_file<char>::impl>::`RTTI Complete Object Locator'
PUBLIC	??_R3?$sp_counted_impl_p@Uimpl@?$basic_file@D@iostreams@boost@@@detail@boost@@8 ; boost::detail::sp_counted_impl_p<boost::iostreams::basic_file<char>::impl>::`RTTI Class Hierarchy Descriptor'
PUBLIC	??_R2?$sp_counted_impl_p@Uimpl@?$basic_file@D@iostreams@boost@@@detail@boost@@8 ; boost::detail::sp_counted_impl_p<boost::iostreams::basic_file<char>::impl>::`RTTI Base Class Array'
PUBLIC	??_R1A@?0A@EA@?$sp_counted_impl_p@Uimpl@?$basic_file@D@iostreams@boost@@@detail@boost@@8 ; boost::detail::sp_counted_impl_p<boost::iostreams::basic_file<char>::impl>::`RTTI Base Class Descriptor at (0,-1,0,64)'
PUBLIC	??_R0?AV?$sp_counted_impl_p@Uimpl@?$basic_file@D@iostreams@boost@@@detail@boost@@@8 ; boost::detail::sp_counted_impl_p<boost::iostreams::basic_file<char>::impl> `RTTI Type Descriptor'
PUBLIC	??_R4?$sp_counted_impl_p@Um_imp@?$basic_filesystem_error@V?$basic_path@V?$basic_string@DU?$char_traits@D@std@@V?$allocator@D@2@@std@@Upath_traits@filesystem@boost@@@filesystem@boost@@@filesystem@boost@@@detail@boost@@6B@ ; boost::detail::sp_counted_impl_p<boost::filesystem::basic_filesystem_error<boost::filesystem::basic_path<std::basic_string<char,std::char_traits<char>,std::allocator<char> >,boost::filesystem::path_traits> >::m_imp>::`RTTI Complete Object Locator'
PUBLIC	??_R3?$sp_counted_impl_p@Um_imp@?$basic_filesystem_error@V?$basic_path@V?$basic_string@DU?$char_traits@D@std@@V?$allocator@D@2@@std@@Upath_traits@filesystem@boost@@@filesystem@boost@@@filesystem@boost@@@detail@boost@@8 ; boost::detail::sp_counted_impl_p<boost::filesystem::basic_filesystem_error<boost::filesystem::basic_path<std::basic_string<char,std::char_traits<char>,std::allocator<char> >,boost::filesystem::path_traits> >::m_imp>::`RTTI Class Hierarchy Descriptor'
PUBLIC	??_R2?$sp_counted_impl_p@Um_imp@?$basic_filesystem_error@V?$basic_path@V?$basic_string@DU?$char_traits@D@std@@V?$allocator@D@2@@std@@Upath_traits@filesystem@boost@@@filesystem@boost@@@filesystem@boost@@@detail@boost@@8 ; boost::detail::sp_counted_impl_p<boost::filesystem::basic_filesystem_error<boost::filesystem::basic_path<std::basic_string<char,std::char_traits<char>,std::allocator<char> >,boost::filesystem::path_traits> >::m_imp>::`RTTI Base Class Array'
PUBLIC	??_R1A@?0A@EA@?$sp_counted_impl_p@Um_imp@?$basic_filesystem_error@V?$basic_path@V?$basic_string@DU?$char_traits@D@std@@V?$allocator@D@2@@std@@Upath_traits@filesystem@boost@@@filesystem@boost@@@filesystem@boost@@@detail@boost@@8 ; boost::detail::sp_counted_impl_p<boost::filesystem::basic_filesystem_error<boost::filesystem::basic_path<std::basic_string<char,std::char_traits<char>,std::allocator<char> >,boost::filesystem::path_traits> >::m_imp>::`RTTI Base Class Descriptor at (0,-1,0,64)'
PUBLIC	??_R0?AV?$sp_counted_impl_p@Um_imp@?$basic_filesystem_error@V?$basic_path@V?$basic_string@DU?$char_traits@D@std@@V?$allocator@D@2@@std@@Upath_traits@filesystem@boost@@@filesystem@boost@@@filesystem@boost@@@detail@boost@@@8 ; boost::detail::sp_counted_impl_p<boost::filesystem::basic_filesystem_error<boost::filesystem::basic_path<std::basic_string<char,std::char_traits<char>,std::allocator<char> >,boost::filesystem::path_traits> >::m_imp> `RTTI Type Descriptor'
PUBLIC	??_R4?$indirect_streambuf@U?$basic_file_source@D@iostreams@boost@@U?$char_traits@D@std@@V?$allocator@D@5@Uinput@23@@detail@iostreams@boost@@6B@ ; boost::iostreams::detail::indirect_streambuf<boost::iostreams::basic_file_source<char>,std::char_traits<char>,std::allocator<char>,boost::iostreams::input>::`RTTI Complete Object Locator'
PUBLIC	??_R4?$stream_buffer@U?$basic_file_source@D@iostreams@boost@@U?$char_traits@D@std@@V?$allocator@D@5@Uinput@23@@iostreams@boost@@6B@ ; boost::iostreams::stream_buffer<boost::iostreams::basic_file_source<char>,std::char_traits<char>,std::allocator<char>,boost::iostreams::input>::`RTTI Complete Object Locator'
PUBLIC	??_R3?$stream_buffer@U?$basic_file_source@D@iostreams@boost@@U?$char_traits@D@std@@V?$allocator@D@5@Uinput@23@@iostreams@boost@@8 ; boost::iostreams::stream_buffer<boost::iostreams::basic_file_source<char>,std::char_traits<char>,std::allocator<char>,boost::iostreams::input>::`RTTI Class Hierarchy Descriptor'
PUBLIC	??_R2?$stream_buffer@U?$basic_file_source@D@iostreams@boost@@U?$char_traits@D@std@@V?$allocator@D@5@Uinput@23@@iostreams@boost@@8 ; boost::iostreams::stream_buffer<boost::iostreams::basic_file_source<char>,std::char_traits<char>,std::allocator<char>,boost::iostreams::input>::`RTTI Base Class Array'
PUBLIC	??_R1A@?0A@EA@?$indirect_streambuf@U?$basic_file_source@D@iostreams@boost@@U?$char_traits@D@std@@V?$allocator@D@5@Uinput@23@@detail@iostreams@boost@@8 ; boost::iostreams::detail::indirect_streambuf<boost::iostreams::basic_file_source<char>,std::char_traits<char>,std::allocator<char>,boost::iostreams::input>::`RTTI Base Class Descriptor at (0,-1,0,64)'
PUBLIC	??_R3?$indirect_streambuf@U?$basic_file_source@D@iostreams@boost@@U?$char_traits@D@std@@V?$allocator@D@5@Uinput@23@@detail@iostreams@boost@@8 ; boost::iostreams::detail::indirect_streambuf<boost::iostreams::basic_file_source<char>,std::char_traits<char>,std::allocator<char>,boost::iostreams::input>::`RTTI Class Hierarchy Descriptor'
PUBLIC	??_R2?$indirect_streambuf@U?$basic_file_source@D@iostreams@boost@@U?$char_traits@D@std@@V?$allocator@D@5@Uinput@23@@detail@iostreams@boost@@8 ; boost::iostreams::detail::indirect_streambuf<boost::iostreams::basic_file_source<char>,std::char_traits<char>,std::allocator<char>,boost::iostreams::input>::`RTTI Base Class Array'
PUBLIC	??_R0?AV?$indirect_streambuf@U?$basic_file_source@D@iostreams@boost@@U?$char_traits@D@std@@V?$allocator@D@5@Uinput@23@@detail@iostreams@boost@@@8 ; boost::iostreams::detail::indirect_streambuf<boost::iostreams::basic_file_source<char>,std::char_traits<char>,std::allocator<char>,boost::iostreams::input> `RTTI Type Descriptor'
PUBLIC	??_R1A@?0A@EA@?$stream_buffer@U?$basic_file_source@D@iostreams@boost@@U?$char_traits@D@std@@V?$allocator@D@5@Uinput@23@@iostreams@boost@@8 ; boost::iostreams::stream_buffer<boost::iostreams::basic_file_source<char>,std::char_traits<char>,std::allocator<char>,boost::iostreams::input>::`RTTI Base Class Descriptor at (0,-1,0,64)'
PUBLIC	??_R0?AV?$stream_buffer@U?$basic_file_source@D@iostreams@boost@@U?$char_traits@D@std@@V?$allocator@D@5@Uinput@23@@iostreams@boost@@@8 ; boost::iostreams::stream_buffer<boost::iostreams::basic_file_source<char>,std::char_traits<char>,std::allocator<char>,boost::iostreams::input> `RTTI Type Descriptor'
PUBLIC	??_R4?$indirect_streambuf@V?$basic_null_device@DUinput@iostreams@boost@@@iostreams@boost@@U?$char_traits@D@std@@V?$allocator@D@5@Uinput@23@@detail@iostreams@boost@@6B@ ; boost::iostreams::detail::indirect_streambuf<boost::iostreams::basic_null_device<char,boost::iostreams::input>,std::char_traits<char>,std::allocator<char>,boost::iostreams::input>::`RTTI Complete Object Locator'
PUBLIC	??_R4?$stream_buffer@V?$basic_null_device@DUinput@iostreams@boost@@@iostreams@boost@@U?$char_traits@D@std@@V?$allocator@D@5@Uinput@23@@iostreams@boost@@6B@ ; boost::iostreams::stream_buffer<boost::iostreams::basic_null_device<char,boost::iostreams::input>,std::char_traits<char>,std::allocator<char>,boost::iostreams::input>::`RTTI Complete Object Locator'
PUBLIC	??_R3?$stream_buffer@V?$basic_null_device@DUinput@iostreams@boost@@@iostreams@boost@@U?$char_traits@D@std@@V?$allocator@D@5@Uinput@23@@iostreams@boost@@8 ; boost::iostreams::stream_buffer<boost::iostreams::basic_null_device<char,boost::iostreams::input>,std::char_traits<char>,std::allocator<char>,boost::iostreams::input>::`RTTI Class Hierarchy Descriptor'
PUBLIC	??_R2?$stream_buffer@V?$basic_null_device@DUinput@iostreams@boost@@@iostreams@boost@@U?$char_traits@D@std@@V?$allocator@D@5@Uinput@23@@iostreams@boost@@8 ; boost::iostreams::stream_buffer<boost::iostreams::basic_null_device<char,boost::iostreams::input>,std::char_traits<char>,std::allocator<char>,boost::iostreams::input>::`RTTI Base Class Array'
PUBLIC	??_R1A@?0A@EA@?$indirect_streambuf@V?$basic_null_device@DUinput@iostreams@boost@@@iostreams@boost@@U?$char_traits@D@std@@V?$allocator@D@5@Uinput@23@@detail@iostreams@boost@@8 ; boost::iostreams::detail::indirect_streambuf<boost::iostreams::basic_null_device<char,boost::iostreams::input>,std::char_traits<char>,std::allocator<char>,boost::iostreams::input>::`RTTI Base Class Descriptor at (0,-1,0,64)'
PUBLIC	??_R3?$indirect_streambuf@V?$basic_null_device@DUinput@iostreams@boost@@@iostreams@boost@@U?$char_traits@D@std@@V?$allocator@D@5@Uinput@23@@detail@iostreams@boost@@8 ; boost::iostreams::detail::indirect_streambuf<boost::iostreams::basic_null_device<char,boost::iostreams::input>,std::char_traits<char>,std::allocator<char>,boost::iostreams::input>::`RTTI Class Hierarchy Descriptor'
PUBLIC	??_R2?$indirect_streambuf@V?$basic_null_device@DUinput@iostreams@boost@@@iostreams@boost@@U?$char_traits@D@std@@V?$allocator@D@5@Uinput@23@@detail@iostreams@boost@@8 ; boost::iostreams::detail::indirect_streambuf<boost::iostreams::basic_null_device<char,boost::iostreams::input>,std::char_traits<char>,std::allocator<char>,boost::iostreams::input>::`RTTI Base Class Array'
PUBLIC	??_R0?AV?$indirect_streambuf@V?$basic_null_device@DUinput@iostreams@boost@@@iostreams@boost@@U?$char_traits@D@std@@V?$allocator@D@5@Uinput@23@@detail@iostreams@boost@@@8 ; boost::iostreams::detail::indirect_streambuf<boost::iostreams::basic_null_device<char,boost::iostreams::input>,std::char_traits<char>,std::allocator<char>,boost::iostreams::input> `RTTI Type Descriptor'
PUBLIC	??_R1A@?0A@EA@?$stream_buffer@V?$basic_null_device@DUinput@iostreams@boost@@@iostreams@boost@@U?$char_traits@D@std@@V?$allocator@D@5@Uinput@23@@iostreams@boost@@8 ; boost::iostreams::stream_buffer<boost::iostreams::basic_null_device<char,boost::iostreams::input>,std::char_traits<char>,std::allocator<char>,boost::iostreams::input>::`RTTI Base Class Descriptor at (0,-1,0,64)'
PUBLIC	??_R0?AV?$stream_buffer@V?$basic_null_device@DUinput@iostreams@boost@@@iostreams@boost@@U?$char_traits@D@std@@V?$allocator@D@5@Uinput@23@@iostreams@boost@@@8 ; boost::iostreams::stream_buffer<boost::iostreams::basic_null_device<char,boost::iostreams::input>,std::char_traits<char>,std::allocator<char>,boost::iostreams::input> `RTTI Type Descriptor'
PUBLIC	??_R4?$sp_counted_impl_p@Uchain_impl@?$chain_base@V?$chain@Uinput@iostreams@boost@@DU?$char_traits@D@std@@V?$allocator@D@5@@iostreams@boost@@DU?$char_traits@D@std@@V?$allocator@D@5@Uinput@23@@detail@iostreams@boost@@@detail@boost@@6B@ ; boost::detail::sp_counted_impl_p<boost::iostreams::detail::chain_base<boost::iostreams::chain<boost::iostreams::input,char,std::char_traits<char>,std::allocator<char> >,char,std::char_traits<char>,std::allocator<char>,boost::iostreams::input>::chain_impl>::`RTTI Complete Object Locator'
PUBLIC	??_R3?$sp_counted_impl_p@Uchain_impl@?$chain_base@V?$chain@Uinput@iostreams@boost@@DU?$char_traits@D@std@@V?$allocator@D@5@@iostreams@boost@@DU?$char_traits@D@std@@V?$allocator@D@5@Uinput@23@@detail@iostreams@boost@@@detail@boost@@8 ; boost::detail::sp_counted_impl_p<boost::iostreams::detail::chain_base<boost::iostreams::chain<boost::iostreams::input,char,std::char_traits<char>,std::allocator<char> >,char,std::char_traits<char>,std::allocator<char>,boost::iostreams::input>::chain_impl>::`RTTI Class Hierarchy Descriptor'
PUBLIC	??_R2?$sp_counted_impl_p@Uchain_impl@?$chain_base@V?$chain@Uinput@iostreams@boost@@DU?$char_traits@D@std@@V?$allocator@D@5@@iostreams@boost@@DU?$char_traits@D@std@@V?$allocator@D@5@Uinput@23@@detail@iostreams@boost@@@detail@boost@@8 ; boost::detail::sp_counted_impl_p<boost::iostreams::detail::chain_base<boost::iostreams::chain<boost::iostreams::input,char,std::char_traits<char>,std::allocator<char> >,char,std::char_traits<char>,std::allocator<char>,boost::iostreams::input>::chain_impl>::`RTTI Base Class Array'
PUBLIC	??_R1A@?0A@EA@?$sp_counted_impl_p@Uchain_impl@?$chain_base@V?$chain@Uinput@iostreams@boost@@DU?$char_traits@D@std@@V?$allocator@D@5@@iostreams@boost@@DU?$char_traits@D@std@@V?$allocator@D@5@Uinput@23@@detail@iostreams@boost@@@detail@boost@@8 ; boost::detail::sp_counted_impl_p<boost::iostreams::detail::chain_base<boost::iostreams::chain<boost::iostreams::input,char,std::char_traits<char>,std::allocator<char> >,char,std::char_traits<char>,std::allocator<char>,boost::iostreams::input>::chain_impl>::`RTTI Base Class Descriptor at (0,-1,0,64)'
PUBLIC	??_R0?AV?$sp_counted_impl_p@Uchain_impl@?$chain_base@V?$chain@Uinput@iostreams@boost@@DU?$char_traits@D@std@@V?$allocator@D@5@@iostreams@boost@@DU?$char_traits@D@std@@V?$allocator@D@5@Uinput@23@@detail@iostreams@boost@@@detail@boost@@@8 ; boost::detail::sp_counted_impl_p<boost::iostreams::detail::chain_base<boost::iostreams::chain<boost::iostreams::input,char,std::char_traits<char>,std::allocator<char> >,char,std::char_traits<char>,std::allocator<char>,boost::iostreams::input>::chain_impl> `RTTI Type Descriptor'
PUBLIC	??_R4?$codecvt@DDH@std@@6B@			; std::codecvt<char,char,int>::`RTTI Complete Object Locator'
PUBLIC	??_R3?$codecvt@DDH@std@@8			; std::codecvt<char,char,int>::`RTTI Class Hierarchy Descriptor'
PUBLIC	??_R2?$codecvt@DDH@std@@8			; std::codecvt<char,char,int>::`RTTI Base Class Array'
PUBLIC	??_R1A@?0A@EA@?$codecvt@DDH@std@@8		; std::codecvt<char,char,int>::`RTTI Base Class Descriptor at (0,-1,0,64)'
PUBLIC	??_R0?AV?$codecvt@DDH@std@@@8			; std::codecvt<char,char,int> `RTTI Type Descriptor'
PUBLIC	??_R4?$clone_impl@U?$error_info_injector@V?$basic_filesystem_error@V?$basic_path@V?$basic_string@DU?$char_traits@D@std@@V?$allocator@D@2@@std@@Upath_traits@filesystem@boost@@@filesystem@boost@@@filesystem@boost@@@exception_detail@boost@@@exception_detail@boost@@6B@ ; boost::exception_detail::clone_impl<boost::exception_detail::error_info_injector<boost::filesystem::basic_filesystem_error<boost::filesystem::basic_path<std::basic_string<char,std::char_traits<char>,std::allocator<char> >,boost::filesystem::path_traits> > > >::`RTTI Complete Object Locator'
PUBLIC	??_R4?$clone_impl@U?$error_info_injector@V?$basic_filesystem_error@V?$basic_path@V?$basic_string@DU?$char_traits@D@std@@V?$allocator@D@2@@std@@Upath_traits@filesystem@boost@@@filesystem@boost@@@filesystem@boost@@@exception_detail@boost@@@exception_detail@boost@@6Bexception@2@@ ; boost::exception_detail::clone_impl<boost::exception_detail::error_info_injector<boost::filesystem::basic_filesystem_error<boost::filesystem::basic_path<std::basic_string<char,std::char_traits<char>,std::allocator<char> >,boost::filesystem::path_traits> > > >::`RTTI Complete Object Locator'
PUBLIC	??_R4?$clone_impl@U?$error_info_injector@V?$basic_filesystem_error@V?$basic_path@V?$basic_string@DU?$char_traits@D@std@@V?$allocator@D@2@@std@@Upath_traits@filesystem@boost@@@filesystem@boost@@@filesystem@boost@@@exception_detail@boost@@@exception_detail@boost@@6B?$basic_filesystem_error@V?$basic_path@V?$basic_string@DU?$char_traits@D@std@@V?$allocator@D@2@@std@@Upath_traits@filesystem@boost@@@filesystem@boost@@@filesystem@2@@ ; boost::exception_detail::clone_impl<boost::exception_detail::error_info_injector<boost::filesystem::basic_filesystem_error<boost::filesystem::basic_path<std::basic_string<char,std::char_traits<char>,std::allocator<char> >,boost::filesystem::path_traits> > > >::`RTTI Complete Object Locator'
PUBLIC	??_R3?$clone_impl@U?$error_info_injector@V?$basic_filesystem_error@V?$basic_path@V?$basic_string@DU?$char_traits@D@std@@V?$allocator@D@2@@std@@Upath_traits@filesystem@boost@@@filesystem@boost@@@filesystem@boost@@@exception_detail@boost@@@exception_detail@boost@@8 ; boost::exception_detail::clone_impl<boost::exception_detail::error_info_injector<boost::filesystem::basic_filesystem_error<boost::filesystem::basic_path<std::basic_string<char,std::char_traits<char>,std::allocator<char> >,boost::filesystem::path_traits> > > >::`RTTI Class Hierarchy Descriptor'
PUBLIC	??_R2?$clone_impl@U?$error_info_injector@V?$basic_filesystem_error@V?$basic_path@V?$basic_string@DU?$char_traits@D@std@@V?$allocator@D@2@@std@@Upath_traits@filesystem@boost@@@filesystem@boost@@@filesystem@boost@@@exception_detail@boost@@@exception_detail@boost@@8 ; boost::exception_detail::clone_impl<boost::exception_detail::error_info_injector<boost::filesystem::basic_filesystem_error<boost::filesystem::basic_path<std::basic_string<char,std::char_traits<char>,std::allocator<char> >,boost::filesystem::path_traits> > > >::`RTTI Base Class Array'
PUBLIC	??_R1GI@?0A@EA@clone_base@exception_detail@boost@@8 ; boost::exception_detail::clone_base::`RTTI Base Class Descriptor at (104,-1,0,64)'
PUBLIC	??_R1A@?0A@EA@?$clone_impl@U?$error_info_injector@V?$basic_filesystem_error@V?$basic_path@V?$basic_string@DU?$char_traits@D@std@@V?$allocator@D@2@@std@@Upath_traits@filesystem@boost@@@filesystem@boost@@@filesystem@boost@@@exception_detail@boost@@@exception_detail@boost@@8 ; boost::exception_detail::clone_impl<boost::exception_detail::error_info_injector<boost::filesystem::basic_filesystem_error<boost::filesystem::basic_path<std::basic_string<char,std::char_traits<char>,std::allocator<char> >,boost::filesystem::path_traits> > > >::`RTTI Base Class Descriptor at (0,-1,0,64)'
PUBLIC	??_R4?$error_info_injector@V?$basic_filesystem_error@V?$basic_path@V?$basic_string@DU?$char_traits@D@std@@V?$allocator@D@2@@std@@Upath_traits@filesystem@boost@@@filesystem@boost@@@filesystem@boost@@@exception_detail@boost@@6Bexception@2@@ ; boost::exception_detail::error_info_injector<boost::filesystem::basic_filesystem_error<boost::filesystem::basic_path<std::basic_string<char,std::char_traits<char>,std::allocator<char> >,boost::filesystem::path_traits> > >::`RTTI Complete Object Locator'
PUBLIC	??_R4?$error_info_injector@V?$basic_filesystem_error@V?$basic_path@V?$basic_string@DU?$char_traits@D@std@@V?$allocator@D@2@@std@@Upath_traits@filesystem@boost@@@filesystem@boost@@@filesystem@boost@@@exception_detail@boost@@6B?$basic_filesystem_error@V?$basic_path@V?$basic_string@DU?$char_traits@D@std@@V?$allocator@D@2@@std@@Upath_traits@filesystem@boost@@@filesystem@boost@@@filesystem@2@@ ; boost::exception_detail::error_info_injector<boost::filesystem::basic_filesystem_error<boost::filesystem::basic_path<std::basic_string<char,std::char_traits<char>,std::allocator<char> >,boost::filesystem::path_traits> > >::`RTTI Complete Object Locator'
PUBLIC	??_R3?$error_info_injector@V?$basic_filesystem_error@V?$basic_path@V?$basic_string@DU?$char_traits@D@std@@V?$allocator@D@2@@std@@Upath_traits@filesystem@boost@@@filesystem@boost@@@filesystem@boost@@@exception_detail@boost@@8 ; boost::exception_detail::error_info_injector<boost::filesystem::basic_filesystem_error<boost::filesystem::basic_path<std::basic_string<char,std::char_traits<char>,std::allocator<char> >,boost::filesystem::path_traits> > >::`RTTI Class Hierarchy Descriptor'
PUBLIC	??_R2?$error_info_injector@V?$basic_filesystem_error@V?$basic_path@V?$basic_string@DU?$char_traits@D@std@@V?$allocator@D@2@@std@@Upath_traits@filesystem@boost@@@filesystem@boost@@@filesystem@boost@@@exception_detail@boost@@8 ; boost::exception_detail::error_info_injector<boost::filesystem::basic_filesystem_error<boost::filesystem::basic_path<std::basic_string<char,std::char_traits<char>,std::allocator<char> >,boost::filesystem::path_traits> > >::`RTTI Base Class Array'
PUBLIC	??_R1FE@?0A@EA@exception@boost@@8		; boost::exception::`RTTI Base Class Descriptor at (84,-1,0,64)'
PUBLIC	??_R1A@?0A@EA@?$error_info_injector@V?$basic_filesystem_error@V?$basic_path@V?$basic_string@DU?$char_traits@D@std@@V?$allocator@D@2@@std@@Upath_traits@filesystem@boost@@@filesystem@boost@@@filesystem@boost@@@exception_detail@boost@@8 ; boost::exception_detail::error_info_injector<boost::filesystem::basic_filesystem_error<boost::filesystem::basic_path<std::basic_string<char,std::char_traits<char>,std::allocator<char> >,boost::filesystem::path_traits> > >::`RTTI Base Class Descriptor at (0,-1,0,64)'
PUBLIC	??_R4?$linked_streambuf@DU?$char_traits@D@std@@@detail@iostreams@boost@@6B@ ; boost::iostreams::detail::linked_streambuf<char,std::char_traits<char> >::`RTTI Complete Object Locator'
PUBLIC	??_R3?$linked_streambuf@DU?$char_traits@D@std@@@detail@iostreams@boost@@8 ; boost::iostreams::detail::linked_streambuf<char,std::char_traits<char> >::`RTTI Class Hierarchy Descriptor'
PUBLIC	??_R2?$linked_streambuf@DU?$char_traits@D@std@@@detail@iostreams@boost@@8 ; boost::iostreams::detail::linked_streambuf<char,std::char_traits<char> >::`RTTI Base Class Array'
PUBLIC	??_R1A@?0A@EA@?$linked_streambuf@DU?$char_traits@D@std@@@detail@iostreams@boost@@8 ; boost::iostreams::detail::linked_streambuf<char,std::char_traits<char> >::`RTTI Base Class Descriptor at (0,-1,0,64)'
PUBLIC	??_R0?AV?$linked_streambuf@DU?$char_traits@D@std@@@detail@iostreams@boost@@@8 ; boost::iostreams::detail::linked_streambuf<char,std::char_traits<char> > `RTTI Type Descriptor'
PUBLIC	??_R4?$access_control@V?$chain_client@V?$chain@Uinput@iostreams@boost@@DU?$char_traits@D@std@@V?$allocator@D@5@@iostreams@boost@@@detail@iostreams@boost@@Upublic_@34@U?$pub_@V?$chain_client@V?$chain@Uinput@iostreams@boost@@DU?$char_traits@D@std@@V?$allocator@D@5@@iostreams@boost@@@detail@iostreams@boost@@@234@@iostreams@boost@@6B@ ; boost::iostreams::access_control<boost::iostreams::detail::chain_client<boost::iostreams::chain<boost::iostreams::input,char,std::char_traits<char>,std::allocator<char> > >,boost::iostreams::public_,boost::iostreams::detail::pub_<boost::iostreams::detail::chain_client<boost::iostreams::chain<boost::iostreams::input,char,std::char_traits<char>,std::allocator<char> > > > >::`RTTI Complete Object Locator'
PUBLIC	??_R4?$pub_@V?$chain_client@V?$chain@Uinput@iostreams@boost@@DU?$char_traits@D@std@@V?$allocator@D@5@@iostreams@boost@@@detail@iostreams@boost@@@detail@iostreams@boost@@6B@ ; boost::iostreams::detail::pub_<boost::iostreams::detail::chain_client<boost::iostreams::chain<boost::iostreams::input,char,std::char_traits<char>,std::allocator<char> > > >::`RTTI Complete Object Locator'
PUBLIC	??_R4?$chain_client@V?$chain@Uinput@iostreams@boost@@DU?$char_traits@D@std@@V?$allocator@D@5@@iostreams@boost@@@detail@iostreams@boost@@6B@ ; boost::iostreams::detail::chain_client<boost::iostreams::chain<boost::iostreams::input,char,std::char_traits<char>,std::allocator<char> > >::`RTTI Complete Object Locator'
PUBLIC	??_R4?$filtering_stream_base@V?$chain@Uinput@iostreams@boost@@DU?$char_traits@D@std@@V?$allocator@D@5@@iostreams@boost@@Upublic_@23@@detail@iostreams@boost@@6B?$basic_istream@DU?$char_traits@D@std@@@std@@@ ; boost::iostreams::detail::filtering_stream_base<boost::iostreams::chain<boost::iostreams::input,char,std::char_traits<char>,std::allocator<char> >,boost::iostreams::public_>::`RTTI Complete Object Locator'
PUBLIC	??_R4?$filtering_stream_base@V?$chain@Uinput@iostreams@boost@@DU?$char_traits@D@std@@V?$allocator@D@5@@iostreams@boost@@Upublic_@23@@detail@iostreams@boost@@6B?$access_control@V?$chain_client@V?$chain@Uinput@iostreams@boost@@DU?$char_traits@D@std@@V?$allocator@D@5@@iostreams@boost@@@detail@iostreams@boost@@Upublic_@34@U?$pub_@V?$chain_client@V?$chain@Uinput@iostreams@boost@@DU?$char_traits@D@std@@V?$allocator@D@5@@iostreams@boost@@@detail@iostreams@boost@@@234@@23@@ ; boost::iostreams::detail::filtering_stream_base<boost::iostreams::chain<boost::iostreams::input,char,std::char_traits<char>,std::allocator<char> >,boost::iostreams::public_>::`RTTI Complete Object Locator'
PUBLIC	??_R4?$filtering_stream@Uinput@iostreams@boost@@DU?$char_traits@D@std@@V?$allocator@D@5@Upublic_@23@@iostreams@boost@@6B?$basic_istream@DU?$char_traits@D@std@@@std@@@ ; boost::iostreams::filtering_stream<boost::iostreams::input,char,std::char_traits<char>,std::allocator<char>,boost::iostreams::public_>::`RTTI Complete Object Locator'
PUBLIC	??_R4?$filtering_stream@Uinput@iostreams@boost@@DU?$char_traits@D@std@@V?$allocator@D@5@Upublic_@23@@iostreams@boost@@6B?$access_control@V?$chain_client@V?$chain@Uinput@iostreams@boost@@DU?$char_traits@D@std@@V?$allocator@D@5@@iostreams@boost@@@detail@iostreams@boost@@Upublic_@34@U?$pub_@V?$chain_client@V?$chain@Uinput@iostreams@boost@@DU?$char_traits@D@std@@V?$allocator@D@5@@iostreams@boost@@@detail@iostreams@boost@@@234@@12@@ ; boost::iostreams::filtering_stream<boost::iostreams::input,char,std::char_traits<char>,std::allocator<char>,boost::iostreams::public_>::`RTTI Complete Object Locator'
PUBLIC	??_R3?$filtering_stream@Uinput@iostreams@boost@@DU?$char_traits@D@std@@V?$allocator@D@5@Upublic_@23@@iostreams@boost@@8 ; boost::iostreams::filtering_stream<boost::iostreams::input,char,std::char_traits<char>,std::allocator<char>,boost::iostreams::public_>::`RTTI Class Hierarchy Descriptor'
PUBLIC	??_R2?$filtering_stream@Uinput@iostreams@boost@@DU?$char_traits@D@std@@V?$allocator@D@5@Upublic_@23@@iostreams@boost@@8 ; boost::iostreams::filtering_stream<boost::iostreams::input,char,std::char_traits<char>,std::allocator<char>,boost::iostreams::public_>::`RTTI Base Class Array'
PUBLIC	??_R1A@?0A@EA@?$filtering_stream_base@V?$chain@Uinput@iostreams@boost@@DU?$char_traits@D@std@@V?$allocator@D@5@@iostreams@boost@@Upublic_@23@@detail@iostreams@boost@@8 ; boost::iostreams::detail::filtering_stream_base<boost::iostreams::chain<boost::iostreams::input,char,std::char_traits<char>,std::allocator<char> >,boost::iostreams::public_>::`RTTI Base Class Descriptor at (0,-1,0,64)'
PUBLIC	??_R3?$filtering_stream_base@V?$chain@Uinput@iostreams@boost@@DU?$char_traits@D@std@@V?$allocator@D@5@@iostreams@boost@@Upublic_@23@@detail@iostreams@boost@@8 ; boost::iostreams::detail::filtering_stream_base<boost::iostreams::chain<boost::iostreams::input,char,std::char_traits<char>,std::allocator<char> >,boost::iostreams::public_>::`RTTI Class Hierarchy Descriptor'
PUBLIC	??_R2?$filtering_stream_base@V?$chain@Uinput@iostreams@boost@@DU?$char_traits@D@std@@V?$allocator@D@5@@iostreams@boost@@Upublic_@23@@detail@iostreams@boost@@8 ; boost::iostreams::detail::filtering_stream_base<boost::iostreams::chain<boost::iostreams::input,char,std::char_traits<char>,std::allocator<char> >,boost::iostreams::public_>::`RTTI Base Class Array'
PUBLIC	??_R1373EA@?$_Iosb@H@std@@8			; std::_Iosb<int>::`RTTI Base Class Descriptor at (4,8,4,64)'
PUBLIC	??_R1A@73EA@ios_base@std@@8			; std::ios_base::`RTTI Base Class Descriptor at (0,8,4,64)'
PUBLIC	??_R1A@73FA@?$basic_ios@DU?$char_traits@D@std@@@std@@8 ; std::basic_ios<char,std::char_traits<char> >::`RTTI Base Class Descriptor at (0,8,4,80)'
PUBLIC	??_R17?0A@EA@?$basic_istream@DU?$char_traits@D@std@@@std@@8 ; std::basic_istream<char,std::char_traits<char> >::`RTTI Base Class Descriptor at (8,-1,0,64)'
PUBLIC	??_R1A@?0A@EA@?$access_control@V?$chain_client@V?$chain@Uinput@iostreams@boost@@DU?$char_traits@D@std@@V?$allocator@D@5@@iostreams@boost@@@detail@iostreams@boost@@Upublic_@34@U?$pub_@V?$chain_client@V?$chain@Uinput@iostreams@boost@@DU?$char_traits@D@std@@V?$allocator@D@5@@iostreams@boost@@@detail@iostreams@boost@@@234@@iostreams@boost@@8 ; boost::iostreams::access_control<boost::iostreams::detail::chain_client<boost::iostreams::chain<boost::iostreams::input,char,std::char_traits<char>,std::allocator<char> > >,boost::iostreams::public_,boost::iostreams::detail::pub_<boost::iostreams::detail::chain_client<boost::iostreams::chain<boost::iostreams::input,char,std::char_traits<char>,std::allocator<char> > > > >::`RTTI Base Class Descriptor at (0,-1,0,64)'
PUBLIC	??_R3?$access_control@V?$chain_client@V?$chain@Uinput@iostreams@boost@@DU?$char_traits@D@std@@V?$allocator@D@5@@iostreams@boost@@@detail@iostreams@boost@@Upublic_@34@U?$pub_@V?$chain_client@V?$chain@Uinput@iostreams@boost@@DU?$char_traits@D@std@@V?$allocator@D@5@@iostreams@boost@@@detail@iostreams@boost@@@234@@iostreams@boost@@8 ; boost::iostreams::access_control<boost::iostreams::detail::chain_client<boost::iostreams::chain<boost::iostreams::input,char,std::char_traits<char>,std::allocator<char> > >,boost::iostreams::public_,boost::iostreams::detail::pub_<boost::iostreams::detail::chain_client<boost::iostreams::chain<boost::iostreams::input,char,std::char_traits<char>,std::allocator<char> > > > >::`RTTI Class Hierarchy Descriptor'
PUBLIC	??_R2?$access_control@V?$chain_client@V?$chain@Uinput@iostreams@boost@@DU?$char_traits@D@std@@V?$allocator@D@5@@iostreams@boost@@@detail@iostreams@boost@@Upublic_@34@U?$pub_@V?$chain_client@V?$chain@Uinput@iostreams@boost@@DU?$char_traits@D@std@@V?$allocator@D@5@@iostreams@boost@@@detail@iostreams@boost@@@234@@iostreams@boost@@8 ; boost::iostreams::access_control<boost::iostreams::detail::chain_client<boost::iostreams::chain<boost::iostreams::input,char,std::char_traits<char>,std::allocator<char> > >,boost::iostreams::public_,boost::iostreams::detail::pub_<boost::iostreams::detail::chain_client<boost::iostreams::chain<boost::iostreams::input,char,std::char_traits<char>,std::allocator<char> > > > >::`RTTI Base Class Array'
PUBLIC	??_R1A@?0A@EA@?$pub_@V?$chain_client@V?$chain@Uinput@iostreams@boost@@DU?$char_traits@D@std@@V?$allocator@D@5@@iostreams@boost@@@detail@iostreams@boost@@@detail@iostreams@boost@@8 ; boost::iostreams::detail::pub_<boost::iostreams::detail::chain_client<boost::iostreams::chain<boost::iostreams::input,char,std::char_traits<char>,std::allocator<char> > > >::`RTTI Base Class Descriptor at (0,-1,0,64)'
PUBLIC	??_R3?$pub_@V?$chain_client@V?$chain@Uinput@iostreams@boost@@DU?$char_traits@D@std@@V?$allocator@D@5@@iostreams@boost@@@detail@iostreams@boost@@@detail@iostreams@boost@@8 ; boost::iostreams::detail::pub_<boost::iostreams::detail::chain_client<boost::iostreams::chain<boost::iostreams::input,char,std::char_traits<char>,std::allocator<char> > > >::`RTTI Class Hierarchy Descriptor'
PUBLIC	??_R2?$pub_@V?$chain_client@V?$chain@Uinput@iostreams@boost@@DU?$char_traits@D@std@@V?$allocator@D@5@@iostreams@boost@@@detail@iostreams@boost@@@detail@iostreams@boost@@8 ; boost::iostreams::detail::pub_<boost::iostreams::detail::chain_client<boost::iostreams::chain<boost::iostreams::input,char,std::char_traits<char>,std::allocator<char> > > >::`RTTI Base Class Array'
PUBLIC	??_R1A@?0A@EA@?$chain_client@V?$chain@Uinput@iostreams@boost@@DU?$char_traits@D@std@@V?$allocator@D@5@@iostreams@boost@@@detail@iostreams@boost@@8 ; boost::iostreams::detail::chain_client<boost::iostreams::chain<boost::iostreams::input,char,std::char_traits<char>,std::allocator<char> > >::`RTTI Base Class Descriptor at (0,-1,0,64)'
PUBLIC	??_R3?$chain_client@V?$chain@Uinput@iostreams@boost@@DU?$char_traits@D@std@@V?$allocator@D@5@@iostreams@boost@@@detail@iostreams@boost@@8 ; boost::iostreams::detail::chain_client<boost::iostreams::chain<boost::iostreams::input,char,std::char_traits<char>,std::allocator<char> > >::`RTTI Class Hierarchy Descriptor'
PUBLIC	??_R2?$chain_client@V?$chain@Uinput@iostreams@boost@@DU?$char_traits@D@std@@V?$allocator@D@5@@iostreams@boost@@@detail@iostreams@boost@@8 ; boost::iostreams::detail::chain_client<boost::iostreams::chain<boost::iostreams::input,char,std::char_traits<char>,std::allocator<char> > >::`RTTI Base Class Array'
PUBLIC	??_R0?AV?$chain_client@V?$chain@Uinput@iostreams@boost@@DU?$char_traits@D@std@@V?$allocator@D@5@@iostreams@boost@@@detail@iostreams@boost@@@8 ; boost::iostreams::detail::chain_client<boost::iostreams::chain<boost::iostreams::input,char,std::char_traits<char>,std::allocator<char> > > `RTTI Type Descriptor'
PUBLIC	??_R0?AU?$pub_@V?$chain_client@V?$chain@Uinput@iostreams@boost@@DU?$char_traits@D@std@@V?$allocator@D@5@@iostreams@boost@@@detail@iostreams@boost@@@detail@iostreams@boost@@@8 ; boost::iostreams::detail::pub_<boost::iostreams::detail::chain_client<boost::iostreams::chain<boost::iostreams::input,char,std::char_traits<char>,std::allocator<char> > > > `RTTI Type Descriptor'
PUBLIC	??_R0?AU?$access_control@V?$chain_client@V?$chain@Uinput@iostreams@boost@@DU?$char_traits@D@std@@V?$allocator@D@5@@iostreams@boost@@@detail@iostreams@boost@@Upublic_@34@U?$pub_@V?$chain_client@V?$chain@Uinput@iostreams@boost@@DU?$char_traits@D@std@@V?$allocator@D@5@@iostreams@boost@@@detail@iostreams@boost@@@234@@iostreams@boost@@@8 ; boost::iostreams::access_control<boost::iostreams::detail::chain_client<boost::iostreams::chain<boost::iostreams::input,char,std::char_traits<char>,std::allocator<char> > >,boost::iostreams::public_,boost::iostreams::detail::pub_<boost::iostreams::detail::chain_client<boost::iostreams::chain<boost::iostreams::input,char,std::char_traits<char>,std::allocator<char> > > > > `RTTI Type Descriptor'
PUBLIC	??_R0?AV?$filtering_stream_base@V?$chain@Uinput@iostreams@boost@@DU?$char_traits@D@std@@V?$allocator@D@5@@iostreams@boost@@Upublic_@23@@detail@iostreams@boost@@@8 ; boost::iostreams::detail::filtering_stream_base<boost::iostreams::chain<boost::iostreams::input,char,std::char_traits<char>,std::allocator<char> >,boost::iostreams::public_> `RTTI Type Descriptor'
PUBLIC	??_R1A@?0A@EA@?$filtering_stream@Uinput@iostreams@boost@@DU?$char_traits@D@std@@V?$allocator@D@5@Upublic_@23@@iostreams@boost@@8 ; boost::iostreams::filtering_stream<boost::iostreams::input,char,std::char_traits<char>,std::allocator<char>,boost::iostreams::public_>::`RTTI Base Class Descriptor at (0,-1,0,64)'
PUBLIC	??_R0?AV?$filtering_stream@Uinput@iostreams@boost@@DU?$char_traits@D@std@@V?$allocator@D@5@Upublic_@23@@iostreams@boost@@@8 ; boost::iostreams::filtering_stream<boost::iostreams::input,char,std::char_traits<char>,std::allocator<char>,boost::iostreams::public_> `RTTI Type Descriptor'
PUBLIC	??_R4?$basic_filesystem_error@V?$basic_path@V?$basic_string@DU?$char_traits@D@std@@V?$allocator@D@2@@std@@Upath_traits@filesystem@boost@@@filesystem@boost@@@filesystem@boost@@6B@ ; boost::filesystem::basic_filesystem_error<boost::filesystem::basic_path<std::basic_string<char,std::char_traits<char>,std::allocator<char> >,boost::filesystem::path_traits> >::`RTTI Complete Object Locator'
PUBLIC	??_R3?$basic_filesystem_error@V?$basic_path@V?$basic_string@DU?$char_traits@D@std@@V?$allocator@D@2@@std@@Upath_traits@filesystem@boost@@@filesystem@boost@@@filesystem@boost@@8 ; boost::filesystem::basic_filesystem_error<boost::filesystem::basic_path<std::basic_string<char,std::char_traits<char>,std::allocator<char> >,boost::filesystem::path_traits> >::`RTTI Class Hierarchy Descriptor'
PUBLIC	??_R2?$basic_filesystem_error@V?$basic_path@V?$basic_string@DU?$char_traits@D@std@@V?$allocator@D@2@@std@@Upath_traits@filesystem@boost@@@filesystem@boost@@@filesystem@boost@@8 ; boost::filesystem::basic_filesystem_error<boost::filesystem::basic_path<std::basic_string<char,std::char_traits<char>,std::allocator<char> >,boost::filesystem::path_traits> >::`RTTI Base Class Array'
PUBLIC	??_R1A@?0A@EA@?$basic_filesystem_error@V?$basic_path@V?$basic_string@DU?$char_traits@D@std@@V?$allocator@D@2@@std@@Upath_traits@filesystem@boost@@@filesystem@boost@@@filesystem@boost@@8 ; boost::filesystem::basic_filesystem_error<boost::filesystem::basic_path<std::basic_string<char,std::char_traits<char>,std::allocator<char> >,boost::filesystem::path_traits> >::`RTTI Base Class Descriptor at (0,-1,0,64)'
PUBLIC	??_R4sp_counted_base@detail@boost@@6B@		; boost::detail::sp_counted_base::`RTTI Complete Object Locator'
PUBLIC	??_R3sp_counted_base@detail@boost@@8		; boost::detail::sp_counted_base::`RTTI Class Hierarchy Descriptor'
PUBLIC	??_R2sp_counted_base@detail@boost@@8		; boost::detail::sp_counted_base::`RTTI Base Class Array'
PUBLIC	??_R1A@?0A@EA@sp_counted_base@detail@boost@@8	; boost::detail::sp_counted_base::`RTTI Base Class Descriptor at (0,-1,0,64)'
PUBLIC	??_R0?AVsp_counted_base@detail@boost@@@8	; boost::detail::sp_counted_base `RTTI Type Descriptor'
PUBLIC	??_R4clone_base@exception_detail@boost@@6B@	; boost::exception_detail::clone_base::`RTTI Complete Object Locator'
PUBLIC	??_R3clone_base@exception_detail@boost@@8	; boost::exception_detail::clone_base::`RTTI Class Hierarchy Descriptor'
PUBLIC	??_R2clone_base@exception_detail@boost@@8	; boost::exception_detail::clone_base::`RTTI Base Class Array'
PUBLIC	??_R1A@?0A@EA@clone_base@exception_detail@boost@@8 ; boost::exception_detail::clone_base::`RTTI Base Class Descriptor at (0,-1,0,64)'
PUBLIC	??_R4exception@boost@@6B@			; boost::exception::`RTTI Complete Object Locator'
PUBLIC	??_R3exception@boost@@8				; boost::exception::`RTTI Class Hierarchy Descriptor'
PUBLIC	??_R2exception@boost@@8				; boost::exception::`RTTI Base Class Array'
PUBLIC	??_R1A@?0A@EA@exception@boost@@8		; boost::exception::`RTTI Base Class Descriptor at (0,-1,0,64)'
PUBLIC	??_R4system_error@system@boost@@6B@		; boost::system::system_error::`RTTI Complete Object Locator'
PUBLIC	??_R3system_error@system@boost@@8		; boost::system::system_error::`RTTI Class Hierarchy Descriptor'
PUBLIC	??_R2system_error@system@boost@@8		; boost::system::system_error::`RTTI Base Class Array'
PUBLIC	??_R1A@?0A@EA@system_error@system@boost@@8	; boost::system::system_error::`RTTI Base Class Descriptor at (0,-1,0,64)'
PUBLIC	??_R4?$num_get@DV?$istreambuf_iterator@DU?$char_traits@D@std@@@std@@@std@@6B@ ; std::num_get<char,std::istreambuf_iterator<char,std::char_traits<char> > >::`RTTI Complete Object Locator'
PUBLIC	??_R3?$num_get@DV?$istreambuf_iterator@DU?$char_traits@D@std@@@std@@@std@@8 ; std::num_get<char,std::istreambuf_iterator<char,std::char_traits<char> > >::`RTTI Class Hierarchy Descriptor'
PUBLIC	??_R2?$num_get@DV?$istreambuf_iterator@DU?$char_traits@D@std@@@std@@@std@@8 ; std::num_get<char,std::istreambuf_iterator<char,std::char_traits<char> > >::`RTTI Base Class Array'
PUBLIC	??_R1A@?0A@EA@?$num_get@DV?$istreambuf_iterator@DU?$char_traits@D@std@@@std@@@std@@8 ; std::num_get<char,std::istreambuf_iterator<char,std::char_traits<char> > >::`RTTI Base Class Descriptor at (0,-1,0,64)'
PUBLIC	??_R0?AV?$num_get@DV?$istreambuf_iterator@DU?$char_traits@D@std@@@std@@@std@@@8 ; std::num_get<char,std::istreambuf_iterator<char,std::char_traits<char> > > `RTTI Type Descriptor'
PUBLIC	??_R4?$ctype@D@std@@6B@				; std::ctype<char>::`RTTI Complete Object Locator'
PUBLIC	??_R3?$ctype@D@std@@8				; std::ctype<char>::`RTTI Class Hierarchy Descriptor'
PUBLIC	??_R2?$ctype@D@std@@8				; std::ctype<char>::`RTTI Base Class Array'
PUBLIC	??_R1A@?0A@EA@?$ctype@D@std@@8			; std::ctype<char>::`RTTI Base Class Descriptor at (0,-1,0,64)'
PUBLIC	??_R0?AV?$ctype@D@std@@@8			; std::ctype<char> `RTTI Type Descriptor'
PUBLIC	??_R4ctype_base@std@@6B@			; std::ctype_base::`RTTI Complete Object Locator'
PUBLIC	??_R3ctype_base@std@@8				; std::ctype_base::`RTTI Class Hierarchy Descriptor'
PUBLIC	??_R2ctype_base@std@@8				; std::ctype_base::`RTTI Base Class Array'
PUBLIC	??_R1A@?0A@EA@ctype_base@std@@8			; std::ctype_base::`RTTI Base Class Descriptor at (0,-1,0,64)'
PUBLIC	??_R0?AUctype_base@std@@@8			; std::ctype_base `RTTI Type Descriptor'
PUBLIC	??_R4codecvt_base@std@@6B@			; std::codecvt_base::`RTTI Complete Object Locator'
PUBLIC	??_R3codecvt_base@std@@8			; std::codecvt_base::`RTTI Class Hierarchy Descriptor'
PUBLIC	??_R2codecvt_base@std@@8			; std::codecvt_base::`RTTI Base Class Array'
PUBLIC	??_R1A@?0A@EA@codecvt_base@std@@8		; std::codecvt_base::`RTTI Base Class Descriptor at (0,-1,0,64)'
PUBLIC	??_R0?AVcodecvt_base@std@@@8			; std::codecvt_base `RTTI Type Descriptor'
PUBLIC	??_R4?$basic_filebuf@DU?$char_traits@D@std@@@std@@6B@ ; std::basic_filebuf<char,std::char_traits<char> >::`RTTI Complete Object Locator'
PUBLIC	??_R3?$basic_filebuf@DU?$char_traits@D@std@@@std@@8 ; std::basic_filebuf<char,std::char_traits<char> >::`RTTI Class Hierarchy Descriptor'
PUBLIC	??_R2?$basic_filebuf@DU?$char_traits@D@std@@@std@@8 ; std::basic_filebuf<char,std::char_traits<char> >::`RTTI Base Class Array'
PUBLIC	??_R1A@?0A@EA@?$basic_filebuf@DU?$char_traits@D@std@@@std@@8 ; std::basic_filebuf<char,std::char_traits<char> >::`RTTI Base Class Descriptor at (0,-1,0,64)'
PUBLIC	??_R0?AV?$basic_filebuf@DU?$char_traits@D@std@@@std@@@8 ; std::basic_filebuf<char,std::char_traits<char> > `RTTI Type Descriptor'
PUBLIC	??_R4?$basic_istream@DU?$char_traits@D@std@@@std@@6B@ ; std::basic_istream<char,std::char_traits<char> >::`RTTI Complete Object Locator'
PUBLIC	??_R3?$basic_istream@DU?$char_traits@D@std@@@std@@8 ; std::basic_istream<char,std::char_traits<char> >::`RTTI Class Hierarchy Descriptor'
PUBLIC	??_R2?$basic_istream@DU?$char_traits@D@std@@@std@@8 ; std::basic_istream<char,std::char_traits<char> >::`RTTI Base Class Array'
PUBLIC	??_R13A@3EA@?$_Iosb@H@std@@8			; std::_Iosb<int>::`RTTI Base Class Descriptor at (4,0,4,64)'
PUBLIC	??_R1A@A@3EA@ios_base@std@@8			; std::ios_base::`RTTI Base Class Descriptor at (0,0,4,64)'
PUBLIC	??_R1A@A@3FA@?$basic_ios@DU?$char_traits@D@std@@@std@@8 ; std::basic_ios<char,std::char_traits<char> >::`RTTI Base Class Descriptor at (0,0,4,80)'
PUBLIC	??_R1A@?0A@EA@?$basic_istream@DU?$char_traits@D@std@@@std@@8 ; std::basic_istream<char,std::char_traits<char> >::`RTTI Base Class Descriptor at (0,-1,0,64)'
PUBLIC	??_R0?AV?$basic_istream@DU?$char_traits@D@std@@@std@@@8 ; std::basic_istream<char,std::char_traits<char> > `RTTI Type Descriptor'
PUBLIC	??_R4?$basic_streambuf@DU?$char_traits@D@std@@@std@@6B@ ; std::basic_streambuf<char,std::char_traits<char> >::`RTTI Complete Object Locator'
PUBLIC	??_R3?$basic_streambuf@DU?$char_traits@D@std@@@std@@8 ; std::basic_streambuf<char,std::char_traits<char> >::`RTTI Class Hierarchy Descriptor'
PUBLIC	??_R2?$basic_streambuf@DU?$char_traits@D@std@@@std@@8 ; std::basic_streambuf<char,std::char_traits<char> >::`RTTI Base Class Array'
PUBLIC	??_R1A@?0A@EA@?$basic_streambuf@DU?$char_traits@D@std@@@std@@8 ; std::basic_streambuf<char,std::char_traits<char> >::`RTTI Base Class Descriptor at (0,-1,0,64)'
PUBLIC	??_R0?AV?$basic_streambuf@DU?$char_traits@D@std@@@std@@@8 ; std::basic_streambuf<char,std::char_traits<char> > `RTTI Type Descriptor'
PUBLIC	??_R4?$basic_ios@DU?$char_traits@D@std@@@std@@6B@ ; std::basic_ios<char,std::char_traits<char> >::`RTTI Complete Object Locator'
PUBLIC	??_R3?$basic_ios@DU?$char_traits@D@std@@@std@@8	; std::basic_ios<char,std::char_traits<char> >::`RTTI Class Hierarchy Descriptor'
PUBLIC	??_R2?$basic_ios@DU?$char_traits@D@std@@@std@@8	; std::basic_ios<char,std::char_traits<char> >::`RTTI Base Class Array'
PUBLIC	??_R1A@?0A@EA@?$basic_ios@DU?$char_traits@D@std@@@std@@8 ; std::basic_ios<char,std::char_traits<char> >::`RTTI Base Class Descriptor at (0,-1,0,64)'
PUBLIC	??_R0?AV?$basic_ios@DU?$char_traits@D@std@@@std@@@8 ; std::basic_ios<char,std::char_traits<char> > `RTTI Type Descriptor'
PUBLIC	??_R4ios_base@std@@6B@				; std::ios_base::`RTTI Complete Object Locator'
PUBLIC	??_R3ios_base@std@@8				; std::ios_base::`RTTI Class Hierarchy Descriptor'
PUBLIC	??_R2ios_base@std@@8				; std::ios_base::`RTTI Base Class Array'
PUBLIC	??_R13?0A@EA@?$_Iosb@H@std@@8			; std::_Iosb<int>::`RTTI Base Class Descriptor at (4,-1,0,64)'
PUBLIC	??_R3?$_Iosb@H@std@@8				; std::_Iosb<int>::`RTTI Class Hierarchy Descriptor'
PUBLIC	??_R2?$_Iosb@H@std@@8				; std::_Iosb<int>::`RTTI Base Class Array'
PUBLIC	??_R1A@?0A@EA@?$_Iosb@H@std@@8			; std::_Iosb<int>::`RTTI Base Class Descriptor at (0,-1,0,64)'
PUBLIC	??_R0?AV?$_Iosb@H@std@@@8			; std::_Iosb<int> `RTTI Type Descriptor'
PUBLIC	??_R1A@?0A@EA@ios_base@std@@8			; std::ios_base::`RTTI Base Class Descriptor at (0,-1,0,64)'
PUBLIC	??_R0?AVios_base@std@@@8			; std::ios_base `RTTI Type Descriptor'
PUBLIC	?_Stinit@?1??_Init@?$basic_filebuf@DU?$char_traits@D@std@@@std@@IAEXPAU_iobuf@@W4_Initfl@23@@Z@4HA ; `std::basic_filebuf<char,std::char_traits<char> >::_Init'::`2'::_Stinit
PUBLIC	?exists@filesystem@boost@@YA_NVfile_status@12@@Z ; boost::filesystem::exists
PUBLIC	??$exists@V?$basic_path@V?$basic_string@DU?$char_traits@D@std@@V?$allocator@D@2@@std@@Upath_traits@filesystem@boost@@@filesystem@boost@@@filesystem@boost@@YA_NABV?$basic_path@V?$basic_string@DU?$char_traits@D@std@@V?$allocator@D@2@@std@@Upath_traits@filesystem@boost@@@01@@Z ; boost::filesystem::exists<boost::filesystem::basic_path<std::basic_string<char,std::char_traits<char>,std::allocator<char> >,boost::filesystem::path_traits> >
PUBLIC	?exists@filesystem@boost@@YA_NABV?$basic_path@V?$basic_string@DU?$char_traits@D@std@@V?$allocator@D@2@@std@@Upath_traits@filesystem@boost@@@12@@Z ; boost::filesystem::exists
PUBLIC	??0error_code@system@boost@@QAE@XZ		; boost::system::error_code::error_code
PUBLIC	?to_external@path_traits@filesystem@boost@@SA?AV?$basic_string@DU?$char_traits@D@std@@V?$allocator@D@2@@std@@ABV?$basic_path@V?$basic_string@DU?$char_traits@D@std@@V?$allocator@D@2@@std@@Upath_traits@filesystem@boost@@@23@ABV45@@Z ; boost::filesystem::path_traits::to_external
PUBLIC	?external_file_string@?$basic_path@V?$basic_string@DU?$char_traits@D@std@@V?$allocator@D@2@@std@@Upath_traits@filesystem@boost@@@filesystem@boost@@QBE?BV?$basic_string@DU?$char_traits@D@std@@V?$allocator@D@2@@std@@XZ ; boost::filesystem::basic_path<std::basic_string<char,std::char_traits<char>,std::allocator<char> >,boost::filesystem::path_traits>::external_file_string
PUBLIC	?type@file_status@filesystem@boost@@QBE?AW4file_type@23@XZ ; boost::filesystem::file_status::type
PUBLIC	?is_regular@filesystem@boost@@YA_NVfile_status@12@@Z ; boost::filesystem::is_regular
PUBLIC	??0?$basic_filesystem_error@V?$basic_path@V?$basic_string@DU?$char_traits@D@std@@V?$allocator@D@2@@std@@Upath_traits@filesystem@boost@@@filesystem@boost@@@filesystem@boost@@QAE@ABV?$basic_string@DU?$char_traits@D@std@@V?$allocator@D@2@@std@@ABV?$basic_path@V?$basic_string@DU?$char_traits@D@std@@V?$allocator@D@2@@std@@Upath_traits@filesystem@boost@@@12@Verror_code@system@2@@Z ; boost::filesystem::basic_filesystem_error<boost::filesystem::basic_path<std::basic_string<char,std::char_traits<char>,std::allocator<char> >,boost::filesystem::path_traits> >::basic_filesystem_error<boost::filesystem::basic_path<std::basic_string<char,std::char_traits<char>,std::allocator<char> >,boost::filesystem::path_traits> >
PUBLIC	??$is_regular@V?$basic_path@V?$basic_string@DU?$char_traits@D@std@@V?$allocator@D@2@@std@@Upath_traits@filesystem@boost@@@filesystem@boost@@@filesystem@boost@@YA_NABV?$basic_path@V?$basic_string@DU?$char_traits@D@std@@V?$allocator@D@2@@std@@Upath_traits@filesystem@boost@@@01@@Z ; boost::filesystem::is_regular<boost::filesystem::basic_path<std::basic_string<char,std::char_traits<char>,std::allocator<char> >,boost::filesystem::path_traits> >
PUBLIC	?is_regular@filesystem@boost@@YA_NABV?$basic_path@V?$basic_string@DU?$char_traits@D@std@@V?$allocator@D@2@@std@@Upath_traits@filesystem@boost@@@12@@Z ; boost::filesystem::is_regular
PUBLIC	??4?$basic_string@DU?$char_traits@D@std@@V?$allocator@D@2@@std@@QAEAAV01@ABV01@@Z ; std::basic_string<char,std::char_traits<char>,std::allocator<char> >::operator=
PUBLIC	??4?$basic_path@V?$basic_string@DU?$char_traits@D@std@@V?$allocator@D@2@@std@@Upath_traits@filesystem@boost@@@filesystem@boost@@QAEAAV012@ABV012@@Z ; boost::filesystem::basic_path<std::basic_string<char,std::char_traits<char>,std::allocator<char> >,boost::filesystem::path_traits>::operator=
PUBLIC	?to_internal@path_traits@filesystem@boost@@SA?AV?$basic_string@DU?$char_traits@D@std@@V?$allocator@D@2@@std@@ABV45@@Z ; boost::filesystem::path_traits::to_internal
PUBLIC	??0system_error@system@boost@@QAE@Verror_code@12@ABV?$basic_string@DU?$char_traits@D@std@@V?$allocator@D@2@@std@@@Z ; boost::system::system_error::system_error
PUBLIC	??0?$shared_ptr@Um_imp@?$basic_filesystem_error@V?$basic_path@V?$basic_string@DU?$char_traits@D@std@@V?$allocator@D@2@@std@@Upath_traits@filesystem@boost@@@filesystem@boost@@@filesystem@boost@@@boost@@QAE@XZ ; boost::shared_ptr<boost::filesystem::basic_filesystem_error<boost::filesystem::basic_path<std::basic_string<char,std::char_traits<char>,std::allocator<char> >,boost::filesystem::path_traits> >::m_imp>::shared_ptr<boost::filesystem::basic_filesystem_error<boost::filesystem::basic_path<std::basic_string<char,std::char_traits<char>,std::allocator<char> >,boost::filesystem::path_traits> >::m_imp>
PUBLIC	?reset@?$shared_ptr@Um_imp@?$basic_filesystem_error@V?$basic_path@V?$basic_string@DU?$char_traits@D@std@@V?$allocator@D@2@@std@@Upath_traits@filesystem@boost@@@filesystem@boost@@@filesystem@boost@@@boost@@QAEXXZ ; boost::shared_ptr<boost::filesystem::basic_filesystem_error<boost::filesystem::basic_path<std::basic_string<char,std::char_traits<char>,std::allocator<char> >,boost::filesystem::path_traits> >::m_imp>::reset
PUBLIC	??0?$basic_path@V?$basic_string@DU?$char_traits@D@std@@V?$allocator@D@2@@std@@Upath_traits@filesystem@boost@@@filesystem@boost@@QAE@XZ ; boost::filesystem::basic_path<std::basic_string<char,std::char_traits<char>,std::allocator<char> >,boost::filesystem::path_traits>::basic_path<std::basic_string<char,std::char_traits<char>,std::allocator<char> >,boost::filesystem::path_traits>
PUBLIC	??0m_imp@?$basic_filesystem_error@V?$basic_path@V?$basic_string@DU?$char_traits@D@std@@V?$allocator@D@2@@std@@Upath_traits@filesystem@boost@@@filesystem@boost@@@filesystem@boost@@QAE@XZ ; boost::filesystem::basic_filesystem_error<boost::filesystem::basic_path<std::basic_string<char,std::char_traits<char>,std::allocator<char> >,boost::filesystem::path_traits> >::m_imp::m_imp
PUBLIC	??$swap@PAUm_imp@?$basic_filesystem_error@V?$basic_path@V?$basic_string@DU?$char_traits@D@std@@V?$allocator@D@2@@std@@Upath_traits@filesystem@boost@@@filesystem@boost@@@filesystem@boost@@@std@@YAXAAPAUm_imp@?$basic_filesystem_error@V?$basic_path@V?$basic_string@DU?$char_traits@D@std@@V?$allocator@D@2@@std@@Upath_traits@filesystem@boost@@@filesystem@boost@@@filesystem@boost@@0@Z ; std::swap<boost::filesystem::basic_filesystem_error<boost::filesystem::basic_path<std::basic_string<char,std::char_traits<char>,std::allocator<char> >,boost::filesystem::path_traits> >::m_imp *>
PUBLIC	?swap@?$shared_ptr@Um_imp@?$basic_filesystem_error@V?$basic_path@V?$basic_string@DU?$char_traits@D@std@@V?$allocator@D@2@@std@@Upath_traits@filesystem@boost@@@filesystem@boost@@@filesystem@boost@@@boost@@QAEXAAV12@@Z ; boost::shared_ptr<boost::filesystem::basic_filesystem_error<boost::filesystem::basic_path<std::basic_string<char,std::char_traits<char>,std::allocator<char> >,boost::filesystem::path_traits> >::m_imp>::swap
PUBLIC	?dispose@?$sp_counted_impl_p@Um_imp@?$basic_filesystem_error@V?$basic_path@V?$basic_string@DU?$char_traits@D@std@@V?$allocator@D@2@@std@@Upath_traits@filesystem@boost@@@filesystem@boost@@@filesystem@boost@@@detail@boost@@UAEXXZ ; boost::detail::sp_counted_impl_p<boost::filesystem::basic_filesystem_error<boost::filesystem::basic_path<std::basic_string<char,std::char_traits<char>,std::allocator<char> >,boost::filesystem::path_traits> >::m_imp>::dispose
PUBLIC	?get_deleter@?$sp_counted_impl_p@Um_imp@?$basic_filesystem_error@V?$basic_path@V?$basic_string@DU?$char_traits@D@std@@V?$allocator@D@2@@std@@Upath_traits@filesystem@boost@@@filesystem@boost@@@filesystem@boost@@@detail@boost@@UAEPAXABVtype_info@@@Z ; boost::detail::sp_counted_impl_p<boost::filesystem::basic_filesystem_error<boost::filesystem::basic_path<std::basic_string<char,std::char_traits<char>,std::allocator<char> >,boost::filesystem::path_traits> >::m_imp>::get_deleter
PUBLIC	??1?$sp_counted_impl_p@Um_imp@?$basic_filesystem_error@V?$basic_path@V?$basic_string@DU?$char_traits@D@std@@V?$allocator@D@2@@std@@Upath_traits@filesystem@boost@@@filesystem@boost@@@filesystem@boost@@@detail@boost@@UAE@XZ ; boost::detail::sp_counted_impl_p<boost::filesystem::basic_filesystem_error<boost::filesystem::basic_path<std::basic_string<char,std::char_traits<char>,std::allocator<char> >,boost::filesystem::path_traits> >::m_imp>::~sp_counted_impl_p<boost::filesystem::basic_filesystem_error<boost::filesystem::basic_path<std::basic_string<char,std::char_traits<char>,std::allocator<char> >,boost::filesystem::path_traits> >::m_imp>
PUBLIC	??_G?$sp_counted_impl_p@Um_imp@?$basic_filesystem_error@V?$basic_path@V?$basic_string@DU?$char_traits@D@std@@V?$allocator@D@2@@std@@Upath_traits@filesystem@boost@@@filesystem@boost@@@filesystem@boost@@@detail@boost@@UAEPAXI@Z ; boost::detail::sp_counted_impl_p<boost::filesystem::basic_filesystem_error<boost::filesystem::basic_path<std::basic_string<char,std::char_traits<char>,std::allocator<char> >,boost::filesystem::path_traits> >::m_imp>::`scalar deleting destructor'
PUBLIC	??0?$sp_counted_impl_p@Um_imp@?$basic_filesystem_error@V?$basic_path@V?$basic_string@DU?$char_traits@D@std@@V?$allocator@D@2@@std@@Upath_traits@filesystem@boost@@@filesystem@boost@@@filesystem@boost@@@detail@boost@@QAE@PAUm_imp@?$basic_filesystem_error@V?$basic_path@V?$basic_string@DU?$char_traits@D@std@@V?$allocator@D@2@@std@@Upath_traits@filesystem@boost@@@filesystem@boost@@@filesystem@2@@Z ; boost::detail::sp_counted_impl_p<boost::filesystem::basic_filesystem_error<boost::filesystem::basic_path<std::basic_string<char,std::char_traits<char>,std::allocator<char> >,boost::filesystem::path_traits> >::m_imp>::sp_counted_impl_p<boost::filesystem::basic_filesystem_error<boost::filesystem::basic_path<std::basic_string<char,std::char_traits<char>,std::allocator<char> >,boost::filesystem::path_traits> >::m_imp>
PUBLIC	??1m_imp@?$basic_filesystem_error@V?$basic_path@V?$basic_string@DU?$char_traits@D@std@@V?$allocator@D@2@@std@@Upath_traits@filesystem@boost@@@filesystem@boost@@@filesystem@boost@@QAE@XZ ; boost::filesystem::basic_filesystem_error<boost::filesystem::basic_path<std::basic_string<char,std::char_traits<char>,std::allocator<char> >,boost::filesystem::path_traits> >::m_imp::~m_imp
PUBLIC	??_Gm_imp@?$basic_filesystem_error@V?$basic_path@V?$basic_string@DU?$char_traits@D@std@@V?$allocator@D@2@@std@@Upath_traits@filesystem@boost@@@filesystem@boost@@@filesystem@boost@@QAEPAXI@Z ; boost::filesystem::basic_filesystem_error<boost::filesystem::basic_path<std::basic_string<char,std::char_traits<char>,std::allocator<char> >,boost::filesystem::path_traits> >::m_imp::`scalar deleting destructor'
PUBLIC	??$checked_delete@Um_imp@?$basic_filesystem_error@V?$basic_path@V?$basic_string@DU?$char_traits@D@std@@V?$allocator@D@2@@std@@Upath_traits@filesystem@boost@@@filesystem@boost@@@filesystem@boost@@@boost@@YAXPAUm_imp@?$basic_filesystem_error@V?$basic_path@V?$basic_string@DU?$char_traits@D@std@@V?$allocator@D@2@@std@@Upath_traits@filesystem@boost@@@filesystem@boost@@@filesystem@0@@Z ; boost::checked_delete<boost::filesystem::basic_filesystem_error<boost::filesystem::basic_path<std::basic_string<char,std::char_traits<char>,std::allocator<char> >,boost::filesystem::path_traits> >::m_imp>
PUBLIC	??$?0Um_imp@?$basic_filesystem_error@V?$basic_path@V?$basic_string@DU?$char_traits@D@std@@V?$allocator@D@2@@std@@Upath_traits@filesystem@boost@@@filesystem@boost@@@filesystem@boost@@@shared_count@detail@boost@@QAE@PAUm_imp@?$basic_filesystem_error@V?$basic_path@V?$basic_string@DU?$char_traits@D@std@@V?$allocator@D@2@@std@@Upath_traits@filesystem@boost@@@filesystem@boost@@@filesystem@2@@Z ; boost::detail::shared_count::shared_count<boost::filesystem::basic_filesystem_error<boost::filesystem::basic_path<std::basic_string<char,std::char_traits<char>,std::allocator<char> >,boost::filesystem::path_traits> >::m_imp>
PUBLIC	??$?0Um_imp@?$basic_filesystem_error@V?$basic_path@V?$basic_string@DU?$char_traits@D@std@@V?$allocator@D@2@@std@@Upath_traits@filesystem@boost@@@filesystem@boost@@@filesystem@boost@@@?$shared_ptr@Um_imp@?$basic_filesystem_error@V?$basic_path@V?$basic_string@DU?$char_traits@D@std@@V?$allocator@D@2@@std@@Upath_traits@filesystem@boost@@@filesystem@boost@@@filesystem@boost@@@boost@@QAE@PAUm_imp@?$basic_filesystem_error@V?$basic_path@V?$basic_string@DU?$char_traits@D@std@@V?$allocator@D@2@@std@@Upath_traits@filesystem@boost@@@filesystem@boost@@@filesystem@1@@Z ; boost::shared_ptr<boost::filesystem::basic_filesystem_error<boost::filesystem::basic_path<std::basic_string<char,std::char_traits<char>,std::allocator<char> >,boost::filesystem::path_traits> >::m_imp>::shared_ptr<boost::filesystem::basic_filesystem_error<boost::filesystem::basic_path<std::basic_string<char,std::char_traits<char>,std::allocator<char> >,boost::filesystem::path_traits> >::m_imp><boost::filesystem::basic_filesystem_error<boost::filesystem::basic_path<std::basic_string<char,std::char_traits<char>,std::allocator<char> >,boost::filesystem::path_traits> >::m_imp>
PUBLIC	??$reset@Um_imp@?$basic_filesystem_error@V?$basic_path@V?$basic_string@DU?$char_traits@D@std@@V?$allocator@D@2@@std@@Upath_traits@filesystem@boost@@@filesystem@boost@@@filesystem@boost@@@?$shared_ptr@Um_imp@?$basic_filesystem_error@V?$basic_path@V?$basic_string@DU?$char_traits@D@std@@V?$allocator@D@2@@std@@Upath_traits@filesystem@boost@@@filesystem@boost@@@filesystem@boost@@@boost@@QAEXPAUm_imp@?$basic_filesystem_error@V?$basic_path@V?$basic_string@DU?$char_traits@D@std@@V?$allocator@D@2@@std@@Upath_traits@filesystem@boost@@@filesystem@boost@@@filesystem@1@@Z ; boost::shared_ptr<boost::filesystem::basic_filesystem_error<boost::filesystem::basic_path<std::basic_string<char,std::char_traits<char>,std::allocator<char> >,boost::filesystem::path_traits> >::m_imp>::reset<boost::filesystem::basic_filesystem_error<boost::filesystem::basic_path<std::basic_string<char,std::char_traits<char>,std::allocator<char> >,boost::filesystem::path_traits> >::m_imp>
PUBLIC	??0?$basic_filesystem_error@V?$basic_path@V?$basic_string@DU?$char_traits@D@std@@V?$allocator@D@2@@std@@Upath_traits@filesystem@boost@@@filesystem@boost@@@filesystem@boost@@QAE@ABV?$basic_string@DU?$char_traits@D@std@@V?$allocator@D@2@@std@@Verror_code@system@2@@Z ; boost::filesystem::basic_filesystem_error<boost::filesystem::basic_path<std::basic_string<char,std::char_traits<char>,std::allocator<char> >,boost::filesystem::path_traits> >::basic_filesystem_error<boost::filesystem::basic_path<std::basic_string<char,std::char_traits<char>,std::allocator<char> >,boost::filesystem::path_traits> >
PUBLIC	?throw_exception_assert_compatibility@boost@@YAXABVexception@std@@@Z ; boost::throw_exception_assert_compatibility
PUBLIC	??0?$refcount_ptr@Uerror_info_container@exception_detail@boost@@@exception_detail@boost@@QAE@XZ ; boost::exception_detail::refcount_ptr<boost::exception_detail::error_info_container>::refcount_ptr<boost::exception_detail::error_info_container>
PUBLIC	??0exception@boost@@IAE@XZ			; boost::exception::exception
PUBLIC	??0?$error_info_injector@V?$basic_filesystem_error@V?$basic_path@V?$basic_string@DU?$char_traits@D@std@@V?$allocator@D@2@@std@@Upath_traits@filesystem@boost@@@filesystem@boost@@@filesystem@boost@@@exception_detail@boost@@QAE@ABV?$basic_filesystem_error@V?$basic_path@V?$basic_string@DU?$char_traits@D@std@@V?$allocator@D@2@@std@@Upath_traits@filesystem@boost@@@filesystem@boost@@@filesystem@2@@Z ; boost::exception_detail::error_info_injector<boost::filesystem::basic_filesystem_error<boost::filesystem::basic_path<std::basic_string<char,std::char_traits<char>,std::allocator<char> >,boost::filesystem::path_traits> > >::error_info_injector<boost::filesystem::basic_filesystem_error<boost::filesystem::basic_path<std::basic_string<char,std::char_traits<char>,std::allocator<char> >,boost::filesystem::path_traits> > >
PUBLIC	??$enable_error_info@V?$basic_filesystem_error@V?$basic_path@V?$basic_string@DU?$char_traits@D@std@@V?$allocator@D@2@@std@@Upath_traits@filesystem@boost@@@filesystem@boost@@@filesystem@boost@@@boost@@YA?AU?$error_info_injector@V?$basic_filesystem_error@V?$basic_path@V?$basic_string@DU?$char_traits@D@std@@V?$allocator@D@2@@std@@Upath_traits@filesystem@boost@@@filesystem@boost@@@filesystem@boost@@@exception_detail@0@ABV?$basic_filesystem_error@V?$basic_path@V?$basic_string@DU?$char_traits@D@std@@V?$allocator@D@2@@std@@Upath_traits@filesystem@boost@@@filesystem@boost@@@filesystem@0@@Z ; boost::enable_error_info<boost::filesystem::basic_filesystem_error<boost::filesystem::basic_path<std::basic_string<char,std::char_traits<char>,std::allocator<char> >,boost::filesystem::path_traits> > >
PUBLIC	??0clone_base@exception_detail@boost@@QAE@XZ	; boost::exception_detail::clone_base::clone_base
PUBLIC	?adopt@?$refcount_ptr@Uerror_info_container@exception_detail@boost@@@exception_detail@boost@@QAEXPAUerror_info_container@23@@Z ; boost::exception_detail::refcount_ptr<boost::exception_detail::error_info_container>::adopt
PUBLIC	??4?$refcount_ptr@Uerror_info_container@exception_detail@boost@@@exception_detail@boost@@QAEAAV012@ABV012@@Z ; boost::exception_detail::refcount_ptr<boost::exception_detail::error_info_container>::operator=
PUBLIC	??4exception@boost@@QAEAAV01@ABV01@@Z		; boost::exception::operator=
PUBLIC	?copy_boost_exception@exception_detail@boost@@YAXPAVexception@2@PBV32@@Z ; boost::exception_detail::copy_boost_exception
PUBLIC	??0?$clone_impl@U?$error_info_injector@V?$basic_filesystem_error@V?$basic_path@V?$basic_string@DU?$char_traits@D@std@@V?$allocator@D@2@@std@@Upath_traits@filesystem@boost@@@filesystem@boost@@@filesystem@boost@@@exception_detail@boost@@@exception_detail@boost@@QAE@ABU?$error_info_injector@V?$basic_filesystem_error@V?$basic_path@V?$basic_string@DU?$char_traits@D@std@@V?$allocator@D@2@@std@@Upath_traits@filesystem@boost@@@filesystem@boost@@@filesystem@boost@@@12@@Z ; boost::exception_detail::clone_impl<boost::exception_detail::error_info_injector<boost::filesystem::basic_filesystem_error<boost::filesystem::basic_path<std::basic_string<char,std::char_traits<char>,std::allocator<char> >,boost::filesystem::path_traits> > > >::clone_impl<boost::exception_detail::error_info_injector<boost::filesystem::basic_filesystem_error<boost::filesystem::basic_path<std::basic_string<char,std::char_traits<char>,std::allocator<char> >,boost::filesystem::path_traits> > > >
PUBLIC	??$enable_current_exception@U?$error_info_injector@V?$basic_filesystem_error@V?$basic_path@V?$basic_string@DU?$char_traits@D@std@@V?$allocator@D@2@@std@@Upath_traits@filesystem@boost@@@filesystem@boost@@@filesystem@boost@@@exception_detail@boost@@@boost@@YA?AV?$clone_impl@U?$error_info_injector@V?$basic_filesystem_error@V?$basic_path@V?$basic_string@DU?$char_traits@D@std@@V?$allocator@D@2@@std@@Upath_traits@filesystem@boost@@@filesystem@boost@@@filesystem@boost@@@exception_detail@boost@@@exception_detail@0@ABU?$error_info_injector@V?$basic_filesystem_error@V?$basic_path@V?$basic_string@DU?$char_traits@D@std@@V?$allocator@D@2@@std@@Upath_traits@filesystem@boost@@@filesystem@boost@@@filesystem@boost@@@20@@Z ; boost::enable_current_exception<boost::exception_detail::error_info_injector<boost::filesystem::basic_filesystem_error<boost::filesystem::basic_path<std::basic_string<char,std::char_traits<char>,std::allocator<char> >,boost::filesystem::path_traits> > > >
PUBLIC	?clone@?$clone_impl@U?$error_info_injector@V?$basic_filesystem_error@V?$basic_path@V?$basic_string@DU?$char_traits@D@std@@V?$allocator@D@2@@std@@Upath_traits@filesystem@boost@@@filesystem@boost@@@filesystem@boost@@@exception_detail@boost@@@exception_detail@boost@@EBEPBVclone_base@23@XZ ; boost::exception_detail::clone_impl<boost::exception_detail::error_info_injector<boost::filesystem::basic_filesystem_error<boost::filesystem::basic_path<std::basic_string<char,std::char_traits<char>,std::allocator<char> >,boost::filesystem::path_traits> > > >::clone
PUBLIC	?rethrow@?$clone_impl@U?$error_info_injector@V?$basic_filesystem_error@V?$basic_path@V?$basic_string@DU?$char_traits@D@std@@V?$allocator@D@2@@std@@Upath_traits@filesystem@boost@@@filesystem@boost@@@filesystem@boost@@@exception_detail@boost@@@exception_detail@boost@@EBEXXZ ; boost::exception_detail::clone_impl<boost::exception_detail::error_info_injector<boost::filesystem::basic_filesystem_error<boost::filesystem::basic_path<std::basic_string<char,std::char_traits<char>,std::allocator<char> >,boost::filesystem::path_traits> > > >::rethrow
PUBLIC	??_E?$clone_impl@U?$error_info_injector@V?$basic_filesystem_error@V?$basic_path@V?$basic_string@DU?$char_traits@D@std@@V?$allocator@D@2@@std@@Upath_traits@filesystem@boost@@@filesystem@boost@@@filesystem@boost@@@exception_detail@boost@@@exception_detail@boost@@WFE@AEPAXI@Z ; [thunk]:boost::exception_detail::clone_impl<boost::exception_detail::error_info_injector<boost::filesystem::basic_filesystem_error<boost::filesystem::basic_path<std::basic_string<char,std::char_traits<char>,std::allocator<char> >,boost::filesystem::path_traits> > > >::`vector deleting destructor'
PUBLIC	??1?$clone_impl@U?$error_info_injector@V?$basic_filesystem_error@V?$basic_path@V?$basic_string@DU?$char_traits@D@std@@V?$allocator@D@2@@std@@Upath_traits@filesystem@boost@@@filesystem@boost@@@filesystem@boost@@@exception_detail@boost@@@exception_detail@boost@@UAE@XZ ; boost::exception_detail::clone_impl<boost::exception_detail::error_info_injector<boost::filesystem::basic_filesystem_error<boost::filesystem::basic_path<std::basic_string<char,std::char_traits<char>,std::allocator<char> >,boost::filesystem::path_traits> > > >::~clone_impl<boost::exception_detail::error_info_injector<boost::filesystem::basic_filesystem_error<boost::filesystem::basic_path<std::basic_string<char,std::char_traits<char>,std::allocator<char> >,boost::filesystem::path_traits> > > >
PUBLIC	??_G?$clone_impl@U?$error_info_injector@V?$basic_filesystem_error@V?$basic_path@V?$basic_string@DU?$char_traits@D@std@@V?$allocator@D@2@@std@@Upath_traits@filesystem@boost@@@filesystem@boost@@@filesystem@boost@@@exception_detail@boost@@@exception_detail@boost@@UAEPAXI@Z ; boost::exception_detail::clone_impl<boost::exception_detail::error_info_injector<boost::filesystem::basic_filesystem_error<boost::filesystem::basic_path<std::basic_string<char,std::char_traits<char>,std::allocator<char> >,boost::filesystem::path_traits> > > >::`scalar deleting destructor'
PUBLIC	??_E?$clone_impl@U?$error_info_injector@V?$basic_filesystem_error@V?$basic_path@V?$basic_string@DU?$char_traits@D@std@@V?$allocator@D@2@@std@@Upath_traits@filesystem@boost@@@filesystem@boost@@@filesystem@boost@@@exception_detail@boost@@@exception_detail@boost@@WGI@AEPAXI@Z ; [thunk]:boost::exception_detail::clone_impl<boost::exception_detail::error_info_injector<boost::filesystem::basic_filesystem_error<boost::filesystem::basic_path<std::basic_string<char,std::char_traits<char>,std::allocator<char> >,boost::filesystem::path_traits> > > >::`vector deleting destructor'
PUBLIC	??0?$clone_impl@U?$error_info_injector@V?$basic_filesystem_error@V?$basic_path@V?$basic_string@DU?$char_traits@D@std@@V?$allocator@D@2@@std@@Upath_traits@filesystem@boost@@@filesystem@boost@@@filesystem@boost@@@exception_detail@boost@@@exception_detail@boost@@QAE@ABV012@@Z ; boost::exception_detail::clone_impl<boost::exception_detail::error_info_injector<boost::filesystem::basic_filesystem_error<boost::filesystem::basic_path<std::basic_string<char,std::char_traits<char>,std::allocator<char> >,boost::filesystem::path_traits> > > >::clone_impl<boost::exception_detail::error_info_injector<boost::filesystem::basic_filesystem_error<boost::filesystem::basic_path<std::basic_string<char,std::char_traits<char>,std::allocator<char> >,boost::filesystem::path_traits> > > >
PUBLIC	??1exception@boost@@MAE@XZ			; boost::exception::~exception
PUBLIC	??1?$error_info_injector@V?$basic_filesystem_error@V?$basic_path@V?$basic_string@DU?$char_traits@D@std@@V?$allocator@D@2@@std@@Upath_traits@filesystem@boost@@@filesystem@boost@@@filesystem@boost@@@exception_detail@boost@@UAE@XZ ; boost::exception_detail::error_info_injector<boost::filesystem::basic_filesystem_error<boost::filesystem::basic_path<std::basic_string<char,std::char_traits<char>,std::allocator<char> >,boost::filesystem::path_traits> > >::~error_info_injector<boost::filesystem::basic_filesystem_error<boost::filesystem::basic_path<std::basic_string<char,std::char_traits<char>,std::allocator<char> >,boost::filesystem::path_traits> > >
PUBLIC	??_G?$error_info_injector@V?$basic_filesystem_error@V?$basic_path@V?$basic_string@DU?$char_traits@D@std@@V?$allocator@D@2@@std@@Upath_traits@filesystem@boost@@@filesystem@boost@@@filesystem@boost@@@exception_detail@boost@@UAEPAXI@Z ; boost::exception_detail::error_info_injector<boost::filesystem::basic_filesystem_error<boost::filesystem::basic_path<std::basic_string<char,std::char_traits<char>,std::allocator<char> >,boost::filesystem::path_traits> > >::`scalar deleting destructor'
PUBLIC	??_E?$error_info_injector@V?$basic_filesystem_error@V?$basic_path@V?$basic_string@DU?$char_traits@D@std@@V?$allocator@D@2@@std@@Upath_traits@filesystem@boost@@@filesystem@boost@@@filesystem@boost@@@exception_detail@boost@@WFE@AEPAXI@Z ; [thunk]:boost::exception_detail::error_info_injector<boost::filesystem::basic_filesystem_error<boost::filesystem::basic_path<std::basic_string<char,std::char_traits<char>,std::allocator<char> >,boost::filesystem::path_traits> > >::`vector deleting destructor'
PUBLIC	??0?$error_info_injector@V?$basic_filesystem_error@V?$basic_path@V?$basic_string@DU?$char_traits@D@std@@V?$allocator@D@2@@std@@Upath_traits@filesystem@boost@@@filesystem@boost@@@filesystem@boost@@@exception_detail@boost@@QAE@ABU012@@Z ; boost::exception_detail::error_info_injector<boost::filesystem::basic_filesystem_error<boost::filesystem::basic_path<std::basic_string<char,std::char_traits<char>,std::allocator<char> >,boost::filesystem::path_traits> > >::error_info_injector<boost::filesystem::basic_filesystem_error<boost::filesystem::basic_path<std::basic_string<char,std::char_traits<char>,std::allocator<char> >,boost::filesystem::path_traits> > >
PUBLIC	??0?$shared_ptr@Um_imp@?$basic_filesystem_error@V?$basic_path@V?$basic_string@DU?$char_traits@D@std@@V?$allocator@D@2@@std@@Upath_traits@filesystem@boost@@@filesystem@boost@@@filesystem@boost@@@boost@@QAE@ABV01@@Z ; boost::shared_ptr<boost::filesystem::basic_filesystem_error<boost::filesystem::basic_path<std::basic_string<char,std::char_traits<char>,std::allocator<char> >,boost::filesystem::path_traits> >::m_imp>::shared_ptr<boost::filesystem::basic_filesystem_error<boost::filesystem::basic_path<std::basic_string<char,std::char_traits<char>,std::allocator<char> >,boost::filesystem::path_traits> >::m_imp>
PUBLIC	?find@?$char_traits@D@std@@SAPBDPBDIABD@Z	; std::char_traits<char>::find
PUBLIC	?find@?$basic_string@DU?$char_traits@D@std@@V?$allocator@D@2@@std@@QBEIPBDII@Z ; std::basic_string<char,std::char_traits<char>,std::allocator<char> >::find
PUBLIC	?find@?$basic_string@DU?$char_traits@D@std@@V?$allocator@D@2@@std@@QBEIDI@Z ; std::basic_string<char,std::char_traits<char>,std::allocator<char> >::find
PUBLIC	??$root_directory_start@V?$basic_string@DU?$char_traits@D@std@@V?$allocator@D@2@@std@@Upath_traits@filesystem@boost@@@detail@filesystem@boost@@YAIABV?$basic_string@DU?$char_traits@D@std@@V?$allocator@D@2@@std@@I@Z ; boost::filesystem::detail::root_directory_start<std::basic_string<char,std::char_traits<char>,std::allocator<char> >,boost::filesystem::path_traits>
PUBLIC	?file_string@?$basic_path@V?$basic_string@DU?$char_traits@D@std@@V?$allocator@D@2@@std@@Upath_traits@filesystem@boost@@@filesystem@boost@@QBE?BV?$basic_string@DU?$char_traits@D@std@@V?$allocator@D@2@@std@@XZ ; boost::filesystem::basic_path<std::basic_string<char,std::char_traits<char>,std::allocator<char> >,boost::filesystem::path_traits>::file_string
PUBLIC	?what@detail@filesystem@boost@@YAPBDPBDABV?$basic_path@V?$basic_string@DU?$char_traits@D@std@@V?$allocator@D@2@@std@@Upath_traits@filesystem@boost@@@23@1AAV?$basic_string@DU?$char_traits@D@std@@V?$allocator@D@2@@std@@@Z ; boost::filesystem::detail::what
PUBLIC	??C?$shared_ptr@Um_imp@?$basic_filesystem_error@V?$basic_path@V?$basic_string@DU?$char_traits@D@std@@V?$allocator@D@2@@std@@Upath_traits@filesystem@boost@@@filesystem@boost@@@filesystem@boost@@@boost@@QBEPAUm_imp@?$basic_filesystem_error@V?$basic_path@V?$basic_string@DU?$char_traits@D@std@@V?$allocator@D@2@@std@@Upath_traits@filesystem@boost@@@filesystem@boost@@@filesystem@1@XZ ; boost::shared_ptr<boost::filesystem::basic_filesystem_error<boost::filesystem::basic_path<std::basic_string<char,std::char_traits<char>,std::allocator<char> >,boost::filesystem::path_traits> >::m_imp>::operator->
PUBLIC	?get@?$shared_ptr@Um_imp@?$basic_filesystem_error@V?$basic_path@V?$basic_string@DU?$char_traits@D@std@@V?$allocator@D@2@@std@@Upath_traits@filesystem@boost@@@filesystem@boost@@@filesystem@boost@@@boost@@QBEPAUm_imp@?$basic_filesystem_error@V?$basic_path@V?$basic_string@DU?$char_traits@D@std@@V?$allocator@D@2@@std@@Upath_traits@filesystem@boost@@@filesystem@boost@@@filesystem@2@XZ ; boost::shared_ptr<boost::filesystem::basic_filesystem_error<boost::filesystem::basic_path<std::basic_string<char,std::char_traits<char>,std::allocator<char> >,boost::filesystem::path_traits> >::m_imp>::get
PUBLIC	?what@?$basic_filesystem_error@V?$basic_path@V?$basic_string@DU?$char_traits@D@std@@V?$allocator@D@2@@std@@Upath_traits@filesystem@boost@@@filesystem@boost@@@filesystem@boost@@UBEPBDXZ ; boost::filesystem::basic_filesystem_error<boost::filesystem::basic_path<std::basic_string<char,std::char_traits<char>,std::allocator<char> >,boost::filesystem::path_traits> >::what
PUBLIC	??1?$shared_ptr@Um_imp@?$basic_filesystem_error@V?$basic_path@V?$basic_string@DU?$char_traits@D@std@@V?$allocator@D@2@@std@@Upath_traits@filesystem@boost@@@filesystem@boost@@@filesystem@boost@@@boost@@QAE@XZ ; boost::shared_ptr<boost::filesystem::basic_filesystem_error<boost::filesystem::basic_path<std::basic_string<char,std::char_traits<char>,std::allocator<char> >,boost::filesystem::path_traits> >::m_imp>::~shared_ptr<boost::filesystem::basic_filesystem_error<boost::filesystem::basic_path<std::basic_string<char,std::char_traits<char>,std::allocator<char> >,boost::filesystem::path_traits> >::m_imp>
PUBLIC	??1?$basic_filesystem_error@V?$basic_path@V?$basic_string@DU?$char_traits@D@std@@V?$allocator@D@2@@std@@Upath_traits@filesystem@boost@@@filesystem@boost@@@filesystem@boost@@UAE@XZ ; boost::filesystem::basic_filesystem_error<boost::filesystem::basic_path<std::basic_string<char,std::char_traits<char>,std::allocator<char> >,boost::filesystem::path_traits> >::~basic_filesystem_error<boost::filesystem::basic_path<std::basic_string<char,std::char_traits<char>,std::allocator<char> >,boost::filesystem::path_traits> >
PUBLIC	??_G?$basic_filesystem_error@V?$basic_path@V?$basic_string@DU?$char_traits@D@std@@V?$allocator@D@2@@std@@Upath_traits@filesystem@boost@@@filesystem@boost@@@filesystem@boost@@UAEPAXI@Z ; boost::filesystem::basic_filesystem_error<boost::filesystem::basic_path<std::basic_string<char,std::char_traits<char>,std::allocator<char> >,boost::filesystem::path_traits> >::`scalar deleting destructor'
PUBLIC	??0?$basic_filesystem_error@V?$basic_path@V?$basic_string@DU?$char_traits@D@std@@V?$allocator@D@2@@std@@Upath_traits@filesystem@boost@@@filesystem@boost@@@filesystem@boost@@QAE@ABV012@@Z ; boost::filesystem::basic_filesystem_error<boost::filesystem::basic_path<std::basic_string<char,std::char_traits<char>,std::allocator<char> >,boost::filesystem::path_traits> >::basic_filesystem_error<boost::filesystem::basic_path<std::basic_string<char,std::char_traits<char>,std::allocator<char> >,boost::filesystem::path_traits> >
PUBLIC	??4?$basic_string@DU?$char_traits@D@std@@V?$allocator@D@2@@std@@QAEAAV01@PBD@Z ; std::basic_string<char,std::char_traits<char>,std::allocator<char> >::operator=
PUBLIC	?append@?$basic_string@DU?$char_traits@D@std@@V?$allocator@D@2@@std@@QAEAAV12@PBD@Z ; std::basic_string<char,std::char_traits<char>,std::allocator<char> >::append
PUBLIC	??Y?$basic_string@DU?$char_traits@D@std@@V?$allocator@D@2@@std@@QAEAAV01@PBD@Z ; std::basic_string<char,std::char_traits<char>,std::allocator<char> >::operator+=
PUBLIC	?value@error_code@system@boost@@QBEHXZ		; boost::system::error_code::value
PUBLIC	?message@error_code@system@boost@@QBE?AV?$basic_string@DU?$char_traits@D@std@@V?$allocator@D@2@@std@@XZ ; boost::system::error_code::message
PUBLIC	?unspecified_bool_true@error_code@system@boost@@SAXXZ ; boost::system::error_code::unspecified_bool_true
PUBLIC	??Berror_code@system@boost@@QBEP6AXXZXZ		; boost::system::error_code::operator void (__cdecl*)(void)
PUBLIC	?what@system_error@system@boost@@UBEPBDXZ	; boost::system::system_error::what
PUBLIC	??1system_error@system@boost@@UAE@XZ		; boost::system::system_error::~system_error
PUBLIC	??_Gsystem_error@system@boost@@UAEPAXI@Z	; boost::system::system_error::`scalar deleting destructor'
PUBLIC	??0system_error@system@boost@@QAE@ABV012@@Z	; boost::system::system_error::system_error
PUBLIC	?release@?$refcount_ptr@Uerror_info_container@exception_detail@boost@@@exception_detail@boost@@AAEXXZ ; boost::exception_detail::refcount_ptr<boost::exception_detail::error_info_container>::release
PUBLIC	??1?$refcount_ptr@Uerror_info_container@exception_detail@boost@@@exception_detail@boost@@QAE@XZ ; boost::exception_detail::refcount_ptr<boost::exception_detail::error_info_container>::~refcount_ptr<boost::exception_detail::error_info_container>
PUBLIC	?add_ref@?$refcount_ptr@Uerror_info_container@exception_detail@boost@@@exception_detail@boost@@AAEXXZ ; boost::exception_detail::refcount_ptr<boost::exception_detail::error_info_container>::add_ref
PUBLIC	??0?$refcount_ptr@Uerror_info_container@exception_detail@boost@@@exception_detail@boost@@QAE@ABV012@@Z ; boost::exception_detail::refcount_ptr<boost::exception_detail::error_info_container>::refcount_ptr<boost::exception_detail::error_info_container>
PUBLIC	??0exception@boost@@QAE@ABV01@@Z		; boost::exception::exception
PUBLIC	??1clone_base@exception_detail@boost@@UAE@XZ	; boost::exception_detail::clone_base::~clone_base
PUBLIC	??_Gclone_base@exception_detail@boost@@UAEPAXI@Z ; boost::exception_detail::clone_base::`scalar deleting destructor'
PUBLIC	??0clone_base@exception_detail@boost@@QAE@ABV012@@Z ; boost::exception_detail::clone_base::clone_base
PUBLIC	??$throw_exception@V?$basic_filesystem_error@V?$basic_path@V?$basic_string@DU?$char_traits@D@std@@V?$allocator@D@2@@std@@Upath_traits@filesystem@boost@@@filesystem@boost@@@filesystem@boost@@@boost@@YAXABV?$basic_filesystem_error@V?$basic_path@V?$basic_string@DU?$char_traits@D@std@@V?$allocator@D@2@@std@@Upath_traits@filesystem@boost@@@filesystem@boost@@@filesystem@0@@Z ; boost::throw_exception<boost::filesystem::basic_filesystem_error<boost::filesystem::basic_path<std::basic_string<char,std::char_traits<char>,std::allocator<char> >,boost::filesystem::path_traits> > >
PUBLIC	??$current_path@V?$basic_path@V?$basic_string@DU?$char_traits@D@std@@V?$allocator@D@2@@std@@Upath_traits@filesystem@boost@@@filesystem@boost@@@filesystem@boost@@YA?AV?$basic_path@V?$basic_string@DU?$char_traits@D@std@@V?$allocator@D@2@@std@@Upath_traits@filesystem@boost@@@01@XZ ; boost::filesystem::current_path<boost::filesystem::basic_path<std::basic_string<char,std::char_traits<char>,std::allocator<char> >,boost::filesystem::path_traits> >
PUBLIC	?current_path@filesystem@boost@@YA?AV?$basic_path@V?$basic_string@DU?$char_traits@D@std@@V?$allocator@D@2@@std@@Upath_traits@filesystem@boost@@@12@XZ ; boost::filesystem::current_path
PUBLIC	?seed@?$mersenne_twister@K$0CA@$0CHA@$0BIN@$0BP@$0JJAILANP@$0L@$06$0JNCMFGIA@$0P@$0OPMGAAAA@$0BC@$0MHHGGGNO@@random@boost@@QAEXABK@Z ; boost::random::mersenne_twister<unsigned long,32,624,397,31,2567483615,11,7,2636928640,15,4022730752,18,3346425566>::seed
PUBLIC	??0?$mersenne_twister@K$0CA@$0CHA@$0BIN@$0BP@$0JJAILANP@$0L@$06$0JNCMFGIA@$0P@$0OPMGAAAA@$0BC@$0MHHGGGNO@@random@boost@@QAE@ABK@Z ; boost::random::mersenne_twister<unsigned long,32,624,397,31,2567483615,11,7,2636928640,15,4022730752,18,3346425566>::mersenne_twister<unsigned long,32,624,397,31,2567483615,11,7,2636928640,15,4022730752,18,3346425566>
PUBLIC	??0?$uniform_real@N@boost@@QAE@NN@Z		; boost::uniform_real<double>::uniform_real<double>
PUBLIC	??R?$subtract@H$00@detail@random@boost@@QAEIHH@Z ; boost::random::detail::subtract<int,1>::operator()
PUBLIC	?init@?$uniform_int@H@boost@@AAEXXZ		; boost::uniform_int<int>::init
PUBLIC	??0?$uniform_int@H@boost@@QAE@HH@Z		; boost::uniform_int<int>::uniform_int<int>
PUBLIC	??0?$normal_distribution@N@boost@@QAE@ABN0@Z	; boost::normal_distribution<double>::normal_distribution<double>
PUBLIC	??0?$backward_compatible_uniform_01@V?$pass_through_engine@AAV?$mersenne_twister@K$0CA@$0CHA@$0BIN@$0BP@$0JJAILANP@$0L@$06$0JNCMFGIA@$0P@$0OPMGAAAA@$0BC@$0MHHGGGNO@@random@boost@@@detail@random@boost@@N@detail@boost@@QAE@ABV?$pass_through_engine@AAV?$mersenne_twister@K$0CA@$0CHA@$0BIN@$0BP@$0JJAILANP@$0L@$06$0JNCMFGIA@$0P@$0OPMGAAAA@$0BC@$0MHHGGGNO@@random@boost@@@1random@2@@Z ; boost::detail::backward_compatible_uniform_01<boost::random::detail::pass_through_engine<boost::random::mersenne_twister<unsigned long,32,624,397,31,2567483615,11,7,2636928640,15,4022730752,18,3346425566> &>,double>::backward_compatible_uniform_01<boost::random::detail::pass_through_engine<boost::random::mersenne_twister<unsigned long,32,624,397,31,2567483615,11,7,2636928640,15,4022730752,18,3346425566> &>,double>
PUBLIC	??0?$uniform_01@V?$pass_through_engine@AAV?$mersenne_twister@K$0CA@$0CHA@$0BIN@$0BP@$0JJAILANP@$0L@$06$0JNCMFGIA@$0P@$0OPMGAAAA@$0BC@$0MHHGGGNO@@random@boost@@@detail@random@boost@@N@boost@@QAE@ABV?$pass_through_engine@AAV?$mersenne_twister@K$0CA@$0CHA@$0BIN@$0BP@$0JJAILANP@$0L@$06$0JNCMFGIA@$0P@$0OPMGAAAA@$0BC@$0MHHGGGNO@@random@boost@@@detail@random@1@@Z ; boost::uniform_01<boost::random::detail::pass_through_engine<boost::random::mersenne_twister<unsigned long,32,624,397,31,2567483615,11,7,2636928640,15,4022730752,18,3346425566> &>,double>::uniform_01<boost::random::detail::pass_through_engine<boost::random::mersenne_twister<unsigned long,32,624,397,31,2567483615,11,7,2636928640,15,4022730752,18,3346425566> &>,double>
PUBLIC	??0?$variate_generator@AAV?$mersenne_twister@K$0CA@$0CHA@$0BIN@$0BP@$0JJAILANP@$0L@$06$0JNCMFGIA@$0P@$0OPMGAAAA@$0BC@$0MHHGGGNO@@random@boost@@V?$uniform_real@N@3@@boost@@QAE@AAV?$mersenne_twister@K$0CA@$0CHA@$0BIN@$0BP@$0JJAILANP@$0L@$06$0JNCMFGIA@$0P@$0OPMGAAAA@$0BC@$0MHHGGGNO@@random@1@V?$uniform_real@N@1@@Z ; boost::variate_generator<boost::random::mersenne_twister<unsigned long,32,624,397,31,2567483615,11,7,2636928640,15,4022730752,18,3346425566> &,boost::uniform_real<double> >::variate_generator<boost::random::mersenne_twister<unsigned long,32,624,397,31,2567483615,11,7,2636928640,15,4022730752,18,3346425566> &,boost::uniform_real<double> >
PUBLIC	??0?$pass_through_engine@AAV?$mersenne_twister@K$0CA@$0CHA@$0BIN@$0BP@$0JJAILANP@$0L@$06$0JNCMFGIA@$0P@$0OPMGAAAA@$0BC@$0MHHGGGNO@@random@boost@@@detail@random@boost@@QAE@AAV?$mersenne_twister@K$0CA@$0CHA@$0BIN@$0BP@$0JJAILANP@$0L@$06$0JNCMFGIA@$0P@$0OPMGAAAA@$0BC@$0MHHGGGNO@@23@@Z ; boost::random::detail::pass_through_engine<boost::random::mersenne_twister<unsigned long,32,624,397,31,2567483615,11,7,2636928640,15,4022730752,18,3346425566> &>::pass_through_engine<boost::random::mersenne_twister<unsigned long,32,624,397,31,2567483615,11,7,2636928640,15,4022730752,18,3346425566> &>
PUBLIC	??0?$pass_through_engine@V?$pass_through_engine@AAV?$mersenne_twister@K$0CA@$0CHA@$0BIN@$0BP@$0JJAILANP@$0L@$06$0JNCMFGIA@$0P@$0OPMGAAAA@$0BC@$0MHHGGGNO@@random@boost@@@detail@random@boost@@@detail@random@boost@@QAE@V?$pass_through_engine@AAV?$mersenne_twister@K$0CA@$0CHA@$0BIN@$0BP@$0JJAILANP@$0L@$06$0JNCMFGIA@$0P@$0OPMGAAAA@$0BC@$0MHHGGGNO@@random@boost@@@123@@Z ; boost::random::detail::pass_through_engine<boost::random::detail::pass_through_engine<boost::random::mersenne_twister<unsigned long,32,624,397,31,2567483615,11,7,2636928640,15,4022730752,18,3346425566> &> >::pass_through_engine<boost::random::detail::pass_through_engine<boost::random::mersenne_twister<unsigned long,32,624,397,31,2567483615,11,7,2636928640,15,4022730752,18,3346425566> &> >
PUBLIC	??0?$variate_generator@AAV?$mersenne_twister@K$0CA@$0CHA@$0BIN@$0BP@$0JJAILANP@$0L@$06$0JNCMFGIA@$0P@$0OPMGAAAA@$0BC@$0MHHGGGNO@@random@boost@@V?$uniform_int@H@3@@boost@@QAE@AAV?$mersenne_twister@K$0CA@$0CHA@$0BIN@$0BP@$0JJAILANP@$0L@$06$0JNCMFGIA@$0P@$0OPMGAAAA@$0BC@$0MHHGGGNO@@random@1@V?$uniform_int@H@1@@Z ; boost::variate_generator<boost::random::mersenne_twister<unsigned long,32,624,397,31,2567483615,11,7,2636928640,15,4022730752,18,3346425566> &,boost::uniform_int<int> >::variate_generator<boost::random::mersenne_twister<unsigned long,32,624,397,31,2567483615,11,7,2636928640,15,4022730752,18,3346425566> &,boost::uniform_int<int> >
PUBLIC	??0?$pass_through_engine@V?$mersenne_twister@K$0CA@$0CHA@$0BIN@$0BP@$0JJAILANP@$0L@$06$0JNCMFGIA@$0P@$0OPMGAAAA@$0BC@$0MHHGGGNO@@random@boost@@@detail@random@boost@@QAE@V?$mersenne_twister@K$0CA@$0CHA@$0BIN@$0BP@$0JJAILANP@$0L@$06$0JNCMFGIA@$0P@$0OPMGAAAA@$0BC@$0MHHGGGNO@@23@@Z ; boost::random::detail::pass_through_engine<boost::random::mersenne_twister<unsigned long,32,624,397,31,2567483615,11,7,2636928640,15,4022730752,18,3346425566> >::pass_through_engine<boost::random::mersenne_twister<unsigned long,32,624,397,31,2567483615,11,7,2636928640,15,4022730752,18,3346425566> >
PUBLIC	??0?$pass_through_engine@V?$pass_through_engine@V?$mersenne_twister@K$0CA@$0CHA@$0BIN@$0BP@$0JJAILANP@$0L@$06$0JNCMFGIA@$0P@$0OPMGAAAA@$0BC@$0MHHGGGNO@@random@boost@@@detail@random@boost@@@detail@random@boost@@QAE@V?$pass_through_engine@V?$mersenne_twister@K$0CA@$0CHA@$0BIN@$0BP@$0JJAILANP@$0L@$06$0JNCMFGIA@$0P@$0OPMGAAAA@$0BC@$0MHHGGGNO@@random@boost@@@123@@Z ; boost::random::detail::pass_through_engine<boost::random::detail::pass_through_engine<boost::random::mersenne_twister<unsigned long,32,624,397,31,2567483615,11,7,2636928640,15,4022730752,18,3346425566> > >::pass_through_engine<boost::random::detail::pass_through_engine<boost::random::mersenne_twister<unsigned long,32,624,397,31,2567483615,11,7,2636928640,15,4022730752,18,3346425566> > >
PUBLIC	?max@?$pass_through_engine@V?$mersenne_twister@K$0CA@$0CHA@$0BIN@$0BP@$0JJAILANP@$0L@$06$0JNCMFGIA@$0P@$0OPMGAAAA@$0BC@$0MHHGGGNO@@random@boost@@@detail@random@boost@@QBEKXZ ; boost::random::detail::pass_through_engine<boost::random::mersenne_twister<unsigned long,32,624,397,31,2567483615,11,7,2636928640,15,4022730752,18,3346425566> >::max
PUBLIC	?max@?$pass_through_engine@V?$pass_through_engine@V?$mersenne_twister@K$0CA@$0CHA@$0BIN@$0BP@$0JJAILANP@$0L@$06$0JNCMFGIA@$0P@$0OPMGAAAA@$0BC@$0MHHGGGNO@@random@boost@@@detail@random@boost@@@detail@random@boost@@QBEKXZ ; boost::random::detail::pass_through_engine<boost::random::detail::pass_through_engine<boost::random::mersenne_twister<unsigned long,32,624,397,31,2567483615,11,7,2636928640,15,4022730752,18,3346425566> > >::max
PUBLIC	??0?$backward_compatible_uniform_01@V?$pass_through_engine@V?$mersenne_twister@K$0CA@$0CHA@$0BIN@$0BP@$0JJAILANP@$0L@$06$0JNCMFGIA@$0P@$0OPMGAAAA@$0BC@$0MHHGGGNO@@random@boost@@@detail@random@boost@@N@detail@boost@@QAE@ABV?$pass_through_engine@V?$mersenne_twister@K$0CA@$0CHA@$0BIN@$0BP@$0JJAILANP@$0L@$06$0JNCMFGIA@$0P@$0OPMGAAAA@$0BC@$0MHHGGGNO@@random@boost@@@1random@2@@Z ; boost::detail::backward_compatible_uniform_01<boost::random::detail::pass_through_engine<boost::random::mersenne_twister<unsigned long,32,624,397,31,2567483615,11,7,2636928640,15,4022730752,18,3346425566> >,double>::backward_compatible_uniform_01<boost::random::detail::pass_through_engine<boost::random::mersenne_twister<unsigned long,32,624,397,31,2567483615,11,7,2636928640,15,4022730752,18,3346425566> >,double>
PUBLIC	??0?$uniform_01@V?$pass_through_engine@V?$mersenne_twister@K$0CA@$0CHA@$0BIN@$0BP@$0JJAILANP@$0L@$06$0JNCMFGIA@$0P@$0OPMGAAAA@$0BC@$0MHHGGGNO@@random@boost@@@detail@random@boost@@N@boost@@QAE@ABV?$pass_through_engine@V?$mersenne_twister@K$0CA@$0CHA@$0BIN@$0BP@$0JJAILANP@$0L@$06$0JNCMFGIA@$0P@$0OPMGAAAA@$0BC@$0MHHGGGNO@@random@boost@@@detail@random@1@@Z ; boost::uniform_01<boost::random::detail::pass_through_engine<boost::random::mersenne_twister<unsigned long,32,624,397,31,2567483615,11,7,2636928640,15,4022730752,18,3346425566> >,double>::uniform_01<boost::random::detail::pass_through_engine<boost::random::mersenne_twister<unsigned long,32,624,397,31,2567483615,11,7,2636928640,15,4022730752,18,3346425566> >,double>
PUBLIC	??0?$variate_generator@V?$mersenne_twister@K$0CA@$0CHA@$0BIN@$0BP@$0JJAILANP@$0L@$06$0JNCMFGIA@$0P@$0OPMGAAAA@$0BC@$0MHHGGGNO@@random@boost@@V?$normal_distribution@N@3@@boost@@QAE@V?$mersenne_twister@K$0CA@$0CHA@$0BIN@$0BP@$0JJAILANP@$0L@$06$0JNCMFGIA@$0P@$0OPMGAAAA@$0BC@$0MHHGGGNO@@random@1@V?$normal_distribution@N@1@@Z ; boost::variate_generator<boost::random::mersenne_twister<unsigned long,32,624,397,31,2567483615,11,7,2636928640,15,4022730752,18,3346425566>,boost::normal_distribution<double> >::variate_generator<boost::random::mersenne_twister<unsigned long,32,624,397,31,2567483615,11,7,2636928640,15,4022730752,18,3346425566>,boost::normal_distribution<double> >
PUBLIC	??_0?$basic_path@V?$basic_string@DU?$char_traits@D@std@@V?$allocator@D@2@@std@@Upath_traits@filesystem@boost@@@filesystem@boost@@QAEAAV012@ABV?$basic_string@DU?$char_traits@D@std@@V?$allocator@D@2@@std@@@Z ; boost::filesystem::basic_path<std::basic_string<char,std::char_traits<char>,std::allocator<char> >,boost::filesystem::path_traits>::operator/=
PUBLIC	??0?$basic_path@V?$basic_string@DU?$char_traits@D@std@@V?$allocator@D@2@@std@@Upath_traits@filesystem@boost@@@filesystem@boost@@QAE@ABV?$basic_string@DU?$char_traits@D@std@@V?$allocator@D@2@@std@@@Z ; boost::filesystem::basic_path<std::basic_string<char,std::char_traits<char>,std::allocator<char> >,boost::filesystem::path_traits>::basic_path<std::basic_string<char,std::char_traits<char>,std::allocator<char> >,boost::filesystem::path_traits>
PUBLIC	??$?KV?$basic_string@DU?$char_traits@D@std@@V?$allocator@D@2@@std@@Upath_traits@filesystem@boost@@@filesystem@boost@@YA?AV?$basic_path@V?$basic_string@DU?$char_traits@D@std@@V?$allocator@D@2@@std@@Upath_traits@filesystem@boost@@@01@ABV201@ABV?$basic_string@DU?$char_traits@D@std@@V?$allocator@D@2@@std@@@Z ; boost::filesystem::operator/<std::basic_string<char,std::char_traits<char>,std::allocator<char> >,boost::filesystem::path_traits>
PUBLIC	??0?$basic_path@V?$basic_string@DU?$char_traits@D@std@@V?$allocator@D@2@@std@@Upath_traits@filesystem@boost@@@filesystem@boost@@QAE@PBD@Z ; boost::filesystem::basic_path<std::basic_string<char,std::char_traits<char>,std::allocator<char> >,boost::filesystem::path_traits>::basic_path<std::basic_string<char,std::char_traits<char>,std::allocator<char> >,boost::filesystem::path_traits>
PUBLIC	??1?$basic_path@V?$basic_string@DU?$char_traits@D@std@@V?$allocator@D@2@@std@@Upath_traits@filesystem@boost@@@filesystem@boost@@QAE@XZ ; boost::filesystem::basic_path<std::basic_string<char,std::char_traits<char>,std::allocator<char> >,boost::filesystem::path_traits>::~basic_path<std::basic_string<char,std::char_traits<char>,std::allocator<char> >,boost::filesystem::path_traits>
PUBLIC	?empty@?$basic_string@DU?$char_traits@D@std@@V?$allocator@D@2@@std@@QBE_NXZ ; std::basic_string<char,std::char_traits<char>,std::allocator<char> >::empty
PUBLIC	?empty@?$basic_path@V?$basic_string@DU?$char_traits@D@std@@V?$allocator@D@2@@std@@Upath_traits@filesystem@boost@@@filesystem@boost@@QBE_NXZ ; boost::filesystem::basic_path<std::basic_string<char,std::char_traits<char>,std::allocator<char> >,boost::filesystem::path_traits>::empty
PUBLIC	??Z?$_String_iterator@DU?$char_traits@D@std@@V?$allocator@D@2@@std@@QAEAAV01@H@Z ; std::_String_iterator<char,std::char_traits<char>,std::allocator<char> >::operator-=
PUBLIC	??G?$_String_iterator@DU?$char_traits@D@std@@V?$allocator@D@2@@std@@QBE?AV01@H@Z ; std::_String_iterator<char,std::char_traits<char>,std::allocator<char> >::operator-
PUBLIC	?m_append_separator_if_needed@?$basic_path@V?$basic_string@DU?$char_traits@D@std@@V?$allocator@D@2@@std@@Upath_traits@filesystem@boost@@@filesystem@boost@@AAEXXZ ; boost::filesystem::basic_path<std::basic_string<char,std::char_traits<char>,std::allocator<char> >,boost::filesystem::path_traits>::m_append_separator_if_needed
PUBLIC	?m_append@?$basic_path@V?$basic_string@DU?$char_traits@D@std@@V?$allocator@D@2@@std@@Upath_traits@filesystem@boost@@@filesystem@boost@@AAEXD@Z ; boost::filesystem::basic_path<std::basic_string<char,std::char_traits<char>,std::allocator<char> >,boost::filesystem::path_traits>::m_append
PUBLIC	??$is_separator@V?$basic_path@V?$basic_string@DU?$char_traits@D@std@@V?$allocator@D@2@@std@@Upath_traits@filesystem@boost@@@filesystem@boost@@@detail@filesystem@boost@@YA_ND@Z ; boost::filesystem::detail::is_separator<boost::filesystem::basic_path<std::basic_string<char,std::char_traits<char>,std::allocator<char> >,boost::filesystem::path_traits> >
PUBLIC	??_0?$basic_path@V?$basic_string@DU?$char_traits@D@std@@V?$allocator@D@2@@std@@Upath_traits@filesystem@boost@@@filesystem@boost@@QAEAAV012@PBD@Z ; boost::filesystem::basic_path<std::basic_string<char,std::char_traits<char>,std::allocator<char> >,boost::filesystem::path_traits>::operator/=
PUBLIC	?string@?$basic_path@V?$basic_string@DU?$char_traits@D@std@@V?$allocator@D@2@@std@@Upath_traits@filesystem@boost@@@filesystem@boost@@QBEABV?$basic_string@DU?$char_traits@D@std@@V?$allocator@D@2@@std@@XZ ; boost::filesystem::basic_path<std::basic_string<char,std::char_traits<char>,std::allocator<char> >,boost::filesystem::path_traits>::string
PUBLIC	??_0?$basic_path@V?$basic_string@DU?$char_traits@D@std@@V?$allocator@D@2@@std@@Upath_traits@filesystem@boost@@@filesystem@boost@@QAEAAV012@ABV012@@Z ; boost::filesystem::basic_path<std::basic_string<char,std::char_traits<char>,std::allocator<char> >,boost::filesystem::path_traits>::operator/=
PUBLIC	??0?$basic_path@V?$basic_string@DU?$char_traits@D@std@@V?$allocator@D@2@@std@@Upath_traits@filesystem@boost@@@filesystem@boost@@QAE@ABV012@@Z ; boost::filesystem::basic_path<std::basic_string<char,std::char_traits<char>,std::allocator<char> >,boost::filesystem::path_traits>::basic_path<std::basic_string<char,std::char_traits<char>,std::allocator<char> >,boost::filesystem::path_traits>
PUBLIC	??$?KV?$basic_string@DU?$char_traits@D@std@@V?$allocator@D@2@@std@@Upath_traits@filesystem@boost@@@filesystem@boost@@YA?AV?$basic_path@V?$basic_string@DU?$char_traits@D@std@@V?$allocator@D@2@@std@@Upath_traits@filesystem@boost@@@01@ABV201@PBD@Z ; boost::filesystem::operator/<std::basic_string<char,std::char_traits<char>,std::allocator<char> >,boost::filesystem::path_traits>
PUBLIC	??0?$basic_filebuf@DU?$char_traits@D@std@@@std@@QAE@PAU_iobuf@@@Z ; std::basic_filebuf<char,std::char_traits<char> >::basic_filebuf<char,std::char_traits<char> >
PUBLIC	?getloc@?$basic_streambuf@DU?$char_traits@D@std@@@std@@QBE?AVlocale@2@XZ ; std::basic_streambuf<char,std::char_traits<char> >::getloc
PUBLIC	?open@?$basic_filebuf@DU?$char_traits@D@std@@@std@@QAEPAV12@PBDHH@Z ; std::basic_filebuf<char,std::char_traits<char> >::open
PUBLIC	??0impl@?$basic_file@D@iostreams@boost@@QAE@ABV?$basic_string@DU?$char_traits@D@std@@V?$allocator@D@2@@std@@H@Z ; boost::iostreams::basic_file<char>::impl::impl
PUBLIC	?swap@shared_count@detail@boost@@QAEXAAV123@@Z	; boost::detail::shared_count::swap
PUBLIC	??$swap@PAUimpl@?$basic_file@D@iostreams@boost@@@std@@YAXAAPAUimpl@?$basic_file@D@iostreams@boost@@0@Z ; std::swap<boost::iostreams::basic_file<char>::impl *>
PUBLIC	?swap@?$shared_ptr@Uimpl@?$basic_file@D@iostreams@boost@@@boost@@QAEXAAV12@@Z ; boost::shared_ptr<boost::iostreams::basic_file<char>::impl>::swap
PUBLIC	?dispose@?$sp_counted_impl_p@Uimpl@?$basic_file@D@iostreams@boost@@@detail@boost@@UAEXXZ ; boost::detail::sp_counted_impl_p<boost::iostreams::basic_file<char>::impl>::dispose
PUBLIC	?get_deleter@?$sp_counted_impl_p@Uimpl@?$basic_file@D@iostreams@boost@@@detail@boost@@UAEPAXABVtype_info@@@Z ; boost::detail::sp_counted_impl_p<boost::iostreams::basic_file<char>::impl>::get_deleter
PUBLIC	??1?$sp_counted_impl_p@Uimpl@?$basic_file@D@iostreams@boost@@@detail@boost@@UAE@XZ ; boost::detail::sp_counted_impl_p<boost::iostreams::basic_file<char>::impl>::~sp_counted_impl_p<boost::iostreams::basic_file<char>::impl>
PUBLIC	??_G?$sp_counted_impl_p@Uimpl@?$basic_file@D@iostreams@boost@@@detail@boost@@UAEPAXI@Z ; boost::detail::sp_counted_impl_p<boost::iostreams::basic_file<char>::impl>::`scalar deleting destructor'
PUBLIC	??0?$sp_counted_impl_p@Uimpl@?$basic_file@D@iostreams@boost@@@detail@boost@@QAE@PAUimpl@?$basic_file@D@iostreams@2@@Z ; boost::detail::sp_counted_impl_p<boost::iostreams::basic_file<char>::impl>::sp_counted_impl_p<boost::iostreams::basic_file<char>::impl>
PUBLIC	??$_Fputc@D@std@@YA_NDPAU_iobuf@@@Z		; std::_Fputc<char>
PUBLIC	?out@?$codecvt@DDH@std@@QBEHAAHPBD1AAPBDPAD3AAPAD@Z ; std::codecvt<char,char,int>::out
PUBLIC	?overflow@?$basic_filebuf@DU?$char_traits@D@std@@@std@@MAEHH@Z ; std::basic_filebuf<char,std::char_traits<char> >::overflow
PUBLIC	?_Gndec@?$basic_streambuf@DU?$char_traits@D@std@@@std@@IAEPADXZ ; std::basic_streambuf<char,std::char_traits<char> >::_Gndec
PUBLIC	??$_Ungetc@D@std@@YA_NABDPAU_iobuf@@@Z		; std::_Ungetc<char>
PUBLIC	?pbackfail@?$basic_filebuf@DU?$char_traits@D@std@@@std@@MAEHH@Z ; std::basic_filebuf<char,std::char_traits<char> >::pbackfail
PUBLIC	?underflow@?$basic_filebuf@DU?$char_traits@D@std@@@std@@MAEHXZ ; std::basic_filebuf<char,std::char_traits<char> >::underflow
PUBLIC	??$_Fgetc@D@std@@YA_NAADPAU_iobuf@@@Z		; std::_Fgetc<char>
PUBLIC	?in@?$codecvt@DDH@std@@QBEHAAHPBD1AAPBDPAD3AAPAD@Z ; std::codecvt<char,char,int>::in
PUBLIC	?uflow@?$basic_filebuf@DU?$char_traits@D@std@@@std@@MAEHXZ ; std::basic_filebuf<char,std::char_traits<char> >::uflow
PUBLIC	?seekoff@?$basic_filebuf@DU?$char_traits@D@std@@@std@@MAE?AV?$fpos@H@2@JHH@Z ; std::basic_filebuf<char,std::char_traits<char> >::seekoff
PUBLIC	?state@?$fpos@H@std@@QBEHXZ			; std::fpos<int>::state
PUBLIC	?seekpos@?$basic_filebuf@DU?$char_traits@D@std@@@std@@MAE?AV?$fpos@H@2@V32@H@Z ; std::basic_filebuf<char,std::char_traits<char> >::seekpos
PUBLIC	?setbuf@?$basic_filebuf@DU?$char_traits@D@std@@@std@@MAEPAV?$basic_streambuf@DU?$char_traits@D@std@@@2@PADH@Z ; std::basic_filebuf<char,std::char_traits<char> >::setbuf
PUBLIC	?sync@?$basic_filebuf@DU?$char_traits@D@std@@@std@@MAEHXZ ; std::basic_filebuf<char,std::char_traits<char> >::sync
PUBLIC	?always_noconv@codecvt_base@std@@QBE_NXZ	; std::codecvt_base::always_noconv
PUBLIC	?_Initcvt@?$basic_filebuf@DU?$char_traits@D@std@@@std@@IAEXPAV?$codecvt@DDH@2@@Z ; std::basic_filebuf<char,std::char_traits<char> >::_Initcvt
PUBLIC	??0codecvt_base@std@@QAE@I@Z			; std::codecvt_base::codecvt_base
PUBLIC	?_Init@?$codecvt@DDH@std@@IAEXABV_Locinfo@2@@Z	; std::codecvt<char,char,int>::_Init
PUBLIC	?do_in@?$codecvt@DDH@std@@MBEHAAHPBD1AAPBDPAD3AAPAD@Z ; std::codecvt<char,char,int>::do_in
PUBLIC	?do_out@?$codecvt@DDH@std@@MBEHAAHPBD1AAPBDPAD3AAPAD@Z ; std::codecvt<char,char,int>::do_out
PUBLIC	?do_unshift@?$codecvt@DDH@std@@MBEHAAHPAD1AAPAD@Z ; std::codecvt<char,char,int>::do_unshift
PUBLIC	?do_length@?$codecvt@DDH@std@@MBEHABHPBD1I@Z	; std::codecvt<char,char,int>::do_length
PUBLIC	?do_always_noconv@codecvt_base@std@@MBE_NXZ	; std::codecvt_base::do_always_noconv
PUBLIC	?do_max_length@codecvt_base@std@@MBEHXZ		; std::codecvt_base::do_max_length
PUBLIC	?do_encoding@codecvt_base@std@@MBEHXZ		; std::codecvt_base::do_encoding
PUBLIC	??_Gcodecvt_base@std@@UAEPAXI@Z			; std::codecvt_base::`scalar deleting destructor'
PUBLIC	??1codecvt_base@std@@UAE@XZ			; std::codecvt_base::~codecvt_base
PUBLIC	??1?$codecvt@DDH@std@@MAE@XZ			; std::codecvt<char,char,int>::~codecvt<char,char,int>
PUBLIC	??_G?$codecvt@DDH@std@@MAEPAXI@Z		; std::codecvt<char,char,int>::`scalar deleting destructor'
PUBLIC	??0?$codecvt@DDH@std@@QAE@ABV_Locinfo@1@I@Z	; std::codecvt<char,char,int>::codecvt<char,char,int>
PUBLIC	?_Getcat@?$codecvt@DDH@std@@SAIPAPBVfacet@locale@2@PBV42@@Z ; std::codecvt<char,char,int>::_Getcat
PUBLIC	??$use_facet@V?$codecvt@DDH@std@@@std@@YAABV?$codecvt@DDH@0@ABVlocale@0@@Z ; std::use_facet<std::codecvt<char,char,int> >
PUBLIC	?imbue@?$basic_filebuf@DU?$char_traits@D@std@@@std@@MAEXABVlocale@2@@Z ; std::basic_filebuf<char,std::char_traits<char> >::imbue
PUBLIC	??_G?$basic_filebuf@DU?$char_traits@D@std@@@std@@UAEPAXI@Z ; std::basic_filebuf<char,std::char_traits<char> >::`scalar deleting destructor'
PUBLIC	??1?$basic_filebuf@DU?$char_traits@D@std@@@std@@UAE@XZ ; std::basic_filebuf<char,std::char_traits<char> >::~basic_filebuf<char,std::char_traits<char> >
PUBLIC	?is_open@?$basic_filebuf@DU?$char_traits@D@std@@@std@@QBE_NXZ ; std::basic_filebuf<char,std::char_traits<char> >::is_open
PUBLIC	??1impl@?$basic_file@D@iostreams@boost@@QAE@XZ	; boost::iostreams::basic_file<char>::impl::~impl
PUBLIC	??_Gimpl@?$basic_file@D@iostreams@boost@@QAEPAXI@Z ; boost::iostreams::basic_file<char>::impl::`scalar deleting destructor'
PUBLIC	??$checked_delete@Uimpl@?$basic_file@D@iostreams@boost@@@boost@@YAXPAUimpl@?$basic_file@D@iostreams@0@@Z ; boost::checked_delete<boost::iostreams::basic_file<char>::impl>
PUBLIC	??$?0Uimpl@?$basic_file@D@iostreams@boost@@@shared_count@detail@boost@@QAE@PAUimpl@?$basic_file@D@iostreams@2@@Z ; boost::detail::shared_count::shared_count<boost::iostreams::basic_file<char>::impl>
PUBLIC	??$?0Uimpl@?$basic_file@D@iostreams@boost@@@?$shared_ptr@Uimpl@?$basic_file@D@iostreams@boost@@@boost@@QAE@PAUimpl@?$basic_file@D@iostreams@1@@Z ; boost::shared_ptr<boost::iostreams::basic_file<char>::impl>::shared_ptr<boost::iostreams::basic_file<char>::impl><boost::iostreams::basic_file<char>::impl>
PUBLIC	??$reset@Uimpl@?$basic_file@D@iostreams@boost@@@?$shared_ptr@Uimpl@?$basic_file@D@iostreams@boost@@@boost@@QAEXPAUimpl@?$basic_file@D@iostreams@1@@Z ; boost::shared_ptr<boost::iostreams::basic_file<char>::impl>::reset<boost::iostreams::basic_file<char>::impl>
PUBLIC	?open@?$basic_file@D@iostreams@boost@@QAEXABV?$basic_string@DU?$char_traits@D@std@@V?$allocator@D@2@@std@@HH@Z ; boost::iostreams::basic_file<char>::open
PUBLIC	??0shared_count@detail@boost@@QAE@XZ		; boost::detail::shared_count::shared_count
PUBLIC	??0?$shared_ptr@Uimpl@?$basic_file@D@iostreams@boost@@@boost@@QAE@XZ ; boost::shared_ptr<boost::iostreams::basic_file<char>::impl>::shared_ptr<boost::iostreams::basic_file<char>::impl>
PUBLIC	??0?$basic_file@D@iostreams@boost@@QAE@ABV?$basic_string@DU?$char_traits@D@std@@V?$allocator@D@2@@std@@HH@Z ; boost::iostreams::basic_file<char>::basic_file<char>
PUBLIC	??0?$basic_file_source@D@iostreams@boost@@QAE@ABV?$basic_string@DU?$char_traits@D@std@@V?$allocator@D@2@@std@@H@Z ; boost::iostreams::basic_file_source<char>::basic_file_source<char>
PUBLIC	??$resolve@Uinput@iostreams@boost@@DU?$basic_file_source@D@23@@detail@iostreams@boost@@YAABU?$basic_file_source@D@12@ABU312@PAX@Z ; boost::iostreams::detail::resolve<boost::iostreams::input,char,boost::iostreams::basic_file_source<char> >
PUBLIC	??$_Construct@PAV?$linked_streambuf@DU?$char_traits@D@std@@@detail@iostreams@boost@@PAV1234@@std@@YAXPAPAV?$linked_streambuf@DU?$char_traits@D@std@@@detail@iostreams@boost@@ABQAV1234@@Z ; std::_Construct<boost::iostreams::detail::linked_streambuf<char,std::char_traits<char> > *,boost::iostreams::detail::linked_streambuf<char,std::char_traits<char> > *>
PUBLIC	?construct@?$allocator@PAV?$linked_streambuf@DU?$char_traits@D@std@@@detail@iostreams@boost@@@std@@QAEXPAPAV?$linked_streambuf@DU?$char_traits@D@std@@@detail@iostreams@boost@@ABQAV3456@@Z ; std::allocator<boost::iostreams::detail::linked_streambuf<char,std::char_traits<char> > *>::construct
PUBLIC	?_Buynode@?$list@PAV?$linked_streambuf@DU?$char_traits@D@std@@@detail@iostreams@boost@@V?$allocator@PAV?$linked_streambuf@DU?$char_traits@D@std@@@detail@iostreams@boost@@@std@@@std@@IAEPAU_Node@?$_List_nod@PAV?$linked_streambuf@DU?$char_traits@D@std@@@detail@iostreams@boost@@V?$allocator@PAV?$linked_streambuf@DU?$char_traits@D@std@@@detail@iostreams@boost@@@std@@@2@PAU342@0ABQAV?$linked_streambuf@DU?$char_traits@D@std@@@detail@iostreams@boost@@@Z ; std::list<boost::iostreams::detail::linked_streambuf<char,std::char_traits<char> > *,std::allocator<boost::iostreams::detail::linked_streambuf<char,std::char_traits<char> > *> >::_Buynode
PUBLIC	?max_size@?$allocator@PAV?$linked_streambuf@DU?$char_traits@D@std@@@detail@iostreams@boost@@@std@@QBEIXZ ; std::allocator<boost::iostreams::detail::linked_streambuf<char,std::char_traits<char> > *>::max_size
PUBLIC	?max_size@?$list@PAV?$linked_streambuf@DU?$char_traits@D@std@@@detail@iostreams@boost@@V?$allocator@PAV?$linked_streambuf@DU?$char_traits@D@std@@@detail@iostreams@boost@@@std@@@std@@QBEIXZ ; std::list<boost::iostreams::detail::linked_streambuf<char,std::char_traits<char> > *,std::allocator<boost::iostreams::detail::linked_streambuf<char,std::char_traits<char> > *> >::max_size
PUBLIC	?_Incsize@?$list@PAV?$linked_streambuf@DU?$char_traits@D@std@@@detail@iostreams@boost@@V?$allocator@PAV?$linked_streambuf@DU?$char_traits@D@std@@@detail@iostreams@boost@@@std@@@std@@IAEXI@Z ; std::list<boost::iostreams::detail::linked_streambuf<char,std::char_traits<char> > *,std::allocator<boost::iostreams::detail::linked_streambuf<char,std::char_traits<char> > *> >::_Incsize
PUBLIC	?_Insert@?$list@PAV?$linked_streambuf@DU?$char_traits@D@std@@@detail@iostreams@boost@@V?$allocator@PAV?$linked_streambuf@DU?$char_traits@D@std@@@detail@iostreams@boost@@@std@@@std@@QAEXV?$_Const_iterator@$00@12@ABQAV?$linked_streambuf@DU?$char_traits@D@std@@@detail@iostreams@boost@@@Z ; std::list<boost::iostreams::detail::linked_streambuf<char,std::char_traits<char> > *,std::allocator<boost::iostreams::detail::linked_streambuf<char,std::char_traits<char> > *> >::_Insert
PUBLIC	?push_back@?$list@PAV?$linked_streambuf@DU?$char_traits@D@std@@@detail@iostreams@boost@@V?$allocator@PAV?$linked_streambuf@DU?$char_traits@D@std@@@detail@iostreams@boost@@@std@@@std@@QAEXABQAV?$linked_streambuf@DU?$char_traits@D@std@@@detail@iostreams@boost@@@Z ; std::list<boost::iostreams::detail::linked_streambuf<char,std::char_traits<char> > *,std::allocator<boost::iostreams::detail::linked_streambuf<char,std::char_traits<char> > *> >::push_back
PUBLIC	?notify@?$chain_base@V?$chain@Uinput@iostreams@boost@@DU?$char_traits@D@std@@V?$allocator@D@5@@iostreams@boost@@DU?$char_traits@D@std@@V?$allocator@D@5@Uinput@23@@detail@iostreams@boost@@AAEXXZ ; boost::iostreams::detail::chain_base<boost::iostreams::chain<boost::iostreams::input,char,std::char_traits<char>,std::allocator<char> >,char,std::char_traits<char>,std::allocator<char>,boost::iostreams::input>::notify
PUBLIC	?set_needs_close@?$linked_streambuf@DU?$char_traits@D@std@@@detail@iostreams@boost@@IAEXXZ ; boost::iostreams::detail::linked_streambuf<char,std::char_traits<char> >::set_needs_close
PUBLIC	??0?$optional@V?$concept_adapter@U?$basic_file_source@D@iostreams@boost@@@detail@iostreams@boost@@@detail@iostreams@boost@@QAE@XZ ; boost::iostreams::detail::optional<boost::iostreams::detail::concept_adapter<boost::iostreams::basic_file_source<char> > >::optional<boost::iostreams::detail::concept_adapter<boost::iostreams::basic_file_source<char> > >
PUBLIC	??_G?$indirect_streambuf@U?$basic_file_source@D@iostreams@boost@@U?$char_traits@D@std@@V?$allocator@D@5@Uinput@23@@detail@iostreams@boost@@UAEPAXI@Z ; boost::iostreams::detail::indirect_streambuf<boost::iostreams::basic_file_source<char>,std::char_traits<char>,std::allocator<char>,boost::iostreams::input>::`scalar deleting destructor'
PUBLIC	??0?$indirect_streambuf@U?$basic_file_source@D@iostreams@boost@@U?$char_traits@D@std@@V?$allocator@D@5@Uinput@23@@detail@iostreams@boost@@QAE@XZ ; boost::iostreams::detail::indirect_streambuf<boost::iostreams::basic_file_source<char>,std::char_traits<char>,std::allocator<char>,boost::iostreams::input>::indirect_streambuf<boost::iostreams::basic_file_source<char>,std::char_traits<char>,std::allocator<char>,boost::iostreams::input>
PUBLIC	??$unwrap@U?$basic_file_source@D@iostreams@boost@@@detail@iostreams@boost@@YAABU?$basic_file_source@D@12@ABU312@@Z ; boost::iostreams::detail::unwrap<boost::iostreams::basic_file_source<char> >
PUBLIC	??$optimal_buffer_size@U?$basic_file_source@D@iostreams@boost@@@?$optimal_buffer_size_impl@Udevice_tag@iostreams@boost@@@detail@iostreams@boost@@SAHABU?$basic_file_source@D@23@@Z ; boost::iostreams::detail::optimal_buffer_size_impl<boost::iostreams::device_tag>::optimal_buffer_size<boost::iostreams::basic_file_source<char> >
PUBLIC	??$optimal_buffer_size@U?$basic_file_source@D@iostreams@boost@@@iostreams@boost@@YAHABU?$basic_file_source@D@01@@Z ; boost::iostreams::optimal_buffer_size<boost::iostreams::basic_file_source<char> >
PUBLIC	?can_read@?$indirect_streambuf@U?$basic_file_source@D@iostreams@boost@@U?$char_traits@D@std@@V?$allocator@D@5@Uinput@23@@detail@iostreams@boost@@ABE_NXZ ; boost::iostreams::detail::indirect_streambuf<boost::iostreams::basic_file_source<char>,std::char_traits<char>,std::allocator<char>,boost::iostreams::input>::can_read
PUBLIC	?can_write@?$indirect_streambuf@U?$basic_file_source@D@iostreams@boost@@U?$char_traits@D@std@@V?$allocator@D@5@Uinput@23@@detail@iostreams@boost@@ABE_NXZ ; boost::iostreams::detail::indirect_streambuf<boost::iostreams::basic_file_source<char>,std::char_traits<char>,std::allocator<char>,boost::iostreams::input>::can_write
PUBLIC	??0?$concept_adapter@U?$basic_file_source@D@iostreams@boost@@@detail@iostreams@boost@@QAE@ABV0123@@Z ; boost::iostreams::detail::concept_adapter<boost::iostreams::basic_file_source<char> >::concept_adapter<boost::iostreams::basic_file_source<char> >
PUBLIC	?reset@?$optional@V?$concept_adapter@U?$basic_file_source@D@iostreams@boost@@@detail@iostreams@boost@@@detail@iostreams@boost@@QAEXABV?$concept_adapter@U?$basic_file_source@D@iostreams@boost@@@234@@Z ; boost::iostreams::detail::optional<boost::iostreams::detail::concept_adapter<boost::iostreams::basic_file_source<char> > >::reset
PUBLIC	??0?$concept_adapter@U?$basic_file_source@D@iostreams@boost@@@detail@iostreams@boost@@QAE@ABU?$basic_file_source@D@23@@Z ; boost::iostreams::detail::concept_adapter<boost::iostreams::basic_file_source<char> >::concept_adapter<boost::iostreams::basic_file_source<char> >
PUBLIC	?open@?$indirect_streambuf@U?$basic_file_source@D@iostreams@boost@@U?$char_traits@D@std@@V?$allocator@D@5@Uinput@23@@detail@iostreams@boost@@QAEXABU?$basic_file_source@D@34@HH@Z ; boost::iostreams::detail::indirect_streambuf<boost::iostreams::basic_file_source<char>,std::char_traits<char>,std::allocator<char>,boost::iostreams::input>::open
PUBLIC	?open_impl@?$stream_buffer@U?$basic_file_source@D@iostreams@boost@@U?$char_traits@D@std@@V?$allocator@D@5@Uinput@23@@iostreams@boost@@AAEXABU?$basic_file_source@D@23@HH@Z ; boost::iostreams::stream_buffer<boost::iostreams::basic_file_source<char>,std::char_traits<char>,std::allocator<char>,boost::iostreams::input>::open_impl
PUBLIC	?set_auto_close@?$indirect_streambuf@U?$basic_file_source@D@iostreams@boost@@U?$char_traits@D@std@@V?$allocator@D@5@Uinput@23@@detail@iostreams@boost@@UAEX_N@Z ; boost::iostreams::detail::indirect_streambuf<boost::iostreams::basic_file_source<char>,std::char_traits<char>,std::allocator<char>,boost::iostreams::input>::set_auto_close
PUBLIC	?strict_sync@?$indirect_streambuf@U?$basic_file_source@D@iostreams@boost@@U?$char_traits@D@std@@V?$allocator@D@5@Uinput@23@@detail@iostreams@boost@@UAE_NXZ ; boost::iostreams::detail::indirect_streambuf<boost::iostreams::basic_file_source<char>,std::char_traits<char>,std::allocator<char>,boost::iostreams::input>::strict_sync
PUBLIC	??$imbue@U?$basic_file_source@D@iostreams@boost@@Vlocale@std@@@?$imbue_impl@Uany_tag@iostreams@boost@@@detail@iostreams@boost@@SAXAAU?$basic_file_source@D@23@ABVlocale@std@@@Z ; boost::iostreams::detail::imbue_impl<boost::iostreams::any_tag>::imbue<boost::iostreams::basic_file_source<char>,std::locale>
PUBLIC	??$imbue@U?$basic_file_source@D@iostreams@boost@@Vlocale@std@@@iostreams@boost@@YAXAAU?$basic_file_source@D@01@ABVlocale@std@@@Z ; boost::iostreams::imbue<boost::iostreams::basic_file_source<char>,std::locale>
PUBLIC	??$imbue@Vlocale@std@@@?$concept_adapter@U?$basic_file_source@D@iostreams@boost@@@detail@iostreams@boost@@QAEXABVlocale@std@@@Z ; boost::iostreams::detail::concept_adapter<boost::iostreams::basic_file_source<char> >::imbue<std::locale>
PUBLIC	?imbue@?$indirect_streambuf@U?$basic_file_source@D@iostreams@boost@@U?$char_traits@D@std@@V?$allocator@D@5@Uinput@23@@detail@iostreams@boost@@MAEXABVlocale@std@@@Z ; boost::iostreams::detail::indirect_streambuf<boost::iostreams::basic_file_source<char>,std::char_traits<char>,std::allocator<char>,boost::iostreams::input>::imbue
PUBLIC	?sgetn@?$basic_streambuf@DU?$char_traits@D@std@@@std@@QAEHPADH@Z ; std::basic_streambuf<char,std::char_traits<char> >::sgetn
PUBLIC	?read@?$basic_file@D@iostreams@boost@@QAEHPADH@Z ; boost::iostreams::basic_file<char>::read
PUBLIC	??$read@U?$basic_file_source@D@iostreams@boost@@@?$read_device_impl@Uinput@iostreams@boost@@@detail@iostreams@boost@@SAHAAU?$basic_file_source@D@23@PADH@Z ; boost::iostreams::detail::read_device_impl<boost::iostreams::input>::read<boost::iostreams::basic_file_source<char> >
PUBLIC	??$read@U?$basic_file_source@D@iostreams@boost@@@iostreams@boost@@YAHAAU?$basic_file_source@D@01@PADH@Z ; boost::iostreams::read<boost::iostreams::basic_file_source<char> >
PUBLIC	??$read@U?$basic_file_source@D@iostreams@boost@@V?$linked_streambuf@DU?$char_traits@D@std@@@detail@23@@?$device_wrapper_impl@Uinput@iostreams@boost@@@detail@iostreams@boost@@SAHAAU?$basic_file_source@D@23@PAV?$linked_streambuf@DU?$char_traits@D@std@@@123@PADH@Z ; boost::iostreams::detail::device_wrapper_impl<boost::iostreams::input>::read<boost::iostreams::basic_file_source<char>,boost::iostreams::detail::linked_streambuf<char,std::char_traits<char> > >
PUBLIC	??$read@V?$linked_streambuf@DU?$char_traits@D@std@@@detail@iostreams@boost@@@?$concept_adapter@U?$basic_file_source@D@iostreams@boost@@@detail@iostreams@boost@@QAEHPADHPAV?$linked_streambuf@DU?$char_traits@D@std@@@123@@Z ; boost::iostreams::detail::concept_adapter<boost::iostreams::basic_file_source<char> >::read<boost::iostreams::detail::linked_streambuf<char,std::char_traits<char> > >
PUBLIC	?underflow@?$indirect_streambuf@U?$basic_file_source@D@iostreams@boost@@U?$char_traits@D@std@@V?$allocator@D@5@Uinput@23@@detail@iostreams@boost@@MAEHXZ ; boost::iostreams::detail::indirect_streambuf<boost::iostreams::basic_file_source<char>,std::char_traits<char>,std::allocator<char>,boost::iostreams::input>::underflow
PUBLIC	?pbackfail@?$indirect_streambuf@U?$basic_file_source@D@iostreams@boost@@U?$char_traits@D@std@@V?$allocator@D@5@Uinput@23@@detail@iostreams@boost@@MAEHH@Z ; boost::iostreams::detail::indirect_streambuf<boost::iostreams::basic_file_source<char>,std::char_traits<char>,std::allocator<char>,boost::iostreams::input>::pbackfail
PUBLIC	?overflow@?$indirect_streambuf@U?$basic_file_source@D@iostreams@boost@@U?$char_traits@D@std@@V?$allocator@D@5@Uinput@23@@detail@iostreams@boost@@MAEHH@Z ; boost::iostreams::detail::indirect_streambuf<boost::iostreams::basic_file_source<char>,std::char_traits<char>,std::allocator<char>,boost::iostreams::input>::overflow
PUBLIC	??$flush@U?$basic_file_source@D@iostreams@boost@@@?$flush_device_impl@Uany_tag@iostreams@boost@@@detail@iostreams@boost@@SA_NAAU?$basic_file_source@D@23@@Z ; boost::iostreams::detail::flush_device_impl<boost::iostreams::any_tag>::flush<boost::iostreams::basic_file_source<char> >
PUBLIC	??$flush@U?$basic_file_source@D@iostreams@boost@@@iostreams@boost@@YA_NAAU?$basic_file_source@D@01@@Z ; boost::iostreams::flush<boost::iostreams::basic_file_source<char> >
PUBLIC	??$flush@U?$basic_file_source@D@iostreams@boost@@V?$basic_streambuf@DU?$char_traits@D@std@@@std@@@?$device_wrapper_impl@Uany_tag@iostreams@boost@@@detail@iostreams@boost@@SA_NAAU?$basic_file_source@D@23@PAV?$basic_streambuf@DU?$char_traits@D@std@@@std@@@Z ; boost::iostreams::detail::device_wrapper_impl<boost::iostreams::any_tag>::flush<boost::iostreams::basic_file_source<char>,std::basic_streambuf<char,std::char_traits<char> > >
PUBLIC	?flush@?$concept_adapter@U?$basic_file_source@D@iostreams@boost@@@detail@iostreams@boost@@QAE_NPAV?$basic_streambuf@DU?$char_traits@D@std@@@std@@@Z ; boost::iostreams::detail::concept_adapter<boost::iostreams::basic_file_source<char> >::flush
PUBLIC	?sync@?$indirect_streambuf@U?$basic_file_source@D@iostreams@boost@@U?$char_traits@D@std@@V?$allocator@D@5@Uinput@23@@detail@iostreams@boost@@MAEHXZ ; boost::iostreams::detail::indirect_streambuf<boost::iostreams::basic_file_source<char>,std::char_traits<char>,std::allocator<char>,boost::iostreams::input>::sync
PUBLIC	?seekoff@?$indirect_streambuf@U?$basic_file_source@D@iostreams@boost@@U?$char_traits@D@std@@V?$allocator@D@5@Uinput@23@@detail@iostreams@boost@@MAE?AV?$fpos@H@std@@JHH@Z ; boost::iostreams::detail::indirect_streambuf<boost::iostreams::basic_file_source<char>,std::char_traits<char>,std::allocator<char>,boost::iostreams::input>::seekoff
PUBLIC	??0random_access@detail@iostreams@boost@@QAE@ABU0123@@Z ; boost::iostreams::detail::random_access::random_access
PUBLIC	??0random_access@detail@iostreams@boost@@QAE@XZ	; boost::iostreams::detail::random_access::random_access
PUBLIC	??0input_seekable@iostreams@boost@@QAE@XZ	; boost::iostreams::input_seekable::input_seekable
PUBLIC	??0category@?$basic_file_source@D@iostreams@boost@@QAE@XZ ; boost::iostreams::basic_file_source<char>::category::category
PUBLIC	??$unwrap@V?$basic_filebuf@DU?$char_traits@D@std@@@std@@@detail@iostreams@boost@@YAAAV?$basic_filebuf@DU?$char_traits@D@std@@@std@@AAV34@@Z ; boost::iostreams::detail::unwrap<std::basic_filebuf<char,std::char_traits<char> > >
PUBLIC	?pubseekoff@?$basic_streambuf@DU?$char_traits@D@std@@@std@@QAE?AV?$fpos@H@2@JHH@Z ; std::basic_streambuf<char,std::char_traits<char> >::pubseekoff
PUBLIC	?pubseekpos@?$basic_streambuf@DU?$char_traits@D@std@@@std@@QAE?AV?$fpos@H@2@V32@H@Z ; std::basic_streambuf<char,std::char_traits<char> >::pubseekpos
PUBLIC	??0?$fpos@H@std@@QAE@H_J@Z			; std::fpos<int>::fpos<int>
PUBLIC	?offset_to_position@iostreams@boost@@YA?AV?$fpos@H@std@@_J@Z ; boost::iostreams::offset_to_position
PUBLIC	??$seek@V?$basic_filebuf@DU?$char_traits@D@std@@@std@@@?$seek_device_impl@Ustreambuf_tag@iostreams@boost@@@detail@iostreams@boost@@SA?AV?$fpos@H@std@@AAV?$basic_filebuf@DU?$char_traits@D@std@@@5@_JHH@Z ; boost::iostreams::detail::seek_device_impl<boost::iostreams::streambuf_tag>::seek<std::basic_filebuf<char,std::char_traits<char> > >
PUBLIC	??$seek@V?$basic_filebuf@DU?$char_traits@D@std@@@std@@@iostreams@boost@@YA?AV?$fpos@H@std@@AAV?$basic_filebuf@DU?$char_traits@D@std@@@3@_JHH@Z ; boost::iostreams::seek<std::basic_filebuf<char,std::char_traits<char> > >
PUBLIC	?seek@?$basic_file@D@iostreams@boost@@QAE?AV?$fpos@H@std@@_JHH@Z ; boost::iostreams::basic_file<char>::seek
PUBLIC	??$seek@U?$basic_file_source@D@iostreams@boost@@@?$seek_device_impl@Uany_tag@iostreams@boost@@@detail@iostreams@boost@@SA?AV?$fpos@H@std@@AAU?$basic_file_source@D@23@_JHH@Z ; boost::iostreams::detail::seek_device_impl<boost::iostreams::any_tag>::seek<boost::iostreams::basic_file_source<char> >
PUBLIC	??$seek@U?$basic_file_source@D@iostreams@boost@@@iostreams@boost@@YA?AV?$fpos@H@std@@AAU?$basic_file_source@D@01@_JHH@Z ; boost::iostreams::seek<boost::iostreams::basic_file_source<char> >
PUBLIC	??$seek@U?$basic_file_source@D@iostreams@boost@@@?$device_wrapper_impl@Uany_tag@iostreams@boost@@@detail@iostreams@boost@@SA?AV?$fpos@H@std@@AAU?$basic_file_source@D@23@_JHHUrandom_access@123@@Z ; boost::iostreams::detail::device_wrapper_impl<boost::iostreams::any_tag>::seek<boost::iostreams::basic_file_source<char> >
PUBLIC	??$seek@U?$basic_file_source@D@iostreams@boost@@V?$linked_streambuf@DU?$char_traits@D@std@@@detail@23@@?$device_wrapper_impl@Uany_tag@iostreams@boost@@@detail@iostreams@boost@@SA?AV?$fpos@H@std@@AAU?$basic_file_source@D@23@PAV?$linked_streambuf@DU?$char_traits@D@std@@@123@_JHH@Z ; boost::iostreams::detail::device_wrapper_impl<boost::iostreams::any_tag>::seek<boost::iostreams::basic_file_source<char>,boost::iostreams::detail::linked_streambuf<char,std::char_traits<char> > >
PUBLIC	??$seek@V?$linked_streambuf@DU?$char_traits@D@std@@@detail@iostreams@boost@@@?$concept_adapter@U?$basic_file_source@D@iostreams@boost@@@detail@iostreams@boost@@QAE?AV?$fpos@H@std@@_JHHPAV?$linked_streambuf@DU?$char_traits@D@std@@@123@@Z ; boost::iostreams::detail::concept_adapter<boost::iostreams::basic_file_source<char> >::seek<boost::iostreams::detail::linked_streambuf<char,std::char_traits<char> > >
PUBLIC	?seek_impl@?$indirect_streambuf@U?$basic_file_source@D@iostreams@boost@@U?$char_traits@D@std@@V?$allocator@D@5@Uinput@23@@detail@iostreams@boost@@AAE?AV?$fpos@H@std@@_JHH@Z ; boost::iostreams::detail::indirect_streambuf<boost::iostreams::basic_file_source<char>,std::char_traits<char>,std::allocator<char>,boost::iostreams::input>::seek_impl
PUBLIC	?seekpos@?$indirect_streambuf@U?$basic_file_source@D@iostreams@boost@@U?$char_traits@D@std@@V?$allocator@D@5@Uinput@23@@detail@iostreams@boost@@MAE?AV?$fpos@H@std@@V56@H@Z ; boost::iostreams::detail::indirect_streambuf<boost::iostreams::basic_file_source<char>,std::char_traits<char>,std::allocator<char>,boost::iostreams::input>::seekpos
PUBLIC	?set_next@?$indirect_streambuf@U?$basic_file_source@D@iostreams@boost@@U?$char_traits@D@std@@V?$allocator@D@5@Uinput@23@@detail@iostreams@boost@@MAEXPAV?$linked_streambuf@DU?$char_traits@D@std@@@234@@Z ; boost::iostreams::detail::indirect_streambuf<boost::iostreams::basic_file_source<char>,std::char_traits<char>,std::allocator<char>,boost::iostreams::input>::set_next
PUBLIC	??$unwrap@U?$basic_file_source@D@iostreams@boost@@@detail@iostreams@boost@@YAAAU?$basic_file_source@D@12@AAU312@@Z ; boost::iostreams::detail::unwrap<boost::iostreams::basic_file_source<char> >
PUBLIC	??$close_all@U?$basic_file_source@D@iostreams@boost@@@detail@iostreams@boost@@YAXAAU?$basic_file_source@D@12@@Z ; boost::iostreams::detail::close_all<boost::iostreams::basic_file_source<char> >
PUBLIC	??C?$shared_ptr@Uimpl@?$basic_file@D@iostreams@boost@@@boost@@QBEPAUimpl@?$basic_file@D@iostreams@1@XZ ; boost::shared_ptr<boost::iostreams::basic_file<char>::impl>::operator->
PUBLIC	?_Init@?$basic_streambuf@DU?$char_traits@D@std@@@std@@IAEXPAPAD0PAH001@Z ; std::basic_streambuf<char,std::char_traits<char> >::_Init
PUBLIC	?_Init@?$basic_filebuf@DU?$char_traits@D@std@@@std@@IAEXPAU_iobuf@@W4_Initfl@12@@Z ; std::basic_filebuf<char,std::char_traits<char> >::_Init
PUBLIC	??D?$_String_const_iterator@DU?$char_traits@D@std@@V?$allocator@D@2@@std@@QBEABDXZ ; std::_String_const_iterator<char,std::char_traits<char>,std::allocator<char> >::operator*
PUBLIC	??D?$_String_iterator@DU?$char_traits@D@std@@V?$allocator@D@2@@std@@QBEAADXZ ; std::_String_iterator<char,std::char_traits<char>,std::allocator<char> >::operator*
PUBLIC	?unshift@?$codecvt@DDH@std@@QBEHAAHPAD1AAPAD@Z	; std::codecvt<char,char,int>::unshift
PUBLIC	?_Endwrite@?$basic_filebuf@DU?$char_traits@D@std@@@std@@IAE_NXZ ; std::basic_filebuf<char,std::char_traits<char> >::_Endwrite
PUBLIC	?close@?$basic_filebuf@DU?$char_traits@D@std@@@std@@QAEPAV12@XZ ; std::basic_filebuf<char,std::char_traits<char> >::close
PUBLIC	?close@?$basic_file@D@iostreams@boost@@QAEXXZ	; boost::iostreams::basic_file<char>::close
PUBLIC	??$close@U?$basic_file_source@D@iostreams@boost@@@?$close_impl@Uclosable_tag@iostreams@boost@@@detail@iostreams@boost@@SAXAAU?$basic_file_source@D@23@H@Z ; boost::iostreams::detail::close_impl<boost::iostreams::closable_tag>::close<boost::iostreams::basic_file_source<char> >
PUBLIC	??$close@U?$basic_file_source@D@iostreams@boost@@@iostreams@boost@@YAXAAU?$basic_file_source@D@01@H@Z ; boost::iostreams::close<boost::iostreams::basic_file_source<char> >
PUBLIC	??$close@U?$basic_file_source@D@iostreams@boost@@V?$linked_streambuf@DU?$char_traits@D@std@@@detail@23@@?$device_wrapper_impl@Uany_tag@iostreams@boost@@@detail@iostreams@boost@@SAXAAU?$basic_file_source@D@23@PAV?$linked_streambuf@DU?$char_traits@D@std@@@123@H@Z ; boost::iostreams::detail::device_wrapper_impl<boost::iostreams::any_tag>::close<boost::iostreams::basic_file_source<char>,boost::iostreams::detail::linked_streambuf<char,std::char_traits<char> > >
PUBLIC	??$close@V?$linked_streambuf@DU?$char_traits@D@std@@@detail@iostreams@boost@@@?$concept_adapter@U?$basic_file_source@D@iostreams@boost@@@detail@iostreams@boost@@QAEXHPAV?$linked_streambuf@DU?$char_traits@D@std@@@123@@Z ; boost::iostreams::detail::concept_adapter<boost::iostreams::basic_file_source<char> >::close<boost::iostreams::detail::linked_streambuf<char,std::char_traits<char> > >
PUBLIC	?close_impl@?$indirect_streambuf@U?$basic_file_source@D@iostreams@boost@@U?$char_traits@D@std@@V?$allocator@D@5@Uinput@23@@detail@iostreams@boost@@MAEXH@Z ; boost::iostreams::detail::indirect_streambuf<boost::iostreams::basic_file_source<char>,std::char_traits<char>,std::allocator<char>,boost::iostreams::input>::close_impl
PUBLIC	?component_type@?$indirect_streambuf@U?$basic_file_source@D@iostreams@boost@@U?$char_traits@D@std@@V?$allocator@D@5@Uinput@23@@detail@iostreams@boost@@MBEABVtype_info@@XZ ; boost::iostreams::detail::indirect_streambuf<boost::iostreams::basic_file_source<char>,std::char_traits<char>,std::allocator<char>,boost::iostreams::input>::component_type
PUBLIC	??D?$concept_adapter@U?$basic_file_source@D@iostreams@boost@@@detail@iostreams@boost@@QAEAAU?$basic_file_source@D@23@XZ ; boost::iostreams::detail::concept_adapter<boost::iostreams::basic_file_source<char> >::operator*
PUBLIC	?component@?$indirect_streambuf@U?$basic_file_source@D@iostreams@boost@@U?$char_traits@D@std@@V?$allocator@D@5@Uinput@23@@detail@iostreams@boost@@QAEPAU?$basic_file_source@D@34@XZ ; boost::iostreams::detail::indirect_streambuf<boost::iostreams::basic_file_source<char>,std::char_traits<char>,std::allocator<char>,boost::iostreams::input>::component
PUBLIC	?component_impl@?$indirect_streambuf@U?$basic_file_source@D@iostreams@boost@@U?$char_traits@D@std@@V?$allocator@D@5@Uinput@23@@detail@iostreams@boost@@MAEPAXXZ ; boost::iostreams::detail::indirect_streambuf<boost::iostreams::basic_file_source<char>,std::char_traits<char>,std::allocator<char>,boost::iostreams::input>::component_impl
PUBLIC	?in@?$indirect_streambuf@U?$basic_file_source@D@iostreams@boost@@U?$char_traits@D@std@@V?$allocator@D@5@Uinput@23@@detail@iostreams@boost@@AAEAAV?$basic_buffer@DV?$allocator@D@std@@@234@XZ ; boost::iostreams::detail::indirect_streambuf<boost::iostreams::basic_file_source<char>,std::char_traits<char>,std::allocator<char>,boost::iostreams::input>::in
PUBLIC	??D?$optional@V?$concept_adapter@U?$basic_file_source@D@iostreams@boost@@@detail@iostreams@boost@@@detail@iostreams@boost@@QAEAAV?$concept_adapter@U?$basic_file_source@D@iostreams@boost@@@123@XZ ; boost::iostreams::detail::optional<boost::iostreams::detail::concept_adapter<boost::iostreams::basic_file_source<char> > >::operator*
PUBLIC	?obj@?$indirect_streambuf@U?$basic_file_source@D@iostreams@boost@@U?$char_traits@D@std@@V?$allocator@D@5@Uinput@23@@detail@iostreams@boost@@AAEAAV?$concept_adapter@U?$basic_file_source@D@iostreams@boost@@@234@XZ ; boost::iostreams::detail::indirect_streambuf<boost::iostreams::basic_file_source<char>,std::char_traits<char>,std::allocator<char>,boost::iostreams::input>::obj
PUBLIC	?next@?$indirect_streambuf@U?$basic_file_source@D@iostreams@boost@@U?$char_traits@D@std@@V?$allocator@D@5@Uinput@23@@detail@iostreams@boost@@ABEPAV?$linked_streambuf@DU?$char_traits@D@std@@@234@XZ ; boost::iostreams::detail::indirect_streambuf<boost::iostreams::basic_file_source<char>,std::char_traits<char>,std::allocator<char>,boost::iostreams::input>::next
PUBLIC	??$write@U?$basic_file_source@D@iostreams@boost@@V?$linked_streambuf@DU?$char_traits@D@std@@@detail@23@@?$device_wrapper_impl@Uinput@iostreams@boost@@@detail@iostreams@boost@@SAHAAU?$basic_file_source@D@23@PAV?$linked_streambuf@DU?$char_traits@D@std@@@123@PBDH@Z ; boost::iostreams::detail::device_wrapper_impl<boost::iostreams::input>::write<boost::iostreams::basic_file_source<char>,boost::iostreams::detail::linked_streambuf<char,std::char_traits<char> > >
PUBLIC	??$write@V?$linked_streambuf@DU?$char_traits@D@std@@@detail@iostreams@boost@@@?$concept_adapter@U?$basic_file_source@D@iostreams@boost@@@detail@iostreams@boost@@QAEHPBDHPAV?$linked_streambuf@DU?$char_traits@D@std@@@123@@Z ; boost::iostreams::detail::concept_adapter<boost::iostreams::basic_file_source<char> >::write<boost::iostreams::detail::linked_streambuf<char,std::char_traits<char> > >
PUBLIC	?sync_impl@?$indirect_streambuf@U?$basic_file_source@D@iostreams@boost@@U?$char_traits@D@std@@V?$allocator@D@5@Uinput@23@@detail@iostreams@boost@@AAEXXZ ; boost::iostreams::detail::indirect_streambuf<boost::iostreams::basic_file_source<char>,std::char_traits<char>,std::allocator<char>,boost::iostreams::input>::sync_impl
PUBLIC	?init_get_area@?$indirect_streambuf@U?$basic_file_source@D@iostreams@boost@@U?$char_traits@D@std@@V?$allocator@D@5@Uinput@23@@detail@iostreams@boost@@EAEXXZ ; boost::iostreams::detail::indirect_streambuf<boost::iostreams::basic_file_source<char>,std::char_traits<char>,std::allocator<char>,boost::iostreams::input>::init_get_area
PUBLIC	?out@?$indirect_streambuf@U?$basic_file_source@D@iostreams@boost@@U?$char_traits@D@std@@V?$allocator@D@5@Uinput@23@@detail@iostreams@boost@@AAEAAV?$basic_buffer@DV?$allocator@D@std@@@234@XZ ; boost::iostreams::detail::indirect_streambuf<boost::iostreams::basic_file_source<char>,std::char_traits<char>,std::allocator<char>,boost::iostreams::input>::out
PUBLIC	?output_buffered@?$indirect_streambuf@U?$basic_file_source@D@iostreams@boost@@U?$char_traits@D@std@@V?$allocator@D@5@Uinput@23@@detail@iostreams@boost@@ABE_NXZ ; boost::iostreams::detail::indirect_streambuf<boost::iostreams::basic_file_source<char>,std::char_traits<char>,std::allocator<char>,boost::iostreams::input>::output_buffered
PUBLIC	?shared_buffer@?$indirect_streambuf@U?$basic_file_source@D@iostreams@boost@@U?$char_traits@D@std@@V?$allocator@D@5@Uinput@23@@detail@iostreams@boost@@ABE_NXZ ; boost::iostreams::detail::indirect_streambuf<boost::iostreams::basic_file_source<char>,std::char_traits<char>,std::allocator<char>,boost::iostreams::input>::shared_buffer
PUBLIC	?init_put_area@?$indirect_streambuf@U?$basic_file_source@D@iostreams@boost@@U?$char_traits@D@std@@V?$allocator@D@5@Uinput@23@@detail@iostreams@boost@@EAEXXZ ; boost::iostreams::detail::indirect_streambuf<boost::iostreams::basic_file_source<char>,std::char_traits<char>,std::allocator<char>,boost::iostreams::input>::init_put_area
PUBLIC	?is_open@?$indirect_streambuf@U?$basic_file_source@D@iostreams@boost@@U?$char_traits@D@std@@V?$allocator@D@5@Uinput@23@@detail@iostreams@boost@@QBE_NXZ ; boost::iostreams::detail::indirect_streambuf<boost::iostreams::basic_file_source<char>,std::char_traits<char>,std::allocator<char>,boost::iostreams::input>::is_open
PUBLIC	??0?$reset_operation@V?$optional@V?$concept_adapter@U?$basic_file_source@D@iostreams@boost@@@detail@iostreams@boost@@@detail@iostreams@boost@@@detail@iostreams@boost@@QAE@AAV?$optional@V?$concept_adapter@U?$basic_file_source@D@iostreams@boost@@@detail@iostreams@boost@@@123@@Z ; boost::iostreams::detail::reset_operation<boost::iostreams::detail::optional<boost::iostreams::detail::concept_adapter<boost::iostreams::basic_file_source<char> > > >::reset_operation<boost::iostreams::detail::optional<boost::iostreams::detail::concept_adapter<boost::iostreams::basic_file_source<char> > > >
PUBLIC	??$call_reset@V?$optional@V?$concept_adapter@U?$basic_file_source@D@iostreams@boost@@@detail@iostreams@boost@@@detail@iostreams@boost@@@detail@iostreams@boost@@YA?AV?$reset_operation@V?$optional@V?$concept_adapter@U?$basic_file_source@D@iostreams@boost@@@detail@iostreams@boost@@@detail@iostreams@boost@@@012@AAV?$optional@V?$concept_adapter@U?$basic_file_source@D@iostreams@boost@@@detail@iostreams@boost@@@012@@Z ; boost::iostreams::detail::call_reset<boost::iostreams::detail::optional<boost::iostreams::detail::concept_adapter<boost::iostreams::basic_file_source<char> > > >
PUBLIC	??R?$reset_operation@V?$optional@V?$concept_adapter@U?$basic_file_source@D@iostreams@boost@@@detail@iostreams@boost@@@detail@iostreams@boost@@@detail@iostreams@boost@@QBEXXZ ; boost::iostreams::detail::reset_operation<boost::iostreams::detail::optional<boost::iostreams::detail::concept_adapter<boost::iostreams::basic_file_source<char> > > >::operator()
PUBLIC	??$execute_all@V?$member_close_operation@V?$linked_streambuf@DU?$char_traits@D@std@@@detail@iostreams@boost@@@detail@iostreams@boost@@V1234@V?$reset_operation@V?$optional@V?$concept_adapter@U?$basic_file_source@D@iostreams@boost@@@detail@iostreams@boost@@@detail@iostreams@boost@@@234@@detail@iostreams@boost@@YAHV?$member_close_operation@V?$linked_streambuf@DU?$char_traits@D@std@@@detail@iostreams@boost@@@012@0V?$reset_operation@V?$optional@V?$concept_adapter@U?$basic_file_source@D@iostreams@boost@@@detail@iostreams@boost@@@detail@iostreams@boost@@@012@@Z ; boost::iostreams::detail::execute_all<boost::iostreams::detail::member_close_operation<boost::iostreams::detail::linked_streambuf<char,std::char_traits<char> > >,boost::iostreams::detail::member_close_operation<boost::iostreams::detail::linked_streambuf<char,std::char_traits<char> > >,boost::iostreams::detail::reset_operation<boost::iostreams::detail::optional<boost::iostreams::detail::concept_adapter<boost::iostreams::basic_file_source<char> > > > >
PUBLIC	??$execute_all@V?$member_close_operation@V?$linked_streambuf@DU?$char_traits@D@std@@@detail@iostreams@boost@@@detail@iostreams@boost@@V1234@V?$reset_operation@V?$optional@V?$concept_adapter@U?$basic_file_source@D@iostreams@boost@@@detail@iostreams@boost@@@detail@iostreams@boost@@@234@V?$clear_flags_operation@H@234@@detail@iostreams@boost@@YAHV?$member_close_operation@V?$linked_streambuf@DU?$char_traits@D@std@@@detail@iostreams@boost@@@012@0V?$reset_operation@V?$optional@V?$concept_adapter@U?$basic_file_source@D@iostreams@boost@@@detail@iostreams@boost@@@detail@iostreams@boost@@@012@V?$clear_flags_operation@H@012@@Z ; boost::iostreams::detail::execute_all<boost::iostreams::detail::member_close_operation<boost::iostreams::detail::linked_streambuf<char,std::char_traits<char> > >,boost::iostreams::detail::member_close_operation<boost::iostreams::detail::linked_streambuf<char,std::char_traits<char> > >,boost::iostreams::detail::reset_operation<boost::iostreams::detail::optional<boost::iostreams::detail::concept_adapter<boost::iostreams::basic_file_source<char> > > >,boost::iostreams::detail::clear_flags_operation<int> >
PUBLIC	?close@?$indirect_streambuf@U?$basic_file_source@D@iostreams@boost@@U?$char_traits@D@std@@V?$allocator@D@5@Uinput@23@@detail@iostreams@boost@@QAEXXZ ; boost::iostreams::detail::indirect_streambuf<boost::iostreams::basic_file_source<char>,std::char_traits<char>,std::allocator<char>,boost::iostreams::input>::close
PUBLIC	?auto_close@?$indirect_streambuf@U?$basic_file_source@D@iostreams@boost@@U?$char_traits@D@std@@V?$allocator@D@5@Uinput@23@@detail@iostreams@boost@@UBE_NXZ ; boost::iostreams::detail::indirect_streambuf<boost::iostreams::basic_file_source<char>,std::char_traits<char>,std::allocator<char>,boost::iostreams::input>::auto_close
PUBLIC	?address@?$optional@V?$concept_adapter@U?$basic_file_source@D@iostreams@boost@@@detail@iostreams@boost@@@detail@iostreams@boost@@AAEPAXXZ ; boost::iostreams::detail::optional<boost::iostreams::detail::concept_adapter<boost::iostreams::basic_file_source<char> > >::address
PUBLIC	??1?$concept_adapter@U?$basic_file_source@D@iostreams@boost@@@detail@iostreams@boost@@QAE@XZ ; boost::iostreams::detail::concept_adapter<boost::iostreams::basic_file_source<char> >::~concept_adapter<boost::iostreams::basic_file_source<char> >
PUBLIC	?reset@?$optional@V?$concept_adapter@U?$basic_file_source@D@iostreams@boost@@@detail@iostreams@boost@@@detail@iostreams@boost@@QAEXXZ ; boost::iostreams::detail::optional<boost::iostreams::detail::concept_adapter<boost::iostreams::basic_file_source<char> > >::reset
PUBLIC	??1?$optional@V?$concept_adapter@U?$basic_file_source@D@iostreams@boost@@@detail@iostreams@boost@@@detail@iostreams@boost@@QAE@XZ ; boost::iostreams::detail::optional<boost::iostreams::detail::concept_adapter<boost::iostreams::basic_file_source<char> > >::~optional<boost::iostreams::detail::concept_adapter<boost::iostreams::basic_file_source<char> > >
PUBLIC	??1?$indirect_streambuf@U?$basic_file_source@D@iostreams@boost@@U?$char_traits@D@std@@V?$allocator@D@5@Uinput@23@@detail@iostreams@boost@@UAE@XZ ; boost::iostreams::detail::indirect_streambuf<boost::iostreams::basic_file_source<char>,std::char_traits<char>,std::allocator<char>,boost::iostreams::input>::~indirect_streambuf<boost::iostreams::basic_file_source<char>,std::char_traits<char>,std::allocator<char>,boost::iostreams::input>
PUBLIC	??1?$stream_buffer@U?$basic_file_source@D@iostreams@boost@@U?$char_traits@D@std@@V?$allocator@D@5@Uinput@23@@iostreams@boost@@UAE@XZ ; boost::iostreams::stream_buffer<boost::iostreams::basic_file_source<char>,std::char_traits<char>,std::allocator<char>,boost::iostreams::input>::~stream_buffer<boost::iostreams::basic_file_source<char>,std::char_traits<char>,std::allocator<char>,boost::iostreams::input>
PUBLIC	??_G?$stream_buffer@U?$basic_file_source@D@iostreams@boost@@U?$char_traits@D@std@@V?$allocator@D@5@Uinput@23@@iostreams@boost@@UAEPAXI@Z ; boost::iostreams::stream_buffer<boost::iostreams::basic_file_source<char>,std::char_traits<char>,std::allocator<char>,boost::iostreams::input>::`scalar deleting destructor'
PUBLIC	??1?$basic_file_source@D@iostreams@boost@@QAE@XZ ; boost::iostreams::basic_file_source<char>::~basic_file_source<char>
PUBLIC	??1?$basic_file@D@iostreams@boost@@QAE@XZ	; boost::iostreams::basic_file<char>::~basic_file<char>
PUBLIC	??1?$shared_ptr@Uimpl@?$basic_file@D@iostreams@boost@@@boost@@QAE@XZ ; boost::shared_ptr<boost::iostreams::basic_file<char>::impl>::~shared_ptr<boost::iostreams::basic_file<char>::impl>
PUBLIC	?add_ref_copy@sp_counted_base@detail@boost@@QAEXXZ ; boost::detail::sp_counted_base::add_ref_copy
PUBLIC	??0shared_count@detail@boost@@QAE@ABV012@@Z	; boost::detail::shared_count::shared_count
PUBLIC	??0?$shared_ptr@Uimpl@?$basic_file@D@iostreams@boost@@@boost@@QAE@ABV01@@Z ; boost::shared_ptr<boost::iostreams::basic_file<char>::impl>::shared_ptr<boost::iostreams::basic_file<char>::impl>
PUBLIC	??0?$basic_file@D@iostreams@boost@@QAE@ABV012@@Z ; boost::iostreams::basic_file<char>::basic_file<char>
PUBLIC	??0?$basic_file_source@D@iostreams@boost@@QAE@ABU012@@Z ; boost::iostreams::basic_file_source<char>::basic_file_source<char>
PUBLIC	??$wrap@U?$basic_file_source@D@iostreams@boost@@@detail@iostreams@boost@@YA?AU?$basic_file_source@D@12@ABU312@PAX@Z ; boost::iostreams::detail::wrap<boost::iostreams::basic_file_source<char> >
PUBLIC	??0?$stream_buffer@U?$basic_file_source@D@iostreams@boost@@U?$char_traits@D@std@@V?$allocator@D@5@Uinput@23@@iostreams@boost@@QAE@ABU?$basic_file_source@D@12@HH@Z ; boost::iostreams::stream_buffer<boost::iostreams::basic_file_source<char>,std::char_traits<char>,std::allocator<char>,boost::iostreams::input>::stream_buffer<boost::iostreams::basic_file_source<char>,std::char_traits<char>,std::allocator<char>,boost::iostreams::input>
PUBLIC	??0?$auto_ptr@V?$stream_buffer@U?$basic_file_source@D@iostreams@boost@@U?$char_traits@D@std@@V?$allocator@D@5@Uinput@23@@iostreams@boost@@@std@@QAE@PAV?$stream_buffer@U?$basic_file_source@D@iostreams@boost@@U?$char_traits@D@std@@V?$allocator@D@5@Uinput@23@@iostreams@boost@@@Z ; std::auto_ptr<boost::iostreams::stream_buffer<boost::iostreams::basic_file_source<char>,std::char_traits<char>,std::allocator<char>,boost::iostreams::input> >::auto_ptr<boost::iostreams::stream_buffer<boost::iostreams::basic_file_source<char>,std::char_traits<char>,std::allocator<char>,boost::iostreams::input> >
PUBLIC	??1?$auto_ptr@V?$stream_buffer@U?$basic_file_source@D@iostreams@boost@@U?$char_traits@D@std@@V?$allocator@D@5@Uinput@23@@iostreams@boost@@@std@@QAE@XZ ; std::auto_ptr<boost::iostreams::stream_buffer<boost::iostreams::basic_file_source<char>,std::char_traits<char>,std::allocator<char>,boost::iostreams::input> >::~auto_ptr<boost::iostreams::stream_buffer<boost::iostreams::basic_file_source<char>,std::char_traits<char>,std::allocator<char>,boost::iostreams::input> >
PUBLIC	?get@?$auto_ptr@V?$stream_buffer@U?$basic_file_source@D@iostreams@boost@@U?$char_traits@D@std@@V?$allocator@D@5@Uinput@23@@iostreams@boost@@@std@@QBEPAV?$stream_buffer@U?$basic_file_source@D@iostreams@boost@@U?$char_traits@D@std@@V?$allocator@D@5@Uinput@23@@iostreams@boost@@XZ ; std::auto_ptr<boost::iostreams::stream_buffer<boost::iostreams::basic_file_source<char>,std::char_traits<char>,std::allocator<char>,boost::iostreams::input> >::get
PUBLIC	?release@?$auto_ptr@V?$stream_buffer@U?$basic_file_source@D@iostreams@boost@@U?$char_traits@D@std@@V?$allocator@D@5@Uinput@23@@iostreams@boost@@@std@@QAEPAV?$stream_buffer@U?$basic_file_source@D@iostreams@boost@@U?$char_traits@D@std@@V?$allocator@D@5@Uinput@23@@iostreams@boost@@XZ ; std::auto_ptr<boost::iostreams::stream_buffer<boost::iostreams::basic_file_source<char>,std::char_traits<char>,std::allocator<char>,boost::iostreams::input> >::release
PUBLIC	??$push_impl@U?$basic_file_source@D@iostreams@boost@@@?$chain_base@V?$chain@Uinput@iostreams@boost@@DU?$char_traits@D@std@@V?$allocator@D@5@@iostreams@boost@@DU?$char_traits@D@std@@V?$allocator@D@5@Uinput@23@@detail@iostreams@boost@@AAEXABU?$basic_file_source@D@23@HH@Z ; boost::iostreams::detail::chain_base<boost::iostreams::chain<boost::iostreams::input,char,std::char_traits<char>,std::allocator<char> >,char,std::char_traits<char>,std::allocator<char>,boost::iostreams::input>::push_impl<boost::iostreams::basic_file_source<char> >
PUBLIC	??$push@U?$basic_file_source@D@iostreams@boost@@@?$chain_base@V?$chain@Uinput@iostreams@boost@@DU?$char_traits@D@std@@V?$allocator@D@5@@iostreams@boost@@DU?$char_traits@D@std@@V?$allocator@D@5@Uinput@23@@detail@iostreams@boost@@QAEXABU?$basic_file_source@D@23@HHPAX@Z ; boost::iostreams::detail::chain_base<boost::iostreams::chain<boost::iostreams::input,char,std::char_traits<char>,std::allocator<char> >,char,std::char_traits<char>,std::allocator<char>,boost::iostreams::input>::push<boost::iostreams::basic_file_source<char> >
PUBLIC	??$push_impl@U?$basic_file_source@D@iostreams@boost@@@?$chain_client@V?$chain@Uinput@iostreams@boost@@DU?$char_traits@D@std@@V?$allocator@D@5@@iostreams@boost@@@detail@iostreams@boost@@IAEXABU?$basic_file_source@D@23@HH@Z ; boost::iostreams::detail::chain_client<boost::iostreams::chain<boost::iostreams::input,char,std::char_traits<char>,std::allocator<char> > >::push_impl<boost::iostreams::basic_file_source<char> >
PUBLIC	??$push@U?$basic_file_source@D@iostreams@boost@@@?$chain_client@V?$chain@Uinput@iostreams@boost@@DU?$char_traits@D@std@@V?$allocator@D@5@@iostreams@boost@@@detail@iostreams@boost@@QAEXABU?$basic_file_source@D@23@HHPAX@Z ; boost::iostreams::detail::chain_client<boost::iostreams::chain<boost::iostreams::input,char,std::char_traits<char>,std::allocator<char> > >::push<boost::iostreams::basic_file_source<char> >
PUBLIC	?clear@ios_base@std@@QAEXH@Z			; std::ios_base::clear
PUBLIC	?_Init@ios_base@std@@IAEXXZ			; std::ios_base::_Init
PUBLIC	?widen@?$ctype@D@std@@QBEDD@Z			; std::ctype<char>::widen
PUBLIC	?widen@?$basic_ios@DU?$char_traits@D@std@@@std@@QBEDD@Z ; std::basic_ios<char,std::char_traits<char> >::widen
PUBLIC	?init@?$basic_ios@DU?$char_traits@D@std@@@std@@IAEXPAV?$basic_streambuf@DU?$char_traits@D@std@@@2@_N@Z ; std::basic_ios<char,std::char_traits<char> >::init
PUBLIC	??0ios_base@std@@IAE@XZ				; std::ios_base::ios_base
PUBLIC	??0?$basic_ios@DU?$char_traits@D@std@@@std@@IAE@XZ ; std::basic_ios<char,std::char_traits<char> >::basic_ios<char,std::char_traits<char> >
PUBLIC	??0?$basic_istream@DU?$char_traits@D@std@@@std@@QAE@PAV?$basic_streambuf@DU?$char_traits@D@std@@@1@_N@Z ; std::basic_istream<char,std::char_traits<char> >::basic_istream<char,std::char_traits<char> >
PUBLIC	??0?$allocator@PAV?$linked_streambuf@DU?$char_traits@D@std@@@detail@iostreams@boost@@@std@@QAE@XZ ; std::allocator<boost::iostreams::detail::linked_streambuf<char,std::char_traits<char> > *>::allocator<boost::iostreams::detail::linked_streambuf<char,std::char_traits<char> > *>
PUBLIC	??$?0PAV?$linked_streambuf@DU?$char_traits@D@std@@@detail@iostreams@boost@@@?$allocator@V_Aux_cont@std@@@std@@QAE@ABV?$allocator@PAV?$linked_streambuf@DU?$char_traits@D@std@@@detail@iostreams@boost@@@1@@Z ; std::allocator<std::_Aux_cont>::allocator<std::_Aux_cont><boost::iostreams::detail::linked_streambuf<char,std::char_traits<char> > *>
PUBLIC	??0?$_Container_base_aux_alloc_real@V?$allocator@PAV?$linked_streambuf@DU?$char_traits@D@std@@@detail@iostreams@boost@@@std@@@std@@IAE@V?$allocator@PAV?$linked_streambuf@DU?$char_traits@D@std@@@detail@iostreams@boost@@@1@@Z ; std::_Container_base_aux_alloc_real<std::allocator<boost::iostreams::detail::linked_streambuf<char,std::char_traits<char> > *> >::_Container_base_aux_alloc_real<std::allocator<boost::iostreams::detail::linked_streambuf<char,std::char_traits<char> > *> >
PUBLIC	??0?$allocator@PAV?$linked_streambuf@DU?$char_traits@D@std@@@detail@iostreams@boost@@@std@@QAE@ABV01@@Z ; std::allocator<boost::iostreams::detail::linked_streambuf<char,std::char_traits<char> > *>::allocator<boost::iostreams::detail::linked_streambuf<char,std::char_traits<char> > *>
PUBLIC	??$?0PAV?$linked_streambuf@DU?$char_traits@D@std@@@detail@iostreams@boost@@@?$allocator@U_Node@?$_List_nod@PAV?$linked_streambuf@DU?$char_traits@D@std@@@detail@iostreams@boost@@V?$allocator@PAV?$linked_streambuf@DU?$char_traits@D@std@@@detail@iostreams@boost@@@std@@@std@@@std@@QAE@ABV?$allocator@PAV?$linked_streambuf@DU?$char_traits@D@std@@@detail@iostreams@boost@@@1@@Z ; std::allocator<std::_List_nod<boost::iostreams::detail::linked_streambuf<char,std::char_traits<char> > *,std::allocator<boost::iostreams::detail::linked_streambuf<char,std::char_traits<char> > *> >::_Node>::allocator<std::_List_nod<boost::iostreams::detail::linked_streambuf<char,std::char_traits<char> > *,std::allocator<boost::iostreams::detail::linked_streambuf<char,std::char_traits<char> > *> >::_Node><boost::iostreams::detail::linked_streambuf<char,std::char_traits<char> > *>
PUBLIC	??0?$_List_nod@PAV?$linked_streambuf@DU?$char_traits@D@std@@@detail@iostreams@boost@@V?$allocator@PAV?$linked_streambuf@DU?$char_traits@D@std@@@detail@iostreams@boost@@@std@@@std@@IAE@V?$allocator@PAV?$linked_streambuf@DU?$char_traits@D@std@@@detail@iostreams@boost@@@1@@Z ; std::_List_nod<boost::iostreams::detail::linked_streambuf<char,std::char_traits<char> > *,std::allocator<boost::iostreams::detail::linked_streambuf<char,std::char_traits<char> > *> >::_List_nod<boost::iostreams::detail::linked_streambuf<char,std::char_traits<char> > *,std::allocator<boost::iostreams::detail::linked_streambuf<char,std::char_traits<char> > *> >
PUBLIC	??$?0PAV?$linked_streambuf@DU?$char_traits@D@std@@@detail@iostreams@boost@@@?$allocator@PAU_Node@?$_List_nod@PAV?$linked_streambuf@DU?$char_traits@D@std@@@detail@iostreams@boost@@V?$allocator@PAV?$linked_streambuf@DU?$char_traits@D@std@@@detail@iostreams@boost@@@std@@@std@@@std@@QAE@ABV?$allocator@PAV?$linked_streambuf@DU?$char_traits@D@std@@@detail@iostreams@boost@@@1@@Z ; std::allocator<std::_List_nod<boost::iostreams::detail::linked_streambuf<char,std::char_traits<char> > *,std::allocator<boost::iostreams::detail::linked_streambuf<char,std::char_traits<char> > *> >::_Node *>::allocator<std::_List_nod<boost::iostreams::detail::linked_streambuf<char,std::char_traits<char> > *,std::allocator<boost::iostreams::detail::linked_streambuf<char,std::char_traits<char> > *> >::_Node *><boost::iostreams::detail::linked_streambuf<char,std::char_traits<char> > *>
PUBLIC	??0?$_List_ptr@PAV?$linked_streambuf@DU?$char_traits@D@std@@@detail@iostreams@boost@@V?$allocator@PAV?$linked_streambuf@DU?$char_traits@D@std@@@detail@iostreams@boost@@@std@@@std@@IAE@V?$allocator@PAV?$linked_streambuf@DU?$char_traits@D@std@@@detail@iostreams@boost@@@1@@Z ; std::_List_ptr<boost::iostreams::detail::linked_streambuf<char,std::char_traits<char> > *,std::allocator<boost::iostreams::detail::linked_streambuf<char,std::char_traits<char> > *> >::_List_ptr<boost::iostreams::detail::linked_streambuf<char,std::char_traits<char> > *,std::allocator<boost::iostreams::detail::linked_streambuf<char,std::char_traits<char> > *> >
PUBLIC	??0?$_List_val@PAV?$linked_streambuf@DU?$char_traits@D@std@@@detail@iostreams@boost@@V?$allocator@PAV?$linked_streambuf@DU?$char_traits@D@std@@@detail@iostreams@boost@@@std@@@std@@QAE@V?$allocator@PAV?$linked_streambuf@DU?$char_traits@D@std@@@detail@iostreams@boost@@@1@@Z ; std::_List_val<boost::iostreams::detail::linked_streambuf<char,std::char_traits<char> > *,std::allocator<boost::iostreams::detail::linked_streambuf<char,std::char_traits<char> > *> >::_List_val<boost::iostreams::detail::linked_streambuf<char,std::char_traits<char> > *,std::allocator<boost::iostreams::detail::linked_streambuf<char,std::char_traits<char> > *> >
PUBLIC	??$_Allocate@U_Node@?$_List_nod@PAV?$linked_streambuf@DU?$char_traits@D@std@@@detail@iostreams@boost@@V?$allocator@PAV?$linked_streambuf@DU?$char_traits@D@std@@@detail@iostreams@boost@@@std@@@std@@@std@@YAPAU_Node@?$_List_nod@PAV?$linked_streambuf@DU?$char_traits@D@std@@@detail@iostreams@boost@@V?$allocator@PAV?$linked_streambuf@DU?$char_traits@D@std@@@detail@iostreams@boost@@@std@@@0@IPAU120@@Z ; std::_Allocate<std::_List_nod<boost::iostreams::detail::linked_streambuf<char,std::char_traits<char> > *,std::allocator<boost::iostreams::detail::linked_streambuf<char,std::char_traits<char> > *> >::_Node>
PUBLIC	?allocate@?$allocator@U_Node@?$_List_nod@PAV?$linked_streambuf@DU?$char_traits@D@std@@@detail@iostreams@boost@@V?$allocator@PAV?$linked_streambuf@DU?$char_traits@D@std@@@detail@iostreams@boost@@@std@@@std@@@std@@QAEPAU_Node@?$_List_nod@PAV?$linked_streambuf@DU?$char_traits@D@std@@@detail@iostreams@boost@@V?$allocator@PAV?$linked_streambuf@DU?$char_traits@D@std@@@detail@iostreams@boost@@@std@@@2@I@Z ; std::allocator<std::_List_nod<boost::iostreams::detail::linked_streambuf<char,std::char_traits<char> > *,std::allocator<boost::iostreams::detail::linked_streambuf<char,std::char_traits<char> > *> >::_Node>::allocate
PUBLIC	??$_Construct@PAU_Node@?$_List_nod@PAV?$linked_streambuf@DU?$char_traits@D@std@@@detail@iostreams@boost@@V?$allocator@PAV?$linked_streambuf@DU?$char_traits@D@std@@@detail@iostreams@boost@@@std@@@std@@PAU123@@std@@YAXPAPAU_Node@?$_List_nod@PAV?$linked_streambuf@DU?$char_traits@D@std@@@detail@iostreams@boost@@V?$allocator@PAV?$linked_streambuf@DU?$char_traits@D@std@@@detail@iostreams@boost@@@std@@@0@ABQAU120@@Z ; std::_Construct<std::_List_nod<boost::iostreams::detail::linked_streambuf<char,std::char_traits<char> > *,std::allocator<boost::iostreams::detail::linked_streambuf<char,std::char_traits<char> > *> >::_Node *,std::_List_nod<boost::iostreams::detail::linked_streambuf<char,std::char_traits<char> > *,std::allocator<boost::iostreams::detail::linked_streambuf<char,std::char_traits<char> > *> >::_Node *>
PUBLIC	?construct@?$allocator@PAU_Node@?$_List_nod@PAV?$linked_streambuf@DU?$char_traits@D@std@@@detail@iostreams@boost@@V?$allocator@PAV?$linked_streambuf@DU?$char_traits@D@std@@@detail@iostreams@boost@@@std@@@std@@@std@@QAEXPAPAU_Node@?$_List_nod@PAV?$linked_streambuf@DU?$char_traits@D@std@@@detail@iostreams@boost@@V?$allocator@PAV?$linked_streambuf@DU?$char_traits@D@std@@@detail@iostreams@boost@@@std@@@2@ABQAU342@@Z ; std::allocator<std::_List_nod<boost::iostreams::detail::linked_streambuf<char,std::char_traits<char> > *,std::allocator<boost::iostreams::detail::linked_streambuf<char,std::char_traits<char> > *> >::_Node *>::construct
PUBLIC	?_Buynode@?$list@PAV?$linked_streambuf@DU?$char_traits@D@std@@@detail@iostreams@boost@@V?$allocator@PAV?$linked_streambuf@DU?$char_traits@D@std@@@detail@iostreams@boost@@@std@@@std@@IAEPAU_Node@?$_List_nod@PAV?$linked_streambuf@DU?$char_traits@D@std@@@detail@iostreams@boost@@V?$allocator@PAV?$linked_streambuf@DU?$char_traits@D@std@@@detail@iostreams@boost@@@std@@@2@XZ ; std::list<boost::iostreams::detail::linked_streambuf<char,std::char_traits<char> > *,std::allocator<boost::iostreams::detail::linked_streambuf<char,std::char_traits<char> > *> >::_Buynode
PUBLIC	??0?$list@PAV?$linked_streambuf@DU?$char_traits@D@std@@@detail@iostreams@boost@@V?$allocator@PAV?$linked_streambuf@DU?$char_traits@D@std@@@detail@iostreams@boost@@@std@@@std@@QAE@XZ ; std::list<boost::iostreams::detail::linked_streambuf<char,std::char_traits<char> > *,std::allocator<boost::iostreams::detail::linked_streambuf<char,std::char_traits<char> > *> >::list<boost::iostreams::detail::linked_streambuf<char,std::char_traits<char> > *,std::allocator<boost::iostreams::detail::linked_streambuf<char,std::char_traits<char> > *> >
PUBLIC	??0chain_impl@?$chain_base@V?$chain@Uinput@iostreams@boost@@DU?$char_traits@D@std@@V?$allocator@D@5@@iostreams@boost@@DU?$char_traits@D@std@@V?$allocator@D@5@Uinput@23@@detail@iostreams@boost@@QAE@XZ ; boost::iostreams::detail::chain_base<boost::iostreams::chain<boost::iostreams::input,char,std::char_traits<char>,std::allocator<char> >,char,std::char_traits<char>,std::allocator<char>,boost::iostreams::input>::chain_impl::chain_impl
PUBLIC	?sp_enable_shared_from_this@detail@boost@@YAXZZ	; boost::detail::sp_enable_shared_from_this
PUBLIC	??0sp_counted_base@detail@boost@@QAE@XZ		; boost::detail::sp_counted_base::sp_counted_base
PUBLIC	?dispose@?$sp_counted_impl_p@Uchain_impl@?$chain_base@V?$chain@Uinput@iostreams@boost@@DU?$char_traits@D@std@@V?$allocator@D@5@@iostreams@boost@@DU?$char_traits@D@std@@V?$allocator@D@5@Uinput@23@@detail@iostreams@boost@@@detail@boost@@UAEXXZ ; boost::detail::sp_counted_impl_p<boost::iostreams::detail::chain_base<boost::iostreams::chain<boost::iostreams::input,char,std::char_traits<char>,std::allocator<char> >,char,std::char_traits<char>,std::allocator<char>,boost::iostreams::input>::chain_impl>::dispose
PUBLIC	?get_deleter@?$sp_counted_impl_p@Uchain_impl@?$chain_base@V?$chain@Uinput@iostreams@boost@@DU?$char_traits@D@std@@V?$allocator@D@5@@iostreams@boost@@DU?$char_traits@D@std@@V?$allocator@D@5@Uinput@23@@detail@iostreams@boost@@@detail@boost@@UAEPAXABVtype_info@@@Z ; boost::detail::sp_counted_impl_p<boost::iostreams::detail::chain_base<boost::iostreams::chain<boost::iostreams::input,char,std::char_traits<char>,std::allocator<char> >,char,std::char_traits<char>,std::allocator<char>,boost::iostreams::input>::chain_impl>::get_deleter
PUBLIC	?destroy@sp_counted_base@detail@boost@@UAEXXZ	; boost::detail::sp_counted_base::destroy
PUBLIC	??_Gsp_counted_base@detail@boost@@UAEPAXI@Z	; boost::detail::sp_counted_base::`scalar deleting destructor'
PUBLIC	??1sp_counted_base@detail@boost@@UAE@XZ		; boost::detail::sp_counted_base::~sp_counted_base
PUBLIC	??1?$sp_counted_impl_p@Uchain_impl@?$chain_base@V?$chain@Uinput@iostreams@boost@@DU?$char_traits@D@std@@V?$allocator@D@5@@iostreams@boost@@DU?$char_traits@D@std@@V?$allocator@D@5@Uinput@23@@detail@iostreams@boost@@@detail@boost@@UAE@XZ ; boost::detail::sp_counted_impl_p<boost::iostreams::detail::chain_base<boost::iostreams::chain<boost::iostreams::input,char,std::char_traits<char>,std::allocator<char> >,char,std::char_traits<char>,std::allocator<char>,boost::iostreams::input>::chain_impl>::~sp_counted_impl_p<boost::iostreams::detail::chain_base<boost::iostreams::chain<boost::iostreams::input,char,std::char_traits<char>,std::allocator<char> >,char,std::char_traits<char>,std::allocator<char>,boost::iostreams::input>::chain_impl>
PUBLIC	??_G?$sp_counted_impl_p@Uchain_impl@?$chain_base@V?$chain@Uinput@iostreams@boost@@DU?$char_traits@D@std@@V?$allocator@D@5@@iostreams@boost@@DU?$char_traits@D@std@@V?$allocator@D@5@Uinput@23@@detail@iostreams@boost@@@detail@boost@@UAEPAXI@Z ; boost::detail::sp_counted_impl_p<boost::iostreams::detail::chain_base<boost::iostreams::chain<boost::iostreams::input,char,std::char_traits<char>,std::allocator<char> >,char,std::char_traits<char>,std::allocator<char>,boost::iostreams::input>::chain_impl>::`scalar deleting destructor'
PUBLIC	??0?$sp_counted_impl_p@Uchain_impl@?$chain_base@V?$chain@Uinput@iostreams@boost@@DU?$char_traits@D@std@@V?$allocator@D@5@@iostreams@boost@@DU?$char_traits@D@std@@V?$allocator@D@5@Uinput@23@@detail@iostreams@boost@@@detail@boost@@QAE@PAUchain_impl@?$chain_base@V?$chain@Uinput@iostreams@boost@@DU?$char_traits@D@std@@V?$allocator@D@5@@iostreams@boost@@DU?$char_traits@D@std@@V?$allocator@D@5@Uinput@23@@1iostreams@2@@Z ; boost::detail::sp_counted_impl_p<boost::iostreams::detail::chain_base<boost::iostreams::chain<boost::iostreams::input,char,std::char_traits<char>,std::allocator<char> >,char,std::char_traits<char>,std::allocator<char>,boost::iostreams::input>::chain_impl>::sp_counted_impl_p<boost::iostreams::detail::chain_base<boost::iostreams::chain<boost::iostreams::input,char,std::char_traits<char>,std::allocator<char> >,char,std::char_traits<char>,std::allocator<char>,boost::iostreams::input>::chain_impl>
PUBLIC	??1?$_Container_base_aux_alloc_real@V?$allocator@PAV?$linked_streambuf@DU?$char_traits@D@std@@@detail@iostreams@boost@@@std@@@std@@IAE@XZ ; std::_Container_base_aux_alloc_real<std::allocator<boost::iostreams::detail::linked_streambuf<char,std::char_traits<char> > *> >::~_Container_base_aux_alloc_real<std::allocator<boost::iostreams::detail::linked_streambuf<char,std::char_traits<char> > *> >
PUBLIC	??1?$_List_nod@PAV?$linked_streambuf@DU?$char_traits@D@std@@@detail@iostreams@boost@@V?$allocator@PAV?$linked_streambuf@DU?$char_traits@D@std@@@detail@iostreams@boost@@@std@@@std@@QAE@XZ ; std::_List_nod<boost::iostreams::detail::linked_streambuf<char,std::char_traits<char> > *,std::allocator<boost::iostreams::detail::linked_streambuf<char,std::char_traits<char> > *> >::~_List_nod<boost::iostreams::detail::linked_streambuf<char,std::char_traits<char> > *,std::allocator<boost::iostreams::detail::linked_streambuf<char,std::char_traits<char> > *> >
PUBLIC	??1?$_List_ptr@PAV?$linked_streambuf@DU?$char_traits@D@std@@@detail@iostreams@boost@@V?$allocator@PAV?$linked_streambuf@DU?$char_traits@D@std@@@detail@iostreams@boost@@@std@@@std@@QAE@XZ ; std::_List_ptr<boost::iostreams::detail::linked_streambuf<char,std::char_traits<char> > *,std::allocator<boost::iostreams::detail::linked_streambuf<char,std::char_traits<char> > *> >::~_List_ptr<boost::iostreams::detail::linked_streambuf<char,std::char_traits<char> > *,std::allocator<boost::iostreams::detail::linked_streambuf<char,std::char_traits<char> > *> >
PUBLIC	??1?$_List_val@PAV?$linked_streambuf@DU?$char_traits@D@std@@@detail@iostreams@boost@@V?$allocator@PAV?$linked_streambuf@DU?$char_traits@D@std@@@detail@iostreams@boost@@@std@@@std@@QAE@XZ ; std::_List_val<boost::iostreams::detail::linked_streambuf<char,std::char_traits<char> > *,std::allocator<boost::iostreams::detail::linked_streambuf<char,std::char_traits<char> > *> >::~_List_val<boost::iostreams::detail::linked_streambuf<char,std::char_traits<char> > *,std::allocator<boost::iostreams::detail::linked_streambuf<char,std::char_traits<char> > *> >
PUBLIC	??$_Destroy@PAU_Node@?$_List_nod@PAV?$linked_streambuf@DU?$char_traits@D@std@@@detail@iostreams@boost@@V?$allocator@PAV?$linked_streambuf@DU?$char_traits@D@std@@@detail@iostreams@boost@@@std@@@std@@@std@@YAXPAPAU_Node@?$_List_nod@PAV?$linked_streambuf@DU?$char_traits@D@std@@@detail@iostreams@boost@@V?$allocator@PAV?$linked_streambuf@DU?$char_traits@D@std@@@detail@iostreams@boost@@@std@@@0@@Z ; std::_Destroy<std::_List_nod<boost::iostreams::detail::linked_streambuf<char,std::char_traits<char> > *,std::allocator<boost::iostreams::detail::linked_streambuf<char,std::char_traits<char> > *> >::_Node *>
PUBLIC	?destroy@?$allocator@PAU_Node@?$_List_nod@PAV?$linked_streambuf@DU?$char_traits@D@std@@@detail@iostreams@boost@@V?$allocator@PAV?$linked_streambuf@DU?$char_traits@D@std@@@detail@iostreams@boost@@@std@@@std@@@std@@QAEXPAPAU_Node@?$_List_nod@PAV?$linked_streambuf@DU?$char_traits@D@std@@@detail@iostreams@boost@@V?$allocator@PAV?$linked_streambuf@DU?$char_traits@D@std@@@detail@iostreams@boost@@@std@@@2@@Z ; std::allocator<std::_List_nod<boost::iostreams::detail::linked_streambuf<char,std::char_traits<char> > *,std::allocator<boost::iostreams::detail::linked_streambuf<char,std::char_traits<char> > *> >::_Node *>::destroy
PUBLIC	?_Tidy@?$list@PAV?$linked_streambuf@DU?$char_traits@D@std@@@detail@iostreams@boost@@V?$allocator@PAV?$linked_streambuf@DU?$char_traits@D@std@@@detail@iostreams@boost@@@std@@@std@@IAEXXZ ; std::list<boost::iostreams::detail::linked_streambuf<char,std::char_traits<char> > *,std::allocator<boost::iostreams::detail::linked_streambuf<char,std::char_traits<char> > *> >::_Tidy
PUBLIC	??1?$list@PAV?$linked_streambuf@DU?$char_traits@D@std@@@detail@iostreams@boost@@V?$allocator@PAV?$linked_streambuf@DU?$char_traits@D@std@@@detail@iostreams@boost@@@std@@@std@@QAE@XZ ; std::list<boost::iostreams::detail::linked_streambuf<char,std::char_traits<char> > *,std::allocator<boost::iostreams::detail::linked_streambuf<char,std::char_traits<char> > *> >::~list<boost::iostreams::detail::linked_streambuf<char,std::char_traits<char> > *,std::allocator<boost::iostreams::detail::linked_streambuf<char,std::char_traits<char> > *> >
PUBLIC	?clear@?$list@PAV?$linked_streambuf@DU?$char_traits@D@std@@@detail@iostreams@boost@@V?$allocator@PAV?$linked_streambuf@DU?$char_traits@D@std@@@detail@iostreams@boost@@@std@@@std@@QAEXXZ ; std::list<boost::iostreams::detail::linked_streambuf<char,std::char_traits<char> > *,std::allocator<boost::iostreams::detail::linked_streambuf<char,std::char_traits<char> > *> >::clear
PUBLIC	?set_auto_close@?$chain_base@V?$chain@Uinput@iostreams@boost@@DU?$char_traits@D@std@@V?$allocator@D@5@@iostreams@boost@@DU?$char_traits@D@std@@V?$allocator@D@5@Uinput@23@@detail@iostreams@boost@@CAXPAV?$linked_streambuf@DU?$char_traits@D@std@@@234@_N@Z ; boost::iostreams::detail::chain_base<boost::iostreams::chain<boost::iostreams::input,char,std::char_traits<char>,std::allocator<char> >,char,std::char_traits<char>,std::allocator<char>,boost::iostreams::input>::set_auto_close
PUBLIC	??9?$_Const_iterator@$00@?$list@PAV?$linked_streambuf@DU?$char_traits@D@std@@@detail@iostreams@boost@@V?$allocator@PAV?$linked_streambuf@DU?$char_traits@D@std@@@detail@iostreams@boost@@@std@@@std@@QBE_NABV012@@Z ; std::list<boost::iostreams::detail::linked_streambuf<char,std::char_traits<char> > *,std::allocator<boost::iostreams::detail::linked_streambuf<char,std::char_traits<char> > *> >::_Const_iterator<1>::operator!=
PUBLIC	?reset@chain_impl@?$chain_base@V?$chain@Uinput@iostreams@boost@@DU?$char_traits@D@std@@V?$allocator@D@5@@iostreams@boost@@DU?$char_traits@D@std@@V?$allocator@D@5@Uinput@23@@detail@iostreams@boost@@QAEXXZ ; boost::iostreams::detail::chain_base<boost::iostreams::chain<boost::iostreams::input,char,std::char_traits<char>,std::allocator<char> >,char,std::char_traits<char>,std::allocator<char>,boost::iostreams::input>::chain_impl::reset
PUBLIC	??1chain_impl@?$chain_base@V?$chain@Uinput@iostreams@boost@@DU?$char_traits@D@std@@V?$allocator@D@5@@iostreams@boost@@DU?$char_traits@D@std@@V?$allocator@D@5@Uinput@23@@detail@iostreams@boost@@QAE@XZ ; boost::iostreams::detail::chain_base<boost::iostreams::chain<boost::iostreams::input,char,std::char_traits<char>,std::allocator<char> >,char,std::char_traits<char>,std::allocator<char>,boost::iostreams::input>::chain_impl::~chain_impl
PUBLIC	??_Gchain_impl@?$chain_base@V?$chain@Uinput@iostreams@boost@@DU?$char_traits@D@std@@V?$allocator@D@5@@iostreams@boost@@DU?$char_traits@D@std@@V?$allocator@D@5@Uinput@23@@detail@iostreams@boost@@QAEPAXI@Z ; boost::iostreams::detail::chain_base<boost::iostreams::chain<boost::iostreams::input,char,std::char_traits<char>,std::allocator<char> >,char,std::char_traits<char>,std::allocator<char>,boost::iostreams::input>::chain_impl::`scalar deleting destructor'
PUBLIC	??$checked_delete@Uchain_impl@?$chain_base@V?$chain@Uinput@iostreams@boost@@DU?$char_traits@D@std@@V?$allocator@D@5@@iostreams@boost@@DU?$char_traits@D@std@@V?$allocator@D@5@Uinput@23@@detail@iostreams@boost@@@boost@@YAXPAUchain_impl@?$chain_base@V?$chain@Uinput@iostreams@boost@@DU?$char_traits@D@std@@V?$allocator@D@5@@iostreams@boost@@DU?$char_traits@D@std@@V?$allocator@D@5@Uinput@23@@detail@iostreams@0@@Z ; boost::checked_delete<boost::iostreams::detail::chain_base<boost::iostreams::chain<boost::iostreams::input,char,std::char_traits<char>,std::allocator<char> >,char,std::char_traits<char>,std::allocator<char>,boost::iostreams::input>::chain_impl>
PUBLIC	??$?0Uchain_impl@?$chain_base@V?$chain@Uinput@iostreams@boost@@DU?$char_traits@D@std@@V?$allocator@D@5@@iostreams@boost@@DU?$char_traits@D@std@@V?$allocator@D@5@Uinput@23@@detail@iostreams@boost@@@shared_count@detail@boost@@QAE@PAUchain_impl@?$chain_base@V?$chain@Uinput@iostreams@boost@@DU?$char_traits@D@std@@V?$allocator@D@5@@iostreams@boost@@DU?$char_traits@D@std@@V?$allocator@D@5@Uinput@23@@1iostreams@2@@Z ; boost::detail::shared_count::shared_count<boost::iostreams::detail::chain_base<boost::iostreams::chain<boost::iostreams::input,char,std::char_traits<char>,std::allocator<char> >,char,std::char_traits<char>,std::allocator<char>,boost::iostreams::input>::chain_impl>
PUBLIC	??$?0Uchain_impl@?$chain_base@V?$chain@Uinput@iostreams@boost@@DU?$char_traits@D@std@@V?$allocator@D@5@@iostreams@boost@@DU?$char_traits@D@std@@V?$allocator@D@5@Uinput@23@@detail@iostreams@boost@@@?$shared_ptr@Uchain_impl@?$chain_base@V?$chain@Uinput@iostreams@boost@@DU?$char_traits@D@std@@V?$allocator@D@5@@iostreams@boost@@DU?$char_traits@D@std@@V?$allocator@D@5@Uinput@23@@detail@iostreams@boost@@@boost@@QAE@PAUchain_impl@?$chain_base@V?$chain@Uinput@iostreams@boost@@DU?$char_traits@D@std@@V?$allocator@D@5@@iostreams@boost@@DU?$char_traits@D@std@@V?$allocator@D@5@Uinput@23@@detail@iostreams@1@@Z ; boost::shared_ptr<boost::iostreams::detail::chain_base<boost::iostreams::chain<boost::iostreams::input,char,std::char_traits<char>,std::allocator<char> >,char,std::char_traits<char>,std::allocator<char>,boost::iostreams::input>::chain_impl>::shared_ptr<boost::iostreams::detail::chain_base<boost::iostreams::chain<boost::iostreams::input,char,std::char_traits<char>,std::allocator<char> >,char,std::char_traits<char>,std::allocator<char>,boost::iostreams::input>::chain_impl><boost::iostreams::detail::chain_base<boost::iostreams::chain<boost::iostreams::input,char,std::char_traits<char>,std::allocator<char> >,char,std::char_traits<char>,std::allocator<char>,boost::iostreams::input>::chain_impl>
PUBLIC	??0?$chain_base@V?$chain@Uinput@iostreams@boost@@DU?$char_traits@D@std@@V?$allocator@D@5@@iostreams@boost@@DU?$char_traits@D@std@@V?$allocator@D@5@Uinput@23@@detail@iostreams@boost@@IAE@XZ ; boost::iostreams::detail::chain_base<boost::iostreams::chain<boost::iostreams::input,char,std::char_traits<char>,std::allocator<char> >,char,std::char_traits<char>,std::allocator<char>,boost::iostreams::input>::chain_base<boost::iostreams::chain<boost::iostreams::input,char,std::char_traits<char>,std::allocator<char> >,char,std::char_traits<char>,std::allocator<char>,boost::iostreams::input>
PUBLIC	??0?$chain@Uinput@iostreams@boost@@DU?$char_traits@D@std@@V?$allocator@D@5@@iostreams@boost@@QAE@XZ ; boost::iostreams::chain<boost::iostreams::input,char,std::char_traits<char>,std::allocator<char> >::chain<boost::iostreams::input,char,std::char_traits<char>,std::allocator<char> >
PUBLIC	?register_client@?$chain_base@V?$chain@Uinput@iostreams@boost@@DU?$char_traits@D@std@@V?$allocator@D@5@@iostreams@boost@@DU?$char_traits@D@std@@V?$allocator@D@5@Uinput@23@@detail@iostreams@boost@@AAEXPAV?$chain_client@V?$chain@Uinput@iostreams@boost@@DU?$char_traits@D@std@@V?$allocator@D@5@@iostreams@boost@@@234@@Z ; boost::iostreams::detail::chain_base<boost::iostreams::chain<boost::iostreams::input,char,std::char_traits<char>,std::allocator<char> >,char,std::char_traits<char>,std::allocator<char>,boost::iostreams::input>::register_client
PUBLIC	?set_chain@?$chain_client@V?$chain@Uinput@iostreams@boost@@DU?$char_traits@D@std@@V?$allocator@D@5@@iostreams@boost@@@detail@iostreams@boost@@IAEXPAV?$chain@Uinput@iostreams@boost@@DU?$char_traits@D@std@@V?$allocator@D@5@@34@@Z ; boost::iostreams::detail::chain_client<boost::iostreams::chain<boost::iostreams::input,char,std::char_traits<char>,std::allocator<char> > >::set_chain
PUBLIC	??0?$chain_client@V?$chain@Uinput@iostreams@boost@@DU?$char_traits@D@std@@V?$allocator@D@5@@iostreams@boost@@@detail@iostreams@boost@@QAE@PAV?$chain@Uinput@iostreams@boost@@DU?$char_traits@D@std@@V?$allocator@D@5@@23@@Z ; boost::iostreams::detail::chain_client<boost::iostreams::chain<boost::iostreams::input,char,std::char_traits<char>,std::allocator<char> > >::chain_client<boost::iostreams::chain<boost::iostreams::input,char,std::char_traits<char>,std::allocator<char> > >
PUBLIC	??_G?$pub_@V?$chain_client@V?$chain@Uinput@iostreams@boost@@DU?$char_traits@D@std@@V?$allocator@D@5@@iostreams@boost@@@detail@iostreams@boost@@@detail@iostreams@boost@@UAEPAXI@Z ; boost::iostreams::detail::pub_<boost::iostreams::detail::chain_client<boost::iostreams::chain<boost::iostreams::input,char,std::char_traits<char>,std::allocator<char> > > >::`scalar deleting destructor'
PUBLIC	??0?$pub_@V?$chain_client@V?$chain@Uinput@iostreams@boost@@DU?$char_traits@D@std@@V?$allocator@D@5@@iostreams@boost@@@detail@iostreams@boost@@@detail@iostreams@boost@@QAE@XZ ; boost::iostreams::detail::pub_<boost::iostreams::detail::chain_client<boost::iostreams::chain<boost::iostreams::input,char,std::char_traits<char>,std::allocator<char> > > >::pub_<boost::iostreams::detail::chain_client<boost::iostreams::chain<boost::iostreams::input,char,std::char_traits<char>,std::allocator<char> > > >
PUBLIC	??_G?$access_control@V?$chain_client@V?$chain@Uinput@iostreams@boost@@DU?$char_traits@D@std@@V?$allocator@D@5@@iostreams@boost@@@detail@iostreams@boost@@Upublic_@34@U?$pub_@V?$chain_client@V?$chain@Uinput@iostreams@boost@@DU?$char_traits@D@std@@V?$allocator@D@5@@iostreams@boost@@@detail@iostreams@boost@@@234@@iostreams@boost@@UAEPAXI@Z ; boost::iostreams::access_control<boost::iostreams::detail::chain_client<boost::iostreams::chain<boost::iostreams::input,char,std::char_traits<char>,std::allocator<char> > >,boost::iostreams::public_,boost::iostreams::detail::pub_<boost::iostreams::detail::chain_client<boost::iostreams::chain<boost::iostreams::input,char,std::char_traits<char>,std::allocator<char> > > > >::`scalar deleting destructor'
PUBLIC	??0?$access_control@V?$chain_client@V?$chain@Uinput@iostreams@boost@@DU?$char_traits@D@std@@V?$allocator@D@5@@iostreams@boost@@@detail@iostreams@boost@@Upublic_@34@U?$pub_@V?$chain_client@V?$chain@Uinput@iostreams@boost@@DU?$char_traits@D@std@@V?$allocator@D@5@@iostreams@boost@@@detail@iostreams@boost@@@234@@iostreams@boost@@QAE@XZ ; boost::iostreams::access_control<boost::iostreams::detail::chain_client<boost::iostreams::chain<boost::iostreams::input,char,std::char_traits<char>,std::allocator<char> > >,boost::iostreams::public_,boost::iostreams::detail::pub_<boost::iostreams::detail::chain_client<boost::iostreams::chain<boost::iostreams::input,char,std::char_traits<char>,std::allocator<char> > > > >::access_control<boost::iostreams::detail::chain_client<boost::iostreams::chain<boost::iostreams::input,char,std::char_traits<char>,std::allocator<char> > >,boost::iostreams::public_,boost::iostreams::detail::pub_<boost::iostreams::detail::chain_client<boost::iostreams::chain<boost::iostreams::input,char,std::char_traits<char>,std::allocator<char> > > > >
PUBLIC	??_D?$filtering_stream_base@V?$chain@Uinput@iostreams@boost@@DU?$char_traits@D@std@@V?$allocator@D@5@@iostreams@boost@@Upublic_@23@@detail@iostreams@boost@@QAEXXZ ; boost::iostreams::detail::filtering_stream_base<boost::iostreams::chain<boost::iostreams::input,char,std::char_traits<char>,std::allocator<char> >,boost::iostreams::public_>::`vbase destructor'
PUBLIC	??_G?$filtering_stream_base@V?$chain@Uinput@iostreams@boost@@DU?$char_traits@D@std@@V?$allocator@D@5@@iostreams@boost@@Upublic_@23@@detail@iostreams@boost@@UAEPAXI@Z ; boost::iostreams::detail::filtering_stream_base<boost::iostreams::chain<boost::iostreams::input,char,std::char_traits<char>,std::allocator<char> >,boost::iostreams::public_>::`scalar deleting destructor'
PUBLIC	??_E?$filtering_stream_base@V?$chain@Uinput@iostreams@boost@@DU?$char_traits@D@std@@V?$allocator@D@5@@iostreams@boost@@Upublic_@23@@detail@iostreams@boost@@WBI@AEPAXI@Z ; [thunk]:boost::iostreams::detail::filtering_stream_base<boost::iostreams::chain<boost::iostreams::input,char,std::char_traits<char>,std::allocator<char> >,boost::iostreams::public_>::`vector deleting destructor'
PUBLIC	??0?$filtering_stream_base@V?$chain@Uinput@iostreams@boost@@DU?$char_traits@D@std@@V?$allocator@D@5@@iostreams@boost@@Upublic_@23@@detail@iostreams@boost@@IAE@XZ ; boost::iostreams::detail::filtering_stream_base<boost::iostreams::chain<boost::iostreams::input,char,std::char_traits<char>,std::allocator<char> >,boost::iostreams::public_>::filtering_stream_base<boost::iostreams::chain<boost::iostreams::input,char,std::char_traits<char>,std::allocator<char> >,boost::iostreams::public_>
PUBLIC	??0?$filtering_stream@Uinput@iostreams@boost@@DU?$char_traits@D@std@@V?$allocator@D@5@Upublic_@23@@iostreams@boost@@QAE@XZ ; boost::iostreams::filtering_stream<boost::iostreams::input,char,std::char_traits<char>,std::allocator<char>,boost::iostreams::public_>::filtering_stream<boost::iostreams::input,char,std::char_traits<char>,std::allocator<char>,boost::iostreams::public_>
PUBLIC	??0?$normal_distribution@N@boost@@QAE@ABV01@@Z	; boost::normal_distribution<double>::normal_distribution<double>
PUBLIC	??0?$variate_generator@V?$mersenne_twister@K$0CA@$0CHA@$0BIN@$0BP@$0JJAILANP@$0L@$06$0JNCMFGIA@$0P@$0OPMGAAAA@$0BC@$0MHHGGGNO@@random@boost@@V?$normal_distribution@N@3@@boost@@QAE@ABV01@@Z ; boost::variate_generator<boost::random::mersenne_twister<unsigned long,32,624,397,31,2567483615,11,7,2636928640,15,4022730752,18,3346425566>,boost::normal_distribution<double> >::variate_generator<boost::random::mersenne_twister<unsigned long,32,624,397,31,2567483615,11,7,2636928640,15,4022730752,18,3346425566>,boost::normal_distribution<double> >
PUBLIC	??_Gios_base@std@@UAEPAXI@Z			; std::ios_base::`scalar deleting destructor'
PUBLIC	??1ios_base@std@@UAE@XZ				; std::ios_base::~ios_base
PUBLIC	??_G?$basic_ios@DU?$char_traits@D@std@@@std@@UAEPAXI@Z ; std::basic_ios<char,std::char_traits<char> >::`scalar deleting destructor'
PUBLIC	??1?$basic_ios@DU?$char_traits@D@std@@@std@@UAE@XZ ; std::basic_ios<char,std::char_traits<char> >::~basic_ios<char,std::char_traits<char> >
PUBLIC	??_D?$basic_istream@DU?$char_traits@D@std@@@std@@QAEXXZ ; std::basic_istream<char,std::char_traits<char> >::`vbase destructor'
PUBLIC	??_G?$basic_istream@DU?$char_traits@D@std@@@std@@UAEPAXI@Z ; std::basic_istream<char,std::char_traits<char> >::`scalar deleting destructor'
PUBLIC	??1?$basic_istream@DU?$char_traits@D@std@@@std@@UAE@XZ ; std::basic_istream<char,std::char_traits<char> >::~basic_istream<char,std::char_traits<char> >
PUBLIC	?weak_release@sp_counted_base@detail@boost@@QAEXXZ ; boost::detail::sp_counted_base::weak_release
PUBLIC	?release@sp_counted_base@detail@boost@@QAEXXZ	; boost::detail::sp_counted_base::release
PUBLIC	??1shared_count@detail@boost@@QAE@XZ		; boost::detail::shared_count::~shared_count
PUBLIC	??1?$shared_ptr@Uchain_impl@?$chain_base@V?$chain@Uinput@iostreams@boost@@DU?$char_traits@D@std@@V?$allocator@D@5@@iostreams@boost@@DU?$char_traits@D@std@@V?$allocator@D@5@Uinput@23@@detail@iostreams@boost@@@boost@@QAE@XZ ; boost::shared_ptr<boost::iostreams::detail::chain_base<boost::iostreams::chain<boost::iostreams::input,char,std::char_traits<char>,std::allocator<char> >,char,std::char_traits<char>,std::allocator<char>,boost::iostreams::input>::chain_impl>::~shared_ptr<boost::iostreams::detail::chain_base<boost::iostreams::chain<boost::iostreams::input,char,std::char_traits<char>,std::allocator<char> >,char,std::char_traits<char>,std::allocator<char>,boost::iostreams::input>::chain_impl>
PUBLIC	??1?$chain_base@V?$chain@Uinput@iostreams@boost@@DU?$char_traits@D@std@@V?$allocator@D@5@@iostreams@boost@@DU?$char_traits@D@std@@V?$allocator@D@5@Uinput@23@@detail@iostreams@boost@@QAE@XZ ; boost::iostreams::detail::chain_base<boost::iostreams::chain<boost::iostreams::input,char,std::char_traits<char>,std::allocator<char> >,char,std::char_traits<char>,std::allocator<char>,boost::iostreams::input>::~chain_base<boost::iostreams::chain<boost::iostreams::input,char,std::char_traits<char>,std::allocator<char> >,char,std::char_traits<char>,std::allocator<char>,boost::iostreams::input>
PUBLIC	??1?$chain@Uinput@iostreams@boost@@DU?$char_traits@D@std@@V?$allocator@D@5@@iostreams@boost@@QAE@XZ ; boost::iostreams::chain<boost::iostreams::input,char,std::char_traits<char>,std::allocator<char> >::~chain<boost::iostreams::input,char,std::char_traits<char>,std::allocator<char> >
PUBLIC	?notify@?$chain_client@V?$chain@Uinput@iostreams@boost@@DU?$char_traits@D@std@@V?$allocator@D@5@@iostreams@boost@@@detail@iostreams@boost@@MAEXXZ ; boost::iostreams::detail::chain_client<boost::iostreams::chain<boost::iostreams::input,char,std::char_traits<char>,std::allocator<char> > >::notify
PUBLIC	??_G?$chain_client@V?$chain@Uinput@iostreams@boost@@DU?$char_traits@D@std@@V?$allocator@D@5@@iostreams@boost@@@detail@iostreams@boost@@UAEPAXI@Z ; boost::iostreams::detail::chain_client<boost::iostreams::chain<boost::iostreams::input,char,std::char_traits<char>,std::allocator<char> > >::`scalar deleting destructor'
PUBLIC	??1?$chain_client@V?$chain@Uinput@iostreams@boost@@DU?$char_traits@D@std@@V?$allocator@D@5@@iostreams@boost@@@detail@iostreams@boost@@UAE@XZ ; boost::iostreams::detail::chain_client<boost::iostreams::chain<boost::iostreams::input,char,std::char_traits<char>,std::allocator<char> > >::~chain_client<boost::iostreams::chain<boost::iostreams::input,char,std::char_traits<char>,std::allocator<char> > >
PUBLIC	??1?$pub_@V?$chain_client@V?$chain@Uinput@iostreams@boost@@DU?$char_traits@D@std@@V?$allocator@D@5@@iostreams@boost@@@detail@iostreams@boost@@@detail@iostreams@boost@@UAE@XZ ; boost::iostreams::detail::pub_<boost::iostreams::detail::chain_client<boost::iostreams::chain<boost::iostreams::input,char,std::char_traits<char>,std::allocator<char> > > >::~pub_<boost::iostreams::detail::chain_client<boost::iostreams::chain<boost::iostreams::input,char,std::char_traits<char>,std::allocator<char> > > >
PUBLIC	??1?$access_control@V?$chain_client@V?$chain@Uinput@iostreams@boost@@DU?$char_traits@D@std@@V?$allocator@D@5@@iostreams@boost@@@detail@iostreams@boost@@Upublic_@34@U?$pub_@V?$chain_client@V?$chain@Uinput@iostreams@boost@@DU?$char_traits@D@std@@V?$allocator@D@5@@iostreams@boost@@@detail@iostreams@boost@@@234@@iostreams@boost@@UAE@XZ ; boost::iostreams::access_control<boost::iostreams::detail::chain_client<boost::iostreams::chain<boost::iostreams::input,char,std::char_traits<char>,std::allocator<char> > >,boost::iostreams::public_,boost::iostreams::detail::pub_<boost::iostreams::detail::chain_client<boost::iostreams::chain<boost::iostreams::input,char,std::char_traits<char>,std::allocator<char> > > > >::~access_control<boost::iostreams::detail::chain_client<boost::iostreams::chain<boost::iostreams::input,char,std::char_traits<char>,std::allocator<char> > >,boost::iostreams::public_,boost::iostreams::detail::pub_<boost::iostreams::detail::chain_client<boost::iostreams::chain<boost::iostreams::input,char,std::char_traits<char>,std::allocator<char> > > > >
PUBLIC	??1?$filtering_stream_base@V?$chain@Uinput@iostreams@boost@@DU?$char_traits@D@std@@V?$allocator@D@5@@iostreams@boost@@Upublic_@23@@detail@iostreams@boost@@UAE@XZ ; boost::iostreams::detail::filtering_stream_base<boost::iostreams::chain<boost::iostreams::input,char,std::char_traits<char>,std::allocator<char> >,boost::iostreams::public_>::~filtering_stream_base<boost::iostreams::chain<boost::iostreams::input,char,std::char_traits<char>,std::allocator<char> >,boost::iostreams::public_>
PUBLIC	?rdbuf@?$basic_ios@DU?$char_traits@D@std@@@std@@QAEPAV?$basic_streambuf@DU?$char_traits@D@std@@@2@PAV32@@Z ; std::basic_ios<char,std::char_traits<char> >::rdbuf
PUBLIC	?front@?$chain_base@V?$chain@Uinput@iostreams@boost@@DU?$char_traits@D@std@@V?$allocator@D@5@@iostreams@boost@@DU?$char_traits@D@std@@V?$allocator@D@5@Uinput@23@@detail@iostreams@boost@@QAEAAV?$linked_streambuf@DU?$char_traits@D@std@@@234@XZ ; boost::iostreams::detail::chain_base<boost::iostreams::chain<boost::iostreams::input,char,std::char_traits<char>,std::allocator<char> >,char,std::char_traits<char>,std::allocator<char>,boost::iostreams::input>::front
PUBLIC	?list@?$chain_base@V?$chain@Uinput@iostreams@boost@@DU?$char_traits@D@std@@V?$allocator@D@5@@iostreams@boost@@DU?$char_traits@D@std@@V?$allocator@D@5@Uinput@23@@detail@iostreams@boost@@ABEABV?$list@PAV?$linked_streambuf@DU?$char_traits@D@std@@@detail@iostreams@boost@@V?$allocator@PAV?$linked_streambuf@DU?$char_traits@D@std@@@detail@iostreams@boost@@@std@@@std@@XZ ; boost::iostreams::detail::chain_base<boost::iostreams::chain<boost::iostreams::input,char,std::char_traits<char>,std::allocator<char> >,char,std::char_traits<char>,std::allocator<char>,boost::iostreams::input>::list
PUBLIC	?empty@?$chain_base@V?$chain@Uinput@iostreams@boost@@DU?$char_traits@D@std@@V?$allocator@D@5@@iostreams@boost@@DU?$char_traits@D@std@@V?$allocator@D@5@Uinput@23@@detail@iostreams@boost@@QBE_NXZ ; boost::iostreams::detail::chain_base<boost::iostreams::chain<boost::iostreams::input,char,std::char_traits<char>,std::allocator<char> >,char,std::char_traits<char>,std::allocator<char>,boost::iostreams::input>::empty
PUBLIC	?notify@?$filtering_stream_base@V?$chain@Uinput@iostreams@boost@@DU?$char_traits@D@std@@V?$allocator@D@5@@iostreams@boost@@Upublic_@23@@detail@iostreams@boost@@EAEXXZ ; boost::iostreams::detail::filtering_stream_base<boost::iostreams::chain<boost::iostreams::input,char,std::char_traits<char>,std::allocator<char> >,boost::iostreams::public_>::notify
PUBLIC	??_G?$filtering_stream@Uinput@iostreams@boost@@DU?$char_traits@D@std@@V?$allocator@D@5@Upublic_@23@@iostreams@boost@@UAEPAXI@Z ; boost::iostreams::filtering_stream<boost::iostreams::input,char,std::char_traits<char>,std::allocator<char>,boost::iostreams::public_>::`scalar deleting destructor'
PUBLIC	??_E?$filtering_stream@Uinput@iostreams@boost@@DU?$char_traits@D@std@@V?$allocator@D@5@Upublic_@23@@iostreams@boost@@WBI@AEPAXI@Z ; [thunk]:boost::iostreams::filtering_stream<boost::iostreams::input,char,std::char_traits<char>,std::allocator<char>,boost::iostreams::public_>::`vector deleting destructor'
PUBLIC	??1?$filtering_stream@Uinput@iostreams@boost@@DU?$char_traits@D@std@@V?$allocator@D@5@Upublic_@23@@iostreams@boost@@UAE@XZ ; boost::iostreams::filtering_stream<boost::iostreams::input,char,std::char_traits<char>,std::allocator<char>,boost::iostreams::public_>::~filtering_stream<boost::iostreams::input,char,std::char_traits<char>,std::allocator<char>,boost::iostreams::public_>
PUBLIC	??_D?$filtering_stream@Uinput@iostreams@boost@@DU?$char_traits@D@std@@V?$allocator@D@5@Upublic_@23@@iostreams@boost@@QAEXXZ ; boost::iostreams::filtering_stream<boost::iostreams::input,char,std::char_traits<char>,std::allocator<char>,boost::iostreams::public_>::`vbase destructor'
PUBLIC	??$close_all@V?$filtering_stream@Uinput@iostreams@boost@@DU?$char_traits@D@std@@V?$allocator@D@5@Upublic_@23@@iostreams@boost@@@detail@iostreams@boost@@YAXAAV?$filtering_stream@Uinput@iostreams@boost@@DU?$char_traits@D@std@@V?$allocator@D@5@Upublic_@23@@12@@Z ; boost::iostreams::detail::close_all<boost::iostreams::filtering_stream<boost::iostreams::input,char,std::char_traits<char>,std::allocator<char>,boost::iostreams::public_> >
PUBLIC	??$unwrap@V?$filtering_stream@Uinput@iostreams@boost@@DU?$char_traits@D@std@@V?$allocator@D@5@Upublic_@23@@iostreams@boost@@@detail@iostreams@boost@@YAAAV?$filtering_stream@Uinput@iostreams@boost@@DU?$char_traits@D@std@@V?$allocator@D@5@Upublic_@23@@12@AAV312@@Z ; boost::iostreams::detail::unwrap<boost::iostreams::filtering_stream<boost::iostreams::input,char,std::char_traits<char>,std::allocator<char>,boost::iostreams::public_> >
PUBLIC	?is_complete@?$chain_base@V?$chain@Uinput@iostreams@boost@@DU?$char_traits@D@std@@V?$allocator@D@5@@iostreams@boost@@DU?$char_traits@D@std@@V?$allocator@D@5@Uinput@23@@detail@iostreams@boost@@QBE_NXZ ; boost::iostreams::detail::chain_base<boost::iostreams::chain<boost::iostreams::input,char,std::char_traits<char>,std::allocator<char> >,char,std::char_traits<char>,std::allocator<char>,boost::iostreams::input>::is_complete
PUBLIC	?is_complete@?$chain_client@V?$chain@Uinput@iostreams@boost@@DU?$char_traits@D@std@@V?$allocator@D@5@@iostreams@boost@@@detail@iostreams@boost@@QBE_NXZ ; boost::iostreams::detail::chain_client<boost::iostreams::chain<boost::iostreams::input,char,std::char_traits<char>,std::allocator<char> > >::is_complete
PUBLIC	?empty@?$list@PAV?$linked_streambuf@DU?$char_traits@D@std@@@detail@iostreams@boost@@V?$allocator@PAV?$linked_streambuf@DU?$char_traits@D@std@@@detail@iostreams@boost@@@std@@@std@@QBE_NXZ ; std::list<boost::iostreams::detail::linked_streambuf<char,std::char_traits<char> > *,std::allocator<boost::iostreams::detail::linked_streambuf<char,std::char_traits<char> > *> >::empty
PUBLIC	?deallocate@?$allocator@U_Node@?$_List_nod@PAV?$linked_streambuf@DU?$char_traits@D@std@@@detail@iostreams@boost@@V?$allocator@PAV?$linked_streambuf@DU?$char_traits@D@std@@@detail@iostreams@boost@@@std@@@std@@@std@@QAEXPAU_Node@?$_List_nod@PAV?$linked_streambuf@DU?$char_traits@D@std@@@detail@iostreams@boost@@V?$allocator@PAV?$linked_streambuf@DU?$char_traits@D@std@@@detail@iostreams@boost@@@std@@@2@I@Z ; std::allocator<std::_List_nod<boost::iostreams::detail::linked_streambuf<char,std::char_traits<char> > *,std::allocator<boost::iostreams::detail::linked_streambuf<char,std::char_traits<char> > *> >::_Node>::deallocate
PUBLIC	??$_Destroy@U_Node@?$_List_nod@PAV?$linked_streambuf@DU?$char_traits@D@std@@@detail@iostreams@boost@@V?$allocator@PAV?$linked_streambuf@DU?$char_traits@D@std@@@detail@iostreams@boost@@@std@@@std@@@std@@YAXPAU_Node@?$_List_nod@PAV?$linked_streambuf@DU?$char_traits@D@std@@@detail@iostreams@boost@@V?$allocator@PAV?$linked_streambuf@DU?$char_traits@D@std@@@detail@iostreams@boost@@@std@@@0@@Z ; std::_Destroy<std::_List_nod<boost::iostreams::detail::linked_streambuf<char,std::char_traits<char> > *,std::allocator<boost::iostreams::detail::linked_streambuf<char,std::char_traits<char> > *> >::_Node>
PUBLIC	?destroy@?$allocator@U_Node@?$_List_nod@PAV?$linked_streambuf@DU?$char_traits@D@std@@@detail@iostreams@boost@@V?$allocator@PAV?$linked_streambuf@DU?$char_traits@D@std@@@detail@iostreams@boost@@@std@@@std@@@std@@QAEXPAU_Node@?$_List_nod@PAV?$linked_streambuf@DU?$char_traits@D@std@@@detail@iostreams@boost@@V?$allocator@PAV?$linked_streambuf@DU?$char_traits@D@std@@@detail@iostreams@boost@@@std@@@2@@Z ; std::allocator<std::_List_nod<boost::iostreams::detail::linked_streambuf<char,std::char_traits<char> > *,std::allocator<boost::iostreams::detail::linked_streambuf<char,std::char_traits<char> > *> >::_Node>::destroy
PUBLIC	?_Make_iter@?$list@PAV?$linked_streambuf@DU?$char_traits@D@std@@@detail@iostreams@boost@@V?$allocator@PAV?$linked_streambuf@DU?$char_traits@D@std@@@detail@iostreams@boost@@@std@@@std@@QBE?AV?$_Iterator@$00@12@V?$_Const_iterator@$00@12@@Z ; std::list<boost::iostreams::detail::linked_streambuf<char,std::char_traits<char> > *,std::allocator<boost::iostreams::detail::linked_streambuf<char,std::char_traits<char> > *> >::_Make_iter
PUBLIC	??E?$_Const_iterator@$00@?$list@PAV?$linked_streambuf@DU?$char_traits@D@std@@@detail@iostreams@boost@@V?$allocator@PAV?$linked_streambuf@DU?$char_traits@D@std@@@detail@iostreams@boost@@@std@@@std@@QAE?AV012@H@Z ; std::list<boost::iostreams::detail::linked_streambuf<char,std::char_traits<char> > *,std::allocator<boost::iostreams::detail::linked_streambuf<char,std::char_traits<char> > *> >::_Const_iterator<1>::operator++
PUBLIC	?_Mynode@?$_Const_iterator@$00@?$list@PAV?$linked_streambuf@DU?$char_traits@D@std@@@detail@iostreams@boost@@V?$allocator@PAV?$linked_streambuf@DU?$char_traits@D@std@@@detail@iostreams@boost@@@std@@@std@@QBEPAU_Node@?$_List_nod@PAV?$linked_streambuf@DU?$char_traits@D@std@@@detail@iostreams@boost@@V?$allocator@PAV?$linked_streambuf@DU?$char_traits@D@std@@@detail@iostreams@boost@@@std@@@3@XZ ; std::list<boost::iostreams::detail::linked_streambuf<char,std::char_traits<char> > *,std::allocator<boost::iostreams::detail::linked_streambuf<char,std::char_traits<char> > *> >::_Const_iterator<1>::_Mynode
PUBLIC	?erase@?$list@PAV?$linked_streambuf@DU?$char_traits@D@std@@@detail@iostreams@boost@@V?$allocator@PAV?$linked_streambuf@DU?$char_traits@D@std@@@detail@iostreams@boost@@@std@@@std@@QAE?AV?$_Iterator@$00@12@V?$_Const_iterator@$00@12@@Z ; std::list<boost::iostreams::detail::linked_streambuf<char,std::char_traits<char> > *,std::allocator<boost::iostreams::detail::linked_streambuf<char,std::char_traits<char> > *> >::erase
PUBLIC	?pop_back@?$list@PAV?$linked_streambuf@DU?$char_traits@D@std@@@detail@iostreams@boost@@V?$allocator@PAV?$linked_streambuf@DU?$char_traits@D@std@@@detail@iostreams@boost@@@std@@@std@@QAEXXZ ; std::list<boost::iostreams::detail::linked_streambuf<char,std::char_traits<char> > *,std::allocator<boost::iostreams::detail::linked_streambuf<char,std::char_traits<char> > *> >::pop_back
PUBLIC	?auto_close@?$chain_base@V?$chain@Uinput@iostreams@boost@@DU?$char_traits@D@std@@V?$allocator@D@5@@iostreams@boost@@DU?$char_traits@D@std@@V?$allocator@D@5@Uinput@23@@detail@iostreams@boost@@QBE_NXZ ; boost::iostreams::detail::chain_base<boost::iostreams::chain<boost::iostreams::input,char,std::char_traits<char>,std::allocator<char> >,char,std::char_traits<char>,std::allocator<char>,boost::iostreams::input>::auto_close
PUBLIC	?list@?$chain_base@V?$chain@Uinput@iostreams@boost@@DU?$char_traits@D@std@@V?$allocator@D@5@@iostreams@boost@@DU?$char_traits@D@std@@V?$allocator@D@5@Uinput@23@@detail@iostreams@boost@@AAEAAV?$list@PAV?$linked_streambuf@DU?$char_traits@D@std@@@detail@iostreams@boost@@V?$allocator@PAV?$linked_streambuf@DU?$char_traits@D@std@@@detail@iostreams@boost@@@std@@@std@@XZ ; boost::iostreams::detail::chain_base<boost::iostreams::chain<boost::iostreams::input,char,std::char_traits<char>,std::allocator<char> >,char,std::char_traits<char>,std::allocator<char>,boost::iostreams::input>::list
PUBLIC	??C?$shared_ptr@Uchain_impl@?$chain_base@V?$chain@Uinput@iostreams@boost@@DU?$char_traits@D@std@@V?$allocator@D@5@@iostreams@boost@@DU?$char_traits@D@std@@V?$allocator@D@5@Uinput@23@@detail@iostreams@boost@@@boost@@QBEPAUchain_impl@?$chain_base@V?$chain@Uinput@iostreams@boost@@DU?$char_traits@D@std@@V?$allocator@D@5@@iostreams@boost@@DU?$char_traits@D@std@@V?$allocator@D@5@Uinput@23@@detail@iostreams@1@XZ ; boost::shared_ptr<boost::iostreams::detail::chain_base<boost::iostreams::chain<boost::iostreams::input,char,std::char_traits<char>,std::allocator<char> >,char,std::char_traits<char>,std::allocator<char>,boost::iostreams::input>::chain_impl>::operator->
PUBLIC	?rbegin@?$list@PAV?$linked_streambuf@DU?$char_traits@D@std@@@detail@iostreams@boost@@V?$allocator@PAV?$linked_streambuf@DU?$char_traits@D@std@@@detail@iostreams@boost@@@std@@@std@@QAE?AV?$reverse_iterator@V?$_Iterator@$00@?$list@PAV?$linked_streambuf@DU?$char_traits@D@std@@@detail@iostreams@boost@@V?$allocator@PAV?$linked_streambuf@DU?$char_traits@D@std@@@detail@iostreams@boost@@@std@@@std@@@2@XZ ; std::list<boost::iostreams::detail::linked_streambuf<char,std::char_traits<char> > *,std::allocator<boost::iostreams::detail::linked_streambuf<char,std::char_traits<char> > *> >::rbegin
PUBLIC	??0?$_Revranit@V?$_Iterator@$00@?$list@PAV?$linked_streambuf@DU?$char_traits@D@std@@@detail@iostreams@boost@@V?$allocator@PAV?$linked_streambuf@DU?$char_traits@D@std@@@detail@iostreams@boost@@@std@@@std@@U?$iterator@Ubidirectional_iterator_tag@std@@PAV?$linked_streambuf@DU?$char_traits@D@std@@@detail@iostreams@boost@@HPAPAV3456@AAPAV3456@@3@@std@@QAE@V?$_Iterator@$00@?$list@PAV?$linked_streambuf@DU?$char_traits@D@std@@@detail@iostreams@boost@@V?$allocator@PAV?$linked_streambuf@DU?$char_traits@D@std@@@detail@iostreams@boost@@@std@@@1@@Z ; std::_Revranit<std::list<boost::iostreams::detail::linked_streambuf<char,std::char_traits<char> > *,std::allocator<boost::iostreams::detail::linked_streambuf<char,std::char_traits<char> > *> >::_Iterator<1>,std::iterator<std::bidirectional_iterator_tag,boost::iostreams::detail::linked_streambuf<char,std::char_traits<char> > *,int,boost::iostreams::detail::linked_streambuf<char,std::char_traits<char> > * *,boost::iostreams::detail::linked_streambuf<char,std::char_traits<char> > * &> >::_Revranit<std::list<boost::iostreams::detail::linked_streambuf<char,std::char_traits<char> > *,std::allocator<boost::iostreams::detail::linked_streambuf<char,std::char_traits<char> > *> >::_Iterator<1>,std::iterator<std::bidirectional_iterator_tag,boost::iostreams::detail::linked_streambuf<char,std::char_traits<char> > *,int,boost::iostreams::detail::linked_streambuf<char,std::char_traits<char> > * *,boost::iostreams::detail::linked_streambuf<char,std::char_traits<char> > * &> >
PUBLIC	??0?$reverse_iterator@V?$_Iterator@$00@?$list@PAV?$linked_streambuf@DU?$char_traits@D@std@@@detail@iostreams@boost@@V?$allocator@PAV?$linked_streambuf@DU?$char_traits@D@std@@@detail@iostreams@boost@@@std@@@std@@@std@@QAE@V?$_Iterator@$00@?$list@PAV?$linked_streambuf@DU?$char_traits@D@std@@@detail@iostreams@boost@@V?$allocator@PAV?$linked_streambuf@DU?$char_traits@D@std@@@detail@iostreams@boost@@@std@@@1@@Z ; std::reverse_iterator<std::list<boost::iostreams::detail::linked_streambuf<char,std::char_traits<char> > *,std::allocator<boost::iostreams::detail::linked_streambuf<char,std::char_traits<char> > *> >::_Iterator<1> >::reverse_iterator<std::list<boost::iostreams::detail::linked_streambuf<char,std::char_traits<char> > *,std::allocator<boost::iostreams::detail::linked_streambuf<char,std::char_traits<char> > *> >::_Iterator<1> >
PUBLIC	?rend@?$list@PAV?$linked_streambuf@DU?$char_traits@D@std@@@detail@iostreams@boost@@V?$allocator@PAV?$linked_streambuf@DU?$char_traits@D@std@@@detail@iostreams@boost@@@std@@@std@@QAE?AV?$reverse_iterator@V?$_Iterator@$00@?$list@PAV?$linked_streambuf@DU?$char_traits@D@std@@@detail@iostreams@boost@@V?$allocator@PAV?$linked_streambuf@DU?$char_traits@D@std@@@detail@iostreams@boost@@@std@@@std@@@2@XZ ; std::list<boost::iostreams::detail::linked_streambuf<char,std::char_traits<char> > *,std::allocator<boost::iostreams::detail::linked_streambuf<char,std::char_traits<char> > *> >::rend
PUBLIC	?begin@?$list@PAV?$linked_streambuf@DU?$char_traits@D@std@@@detail@iostreams@boost@@V?$allocator@PAV?$linked_streambuf@DU?$char_traits@D@std@@@detail@iostreams@boost@@@std@@@std@@QAE?AV?$_Iterator@$00@12@XZ ; std::list<boost::iostreams::detail::linked_streambuf<char,std::char_traits<char> > *,std::allocator<boost::iostreams::detail::linked_streambuf<char,std::char_traits<char> > *> >::begin
PUBLIC	?front@?$list@PAV?$linked_streambuf@DU?$char_traits@D@std@@@detail@iostreams@boost@@V?$allocator@PAV?$linked_streambuf@DU?$char_traits@D@std@@@detail@iostreams@boost@@@std@@@std@@QAEAAPAV?$linked_streambuf@DU?$char_traits@D@std@@@detail@iostreams@boost@@XZ ; std::list<boost::iostreams::detail::linked_streambuf<char,std::char_traits<char> > *,std::allocator<boost::iostreams::detail::linked_streambuf<char,std::char_traits<char> > *> >::front
PUBLIC	??0?$_Iterator_with_base@Ubidirectional_iterator_tag@std@@PAV?$linked_streambuf@DU?$char_traits@D@std@@@detail@iostreams@boost@@HPBQAV3456@ABQAV3456@V_Iterator_base_aux@2@@std@@QAE@XZ ; std::_Iterator_with_base<std::bidirectional_iterator_tag,boost::iostreams::detail::linked_streambuf<char,std::char_traits<char> > *,int,boost::iostreams::detail::linked_streambuf<char,std::char_traits<char> > * const *,boost::iostreams::detail::linked_streambuf<char,std::char_traits<char> > * const &,std::_Iterator_base_aux>::_Iterator_with_base<std::bidirectional_iterator_tag,boost::iostreams::detail::linked_streambuf<char,std::char_traits<char> > *,int,boost::iostreams::detail::linked_streambuf<char,std::char_traits<char> > * const *,boost::iostreams::detail::linked_streambuf<char,std::char_traits<char> > * const &,std::_Iterator_base_aux>
PUBLIC	??0?$_Bidit@PAV?$linked_streambuf@DU?$char_traits@D@std@@@detail@iostreams@boost@@HPBQAV1234@ABQAV1234@@std@@QAE@XZ ; std::_Bidit<boost::iostreams::detail::linked_streambuf<char,std::char_traits<char> > *,int,boost::iostreams::detail::linked_streambuf<char,std::char_traits<char> > * const *,boost::iostreams::detail::linked_streambuf<char,std::char_traits<char> > * const &>::_Bidit<boost::iostreams::detail::linked_streambuf<char,std::char_traits<char> > *,int,boost::iostreams::detail::linked_streambuf<char,std::char_traits<char> > * const *,boost::iostreams::detail::linked_streambuf<char,std::char_traits<char> > * const &>
PUBLIC	??0?$_Const_iterator@$00@?$list@PAV?$linked_streambuf@DU?$char_traits@D@std@@@detail@iostreams@boost@@V?$allocator@PAV?$linked_streambuf@DU?$char_traits@D@std@@@detail@iostreams@boost@@@std@@@std@@QAE@PAU_Node@?$_List_nod@PAV?$linked_streambuf@DU?$char_traits@D@std@@@detail@iostreams@boost@@V?$allocator@PAV?$linked_streambuf@DU?$char_traits@D@std@@@detail@iostreams@boost@@@std@@@2@PBV12@@Z ; std::list<boost::iostreams::detail::linked_streambuf<char,std::char_traits<char> > *,std::allocator<boost::iostreams::detail::linked_streambuf<char,std::char_traits<char> > *> >::_Const_iterator<1>::_Const_iterator<1>
PUBLIC	??0?$_Iterator@$00@?$list@PAV?$linked_streambuf@DU?$char_traits@D@std@@@detail@iostreams@boost@@V?$allocator@PAV?$linked_streambuf@DU?$char_traits@D@std@@@detail@iostreams@boost@@@std@@@std@@QAE@PAU_Node@?$_List_nod@PAV?$linked_streambuf@DU?$char_traits@D@std@@@detail@iostreams@boost@@V?$allocator@PAV?$linked_streambuf@DU?$char_traits@D@std@@@detail@iostreams@boost@@@std@@@2@PBV12@@Z ; std::list<boost::iostreams::detail::linked_streambuf<char,std::char_traits<char> > *,std::allocator<boost::iostreams::detail::linked_streambuf<char,std::char_traits<char> > *> >::_Iterator<1>::_Iterator<1>
PUBLIC	?end@?$list@PAV?$linked_streambuf@DU?$char_traits@D@std@@@detail@iostreams@boost@@V?$allocator@PAV?$linked_streambuf@DU?$char_traits@D@std@@@detail@iostreams@boost@@@std@@@std@@QAE?AV?$_Iterator@$00@12@XZ ; std::list<boost::iostreams::detail::linked_streambuf<char,std::char_traits<char> > *,std::allocator<boost::iostreams::detail::linked_streambuf<char,std::char_traits<char> > *> >::end
PUBLIC	?back@?$list@PAV?$linked_streambuf@DU?$char_traits@D@std@@@detail@iostreams@boost@@V?$allocator@PAV?$linked_streambuf@DU?$char_traits@D@std@@@detail@iostreams@boost@@@std@@@std@@QAEAAPAV?$linked_streambuf@DU?$char_traits@D@std@@@detail@iostreams@boost@@XZ ; std::list<boost::iostreams::detail::linked_streambuf<char,std::char_traits<char> > *,std::allocator<boost::iostreams::detail::linked_streambuf<char,std::char_traits<char> > *> >::back
PUBLIC	?set_next@?$chain_base@V?$chain@Uinput@iostreams@boost@@DU?$char_traits@D@std@@V?$allocator@D@5@@iostreams@boost@@DU?$char_traits@D@std@@V?$allocator@D@5@Uinput@23@@detail@iostreams@boost@@CAXPAV?$linked_streambuf@DU?$char_traits@D@std@@@234@0@Z ; boost::iostreams::detail::chain_base<boost::iostreams::chain<boost::iostreams::input,char,std::char_traits<char>,std::allocator<char> >,char,std::char_traits<char>,std::allocator<char>,boost::iostreams::input>::set_next
PUBLIC	?_Init@?$basic_streambuf@DU?$char_traits@D@std@@@std@@IAEXXZ ; std::basic_streambuf<char,std::char_traits<char> >::_Init
PUBLIC	??0?$basic_streambuf@DU?$char_traits@D@std@@@std@@IAE@XZ ; std::basic_streambuf<char,std::char_traits<char> >::basic_streambuf<char,std::char_traits<char> >
PUBLIC	?set_next@?$linked_streambuf@DU?$char_traits@D@std@@@detail@iostreams@boost@@MAEXPAV1234@@Z ; boost::iostreams::detail::linked_streambuf<char,std::char_traits<char> >::set_next
PUBLIC	??_G?$linked_streambuf@DU?$char_traits@D@std@@@detail@iostreams@boost@@UAEPAXI@Z ; boost::iostreams::detail::linked_streambuf<char,std::char_traits<char> >::`scalar deleting destructor'
PUBLIC	??0?$linked_streambuf@DU?$char_traits@D@std@@@detail@iostreams@boost@@IAE@XZ ; boost::iostreams::detail::linked_streambuf<char,std::char_traits<char> >::linked_streambuf<char,std::char_traits<char> >
PUBLIC	??0?$optional@V?$concept_adapter@V?$basic_null_device@DUinput@iostreams@boost@@@iostreams@boost@@@detail@iostreams@boost@@@detail@iostreams@boost@@QAE@XZ ; boost::iostreams::detail::optional<boost::iostreams::detail::concept_adapter<boost::iostreams::basic_null_device<char,boost::iostreams::input> > >::optional<boost::iostreams::detail::concept_adapter<boost::iostreams::basic_null_device<char,boost::iostreams::input> > >
PUBLIC	??0?$basic_buffer@DV?$allocator@D@std@@@detail@iostreams@boost@@QAE@XZ ; boost::iostreams::detail::basic_buffer<char,std::allocator<char> >::basic_buffer<char,std::allocator<char> >
PUBLIC	??0?$single_object_holder@V?$basic_buffer@DV?$allocator@D@std@@@detail@iostreams@boost@@@detail@iostreams@boost@@QAE@XZ ; boost::iostreams::detail::single_object_holder<boost::iostreams::detail::basic_buffer<char,std::allocator<char> > >::single_object_holder<boost::iostreams::detail::basic_buffer<char,std::allocator<char> > >
PUBLIC	??0?$double_object@V?$basic_buffer@DV?$allocator@D@std@@@detail@iostreams@boost@@U?$is_convertible@Uinput@iostreams@boost@@Utwo_sequence@detail@23@@4@@detail@iostreams@boost@@QAE@XZ ; boost::iostreams::detail::double_object<boost::iostreams::detail::basic_buffer<char,std::allocator<char> >,boost::is_convertible<boost::iostreams::input,boost::iostreams::detail::two_sequence> >::double_object<boost::iostreams::detail::basic_buffer<char,std::allocator<char> >,boost::is_convertible<boost::iostreams::input,boost::iostreams::detail::two_sequence> >
PUBLIC	??_G?$indirect_streambuf@V?$basic_null_device@DUinput@iostreams@boost@@@iostreams@boost@@U?$char_traits@D@std@@V?$allocator@D@5@Uinput@23@@detail@iostreams@boost@@UAEPAXI@Z ; boost::iostreams::detail::indirect_streambuf<boost::iostreams::basic_null_device<char,boost::iostreams::input>,std::char_traits<char>,std::allocator<char>,boost::iostreams::input>::`scalar deleting destructor'
PUBLIC	??0?$indirect_streambuf@V?$basic_null_device@DUinput@iostreams@boost@@@iostreams@boost@@U?$char_traits@D@std@@V?$allocator@D@5@Uinput@23@@detail@iostreams@boost@@QAE@XZ ; boost::iostreams::detail::indirect_streambuf<boost::iostreams::basic_null_device<char,boost::iostreams::input>,std::char_traits<char>,std::allocator<char>,boost::iostreams::input>::indirect_streambuf<boost::iostreams::basic_null_device<char,boost::iostreams::input>,std::char_traits<char>,std::allocator<char>,boost::iostreams::input>
PUBLIC	??0?$stream_buffer@V?$basic_null_device@DUinput@iostreams@boost@@@iostreams@boost@@U?$char_traits@D@std@@V?$allocator@D@5@Uinput@23@@iostreams@boost@@QAE@XZ ; boost::iostreams::stream_buffer<boost::iostreams::basic_null_device<char,boost::iostreams::input>,std::char_traits<char>,std::allocator<char>,boost::iostreams::input>::stream_buffer<boost::iostreams::basic_null_device<char,boost::iostreams::input>,std::char_traits<char>,std::allocator<char>,boost::iostreams::input>
PUBLIC	??0?$member_close_operation@V?$linked_streambuf@DU?$char_traits@D@std@@@detail@iostreams@boost@@@detail@iostreams@boost@@QAE@AAV?$linked_streambuf@DU?$char_traits@D@std@@@123@H@Z ; boost::iostreams::detail::member_close_operation<boost::iostreams::detail::linked_streambuf<char,std::char_traits<char> > >::member_close_operation<boost::iostreams::detail::linked_streambuf<char,std::char_traits<char> > >
PUBLIC	??$call_member_close@V?$linked_streambuf@DU?$char_traits@D@std@@@detail@iostreams@boost@@@detail@iostreams@boost@@YA?AV?$member_close_operation@V?$linked_streambuf@DU?$char_traits@D@std@@@detail@iostreams@boost@@@012@AAV?$linked_streambuf@DU?$char_traits@D@std@@@012@H@Z ; boost::iostreams::detail::call_member_close<boost::iostreams::detail::linked_streambuf<char,std::char_traits<char> > >
PUBLIC	??0?$reset_operation@V?$optional@V?$concept_adapter@V?$basic_null_device@DUinput@iostreams@boost@@@iostreams@boost@@@detail@iostreams@boost@@@detail@iostreams@boost@@@detail@iostreams@boost@@QAE@AAV?$optional@V?$concept_adapter@V?$basic_null_device@DUinput@iostreams@boost@@@iostreams@boost@@@detail@iostreams@boost@@@123@@Z ; boost::iostreams::detail::reset_operation<boost::iostreams::detail::optional<boost::iostreams::detail::concept_adapter<boost::iostreams::basic_null_device<char,boost::iostreams::input> > > >::reset_operation<boost::iostreams::detail::optional<boost::iostreams::detail::concept_adapter<boost::iostreams::basic_null_device<char,boost::iostreams::input> > > >
PUBLIC	??$call_reset@V?$optional@V?$concept_adapter@V?$basic_null_device@DUinput@iostreams@boost@@@iostreams@boost@@@detail@iostreams@boost@@@detail@iostreams@boost@@@detail@iostreams@boost@@YA?AV?$reset_operation@V?$optional@V?$concept_adapter@V?$basic_null_device@DUinput@iostreams@boost@@@iostreams@boost@@@detail@iostreams@boost@@@detail@iostreams@boost@@@012@AAV?$optional@V?$concept_adapter@V?$basic_null_device@DUinput@iostreams@boost@@@iostreams@boost@@@detail@iostreams@boost@@@012@@Z ; boost::iostreams::detail::call_reset<boost::iostreams::detail::optional<boost::iostreams::detail::concept_adapter<boost::iostreams::basic_null_device<char,boost::iostreams::input> > > >
PUBLIC	??0?$clear_flags_operation@H@detail@iostreams@boost@@QAE@AAH@Z ; boost::iostreams::detail::clear_flags_operation<int>::clear_flags_operation<int>
PUBLIC	??$clear_flags@H@detail@iostreams@boost@@YA?AV?$clear_flags_operation@H@012@AAH@Z ; boost::iostreams::detail::clear_flags<int>
PUBLIC	??R?$clear_flags_operation@H@detail@iostreams@boost@@QBEXXZ ; boost::iostreams::detail::clear_flags_operation<int>::operator()
PUBLIC	??R?$reset_operation@V?$optional@V?$concept_adapter@V?$basic_null_device@DUinput@iostreams@boost@@@iostreams@boost@@@detail@iostreams@boost@@@detail@iostreams@boost@@@detail@iostreams@boost@@QBEXXZ ; boost::iostreams::detail::reset_operation<boost::iostreams::detail::optional<boost::iostreams::detail::concept_adapter<boost::iostreams::basic_null_device<char,boost::iostreams::input> > > >::operator()
PUBLIC	??R?$member_close_operation@V?$linked_streambuf@DU?$char_traits@D@std@@@detail@iostreams@boost@@@detail@iostreams@boost@@QBEXXZ ; boost::iostreams::detail::member_close_operation<boost::iostreams::detail::linked_streambuf<char,std::char_traits<char> > >::operator()
PUBLIC	??$execute@V?$member_close_operation@V?$linked_streambuf@DU?$char_traits@D@std@@@detail@iostreams@boost@@@detail@iostreams@boost@@@?$execute_traits_impl@X@detail@iostreams@boost@@SAHV?$member_close_operation@V?$linked_streambuf@DU?$char_traits@D@std@@@detail@iostreams@boost@@@123@@Z ; boost::iostreams::detail::execute_traits_impl<void>::execute<boost::iostreams::detail::member_close_operation<boost::iostreams::detail::linked_streambuf<char,std::char_traits<char> > > >
PUBLIC	??$execute_all@V?$member_close_operation@V?$linked_streambuf@DU?$char_traits@D@std@@@detail@iostreams@boost@@@detail@iostreams@boost@@@detail@iostreams@boost@@YAHV?$member_close_operation@V?$linked_streambuf@DU?$char_traits@D@std@@@detail@iostreams@boost@@@012@@Z ; boost::iostreams::detail::execute_all<boost::iostreams::detail::member_close_operation<boost::iostreams::detail::linked_streambuf<char,std::char_traits<char> > > >
PUBLIC	??$execute_all@V?$member_close_operation@V?$linked_streambuf@DU?$char_traits@D@std@@@detail@iostreams@boost@@@detail@iostreams@boost@@V1234@@detail@iostreams@boost@@YAHV?$member_close_operation@V?$linked_streambuf@DU?$char_traits@D@std@@@detail@iostreams@boost@@@012@0@Z ; boost::iostreams::detail::execute_all<boost::iostreams::detail::member_close_operation<boost::iostreams::detail::linked_streambuf<char,std::char_traits<char> > >,boost::iostreams::detail::member_close_operation<boost::iostreams::detail::linked_streambuf<char,std::char_traits<char> > > >
PUBLIC	??$execute_all@V?$member_close_operation@V?$linked_streambuf@DU?$char_traits@D@std@@@detail@iostreams@boost@@@detail@iostreams@boost@@V1234@V?$reset_operation@V?$optional@V?$concept_adapter@V?$basic_null_device@DUinput@iostreams@boost@@@iostreams@boost@@@detail@iostreams@boost@@@detail@iostreams@boost@@@234@@detail@iostreams@boost@@YAHV?$member_close_operation@V?$linked_streambuf@DU?$char_traits@D@std@@@detail@iostreams@boost@@@012@0V?$reset_operation@V?$optional@V?$concept_adapter@V?$basic_null_device@DUinput@iostreams@boost@@@iostreams@boost@@@detail@iostreams@boost@@@detail@iostreams@boost@@@012@@Z ; boost::iostreams::detail::execute_all<boost::iostreams::detail::member_close_operation<boost::iostreams::detail::linked_streambuf<char,std::char_traits<char> > >,boost::iostreams::detail::member_close_operation<boost::iostreams::detail::linked_streambuf<char,std::char_traits<char> > >,boost::iostreams::detail::reset_operation<boost::iostreams::detail::optional<boost::iostreams::detail::concept_adapter<boost::iostreams::basic_null_device<char,boost::iostreams::input> > > > >
PUBLIC	??$execute_all@V?$member_close_operation@V?$linked_streambuf@DU?$char_traits@D@std@@@detail@iostreams@boost@@@detail@iostreams@boost@@V1234@V?$reset_operation@V?$optional@V?$concept_adapter@V?$basic_null_device@DUinput@iostreams@boost@@@iostreams@boost@@@detail@iostreams@boost@@@detail@iostreams@boost@@@234@V?$clear_flags_operation@H@234@@detail@iostreams@boost@@YAHV?$member_close_operation@V?$linked_streambuf@DU?$char_traits@D@std@@@detail@iostreams@boost@@@012@0V?$reset_operation@V?$optional@V?$concept_adapter@V?$basic_null_device@DUinput@iostreams@boost@@@iostreams@boost@@@detail@iostreams@boost@@@detail@iostreams@boost@@@012@V?$clear_flags_operation@H@012@@Z ; boost::iostreams::detail::execute_all<boost::iostreams::detail::member_close_operation<boost::iostreams::detail::linked_streambuf<char,std::char_traits<char> > >,boost::iostreams::detail::member_close_operation<boost::iostreams::detail::linked_streambuf<char,std::char_traits<char> > >,boost::iostreams::detail::reset_operation<boost::iostreams::detail::optional<boost::iostreams::detail::concept_adapter<boost::iostreams::basic_null_device<char,boost::iostreams::input> > > >,boost::iostreams::detail::clear_flags_operation<int> >
PUBLIC	?close@?$indirect_streambuf@V?$basic_null_device@DUinput@iostreams@boost@@@iostreams@boost@@U?$char_traits@D@std@@V?$allocator@D@5@Uinput@23@@detail@iostreams@boost@@QAEXXZ ; boost::iostreams::detail::indirect_streambuf<boost::iostreams::basic_null_device<char,boost::iostreams::input>,std::char_traits<char>,std::allocator<char>,boost::iostreams::input>::close
PUBLIC	??_Glocale@std@@QAEPAXI@Z			; std::locale::`scalar deleting destructor'
PUBLIC	?overflow@?$basic_streambuf@DU?$char_traits@D@std@@@std@@MAEHH@Z ; std::basic_streambuf<char,std::char_traits<char> >::overflow
PUBLIC	?pbackfail@?$basic_streambuf@DU?$char_traits@D@std@@@std@@MAEHH@Z ; std::basic_streambuf<char,std::char_traits<char> >::pbackfail
PUBLIC	?underflow@?$basic_streambuf@DU?$char_traits@D@std@@@std@@MAEHXZ ; std::basic_streambuf<char,std::char_traits<char> >::underflow
PUBLIC	?seekoff@?$basic_streambuf@DU?$char_traits@D@std@@@std@@MAE?AV?$fpos@H@2@JHH@Z ; std::basic_streambuf<char,std::char_traits<char> >::seekoff
PUBLIC	??0?$fpos@H@std@@QAE@J@Z			; std::fpos<int>::fpos<int>
PUBLIC	?seekpos@?$basic_streambuf@DU?$char_traits@D@std@@@std@@MAE?AV?$fpos@H@2@V32@H@Z ; std::basic_streambuf<char,std::char_traits<char> >::seekpos
PUBLIC	?sync@?$basic_streambuf@DU?$char_traits@D@std@@@std@@MAEHXZ ; std::basic_streambuf<char,std::char_traits<char> >::sync
PUBLIC	?imbue@?$basic_streambuf@DU?$char_traits@D@std@@@std@@MAEXABVlocale@2@@Z ; std::basic_streambuf<char,std::char_traits<char> >::imbue
PUBLIC	??_G?$basic_streambuf@DU?$char_traits@D@std@@@std@@UAEPAXI@Z ; std::basic_streambuf<char,std::char_traits<char> >::`scalar deleting destructor'
PUBLIC	??1?$basic_streambuf@DU?$char_traits@D@std@@@std@@UAE@XZ ; std::basic_streambuf<char,std::char_traits<char> >::~basic_streambuf<char,std::char_traits<char> >
PUBLIC	??1?$linked_streambuf@DU?$char_traits@D@std@@@detail@iostreams@boost@@UAE@XZ ; boost::iostreams::detail::linked_streambuf<char,std::char_traits<char> >::~linked_streambuf<char,std::char_traits<char> >
PUBLIC	??1?$optional@V?$concept_adapter@V?$basic_null_device@DUinput@iostreams@boost@@@iostreams@boost@@@detail@iostreams@boost@@@detail@iostreams@boost@@QAE@XZ ; boost::iostreams::detail::optional<boost::iostreams::detail::concept_adapter<boost::iostreams::basic_null_device<char,boost::iostreams::input> > >::~optional<boost::iostreams::detail::concept_adapter<boost::iostreams::basic_null_device<char,boost::iostreams::input> > >
PUBLIC	??1?$single_object_holder@V?$basic_buffer@DV?$allocator@D@std@@@detail@iostreams@boost@@@detail@iostreams@boost@@QAE@XZ ; boost::iostreams::detail::single_object_holder<boost::iostreams::detail::basic_buffer<char,std::allocator<char> > >::~single_object_holder<boost::iostreams::detail::basic_buffer<char,std::allocator<char> > >
PUBLIC	??1?$double_object@V?$basic_buffer@DV?$allocator@D@std@@@detail@iostreams@boost@@U?$is_convertible@Uinput@iostreams@boost@@Utwo_sequence@detail@23@@4@@detail@iostreams@boost@@QAE@XZ ; boost::iostreams::detail::double_object<boost::iostreams::detail::basic_buffer<char,std::allocator<char> >,boost::is_convertible<boost::iostreams::input,boost::iostreams::detail::two_sequence> >::~double_object<boost::iostreams::detail::basic_buffer<char,std::allocator<char> >,boost::is_convertible<boost::iostreams::input,boost::iostreams::detail::two_sequence> >
PUBLIC	??1?$indirect_streambuf@V?$basic_null_device@DUinput@iostreams@boost@@@iostreams@boost@@U?$char_traits@D@std@@V?$allocator@D@5@Uinput@23@@detail@iostreams@boost@@UAE@XZ ; boost::iostreams::detail::indirect_streambuf<boost::iostreams::basic_null_device<char,boost::iostreams::input>,std::char_traits<char>,std::allocator<char>,boost::iostreams::input>::~indirect_streambuf<boost::iostreams::basic_null_device<char,boost::iostreams::input>,std::char_traits<char>,std::allocator<char>,boost::iostreams::input>
PUBLIC	?showmanyc@?$basic_streambuf@DU?$char_traits@D@std@@@std@@MAEHXZ ; std::basic_streambuf<char,std::char_traits<char> >::showmanyc
PUBLIC	?uflow@?$basic_streambuf@DU?$char_traits@D@std@@@std@@MAEHXZ ; std::basic_streambuf<char,std::char_traits<char> >::uflow
PUBLIC	?xsgetn@?$basic_streambuf@DU?$char_traits@D@std@@@std@@MAEHPADH@Z ; std::basic_streambuf<char,std::char_traits<char> >::xsgetn
PUBLIC	?_Xsgetn_s@?$basic_streambuf@DU?$char_traits@D@std@@@std@@MAEHPADIH@Z ; std::basic_streambuf<char,std::char_traits<char> >::_Xsgetn_s
PUBLIC	?xsputn@?$basic_streambuf@DU?$char_traits@D@std@@@std@@MAEHPBDH@Z ; std::basic_streambuf<char,std::char_traits<char> >::xsputn
PUBLIC	?setbuf@?$basic_streambuf@DU?$char_traits@D@std@@@std@@MAEPAV12@PADH@Z ; std::basic_streambuf<char,std::char_traits<char> >::setbuf
PUBLIC	?auto_close@?$indirect_streambuf@V?$basic_null_device@DUinput@iostreams@boost@@@iostreams@boost@@U?$char_traits@D@std@@V?$allocator@D@5@Uinput@23@@detail@iostreams@boost@@UBE_NXZ ; boost::iostreams::detail::indirect_streambuf<boost::iostreams::basic_null_device<char,boost::iostreams::input>,std::char_traits<char>,std::allocator<char>,boost::iostreams::input>::auto_close
PUBLIC	?set_auto_close@?$indirect_streambuf@V?$basic_null_device@DUinput@iostreams@boost@@@iostreams@boost@@U?$char_traits@D@std@@V?$allocator@D@5@Uinput@23@@detail@iostreams@boost@@UAEX_N@Z ; boost::iostreams::detail::indirect_streambuf<boost::iostreams::basic_null_device<char,boost::iostreams::input>,std::char_traits<char>,std::allocator<char>,boost::iostreams::input>::set_auto_close
PUBLIC	?strict_sync@?$indirect_streambuf@V?$basic_null_device@DUinput@iostreams@boost@@@iostreams@boost@@U?$char_traits@D@std@@V?$allocator@D@5@Uinput@23@@detail@iostreams@boost@@UAE_NXZ ; boost::iostreams::detail::indirect_streambuf<boost::iostreams::basic_null_device<char,boost::iostreams::input>,std::char_traits<char>,std::allocator<char>,boost::iostreams::input>::strict_sync
PUBLIC	??4locale@std@@QAEAAV01@ABV01@@Z		; std::locale::operator=
PUBLIC	?pubimbue@?$basic_streambuf@DU?$char_traits@D@std@@@std@@QAE?AVlocale@2@ABV32@@Z ; std::basic_streambuf<char,std::char_traits<char> >::pubimbue
PUBLIC	??$imbue@V?$basic_null_device@DUinput@iostreams@boost@@@iostreams@boost@@Vlocale@std@@@?$imbue_impl@Uany_tag@iostreams@boost@@@detail@iostreams@boost@@SAXAAV?$basic_null_device@DUinput@iostreams@boost@@@23@ABVlocale@std@@@Z ; boost::iostreams::detail::imbue_impl<boost::iostreams::any_tag>::imbue<boost::iostreams::basic_null_device<char,boost::iostreams::input>,std::locale>
PUBLIC	??$imbue@V?$basic_null_device@DUinput@iostreams@boost@@@iostreams@boost@@Vlocale@std@@@iostreams@boost@@YAXAAV?$basic_null_device@DUinput@iostreams@boost@@@01@ABVlocale@std@@@Z ; boost::iostreams::imbue<boost::iostreams::basic_null_device<char,boost::iostreams::input>,std::locale>
PUBLIC	??$imbue@Vlocale@std@@@?$concept_adapter@V?$basic_null_device@DUinput@iostreams@boost@@@iostreams@boost@@@detail@iostreams@boost@@QAEXABVlocale@std@@@Z ; boost::iostreams::detail::concept_adapter<boost::iostreams::basic_null_device<char,boost::iostreams::input> >::imbue<std::locale>
PUBLIC	?imbue@?$indirect_streambuf@V?$basic_null_device@DUinput@iostreams@boost@@@iostreams@boost@@U?$char_traits@D@std@@V?$allocator@D@5@Uinput@23@@detail@iostreams@boost@@MAEXABVlocale@std@@@Z ; boost::iostreams::detail::indirect_streambuf<boost::iostreams::basic_null_device<char,boost::iostreams::input>,std::char_traits<char>,std::allocator<char>,boost::iostreams::input>::imbue
PUBLIC	?move@?$char_traits@D@std@@SAPADPADPBDI@Z	; std::char_traits<char>::move
PUBLIC	?data@?$basic_buffer@DV?$allocator@D@std@@@detail@iostreams@boost@@QBEPADXZ ; boost::iostreams::detail::basic_buffer<char,std::allocator<char> >::data
PUBLIC	?size@?$basic_buffer@DV?$allocator@D@std@@@detail@iostreams@boost@@QBEHXZ ; boost::iostreams::detail::basic_buffer<char,std::allocator<char> >::size
PUBLIC	??$min@H@std@@YAABHABH0@Z			; std::min<int>
PUBLIC	?read@?$basic_null_device@DUinput@iostreams@boost@@@iostreams@boost@@QAEHPADH@Z ; boost::iostreams::basic_null_device<char,boost::iostreams::input>::read
PUBLIC	??$read@V?$basic_null_device@DUinput@iostreams@boost@@@iostreams@boost@@@?$read_device_impl@Uinput@iostreams@boost@@@detail@iostreams@boost@@SAHAAV?$basic_null_device@DUinput@iostreams@boost@@@23@PADH@Z ; boost::iostreams::detail::read_device_impl<boost::iostreams::input>::read<boost::iostreams::basic_null_device<char,boost::iostreams::input> >
PUBLIC	??$read@V?$basic_null_device@DUinput@iostreams@boost@@@iostreams@boost@@@iostreams@boost@@YAHAAV?$basic_null_device@DUinput@iostreams@boost@@@01@PADH@Z ; boost::iostreams::read<boost::iostreams::basic_null_device<char,boost::iostreams::input> >
PUBLIC	??$read@V?$basic_null_device@DUinput@iostreams@boost@@@iostreams@boost@@V?$linked_streambuf@DU?$char_traits@D@std@@@detail@23@@?$device_wrapper_impl@Uinput@iostreams@boost@@@detail@iostreams@boost@@SAHAAV?$basic_null_device@DUinput@iostreams@boost@@@23@PAV?$linked_streambuf@DU?$char_traits@D@std@@@123@PADH@Z ; boost::iostreams::detail::device_wrapper_impl<boost::iostreams::input>::read<boost::iostreams::basic_null_device<char,boost::iostreams::input>,boost::iostreams::detail::linked_streambuf<char,std::char_traits<char> > >
PUBLIC	??$read@V?$linked_streambuf@DU?$char_traits@D@std@@@detail@iostreams@boost@@@?$concept_adapter@V?$basic_null_device@DUinput@iostreams@boost@@@iostreams@boost@@@detail@iostreams@boost@@QAEHPADHPAV?$linked_streambuf@DU?$char_traits@D@std@@@123@@Z ; boost::iostreams::detail::concept_adapter<boost::iostreams::basic_null_device<char,boost::iostreams::input> >::read<boost::iostreams::detail::linked_streambuf<char,std::char_traits<char> > >
PUBLIC	?underflow@?$indirect_streambuf@V?$basic_null_device@DUinput@iostreams@boost@@@iostreams@boost@@U?$char_traits@D@std@@V?$allocator@D@5@Uinput@23@@detail@iostreams@boost@@MAEHXZ ; boost::iostreams::detail::indirect_streambuf<boost::iostreams::basic_null_device<char,boost::iostreams::input>,std::char_traits<char>,std::allocator<char>,boost::iostreams::input>::underflow
PUBLIC	?bad_putback@detail@iostreams@boost@@YA?AVfailure@ios_base@std@@XZ ; boost::iostreams::detail::bad_putback
PUBLIC	?pbackfail@?$indirect_streambuf@V?$basic_null_device@DUinput@iostreams@boost@@@iostreams@boost@@U?$char_traits@D@std@@V?$allocator@D@5@Uinput@23@@detail@iostreams@boost@@MAEHH@Z ; boost::iostreams::detail::indirect_streambuf<boost::iostreams::basic_null_device<char,boost::iostreams::input>,std::char_traits<char>,std::allocator<char>,boost::iostreams::input>::pbackfail
PUBLIC	?not_eof@?$char_traits@D@std@@SAHABH@Z		; std::char_traits<char>::not_eof
PUBLIC	?epptr@?$basic_streambuf@DU?$char_traits@D@std@@@std@@IBEPADXZ ; std::basic_streambuf<char,std::char_traits<char> >::epptr
PUBLIC	?overflow@?$indirect_streambuf@V?$basic_null_device@DUinput@iostreams@boost@@@iostreams@boost@@U?$char_traits@D@std@@V?$allocator@D@5@Uinput@23@@detail@iostreams@boost@@MAEHH@Z ; boost::iostreams::detail::indirect_streambuf<boost::iostreams::basic_null_device<char,boost::iostreams::input>,std::char_traits<char>,std::allocator<char>,boost::iostreams::input>::overflow
PUBLIC	??$flush@V?$basic_null_device@DUinput@iostreams@boost@@@iostreams@boost@@@?$flush_device_impl@Uany_tag@iostreams@boost@@@detail@iostreams@boost@@SA_NAAV?$basic_null_device@DUinput@iostreams@boost@@@23@@Z ; boost::iostreams::detail::flush_device_impl<boost::iostreams::any_tag>::flush<boost::iostreams::basic_null_device<char,boost::iostreams::input> >
PUBLIC	??$flush@V?$basic_null_device@DUinput@iostreams@boost@@@iostreams@boost@@@iostreams@boost@@YA_NAAV?$basic_null_device@DUinput@iostreams@boost@@@01@@Z ; boost::iostreams::flush<boost::iostreams::basic_null_device<char,boost::iostreams::input> >
PUBLIC	??$flush@V?$basic_null_device@DUinput@iostreams@boost@@@iostreams@boost@@V?$basic_streambuf@DU?$char_traits@D@std@@@std@@@?$device_wrapper_impl@Uany_tag@iostreams@boost@@@detail@iostreams@boost@@SA_NAAV?$basic_null_device@DUinput@iostreams@boost@@@23@PAV?$basic_streambuf@DU?$char_traits@D@std@@@std@@@Z ; boost::iostreams::detail::device_wrapper_impl<boost::iostreams::any_tag>::flush<boost::iostreams::basic_null_device<char,boost::iostreams::input>,std::basic_streambuf<char,std::char_traits<char> > >
PUBLIC	?flush@?$concept_adapter@V?$basic_null_device@DUinput@iostreams@boost@@@iostreams@boost@@@detail@iostreams@boost@@QAE_NPAV?$basic_streambuf@DU?$char_traits@D@std@@@std@@@Z ; boost::iostreams::detail::concept_adapter<boost::iostreams::basic_null_device<char,boost::iostreams::input> >::flush
PUBLIC	?sync@?$indirect_streambuf@V?$basic_null_device@DUinput@iostreams@boost@@@iostreams@boost@@U?$char_traits@D@std@@V?$allocator@D@5@Uinput@23@@detail@iostreams@boost@@MAEHXZ ; boost::iostreams::detail::indirect_streambuf<boost::iostreams::basic_null_device<char,boost::iostreams::input>,std::char_traits<char>,std::allocator<char>,boost::iostreams::input>::sync
PUBLIC	?seekoff@?$indirect_streambuf@V?$basic_null_device@DUinput@iostreams@boost@@@iostreams@boost@@U?$char_traits@D@std@@V?$allocator@D@5@Uinput@23@@detail@iostreams@boost@@MAE?AV?$fpos@H@std@@JHH@Z ; boost::iostreams::detail::indirect_streambuf<boost::iostreams::basic_null_device<char,boost::iostreams::input>,std::char_traits<char>,std::allocator<char>,boost::iostreams::input>::seekoff
PUBLIC	??B?$fpos@H@std@@QBEJXZ				; std::fpos<int>::operator long
PUBLIC	?fpos_t_to_offset@iostreams@boost@@YA_J_J@Z	; boost::iostreams::fpos_t_to_offset
PUBLIC	?seekpos@?$fpos@H@std@@QBE_JXZ			; std::fpos<int>::seekpos
PUBLIC	?streampos_to_fpos_t@iostreams@boost@@YA_JV?$fpos@H@std@@@Z ; boost::iostreams::streampos_to_fpos_t
PUBLIC	?position_to_offset@iostreams@boost@@YA_JV?$fpos@H@std@@@Z ; boost::iostreams::position_to_offset
PUBLIC	?eback@?$basic_streambuf@DU?$char_traits@D@std@@@std@@IBEPADXZ ; std::basic_streambuf<char,std::char_traits<char> >::eback
PUBLIC	?egptr@?$basic_streambuf@DU?$char_traits@D@std@@@std@@IBEPADXZ ; std::basic_streambuf<char,std::char_traits<char> >::egptr
PUBLIC	?gbump@?$basic_streambuf@DU?$char_traits@D@std@@@std@@IAEXH@Z ; std::basic_streambuf<char,std::char_traits<char> >::gbump
PUBLIC	??Z?$fpos@H@std@@QAEAAV01@J@Z			; std::fpos<int>::operator-=
PUBLIC	??G?$fpos@H@std@@QBE?AV01@J@Z			; std::fpos<int>::operator-
PUBLIC	??0input@iostreams@boost@@QAE@XZ		; boost::iostreams::input::input
PUBLIC	??0device_tag@iostreams@boost@@QAE@XZ		; boost::iostreams::device_tag::device_tag
PUBLIC	??0closable_tag@iostreams@boost@@QAE@XZ		; boost::iostreams::closable_tag::closable_tag
PUBLIC	??0category@?$basic_null_device@DUinput@iostreams@boost@@@iostreams@boost@@QAE@XZ ; boost::iostreams::basic_null_device<char,boost::iostreams::input>::category::category
PUBLIC	?cant_seek@detail@iostreams@boost@@YA?AVfailure@ios_base@std@@XZ ; boost::iostreams::detail::cant_seek
PUBLIC	??$seek@V?$basic_null_device@DUinput@iostreams@boost@@@iostreams@boost@@@?$device_wrapper_impl@Uany_tag@iostreams@boost@@@detail@iostreams@boost@@SA?AV?$fpos@H@std@@AAV?$basic_null_device@DUinput@iostreams@boost@@@23@_JHHUany_tag@23@@Z ; boost::iostreams::detail::device_wrapper_impl<boost::iostreams::any_tag>::seek<boost::iostreams::basic_null_device<char,boost::iostreams::input> >
PUBLIC	??$seek@V?$basic_null_device@DUinput@iostreams@boost@@@iostreams@boost@@V?$linked_streambuf@DU?$char_traits@D@std@@@detail@23@@?$device_wrapper_impl@Uany_tag@iostreams@boost@@@detail@iostreams@boost@@SA?AV?$fpos@H@std@@AAV?$basic_null_device@DUinput@iostreams@boost@@@23@PAV?$linked_streambuf@DU?$char_traits@D@std@@@123@_JHH@Z ; boost::iostreams::detail::device_wrapper_impl<boost::iostreams::any_tag>::seek<boost::iostreams::basic_null_device<char,boost::iostreams::input>,boost::iostreams::detail::linked_streambuf<char,std::char_traits<char> > >
PUBLIC	??$seek@V?$linked_streambuf@DU?$char_traits@D@std@@@detail@iostreams@boost@@@?$concept_adapter@V?$basic_null_device@DUinput@iostreams@boost@@@iostreams@boost@@@detail@iostreams@boost@@QAE?AV?$fpos@H@std@@_JHHPAV?$linked_streambuf@DU?$char_traits@D@std@@@123@@Z ; boost::iostreams::detail::concept_adapter<boost::iostreams::basic_null_device<char,boost::iostreams::input> >::seek<boost::iostreams::detail::linked_streambuf<char,std::char_traits<char> > >
PUBLIC	?seek_impl@?$indirect_streambuf@V?$basic_null_device@DUinput@iostreams@boost@@@iostreams@boost@@U?$char_traits@D@std@@V?$allocator@D@5@Uinput@23@@detail@iostreams@boost@@AAE?AV?$fpos@H@std@@_JHH@Z ; boost::iostreams::detail::indirect_streambuf<boost::iostreams::basic_null_device<char,boost::iostreams::input>,std::char_traits<char>,std::allocator<char>,boost::iostreams::input>::seek_impl
PUBLIC	?seekpos@?$indirect_streambuf@V?$basic_null_device@DUinput@iostreams@boost@@@iostreams@boost@@U?$char_traits@D@std@@V?$allocator@D@5@Uinput@23@@detail@iostreams@boost@@MAE?AV?$fpos@H@std@@V56@H@Z ; boost::iostreams::detail::indirect_streambuf<boost::iostreams::basic_null_device<char,boost::iostreams::input>,std::char_traits<char>,std::allocator<char>,boost::iostreams::input>::seekpos
PUBLIC	?set_next@?$indirect_streambuf@V?$basic_null_device@DUinput@iostreams@boost@@@iostreams@boost@@U?$char_traits@D@std@@V?$allocator@D@5@Uinput@23@@detail@iostreams@boost@@MAEXPAV?$linked_streambuf@DU?$char_traits@D@std@@@234@@Z ; boost::iostreams::detail::indirect_streambuf<boost::iostreams::basic_null_device<char,boost::iostreams::input>,std::char_traits<char>,std::allocator<char>,boost::iostreams::input>::set_next
PUBLIC	??$unwrap@V?$basic_null_device@DUinput@iostreams@boost@@@iostreams@boost@@@detail@iostreams@boost@@YAAAV?$basic_null_device@DUinput@iostreams@boost@@@12@AAV312@@Z ; boost::iostreams::detail::unwrap<boost::iostreams::basic_null_device<char,boost::iostreams::input> >
PUBLIC	??$close_all@V?$basic_null_device@DUinput@iostreams@boost@@@iostreams@boost@@@detail@iostreams@boost@@YAXAAV?$basic_null_device@DUinput@iostreams@boost@@@12@@Z ; boost::iostreams::detail::close_all<boost::iostreams::basic_null_device<char,boost::iostreams::input> >
PUBLIC	?close@?$basic_null_device@DUinput@iostreams@boost@@@iostreams@boost@@QAEXXZ ; boost::iostreams::basic_null_device<char,boost::iostreams::input>::close
PUBLIC	??$close@V?$basic_null_device@DUinput@iostreams@boost@@@iostreams@boost@@@?$close_impl@Uclosable_tag@iostreams@boost@@@detail@iostreams@boost@@SAXAAV?$basic_null_device@DUinput@iostreams@boost@@@23@H@Z ; boost::iostreams::detail::close_impl<boost::iostreams::closable_tag>::close<boost::iostreams::basic_null_device<char,boost::iostreams::input> >
PUBLIC	??$close@V?$basic_null_device@DUinput@iostreams@boost@@@iostreams@boost@@@iostreams@boost@@YAXAAV?$basic_null_device@DUinput@iostreams@boost@@@01@H@Z ; boost::iostreams::close<boost::iostreams::basic_null_device<char,boost::iostreams::input> >
PUBLIC	??$close@V?$basic_null_device@DUinput@iostreams@boost@@@iostreams@boost@@V?$linked_streambuf@DU?$char_traits@D@std@@@detail@23@@?$device_wrapper_impl@Uany_tag@iostreams@boost@@@detail@iostreams@boost@@SAXAAV?$basic_null_device@DUinput@iostreams@boost@@@23@PAV?$linked_streambuf@DU?$char_traits@D@std@@@123@H@Z ; boost::iostreams::detail::device_wrapper_impl<boost::iostreams::any_tag>::close<boost::iostreams::basic_null_device<char,boost::iostreams::input>,boost::iostreams::detail::linked_streambuf<char,std::char_traits<char> > >
PUBLIC	??$close@V?$linked_streambuf@DU?$char_traits@D@std@@@detail@iostreams@boost@@@?$concept_adapter@V?$basic_null_device@DUinput@iostreams@boost@@@iostreams@boost@@@detail@iostreams@boost@@QAEXHPAV?$linked_streambuf@DU?$char_traits@D@std@@@123@@Z ; boost::iostreams::detail::concept_adapter<boost::iostreams::basic_null_device<char,boost::iostreams::input> >::close<boost::iostreams::detail::linked_streambuf<char,std::char_traits<char> > >
PUBLIC	?close_impl@?$indirect_streambuf@V?$basic_null_device@DUinput@iostreams@boost@@@iostreams@boost@@U?$char_traits@D@std@@V?$allocator@D@5@Uinput@23@@detail@iostreams@boost@@MAEXH@Z ; boost::iostreams::detail::indirect_streambuf<boost::iostreams::basic_null_device<char,boost::iostreams::input>,std::char_traits<char>,std::allocator<char>,boost::iostreams::input>::close_impl
PUBLIC	?component_type@?$indirect_streambuf@V?$basic_null_device@DUinput@iostreams@boost@@@iostreams@boost@@U?$char_traits@D@std@@V?$allocator@D@5@Uinput@23@@detail@iostreams@boost@@MBEABVtype_info@@XZ ; boost::iostreams::detail::indirect_streambuf<boost::iostreams::basic_null_device<char,boost::iostreams::input>,std::char_traits<char>,std::allocator<char>,boost::iostreams::input>::component_type
PUBLIC	??D?$concept_adapter@V?$basic_null_device@DUinput@iostreams@boost@@@iostreams@boost@@@detail@iostreams@boost@@QAEAAV?$basic_null_device@DUinput@iostreams@boost@@@23@XZ ; boost::iostreams::detail::concept_adapter<boost::iostreams::basic_null_device<char,boost::iostreams::input> >::operator*
PUBLIC	?component@?$indirect_streambuf@V?$basic_null_device@DUinput@iostreams@boost@@@iostreams@boost@@U?$char_traits@D@std@@V?$allocator@D@5@Uinput@23@@detail@iostreams@boost@@QAEPAV?$basic_null_device@DUinput@iostreams@boost@@@34@XZ ; boost::iostreams::detail::indirect_streambuf<boost::iostreams::basic_null_device<char,boost::iostreams::input>,std::char_traits<char>,std::allocator<char>,boost::iostreams::input>::component
PUBLIC	?component_impl@?$indirect_streambuf@V?$basic_null_device@DUinput@iostreams@boost@@@iostreams@boost@@U?$char_traits@D@std@@V?$allocator@D@5@Uinput@23@@detail@iostreams@boost@@MAEPAXXZ ; boost::iostreams::detail::indirect_streambuf<boost::iostreams::basic_null_device<char,boost::iostreams::input>,std::char_traits<char>,std::allocator<char>,boost::iostreams::input>::component_impl
PUBLIC	?pbase@?$basic_streambuf@DU?$char_traits@D@std@@@std@@IBEPADXZ ; std::basic_streambuf<char,std::char_traits<char> >::pbase
PUBLIC	?pptr@?$basic_streambuf@DU?$char_traits@D@std@@@std@@IBEPADXZ ; std::basic_streambuf<char,std::char_traits<char> >::pptr
PUBLIC	?pbump@?$basic_streambuf@DU?$char_traits@D@std@@@std@@IAEXH@Z ; std::basic_streambuf<char,std::char_traits<char> >::pbump
PUBLIC	??D?$optional@V?$concept_adapter@V?$basic_null_device@DUinput@iostreams@boost@@@iostreams@boost@@@detail@iostreams@boost@@@detail@iostreams@boost@@QAEAAV?$concept_adapter@V?$basic_null_device@DUinput@iostreams@boost@@@iostreams@boost@@@123@XZ ; boost::iostreams::detail::optional<boost::iostreams::detail::concept_adapter<boost::iostreams::basic_null_device<char,boost::iostreams::input> > >::operator*
PUBLIC	?obj@?$indirect_streambuf@V?$basic_null_device@DUinput@iostreams@boost@@@iostreams@boost@@U?$char_traits@D@std@@V?$allocator@D@5@Uinput@23@@detail@iostreams@boost@@AAEAAV?$concept_adapter@V?$basic_null_device@DUinput@iostreams@boost@@@iostreams@boost@@@234@XZ ; boost::iostreams::detail::indirect_streambuf<boost::iostreams::basic_null_device<char,boost::iostreams::input>,std::char_traits<char>,std::allocator<char>,boost::iostreams::input>::obj
PUBLIC	?next@?$indirect_streambuf@V?$basic_null_device@DUinput@iostreams@boost@@@iostreams@boost@@U?$char_traits@D@std@@V?$allocator@D@5@Uinput@23@@detail@iostreams@boost@@ABEPAV?$linked_streambuf@DU?$char_traits@D@std@@@234@XZ ; boost::iostreams::detail::indirect_streambuf<boost::iostreams::basic_null_device<char,boost::iostreams::input>,std::char_traits<char>,std::allocator<char>,boost::iostreams::input>::next
PUBLIC	?cant_write@detail@iostreams@boost@@YA?AVfailure@ios_base@std@@XZ ; boost::iostreams::detail::cant_write
PUBLIC	??$write@V?$basic_null_device@DUinput@iostreams@boost@@@iostreams@boost@@V?$linked_streambuf@DU?$char_traits@D@std@@@detail@23@@?$device_wrapper_impl@Uinput@iostreams@boost@@@detail@iostreams@boost@@SAHAAV?$basic_null_device@DUinput@iostreams@boost@@@23@PAV?$linked_streambuf@DU?$char_traits@D@std@@@123@PBDH@Z ; boost::iostreams::detail::device_wrapper_impl<boost::iostreams::input>::write<boost::iostreams::basic_null_device<char,boost::iostreams::input>,boost::iostreams::detail::linked_streambuf<char,std::char_traits<char> > >
PUBLIC	??$write@V?$linked_streambuf@DU?$char_traits@D@std@@@detail@iostreams@boost@@@?$concept_adapter@V?$basic_null_device@DUinput@iostreams@boost@@@iostreams@boost@@@detail@iostreams@boost@@QAEHPBDHPAV?$linked_streambuf@DU?$char_traits@D@std@@@123@@Z ; boost::iostreams::detail::concept_adapter<boost::iostreams::basic_null_device<char,boost::iostreams::input> >::write<boost::iostreams::detail::linked_streambuf<char,std::char_traits<char> > >
PUBLIC	?sync_impl@?$indirect_streambuf@V?$basic_null_device@DUinput@iostreams@boost@@@iostreams@boost@@U?$char_traits@D@std@@V?$allocator@D@5@Uinput@23@@detail@iostreams@boost@@AAEXXZ ; boost::iostreams::detail::indirect_streambuf<boost::iostreams::basic_null_device<char,boost::iostreams::input>,std::char_traits<char>,std::allocator<char>,boost::iostreams::input>::sync_impl
PUBLIC	?init_get_area@?$indirect_streambuf@V?$basic_null_device@DUinput@iostreams@boost@@@iostreams@boost@@U?$char_traits@D@std@@V?$allocator@D@5@Uinput@23@@detail@iostreams@boost@@EAEXXZ ; boost::iostreams::detail::indirect_streambuf<boost::iostreams::basic_null_device<char,boost::iostreams::input>,std::char_traits<char>,std::allocator<char>,boost::iostreams::input>::init_get_area
PUBLIC	?setg@?$basic_streambuf@DU?$char_traits@D@std@@@std@@IAEXPAD00@Z ; std::basic_streambuf<char,std::char_traits<char> >::setg
PUBLIC	?setp@?$basic_streambuf@DU?$char_traits@D@std@@@std@@IAEXPAD0@Z ; std::basic_streambuf<char,std::char_traits<char> >::setp
PUBLIC	?output_buffered@?$indirect_streambuf@V?$basic_null_device@DUinput@iostreams@boost@@@iostreams@boost@@U?$char_traits@D@std@@V?$allocator@D@5@Uinput@23@@detail@iostreams@boost@@ABE_NXZ ; boost::iostreams::detail::indirect_streambuf<boost::iostreams::basic_null_device<char,boost::iostreams::input>,std::char_traits<char>,std::allocator<char>,boost::iostreams::input>::output_buffered
PUBLIC	?begin@?$basic_buffer@DV?$allocator@D@std@@@detail@iostreams@boost@@QBEPADXZ ; boost::iostreams::detail::basic_buffer<char,std::allocator<char> >::begin
PUBLIC	?end@?$basic_buffer@DV?$allocator@D@std@@@detail@iostreams@boost@@QBEPADXZ ; boost::iostreams::detail::basic_buffer<char,std::allocator<char> >::end
PUBLIC	?init_put_area@?$indirect_streambuf@V?$basic_null_device@DUinput@iostreams@boost@@@iostreams@boost@@U?$char_traits@D@std@@V?$allocator@D@5@Uinput@23@@detail@iostreams@boost@@EAEXXZ ; boost::iostreams::detail::indirect_streambuf<boost::iostreams::basic_null_device<char,boost::iostreams::input>,std::char_traits<char>,std::allocator<char>,boost::iostreams::input>::init_put_area
PUBLIC	??_G?$stream_buffer@V?$basic_null_device@DUinput@iostreams@boost@@@iostreams@boost@@U?$char_traits@D@std@@V?$allocator@D@5@Uinput@23@@iostreams@boost@@UAEPAXI@Z ; boost::iostreams::stream_buffer<boost::iostreams::basic_null_device<char,boost::iostreams::input>,std::char_traits<char>,std::allocator<char>,boost::iostreams::input>::`scalar deleting destructor'
PUBLIC	??1?$stream_buffer@V?$basic_null_device@DUinput@iostreams@boost@@@iostreams@boost@@U?$char_traits@D@std@@V?$allocator@D@5@Uinput@23@@iostreams@boost@@UAE@XZ ; boost::iostreams::stream_buffer<boost::iostreams::basic_null_device<char,boost::iostreams::input>,std::char_traits<char>,std::allocator<char>,boost::iostreams::input>::~stream_buffer<boost::iostreams::basic_null_device<char,boost::iostreams::input>,std::char_traits<char>,std::allocator<char>,boost::iostreams::input>
PUBLIC	?set_true_eof@?$linked_streambuf@DU?$char_traits@D@std@@@detail@iostreams@boost@@IAEX_N@Z ; boost::iostreams::detail::linked_streambuf<char,std::char_traits<char> >::set_true_eof
PUBLIC	?first@?$single_object_holder@V?$basic_buffer@DV?$allocator@D@std@@@detail@iostreams@boost@@@detail@iostreams@boost@@QAEAAV?$basic_buffer@DV?$allocator@D@std@@@234@XZ ; boost::iostreams::detail::single_object_holder<boost::iostreams::detail::basic_buffer<char,std::allocator<char> > >::first
PUBLIC	?in@?$indirect_streambuf@V?$basic_null_device@DUinput@iostreams@boost@@@iostreams@boost@@U?$char_traits@D@std@@V?$allocator@D@5@Uinput@23@@detail@iostreams@boost@@AAEAAV?$basic_buffer@DV?$allocator@D@std@@@234@XZ ; boost::iostreams::detail::indirect_streambuf<boost::iostreams::basic_null_device<char,boost::iostreams::input>,std::char_traits<char>,std::allocator<char>,boost::iostreams::input>::in
PUBLIC	?second@?$single_object_holder@V?$basic_buffer@DV?$allocator@D@std@@@detail@iostreams@boost@@@detail@iostreams@boost@@QAEAAV?$basic_buffer@DV?$allocator@D@std@@@234@XZ ; boost::iostreams::detail::single_object_holder<boost::iostreams::detail::basic_buffer<char,std::allocator<char> > >::second
PUBLIC	?out@?$indirect_streambuf@V?$basic_null_device@DUinput@iostreams@boost@@@iostreams@boost@@U?$char_traits@D@std@@V?$allocator@D@5@Uinput@23@@detail@iostreams@boost@@AAEAAV?$basic_buffer@DV?$allocator@D@std@@@234@XZ ; boost::iostreams::detail::indirect_streambuf<boost::iostreams::basic_null_device<char,boost::iostreams::input>,std::char_traits<char>,std::allocator<char>,boost::iostreams::input>::out
PUBLIC	?can_read@?$indirect_streambuf@V?$basic_null_device@DUinput@iostreams@boost@@@iostreams@boost@@U?$char_traits@D@std@@V?$allocator@D@5@Uinput@23@@detail@iostreams@boost@@ABE_NXZ ; boost::iostreams::detail::indirect_streambuf<boost::iostreams::basic_null_device<char,boost::iostreams::input>,std::char_traits<char>,std::allocator<char>,boost::iostreams::input>::can_read
PUBLIC	?can_write@?$indirect_streambuf@V?$basic_null_device@DUinput@iostreams@boost@@@iostreams@boost@@U?$char_traits@D@std@@V?$allocator@D@5@Uinput@23@@detail@iostreams@boost@@ABE_NXZ ; boost::iostreams::detail::indirect_streambuf<boost::iostreams::basic_null_device<char,boost::iostreams::input>,std::char_traits<char>,std::allocator<char>,boost::iostreams::input>::can_write
PUBLIC	?shared_buffer@?$indirect_streambuf@V?$basic_null_device@DUinput@iostreams@boost@@@iostreams@boost@@U?$char_traits@D@std@@V?$allocator@D@5@Uinput@23@@detail@iostreams@boost@@ABE_NXZ ; boost::iostreams::detail::indirect_streambuf<boost::iostreams::basic_null_device<char,boost::iostreams::input>,std::char_traits<char>,std::allocator<char>,boost::iostreams::input>::shared_buffer
PUBLIC	?reset@?$optional@V?$concept_adapter@V?$basic_null_device@DUinput@iostreams@boost@@@iostreams@boost@@@detail@iostreams@boost@@@detail@iostreams@boost@@QAEXXZ ; boost::iostreams::detail::optional<boost::iostreams::detail::concept_adapter<boost::iostreams::basic_null_device<char,boost::iostreams::input> > >::reset
PUBLIC	?address@?$optional@V?$concept_adapter@V?$basic_null_device@DUinput@iostreams@boost@@@iostreams@boost@@@detail@iostreams@boost@@@detail@iostreams@boost@@AAEPAXXZ ; boost::iostreams::detail::optional<boost::iostreams::detail::concept_adapter<boost::iostreams::basic_null_device<char,boost::iostreams::input> > >::address
PUBLIC	?reset@?$optional@V?$concept_adapter@V?$basic_null_device@DUinput@iostreams@boost@@@iostreams@boost@@@detail@iostreams@boost@@@detail@iostreams@boost@@QAEXABV?$concept_adapter@V?$basic_null_device@DUinput@iostreams@boost@@@iostreams@boost@@@234@@Z ; boost::iostreams::detail::optional<boost::iostreams::detail::concept_adapter<boost::iostreams::basic_null_device<char,boost::iostreams::input> > >::reset
PUBLIC	??0?$concept_adapter@V?$basic_null_device@DUinput@iostreams@boost@@@iostreams@boost@@@detail@iostreams@boost@@QAE@ABV?$basic_null_device@DUinput@iostreams@boost@@@23@@Z ; boost::iostreams::detail::concept_adapter<boost::iostreams::basic_null_device<char,boost::iostreams::input> >::concept_adapter<boost::iostreams::basic_null_device<char,boost::iostreams::input> >
PUBLIC	?allocate@?$allocator@D@std@@QAEPADIPBX@Z	; std::allocator<char>::allocate
PUBLIC	??0?$basic_buffer@DV?$allocator@D@std@@@detail@iostreams@boost@@QAE@H@Z ; boost::iostreams::detail::basic_buffer<char,std::allocator<char> >::basic_buffer<char,std::allocator<char> >
PUBLIC	??1?$basic_buffer@DV?$allocator@D@std@@@detail@iostreams@boost@@QAE@XZ ; boost::iostreams::detail::basic_buffer<char,std::allocator<char> >::~basic_buffer<char,std::allocator<char> >
PUBLIC	??$swap@H@std@@YAXAAH0@Z			; std::swap<int>
PUBLIC	??$swap@PAD@std@@YAXAAPAD0@Z			; std::swap<char *>
PUBLIC	?resize@?$basic_buffer@DV?$allocator@D@std@@@detail@iostreams@boost@@QAEXH@Z ; boost::iostreams::detail::basic_buffer<char,std::allocator<char> >::resize
PUBLIC	??$unwrap@V?$basic_null_device@DUinput@iostreams@boost@@@iostreams@boost@@@detail@iostreams@boost@@YAABV?$basic_null_device@DUinput@iostreams@boost@@@12@ABV312@@Z ; boost::iostreams::detail::unwrap<boost::iostreams::basic_null_device<char,boost::iostreams::input> >
PUBLIC	??$optimal_buffer_size@V?$basic_null_device@DUinput@iostreams@boost@@@iostreams@boost@@@?$optimal_buffer_size_impl@Udevice_tag@iostreams@boost@@@detail@iostreams@boost@@SAHABV?$basic_null_device@DUinput@iostreams@boost@@@23@@Z ; boost::iostreams::detail::optimal_buffer_size_impl<boost::iostreams::device_tag>::optimal_buffer_size<boost::iostreams::basic_null_device<char,boost::iostreams::input> >
PUBLIC	??$optimal_buffer_size@V?$basic_null_device@DUinput@iostreams@boost@@@iostreams@boost@@@iostreams@boost@@YAHABV?$basic_null_device@DUinput@iostreams@boost@@@01@@Z ; boost::iostreams::optimal_buffer_size<boost::iostreams::basic_null_device<char,boost::iostreams::input> >
PUBLIC	?open@?$indirect_streambuf@V?$basic_null_device@DUinput@iostreams@boost@@@iostreams@boost@@U?$char_traits@D@std@@V?$allocator@D@5@Uinput@23@@detail@iostreams@boost@@QAEXABV?$basic_null_device@DUinput@iostreams@boost@@@34@HH@Z ; boost::iostreams::detail::indirect_streambuf<boost::iostreams::basic_null_device<char,boost::iostreams::input>,std::char_traits<char>,std::allocator<char>,boost::iostreams::input>::open
PUBLIC	?is_open@?$indirect_streambuf@V?$basic_null_device@DUinput@iostreams@boost@@@iostreams@boost@@U?$char_traits@D@std@@V?$allocator@D@5@Uinput@23@@detail@iostreams@boost@@QBE_NXZ ; boost::iostreams::detail::indirect_streambuf<boost::iostreams::basic_null_device<char,boost::iostreams::input>,std::char_traits<char>,std::allocator<char>,boost::iostreams::input>::is_open
PUBLIC	?open_impl@?$stream_buffer@V?$basic_null_device@DUinput@iostreams@boost@@@iostreams@boost@@U?$char_traits@D@std@@V?$allocator@D@5@Uinput@23@@iostreams@boost@@AAEXABV?$basic_null_device@DUinput@iostreams@boost@@@23@HH@Z ; boost::iostreams::stream_buffer<boost::iostreams::basic_null_device<char,boost::iostreams::input>,std::char_traits<char>,std::allocator<char>,boost::iostreams::input>::open_impl
PUBLIC	??$wrap@V?$basic_null_device@DUinput@iostreams@boost@@@iostreams@boost@@@detail@iostreams@boost@@YA?AV?$basic_null_device@DUinput@iostreams@boost@@@12@ABV312@PAX@Z ; boost::iostreams::detail::wrap<boost::iostreams::basic_null_device<char,boost::iostreams::input> >
PUBLIC	?open@?$stream_buffer@V?$basic_null_device@DUinput@iostreams@boost@@@iostreams@boost@@U?$char_traits@D@std@@V?$allocator@D@5@Uinput@23@@iostreams@boost@@QAEXABV?$basic_null_device@DUinput@iostreams@boost@@@23@HH@Z ; boost::iostreams::stream_buffer<boost::iostreams::basic_null_device<char,boost::iostreams::input>,std::char_traits<char>,std::allocator<char>,boost::iostreams::input>::open
PUBLIC	??0closer@?$chain_base@V?$chain@Uinput@iostreams@boost@@DU?$char_traits@D@std@@V?$allocator@D@5@@iostreams@boost@@DU?$char_traits@D@std@@V?$allocator@D@5@Uinput@23@@detail@iostreams@boost@@QAE@H@Z ; boost::iostreams::detail::chain_base<boost::iostreams::chain<boost::iostreams::input,char,std::char_traits<char>,std::allocator<char> >,char,std::char_traits<char>,std::allocator<char>,boost::iostreams::input>::closer::closer
PUBLIC	??D?$_Revranit@V?$_Iterator@$00@?$list@PAV?$linked_streambuf@DU?$char_traits@D@std@@@detail@iostreams@boost@@V?$allocator@PAV?$linked_streambuf@DU?$char_traits@D@std@@@detail@iostreams@boost@@@std@@@std@@U?$iterator@Ubidirectional_iterator_tag@std@@PAV?$linked_streambuf@DU?$char_traits@D@std@@@detail@iostreams@boost@@HPAPAV3456@AAPAV3456@@3@@std@@QBEAAPAV?$linked_streambuf@DU?$char_traits@D@std@@@detail@iostreams@boost@@XZ ; std::_Revranit<std::list<boost::iostreams::detail::linked_streambuf<char,std::char_traits<char> > *,std::allocator<boost::iostreams::detail::linked_streambuf<char,std::char_traits<char> > *> >::_Iterator<1>,std::iterator<std::bidirectional_iterator_tag,boost::iostreams::detail::linked_streambuf<char,std::char_traits<char> > *,int,boost::iostreams::detail::linked_streambuf<char,std::char_traits<char> > * *,boost::iostreams::detail::linked_streambuf<char,std::char_traits<char> > * &> >::operator*
PUBLIC	?_Prevnode@?$list@PAV?$linked_streambuf@DU?$char_traits@D@std@@@detail@iostreams@boost@@V?$allocator@PAV?$linked_streambuf@DU?$char_traits@D@std@@@detail@iostreams@boost@@@std@@@std@@KAAAPAU_Node@?$_List_nod@PAV?$linked_streambuf@DU?$char_traits@D@std@@@detail@iostreams@boost@@V?$allocator@PAV?$linked_streambuf@DU?$char_traits@D@std@@@detail@iostreams@boost@@@std@@@2@PAU342@@Z ; std::list<boost::iostreams::detail::linked_streambuf<char,std::char_traits<char> > *,std::allocator<boost::iostreams::detail::linked_streambuf<char,std::char_traits<char> > *> >::_Prevnode
PUBLIC	??F?$_Const_iterator@$00@?$list@PAV?$linked_streambuf@DU?$char_traits@D@std@@@detail@iostreams@boost@@V?$allocator@PAV?$linked_streambuf@DU?$char_traits@D@std@@@detail@iostreams@boost@@@std@@@std@@QAEAAV012@XZ ; std::list<boost::iostreams::detail::linked_streambuf<char,std::char_traits<char> > *,std::allocator<boost::iostreams::detail::linked_streambuf<char,std::char_traits<char> > *> >::_Const_iterator<1>::operator--
PUBLIC	??F?$_Iterator@$00@?$list@PAV?$linked_streambuf@DU?$char_traits@D@std@@@detail@iostreams@boost@@V?$allocator@PAV?$linked_streambuf@DU?$char_traits@D@std@@@detail@iostreams@boost@@@std@@@std@@QAEAAV012@XZ ; std::list<boost::iostreams::detail::linked_streambuf<char,std::char_traits<char> > *,std::allocator<boost::iostreams::detail::linked_streambuf<char,std::char_traits<char> > *> >::_Iterator<1>::operator--
