; Listing generated by Microsoft (R) Optimizing Compiler Version 15.00.30729.01 

	TITLE	c:\Users\CriuS\Documents\Visual Studio 2008\Projects\DRAMsimIIhg\src\reporting\soapC.cpp
	.686P
	.XMM
	include listing.inc
	.model	flat

INCLUDELIB OLDNAMES

PUBLIC	??_E_ns2__getSettingsFileResponseElement@@UAEPAXI@Z ; _ns2__getSettingsFileResponseElement::`vector deleting destructor'
PUBLIC	?soap_in@_ns2__getSettingsFileResponseElement@@UAEPAXPAUsoap@@PBD1@Z ; _ns2__getSettingsFileResponseElement::soap_in
PUBLIC	?soap_get@_ns2__getSettingsFileResponseElement@@UAEPAXPAUsoap@@PBD1@Z ; _ns2__getSettingsFileResponseElement::soap_get
PUBLIC	?soap_out@_ns2__getSettingsFileResponseElement@@UBEHPAUsoap@@PBDH1@Z ; _ns2__getSettingsFileResponseElement::soap_out
PUBLIC	?soap_put@_ns2__getSettingsFileResponseElement@@UBEHPAUsoap@@PBD1@Z ; _ns2__getSettingsFileResponseElement::soap_put
PUBLIC	?soap_serialize@_ns2__getSettingsFileResponseElement@@UBEXPAUsoap@@@Z ; _ns2__getSettingsFileResponseElement::soap_serialize
PUBLIC	?soap_default@_ns2__getSettingsFileResponseElement@@UAEXPAUsoap@@@Z ; _ns2__getSettingsFileResponseElement::soap_default
PUBLIC	??_R4_ns2__getSettingsFileResponseElement@@6B@	; _ns2__getSettingsFileResponseElement::`RTTI Complete Object Locator'
PUBLIC	??_R3_ns2__getSettingsFileResponseElement@@8	; _ns2__getSettingsFileResponseElement::`RTTI Class Hierarchy Descriptor'
PUBLIC	??_R2_ns2__getSettingsFileResponseElement@@8	; _ns2__getSettingsFileResponseElement::`RTTI Base Class Array'
PUBLIC	??_R1A@?0A@EA@_ns2__getSettingsFileResponseElement@@8 ; _ns2__getSettingsFileResponseElement::`RTTI Base Class Descriptor at (0,-1,0,64)'
PUBLIC	??_R0?AV_ns2__getSettingsFileResponseElement@@@8 ; _ns2__getSettingsFileResponseElement `RTTI Type Descriptor'
PUBLIC	??_E_ns2__getSettingsFileElement@@UAEPAXI@Z	; _ns2__getSettingsFileElement::`vector deleting destructor'
PUBLIC	?soap_in@_ns2__getSettingsFileElement@@UAEPAXPAUsoap@@PBD1@Z ; _ns2__getSettingsFileElement::soap_in
PUBLIC	?soap_get@_ns2__getSettingsFileElement@@UAEPAXPAUsoap@@PBD1@Z ; _ns2__getSettingsFileElement::soap_get
PUBLIC	?soap_out@_ns2__getSettingsFileElement@@UBEHPAUsoap@@PBDH1@Z ; _ns2__getSettingsFileElement::soap_out
PUBLIC	?soap_put@_ns2__getSettingsFileElement@@UBEHPAUsoap@@PBD1@Z ; _ns2__getSettingsFileElement::soap_put
PUBLIC	?soap_serialize@_ns2__getSettingsFileElement@@UBEXPAUsoap@@@Z ; _ns2__getSettingsFileElement::soap_serialize
PUBLIC	?soap_default@_ns2__getSettingsFileElement@@UAEXPAUsoap@@@Z ; _ns2__getSettingsFileElement::soap_default
PUBLIC	??_R4_ns2__getSettingsFileElement@@6B@		; _ns2__getSettingsFileElement::`RTTI Complete Object Locator'
PUBLIC	??_R3_ns2__getSettingsFileElement@@8		; _ns2__getSettingsFileElement::`RTTI Class Hierarchy Descriptor'
PUBLIC	??_R2_ns2__getSettingsFileElement@@8		; _ns2__getSettingsFileElement::`RTTI Base Class Array'
PUBLIC	??_R1A@?0A@EA@_ns2__getSettingsFileElement@@8	; _ns2__getSettingsFileElement::`RTTI Base Class Descriptor at (0,-1,0,64)'
PUBLIC	??_R0?AV_ns2__getSettingsFileElement@@@8	; _ns2__getSettingsFileElement `RTTI Type Descriptor'
PUBLIC	??_E_ns2__getSessionIDResponseElement@@UAEPAXI@Z ; _ns2__getSessionIDResponseElement::`vector deleting destructor'
PUBLIC	?soap_in@_ns2__getSessionIDResponseElement@@UAEPAXPAUsoap@@PBD1@Z ; _ns2__getSessionIDResponseElement::soap_in
PUBLIC	?soap_get@_ns2__getSessionIDResponseElement@@UAEPAXPAUsoap@@PBD1@Z ; _ns2__getSessionIDResponseElement::soap_get
PUBLIC	?soap_out@_ns2__getSessionIDResponseElement@@UBEHPAUsoap@@PBDH1@Z ; _ns2__getSessionIDResponseElement::soap_out
PUBLIC	?soap_put@_ns2__getSessionIDResponseElement@@UBEHPAUsoap@@PBD1@Z ; _ns2__getSessionIDResponseElement::soap_put
PUBLIC	?soap_serialize@_ns2__getSessionIDResponseElement@@UBEXPAUsoap@@@Z ; _ns2__getSessionIDResponseElement::soap_serialize
PUBLIC	?soap_default@_ns2__getSessionIDResponseElement@@UAEXPAUsoap@@@Z ; _ns2__getSessionIDResponseElement::soap_default
PUBLIC	??_R4_ns2__getSessionIDResponseElement@@6B@	; _ns2__getSessionIDResponseElement::`RTTI Complete Object Locator'
PUBLIC	??_R3_ns2__getSessionIDResponseElement@@8	; _ns2__getSessionIDResponseElement::`RTTI Class Hierarchy Descriptor'
PUBLIC	??_R2_ns2__getSessionIDResponseElement@@8	; _ns2__getSessionIDResponseElement::`RTTI Base Class Array'
PUBLIC	??_R1A@?0A@EA@_ns2__getSessionIDResponseElement@@8 ; _ns2__getSessionIDResponseElement::`RTTI Base Class Descriptor at (0,-1,0,64)'
PUBLIC	??_R0?AV_ns2__getSessionIDResponseElement@@@8	; _ns2__getSessionIDResponseElement `RTTI Type Descriptor'
PUBLIC	??_E_ns2__getSessionIDElement@@UAEPAXI@Z	; _ns2__getSessionIDElement::`vector deleting destructor'
PUBLIC	?soap_in@_ns2__getSessionIDElement@@UAEPAXPAUsoap@@PBD1@Z ; _ns2__getSessionIDElement::soap_in
PUBLIC	?soap_get@_ns2__getSessionIDElement@@UAEPAXPAUsoap@@PBD1@Z ; _ns2__getSessionIDElement::soap_get
PUBLIC	?soap_out@_ns2__getSessionIDElement@@UBEHPAUsoap@@PBDH1@Z ; _ns2__getSessionIDElement::soap_out
PUBLIC	?soap_put@_ns2__getSessionIDElement@@UBEHPAUsoap@@PBD1@Z ; _ns2__getSessionIDElement::soap_put
PUBLIC	?soap_serialize@_ns2__getSessionIDElement@@UBEXPAUsoap@@@Z ; _ns2__getSessionIDElement::soap_serialize
PUBLIC	?soap_default@_ns2__getSessionIDElement@@UAEXPAUsoap@@@Z ; _ns2__getSessionIDElement::soap_default
PUBLIC	??_R4_ns2__getSessionIDElement@@6B@		; _ns2__getSessionIDElement::`RTTI Complete Object Locator'
PUBLIC	??_R3_ns2__getSessionIDElement@@8		; _ns2__getSessionIDElement::`RTTI Class Hierarchy Descriptor'
PUBLIC	??_R2_ns2__getSessionIDElement@@8		; _ns2__getSessionIDElement::`RTTI Base Class Array'
PUBLIC	??_R1A@?0A@EA@_ns2__getSessionIDElement@@8	; _ns2__getSessionIDElement::`RTTI Base Class Descriptor at (0,-1,0,64)'
PUBLIC	??_R0?AV_ns2__getSessionIDElement@@@8		; _ns2__getSessionIDElement `RTTI Type Descriptor'
PUBLIC	??_Exsd__string@@UAEPAXI@Z			; xsd__string::`vector deleting destructor'
PUBLIC	?soap_in@xsd__string@@UAEPAXPAUsoap@@PBD1@Z	; xsd__string::soap_in
PUBLIC	?soap_get@xsd__string@@UAEPAXPAUsoap@@PBD1@Z	; xsd__string::soap_get
PUBLIC	?soap_out@xsd__string@@UBEHPAUsoap@@PBDH1@Z	; xsd__string::soap_out
PUBLIC	?soap_put@xsd__string@@UBEHPAUsoap@@PBD1@Z	; xsd__string::soap_put
PUBLIC	?soap_serialize@xsd__string@@UBEXPAUsoap@@@Z	; xsd__string::soap_serialize
PUBLIC	?soap_default@xsd__string@@UAEXPAUsoap@@@Z	; xsd__string::soap_default
PUBLIC	??_R4xsd__string@@6B@				; xsd__string::`RTTI Complete Object Locator'
PUBLIC	??_R3xsd__string@@8				; xsd__string::`RTTI Class Hierarchy Descriptor'
PUBLIC	??_R2xsd__string@@8				; xsd__string::`RTTI Base Class Array'
PUBLIC	??_R1A@?0A@EA@xsd__string@@8			; xsd__string::`RTTI Base Class Descriptor at (0,-1,0,64)'
PUBLIC	??_R0?AVxsd__string@@@8				; xsd__string `RTTI Type Descriptor'
PUBLIC	??_Exsd__long@@UAEPAXI@Z			; xsd__long::`vector deleting destructor'
PUBLIC	?soap_in@xsd__long@@UAEPAXPAUsoap@@PBD1@Z	; xsd__long::soap_in
PUBLIC	?soap_get@xsd__long@@UAEPAXPAUsoap@@PBD1@Z	; xsd__long::soap_get
PUBLIC	?soap_out@xsd__long@@UBEHPAUsoap@@PBDH1@Z	; xsd__long::soap_out
PUBLIC	?soap_put@xsd__long@@UBEHPAUsoap@@PBD1@Z	; xsd__long::soap_put
PUBLIC	?soap_serialize@xsd__long@@UBEXPAUsoap@@@Z	; xsd__long::soap_serialize
PUBLIC	?soap_default@xsd__long@@UAEXPAUsoap@@@Z	; xsd__long::soap_default
PUBLIC	??_R4xsd__long@@6B@				; xsd__long::`RTTI Complete Object Locator'
PUBLIC	??_R3xsd__long@@8				; xsd__long::`RTTI Class Hierarchy Descriptor'
PUBLIC	??_R2xsd__long@@8				; xsd__long::`RTTI Base Class Array'
PUBLIC	??_R1A@?0A@EA@xsd__long@@8			; xsd__long::`RTTI Base Class Descriptor at (0,-1,0,64)'
PUBLIC	??_R0?AVxsd__long@@@8				; xsd__long `RTTI Type Descriptor'
PUBLIC	??_Exsd__int@@UAEPAXI@Z				; xsd__int::`vector deleting destructor'
PUBLIC	?soap_in@xsd__int@@UAEPAXPAUsoap@@PBD1@Z	; xsd__int::soap_in
PUBLIC	?soap_get@xsd__int@@UAEPAXPAUsoap@@PBD1@Z	; xsd__int::soap_get
PUBLIC	?soap_out@xsd__int@@UBEHPAUsoap@@PBDH1@Z	; xsd__int::soap_out
PUBLIC	?soap_put@xsd__int@@UBEHPAUsoap@@PBD1@Z		; xsd__int::soap_put
PUBLIC	?soap_serialize@xsd__int@@UBEXPAUsoap@@@Z	; xsd__int::soap_serialize
PUBLIC	?soap_default@xsd__int@@UAEXPAUsoap@@@Z		; xsd__int::soap_default
PUBLIC	??_R4xsd__int@@6B@				; xsd__int::`RTTI Complete Object Locator'
PUBLIC	??_R3xsd__int@@8				; xsd__int::`RTTI Class Hierarchy Descriptor'
PUBLIC	??_R2xsd__int@@8				; xsd__int::`RTTI Base Class Array'
PUBLIC	??_R1A@?0A@EA@xsd__int@@8			; xsd__int::`RTTI Base Class Descriptor at (0,-1,0,64)'
PUBLIC	??_R0?AVxsd__int@@@8				; xsd__int `RTTI Type Descriptor'
PUBLIC	??_Exsd__float@@UAEPAXI@Z			; xsd__float::`vector deleting destructor'
PUBLIC	?soap_in@xsd__float@@UAEPAXPAUsoap@@PBD1@Z	; xsd__float::soap_in
PUBLIC	?soap_get@xsd__float@@UAEPAXPAUsoap@@PBD1@Z	; xsd__float::soap_get
PUBLIC	?soap_out@xsd__float@@UBEHPAUsoap@@PBDH1@Z	; xsd__float::soap_out
PUBLIC	?soap_put@xsd__float@@UBEHPAUsoap@@PBD1@Z	; xsd__float::soap_put
PUBLIC	?soap_serialize@xsd__float@@UBEXPAUsoap@@@Z	; xsd__float::soap_serialize
PUBLIC	?soap_default@xsd__float@@UAEXPAUsoap@@@Z	; xsd__float::soap_default
PUBLIC	??_R4xsd__float@@6B@				; xsd__float::`RTTI Complete Object Locator'
PUBLIC	??_R3xsd__float@@8				; xsd__float::`RTTI Class Hierarchy Descriptor'
PUBLIC	??_R2xsd__float@@8				; xsd__float::`RTTI Base Class Array'
PUBLIC	??_R1A@?0A@EA@xsd__float@@8			; xsd__float::`RTTI Base Class Descriptor at (0,-1,0,64)'
PUBLIC	??_R0?AVxsd__float@@@8				; xsd__float `RTTI Type Descriptor'
PUBLIC	??_Exsd__boolean@@UAEPAXI@Z			; xsd__boolean::`vector deleting destructor'
PUBLIC	?soap_in@xsd__boolean@@UAEPAXPAUsoap@@PBD1@Z	; xsd__boolean::soap_in
PUBLIC	?soap_get@xsd__boolean@@UAEPAXPAUsoap@@PBD1@Z	; xsd__boolean::soap_get
PUBLIC	?soap_out@xsd__boolean@@UBEHPAUsoap@@PBDH1@Z	; xsd__boolean::soap_out
PUBLIC	?soap_put@xsd__boolean@@UBEHPAUsoap@@PBD1@Z	; xsd__boolean::soap_put
PUBLIC	?soap_serialize@xsd__boolean@@UBEXPAUsoap@@@Z	; xsd__boolean::soap_serialize
PUBLIC	?soap_default@xsd__boolean@@UAEXPAUsoap@@@Z	; xsd__boolean::soap_default
PUBLIC	??_R4xsd__boolean@@6B@				; xsd__boolean::`RTTI Complete Object Locator'
PUBLIC	??_R3xsd__boolean@@8				; xsd__boolean::`RTTI Class Hierarchy Descriptor'
PUBLIC	??_R2xsd__boolean@@8				; xsd__boolean::`RTTI Base Class Array'
PUBLIC	??_R1A@?0A@EA@xsd__boolean@@8			; xsd__boolean::`RTTI Base Class Descriptor at (0,-1,0,64)'
PUBLIC	??_R0?AVxsd__boolean@@@8			; xsd__boolean `RTTI Type Descriptor'
PUBLIC	??_Exsd__anyType@@UAEPAXI@Z			; xsd__anyType::`vector deleting destructor'
PUBLIC	?soap_in@xsd__anyType@@UAEPAXPAUsoap@@PBD1@Z	; xsd__anyType::soap_in
PUBLIC	?soap_get@xsd__anyType@@UAEPAXPAUsoap@@PBD1@Z	; xsd__anyType::soap_get
PUBLIC	?soap_out@xsd__anyType@@UBEHPAUsoap@@PBDH1@Z	; xsd__anyType::soap_out
PUBLIC	?soap_put@xsd__anyType@@UBEHPAUsoap@@PBD1@Z	; xsd__anyType::soap_put
PUBLIC	?soap_serialize@xsd__anyType@@UBEXPAUsoap@@@Z	; xsd__anyType::soap_serialize
PUBLIC	?soap_default@xsd__anyType@@UAEXPAUsoap@@@Z	; xsd__anyType::soap_default
PUBLIC	??_R4xsd__anyType@@6B@				; xsd__anyType::`RTTI Complete Object Locator'
PUBLIC	??_R3xsd__anyType@@8				; xsd__anyType::`RTTI Class Hierarchy Descriptor'
PUBLIC	??_R2xsd__anyType@@8				; xsd__anyType::`RTTI Base Class Array'
PUBLIC	??_R1A@?0A@EA@xsd__anyType@@8			; xsd__anyType::`RTTI Base Class Descriptor at (0,-1,0,64)'
PUBLIC	??_R0?AVxsd__anyType@@@8			; xsd__anyType `RTTI Type Descriptor'
PUBLIC	??_E_ns2__submitEpochResultResponseElement@@UAEPAXI@Z ; _ns2__submitEpochResultResponseElement::`vector deleting destructor'
PUBLIC	?soap_in@_ns2__submitEpochResultResponseElement@@UAEPAXPAUsoap@@PBD1@Z ; _ns2__submitEpochResultResponseElement::soap_in
PUBLIC	?soap_get@_ns2__submitEpochResultResponseElement@@UAEPAXPAUsoap@@PBD1@Z ; _ns2__submitEpochResultResponseElement::soap_get
PUBLIC	?soap_out@_ns2__submitEpochResultResponseElement@@UBEHPAUsoap@@PBDH1@Z ; _ns2__submitEpochResultResponseElement::soap_out
PUBLIC	?soap_put@_ns2__submitEpochResultResponseElement@@UBEHPAUsoap@@PBD1@Z ; _ns2__submitEpochResultResponseElement::soap_put
PUBLIC	?soap_serialize@_ns2__submitEpochResultResponseElement@@UBEXPAUsoap@@@Z ; _ns2__submitEpochResultResponseElement::soap_serialize
PUBLIC	?soap_default@_ns2__submitEpochResultResponseElement@@UAEXPAUsoap@@@Z ; _ns2__submitEpochResultResponseElement::soap_default
PUBLIC	??_E_ns2__submitEpochResultElement@@UAEPAXI@Z	; _ns2__submitEpochResultElement::`vector deleting destructor'
PUBLIC	?soap_in@_ns2__submitEpochResultElement@@UAEPAXPAUsoap@@PBD1@Z ; _ns2__submitEpochResultElement::soap_in
PUBLIC	?soap_get@_ns2__submitEpochResultElement@@UAEPAXPAUsoap@@PBD1@Z ; _ns2__submitEpochResultElement::soap_get
PUBLIC	?soap_out@_ns2__submitEpochResultElement@@UBEHPAUsoap@@PBDH1@Z ; _ns2__submitEpochResultElement::soap_out
PUBLIC	?soap_put@_ns2__submitEpochResultElement@@UBEHPAUsoap@@PBD1@Z ; _ns2__submitEpochResultElement::soap_put
PUBLIC	?soap_serialize@_ns2__submitEpochResultElement@@UBEXPAUsoap@@@Z ; _ns2__submitEpochResultElement::soap_serialize
PUBLIC	?soap_default@_ns2__submitEpochResultElement@@UAEXPAUsoap@@@Z ; _ns2__submitEpochResultElement::soap_default
PUBLIC	??_G?$vector@HV?$allocator@H@std@@@std@@QAEPAXI@Z ; std::vector<int,std::allocator<int> >::`scalar deleting destructor'
PUBLIC	??_G?$vector@MV?$allocator@M@std@@@std@@QAEPAXI@Z ; std::vector<float,std::allocator<float> >::`scalar deleting destructor'
PUBLIC	??A?$vector@HV?$allocator@H@std@@@std@@QAEAAHI@Z ; std::vector<int,std::allocator<int> >::operator[]
PUBLIC	??4_ns2__submitEpochResultResponseElement@@QAEAAV0@ABV0@@Z ; _ns2__submitEpochResultResponseElement::operator=
PUBLIC	??4_ns2__submitEpochResultElement@@QAEAAV0@ABV0@@Z ; _ns2__submitEpochResultElement::operator=
PUBLIC	??0_ns2__getSettingsFileResponseElement@@QAE@XZ	; _ns2__getSettingsFileResponseElement::_ns2__getSettingsFileResponseElement
PUBLIC	?soap_type@_ns2__getSettingsFileResponseElement@@UBEHXZ ; _ns2__getSettingsFileResponseElement::soap_type
PUBLIC	??1_ns2__getSettingsFileResponseElement@@UAE@XZ	; _ns2__getSettingsFileResponseElement::~_ns2__getSettingsFileResponseElement
PUBLIC	??4_ns2__getSettingsFileResponseElement@@QAEAAV0@ABV0@@Z ; _ns2__getSettingsFileResponseElement::operator=
PUBLIC	??0_ns2__getSettingsFileElement@@QAE@XZ		; _ns2__getSettingsFileElement::_ns2__getSettingsFileElement
PUBLIC	?soap_type@_ns2__getSettingsFileElement@@UBEHXZ	; _ns2__getSettingsFileElement::soap_type
PUBLIC	??1_ns2__getSettingsFileElement@@UAE@XZ		; _ns2__getSettingsFileElement::~_ns2__getSettingsFileElement
PUBLIC	??4_ns2__getSettingsFileElement@@QAEAAV0@ABV0@@Z ; _ns2__getSettingsFileElement::operator=
PUBLIC	??0_ns2__getSessionIDResponseElement@@QAE@XZ	; _ns2__getSessionIDResponseElement::_ns2__getSessionIDResponseElement
PUBLIC	?soap_type@_ns2__getSessionIDResponseElement@@UBEHXZ ; _ns2__getSessionIDResponseElement::soap_type
PUBLIC	??1_ns2__getSessionIDResponseElement@@UAE@XZ	; _ns2__getSessionIDResponseElement::~_ns2__getSessionIDResponseElement
PUBLIC	??4_ns2__getSessionIDResponseElement@@QAEAAV0@ABV0@@Z ; _ns2__getSessionIDResponseElement::operator=
PUBLIC	??0_ns2__getSessionIDElement@@QAE@XZ		; _ns2__getSessionIDElement::_ns2__getSessionIDElement
PUBLIC	?soap_type@_ns2__getSessionIDElement@@UBEHXZ	; _ns2__getSessionIDElement::soap_type
PUBLIC	??1_ns2__getSessionIDElement@@UAE@XZ		; _ns2__getSessionIDElement::~_ns2__getSessionIDElement
PUBLIC	??4_ns2__getSessionIDElement@@QAEAAV0@ABV0@@Z	; _ns2__getSessionIDElement::operator=
PUBLIC	??4xsd__string@@QAEAAV0@ABV0@@Z			; xsd__string::operator=
PUBLIC	??4xsd__long@@QAEAAV0@ABV0@@Z			; xsd__long::operator=
PUBLIC	??4xsd__int@@QAEAAV0@ABV0@@Z			; xsd__int::operator=
PUBLIC	??4xsd__float@@QAEAAV0@ABV0@@Z			; xsd__float::operator=
PUBLIC	??4xsd__boolean@@QAEAAV0@ABV0@@Z		; xsd__boolean::operator=
PUBLIC	??0xsd__boolean@@QAE@XZ				; xsd__boolean::xsd__boolean
PUBLIC	?soap_type@xsd__boolean@@UBEHXZ			; xsd__boolean::soap_type
PUBLIC	??1xsd__boolean@@UAE@XZ				; xsd__boolean::~xsd__boolean
PUBLIC	??0xsd__float@@QAE@XZ				; xsd__float::xsd__float
PUBLIC	?soap_type@xsd__float@@UBEHXZ			; xsd__float::soap_type
PUBLIC	??1xsd__float@@UAE@XZ				; xsd__float::~xsd__float
PUBLIC	??0xsd__int@@QAE@XZ				; xsd__int::xsd__int
PUBLIC	?soap_type@xsd__int@@UBEHXZ			; xsd__int::soap_type
PUBLIC	??1xsd__int@@UAE@XZ				; xsd__int::~xsd__int
PUBLIC	??0xsd__long@@QAE@XZ				; xsd__long::xsd__long
PUBLIC	?soap_type@xsd__long@@UBEHXZ			; xsd__long::soap_type
PUBLIC	??1xsd__long@@UAE@XZ				; xsd__long::~xsd__long
PUBLIC	??0xsd__anyType@@QAE@XZ				; xsd__anyType::xsd__anyType
PUBLIC	??0xsd__string@@QAE@XZ				; xsd__string::xsd__string
PUBLIC	?soap_type@xsd__string@@UBEHXZ			; xsd__string::soap_type
PUBLIC	??1xsd__string@@UAE@XZ				; xsd__string::~xsd__string
PUBLIC	?soap_type@xsd__anyType@@UBEHXZ			; xsd__anyType::soap_type
PUBLIC	??1xsd__anyType@@UAE@XZ				; xsd__anyType::~xsd__anyType
PUBLIC	??4xsd__anyType@@QAEAAV0@ABV0@@Z		; xsd__anyType::operator=
PUBLIC	?begin@?$vector@MV?$allocator@M@std@@@std@@QBE?AV?$_Vector_const_iterator@MV?$allocator@M@std@@@2@XZ ; std::vector<float,std::allocator<float> >::begin
PUBLIC	?end@?$vector@MV?$allocator@M@std@@@std@@QBE?AV?$_Vector_const_iterator@MV?$allocator@M@std@@@2@XZ ; std::vector<float,std::allocator<float> >::end
PUBLIC	??D?$_Vector_const_iterator@MV?$allocator@M@std@@@std@@QBEABMXZ ; std::_Vector_const_iterator<float,std::allocator<float> >::operator*
PUBLIC	??E?$_Vector_const_iterator@MV?$allocator@M@std@@@std@@QAEAAV01@XZ ; std::_Vector_const_iterator<float,std::allocator<float> >::operator++
PUBLIC	??$_Uninit_move@PAMPAMV?$allocator@M@std@@U_Undefined_move_tag@2@@std@@YAPAMPAM00AAV?$allocator@M@0@U_Undefined_move_tag@0@U_Range_checked_iterator_tag@0@@Z ; std::_Uninit_move<float *,float *,std::allocator<float>,std::_Undefined_move_tag>
PUBLIC	??$_Unchecked_uninitialized_move@PAMPAMV?$allocator@M@std@@@stdext@@YAPAMPAM00AAV?$allocator@M@std@@@Z ; stdext::_Unchecked_uninitialized_move<float *,float *,std::allocator<float> >
PUBLIC	??$_Umove@PAM@?$vector@MV?$allocator@M@std@@@std@@IAEPAMPAM00@Z ; std::vector<float,std::allocator<float> >::_Umove<float *>
PUBLIC	??$_Fill@PAMM@std@@YAXPAM0ABM@Z			; std::_Fill<float *,float>
PUBLIC	??$fill@PAMM@std@@YAXPAM0ABM@Z			; std::fill<float *,float>
PUBLIC	??$_Move_cat@PAM@std@@YA?AU_Undefined_move_tag@0@ABQAM@Z ; std::_Move_cat<float *>
PUBLIC	??$_Copy_backward_opt@PAMPAMUrandom_access_iterator_tag@std@@@std@@YAPAMPAM00Urandom_access_iterator_tag@0@U_Scalar_ptr_iterator_tag@0@U_Range_checked_iterator_tag@0@@Z ; std::_Copy_backward_opt<float *,float *,std::random_access_iterator_tag>
PUBLIC	??$_Move_backward_opt@PAMPAMUrandom_access_iterator_tag@std@@U_Undefined_move_tag@2@@std@@YAPAMPAM00Urandom_access_iterator_tag@0@U_Undefined_move_tag@0@U_Range_checked_iterator_tag@0@@Z ; std::_Move_backward_opt<float *,float *,std::random_access_iterator_tag,std::_Undefined_move_tag>
PUBLIC	??$_Unchecked_move_backward@PAMPAM@stdext@@YAPAMPAM00@Z ; stdext::_Unchecked_move_backward<float *,float *>
PUBLIC	?_Insert_n@?$vector@MV?$allocator@M@std@@@std@@IAEXV?$_Vector_const_iterator@MV?$allocator@M@std@@@2@IABM@Z ; std::vector<float,std::allocator<float> >::_Insert_n
PUBLIC	??G?$_Vector_const_iterator@MV?$allocator@M@std@@@std@@QBEHABV01@@Z ; std::_Vector_const_iterator<float,std::allocator<float> >::operator-
PUBLIC	??Y?$_Vector_const_iterator@MV?$allocator@M@std@@@std@@QAEAAV01@H@Z ; std::_Vector_const_iterator<float,std::allocator<float> >::operator+=
PUBLIC	??Y?$_Vector_iterator@MV?$allocator@M@std@@@std@@QAEAAV01@H@Z ; std::_Vector_iterator<float,std::allocator<float> >::operator+=
PUBLIC	??H?$_Vector_iterator@MV?$allocator@M@std@@@std@@QBE?AV01@H@Z ; std::_Vector_iterator<float,std::allocator<float> >::operator+
PUBLIC	?insert@?$vector@MV?$allocator@M@std@@@std@@QAE?AV?$_Vector_iterator@MV?$allocator@M@std@@@2@V?$_Vector_const_iterator@MV?$allocator@M@std@@@2@ABM@Z ; std::vector<float,std::allocator<float> >::insert
PUBLIC	?push_back@?$vector@MV?$allocator@M@std@@@std@@QAEXABM@Z ; std::vector<float,std::allocator<float> >::push_back
PUBLIC	??D?$_Vector_const_iterator@HV?$allocator@H@std@@@std@@QBEABHXZ ; std::_Vector_const_iterator<int,std::allocator<int> >::operator*
PUBLIC	??E?$_Vector_const_iterator@HV?$allocator@H@std@@@std@@QAEAAV01@XZ ; std::_Vector_const_iterator<int,std::allocator<int> >::operator++
PUBLIC	??_C@_0BA@GBPDPHCK@SOAP?9ENV?3Header?$AA@	; `string'
PUBLIC	??_C@_0P@GLDIJMBO@SOAP?9ENV?3Fault?$AA@		; `string'
PUBLIC	??_C@_08BEPNMEIH@xsd?3byte?$AA@			; `string'
PUBLIC	??_C@_07PCIGPDP@xsd?3int?$AA@			; `string'
PUBLIC	??_C@_08PNDIDGIB@xsd?3long?$AA@			; `string'
PUBLIC	??_C@_09ILBLHFBD@xsd?3float?$AA@		; `string'
PUBLIC	??_C@_0M@FGHMEICI@xsd?3boolean?$AA@		; `string'
PUBLIC	??_C@_0L@DIJPMJCO@xsd?3string?$AA@		; `string'
PUBLIC	??_C@_0M@NOIFKOBF@xsd?3anyType?$AA@		; `string'
PUBLIC	??_C@_0CF@HCKJIEH@ns2?3submitEpochResultResponseEle@ ; `string'
PUBLIC	??_C@_0BN@LEHNEPKC@ns2?3submitEpochResultElement?$AA@ ; `string'
PUBLIC	??_C@_0CD@GADHDKNA@ns2?3getSettingsFileResponseEleme@ ; `string'
PUBLIC	??_C@_0BL@EBHOCBLE@ns2?3getSettingsFileElement?$AA@ ; `string'
PUBLIC	??_C@_0CA@KPMHIEOJ@ns2?3getSessionIDResponseElement?$AA@ ; `string'
PUBLIC	??_C@_0BI@CHGDHCPP@ns2?3getSessionIDElement?$AA@ ; `string'
PUBLIC	??_C@_09JDHJJDCF@xsd?3QName?$AA@		; `string'
PUBLIC	??_C@_09JEONCPHE@SOAP?9ENV?3?$AA@		; `string'
PUBLIC	??_C@_02EGCJHIOB@id?$AA@			; `string'
PUBLIC	??_C@_08FGCKPNBL@?3boolean?$AA@			; `string'
PUBLIC	??_C@_0L@FEKNHBLL@ns2?3result?$AA@		; `string'
PUBLIC	??_C@_0N@EOBKMJFL@ns2?3String_1?$AA@		; `string'
PUBLIC	??_C@_09LGLKGPMP@ns2?3int_2?$AA@		; `string'
PUBLIC	??_C@_0BB@FGDEMAEK@ns2?3arrayOfint_3?$AA@	; `string'
PUBLIC	??_C@_0BB@BJHFFGIN@ns2?3arrayOfint_4?$AA@	; `string'
PUBLIC	??_C@_0BD@GLFPAPIO@ns2?3arrayOffloat_5?$AA@	; `string'
PUBLIC	??_C@_0BD@EAHCFMEN@ns2?3arrayOffloat_6?$AA@	; `string'
PUBLIC	??_C@_0M@OBEIDIJA@ns2?3float_7?$AA@		; `string'
PUBLIC	??_C@_0M@GGNACEFP@ns2?3float_8?$AA@		; `string'
PUBLIC	??_C@_09JNJHDMAM@ns2?3int_1?$AA@		; `string'
PUBLIC	??_C@_09FJACJGDN@faultcode?$AA@			; `string'
PUBLIC	??_C@_0M@LAMIIPIL@faultstring?$AA@		; `string'
PUBLIC	??_C@_0L@JAIOMLLA@faultactor?$AA@		; `string'
PUBLIC	??_C@_06EENFNEPD@detail?$AA@			; `string'
PUBLIC	??_C@_0O@OALMNFDI@SOAP?9ENV?3Code?$AA@		; `string'
PUBLIC	??_C@_0BA@IEHDIDAH@SOAP?9ENV?3Reason?$AA@	; `string'
PUBLIC	??_C@_0O@BICMBBIJ@SOAP?9ENV?3Node?$AA@		; `string'
PUBLIC	??_C@_0O@LDCPDKLC@SOAP?9ENV?3Role?$AA@		; `string'
PUBLIC	??_C@_0BA@OENGLDCF@SOAP?9ENV?3Detail?$AA@	; `string'
PUBLIC	??_C@_0O@BLCEAHMK@SOAP?9ENV?3Text?$AA@		; `string'
PUBLIC	??_C@_05GCLNDCPO@fault?$AA@			; `string'
PUBLIC	??_C@_04DPKCFHKE@?9any?$AA@			; `string'
PUBLIC	??_C@_0P@FNBDNHP@SOAP?9ENV?3Value?$AA@		; `string'
PUBLIC	??_C@_0BB@MGPNIFGI@SOAP?9ENV?3Subcode?$AA@	; `string'
PUBLIC	??_7xsd__anyType@@6B@				; xsd__anyType::`vftable'
PUBLIC	??_7xsd__boolean@@6B@				; xsd__boolean::`vftable'
PUBLIC	??_7xsd__float@@6B@				; xsd__float::`vftable'
PUBLIC	??_7xsd__int@@6B@				; xsd__int::`vftable'
PUBLIC	??_7xsd__long@@6B@				; xsd__long::`vftable'
PUBLIC	??_7xsd__string@@6B@				; xsd__string::`vftable'
PUBLIC	??_7_ns2__getSessionIDElement@@6B@		; _ns2__getSessionIDElement::`vftable'
PUBLIC	??_7_ns2__getSessionIDResponseElement@@6B@	; _ns2__getSessionIDResponseElement::`vftable'
PUBLIC	??_7_ns2__getSettingsFileElement@@6B@		; _ns2__getSettingsFileElement::`vftable'
PUBLIC	??_7_ns2__getSettingsFileResponseElement@@6B@	; _ns2__getSettingsFileResponseElement::`vftable'
EXTRN	??_M@YGXPAXIHP6EX0@Z@Z:PROC			; `eh vector destructor iterator'
EXTRN	??_L@YGXPAXIHP6EX0@Z1@Z:PROC			; `eh vector constructor iterator'
;	COMDAT ??_7_ns2__getSettingsFileResponseElement@@6B@
CONST	SEGMENT
??_7_ns2__getSettingsFileResponseElement@@6B@ DD FLAT:??_R4_ns2__getSettingsFileResponseElement@@6B@ ; _ns2__getSettingsFileResponseElement::`vftable'
	DD	FLAT:?soap_type@_ns2__getSettingsFileResponseElement@@UBEHXZ
	DD	FLAT:?soap_default@_ns2__getSettingsFileResponseElement@@UAEXPAUsoap@@@Z
	DD	FLAT:?soap_serialize@_ns2__getSettingsFileResponseElement@@UBEXPAUsoap@@@Z
	DD	FLAT:?soap_put@_ns2__getSettingsFileResponseElement@@UBEHPAUsoap@@PBD1@Z
	DD	FLAT:?soap_out@_ns2__getSettingsFileResponseElement@@UBEHPAUsoap@@PBDH1@Z
	DD	FLAT:?soap_get@_ns2__getSettingsFileResponseElement@@UAEPAXPAUsoap@@PBD1@Z
	DD	FLAT:?soap_in@_ns2__getSettingsFileResponseElement@@UAEPAXPAUsoap@@PBD1@Z
	DD	FLAT:??_E_ns2__getSettingsFileResponseElement@@UAEPAXI@Z
CONST	ENDS
;	COMDAT ??_R4_ns2__getSettingsFileResponseElement@@6B@
rdata$r	SEGMENT
??_R4_ns2__getSettingsFileResponseElement@@6B@ DD 00H	; _ns2__getSettingsFileResponseElement::`RTTI Complete Object Locator'
	DD	00H
	DD	00H
	DD	FLAT:??_R0?AV_ns2__getSettingsFileResponseElement@@@8
	DD	FLAT:??_R3_ns2__getSettingsFileResponseElement@@8
rdata$r	ENDS
;	COMDAT ??_R3_ns2__getSettingsFileResponseElement@@8
rdata$r	SEGMENT
??_R3_ns2__getSettingsFileResponseElement@@8 DD 00H	; _ns2__getSettingsFileResponseElement::`RTTI Class Hierarchy Descriptor'
	DD	00H
	DD	01H
	DD	FLAT:??_R2_ns2__getSettingsFileResponseElement@@8
rdata$r	ENDS
;	COMDAT ??_R2_ns2__getSettingsFileResponseElement@@8
rdata$r	SEGMENT
??_R2_ns2__getSettingsFileResponseElement@@8 DD FLAT:??_R1A@?0A@EA@_ns2__getSettingsFileResponseElement@@8 ; _ns2__getSettingsFileResponseElement::`RTTI Base Class Array'
rdata$r	ENDS
;	COMDAT ??_R1A@?0A@EA@_ns2__getSettingsFileResponseElement@@8
rdata$r	SEGMENT
??_R1A@?0A@EA@_ns2__getSettingsFileResponseElement@@8 DD FLAT:??_R0?AV_ns2__getSettingsFileResponseElement@@@8 ; _ns2__getSettingsFileResponseElement::`RTTI Base Class Descriptor at (0,-1,0,64)'
	DD	00H
	DD	00H
	DD	0ffffffffH
	DD	00H
	DD	040H
	DD	FLAT:??_R3_ns2__getSettingsFileResponseElement@@8
rdata$r	ENDS
;	COMDAT ??_R0?AV_ns2__getSettingsFileResponseElement@@@8
_DATA	SEGMENT
??_R0?AV_ns2__getSettingsFileResponseElement@@@8 DD FLAT:??_7type_info@@6B@ ; _ns2__getSettingsFileResponseElement `RTTI Type Descriptor'
	DD	00H
	DB	'.?AV_ns2__getSettingsFileResponseElement@@', 00H
_DATA	ENDS
;	COMDAT ??_7_ns2__getSettingsFileElement@@6B@
CONST	SEGMENT
??_7_ns2__getSettingsFileElement@@6B@ DD FLAT:??_R4_ns2__getSettingsFileElement@@6B@ ; _ns2__getSettingsFileElement::`vftable'
	DD	FLAT:?soap_type@_ns2__getSettingsFileElement@@UBEHXZ
	DD	FLAT:?soap_default@_ns2__getSettingsFileElement@@UAEXPAUsoap@@@Z
	DD	FLAT:?soap_serialize@_ns2__getSettingsFileElement@@UBEXPAUsoap@@@Z
	DD	FLAT:?soap_put@_ns2__getSettingsFileElement@@UBEHPAUsoap@@PBD1@Z
	DD	FLAT:?soap_out@_ns2__getSettingsFileElement@@UBEHPAUsoap@@PBDH1@Z
	DD	FLAT:?soap_get@_ns2__getSettingsFileElement@@UAEPAXPAUsoap@@PBD1@Z
	DD	FLAT:?soap_in@_ns2__getSettingsFileElement@@UAEPAXPAUsoap@@PBD1@Z
	DD	FLAT:??_E_ns2__getSettingsFileElement@@UAEPAXI@Z
CONST	ENDS
;	COMDAT ??_R4_ns2__getSettingsFileElement@@6B@
rdata$r	SEGMENT
??_R4_ns2__getSettingsFileElement@@6B@ DD 00H		; _ns2__getSettingsFileElement::`RTTI Complete Object Locator'
	DD	00H
	DD	00H
	DD	FLAT:??_R0?AV_ns2__getSettingsFileElement@@@8
	DD	FLAT:??_R3_ns2__getSettingsFileElement@@8
rdata$r	ENDS
;	COMDAT ??_R3_ns2__getSettingsFileElement@@8
rdata$r	SEGMENT
??_R3_ns2__getSettingsFileElement@@8 DD 00H		; _ns2__getSettingsFileElement::`RTTI Class Hierarchy Descriptor'
	DD	00H
	DD	01H
	DD	FLAT:??_R2_ns2__getSettingsFileElement@@8
rdata$r	ENDS
;	COMDAT ??_R2_ns2__getSettingsFileElement@@8
rdata$r	SEGMENT
??_R2_ns2__getSettingsFileElement@@8 DD FLAT:??_R1A@?0A@EA@_ns2__getSettingsFileElement@@8 ; _ns2__getSettingsFileElement::`RTTI Base Class Array'
rdata$r	ENDS
;	COMDAT ??_R1A@?0A@EA@_ns2__getSettingsFileElement@@8
rdata$r	SEGMENT
??_R1A@?0A@EA@_ns2__getSettingsFileElement@@8 DD FLAT:??_R0?AV_ns2__getSettingsFileElement@@@8 ; _ns2__getSettingsFileElement::`RTTI Base Class Descriptor at (0,-1,0,64)'
	DD	00H
	DD	00H
	DD	0ffffffffH
	DD	00H
	DD	040H
	DD	FLAT:??_R3_ns2__getSettingsFileElement@@8
rdata$r	ENDS
;	COMDAT ??_R0?AV_ns2__getSettingsFileElement@@@8
_DATA	SEGMENT
??_R0?AV_ns2__getSettingsFileElement@@@8 DD FLAT:??_7type_info@@6B@ ; _ns2__getSettingsFileElement `RTTI Type Descriptor'
	DD	00H
	DB	'.?AV_ns2__getSettingsFileElement@@', 00H
_DATA	ENDS
;	COMDAT ??_7_ns2__getSessionIDResponseElement@@6B@
CONST	SEGMENT
??_7_ns2__getSessionIDResponseElement@@6B@ DD FLAT:??_R4_ns2__getSessionIDResponseElement@@6B@ ; _ns2__getSessionIDResponseElement::`vftable'
	DD	FLAT:?soap_type@_ns2__getSessionIDResponseElement@@UBEHXZ
	DD	FLAT:?soap_default@_ns2__getSessionIDResponseElement@@UAEXPAUsoap@@@Z
	DD	FLAT:?soap_serialize@_ns2__getSessionIDResponseElement@@UBEXPAUsoap@@@Z
	DD	FLAT:?soap_put@_ns2__getSessionIDResponseElement@@UBEHPAUsoap@@PBD1@Z
	DD	FLAT:?soap_out@_ns2__getSessionIDResponseElement@@UBEHPAUsoap@@PBDH1@Z
	DD	FLAT:?soap_get@_ns2__getSessionIDResponseElement@@UAEPAXPAUsoap@@PBD1@Z
	DD	FLAT:?soap_in@_ns2__getSessionIDResponseElement@@UAEPAXPAUsoap@@PBD1@Z
	DD	FLAT:??_E_ns2__getSessionIDResponseElement@@UAEPAXI@Z
CONST	ENDS
;	COMDAT ??_R4_ns2__getSessionIDResponseElement@@6B@
rdata$r	SEGMENT
??_R4_ns2__getSessionIDResponseElement@@6B@ DD 00H	; _ns2__getSessionIDResponseElement::`RTTI Complete Object Locator'
	DD	00H
	DD	00H
	DD	FLAT:??_R0?AV_ns2__getSessionIDResponseElement@@@8
	DD	FLAT:??_R3_ns2__getSessionIDResponseElement@@8
rdata$r	ENDS
;	COMDAT ??_R3_ns2__getSessionIDResponseElement@@8
rdata$r	SEGMENT
??_R3_ns2__getSessionIDResponseElement@@8 DD 00H	; _ns2__getSessionIDResponseElement::`RTTI Class Hierarchy Descriptor'
	DD	00H
	DD	01H
	DD	FLAT:??_R2_ns2__getSessionIDResponseElement@@8
rdata$r	ENDS
;	COMDAT ??_R2_ns2__getSessionIDResponseElement@@8
rdata$r	SEGMENT
??_R2_ns2__getSessionIDResponseElement@@8 DD FLAT:??_R1A@?0A@EA@_ns2__getSessionIDResponseElement@@8 ; _ns2__getSessionIDResponseElement::`RTTI Base Class Array'
rdata$r	ENDS
;	COMDAT ??_R1A@?0A@EA@_ns2__getSessionIDResponseElement@@8
rdata$r	SEGMENT
??_R1A@?0A@EA@_ns2__getSessionIDResponseElement@@8 DD FLAT:??_R0?AV_ns2__getSessionIDResponseElement@@@8 ; _ns2__getSessionIDResponseElement::`RTTI Base Class Descriptor at (0,-1,0,64)'
	DD	00H
	DD	00H
	DD	0ffffffffH
	DD	00H
	DD	040H
	DD	FLAT:??_R3_ns2__getSessionIDResponseElement@@8
rdata$r	ENDS
;	COMDAT ??_R0?AV_ns2__getSessionIDResponseElement@@@8
_DATA	SEGMENT
??_R0?AV_ns2__getSessionIDResponseElement@@@8 DD FLAT:??_7type_info@@6B@ ; _ns2__getSessionIDResponseElement `RTTI Type Descriptor'
	DD	00H
	DB	'.?AV_ns2__getSessionIDResponseElement@@', 00H
_DATA	ENDS
;	COMDAT ??_7_ns2__getSessionIDElement@@6B@
CONST	SEGMENT
??_7_ns2__getSessionIDElement@@6B@ DD FLAT:??_R4_ns2__getSessionIDElement@@6B@ ; _ns2__getSessionIDElement::`vftable'
	DD	FLAT:?soap_type@_ns2__getSessionIDElement@@UBEHXZ
	DD	FLAT:?soap_default@_ns2__getSessionIDElement@@UAEXPAUsoap@@@Z
	DD	FLAT:?soap_serialize@_ns2__getSessionIDElement@@UBEXPAUsoap@@@Z
	DD	FLAT:?soap_put@_ns2__getSessionIDElement@@UBEHPAUsoap@@PBD1@Z
	DD	FLAT:?soap_out@_ns2__getSessionIDElement@@UBEHPAUsoap@@PBDH1@Z
	DD	FLAT:?soap_get@_ns2__getSessionIDElement@@UAEPAXPAUsoap@@PBD1@Z
	DD	FLAT:?soap_in@_ns2__getSessionIDElement@@UAEPAXPAUsoap@@PBD1@Z
	DD	FLAT:??_E_ns2__getSessionIDElement@@UAEPAXI@Z
CONST	ENDS
;	COMDAT ??_R4_ns2__getSessionIDElement@@6B@
rdata$r	SEGMENT
??_R4_ns2__getSessionIDElement@@6B@ DD 00H		; _ns2__getSessionIDElement::`RTTI Complete Object Locator'
	DD	00H
	DD	00H
	DD	FLAT:??_R0?AV_ns2__getSessionIDElement@@@8
	DD	FLAT:??_R3_ns2__getSessionIDElement@@8
rdata$r	ENDS
;	COMDAT ??_R3_ns2__getSessionIDElement@@8
rdata$r	SEGMENT
??_R3_ns2__getSessionIDElement@@8 DD 00H		; _ns2__getSessionIDElement::`RTTI Class Hierarchy Descriptor'
	DD	00H
	DD	01H
	DD	FLAT:??_R2_ns2__getSessionIDElement@@8
rdata$r	ENDS
;	COMDAT ??_R2_ns2__getSessionIDElement@@8
rdata$r	SEGMENT
??_R2_ns2__getSessionIDElement@@8 DD FLAT:??_R1A@?0A@EA@_ns2__getSessionIDElement@@8 ; _ns2__getSessionIDElement::`RTTI Base Class Array'
rdata$r	ENDS
;	COMDAT ??_R1A@?0A@EA@_ns2__getSessionIDElement@@8
rdata$r	SEGMENT
??_R1A@?0A@EA@_ns2__getSessionIDElement@@8 DD FLAT:??_R0?AV_ns2__getSessionIDElement@@@8 ; _ns2__getSessionIDElement::`RTTI Base Class Descriptor at (0,-1,0,64)'
	DD	00H
	DD	00H
	DD	0ffffffffH
	DD	00H
	DD	040H
	DD	FLAT:??_R3_ns2__getSessionIDElement@@8
rdata$r	ENDS
;	COMDAT ??_R0?AV_ns2__getSessionIDElement@@@8
_DATA	SEGMENT
??_R0?AV_ns2__getSessionIDElement@@@8 DD FLAT:??_7type_info@@6B@ ; _ns2__getSessionIDElement `RTTI Type Descriptor'
	DD	00H
	DB	'.?AV_ns2__getSessionIDElement@@', 00H
_DATA	ENDS
;	COMDAT ??_7xsd__string@@6B@
CONST	SEGMENT
??_7xsd__string@@6B@ DD FLAT:??_R4xsd__string@@6B@	; xsd__string::`vftable'
	DD	FLAT:?soap_type@xsd__string@@UBEHXZ
	DD	FLAT:?soap_default@xsd__string@@UAEXPAUsoap@@@Z
	DD	FLAT:?soap_serialize@xsd__string@@UBEXPAUsoap@@@Z
	DD	FLAT:?soap_put@xsd__string@@UBEHPAUsoap@@PBD1@Z
	DD	FLAT:?soap_out@xsd__string@@UBEHPAUsoap@@PBDH1@Z
	DD	FLAT:?soap_get@xsd__string@@UAEPAXPAUsoap@@PBD1@Z
	DD	FLAT:?soap_in@xsd__string@@UAEPAXPAUsoap@@PBD1@Z
	DD	FLAT:??_Exsd__string@@UAEPAXI@Z
CONST	ENDS
;	COMDAT ??_R4xsd__string@@6B@
rdata$r	SEGMENT
??_R4xsd__string@@6B@ DD 00H				; xsd__string::`RTTI Complete Object Locator'
	DD	00H
	DD	00H
	DD	FLAT:??_R0?AVxsd__string@@@8
	DD	FLAT:??_R3xsd__string@@8
rdata$r	ENDS
;	COMDAT ??_R3xsd__string@@8
rdata$r	SEGMENT
??_R3xsd__string@@8 DD 00H				; xsd__string::`RTTI Class Hierarchy Descriptor'
	DD	00H
	DD	02H
	DD	FLAT:??_R2xsd__string@@8
rdata$r	ENDS
;	COMDAT ??_R2xsd__string@@8
rdata$r	SEGMENT
??_R2xsd__string@@8 DD FLAT:??_R1A@?0A@EA@xsd__string@@8 ; xsd__string::`RTTI Base Class Array'
	DD	FLAT:??_R1A@?0A@EA@xsd__anyType@@8
rdata$r	ENDS
;	COMDAT ??_R1A@?0A@EA@xsd__string@@8
rdata$r	SEGMENT
??_R1A@?0A@EA@xsd__string@@8 DD FLAT:??_R0?AVxsd__string@@@8 ; xsd__string::`RTTI Base Class Descriptor at (0,-1,0,64)'
	DD	01H
	DD	00H
	DD	0ffffffffH
	DD	00H
	DD	040H
	DD	FLAT:??_R3xsd__string@@8
rdata$r	ENDS
;	COMDAT ??_R0?AVxsd__string@@@8
_DATA	SEGMENT
??_R0?AVxsd__string@@@8 DD FLAT:??_7type_info@@6B@	; xsd__string `RTTI Type Descriptor'
	DD	00H
	DB	'.?AVxsd__string@@', 00H
_DATA	ENDS
;	COMDAT ??_7xsd__long@@6B@
CONST	SEGMENT
??_7xsd__long@@6B@ DD FLAT:??_R4xsd__long@@6B@		; xsd__long::`vftable'
	DD	FLAT:?soap_type@xsd__long@@UBEHXZ
	DD	FLAT:?soap_default@xsd__long@@UAEXPAUsoap@@@Z
	DD	FLAT:?soap_serialize@xsd__long@@UBEXPAUsoap@@@Z
	DD	FLAT:?soap_put@xsd__long@@UBEHPAUsoap@@PBD1@Z
	DD	FLAT:?soap_out@xsd__long@@UBEHPAUsoap@@PBDH1@Z
	DD	FLAT:?soap_get@xsd__long@@UAEPAXPAUsoap@@PBD1@Z
	DD	FLAT:?soap_in@xsd__long@@UAEPAXPAUsoap@@PBD1@Z
	DD	FLAT:??_Exsd__long@@UAEPAXI@Z
CONST	ENDS
;	COMDAT ??_R4xsd__long@@6B@
rdata$r	SEGMENT
??_R4xsd__long@@6B@ DD 00H				; xsd__long::`RTTI Complete Object Locator'
	DD	00H
	DD	00H
	DD	FLAT:??_R0?AVxsd__long@@@8
	DD	FLAT:??_R3xsd__long@@8
rdata$r	ENDS
;	COMDAT ??_R3xsd__long@@8
rdata$r	SEGMENT
??_R3xsd__long@@8 DD 00H				; xsd__long::`RTTI Class Hierarchy Descriptor'
	DD	00H
	DD	02H
	DD	FLAT:??_R2xsd__long@@8
rdata$r	ENDS
;	COMDAT ??_R2xsd__long@@8
rdata$r	SEGMENT
??_R2xsd__long@@8 DD FLAT:??_R1A@?0A@EA@xsd__long@@8	; xsd__long::`RTTI Base Class Array'
	DD	FLAT:??_R1A@?0A@EA@xsd__anyType@@8
rdata$r	ENDS
;	COMDAT ??_R1A@?0A@EA@xsd__long@@8
rdata$r	SEGMENT
??_R1A@?0A@EA@xsd__long@@8 DD FLAT:??_R0?AVxsd__long@@@8 ; xsd__long::`RTTI Base Class Descriptor at (0,-1,0,64)'
	DD	01H
	DD	00H
	DD	0ffffffffH
	DD	00H
	DD	040H
	DD	FLAT:??_R3xsd__long@@8
rdata$r	ENDS
;	COMDAT ??_R0?AVxsd__long@@@8
_DATA	SEGMENT
??_R0?AVxsd__long@@@8 DD FLAT:??_7type_info@@6B@	; xsd__long `RTTI Type Descriptor'
	DD	00H
	DB	'.?AVxsd__long@@', 00H
_DATA	ENDS
;	COMDAT ??_7xsd__int@@6B@
CONST	SEGMENT
??_7xsd__int@@6B@ DD FLAT:??_R4xsd__int@@6B@		; xsd__int::`vftable'
	DD	FLAT:?soap_type@xsd__int@@UBEHXZ
	DD	FLAT:?soap_default@xsd__int@@UAEXPAUsoap@@@Z
	DD	FLAT:?soap_serialize@xsd__int@@UBEXPAUsoap@@@Z
	DD	FLAT:?soap_put@xsd__int@@UBEHPAUsoap@@PBD1@Z
	DD	FLAT:?soap_out@xsd__int@@UBEHPAUsoap@@PBDH1@Z
	DD	FLAT:?soap_get@xsd__int@@UAEPAXPAUsoap@@PBD1@Z
	DD	FLAT:?soap_in@xsd__int@@UAEPAXPAUsoap@@PBD1@Z
	DD	FLAT:??_Exsd__int@@UAEPAXI@Z
CONST	ENDS
;	COMDAT ??_R4xsd__int@@6B@
rdata$r	SEGMENT
??_R4xsd__int@@6B@ DD 00H				; xsd__int::`RTTI Complete Object Locator'
	DD	00H
	DD	00H
	DD	FLAT:??_R0?AVxsd__int@@@8
	DD	FLAT:??_R3xsd__int@@8
rdata$r	ENDS
;	COMDAT ??_R3xsd__int@@8
rdata$r	SEGMENT
??_R3xsd__int@@8 DD 00H					; xsd__int::`RTTI Class Hierarchy Descriptor'
	DD	00H
	DD	02H
	DD	FLAT:??_R2xsd__int@@8
rdata$r	ENDS
;	COMDAT ??_R2xsd__int@@8
rdata$r	SEGMENT
??_R2xsd__int@@8 DD FLAT:??_R1A@?0A@EA@xsd__int@@8	; xsd__int::`RTTI Base Class Array'
	DD	FLAT:??_R1A@?0A@EA@xsd__anyType@@8
rdata$r	ENDS
;	COMDAT ??_R1A@?0A@EA@xsd__int@@8
rdata$r	SEGMENT
??_R1A@?0A@EA@xsd__int@@8 DD FLAT:??_R0?AVxsd__int@@@8	; xsd__int::`RTTI Base Class Descriptor at (0,-1,0,64)'
	DD	01H
	DD	00H
	DD	0ffffffffH
	DD	00H
	DD	040H
	DD	FLAT:??_R3xsd__int@@8
rdata$r	ENDS
;	COMDAT ??_R0?AVxsd__int@@@8
_DATA	SEGMENT
??_R0?AVxsd__int@@@8 DD FLAT:??_7type_info@@6B@		; xsd__int `RTTI Type Descriptor'
	DD	00H
	DB	'.?AVxsd__int@@', 00H
_DATA	ENDS
;	COMDAT ??_7xsd__float@@6B@
CONST	SEGMENT
??_7xsd__float@@6B@ DD FLAT:??_R4xsd__float@@6B@	; xsd__float::`vftable'
	DD	FLAT:?soap_type@xsd__float@@UBEHXZ
	DD	FLAT:?soap_default@xsd__float@@UAEXPAUsoap@@@Z
	DD	FLAT:?soap_serialize@xsd__float@@UBEXPAUsoap@@@Z
	DD	FLAT:?soap_put@xsd__float@@UBEHPAUsoap@@PBD1@Z
	DD	FLAT:?soap_out@xsd__float@@UBEHPAUsoap@@PBDH1@Z
	DD	FLAT:?soap_get@xsd__float@@UAEPAXPAUsoap@@PBD1@Z
	DD	FLAT:?soap_in@xsd__float@@UAEPAXPAUsoap@@PBD1@Z
	DD	FLAT:??_Exsd__float@@UAEPAXI@Z
CONST	ENDS
;	COMDAT ??_R4xsd__float@@6B@
rdata$r	SEGMENT
??_R4xsd__float@@6B@ DD 00H				; xsd__float::`RTTI Complete Object Locator'
	DD	00H
	DD	00H
	DD	FLAT:??_R0?AVxsd__float@@@8
	DD	FLAT:??_R3xsd__float@@8
rdata$r	ENDS
;	COMDAT ??_R3xsd__float@@8
rdata$r	SEGMENT
??_R3xsd__float@@8 DD 00H				; xsd__float::`RTTI Class Hierarchy Descriptor'
	DD	00H
	DD	02H
	DD	FLAT:??_R2xsd__float@@8
rdata$r	ENDS
;	COMDAT ??_R2xsd__float@@8
rdata$r	SEGMENT
??_R2xsd__float@@8 DD FLAT:??_R1A@?0A@EA@xsd__float@@8	; xsd__float::`RTTI Base Class Array'
	DD	FLAT:??_R1A@?0A@EA@xsd__anyType@@8
rdata$r	ENDS
;	COMDAT ??_R1A@?0A@EA@xsd__float@@8
rdata$r	SEGMENT
??_R1A@?0A@EA@xsd__float@@8 DD FLAT:??_R0?AVxsd__float@@@8 ; xsd__float::`RTTI Base Class Descriptor at (0,-1,0,64)'
	DD	01H
	DD	00H
	DD	0ffffffffH
	DD	00H
	DD	040H
	DD	FLAT:??_R3xsd__float@@8
rdata$r	ENDS
;	COMDAT ??_R0?AVxsd__float@@@8
_DATA	SEGMENT
??_R0?AVxsd__float@@@8 DD FLAT:??_7type_info@@6B@	; xsd__float `RTTI Type Descriptor'
	DD	00H
	DB	'.?AVxsd__float@@', 00H
_DATA	ENDS
;	COMDAT ??_7xsd__boolean@@6B@
CONST	SEGMENT
??_7xsd__boolean@@6B@ DD FLAT:??_R4xsd__boolean@@6B@	; xsd__boolean::`vftable'
	DD	FLAT:?soap_type@xsd__boolean@@UBEHXZ
	DD	FLAT:?soap_default@xsd__boolean@@UAEXPAUsoap@@@Z
	DD	FLAT:?soap_serialize@xsd__boolean@@UBEXPAUsoap@@@Z
	DD	FLAT:?soap_put@xsd__boolean@@UBEHPAUsoap@@PBD1@Z
	DD	FLAT:?soap_out@xsd__boolean@@UBEHPAUsoap@@PBDH1@Z
	DD	FLAT:?soap_get@xsd__boolean@@UAEPAXPAUsoap@@PBD1@Z
	DD	FLAT:?soap_in@xsd__boolean@@UAEPAXPAUsoap@@PBD1@Z
	DD	FLAT:??_Exsd__boolean@@UAEPAXI@Z
CONST	ENDS
;	COMDAT ??_R4xsd__boolean@@6B@
rdata$r	SEGMENT
??_R4xsd__boolean@@6B@ DD 00H				; xsd__boolean::`RTTI Complete Object Locator'
	DD	00H
	DD	00H
	DD	FLAT:??_R0?AVxsd__boolean@@@8
	DD	FLAT:??_R3xsd__boolean@@8
rdata$r	ENDS
;	COMDAT ??_R3xsd__boolean@@8
rdata$r	SEGMENT
??_R3xsd__boolean@@8 DD 00H				; xsd__boolean::`RTTI Class Hierarchy Descriptor'
	DD	00H
	DD	02H
	DD	FLAT:??_R2xsd__boolean@@8
rdata$r	ENDS
;	COMDAT ??_R2xsd__boolean@@8
rdata$r	SEGMENT
??_R2xsd__boolean@@8 DD FLAT:??_R1A@?0A@EA@xsd__boolean@@8 ; xsd__boolean::`RTTI Base Class Array'
	DD	FLAT:??_R1A@?0A@EA@xsd__anyType@@8
rdata$r	ENDS
;	COMDAT ??_R1A@?0A@EA@xsd__boolean@@8
rdata$r	SEGMENT
??_R1A@?0A@EA@xsd__boolean@@8 DD FLAT:??_R0?AVxsd__boolean@@@8 ; xsd__boolean::`RTTI Base Class Descriptor at (0,-1,0,64)'
	DD	01H
	DD	00H
	DD	0ffffffffH
	DD	00H
	DD	040H
	DD	FLAT:??_R3xsd__boolean@@8
rdata$r	ENDS
;	COMDAT ??_R0?AVxsd__boolean@@@8
_DATA	SEGMENT
??_R0?AVxsd__boolean@@@8 DD FLAT:??_7type_info@@6B@	; xsd__boolean `RTTI Type Descriptor'
	DD	00H
	DB	'.?AVxsd__boolean@@', 00H
_DATA	ENDS
;	COMDAT ??_7xsd__anyType@@6B@
CONST	SEGMENT
??_7xsd__anyType@@6B@ DD FLAT:??_R4xsd__anyType@@6B@	; xsd__anyType::`vftable'
	DD	FLAT:?soap_type@xsd__anyType@@UBEHXZ
	DD	FLAT:?soap_default@xsd__anyType@@UAEXPAUsoap@@@Z
	DD	FLAT:?soap_serialize@xsd__anyType@@UBEXPAUsoap@@@Z
	DD	FLAT:?soap_put@xsd__anyType@@UBEHPAUsoap@@PBD1@Z
	DD	FLAT:?soap_out@xsd__anyType@@UBEHPAUsoap@@PBDH1@Z
	DD	FLAT:?soap_get@xsd__anyType@@UAEPAXPAUsoap@@PBD1@Z
	DD	FLAT:?soap_in@xsd__anyType@@UAEPAXPAUsoap@@PBD1@Z
	DD	FLAT:??_Exsd__anyType@@UAEPAXI@Z
CONST	ENDS
;	COMDAT ??_R4xsd__anyType@@6B@
rdata$r	SEGMENT
??_R4xsd__anyType@@6B@ DD 00H				; xsd__anyType::`RTTI Complete Object Locator'
	DD	00H
	DD	00H
	DD	FLAT:??_R0?AVxsd__anyType@@@8
	DD	FLAT:??_R3xsd__anyType@@8
rdata$r	ENDS
;	COMDAT ??_R3xsd__anyType@@8
rdata$r	SEGMENT
??_R3xsd__anyType@@8 DD 00H				; xsd__anyType::`RTTI Class Hierarchy Descriptor'
	DD	00H
	DD	01H
	DD	FLAT:??_R2xsd__anyType@@8
rdata$r	ENDS
;	COMDAT ??_R2xsd__anyType@@8
rdata$r	SEGMENT
??_R2xsd__anyType@@8 DD FLAT:??_R1A@?0A@EA@xsd__anyType@@8 ; xsd__anyType::`RTTI Base Class Array'
rdata$r	ENDS
;	COMDAT ??_R1A@?0A@EA@xsd__anyType@@8
rdata$r	SEGMENT
??_R1A@?0A@EA@xsd__anyType@@8 DD FLAT:??_R0?AVxsd__anyType@@@8 ; xsd__anyType::`RTTI Base Class Descriptor at (0,-1,0,64)'
	DD	00H
	DD	00H
	DD	0ffffffffH
	DD	00H
	DD	040H
	DD	FLAT:??_R3xsd__anyType@@8
rdata$r	ENDS
;	COMDAT ??_R0?AVxsd__anyType@@@8
_DATA	SEGMENT
??_R0?AVxsd__anyType@@@8 DD FLAT:??_7type_info@@6B@	; xsd__anyType `RTTI Type Descriptor'
	DD	00H
	DB	'.?AVxsd__anyType@@', 00H
_DATA	ENDS
;	COMDAT ??_C@_0BB@MGPNIFGI@SOAP?9ENV?3Subcode?$AA@
CONST	SEGMENT
??_C@_0BB@MGPNIFGI@SOAP?9ENV?3Subcode?$AA@ DB 'SOAP-ENV:Subcode', 00H ; `string'
CONST	ENDS
;	COMDAT ??_C@_0P@FNBDNHP@SOAP?9ENV?3Value?$AA@
CONST	SEGMENT
??_C@_0P@FNBDNHP@SOAP?9ENV?3Value?$AA@ DB 'SOAP-ENV:Value', 00H ; `string'
CONST	ENDS
;	COMDAT ??_C@_04DPKCFHKE@?9any?$AA@
CONST	SEGMENT
??_C@_04DPKCFHKE@?9any?$AA@ DB '-any', 00H		; `string'
CONST	ENDS
;	COMDAT ??_C@_05GCLNDCPO@fault?$AA@
CONST	SEGMENT
??_C@_05GCLNDCPO@fault?$AA@ DB 'fault', 00H		; `string'
CONST	ENDS
;	COMDAT ??_C@_0O@BLCEAHMK@SOAP?9ENV?3Text?$AA@
CONST	SEGMENT
??_C@_0O@BLCEAHMK@SOAP?9ENV?3Text?$AA@ DB 'SOAP-ENV:Text', 00H ; `string'
CONST	ENDS
;	COMDAT ??_C@_0BA@OENGLDCF@SOAP?9ENV?3Detail?$AA@
CONST	SEGMENT
??_C@_0BA@OENGLDCF@SOAP?9ENV?3Detail?$AA@ DB 'SOAP-ENV:Detail', 00H ; `string'
CONST	ENDS
;	COMDAT ??_C@_0O@LDCPDKLC@SOAP?9ENV?3Role?$AA@
CONST	SEGMENT
??_C@_0O@LDCPDKLC@SOAP?9ENV?3Role?$AA@ DB 'SOAP-ENV:Role', 00H ; `string'
CONST	ENDS
;	COMDAT ??_C@_0O@BICMBBIJ@SOAP?9ENV?3Node?$AA@
CONST	SEGMENT
??_C@_0O@BICMBBIJ@SOAP?9ENV?3Node?$AA@ DB 'SOAP-ENV:Node', 00H ; `string'
CONST	ENDS
;	COMDAT ??_C@_0BA@IEHDIDAH@SOAP?9ENV?3Reason?$AA@
CONST	SEGMENT
??_C@_0BA@IEHDIDAH@SOAP?9ENV?3Reason?$AA@ DB 'SOAP-ENV:Reason', 00H ; `string'
CONST	ENDS
;	COMDAT ??_C@_0O@OALMNFDI@SOAP?9ENV?3Code?$AA@
CONST	SEGMENT
??_C@_0O@OALMNFDI@SOAP?9ENV?3Code?$AA@ DB 'SOAP-ENV:Code', 00H ; `string'
CONST	ENDS
;	COMDAT ??_C@_06EENFNEPD@detail?$AA@
CONST	SEGMENT
??_C@_06EENFNEPD@detail?$AA@ DB 'detail', 00H		; `string'
CONST	ENDS
;	COMDAT ??_C@_0L@JAIOMLLA@faultactor?$AA@
CONST	SEGMENT
??_C@_0L@JAIOMLLA@faultactor?$AA@ DB 'faultactor', 00H	; `string'
CONST	ENDS
;	COMDAT ??_C@_0M@LAMIIPIL@faultstring?$AA@
CONST	SEGMENT
??_C@_0M@LAMIIPIL@faultstring?$AA@ DB 'faultstring', 00H ; `string'
CONST	ENDS
;	COMDAT ??_C@_09FJACJGDN@faultcode?$AA@
CONST	SEGMENT
??_C@_09FJACJGDN@faultcode?$AA@ DB 'faultcode', 00H	; `string'
CONST	ENDS
;	COMDAT ??_C@_09JNJHDMAM@ns2?3int_1?$AA@
CONST	SEGMENT
??_C@_09JNJHDMAM@ns2?3int_1?$AA@ DB 'ns2:int_1', 00H	; `string'
CONST	ENDS
;	COMDAT ??_C@_0M@GGNACEFP@ns2?3float_8?$AA@
CONST	SEGMENT
??_C@_0M@GGNACEFP@ns2?3float_8?$AA@ DB 'ns2:float_8', 00H ; `string'
CONST	ENDS
;	COMDAT ??_C@_0M@OBEIDIJA@ns2?3float_7?$AA@
CONST	SEGMENT
??_C@_0M@OBEIDIJA@ns2?3float_7?$AA@ DB 'ns2:float_7', 00H ; `string'
CONST	ENDS
;	COMDAT ??_C@_0BD@EAHCFMEN@ns2?3arrayOffloat_6?$AA@
CONST	SEGMENT
??_C@_0BD@EAHCFMEN@ns2?3arrayOffloat_6?$AA@ DB 'ns2:arrayOffloat_6', 00H ; `string'
CONST	ENDS
;	COMDAT ??_C@_0BD@GLFPAPIO@ns2?3arrayOffloat_5?$AA@
CONST	SEGMENT
??_C@_0BD@GLFPAPIO@ns2?3arrayOffloat_5?$AA@ DB 'ns2:arrayOffloat_5', 00H ; `string'
CONST	ENDS
;	COMDAT ??_C@_0BB@BJHFFGIN@ns2?3arrayOfint_4?$AA@
CONST	SEGMENT
??_C@_0BB@BJHFFGIN@ns2?3arrayOfint_4?$AA@ DB 'ns2:arrayOfint_4', 00H ; `string'
CONST	ENDS
;	COMDAT ??_C@_0BB@FGDEMAEK@ns2?3arrayOfint_3?$AA@
CONST	SEGMENT
??_C@_0BB@FGDEMAEK@ns2?3arrayOfint_3?$AA@ DB 'ns2:arrayOfint_3', 00H ; `string'
CONST	ENDS
;	COMDAT ??_C@_09LGLKGPMP@ns2?3int_2?$AA@
CONST	SEGMENT
??_C@_09LGLKGPMP@ns2?3int_2?$AA@ DB 'ns2:int_2', 00H	; `string'
CONST	ENDS
;	COMDAT ??_C@_0N@EOBKMJFL@ns2?3String_1?$AA@
CONST	SEGMENT
??_C@_0N@EOBKMJFL@ns2?3String_1?$AA@ DB 'ns2:String_1', 00H ; `string'
CONST	ENDS
;	COMDAT ??_C@_0L@FEKNHBLL@ns2?3result?$AA@
CONST	SEGMENT
??_C@_0L@FEKNHBLL@ns2?3result?$AA@ DB 'ns2:result', 00H	; `string'
CONST	ENDS
;	COMDAT ??_C@_08FGCKPNBL@?3boolean?$AA@
CONST	SEGMENT
??_C@_08FGCKPNBL@?3boolean?$AA@ DB ':boolean', 00H	; `string'
CONST	ENDS
;	COMDAT ??_C@_02EGCJHIOB@id?$AA@
CONST	SEGMENT
??_C@_02EGCJHIOB@id?$AA@ DB 'id', 00H			; `string'
CONST	ENDS
;	COMDAT ??_C@_09JEONCPHE@SOAP?9ENV?3?$AA@
CONST	SEGMENT
??_C@_09JEONCPHE@SOAP?9ENV?3?$AA@ DB 'SOAP-ENV:', 00H	; `string'
CONST	ENDS
;	COMDAT ??_C@_09JDHJJDCF@xsd?3QName?$AA@
CONST	SEGMENT
??_C@_09JDHJJDCF@xsd?3QName?$AA@ DB 'xsd:QName', 00H	; `string'
CONST	ENDS
;	COMDAT ??_C@_0BI@CHGDHCPP@ns2?3getSessionIDElement?$AA@
CONST	SEGMENT
??_C@_0BI@CHGDHCPP@ns2?3getSessionIDElement?$AA@ DB 'ns2:getSessionIDElem'
	DB	'ent', 00H					; `string'
CONST	ENDS
;	COMDAT ??_C@_0CA@KPMHIEOJ@ns2?3getSessionIDResponseElement?$AA@
CONST	SEGMENT
??_C@_0CA@KPMHIEOJ@ns2?3getSessionIDResponseElement?$AA@ DB 'ns2:getSessi'
	DB	'onIDResponseElement', 00H			; `string'
CONST	ENDS
;	COMDAT ??_C@_0BL@EBHOCBLE@ns2?3getSettingsFileElement?$AA@
CONST	SEGMENT
??_C@_0BL@EBHOCBLE@ns2?3getSettingsFileElement?$AA@ DB 'ns2:getSettingsFi'
	DB	'leElement', 00H				; `string'
CONST	ENDS
;	COMDAT ??_C@_0CD@GADHDKNA@ns2?3getSettingsFileResponseEleme@
CONST	SEGMENT
??_C@_0CD@GADHDKNA@ns2?3getSettingsFileResponseEleme@ DB 'ns2:getSettings'
	DB	'FileResponseElement', 00H			; `string'
CONST	ENDS
;	COMDAT ??_C@_0BN@LEHNEPKC@ns2?3submitEpochResultElement?$AA@
CONST	SEGMENT
??_C@_0BN@LEHNEPKC@ns2?3submitEpochResultElement?$AA@ DB 'ns2:submitEpoch'
	DB	'ResultElement', 00H				; `string'
CONST	ENDS
;	COMDAT ??_C@_0CF@HCKJIEH@ns2?3submitEpochResultResponseEle@
CONST	SEGMENT
??_C@_0CF@HCKJIEH@ns2?3submitEpochResultResponseEle@ DB 'ns2:submitEpochR'
	DB	'esultResponseElement', 00H			; `string'
CONST	ENDS
;	COMDAT ??_C@_0M@NOIFKOBF@xsd?3anyType?$AA@
CONST	SEGMENT
??_C@_0M@NOIFKOBF@xsd?3anyType?$AA@ DB 'xsd:anyType', 00H ; `string'
CONST	ENDS
;	COMDAT ??_C@_0L@DIJPMJCO@xsd?3string?$AA@
CONST	SEGMENT
??_C@_0L@DIJPMJCO@xsd?3string?$AA@ DB 'xsd:string', 00H	; `string'
CONST	ENDS
;	COMDAT ??_C@_0M@FGHMEICI@xsd?3boolean?$AA@
CONST	SEGMENT
??_C@_0M@FGHMEICI@xsd?3boolean?$AA@ DB 'xsd:boolean', 00H ; `string'
CONST	ENDS
;	COMDAT ??_C@_09ILBLHFBD@xsd?3float?$AA@
CONST	SEGMENT
??_C@_09ILBLHFBD@xsd?3float?$AA@ DB 'xsd:float', 00H	; `string'
CONST	ENDS
;	COMDAT ??_C@_08PNDIDGIB@xsd?3long?$AA@
CONST	SEGMENT
??_C@_08PNDIDGIB@xsd?3long?$AA@ DB 'xsd:long', 00H	; `string'
CONST	ENDS
;	COMDAT ??_C@_07PCIGPDP@xsd?3int?$AA@
CONST	SEGMENT
??_C@_07PCIGPDP@xsd?3int?$AA@ DB 'xsd:int', 00H		; `string'
CONST	ENDS
;	COMDAT ??_C@_08BEPNMEIH@xsd?3byte?$AA@
CONST	SEGMENT
??_C@_08BEPNMEIH@xsd?3byte?$AA@ DB 'xsd:byte', 00H	; `string'
CONST	ENDS
;	COMDAT ??_C@_0P@GLDIJMBO@SOAP?9ENV?3Fault?$AA@
CONST	SEGMENT
??_C@_0P@GLDIJMBO@SOAP?9ENV?3Fault?$AA@ DB 'SOAP-ENV:Fault', 00H ; `string'
CONST	ENDS
;	COMDAT ??_C@_0BA@GBPDPHCK@SOAP?9ENV?3Header?$AA@
CONST	SEGMENT
??_C@_0BA@GBPDPHCK@SOAP?9ENV?3Header?$AA@ DB 'SOAP-ENV:Header', 00H ; `string'
_soap_codes_bool DD 00H
	DD	FLAT:??_C@_05LAPONLG@false?$AA@
	DD	01H
	DD	FLAT:??_C@_04LOAJBDKD@true?$AA@
	DD	00H
	DD	00H
__bad_alloc_Message DD FLAT:??_C@_0P@GHFPNOJB@bad?5allocation?$AA@
PUBLIC	?soap_fdelete@@YAHPAUsoap_clist@@@Z		; soap_fdelete
; Function compile flags: /Ogtpy
; File c:\program files\microsoft visual studio 9.0\vc\include\xutility
;	COMDAT ??$_Copy_backward_opt@PAMPAMUrandom_access_iterator_tag@std@@@std@@YAPAMPAM00Urandom_access_iterator_tag@0@U_Scalar_ptr_iterator_tag@0@U_Range_checked_iterator_tag@0@@Z
_TEXT	SEGMENT
??$_Copy_backward_opt@PAMPAMUrandom_access_iterator_tag@std@@@std@@YAPAMPAM00Urandom_access_iterator_tag@0@U_Scalar_ptr_iterator_tag@0@U_Range_checked_iterator_tag@0@@Z PROC ; std::_Copy_backward_opt<float *,float *,std::random_access_iterator_tag>, COMDAT
; __First$ = ecx
; __Off$ = eax
; __Result$ = esi

; 2699 : 
; 2700 :  #if _HAS_ITERATOR_DEBUGGING
; 2701 : 	_DEBUG_RANGE(_First, _Last);
; 2702 : 	if (_First != _Last)
; 2703 : 		_DEBUG_POINTER(_Dest);
; 2704 :  #endif /* _HAS_ITERATOR_DEBUGGING */
; 2705 : 
; 2706 : 	ptrdiff_t _Off = _Last - _First;	// NB: non-overlapping move
; 2707 : 	/* if _OutIt is range checked, this will make sure there is enough space for 
; 2708 : 	 * the memmove
; 2709 : 	 */
; 2710 : 	_OutIt _Result = _Dest - _Off;
; 2711 : 	if (_Off > 0)
; 2712 : 		_CRT_SECURE_MEMMOVE(&*_Result, _Off * sizeof (*_First), &*_First, _Off * sizeof (*_First));

	add	eax, eax
	add	eax, eax
	push	eax
	push	ecx
	push	eax
	push	esi
	call	_memmove_s
	add	esp, 16					; 00000010H

; 2713 : 	return _Result;

	mov	eax, esi

; 2714 : 	}

	ret	0
??$_Copy_backward_opt@PAMPAMUrandom_access_iterator_tag@std@@@std@@YAPAMPAM00Urandom_access_iterator_tag@0@U_Scalar_ptr_iterator_tag@0@U_Range_checked_iterator_tag@0@@Z ENDP ; std::_Copy_backward_opt<float *,float *,std::random_access_iterator_tag>
; Function compile flags: /Ogtpy
_TEXT	ENDS
;	COMDAT ??$_Move_cat@PAM@std@@YA?AU_Undefined_move_tag@0@ABQAM@Z
_TEXT	SEGMENT
__Cat$ = -1						; size = 1
??$_Move_cat@PAM@std@@YA?AU_Undefined_move_tag@0@ABQAM@Z PROC ; std::_Move_cat<float *>, COMDAT

; 1200 : 	{

	push	ecx

; 1201 : 		typename _Move_operation_category<typename iterator_traits<_Iter>::value_type>::_Move_cat _Cat;
; 1202 : 		return (_Cat);

	mov	al, BYTE PTR __Cat$[esp+4]

; 1203 : 	}

	pop	ecx
	ret	0
??$_Move_cat@PAM@std@@YA?AU_Undefined_move_tag@0@ABQAM@Z ENDP ; std::_Move_cat<float *>
_TEXT	ENDS
EXTRN	__fltused:DWORD
; Function compile flags: /Ogtpy
;	COMDAT ??$_Fill@PAMM@std@@YAXPAM0ABM@Z
_TEXT	SEGMENT
__Val$ = 8						; size = 4
??$_Fill@PAMM@std@@YAXPAM0ABM@Z PROC			; std::_Fill<float *,float>, COMDAT
; __First$ = eax
; __Last$ = ecx

; 3157 : 	_DEBUG_RANGE(_First, _Last);
; 3158 : 	for (; _First != _Last; ++_First)

	cmp	eax, ecx
	je	SHORT $LN1@Fill
	mov	edx, DWORD PTR __Val$[esp-4]
	movss	xmm0, DWORD PTR [edx]
	npad	4
$LL3@Fill:

; 3159 : 		*_First = _Val;

	movss	DWORD PTR [eax], xmm0
	add	eax, 4
	cmp	eax, ecx
	jne	SHORT $LL3@Fill
$LN1@Fill:

; 3160 : 	}

	ret	0
??$_Fill@PAMM@std@@YAXPAM0ABM@Z ENDP			; std::_Fill<float *,float>
_TEXT	ENDS
PUBLIC	?soap_delete_std__vectorTemplateOfint@@YAXPAUsoap@@PAV?$vector@HV?$allocator@H@std@@@std@@@Z ; soap_delete_std__vectorTemplateOfint
; Function compile flags: /Ogtpy
; File c:\users\crius\documents\visual studio 2008\projects\dramsimiihg\src\reporting\soapc.cpp
_TEXT	SEGMENT
?soap_delete_std__vectorTemplateOfint@@YAXPAUsoap@@PAV?$vector@HV?$allocator@H@std@@@std@@@Z PROC ; soap_delete_std__vectorTemplateOfint
; _soap$ = eax
; _p$ = ecx

; 4471 : {	soap_delete(soap, p);

	push	eax
	call	_soap_delete
	pop	ecx

; 4472 : }

	ret	0
?soap_delete_std__vectorTemplateOfint@@YAXPAUsoap@@PAV?$vector@HV?$allocator@H@std@@@std@@@Z ENDP ; soap_delete_std__vectorTemplateOfint
_TEXT	ENDS
PUBLIC	?soap_serialize_std__vectorTemplateOfint@@YAXPAUsoap@@PBV?$vector@HV?$allocator@H@std@@@std@@@Z ; soap_serialize_std__vectorTemplateOfint
; Function compile flags: /Ogtpy
_TEXT	SEGMENT
?soap_serialize_std__vectorTemplateOfint@@YAXPAUsoap@@PBV?$vector@HV?$allocator@H@std@@@std@@@Z PROC ; soap_serialize_std__vectorTemplateOfint

; 4421 : }

	ret	0
?soap_serialize_std__vectorTemplateOfint@@YAXPAUsoap@@PBV?$vector@HV?$allocator@H@std@@@std@@@Z ENDP ; soap_serialize_std__vectorTemplateOfint
_TEXT	ENDS
PUBLIC	?soap_delete_std__vectorTemplateOffloat@@YAXPAUsoap@@PAV?$vector@MV?$allocator@M@std@@@std@@@Z ; soap_delete_std__vectorTemplateOffloat
; Function compile flags: /Ogtpy
_TEXT	SEGMENT
?soap_delete_std__vectorTemplateOffloat@@YAXPAUsoap@@PAV?$vector@MV?$allocator@M@std@@@std@@@Z PROC ; soap_delete_std__vectorTemplateOffloat
; _soap$ = eax
; _p$ = ecx

; 4382 : {	soap_delete(soap, p);

	push	eax
	call	_soap_delete
	pop	ecx

; 4383 : }

	ret	0
?soap_delete_std__vectorTemplateOffloat@@YAXPAUsoap@@PAV?$vector@MV?$allocator@M@std@@@std@@@Z ENDP ; soap_delete_std__vectorTemplateOffloat
_TEXT	ENDS
PUBLIC	?soap_serialize_std__vectorTemplateOffloat@@YAXPAUsoap@@PBV?$vector@MV?$allocator@M@std@@@std@@@Z ; soap_serialize_std__vectorTemplateOffloat
; Function compile flags: /Ogtpy
_TEXT	SEGMENT
?soap_serialize_std__vectorTemplateOffloat@@YAXPAUsoap@@PBV?$vector@MV?$allocator@M@std@@@std@@@Z PROC ; soap_serialize_std__vectorTemplateOffloat

; 4332 : }

	ret	0
?soap_serialize_std__vectorTemplateOffloat@@YAXPAUsoap@@PBV?$vector@MV?$allocator@M@std@@@std@@@Z ENDP ; soap_serialize_std__vectorTemplateOffloat
_TEXT	ENDS
PUBLIC	?soap_default_string@@YAXPAUsoap@@PAPAD@Z	; soap_default_string
; Function compile flags: /Ogtpy
_TEXT	SEGMENT
?soap_default_string@@YAXPAUsoap@@PAPAD@Z PROC		; soap_default_string
; _a$ = eax

; 4287 : #ifdef SOAP_DEFAULT_string
; 4288 : 	*a = SOAP_DEFAULT_string;
; 4289 : #else
; 4290 : 	*a = (char *)0;

	mov	DWORD PTR [eax], 0

; 4291 : #endif
; 4292 : }

	ret	0
?soap_default_string@@YAXPAUsoap@@PAPAD@Z ENDP		; soap_default_string
_TEXT	ENDS
PUBLIC	?soap_default__QName@@YAXPAUsoap@@PAPAD@Z	; soap_default__QName
; Function compile flags: /Ogtpy
_TEXT	SEGMENT
?soap_default__QName@@YAXPAUsoap@@PAPAD@Z PROC		; soap_default__QName
; _a$ = eax

; 4252 : {	soap_default_string(soap, a);

	mov	DWORD PTR [eax], 0

; 4253 : }

	ret	0
?soap_default__QName@@YAXPAUsoap@@PAPAD@Z ENDP		; soap_default__QName
_TEXT	ENDS
PUBLIC	?soap_copy___ns1__getSessionID@@YAXPAUsoap@@HHPAXIPBXI@Z ; soap_copy___ns1__getSessionID
; Function compile flags: /Ogtpy
_TEXT	SEGMENT
?soap_copy___ns1__getSessionID@@YAXPAUsoap@@HHPAXIPBXI@Z PROC ; soap_copy___ns1__getSessionID
; _p$ = edx
; _q$ = eax

; 3701 : 	DBGLOG(TEST, SOAP_MESSAGE(fdebug, "Copying struct __ns1__getSessionID %p -> %p\n", q, p));
; 3702 : 	*(struct __ns1__getSessionID*)p = *(struct __ns1__getSessionID*)q;

	mov	ecx, DWORD PTR [eax]
	mov	DWORD PTR [edx], ecx

; 3703 : }

	ret	0
?soap_copy___ns1__getSessionID@@YAXPAUsoap@@HHPAXIPBXI@Z ENDP ; soap_copy___ns1__getSessionID
_TEXT	ENDS
PUBLIC	?soap_delete___ns1__getSessionID@@YAXPAUsoap@@PAU__ns1__getSessionID@@@Z ; soap_delete___ns1__getSessionID
; Function compile flags: /Ogtpy
_TEXT	SEGMENT
?soap_delete___ns1__getSessionID@@YAXPAUsoap@@PAU__ns1__getSessionID@@@Z PROC ; soap_delete___ns1__getSessionID
; _soap$ = eax
; _p$ = ecx

; 3673 : {	soap_delete(soap, p);

	push	eax
	call	_soap_delete
	pop	ecx

; 3674 : }

	ret	0
?soap_delete___ns1__getSessionID@@YAXPAUsoap@@PAU__ns1__getSessionID@@@Z ENDP ; soap_delete___ns1__getSessionID
_TEXT	ENDS
PUBLIC	?soap_default___ns1__getSessionID@@YAXPAUsoap@@PAU__ns1__getSessionID@@@Z ; soap_default___ns1__getSessionID
; Function compile flags: /Ogtpy
_TEXT	SEGMENT
?soap_default___ns1__getSessionID@@YAXPAUsoap@@PAU__ns1__getSessionID@@@Z PROC ; soap_default___ns1__getSessionID
; _a$ = eax

; 3607 : 	(void)soap; (void)a; /* appease -Wall -Werror */
; 3608 : 	a->ns2__getSessionIDElement = NULL;

	mov	DWORD PTR [eax], 0

; 3609 : }

	ret	0
?soap_default___ns1__getSessionID@@YAXPAUsoap@@PAU__ns1__getSessionID@@@Z ENDP ; soap_default___ns1__getSessionID
_TEXT	ENDS
PUBLIC	?soap_copy___ns1__getSettingsFile@@YAXPAUsoap@@HHPAXIPBXI@Z ; soap_copy___ns1__getSettingsFile
; Function compile flags: /Ogtpy
_TEXT	SEGMENT
?soap_copy___ns1__getSettingsFile@@YAXPAUsoap@@HHPAXIPBXI@Z PROC ; soap_copy___ns1__getSettingsFile
; _p$ = edx
; _q$ = eax

; 3601 : 	DBGLOG(TEST, SOAP_MESSAGE(fdebug, "Copying struct __ns1__getSettingsFile %p -> %p\n", q, p));
; 3602 : 	*(struct __ns1__getSettingsFile*)p = *(struct __ns1__getSettingsFile*)q;

	mov	ecx, DWORD PTR [eax]
	mov	DWORD PTR [edx], ecx

; 3603 : }

	ret	0
?soap_copy___ns1__getSettingsFile@@YAXPAUsoap@@HHPAXIPBXI@Z ENDP ; soap_copy___ns1__getSettingsFile
_TEXT	ENDS
PUBLIC	?soap_delete___ns1__getSettingsFile@@YAXPAUsoap@@PAU__ns1__getSettingsFile@@@Z ; soap_delete___ns1__getSettingsFile
; Function compile flags: /Ogtpy
_TEXT	SEGMENT
?soap_delete___ns1__getSettingsFile@@YAXPAUsoap@@PAU__ns1__getSettingsFile@@@Z PROC ; soap_delete___ns1__getSettingsFile
; _soap$ = eax
; _p$ = ecx

; 3573 : {	soap_delete(soap, p);

	push	eax
	call	_soap_delete
	pop	ecx

; 3574 : }

	ret	0
?soap_delete___ns1__getSettingsFile@@YAXPAUsoap@@PAU__ns1__getSettingsFile@@@Z ENDP ; soap_delete___ns1__getSettingsFile
_TEXT	ENDS
PUBLIC	?soap_default___ns1__getSettingsFile@@YAXPAUsoap@@PAU__ns1__getSettingsFile@@@Z ; soap_default___ns1__getSettingsFile
; Function compile flags: /Ogtpy
_TEXT	SEGMENT
?soap_default___ns1__getSettingsFile@@YAXPAUsoap@@PAU__ns1__getSettingsFile@@@Z PROC ; soap_default___ns1__getSettingsFile
; _a$ = eax

; 3507 : 	(void)soap; (void)a; /* appease -Wall -Werror */
; 3508 : 	a->ns2__getSettingsFileElement = NULL;

	mov	DWORD PTR [eax], 0

; 3509 : }

	ret	0
?soap_default___ns1__getSettingsFile@@YAXPAUsoap@@PAU__ns1__getSettingsFile@@@Z ENDP ; soap_default___ns1__getSettingsFile
_TEXT	ENDS
PUBLIC	?soap_copy___ns1__submitEpochResult@@YAXPAUsoap@@HHPAXIPBXI@Z ; soap_copy___ns1__submitEpochResult
; Function compile flags: /Ogtpy
_TEXT	SEGMENT
?soap_copy___ns1__submitEpochResult@@YAXPAUsoap@@HHPAXIPBXI@Z PROC ; soap_copy___ns1__submitEpochResult
; _p$ = edx
; _q$ = eax

; 3501 : 	DBGLOG(TEST, SOAP_MESSAGE(fdebug, "Copying struct __ns1__submitEpochResult %p -> %p\n", q, p));
; 3502 : 	*(struct __ns1__submitEpochResult*)p = *(struct __ns1__submitEpochResult*)q;

	mov	ecx, DWORD PTR [eax]
	mov	DWORD PTR [edx], ecx

; 3503 : }

	ret	0
?soap_copy___ns1__submitEpochResult@@YAXPAUsoap@@HHPAXIPBXI@Z ENDP ; soap_copy___ns1__submitEpochResult
_TEXT	ENDS
PUBLIC	?soap_delete___ns1__submitEpochResult@@YAXPAUsoap@@PAU__ns1__submitEpochResult@@@Z ; soap_delete___ns1__submitEpochResult
; Function compile flags: /Ogtpy
_TEXT	SEGMENT
?soap_delete___ns1__submitEpochResult@@YAXPAUsoap@@PAU__ns1__submitEpochResult@@@Z PROC ; soap_delete___ns1__submitEpochResult
; _soap$ = eax
; _p$ = ecx

; 3473 : {	soap_delete(soap, p);

	push	eax
	call	_soap_delete
	pop	ecx

; 3474 : }

	ret	0
?soap_delete___ns1__submitEpochResult@@YAXPAUsoap@@PAU__ns1__submitEpochResult@@@Z ENDP ; soap_delete___ns1__submitEpochResult
_TEXT	ENDS
PUBLIC	?soap_default___ns1__submitEpochResult@@YAXPAUsoap@@PAU__ns1__submitEpochResult@@@Z ; soap_default___ns1__submitEpochResult
; Function compile flags: /Ogtpy
_TEXT	SEGMENT
?soap_default___ns1__submitEpochResult@@YAXPAUsoap@@PAU__ns1__submitEpochResult@@@Z PROC ; soap_default___ns1__submitEpochResult
; _a$ = eax

; 3407 : 	(void)soap; (void)a; /* appease -Wall -Werror */
; 3408 : 	a->ns2__submitEpochResultElement = NULL;

	mov	DWORD PTR [eax], 0

; 3409 : }

	ret	0
?soap_default___ns1__submitEpochResult@@YAXPAUsoap@@PAU__ns1__submitEpochResult@@@Z ENDP ; soap_default___ns1__submitEpochResult
_TEXT	ENDS
PUBLIC	?soap_copy_SOAP_ENV__Header@@YAXPAUsoap@@HHPAXIPBXI@Z ; soap_copy_SOAP_ENV__Header
; Function compile flags: /Ogtpy
_TEXT	SEGMENT
?soap_copy_SOAP_ENV__Header@@YAXPAUsoap@@HHPAXIPBXI@Z PROC ; soap_copy_SOAP_ENV__Header
; _p$ = edx
; _q$ = eax

; 3399 : 	DBGLOG(TEST, SOAP_MESSAGE(fdebug, "Copying struct SOAP_ENV__Header %p -> %p\n", q, p));
; 3400 : 	*(struct SOAP_ENV__Header*)p = *(struct SOAP_ENV__Header*)q;

	mov	cl, BYTE PTR [eax]
	mov	BYTE PTR [edx], cl

; 3401 : }

	ret	0
?soap_copy_SOAP_ENV__Header@@YAXPAUsoap@@HHPAXIPBXI@Z ENDP ; soap_copy_SOAP_ENV__Header
_TEXT	ENDS
PUBLIC	?soap_delete_SOAP_ENV__Header@@YAXPAUsoap@@PAUSOAP_ENV__Header@@@Z ; soap_delete_SOAP_ENV__Header
; Function compile flags: /Ogtpy
_TEXT	SEGMENT
?soap_delete_SOAP_ENV__Header@@YAXPAUsoap@@PAUSOAP_ENV__Header@@@Z PROC ; soap_delete_SOAP_ENV__Header
; _soap$ = eax
; _p$ = ecx

; 3371 : {	soap_delete(soap, p);

	push	eax
	call	_soap_delete
	pop	ecx

; 3372 : }

	ret	0
?soap_delete_SOAP_ENV__Header@@YAXPAUsoap@@PAUSOAP_ENV__Header@@@Z ENDP ; soap_delete_SOAP_ENV__Header
_TEXT	ENDS
PUBLIC	?soap_serialize_SOAP_ENV__Header@@YAXPAUsoap@@PBUSOAP_ENV__Header@@@Z ; soap_serialize_SOAP_ENV__Header
; Function compile flags: /Ogtpy
_TEXT	SEGMENT
?soap_serialize_SOAP_ENV__Header@@YAXPAUsoap@@PBUSOAP_ENV__Header@@@Z PROC ; soap_serialize_SOAP_ENV__Header

; 3310 : 	(void)soap; (void)a; /* appease -Wall -Werror */
; 3311 : }

	ret	0
?soap_serialize_SOAP_ENV__Header@@YAXPAUsoap@@PBUSOAP_ENV__Header@@@Z ENDP ; soap_serialize_SOAP_ENV__Header
_TEXT	ENDS
PUBLIC	?soap_default_SOAP_ENV__Header@@YAXPAUsoap@@PAUSOAP_ENV__Header@@@Z ; soap_default_SOAP_ENV__Header
; Function compile flags: /Ogtpy
_TEXT	SEGMENT
?soap_default_SOAP_ENV__Header@@YAXPAUsoap@@PAUSOAP_ENV__Header@@@Z PROC ; soap_default_SOAP_ENV__Header

; 3305 : 	(void)soap; (void)a; /* appease -Wall -Werror */
; 3306 : }

	ret	0
?soap_default_SOAP_ENV__Header@@YAXPAUsoap@@PAUSOAP_ENV__Header@@@Z ENDP ; soap_default_SOAP_ENV__Header
_TEXT	ENDS
PUBLIC	?soap_copy_SOAP_ENV__Code@@YAXPAUsoap@@HHPAXIPBXI@Z ; soap_copy_SOAP_ENV__Code
; Function compile flags: /Ogtpy
_TEXT	SEGMENT
?soap_copy_SOAP_ENV__Code@@YAXPAUsoap@@HHPAXIPBXI@Z PROC ; soap_copy_SOAP_ENV__Code
; _p$ = ecx
; _q$ = eax

; 3295 : 	DBGLOG(TEST, SOAP_MESSAGE(fdebug, "Copying struct SOAP_ENV__Code %p -> %p\n", q, p));
; 3296 : 	*(struct SOAP_ENV__Code*)p = *(struct SOAP_ENV__Code*)q;

	mov	edx, DWORD PTR [eax]
	mov	DWORD PTR [ecx], edx
	mov	eax, DWORD PTR [eax+4]
	mov	DWORD PTR [ecx+4], eax

; 3297 : }

	ret	0
?soap_copy_SOAP_ENV__Code@@YAXPAUsoap@@HHPAXIPBXI@Z ENDP ; soap_copy_SOAP_ENV__Code
_TEXT	ENDS
PUBLIC	?soap_delete_SOAP_ENV__Code@@YAXPAUsoap@@PAUSOAP_ENV__Code@@@Z ; soap_delete_SOAP_ENV__Code
; Function compile flags: /Ogtpy
_TEXT	SEGMENT
?soap_delete_SOAP_ENV__Code@@YAXPAUsoap@@PAUSOAP_ENV__Code@@@Z PROC ; soap_delete_SOAP_ENV__Code
; _soap$ = eax
; _p$ = ecx

; 3267 : {	soap_delete(soap, p);

	push	eax
	call	_soap_delete
	pop	ecx

; 3268 : }

	ret	0
?soap_delete_SOAP_ENV__Code@@YAXPAUsoap@@PAUSOAP_ENV__Code@@@Z ENDP ; soap_delete_SOAP_ENV__Code
_TEXT	ENDS
PUBLIC	?soap_default_SOAP_ENV__Code@@YAXPAUsoap@@PAUSOAP_ENV__Code@@@Z ; soap_default_SOAP_ENV__Code
; Function compile flags: /Ogtpy
_TEXT	SEGMENT
?soap_default_SOAP_ENV__Code@@YAXPAUsoap@@PAUSOAP_ENV__Code@@@Z PROC ; soap_default_SOAP_ENV__Code
; _a$ = eax

; 3180 : 	(void)soap; (void)a; /* appease -Wall -Werror */
; 3181 : 	soap_default__QName(soap, &a->SOAP_ENV__Value);

	mov	DWORD PTR [eax], 0

; 3182 : 	a->SOAP_ENV__Subcode = NULL;

	mov	DWORD PTR [eax+4], 0

; 3183 : }

	ret	0
?soap_default_SOAP_ENV__Code@@YAXPAUsoap@@PAUSOAP_ENV__Code@@@Z ENDP ; soap_default_SOAP_ENV__Code
_TEXT	ENDS
PUBLIC	?soap_copy_SOAP_ENV__Detail@@YAXPAUsoap@@HHPAXIPBXI@Z ; soap_copy_SOAP_ENV__Detail
; Function compile flags: /Ogtpy
_TEXT	SEGMENT
?soap_copy_SOAP_ENV__Detail@@YAXPAUsoap@@HHPAXIPBXI@Z PROC ; soap_copy_SOAP_ENV__Detail
; _p$ = ecx
; _q$ = eax

; 3170 : 	DBGLOG(TEST, SOAP_MESSAGE(fdebug, "Copying struct SOAP_ENV__Detail %p -> %p\n", q, p));
; 3171 : 	*(struct SOAP_ENV__Detail*)p = *(struct SOAP_ENV__Detail*)q;

	movq	xmm0, QWORD PTR [eax]
	movq	QWORD PTR [ecx], xmm0
	mov	eax, DWORD PTR [eax+8]
	mov	DWORD PTR [ecx+8], eax

; 3172 : }

	ret	0
?soap_copy_SOAP_ENV__Detail@@YAXPAUsoap@@HHPAXIPBXI@Z ENDP ; soap_copy_SOAP_ENV__Detail
_TEXT	ENDS
PUBLIC	?soap_delete_SOAP_ENV__Detail@@YAXPAUsoap@@PAUSOAP_ENV__Detail@@@Z ; soap_delete_SOAP_ENV__Detail
; Function compile flags: /Ogtpy
_TEXT	SEGMENT
?soap_delete_SOAP_ENV__Detail@@YAXPAUsoap@@PAUSOAP_ENV__Detail@@@Z PROC ; soap_delete_SOAP_ENV__Detail
; _soap$ = eax
; _p$ = ecx

; 3142 : {	soap_delete(soap, p);

	push	eax
	call	_soap_delete
	pop	ecx

; 3143 : }

	ret	0
?soap_delete_SOAP_ENV__Detail@@YAXPAUsoap@@PAUSOAP_ENV__Detail@@@Z ENDP ; soap_delete_SOAP_ENV__Detail
_TEXT	ENDS
PUBLIC	?soap_default_SOAP_ENV__Detail@@YAXPAUsoap@@PAUSOAP_ENV__Detail@@@Z ; soap_default_SOAP_ENV__Detail
; Function compile flags: /Ogtpy
_TEXT	SEGMENT
?soap_default_SOAP_ENV__Detail@@YAXPAUsoap@@PAUSOAP_ENV__Detail@@@Z PROC ; soap_default_SOAP_ENV__Detail
; _a$ = eax

; 3057 : 	(void)soap; (void)a; /* appease -Wall -Werror */
; 3058 : 	a->__type = 0;

	xor	ecx, ecx
	mov	DWORD PTR [eax], ecx

; 3059 : 	a->fault = NULL;

	mov	DWORD PTR [eax+4], ecx

; 3060 : 	a->__any = NULL;

	mov	DWORD PTR [eax+8], ecx

; 3061 : }

	ret	0
?soap_default_SOAP_ENV__Detail@@YAXPAUsoap@@PAUSOAP_ENV__Detail@@@Z ENDP ; soap_default_SOAP_ENV__Detail
_TEXT	ENDS
PUBLIC	?soap_copy_SOAP_ENV__Reason@@YAXPAUsoap@@HHPAXIPBXI@Z ; soap_copy_SOAP_ENV__Reason
; Function compile flags: /Ogtpy
_TEXT	SEGMENT
?soap_copy_SOAP_ENV__Reason@@YAXPAUsoap@@HHPAXIPBXI@Z PROC ; soap_copy_SOAP_ENV__Reason
; _p$ = edx
; _q$ = eax

; 3047 : 	DBGLOG(TEST, SOAP_MESSAGE(fdebug, "Copying struct SOAP_ENV__Reason %p -> %p\n", q, p));
; 3048 : 	*(struct SOAP_ENV__Reason*)p = *(struct SOAP_ENV__Reason*)q;

	mov	ecx, DWORD PTR [eax]
	mov	DWORD PTR [edx], ecx

; 3049 : }

	ret	0
?soap_copy_SOAP_ENV__Reason@@YAXPAUsoap@@HHPAXIPBXI@Z ENDP ; soap_copy_SOAP_ENV__Reason
_TEXT	ENDS
PUBLIC	?soap_delete_SOAP_ENV__Reason@@YAXPAUsoap@@PAUSOAP_ENV__Reason@@@Z ; soap_delete_SOAP_ENV__Reason
; Function compile flags: /Ogtpy
_TEXT	SEGMENT
?soap_delete_SOAP_ENV__Reason@@YAXPAUsoap@@PAUSOAP_ENV__Reason@@@Z PROC ; soap_delete_SOAP_ENV__Reason
; _soap$ = eax
; _p$ = ecx

; 3019 : {	soap_delete(soap, p);

	push	eax
	call	_soap_delete
	pop	ecx

; 3020 : }

	ret	0
?soap_delete_SOAP_ENV__Reason@@YAXPAUsoap@@PAUSOAP_ENV__Reason@@@Z ENDP ; soap_delete_SOAP_ENV__Reason
_TEXT	ENDS
PUBLIC	?soap_default_SOAP_ENV__Reason@@YAXPAUsoap@@PAUSOAP_ENV__Reason@@@Z ; soap_default_SOAP_ENV__Reason
; Function compile flags: /Ogtpy
_TEXT	SEGMENT
?soap_default_SOAP_ENV__Reason@@YAXPAUsoap@@PAUSOAP_ENV__Reason@@@Z PROC ; soap_default_SOAP_ENV__Reason
; _a$ = eax

; 2940 : 	(void)soap; (void)a; /* appease -Wall -Werror */
; 2941 : 	soap_default_string(soap, &a->SOAP_ENV__Text);

	mov	DWORD PTR [eax], 0

; 2942 : }

	ret	0
?soap_default_SOAP_ENV__Reason@@YAXPAUsoap@@PAUSOAP_ENV__Reason@@@Z ENDP ; soap_default_SOAP_ENV__Reason
_TEXT	ENDS
PUBLIC	?soap_copy_SOAP_ENV__Fault@@YAXPAUsoap@@HHPAXIPBXI@Z ; soap_copy_SOAP_ENV__Fault
; Function compile flags: /Ogtpy
_TEXT	SEGMENT
?soap_copy_SOAP_ENV__Fault@@YAXPAUsoap@@HHPAXIPBXI@Z PROC ; soap_copy_SOAP_ENV__Fault
; _p$ = ecx
; _q$ = eax

; 2930 : 	DBGLOG(TEST, SOAP_MESSAGE(fdebug, "Copying struct SOAP_ENV__Fault %p -> %p\n", q, p));
; 2931 : 	*(struct SOAP_ENV__Fault*)p = *(struct SOAP_ENV__Fault*)q;

	movq	xmm0, QWORD PTR [eax]
	movq	QWORD PTR [ecx], xmm0
	movq	xmm0, QWORD PTR [eax+8]
	movq	QWORD PTR [ecx+8], xmm0
	movq	xmm0, QWORD PTR [eax+16]
	movq	QWORD PTR [ecx+16], xmm0
	movq	xmm0, QWORD PTR [eax+24]
	movq	QWORD PTR [ecx+24], xmm0
	mov	eax, DWORD PTR [eax+32]
	mov	DWORD PTR [ecx+32], eax

; 2932 : }

	ret	0
?soap_copy_SOAP_ENV__Fault@@YAXPAUsoap@@HHPAXIPBXI@Z ENDP ; soap_copy_SOAP_ENV__Fault
_TEXT	ENDS
PUBLIC	?soap_delete_SOAP_ENV__Fault@@YAXPAUsoap@@PAUSOAP_ENV__Fault@@@Z ; soap_delete_SOAP_ENV__Fault
; Function compile flags: /Ogtpy
_TEXT	SEGMENT
?soap_delete_SOAP_ENV__Fault@@YAXPAUsoap@@PAUSOAP_ENV__Fault@@@Z PROC ; soap_delete_SOAP_ENV__Fault
; _soap$ = eax
; _p$ = ecx

; 2902 : {	soap_delete(soap, p);

	push	eax
	call	_soap_delete
	pop	ecx

; 2903 : }

	ret	0
?soap_delete_SOAP_ENV__Fault@@YAXPAUsoap@@PAUSOAP_ENV__Fault@@@Z ENDP ; soap_delete_SOAP_ENV__Fault
_TEXT	ENDS
PUBLIC	?soap_default_SOAP_ENV__Fault@@YAXPAUsoap@@PAUSOAP_ENV__Fault@@@Z ; soap_default_SOAP_ENV__Fault
; Function compile flags: /Ogtpy
_TEXT	SEGMENT
?soap_default_SOAP_ENV__Fault@@YAXPAUsoap@@PAUSOAP_ENV__Fault@@@Z PROC ; soap_default_SOAP_ENV__Fault
; _a$ = eax

; 2745 : 	(void)soap; (void)a; /* appease -Wall -Werror */
; 2746 : 	soap_default__QName(soap, &a->faultcode);

	xor	ecx, ecx
	mov	DWORD PTR [eax], ecx

; 2747 : 	soap_default_string(soap, &a->faultstring);

	mov	DWORD PTR [eax+4], ecx

; 2748 : 	soap_default_string(soap, &a->faultactor);

	mov	DWORD PTR [eax+8], ecx

; 2749 : 	a->detail = NULL;

	mov	DWORD PTR [eax+12], ecx

; 2750 : 	a->SOAP_ENV__Code = NULL;

	mov	DWORD PTR [eax+16], ecx

; 2751 : 	a->SOAP_ENV__Reason = NULL;

	mov	DWORD PTR [eax+20], ecx

; 2752 : 	soap_default_string(soap, &a->SOAP_ENV__Node);

	mov	DWORD PTR [eax+24], ecx

; 2753 : 	soap_default_string(soap, &a->SOAP_ENV__Role);

	mov	DWORD PTR [eax+28], ecx

; 2754 : 	a->SOAP_ENV__Detail = NULL;

	mov	DWORD PTR [eax+32], ecx

; 2755 : }

	ret	0
?soap_default_SOAP_ENV__Fault@@YAXPAUsoap@@PAUSOAP_ENV__Fault@@@Z ENDP ; soap_default_SOAP_ENV__Fault
_TEXT	ENDS
PUBLIC	?soap_delete_xsd__anyType@@YAXPAUsoap@@PAVxsd__anyType@@@Z ; soap_delete_xsd__anyType
; Function compile flags: /Ogtpy
_TEXT	SEGMENT
?soap_delete_xsd__anyType@@YAXPAUsoap@@PAVxsd__anyType@@@Z PROC ; soap_delete_xsd__anyType
; _soap$ = eax
; _p$ = ecx

; 2596 : {	soap_delete(soap, p);

	push	eax
	call	_soap_delete
	pop	ecx

; 2597 : }

	ret	0
?soap_delete_xsd__anyType@@YAXPAUsoap@@PAVxsd__anyType@@@Z ENDP ; soap_delete_xsd__anyType
; Function compile flags: /Ogtpy
_soap$ = 8						; size = 4
?soap_serialize@xsd__anyType@@UBEXPAUsoap@@@Z PROC	; xsd__anyType::soap_serialize
; _this$ = ecx

; 2532 : 	(void)soap; /* appease -Wall -Werror */
; 2533 : 	/* transient soap skipped */
; 2534 : }

	ret	4
?soap_serialize@xsd__anyType@@UBEXPAUsoap@@@Z ENDP	; xsd__anyType::soap_serialize
; Function compile flags: /Ogtpy
_soap$ = 8						; size = 4
?soap_default@xsd__anyType@@UAEXPAUsoap@@@Z PROC	; xsd__anyType::soap_default
; _this$ = ecx

; 2525 : 	this->soap = soap;

	mov	eax, DWORD PTR _soap$[esp-4]
	mov	DWORD PTR [ecx+8], eax

; 2526 : 	this->xsd__anyType::__item = NULL;

	mov	DWORD PTR [ecx+4], 0

; 2527 : 	/* transient soap skipped */
; 2528 : }

	ret	4
?soap_default@xsd__anyType@@UAEXPAUsoap@@@Z ENDP	; xsd__anyType::soap_default
_TEXT	ENDS
PUBLIC	?soap_delete_xsd__boolean@@YAXPAUsoap@@PAVxsd__boolean@@@Z ; soap_delete_xsd__boolean
; Function compile flags: /Ogtpy
_TEXT	SEGMENT
?soap_delete_xsd__boolean@@YAXPAUsoap@@PAVxsd__boolean@@@Z PROC ; soap_delete_xsd__boolean
; _soap$ = eax
; _p$ = ecx

; 2488 : {	soap_delete(soap, p);

	push	eax
	call	_soap_delete
	pop	ecx

; 2489 : }

	ret	0
?soap_delete_xsd__boolean@@YAXPAUsoap@@PAVxsd__boolean@@@Z ENDP ; soap_delete_xsd__boolean
; Function compile flags: /Ogtpy
_soap$ = 8						; size = 4
?soap_serialize@xsd__boolean@@UBEXPAUsoap@@@Z PROC	; xsd__boolean::soap_serialize
; _this$ = ecx

; 2424 : 	(void)soap; /* appease -Wall -Werror */
; 2425 : 	/* transient soap skipped */
; 2426 : }

	ret	4
?soap_serialize@xsd__boolean@@UBEXPAUsoap@@@Z ENDP	; xsd__boolean::soap_serialize
_TEXT	ENDS
PUBLIC	?soap_delete_xsd__float@@YAXPAUsoap@@PAVxsd__float@@@Z ; soap_delete_xsd__float
; Function compile flags: /Ogtpy
_TEXT	SEGMENT
?soap_delete_xsd__float@@YAXPAUsoap@@PAVxsd__float@@@Z PROC ; soap_delete_xsd__float
; _soap$ = eax
; _p$ = ecx

; 2379 : {	soap_delete(soap, p);

	push	eax
	call	_soap_delete
	pop	ecx

; 2380 : }

	ret	0
?soap_delete_xsd__float@@YAXPAUsoap@@PAVxsd__float@@@Z ENDP ; soap_delete_xsd__float
; Function compile flags: /Ogtpy
_soap$ = 8						; size = 4
?soap_serialize@xsd__float@@UBEXPAUsoap@@@Z PROC	; xsd__float::soap_serialize
; _this$ = ecx

; 2315 : 	(void)soap; /* appease -Wall -Werror */
; 2316 : 	/* transient soap skipped */
; 2317 : }

	ret	4
?soap_serialize@xsd__float@@UBEXPAUsoap@@@Z ENDP	; xsd__float::soap_serialize
_TEXT	ENDS
PUBLIC	?soap_delete_xsd__int@@YAXPAUsoap@@PAVxsd__int@@@Z ; soap_delete_xsd__int
; Function compile flags: /Ogtpy
_TEXT	SEGMENT
?soap_delete_xsd__int@@YAXPAUsoap@@PAVxsd__int@@@Z PROC	; soap_delete_xsd__int
; _soap$ = eax
; _p$ = ecx

; 2270 : {	soap_delete(soap, p);

	push	eax
	call	_soap_delete
	pop	ecx

; 2271 : }

	ret	0
?soap_delete_xsd__int@@YAXPAUsoap@@PAVxsd__int@@@Z ENDP	; soap_delete_xsd__int
; Function compile flags: /Ogtpy
_soap$ = 8						; size = 4
?soap_serialize@xsd__int@@UBEXPAUsoap@@@Z PROC		; xsd__int::soap_serialize
; _this$ = ecx

; 2206 : 	(void)soap; /* appease -Wall -Werror */
; 2207 : 	/* transient soap skipped */
; 2208 : }

	ret	4
?soap_serialize@xsd__int@@UBEXPAUsoap@@@Z ENDP		; xsd__int::soap_serialize
_TEXT	ENDS
PUBLIC	?soap_delete_xsd__long@@YAXPAUsoap@@PAVxsd__long@@@Z ; soap_delete_xsd__long
; Function compile flags: /Ogtpy
_TEXT	SEGMENT
?soap_delete_xsd__long@@YAXPAUsoap@@PAVxsd__long@@@Z PROC ; soap_delete_xsd__long
; _soap$ = eax
; _p$ = ecx

; 2161 : {	soap_delete(soap, p);

	push	eax
	call	_soap_delete
	pop	ecx

; 2162 : }

	ret	0
?soap_delete_xsd__long@@YAXPAUsoap@@PAVxsd__long@@@Z ENDP ; soap_delete_xsd__long
; Function compile flags: /Ogtpy
_soap$ = 8						; size = 4
?soap_serialize@xsd__long@@UBEXPAUsoap@@@Z PROC		; xsd__long::soap_serialize
; _this$ = ecx

; 2097 : 	(void)soap; /* appease -Wall -Werror */
; 2098 : 	/* transient soap skipped */
; 2099 : }

	ret	4
?soap_serialize@xsd__long@@UBEXPAUsoap@@@Z ENDP		; xsd__long::soap_serialize
; Function compile flags: /Ogtpy
_TEXT	ENDS
;	COMDAT ??4xsd__anyType@@QAEAAV0@ABV0@@Z
_TEXT	SEGMENT
??4xsd__anyType@@QAEAAV0@ABV0@@Z PROC			; xsd__anyType::operator=, COMDAT
; _this$ = eax
; ___that$ = ecx
	mov	edx, DWORD PTR [ecx+4]
	mov	DWORD PTR [eax+4], edx
	mov	ecx, DWORD PTR [ecx+8]
	mov	DWORD PTR [eax+8], ecx
	ret	0
??4xsd__anyType@@QAEAAV0@ABV0@@Z ENDP			; xsd__anyType::operator=
_TEXT	ENDS
PUBLIC	?soap_delete_xsd__string@@YAXPAUsoap@@PAVxsd__string@@@Z ; soap_delete_xsd__string
; Function compile flags: /Ogtpy
_TEXT	SEGMENT
?soap_delete_xsd__string@@YAXPAUsoap@@PAVxsd__string@@@Z PROC ; soap_delete_xsd__string
; _soap$ = eax
; _p$ = ecx

; 2052 : {	soap_delete(soap, p);

	push	eax
	call	_soap_delete
	pop	ecx

; 2053 : }

	ret	0
?soap_delete_xsd__string@@YAXPAUsoap@@PAVxsd__string@@@Z ENDP ; soap_delete_xsd__string
_TEXT	ENDS
PUBLIC	?soap_delete_std__string@@YAXPAUsoap@@PAV?$basic_string@DU?$char_traits@D@std@@V?$allocator@D@2@@std@@@Z ; soap_delete_std__string
; Function compile flags: /Ogtpy
_TEXT	SEGMENT
?soap_delete_std__string@@YAXPAUsoap@@PAV?$basic_string@DU?$char_traits@D@std@@V?$allocator@D@2@@std@@@Z PROC ; soap_delete_std__string
; _soap$ = eax
; _p$ = ecx

; 1944 : {	soap_delete(soap, p);

	push	eax
	call	_soap_delete
	pop	ecx

; 1945 : }

	ret	0
?soap_delete_std__string@@YAXPAUsoap@@PAV?$basic_string@DU?$char_traits@D@std@@V?$allocator@D@2@@std@@@Z ENDP ; soap_delete_std__string
_TEXT	ENDS
PUBLIC	?soap_serialize_std__string@@YAXPAUsoap@@PBV?$basic_string@DU?$char_traits@D@std@@V?$allocator@D@2@@std@@@Z ; soap_serialize_std__string
; Function compile flags: /Ogtpy
_TEXT	SEGMENT
?soap_serialize_std__string@@YAXPAUsoap@@PBV?$basic_string@DU?$char_traits@D@std@@V?$allocator@D@2@@std@@@Z PROC ; soap_serialize_std__string

; 1885 : }

	ret	0
?soap_serialize_std__string@@YAXPAUsoap@@PBV?$basic_string@DU?$char_traits@D@std@@V?$allocator@D@2@@std@@@Z ENDP ; soap_serialize_std__string
; Function compile flags: /Ogtpy
_TEXT	ENDS
;	COMDAT ??4_ns2__getSessionIDElement@@QAEAAV0@ABV0@@Z
_TEXT	SEGMENT
??4_ns2__getSessionIDElement@@QAEAAV0@ABV0@@Z PROC	; _ns2__getSessionIDElement::operator=, COMDAT
; _this$ = eax
; ___that$ = ecx
	mov	edx, DWORD PTR [ecx+4]
	mov	DWORD PTR [eax+4], edx
	mov	ecx, DWORD PTR [ecx+8]
	mov	DWORD PTR [eax+8], ecx
	ret	0
??4_ns2__getSessionIDElement@@QAEAAV0@ABV0@@Z ENDP	; _ns2__getSessionIDElement::operator=
_TEXT	ENDS
PUBLIC	?soap_copy__ns2__getSessionIDElement@@YAXPAUsoap@@HHPAXIPBXI@Z ; soap_copy__ns2__getSessionIDElement
; Function compile flags: /Ogtpy
_TEXT	SEGMENT
_soap$ = 8						; size = 4
_st$ = 12						; size = 4
_tt$ = 16						; size = 4
_p$ = 20						; size = 4
_len$ = 24						; size = 4
_q$ = 28						; size = 4
_n$ = 32						; size = 4
?soap_copy__ns2__getSessionIDElement@@YAXPAUsoap@@HHPAXIPBXI@Z PROC ; soap_copy__ns2__getSessionIDElement

; 1874 : 	DBGLOG(TEST, SOAP_MESSAGE(fdebug, "Copying _ns2__getSessionIDElement %p -> %p\n", q, p));
; 1875 : 	*(_ns2__getSessionIDElement*)p = *(_ns2__getSessionIDElement*)q;

	mov	eax, DWORD PTR _q$[esp-4]
	mov	edx, DWORD PTR [eax+4]
	mov	ecx, DWORD PTR _p$[esp-4]
	mov	DWORD PTR [ecx+4], edx
	mov	eax, DWORD PTR [eax+8]
	mov	DWORD PTR [ecx+8], eax

; 1876 : }

	ret	0
?soap_copy__ns2__getSessionIDElement@@YAXPAUsoap@@HHPAXIPBXI@Z ENDP ; soap_copy__ns2__getSessionIDElement
_TEXT	ENDS
PUBLIC	?soap_delete__ns2__getSessionIDElement@@YAXPAUsoap@@PAV_ns2__getSessionIDElement@@@Z ; soap_delete__ns2__getSessionIDElement
; Function compile flags: /Ogtpy
_TEXT	SEGMENT
?soap_delete__ns2__getSessionIDElement@@YAXPAUsoap@@PAV_ns2__getSessionIDElement@@@Z PROC ; soap_delete__ns2__getSessionIDElement
; _soap$ = eax
; _p$ = ecx

; 1843 : {	soap_delete(soap, p);

	push	eax
	call	_soap_delete
	pop	ecx

; 1844 : }

	ret	0
?soap_delete__ns2__getSessionIDElement@@YAXPAUsoap@@PAV_ns2__getSessionIDElement@@@Z ENDP ; soap_delete__ns2__getSessionIDElement
; Function compile flags: /Ogtpy
_soap$ = 8						; size = 4
?soap_default@_ns2__getSessionIDElement@@UAEXPAUsoap@@@Z PROC ; _ns2__getSessionIDElement::soap_default
; _this$ = ecx

; 1742 : 	this->soap = soap;

	mov	eax, DWORD PTR _soap$[esp-4]
	mov	DWORD PTR [ecx+8], eax

; 1743 : 	this->_ns2__getSessionIDElement::String_USCORE1 = NULL;

	mov	DWORD PTR [ecx+4], 0

; 1744 : 	/* transient soap skipped */
; 1745 : }

	ret	4
?soap_default@_ns2__getSessionIDElement@@UAEXPAUsoap@@@Z ENDP ; _ns2__getSessionIDElement::soap_default
; Function compile flags: /Ogtpy
_TEXT	ENDS
;	COMDAT ??4_ns2__getSessionIDResponseElement@@QAEAAV0@ABV0@@Z
_TEXT	SEGMENT
??4_ns2__getSessionIDResponseElement@@QAEAAV0@ABV0@@Z PROC ; _ns2__getSessionIDResponseElement::operator=, COMDAT
; _this$ = eax
; ___that$ = ecx
	mov	edx, DWORD PTR [ecx+4]
	mov	DWORD PTR [eax+4], edx
	mov	ecx, DWORD PTR [ecx+8]
	mov	DWORD PTR [eax+8], ecx
	ret	0
??4_ns2__getSessionIDResponseElement@@QAEAAV0@ABV0@@Z ENDP ; _ns2__getSessionIDResponseElement::operator=
_TEXT	ENDS
PUBLIC	?soap_copy__ns2__getSessionIDResponseElement@@YAXPAUsoap@@HHPAXIPBXI@Z ; soap_copy__ns2__getSessionIDResponseElement
; Function compile flags: /Ogtpy
_TEXT	SEGMENT
_soap$ = 8						; size = 4
_st$ = 12						; size = 4
_tt$ = 16						; size = 4
_p$ = 20						; size = 4
_len$ = 24						; size = 4
_q$ = 28						; size = 4
_n$ = 32						; size = 4
?soap_copy__ns2__getSessionIDResponseElement@@YAXPAUsoap@@HHPAXIPBXI@Z PROC ; soap_copy__ns2__getSessionIDResponseElement

; 1736 : 	DBGLOG(TEST, SOAP_MESSAGE(fdebug, "Copying _ns2__getSessionIDResponseElement %p -> %p\n", q, p));
; 1737 : 	*(_ns2__getSessionIDResponseElement*)p = *(_ns2__getSessionIDResponseElement*)q;

	mov	eax, DWORD PTR _q$[esp-4]
	mov	edx, DWORD PTR [eax+4]
	mov	ecx, DWORD PTR _p$[esp-4]
	mov	DWORD PTR [ecx+4], edx
	mov	eax, DWORD PTR [eax+8]
	mov	DWORD PTR [ecx+8], eax

; 1738 : }

	ret	0
?soap_copy__ns2__getSessionIDResponseElement@@YAXPAUsoap@@HHPAXIPBXI@Z ENDP ; soap_copy__ns2__getSessionIDResponseElement
_TEXT	ENDS
PUBLIC	?soap_delete__ns2__getSessionIDResponseElement@@YAXPAUsoap@@PAV_ns2__getSessionIDResponseElement@@@Z ; soap_delete__ns2__getSessionIDResponseElement
; Function compile flags: /Ogtpy
_TEXT	SEGMENT
?soap_delete__ns2__getSessionIDResponseElement@@YAXPAUsoap@@PAV_ns2__getSessionIDResponseElement@@@Z PROC ; soap_delete__ns2__getSessionIDResponseElement
; _soap$ = eax
; _p$ = ecx

; 1705 : {	soap_delete(soap, p);

	push	eax
	call	_soap_delete
	pop	ecx

; 1706 : }

	ret	0
?soap_delete__ns2__getSessionIDResponseElement@@YAXPAUsoap@@PAV_ns2__getSessionIDResponseElement@@@Z ENDP ; soap_delete__ns2__getSessionIDResponseElement
; Function compile flags: /Ogtpy
_soap$ = 8						; size = 4
?soap_serialize@_ns2__getSessionIDResponseElement@@UBEXPAUsoap@@@Z PROC ; _ns2__getSessionIDResponseElement::soap_serialize
; _this$ = ecx

; 1606 : 	(void)soap; /* appease -Wall -Werror */
; 1607 : 	/* transient soap skipped */
; 1608 : }

	ret	4
?soap_serialize@_ns2__getSessionIDResponseElement@@UBEXPAUsoap@@@Z ENDP ; _ns2__getSessionIDResponseElement::soap_serialize
; Function compile flags: /Ogtpy
_TEXT	ENDS
;	COMDAT ??4_ns2__getSettingsFileElement@@QAEAAV0@ABV0@@Z
_TEXT	SEGMENT
??4_ns2__getSettingsFileElement@@QAEAAV0@ABV0@@Z PROC	; _ns2__getSettingsFileElement::operator=, COMDAT
; _this$ = eax
; ___that$ = ecx
	mov	edx, DWORD PTR [ecx+4]
	mov	DWORD PTR [eax+4], edx
	mov	ecx, DWORD PTR [ecx+8]
	mov	DWORD PTR [eax+8], ecx
	ret	0
??4_ns2__getSettingsFileElement@@QAEAAV0@ABV0@@Z ENDP	; _ns2__getSettingsFileElement::operator=
_TEXT	ENDS
PUBLIC	?soap_copy__ns2__getSettingsFileElement@@YAXPAUsoap@@HHPAXIPBXI@Z ; soap_copy__ns2__getSettingsFileElement
; Function compile flags: /Ogtpy
_TEXT	SEGMENT
_soap$ = 8						; size = 4
_st$ = 12						; size = 4
_tt$ = 16						; size = 4
_p$ = 20						; size = 4
_len$ = 24						; size = 4
_q$ = 28						; size = 4
_n$ = 32						; size = 4
?soap_copy__ns2__getSettingsFileElement@@YAXPAUsoap@@HHPAXIPBXI@Z PROC ; soap_copy__ns2__getSettingsFileElement

; 1593 : 	DBGLOG(TEST, SOAP_MESSAGE(fdebug, "Copying _ns2__getSettingsFileElement %p -> %p\n", q, p));
; 1594 : 	*(_ns2__getSettingsFileElement*)p = *(_ns2__getSettingsFileElement*)q;

	mov	eax, DWORD PTR _q$[esp-4]
	mov	edx, DWORD PTR [eax+4]
	mov	ecx, DWORD PTR _p$[esp-4]
	mov	DWORD PTR [ecx+4], edx
	mov	eax, DWORD PTR [eax+8]
	mov	DWORD PTR [ecx+8], eax

; 1595 : }

	ret	0
?soap_copy__ns2__getSettingsFileElement@@YAXPAUsoap@@HHPAXIPBXI@Z ENDP ; soap_copy__ns2__getSettingsFileElement
_TEXT	ENDS
PUBLIC	?soap_delete__ns2__getSettingsFileElement@@YAXPAUsoap@@PAV_ns2__getSettingsFileElement@@@Z ; soap_delete__ns2__getSettingsFileElement
; Function compile flags: /Ogtpy
_TEXT	SEGMENT
?soap_delete__ns2__getSettingsFileElement@@YAXPAUsoap@@PAV_ns2__getSettingsFileElement@@@Z PROC ; soap_delete__ns2__getSettingsFileElement
; _soap$ = eax
; _p$ = ecx

; 1562 : {	soap_delete(soap, p);

	push	eax
	call	_soap_delete
	pop	ecx

; 1563 : }

	ret	0
?soap_delete__ns2__getSettingsFileElement@@YAXPAUsoap@@PAV_ns2__getSettingsFileElement@@@Z ENDP ; soap_delete__ns2__getSettingsFileElement
; Function compile flags: /Ogtpy
_soap$ = 8						; size = 4
?soap_serialize@_ns2__getSettingsFileElement@@UBEXPAUsoap@@@Z PROC ; _ns2__getSettingsFileElement::soap_serialize
; _this$ = ecx

; 1465 : 	(void)soap; /* appease -Wall -Werror */
; 1466 : 	/* transient soap skipped */
; 1467 : }

	ret	4
?soap_serialize@_ns2__getSettingsFileElement@@UBEXPAUsoap@@@Z ENDP ; _ns2__getSettingsFileElement::soap_serialize
; Function compile flags: /Ogtpy
_TEXT	ENDS
;	COMDAT ??4_ns2__getSettingsFileResponseElement@@QAEAAV0@ABV0@@Z
_TEXT	SEGMENT
??4_ns2__getSettingsFileResponseElement@@QAEAAV0@ABV0@@Z PROC ; _ns2__getSettingsFileResponseElement::operator=, COMDAT
; _this$ = eax
; ___that$ = ecx
	mov	edx, DWORD PTR [ecx+4]
	mov	DWORD PTR [eax+4], edx
	mov	ecx, DWORD PTR [ecx+8]
	mov	DWORD PTR [eax+8], ecx
	ret	0
??4_ns2__getSettingsFileResponseElement@@QAEAAV0@ABV0@@Z ENDP ; _ns2__getSettingsFileResponseElement::operator=
_TEXT	ENDS
PUBLIC	?soap_copy__ns2__getSettingsFileResponseElement@@YAXPAUsoap@@HHPAXIPBXI@Z ; soap_copy__ns2__getSettingsFileResponseElement
; Function compile flags: /Ogtpy
_TEXT	SEGMENT
_soap$ = 8						; size = 4
_st$ = 12						; size = 4
_tt$ = 16						; size = 4
_p$ = 20						; size = 4
_len$ = 24						; size = 4
_q$ = 28						; size = 4
_n$ = 32						; size = 4
?soap_copy__ns2__getSettingsFileResponseElement@@YAXPAUsoap@@HHPAXIPBXI@Z PROC ; soap_copy__ns2__getSettingsFileResponseElement

; 1452 : 	DBGLOG(TEST, SOAP_MESSAGE(fdebug, "Copying _ns2__getSettingsFileResponseElement %p -> %p\n", q, p));
; 1453 : 	*(_ns2__getSettingsFileResponseElement*)p = *(_ns2__getSettingsFileResponseElement*)q;

	mov	eax, DWORD PTR _q$[esp-4]
	mov	edx, DWORD PTR [eax+4]
	mov	ecx, DWORD PTR _p$[esp-4]
	mov	DWORD PTR [ecx+4], edx
	mov	eax, DWORD PTR [eax+8]
	mov	DWORD PTR [ecx+8], eax

; 1454 : }

	ret	0
?soap_copy__ns2__getSettingsFileResponseElement@@YAXPAUsoap@@HHPAXIPBXI@Z ENDP ; soap_copy__ns2__getSettingsFileResponseElement
_TEXT	ENDS
PUBLIC	?soap_delete__ns2__getSettingsFileResponseElement@@YAXPAUsoap@@PAV_ns2__getSettingsFileResponseElement@@@Z ; soap_delete__ns2__getSettingsFileResponseElement
; Function compile flags: /Ogtpy
_TEXT	SEGMENT
?soap_delete__ns2__getSettingsFileResponseElement@@YAXPAUsoap@@PAV_ns2__getSettingsFileResponseElement@@@Z PROC ; soap_delete__ns2__getSettingsFileResponseElement
; _soap$ = eax
; _p$ = ecx

; 1421 : {	soap_delete(soap, p);

	push	eax
	call	_soap_delete
	pop	ecx

; 1422 : }

	ret	0
?soap_delete__ns2__getSettingsFileResponseElement@@YAXPAUsoap@@PAV_ns2__getSettingsFileResponseElement@@@Z ENDP ; soap_delete__ns2__getSettingsFileResponseElement
; Function compile flags: /Ogtpy
_soap$ = 8						; size = 4
?soap_default@_ns2__getSettingsFileResponseElement@@UAEXPAUsoap@@@Z PROC ; _ns2__getSettingsFileResponseElement::soap_default
; _this$ = ecx

; 1317 : 	this->soap = soap;

	mov	eax, DWORD PTR _soap$[esp-4]
	mov	DWORD PTR [ecx+8], eax

; 1318 : 	this->_ns2__getSettingsFileResponseElement::result = NULL;

	mov	DWORD PTR [ecx+4], 0

; 1319 : 	/* transient soap skipped */
; 1320 : }

	ret	4
?soap_default@_ns2__getSettingsFileResponseElement@@UAEXPAUsoap@@@Z ENDP ; _ns2__getSettingsFileResponseElement::soap_default
_TEXT	ENDS
PUBLIC	?soap_delete__ns2__submitEpochResultElement@@YAXPAUsoap@@PAV_ns2__submitEpochResultElement@@@Z ; soap_delete__ns2__submitEpochResultElement
; Function compile flags: /Ogtpy
_TEXT	SEGMENT
?soap_delete__ns2__submitEpochResultElement@@YAXPAUsoap@@PAV_ns2__submitEpochResultElement@@@Z PROC ; soap_delete__ns2__submitEpochResultElement
; _soap$ = eax
; _p$ = ecx

; 1280 : {	soap_delete(soap, p);

	push	eax
	call	_soap_delete
	pop	ecx

; 1281 : }

	ret	0
?soap_delete__ns2__submitEpochResultElement@@YAXPAUsoap@@PAV_ns2__submitEpochResultElement@@@Z ENDP ; soap_delete__ns2__submitEpochResultElement
; Function compile flags: /Ogtpy
_TEXT	ENDS
;	COMDAT ??4_ns2__submitEpochResultResponseElement@@QAEAAV0@ABV0@@Z
_TEXT	SEGMENT
??4_ns2__submitEpochResultResponseElement@@QAEAAV0@ABV0@@Z PROC ; _ns2__submitEpochResultResponseElement::operator=, COMDAT
; _this$ = eax
; ___that$ = ecx
	mov	dl, BYTE PTR [ecx+4]
	mov	BYTE PTR [eax+4], dl
	mov	ecx, DWORD PTR [ecx+8]
	mov	DWORD PTR [eax+8], ecx
	ret	0
??4_ns2__submitEpochResultResponseElement@@QAEAAV0@ABV0@@Z ENDP ; _ns2__submitEpochResultResponseElement::operator=
_TEXT	ENDS
PUBLIC	?soap_copy__ns2__submitEpochResultResponseElement@@YAXPAUsoap@@HHPAXIPBXI@Z ; soap_copy__ns2__submitEpochResultResponseElement
; Function compile flags: /Ogtpy
_TEXT	SEGMENT
_soap$ = 8						; size = 4
_st$ = 12						; size = 4
_tt$ = 16						; size = 4
_p$ = 20						; size = 4
_len$ = 24						; size = 4
_q$ = 28						; size = 4
_n$ = 32						; size = 4
?soap_copy__ns2__submitEpochResultResponseElement@@YAXPAUsoap@@HHPAXIPBXI@Z PROC ; soap_copy__ns2__submitEpochResultResponseElement

; 1114 : 	DBGLOG(TEST, SOAP_MESSAGE(fdebug, "Copying _ns2__submitEpochResultResponseElement %p -> %p\n", q, p));
; 1115 : 	*(_ns2__submitEpochResultResponseElement*)p = *(_ns2__submitEpochResultResponseElement*)q;

	mov	eax, DWORD PTR _q$[esp-4]
	mov	dl, BYTE PTR [eax+4]
	mov	ecx, DWORD PTR _p$[esp-4]
	mov	BYTE PTR [ecx+4], dl
	mov	eax, DWORD PTR [eax+8]
	mov	DWORD PTR [ecx+8], eax

; 1116 : }

	ret	0
?soap_copy__ns2__submitEpochResultResponseElement@@YAXPAUsoap@@HHPAXIPBXI@Z ENDP ; soap_copy__ns2__submitEpochResultResponseElement
_TEXT	ENDS
PUBLIC	?soap_delete__ns2__submitEpochResultResponseElement@@YAXPAUsoap@@PAV_ns2__submitEpochResultResponseElement@@@Z ; soap_delete__ns2__submitEpochResultResponseElement
; Function compile flags: /Ogtpy
_TEXT	SEGMENT
?soap_delete__ns2__submitEpochResultResponseElement@@YAXPAUsoap@@PAV_ns2__submitEpochResultResponseElement@@@Z PROC ; soap_delete__ns2__submitEpochResultResponseElement
; _soap$ = eax
; _p$ = ecx

; 1083 : {	soap_delete(soap, p);

	push	eax
	call	_soap_delete
	pop	ecx

; 1084 : }

	ret	0
?soap_delete__ns2__submitEpochResultResponseElement@@YAXPAUsoap@@PAV_ns2__submitEpochResultResponseElement@@@Z ENDP ; soap_delete__ns2__submitEpochResultResponseElement
; Function compile flags: /Ogtpy
_soap$ = 8						; size = 4
?soap_serialize@_ns2__submitEpochResultResponseElement@@UBEXPAUsoap@@@Z PROC ; _ns2__submitEpochResultResponseElement::soap_serialize
; _this$ = ecx

; 984  : 	(void)soap; /* appease -Wall -Werror */
; 985  : 	/* transient soap skipped */
; 986  : }

	ret	4
?soap_serialize@_ns2__submitEpochResultResponseElement@@UBEXPAUsoap@@@Z ENDP ; _ns2__submitEpochResultResponseElement::soap_serialize
_TEXT	ENDS
PUBLIC	?soap_s2bool@@YAHPAUsoap@@PBDPA_N@Z		; soap_s2bool
; Function compile flags: /Ogtpy
_TEXT	SEGMENT
_n$83672 = -4						; size = 4
_a$ = 8							; size = 4
?soap_s2bool@@YAHPAUsoap@@PBDPA_N@Z PROC		; soap_s2bool
; _soap$ = ecx
; _s$ = eax

; 936  : {

	push	ecx
	push	ebx
	mov	ebx, DWORD PTR _a$[esp+4]
	push	esi
	mov	esi, eax
	push	edi
	mov	edi, ecx

; 937  : 	const struct soap_code_map *map;
; 938  : 	if (!s)

	test	esi, esi

; 939  : 		return SOAP_OK;

	je	SHORT $LN3@soap_s2boo

; 940  : 	map = soap_code(soap_codes_bool, s);

	call	_soap_code

; 941  : 	if (map)

	test	eax, eax
	je	SHORT $LN4@soap_s2boo

; 942  : 		*a = (bool)(map->code != 0);

	cmp	DWORD PTR [eax], 0
	pop	edi
	setne	al
	mov	BYTE PTR [ebx], al
	pop	esi

; 948  : 	}
; 949  : 	return SOAP_OK;

	xor	eax, eax
	pop	ebx

; 950  : }

	pop	ecx
	ret	0
$LN4@soap_s2boo:

; 943  : 	else
; 944  : 	{	long n;
; 945  : 		if (soap_s2long(soap, s, &n) || n < 0 || n > 1)

	lea	ecx, DWORD PTR _n$83672[esp+16]
	push	ecx
	call	_soap_s2long
	add	esp, 4
	test	eax, eax
	jne	SHORT $LN1@soap_s2boo
	mov	eax, DWORD PTR _n$83672[esp+16]
	cmp	eax, 1
	ja	SHORT $LN1@soap_s2boo

; 947  : 		*a = (bool)(n != 0);

	test	eax, eax
	setne	dl
	mov	BYTE PTR [ebx], dl
$LN3@soap_s2boo:
	pop	edi
	pop	esi

; 948  : 	}
; 949  : 	return SOAP_OK;

	xor	eax, eax
	pop	ebx

; 950  : }

	pop	ecx
	ret	0
$LN1@soap_s2boo:

; 946  : 			return soap->error = SOAP_TYPE;

	mov	eax, 4
	mov	DWORD PTR [edi+90460], eax
	pop	edi
	pop	esi
	pop	ebx

; 950  : }

	pop	ecx
	ret	0
?soap_s2bool@@YAHPAUsoap@@PBDPA_N@Z ENDP		; soap_s2bool
_TEXT	ENDS
PUBLIC	?soap_bool2s@@YAPBDPAUsoap@@_N@Z		; soap_bool2s
; Function compile flags: /Ogtpy
_TEXT	SEGMENT
_n$ = 8							; size = 1
?soap_bool2s@@YAPBDPAUsoap@@_N@Z PROC			; soap_bool2s

; 918  : {	return soap_code_str(soap_codes_bool, n!=0);

	xor	ecx, ecx
	cmp	BYTE PTR _n$[esp-4], cl
	mov	eax, OFFSET _soap_codes_bool
	setne	cl
	test	ecx, ecx
	je	SHORT $LN11@soap_bool2
$LL4@soap_bool2:
	cmp	DWORD PTR [eax+4], 0
	je	SHORT $LN11@soap_bool2
	add	eax, 8
	cmp	DWORD PTR [eax], ecx
	jne	SHORT $LL4@soap_bool2
$LN11@soap_bool2:
	mov	eax, DWORD PTR [eax+4]

; 919  : }

	ret	0
?soap_bool2s@@YAPBDPAUsoap@@_N@Z ENDP			; soap_bool2s
_TEXT	ENDS
PUBLIC	?soap_default_bool@@YAXPAUsoap@@PA_N@Z		; soap_default_bool
; Function compile flags: /Ogtpy
_TEXT	SEGMENT
?soap_default_bool@@YAXPAUsoap@@PA_N@Z PROC		; soap_default_bool
; _a$ = eax

; 896  : #ifdef SOAP_DEFAULT_bool
; 897  : 	*a = SOAP_DEFAULT_bool;
; 898  : #else
; 899  : 	*a = (bool)0;

	mov	BYTE PTR [eax], 0

; 900  : #endif
; 901  : }

	ret	0
?soap_default_bool@@YAXPAUsoap@@PA_N@Z ENDP		; soap_default_bool
_TEXT	ENDS
PUBLIC	?soap_default_float@@YAXPAUsoap@@PAM@Z		; soap_default_float
; Function compile flags: /Ogtpy
_TEXT	SEGMENT
?soap_default_float@@YAXPAUsoap@@PAM@Z PROC		; soap_default_float
; _a$ = eax

; 861  : #ifdef SOAP_DEFAULT_float
; 862  : 	*a = SOAP_DEFAULT_float;
; 863  : #else
; 864  : 	*a = (float)0;

	xorps	xmm0, xmm0
	movss	DWORD PTR [eax], xmm0

; 865  : #endif
; 866  : }

	ret	0
?soap_default_float@@YAXPAUsoap@@PAM@Z ENDP		; soap_default_float
_TEXT	ENDS
PUBLIC	?soap_default_LONG64@@YAXPAUsoap@@PA_J@Z	; soap_default_LONG64
; Function compile flags: /Ogtpy
_TEXT	SEGMENT
?soap_default_LONG64@@YAXPAUsoap@@PA_J@Z PROC		; soap_default_LONG64
; _a$ = eax

; 826  : #ifdef SOAP_DEFAULT_LONG64
; 827  : 	*a = SOAP_DEFAULT_LONG64;
; 828  : #else
; 829  : 	*a = (LONG64)0;

	mov	DWORD PTR [eax], 0
	mov	DWORD PTR [eax+4], 0

; 830  : #endif
; 831  : }

	ret	0
?soap_default_LONG64@@YAXPAUsoap@@PA_J@Z ENDP		; soap_default_LONG64
_TEXT	ENDS
PUBLIC	?soap_default_int@@YAXPAUsoap@@PAH@Z		; soap_default_int
; Function compile flags: /Ogtpy
_TEXT	SEGMENT
?soap_default_int@@YAXPAUsoap@@PAH@Z PROC		; soap_default_int
; _a$ = eax

; 791  : #ifdef SOAP_DEFAULT_int
; 792  : 	*a = SOAP_DEFAULT_int;
; 793  : #else
; 794  : 	*a = (int)0;

	mov	DWORD PTR [eax], 0

; 795  : #endif
; 796  : }

	ret	0
?soap_default_int@@YAXPAUsoap@@PAH@Z ENDP		; soap_default_int
_TEXT	ENDS
PUBLIC	?soap_default_byte@@YAXPAUsoap@@PAD@Z		; soap_default_byte
; Function compile flags: /Ogtpy
_TEXT	SEGMENT
?soap_default_byte@@YAXPAUsoap@@PAD@Z PROC		; soap_default_byte
; _a$ = eax

; 756  : #ifdef SOAP_DEFAULT_byte
; 757  : 	*a = SOAP_DEFAULT_byte;
; 758  : #else
; 759  : 	*a = (char)0;

	mov	BYTE PTR [eax], 0

; 760  : #endif
; 761  : }

	ret	0
?soap_default_byte@@YAXPAUsoap@@PAD@Z ENDP		; soap_default_byte
_TEXT	ENDS
PUBLIC	_soap_serializeheader
; Function compile flags: /Ogtpy
_TEXT	SEGMENT
_soap_serializeheader PROC

; 17   : 	if (soap->header)
; 18   : 		soap_serialize_SOAP_ENV__Header(soap, soap->header);
; 19   : }

	ret	0
_soap_serializeheader ENDP
; Function compile flags: /Ogtpy
; File c:\users\crius\documents\visual studio 2008\projects\dramsimiihg\src\reporting\soapstub.h
_TEXT	ENDS
;	COMDAT ??1_ns2__getSettingsFileResponseElement@@UAE@XZ
_TEXT	SEGMENT
??1_ns2__getSettingsFileResponseElement@@UAE@XZ PROC	; _ns2__getSettingsFileResponseElement::~_ns2__getSettingsFileResponseElement, COMDAT
; _this$ = ecx

; 236  : 	virtual ~_ns2__getSettingsFileResponseElement() { }

	mov	DWORD PTR [ecx], OFFSET ??_7_ns2__getSettingsFileResponseElement@@6B@
	ret	0
??1_ns2__getSettingsFileResponseElement@@UAE@XZ ENDP	; _ns2__getSettingsFileResponseElement::~_ns2__getSettingsFileResponseElement
; Function compile flags: /Ogtpy
_TEXT	ENDS
;	COMDAT ??0_ns2__getSettingsFileResponseElement@@QAE@XZ
_TEXT	SEGMENT
??0_ns2__getSettingsFileResponseElement@@QAE@XZ PROC	; _ns2__getSettingsFileResponseElement::_ns2__getSettingsFileResponseElement, COMDAT
; _this$ = ecx

; 235  : 	_ns2__getSettingsFileResponseElement() : result(NULL), soap(NULL) { }

	mov	eax, ecx
	xor	ecx, ecx
	mov	DWORD PTR [eax], OFFSET ??_7_ns2__getSettingsFileResponseElement@@6B@
	mov	DWORD PTR [eax+4], ecx
	mov	DWORD PTR [eax+8], ecx
	ret	0
??0_ns2__getSettingsFileResponseElement@@QAE@XZ ENDP	; _ns2__getSettingsFileResponseElement::_ns2__getSettingsFileResponseElement
; Function compile flags: /Ogtpy
_TEXT	ENDS
;	COMDAT ?soap_type@_ns2__getSettingsFileResponseElement@@UBEHXZ
_TEXT	SEGMENT
?soap_type@_ns2__getSettingsFileResponseElement@@UBEHXZ PROC ; _ns2__getSettingsFileResponseElement::soap_type, COMDAT
; _this$ = ecx

; 228  : 	virtual int soap_type() const { return 22; } /* = unique id SOAP_TYPE__ns2__getSettingsFileResponseElement */

	mov	eax, 22					; 00000016H
	ret	0
?soap_type@_ns2__getSettingsFileResponseElement@@UBEHXZ ENDP ; _ns2__getSettingsFileResponseElement::soap_type
; Function compile flags: /Ogtpy
_TEXT	ENDS
;	COMDAT ??1_ns2__getSettingsFileElement@@UAE@XZ
_TEXT	SEGMENT
??1_ns2__getSettingsFileElement@@UAE@XZ PROC		; _ns2__getSettingsFileElement::~_ns2__getSettingsFileElement, COMDAT
; _this$ = ecx

; 215  : 	virtual ~_ns2__getSettingsFileElement() { }

	mov	DWORD PTR [ecx], OFFSET ??_7_ns2__getSettingsFileElement@@6B@
	ret	0
??1_ns2__getSettingsFileElement@@UAE@XZ ENDP		; _ns2__getSettingsFileElement::~_ns2__getSettingsFileElement
; Function compile flags: /Ogtpy
_TEXT	ENDS
;	COMDAT ??0_ns2__getSettingsFileElement@@QAE@XZ
_TEXT	SEGMENT
??0_ns2__getSettingsFileElement@@QAE@XZ PROC		; _ns2__getSettingsFileElement::_ns2__getSettingsFileElement, COMDAT
; _this$ = ecx

; 214  : 	_ns2__getSettingsFileElement() : int_USCORE1(0), soap(NULL) { }

	mov	eax, ecx
	xor	ecx, ecx
	mov	DWORD PTR [eax], OFFSET ??_7_ns2__getSettingsFileElement@@6B@
	mov	DWORD PTR [eax+4], ecx
	mov	DWORD PTR [eax+8], ecx
	ret	0
??0_ns2__getSettingsFileElement@@QAE@XZ ENDP		; _ns2__getSettingsFileElement::_ns2__getSettingsFileElement
; Function compile flags: /Ogtpy
_TEXT	ENDS
;	COMDAT ?soap_type@_ns2__getSettingsFileElement@@UBEHXZ
_TEXT	SEGMENT
?soap_type@_ns2__getSettingsFileElement@@UBEHXZ PROC	; _ns2__getSettingsFileElement::soap_type, COMDAT
; _this$ = ecx

; 207  : 	virtual int soap_type() const { return 21; } /* = unique id SOAP_TYPE__ns2__getSettingsFileElement */

	mov	eax, 21					; 00000015H
	ret	0
?soap_type@_ns2__getSettingsFileElement@@UBEHXZ ENDP	; _ns2__getSettingsFileElement::soap_type
; Function compile flags: /Ogtpy
_TEXT	ENDS
;	COMDAT ??1_ns2__getSessionIDResponseElement@@UAE@XZ
_TEXT	SEGMENT
??1_ns2__getSessionIDResponseElement@@UAE@XZ PROC	; _ns2__getSessionIDResponseElement::~_ns2__getSessionIDResponseElement, COMDAT
; _this$ = ecx

; 194  : 	virtual ~_ns2__getSessionIDResponseElement() { }

	mov	DWORD PTR [ecx], OFFSET ??_7_ns2__getSessionIDResponseElement@@6B@
	ret	0
??1_ns2__getSessionIDResponseElement@@UAE@XZ ENDP	; _ns2__getSessionIDResponseElement::~_ns2__getSessionIDResponseElement
; Function compile flags: /Ogtpy
_TEXT	ENDS
;	COMDAT ??0_ns2__getSessionIDResponseElement@@QAE@XZ
_TEXT	SEGMENT
??0_ns2__getSessionIDResponseElement@@QAE@XZ PROC	; _ns2__getSessionIDResponseElement::_ns2__getSessionIDResponseElement, COMDAT
; _this$ = ecx

; 193  : 	_ns2__getSessionIDResponseElement() : result(0), soap(NULL) { }

	mov	eax, ecx
	xor	ecx, ecx
	mov	DWORD PTR [eax], OFFSET ??_7_ns2__getSessionIDResponseElement@@6B@
	mov	DWORD PTR [eax+4], ecx
	mov	DWORD PTR [eax+8], ecx
	ret	0
??0_ns2__getSessionIDResponseElement@@QAE@XZ ENDP	; _ns2__getSessionIDResponseElement::_ns2__getSessionIDResponseElement
; Function compile flags: /Ogtpy
_TEXT	ENDS
;	COMDAT ?soap_type@_ns2__getSessionIDResponseElement@@UBEHXZ
_TEXT	SEGMENT
?soap_type@_ns2__getSessionIDResponseElement@@UBEHXZ PROC ; _ns2__getSessionIDResponseElement::soap_type, COMDAT
; _this$ = ecx

; 186  : 	virtual int soap_type() const { return 20; } /* = unique id SOAP_TYPE__ns2__getSessionIDResponseElement */

	mov	eax, 20					; 00000014H
	ret	0
?soap_type@_ns2__getSessionIDResponseElement@@UBEHXZ ENDP ; _ns2__getSessionIDResponseElement::soap_type
; Function compile flags: /Ogtpy
_TEXT	ENDS
;	COMDAT ??1_ns2__getSessionIDElement@@UAE@XZ
_TEXT	SEGMENT
??1_ns2__getSessionIDElement@@UAE@XZ PROC		; _ns2__getSessionIDElement::~_ns2__getSessionIDElement, COMDAT
; _this$ = ecx

; 173  : 	virtual ~_ns2__getSessionIDElement() { }

	mov	DWORD PTR [ecx], OFFSET ??_7_ns2__getSessionIDElement@@6B@
	ret	0
??1_ns2__getSessionIDElement@@UAE@XZ ENDP		; _ns2__getSessionIDElement::~_ns2__getSessionIDElement
; Function compile flags: /Ogtpy
_TEXT	ENDS
;	COMDAT ??0_ns2__getSessionIDElement@@QAE@XZ
_TEXT	SEGMENT
??0_ns2__getSessionIDElement@@QAE@XZ PROC		; _ns2__getSessionIDElement::_ns2__getSessionIDElement, COMDAT
; _this$ = ecx

; 172  : 	_ns2__getSessionIDElement() : String_USCORE1(NULL), soap(NULL) { }

	mov	eax, ecx
	xor	ecx, ecx
	mov	DWORD PTR [eax], OFFSET ??_7_ns2__getSessionIDElement@@6B@
	mov	DWORD PTR [eax+4], ecx
	mov	DWORD PTR [eax+8], ecx
	ret	0
??0_ns2__getSessionIDElement@@QAE@XZ ENDP		; _ns2__getSessionIDElement::_ns2__getSessionIDElement
; Function compile flags: /Ogtpy
_TEXT	ENDS
;	COMDAT ?soap_type@_ns2__getSessionIDElement@@UBEHXZ
_TEXT	SEGMENT
?soap_type@_ns2__getSessionIDElement@@UBEHXZ PROC	; _ns2__getSessionIDElement::soap_type, COMDAT
; _this$ = ecx

; 165  : 	virtual int soap_type() const { return 19; } /* = unique id SOAP_TYPE__ns2__getSessionIDElement */

	mov	eax, 19					; 00000013H
	ret	0
?soap_type@_ns2__getSessionIDElement@@UBEHXZ ENDP	; _ns2__getSessionIDElement::soap_type
; Function compile flags: /Ogtpy
_TEXT	ENDS
;	COMDAT ?soap_type@xsd__string@@UBEHXZ
_TEXT	SEGMENT
?soap_type@xsd__string@@UBEHXZ PROC			; xsd__string::soap_type, COMDAT
; _this$ = ecx

; 144  : 	virtual int soap_type() const { return 17; } /* = unique id SOAP_TYPE_xsd__string */

	mov	eax, 17					; 00000011H
	ret	0
?soap_type@xsd__string@@UBEHXZ ENDP			; xsd__string::soap_type
; Function compile flags: /Ogtpy
_TEXT	ENDS
;	COMDAT ?soap_type@xsd__long@@UBEHXZ
_TEXT	SEGMENT
?soap_type@xsd__long@@UBEHXZ PROC			; xsd__long::soap_type, COMDAT
; _this$ = ecx

; 120  : 	virtual int soap_type() const { return 15; } /* = unique id SOAP_TYPE_xsd__long */

	mov	eax, 15					; 0000000fH
	ret	0
?soap_type@xsd__long@@UBEHXZ ENDP			; xsd__long::soap_type
; Function compile flags: /Ogtpy
_TEXT	ENDS
;	COMDAT ?soap_type@xsd__int@@UBEHXZ
_TEXT	SEGMENT
?soap_type@xsd__int@@UBEHXZ PROC			; xsd__int::soap_type, COMDAT
; _this$ = ecx

; 100  : 	virtual int soap_type() const { return 14; } /* = unique id SOAP_TYPE_xsd__int */

	mov	eax, 14					; 0000000eH
	ret	0
?soap_type@xsd__int@@UBEHXZ ENDP			; xsd__int::soap_type
; Function compile flags: /Ogtpy
_TEXT	ENDS
;	COMDAT ?soap_type@xsd__float@@UBEHXZ
_TEXT	SEGMENT
?soap_type@xsd__float@@UBEHXZ PROC			; xsd__float::soap_type, COMDAT
; _this$ = ecx

; 80   : 	virtual int soap_type() const { return 12; } /* = unique id SOAP_TYPE_xsd__float */

	mov	eax, 12					; 0000000cH
	ret	0
?soap_type@xsd__float@@UBEHXZ ENDP			; xsd__float::soap_type
; Function compile flags: /Ogtpy
_TEXT	ENDS
;	COMDAT ?soap_type@xsd__boolean@@UBEHXZ
_TEXT	SEGMENT
?soap_type@xsd__boolean@@UBEHXZ PROC			; xsd__boolean::soap_type, COMDAT
; _this$ = ecx

; 60   : 	virtual int soap_type() const { return 10; } /* = unique id SOAP_TYPE_xsd__boolean */

	mov	eax, 10					; 0000000aH
	ret	0
?soap_type@xsd__boolean@@UBEHXZ ENDP			; xsd__boolean::soap_type
; Function compile flags: /Ogtpy
_TEXT	ENDS
;	COMDAT ??1xsd__anyType@@UAE@XZ
_TEXT	SEGMENT
??1xsd__anyType@@UAE@XZ PROC				; xsd__anyType::~xsd__anyType, COMDAT
; _this$ = ecx

; 48   : 	virtual ~xsd__anyType() { }

	mov	DWORD PTR [ecx], OFFSET ??_7xsd__anyType@@6B@
	ret	0
??1xsd__anyType@@UAE@XZ ENDP				; xsd__anyType::~xsd__anyType
; Function compile flags: /Ogtpy
_TEXT	ENDS
;	COMDAT ??0xsd__anyType@@QAE@XZ
_TEXT	SEGMENT
??0xsd__anyType@@QAE@XZ PROC				; xsd__anyType::xsd__anyType, COMDAT
; _this$ = ecx

; 47   : 	xsd__anyType() : __item(NULL), soap(NULL) { }

	mov	eax, ecx
	xor	ecx, ecx
	mov	DWORD PTR [eax], OFFSET ??_7xsd__anyType@@6B@
	mov	DWORD PTR [eax+4], ecx
	mov	DWORD PTR [eax+8], ecx
	ret	0
??0xsd__anyType@@QAE@XZ ENDP				; xsd__anyType::xsd__anyType
; Function compile flags: /Ogtpy
_TEXT	ENDS
;	COMDAT ?soap_type@xsd__anyType@@UBEHXZ
_TEXT	SEGMENT
?soap_type@xsd__anyType@@UBEHXZ PROC			; xsd__anyType::soap_type, COMDAT
; _this$ = ecx

; 40   : 	virtual int soap_type() const { return 8; } /* = unique id SOAP_TYPE_xsd__anyType */

	mov	eax, 8
	ret	0
?soap_type@xsd__anyType@@UBEHXZ ENDP			; xsd__anyType::soap_type
; Function compile flags: /Ogtpy
; File c:\program files\microsoft visual studio 9.0\vc\include\xutility
;	COMDAT ??$_Move_backward_opt@PAMPAMUrandom_access_iterator_tag@std@@U_Undefined_move_tag@2@@std@@YAPAMPAM00Urandom_access_iterator_tag@0@U_Undefined_move_tag@0@U_Range_checked_iterator_tag@0@@Z
_TEXT	SEGMENT
__First_dest_cat$ = 8					; size = 1
___formal$ = 12						; size = 1
___formal$ = 16						; size = 1
??$_Move_backward_opt@PAMPAMUrandom_access_iterator_tag@std@@U_Undefined_move_tag@2@@std@@YAPAMPAM00Urandom_access_iterator_tag@0@U_Undefined_move_tag@0@U_Range_checked_iterator_tag@0@@Z PROC ; std::_Move_backward_opt<float *,float *,std::random_access_iterator_tag,std::_Undefined_move_tag>, COMDAT
; __First$ = edi
; __Last$ = eax
; __Dest$ = ecx

; 2753 : 	return _Copy_backward_opt(_First, _Last, _Dest,
; 2754 : 		_First_dest_cat, _Ptr_cat(_First, _Dest), _Range_checked_iterator_tag());

	sub	eax, edi
	sar	eax, 2
	lea	edx, DWORD PTR [eax*4]
	sub	ecx, edx
	push	esi
	mov	esi, ecx
	test	eax, eax
	jle	SHORT $LN8@Move_backw
	push	edx
	push	edi
	push	edx
	push	esi
	call	_memmove_s
	add	esp, 16					; 00000010H
$LN8@Move_backw:
	mov	eax, esi
	pop	esi

; 2755 : 	}

	ret	0
??$_Move_backward_opt@PAMPAMUrandom_access_iterator_tag@std@@U_Undefined_move_tag@2@@std@@YAPAMPAM00Urandom_access_iterator_tag@0@U_Undefined_move_tag@0@U_Range_checked_iterator_tag@0@@Z ENDP ; std::_Move_backward_opt<float *,float *,std::random_access_iterator_tag,std::_Undefined_move_tag>
; Function compile flags: /Ogtpy
_TEXT	ENDS
;	COMDAT ??$_Unchecked_move_backward@PAMPAM@stdext@@YAPAMPAM00@Z
_TEXT	SEGMENT
??$_Unchecked_move_backward@PAMPAM@stdext@@YAPAMPAM00@Z PROC ; stdext::_Unchecked_move_backward<float *,float *>, COMDAT
; __First$ = edi
; __Last$ = eax
; __Dest$ = ecx

; 3695 : 		return (_STD _Move_backward_opt(_CHECKED_BASE(_First), _CHECKED_BASE(_Last), _Dest,
; 3696 : 			_STD _Iter_random(_First, _Dest), _STD _Move_cat(_Dest), _STD _Range_checked_iterator_tag()));

	sub	eax, edi
	sar	eax, 2
	lea	edx, DWORD PTR [eax*4]
	sub	ecx, edx
	push	esi
	mov	esi, ecx
	test	eax, eax
	jle	SHORT $LN22@Unchecked_
	push	edx
	push	edi
	push	edx
	push	esi
	call	_memmove_s
	add	esp, 16					; 00000010H
$LN22@Unchecked_:
	mov	eax, esi
	pop	esi

; 3697 : 	}

	ret	0
??$_Unchecked_move_backward@PAMPAM@stdext@@YAPAMPAM00@Z ENDP ; stdext::_Unchecked_move_backward<float *,float *>
; Function compile flags: /Ogtpy
_TEXT	ENDS
;	COMDAT ??$fill@PAMM@std@@YAXPAM0ABM@Z
_TEXT	SEGMENT
__Val$ = 8						; size = 4
??$fill@PAMM@std@@YAXPAM0ABM@Z PROC			; std::fill<float *,float>, COMDAT
; __First$ = eax
; __Last$ = ecx

; 3187 : 	_Fill(_CHECKED_BASE(_First), _CHECKED_BASE(_Last), _Val);

	cmp	eax, ecx
	je	SHORT $LN11@fill@7
	mov	edx, DWORD PTR __Val$[esp-4]
	movss	xmm0, DWORD PTR [edx]
	npad	4
$LL13@fill@7:
	movss	DWORD PTR [eax], xmm0
	add	eax, 4
	cmp	eax, ecx
	jne	SHORT $LL13@fill@7
$LN11@fill@7:

; 3188 : 	}

	ret	0
??$fill@PAMM@std@@YAXPAM0ABM@Z ENDP			; std::fill<float *,float>
; Function compile flags: /Ogtpy
; File c:\program files\microsoft visual studio 9.0\vc\include\vector
_TEXT	ENDS
;	COMDAT ??G?$_Vector_const_iterator@MV?$allocator@M@std@@@std@@QBEHABV01@@Z
_TEXT	SEGMENT
??G?$_Vector_const_iterator@MV?$allocator@M@std@@@std@@QBEHABV01@@Z PROC ; std::_Vector_const_iterator<float,std::allocator<float> >::operator-, COMDAT
; _this$ = edi
; __Right$ = esi

; 187  : 
; 188  :  #if _HAS_ITERATOR_DEBUGGING
; 189  : 		_Compat(_Right);
; 190  :  #else
; 191  : 		_SCL_SECURE_VALIDATE(this->_Has_container() && this->_Same_container(_Right));

	mov	eax, DWORD PTR [edi]
	test	eax, eax
	je	SHORT $LN1@operator@36
	cmp	eax, DWORD PTR [esi]
	je	SHORT $LN2@operator@36
$LN1@operator@36:
	call	__invalid_parameter_noinfo
$LN2@operator@36:

; 192  :  #endif /* _HAS_ITERATOR_DEBUGGING */
; 193  : 
; 194  : 		return (_Myptr - _Right._Myptr);

	mov	eax, DWORD PTR [edi+4]
	sub	eax, DWORD PTR [esi+4]
	sar	eax, 2

; 195  : 		}

	ret	0
??G?$_Vector_const_iterator@MV?$allocator@M@std@@@std@@QBEHABV01@@Z ENDP ; std::_Vector_const_iterator<float,std::allocator<float> >::operator-
; Function compile flags: /Ogtpy
_TEXT	ENDS
;	COMDAT ??A?$vector@HV?$allocator@H@std@@@std@@QAEAAHI@Z
_TEXT	SEGMENT
??A?$vector@HV?$allocator@H@std@@@std@@QAEAAHI@Z PROC	; std::vector<int,std::allocator<int> >::operator[], COMDAT
; _this$ = esi
; __Pos$ = edi

; 775  : 
; 776  :  #if _HAS_ITERATOR_DEBUGGING
; 777  : 		if (size() <= _Pos)
; 778  : 			{
; 779  : 			_DEBUG_ERROR("vector subscript out of range");
; 780  : 			_SCL_SECURE_OUT_OF_RANGE;
; 781  : 			}
; 782  :  #endif /* _HAS_ITERATOR_DEBUGGING */
; 783  : 		_SCL_SECURE_VALIDATE_RANGE(_Pos < size());

	mov	eax, DWORD PTR [esi+16]
	sub	eax, DWORD PTR [esi+12]
	sar	eax, 2
	cmp	edi, eax
	jb	SHORT $LN1@operator@37
	call	__invalid_parameter_noinfo
$LN1@operator@37:

; 784  : 
; 785  : 		return (*(_Myfirst + _Pos));

	mov	ecx, DWORD PTR [esi+12]
	lea	eax, DWORD PTR [ecx+edi*4]

; 786  : 		}

	ret	0
??A?$vector@HV?$allocator@H@std@@@std@@QAEAAHI@Z ENDP	; std::vector<int,std::allocator<int> >::operator[]
_TEXT	ENDS
PUBLIC	?soap_serialize_string@@YAXPAUsoap@@PBQAD@Z	; soap_serialize_string
; Function compile flags: /Ogtpy
; File c:\users\crius\documents\visual studio 2008\projects\dramsimiihg\src\reporting\soapc.cpp
_TEXT	SEGMENT
?soap_serialize_string@@YAXPAUsoap@@PBQAD@Z PROC	; soap_serialize_string
; _soap$ = eax
; _a$ = ecx

; 4296 : 	soap_reference(soap, *a, SOAP_TYPE_string);

	mov	ecx, DWORD PTR [ecx]
	push	eax
	mov	eax, 4
	call	_soap_reference
	pop	ecx

; 4297 : }

	ret	0
?soap_serialize_string@@YAXPAUsoap@@PBQAD@Z ENDP	; soap_serialize_string
_TEXT	ENDS
PUBLIC	?soap_serialize__QName@@YAXPAUsoap@@PBQAD@Z	; soap_serialize__QName
; Function compile flags: /Ogtpy
_TEXT	SEGMENT
?soap_serialize__QName@@YAXPAUsoap@@PBQAD@Z PROC	; soap_serialize__QName
; _soap$ = eax
; _a$ = ecx

; 4256 : {	soap_serialize_string(soap, a);

	mov	ecx, DWORD PTR [ecx]
	push	eax
	mov	eax, 4
	call	_soap_reference
	pop	ecx

; 4257 : }

	ret	0
?soap_serialize__QName@@YAXPAUsoap@@PBQAD@Z ENDP	; soap_serialize__QName
_TEXT	ENDS
PUBLIC	?soap_serialize_PointerTostd__string@@YAXPAUsoap@@PBQAV?$basic_string@DU?$char_traits@D@std@@V?$allocator@D@2@@std@@@Z ; soap_serialize_PointerTostd__string
; Function compile flags: /Ogtpy
_TEXT	SEGMENT
?soap_serialize_PointerTostd__string@@YAXPAUsoap@@PBQAV?$basic_string@DU?$char_traits@D@std@@V?$allocator@D@2@@std@@@Z PROC ; soap_serialize_PointerTostd__string
; _soap$ = eax
; _a$ = ecx

; 4202 : 	if (!soap_reference(soap, *a, SOAP_TYPE_std__string))

	mov	ecx, DWORD PTR [ecx]
	push	eax
	mov	eax, 18					; 00000012H
	call	_soap_reference
	pop	ecx

; 4203 : 		soap_serialize_std__string(soap, *a);
; 4204 : }

	ret	0
?soap_serialize_PointerTostd__string@@YAXPAUsoap@@PBQAV?$basic_string@DU?$char_traits@D@std@@V?$allocator@D@2@@std@@@Z ENDP ; soap_serialize_PointerTostd__string
_TEXT	ENDS
PUBLIC	?soap_serialize_PointerTo_ns2__getSessionIDElement@@YAXPAUsoap@@PBQAV_ns2__getSessionIDElement@@@Z ; soap_serialize_PointerTo_ns2__getSessionIDElement
; Function compile flags: /Ogtpy
_TEXT	SEGMENT
?soap_serialize_PointerTo_ns2__getSessionIDElement@@YAXPAUsoap@@PBQAV_ns2__getSessionIDElement@@@Z PROC ; soap_serialize_PointerTo_ns2__getSessionIDElement
; _soap$ = edi
; _a$ = esi

; 4147 : 	if (!soap_reference(soap, *a, SOAP_TYPE__ns2__getSessionIDElement))

	mov	ecx, DWORD PTR [esi]
	push	edi
	mov	eax, 19					; 00000013H
	call	_soap_reference
	add	esp, 4
	test	eax, eax
	jne	SHORT $LN1@soap_seria

; 4148 : 		(*a)->soap_serialize(soap);

	mov	ecx, DWORD PTR [esi]
	mov	eax, DWORD PTR [ecx]
	mov	edx, DWORD PTR [eax+8]
	push	edi
	call	edx
$LN1@soap_seria:

; 4149 : }

	ret	0
?soap_serialize_PointerTo_ns2__getSessionIDElement@@YAXPAUsoap@@PBQAV_ns2__getSessionIDElement@@@Z ENDP ; soap_serialize_PointerTo_ns2__getSessionIDElement
_TEXT	ENDS
PUBLIC	?soap_serialize_PointerTo_ns2__getSessionIDResponseElement@@YAXPAUsoap@@PBQAV_ns2__getSessionIDResponseElement@@@Z ; soap_serialize_PointerTo_ns2__getSessionIDResponseElement
; Function compile flags: /Ogtpy
_TEXT	SEGMENT
?soap_serialize_PointerTo_ns2__getSessionIDResponseElement@@YAXPAUsoap@@PBQAV_ns2__getSessionIDResponseElement@@@Z PROC ; soap_serialize_PointerTo_ns2__getSessionIDResponseElement
; _soap$ = edi
; _a$ = esi

; 4092 : 	if (!soap_reference(soap, *a, SOAP_TYPE__ns2__getSessionIDResponseElement))

	mov	ecx, DWORD PTR [esi]
	push	edi
	mov	eax, 20					; 00000014H
	call	_soap_reference
	add	esp, 4
	test	eax, eax
	jne	SHORT $LN1@soap_seria@2

; 4093 : 		(*a)->soap_serialize(soap);

	mov	ecx, DWORD PTR [esi]
	mov	eax, DWORD PTR [ecx]
	mov	edx, DWORD PTR [eax+8]
	push	edi
	call	edx
$LN1@soap_seria@2:

; 4094 : }

	ret	0
?soap_serialize_PointerTo_ns2__getSessionIDResponseElement@@YAXPAUsoap@@PBQAV_ns2__getSessionIDResponseElement@@@Z ENDP ; soap_serialize_PointerTo_ns2__getSessionIDResponseElement
_TEXT	ENDS
PUBLIC	?soap_serialize_PointerTo_ns2__getSettingsFileElement@@YAXPAUsoap@@PBQAV_ns2__getSettingsFileElement@@@Z ; soap_serialize_PointerTo_ns2__getSettingsFileElement
; Function compile flags: /Ogtpy
_TEXT	SEGMENT
?soap_serialize_PointerTo_ns2__getSettingsFileElement@@YAXPAUsoap@@PBQAV_ns2__getSettingsFileElement@@@Z PROC ; soap_serialize_PointerTo_ns2__getSettingsFileElement
; _soap$ = edi
; _a$ = esi

; 4037 : 	if (!soap_reference(soap, *a, SOAP_TYPE__ns2__getSettingsFileElement))

	mov	ecx, DWORD PTR [esi]
	push	edi
	mov	eax, 21					; 00000015H
	call	_soap_reference
	add	esp, 4
	test	eax, eax
	jne	SHORT $LN1@soap_seria@3

; 4038 : 		(*a)->soap_serialize(soap);

	mov	ecx, DWORD PTR [esi]
	mov	eax, DWORD PTR [ecx]
	mov	edx, DWORD PTR [eax+8]
	push	edi
	call	edx
$LN1@soap_seria@3:

; 4039 : }

	ret	0
?soap_serialize_PointerTo_ns2__getSettingsFileElement@@YAXPAUsoap@@PBQAV_ns2__getSettingsFileElement@@@Z ENDP ; soap_serialize_PointerTo_ns2__getSettingsFileElement
_TEXT	ENDS
PUBLIC	?soap_serialize_PointerTo_ns2__getSettingsFileResponseElement@@YAXPAUsoap@@PBQAV_ns2__getSettingsFileResponseElement@@@Z ; soap_serialize_PointerTo_ns2__getSettingsFileResponseElement
; Function compile flags: /Ogtpy
_TEXT	SEGMENT
?soap_serialize_PointerTo_ns2__getSettingsFileResponseElement@@YAXPAUsoap@@PBQAV_ns2__getSettingsFileResponseElement@@@Z PROC ; soap_serialize_PointerTo_ns2__getSettingsFileResponseElement
; _soap$ = edi
; _a$ = esi

; 3982 : 	if (!soap_reference(soap, *a, SOAP_TYPE__ns2__getSettingsFileResponseElement))

	mov	ecx, DWORD PTR [esi]
	push	edi
	mov	eax, 22					; 00000016H
	call	_soap_reference
	add	esp, 4
	test	eax, eax
	jne	SHORT $LN1@soap_seria@4

; 3983 : 		(*a)->soap_serialize(soap);

	mov	ecx, DWORD PTR [esi]
	mov	eax, DWORD PTR [ecx]
	mov	edx, DWORD PTR [eax+8]
	push	edi
	call	edx
$LN1@soap_seria@4:

; 3984 : }

	ret	0
?soap_serialize_PointerTo_ns2__getSettingsFileResponseElement@@YAXPAUsoap@@PBQAV_ns2__getSettingsFileResponseElement@@@Z ENDP ; soap_serialize_PointerTo_ns2__getSettingsFileResponseElement
_TEXT	ENDS
PUBLIC	?soap_serialize_PointerTo_ns2__submitEpochResultElement@@YAXPAUsoap@@PBQAV_ns2__submitEpochResultElement@@@Z ; soap_serialize_PointerTo_ns2__submitEpochResultElement
; Function compile flags: /Ogtpy
_TEXT	SEGMENT
?soap_serialize_PointerTo_ns2__submitEpochResultElement@@YAXPAUsoap@@PBQAV_ns2__submitEpochResultElement@@@Z PROC ; soap_serialize_PointerTo_ns2__submitEpochResultElement
; _soap$ = edi
; _a$ = esi

; 3927 : 	if (!soap_reference(soap, *a, SOAP_TYPE__ns2__submitEpochResultElement))

	mov	ecx, DWORD PTR [esi]
	push	edi
	mov	eax, 23					; 00000017H
	call	_soap_reference
	add	esp, 4
	test	eax, eax
	jne	SHORT $LN1@soap_seria@5

; 3928 : 		(*a)->soap_serialize(soap);

	mov	ecx, DWORD PTR [esi]
	mov	eax, DWORD PTR [ecx]
	mov	edx, DWORD PTR [eax+8]
	push	edi
	call	edx
$LN1@soap_seria@5:

; 3929 : }

	ret	0
?soap_serialize_PointerTo_ns2__submitEpochResultElement@@YAXPAUsoap@@PBQAV_ns2__submitEpochResultElement@@@Z ENDP ; soap_serialize_PointerTo_ns2__submitEpochResultElement
_TEXT	ENDS
PUBLIC	?soap_serialize_PointerTo_ns2__submitEpochResultResponseElement@@YAXPAUsoap@@PBQAV_ns2__submitEpochResultResponseElement@@@Z ; soap_serialize_PointerTo_ns2__submitEpochResultResponseElement
; Function compile flags: /Ogtpy
_TEXT	SEGMENT
?soap_serialize_PointerTo_ns2__submitEpochResultResponseElement@@YAXPAUsoap@@PBQAV_ns2__submitEpochResultResponseElement@@@Z PROC ; soap_serialize_PointerTo_ns2__submitEpochResultResponseElement
; _soap$ = edi
; _a$ = esi

; 3872 : 	if (!soap_reference(soap, *a, SOAP_TYPE__ns2__submitEpochResultResponseElement))

	mov	ecx, DWORD PTR [esi]
	push	edi
	mov	eax, 24					; 00000018H
	call	_soap_reference
	add	esp, 4
	test	eax, eax
	jne	SHORT $LN1@soap_seria@6

; 3873 : 		(*a)->soap_serialize(soap);

	mov	ecx, DWORD PTR [esi]
	mov	eax, DWORD PTR [ecx]
	mov	edx, DWORD PTR [eax+8]
	push	edi
	call	edx
$LN1@soap_seria@6:

; 3874 : }

	ret	0
?soap_serialize_PointerTo_ns2__submitEpochResultResponseElement@@YAXPAUsoap@@PBQAV_ns2__submitEpochResultResponseElement@@@Z ENDP ; soap_serialize_PointerTo_ns2__submitEpochResultResponseElement
_TEXT	ENDS
PUBLIC	?soap_serialize___ns1__getSessionID@@YAXPAUsoap@@PBU__ns1__getSessionID@@@Z ; soap_serialize___ns1__getSessionID
; Function compile flags: /Ogtpy
_TEXT	SEGMENT
?soap_serialize___ns1__getSessionID@@YAXPAUsoap@@PBU__ns1__getSessionID@@@Z PROC ; soap_serialize___ns1__getSessionID
; _soap$ = edi
; _a$ = esi

; 3613 : 	(void)soap; (void)a; /* appease -Wall -Werror */
; 3614 : 	soap_serialize_PointerTo_ns2__getSessionIDElement(soap, &a->ns2__getSessionIDElement);

	mov	ecx, DWORD PTR [esi]
	push	edi
	mov	eax, 19					; 00000013H
	call	_soap_reference
	add	esp, 4
	test	eax, eax
	jne	SHORT $LN3@soap_seria@7
	mov	ecx, DWORD PTR [esi]
	mov	eax, DWORD PTR [ecx]
	mov	edx, DWORD PTR [eax+8]
	push	edi
	call	edx
$LN3@soap_seria@7:

; 3615 : }

	ret	0
?soap_serialize___ns1__getSessionID@@YAXPAUsoap@@PBU__ns1__getSessionID@@@Z ENDP ; soap_serialize___ns1__getSessionID
_TEXT	ENDS
PUBLIC	?soap_serialize___ns1__getSettingsFile@@YAXPAUsoap@@PBU__ns1__getSettingsFile@@@Z ; soap_serialize___ns1__getSettingsFile
; Function compile flags: /Ogtpy
_TEXT	SEGMENT
?soap_serialize___ns1__getSettingsFile@@YAXPAUsoap@@PBU__ns1__getSettingsFile@@@Z PROC ; soap_serialize___ns1__getSettingsFile
; _soap$ = edi
; _a$ = esi

; 3513 : 	(void)soap; (void)a; /* appease -Wall -Werror */
; 3514 : 	soap_serialize_PointerTo_ns2__getSettingsFileElement(soap, &a->ns2__getSettingsFileElement);

	mov	ecx, DWORD PTR [esi]
	push	edi
	mov	eax, 21					; 00000015H
	call	_soap_reference
	add	esp, 4
	test	eax, eax
	jne	SHORT $LN3@soap_seria@8
	mov	ecx, DWORD PTR [esi]
	mov	eax, DWORD PTR [ecx]
	mov	edx, DWORD PTR [eax+8]
	push	edi
	call	edx
$LN3@soap_seria@8:

; 3515 : }

	ret	0
?soap_serialize___ns1__getSettingsFile@@YAXPAUsoap@@PBU__ns1__getSettingsFile@@@Z ENDP ; soap_serialize___ns1__getSettingsFile
_TEXT	ENDS
PUBLIC	?soap_serialize___ns1__submitEpochResult@@YAXPAUsoap@@PBU__ns1__submitEpochResult@@@Z ; soap_serialize___ns1__submitEpochResult
; Function compile flags: /Ogtpy
_TEXT	SEGMENT
?soap_serialize___ns1__submitEpochResult@@YAXPAUsoap@@PBU__ns1__submitEpochResult@@@Z PROC ; soap_serialize___ns1__submitEpochResult
; _soap$ = edi
; _a$ = esi

; 3413 : 	(void)soap; (void)a; /* appease -Wall -Werror */
; 3414 : 	soap_serialize_PointerTo_ns2__submitEpochResultElement(soap, &a->ns2__submitEpochResultElement);

	mov	ecx, DWORD PTR [esi]
	push	edi
	mov	eax, 23					; 00000017H
	call	_soap_reference
	add	esp, 4
	test	eax, eax
	jne	SHORT $LN3@soap_seria@9
	mov	ecx, DWORD PTR [esi]
	mov	eax, DWORD PTR [ecx]
	mov	edx, DWORD PTR [eax+8]
	push	edi
	call	edx
$LN3@soap_seria@9:

; 3415 : }

	ret	0
?soap_serialize___ns1__submitEpochResult@@YAXPAUsoap@@PBU__ns1__submitEpochResult@@@Z ENDP ; soap_serialize___ns1__submitEpochResult
_TEXT	ENDS
PUBLIC	?soap_serialize_SOAP_ENV__Code@@YAXPAUsoap@@PBUSOAP_ENV__Code@@@Z ; soap_serialize_SOAP_ENV__Code
; Function compile flags: /Ogtpy
_TEXT	SEGMENT
?soap_serialize_SOAP_ENV__Code@@YAXPAUsoap@@PBUSOAP_ENV__Code@@@Z PROC ; soap_serialize_SOAP_ENV__Code
; _soap$ = edi
; _a$ = eax

; 3186 : {

	push	esi
	mov	esi, eax

; 3187 : 	(void)soap; (void)a; /* appease -Wall -Werror */
; 3188 : 	soap_serialize__QName(soap, &a->SOAP_ENV__Value);

	mov	ecx, DWORD PTR [esi]
	push	edi
	mov	eax, 4
	call	_soap_reference

; 3189 : 	soap_serialize_PointerToSOAP_ENV__Code(soap, &a->SOAP_ENV__Subcode);

	mov	ecx, DWORD PTR [esi+4]
	add	esi, 4
	push	edi
	mov	eax, 41					; 00000029H
	call	_soap_reference
	add	esp, 8
	test	eax, eax
	jne	SHORT $LN7@soap_seria@10
$LL10@soap_seria@10:
	mov	esi, DWORD PTR [esi]
	mov	ecx, DWORD PTR [esi]
	push	edi
	mov	eax, 4
	call	_soap_reference
	mov	ecx, DWORD PTR [esi+4]
	add	esi, 4
	push	edi
	mov	eax, 41					; 00000029H
	call	_soap_reference
	add	esp, 8
	test	eax, eax
	je	SHORT $LL10@soap_seria@10
$LN7@soap_seria@10:
	pop	esi

; 3190 : }

	ret	0
?soap_serialize_SOAP_ENV__Code@@YAXPAUsoap@@PBUSOAP_ENV__Code@@@Z ENDP ; soap_serialize_SOAP_ENV__Code
_TEXT	ENDS
PUBLIC	?soap_serialize_SOAP_ENV__Reason@@YAXPAUsoap@@PBUSOAP_ENV__Reason@@@Z ; soap_serialize_SOAP_ENV__Reason
; Function compile flags: /Ogtpy
_TEXT	SEGMENT
?soap_serialize_SOAP_ENV__Reason@@YAXPAUsoap@@PBUSOAP_ENV__Reason@@@Z PROC ; soap_serialize_SOAP_ENV__Reason
; _soap$ = eax
; _a$ = ecx

; 2946 : 	(void)soap; (void)a; /* appease -Wall -Werror */
; 2947 : 	soap_serialize_string(soap, &a->SOAP_ENV__Text);

	mov	ecx, DWORD PTR [ecx]
	push	eax
	mov	eax, 4
	call	_soap_reference
	pop	ecx

; 2948 : }

	ret	0
?soap_serialize_SOAP_ENV__Reason@@YAXPAUsoap@@PBUSOAP_ENV__Reason@@@Z ENDP ; soap_serialize_SOAP_ENV__Reason
_TEXT	ENDS
PUBLIC	?soap_copy_xsd__anyType@@YAXPAUsoap@@HHPAXIPBXI@Z ; soap_copy_xsd__anyType
; Function compile flags: /Ogtpy
_TEXT	SEGMENT
?soap_copy_xsd__anyType@@YAXPAUsoap@@HHPAXIPBXI@Z PROC	; soap_copy_xsd__anyType
; _p$ = ecx
; _q$ = eax

; 2737 : 	DBGLOG(TEST, SOAP_MESSAGE(fdebug, "Copying xsd__anyType %p -> %p\n", q, p));
; 2738 : 	*(xsd__anyType*)p = *(xsd__anyType*)q;

	mov	edx, DWORD PTR [eax+4]
	mov	DWORD PTR [ecx+4], edx
	mov	eax, DWORD PTR [eax+8]
	mov	DWORD PTR [ecx+8], eax

; 2739 : }

	ret	0
?soap_copy_xsd__anyType@@YAXPAUsoap@@HHPAXIPBXI@Z ENDP	; soap_copy_xsd__anyType
; Function compile flags: /Ogtpy
_TEXT	ENDS
;	COMDAT ??_Exsd__anyType@@UAEPAXI@Z
_TEXT	SEGMENT
___flags$ = 8						; size = 4
??_Exsd__anyType@@UAEPAXI@Z PROC			; xsd__anyType::`vector deleting destructor', COMDAT
; _this$ = ecx
	push	ebx
	mov	bl, BYTE PTR ___flags$[esp]
	push	esi
	mov	esi, ecx
	test	bl, 2
	je	SHORT $LN3@vector
	mov	eax, DWORD PTR [esi-4]
	push	edi
	push	OFFSET ??1xsd__anyType@@UAE@XZ		; xsd__anyType::~xsd__anyType
	lea	edi, DWORD PTR [esi-4]
	push	eax
	push	12					; 0000000cH
	push	esi
	call	??_M@YGXPAXIHP6EX0@Z@Z
	test	bl, 1
	je	SHORT $LN2@vector
	push	edi
	call	??_V@YAXPAX@Z				; operator delete[]
	add	esp, 4
$LN2@vector:
	mov	eax, edi
	pop	edi
	pop	esi
	pop	ebx
	ret	4
$LN3@vector:
	mov	DWORD PTR [esi], OFFSET ??_7xsd__anyType@@6B@
	test	bl, 1
	je	SHORT $LN1@vector
	push	esi
	call	??3@YAXPAX@Z				; operator delete
	add	esp, 4
$LN1@vector:
	mov	eax, esi
	pop	esi
	pop	ebx
	ret	4
??_Exsd__anyType@@UAEPAXI@Z ENDP			; xsd__anyType::`vector deleting destructor'
; Function compile flags: /Ogtpy
_TEXT	ENDS
;	COMDAT ??4xsd__boolean@@QAEAAV0@ABV0@@Z
_TEXT	SEGMENT
??4xsd__boolean@@QAEAAV0@ABV0@@Z PROC			; xsd__boolean::operator=, COMDAT
; _this$ = eax
; ___that$ = ecx
	mov	edx, DWORD PTR [ecx+4]
	mov	DWORD PTR [eax+4], edx
	mov	edx, DWORD PTR [ecx+8]
	mov	DWORD PTR [eax+8], edx
	mov	cl, BYTE PTR [ecx+12]
	mov	BYTE PTR [eax+12], cl
	ret	0
??4xsd__boolean@@QAEAAV0@ABV0@@Z ENDP			; xsd__boolean::operator=
_TEXT	ENDS
PUBLIC	?soap_copy_xsd__boolean@@YAXPAUsoap@@HHPAXIPBXI@Z ; soap_copy_xsd__boolean
; Function compile flags: /Ogtpy
_TEXT	SEGMENT
?soap_copy_xsd__boolean@@YAXPAUsoap@@HHPAXIPBXI@Z PROC	; soap_copy_xsd__boolean
; _p$ = ecx
; _q$ = eax

; 2519 : 	DBGLOG(TEST, SOAP_MESSAGE(fdebug, "Copying xsd__boolean %p -> %p\n", q, p));
; 2520 : 	*(xsd__boolean*)p = *(xsd__boolean*)q;

	mov	edx, DWORD PTR [eax+4]
	mov	DWORD PTR [ecx+4], edx
	mov	edx, DWORD PTR [eax+8]
	mov	DWORD PTR [ecx+8], edx
	mov	al, BYTE PTR [eax+12]
	mov	BYTE PTR [ecx+12], al

; 2521 : }

	ret	0
?soap_copy_xsd__boolean@@YAXPAUsoap@@HHPAXIPBXI@Z ENDP	; soap_copy_xsd__boolean
; Function compile flags: /Ogtpy
_soap$ = 8						; size = 4
?soap_default@xsd__boolean@@UAEXPAUsoap@@@Z PROC	; xsd__boolean::soap_default
; _this$ = ecx

; 2416 : 	this->soap = soap;

	mov	eax, DWORD PTR _soap$[esp-4]
	mov	DWORD PTR [ecx+8], eax

; 2417 : 	soap_default_bool(soap, &this->xsd__boolean::__item);

	xor	eax, eax
	mov	BYTE PTR [ecx+12], al

; 2418 : 	this->xsd__anyType::__item = NULL;

	mov	DWORD PTR [ecx+4], eax

; 2419 : 	/* transient soap skipped */
; 2420 : }

	ret	4
?soap_default@xsd__boolean@@UAEXPAUsoap@@@Z ENDP	; xsd__boolean::soap_default
; Function compile flags: /Ogtpy
_TEXT	ENDS
;	COMDAT ??4xsd__float@@QAEAAV0@ABV0@@Z
_TEXT	SEGMENT
??4xsd__float@@QAEAAV0@ABV0@@Z PROC			; xsd__float::operator=, COMDAT
; _this$ = eax
; ___that$ = ecx
	mov	edx, DWORD PTR [ecx+4]
	mov	DWORD PTR [eax+4], edx
	mov	edx, DWORD PTR [ecx+8]
	mov	DWORD PTR [eax+8], edx
	fld	DWORD PTR [ecx+12]
	fstp	DWORD PTR [eax+12]
	ret	0
??4xsd__float@@QAEAAV0@ABV0@@Z ENDP			; xsd__float::operator=
_TEXT	ENDS
PUBLIC	?soap_copy_xsd__float@@YAXPAUsoap@@HHPAXIPBXI@Z	; soap_copy_xsd__float
; Function compile flags: /Ogtpy
_TEXT	SEGMENT
?soap_copy_xsd__float@@YAXPAUsoap@@HHPAXIPBXI@Z PROC	; soap_copy_xsd__float
; _p$ = ecx
; _q$ = eax

; 2410 : 	DBGLOG(TEST, SOAP_MESSAGE(fdebug, "Copying xsd__float %p -> %p\n", q, p));
; 2411 : 	*(xsd__float*)p = *(xsd__float*)q;

	mov	edx, DWORD PTR [eax+4]
	mov	DWORD PTR [ecx+4], edx
	mov	edx, DWORD PTR [eax+8]
	mov	DWORD PTR [ecx+8], edx
	fld	DWORD PTR [eax+12]
	fstp	DWORD PTR [ecx+12]

; 2412 : }

	ret	0
?soap_copy_xsd__float@@YAXPAUsoap@@HHPAXIPBXI@Z ENDP	; soap_copy_xsd__float
; Function compile flags: /Ogtpy
_soap$ = 8						; size = 4
?soap_default@xsd__float@@UAEXPAUsoap@@@Z PROC		; xsd__float::soap_default
; _this$ = ecx

; 2307 : 	this->soap = soap;

	mov	eax, DWORD PTR _soap$[esp-4]

; 2308 : 	soap_default_float(soap, &this->xsd__float::__item);

	xorps	xmm0, xmm0
	mov	DWORD PTR [ecx+8], eax
	movss	DWORD PTR [ecx+12], xmm0

; 2309 : 	this->xsd__anyType::__item = NULL;

	mov	DWORD PTR [ecx+4], 0

; 2310 : 	/* transient soap skipped */
; 2311 : }

	ret	4
?soap_default@xsd__float@@UAEXPAUsoap@@@Z ENDP		; xsd__float::soap_default
; Function compile flags: /Ogtpy
_TEXT	ENDS
;	COMDAT ??4xsd__int@@QAEAAV0@ABV0@@Z
_TEXT	SEGMENT
??4xsd__int@@QAEAAV0@ABV0@@Z PROC			; xsd__int::operator=, COMDAT
; _this$ = eax
; ___that$ = ecx
	mov	edx, DWORD PTR [ecx+4]
	mov	DWORD PTR [eax+4], edx
	mov	edx, DWORD PTR [ecx+8]
	mov	DWORD PTR [eax+8], edx
	mov	ecx, DWORD PTR [ecx+12]
	mov	DWORD PTR [eax+12], ecx
	ret	0
??4xsd__int@@QAEAAV0@ABV0@@Z ENDP			; xsd__int::operator=
_TEXT	ENDS
PUBLIC	?soap_copy_xsd__int@@YAXPAUsoap@@HHPAXIPBXI@Z	; soap_copy_xsd__int
; Function compile flags: /Ogtpy
_TEXT	SEGMENT
?soap_copy_xsd__int@@YAXPAUsoap@@HHPAXIPBXI@Z PROC	; soap_copy_xsd__int
; _p$ = ecx
; _q$ = eax

; 2301 : 	DBGLOG(TEST, SOAP_MESSAGE(fdebug, "Copying xsd__int %p -> %p\n", q, p));
; 2302 : 	*(xsd__int*)p = *(xsd__int*)q;

	mov	edx, DWORD PTR [eax+4]
	mov	DWORD PTR [ecx+4], edx
	mov	edx, DWORD PTR [eax+8]
	mov	DWORD PTR [ecx+8], edx
	mov	eax, DWORD PTR [eax+12]
	mov	DWORD PTR [ecx+12], eax

; 2303 : }

	ret	0
?soap_copy_xsd__int@@YAXPAUsoap@@HHPAXIPBXI@Z ENDP	; soap_copy_xsd__int
; Function compile flags: /Ogtpy
_soap$ = 8						; size = 4
?soap_default@xsd__int@@UAEXPAUsoap@@@Z PROC		; xsd__int::soap_default
; _this$ = ecx

; 2198 : 	this->soap = soap;

	mov	eax, DWORD PTR _soap$[esp-4]
	mov	DWORD PTR [ecx+8], eax

; 2199 : 	soap_default_int(soap, &this->xsd__int::__item);

	xor	eax, eax
	mov	DWORD PTR [ecx+12], eax

; 2200 : 	this->xsd__anyType::__item = NULL;

	mov	DWORD PTR [ecx+4], eax

; 2201 : 	/* transient soap skipped */
; 2202 : }

	ret	4
?soap_default@xsd__int@@UAEXPAUsoap@@@Z ENDP		; xsd__int::soap_default
; Function compile flags: /Ogtpy
_TEXT	ENDS
;	COMDAT ??4xsd__long@@QAEAAV0@ABV0@@Z
_TEXT	SEGMENT
??4xsd__long@@QAEAAV0@ABV0@@Z PROC			; xsd__long::operator=, COMDAT
; _this$ = eax
; ___that$ = ecx
	mov	edx, DWORD PTR [ecx+4]
	mov	DWORD PTR [eax+4], edx
	mov	edx, DWORD PTR [ecx+8]
	mov	DWORD PTR [eax+8], edx
	mov	edx, DWORD PTR [ecx+16]
	mov	DWORD PTR [eax+16], edx
	mov	ecx, DWORD PTR [ecx+20]
	mov	DWORD PTR [eax+20], ecx
	ret	0
??4xsd__long@@QAEAAV0@ABV0@@Z ENDP			; xsd__long::operator=
_TEXT	ENDS
PUBLIC	?soap_copy_xsd__long@@YAXPAUsoap@@HHPAXIPBXI@Z	; soap_copy_xsd__long
; Function compile flags: /Ogtpy
_TEXT	SEGMENT
?soap_copy_xsd__long@@YAXPAUsoap@@HHPAXIPBXI@Z PROC	; soap_copy_xsd__long
; _p$ = ecx
; _q$ = eax

; 2192 : 	DBGLOG(TEST, SOAP_MESSAGE(fdebug, "Copying xsd__long %p -> %p\n", q, p));
; 2193 : 	*(xsd__long*)p = *(xsd__long*)q;

	mov	edx, DWORD PTR [eax+4]
	mov	DWORD PTR [ecx+4], edx
	mov	edx, DWORD PTR [eax+8]
	mov	DWORD PTR [ecx+8], edx
	mov	edx, DWORD PTR [eax+16]
	mov	DWORD PTR [ecx+16], edx
	mov	eax, DWORD PTR [eax+20]
	mov	DWORD PTR [ecx+20], eax

; 2194 : }

	ret	0
?soap_copy_xsd__long@@YAXPAUsoap@@HHPAXIPBXI@Z ENDP	; soap_copy_xsd__long
; Function compile flags: /Ogtpy
_soap$ = 8						; size = 4
?soap_default@xsd__long@@UAEXPAUsoap@@@Z PROC		; xsd__long::soap_default
; _this$ = ecx

; 2089 : 	this->soap = soap;

	mov	eax, DWORD PTR _soap$[esp-4]
	mov	DWORD PTR [ecx+8], eax

; 2090 : 	soap_default_LONG64(soap, &this->xsd__long::__item);

	xor	eax, eax
	mov	DWORD PTR [ecx+16], eax
	mov	DWORD PTR [ecx+20], eax

; 2091 : 	this->xsd__anyType::__item = NULL;

	mov	DWORD PTR [ecx+4], eax

; 2092 : 	/* transient soap skipped */
; 2093 : }

	ret	4
?soap_default@xsd__long@@UAEXPAUsoap@@@Z ENDP		; xsd__long::soap_default
; Function compile flags: /Ogtpy
_soap$ = 8						; size = 4
?soap_serialize@xsd__string@@UBEXPAUsoap@@@Z PROC	; xsd__string::soap_serialize
; _this$ = ecx

; 1986 : 	(void)soap; /* appease -Wall -Werror */
; 1987 : 	soap_embedded(soap, &this->xsd__string::__item, SOAP_TYPE_std__string);

	mov	edx, DWORD PTR _soap$[esp-4]
	add	ecx, 12					; 0000000cH
	call	_soap_embedded

; 1988 : 	soap_serialize_std__string(soap, &this->xsd__string::__item);
; 1989 : 	/* transient soap skipped */
; 1990 : }

	ret	4
?soap_serialize@xsd__string@@UBEXPAUsoap@@@Z ENDP	; xsd__string::soap_serialize
; Function compile flags: /Ogtpy
_TEXT	ENDS
;	COMDAT ??_E_ns2__getSessionIDElement@@UAEPAXI@Z
_TEXT	SEGMENT
___flags$ = 8						; size = 4
??_E_ns2__getSessionIDElement@@UAEPAXI@Z PROC		; _ns2__getSessionIDElement::`vector deleting destructor', COMDAT
; _this$ = ecx
	push	ebx
	mov	bl, BYTE PTR ___flags$[esp]
	push	esi
	mov	esi, ecx
	test	bl, 2
	je	SHORT $LN3@vector@2
	mov	eax, DWORD PTR [esi-4]
	push	edi
	push	OFFSET ??1_ns2__getSessionIDElement@@UAE@XZ ; _ns2__getSessionIDElement::~_ns2__getSessionIDElement
	lea	edi, DWORD PTR [esi-4]
	push	eax
	push	12					; 0000000cH
	push	esi
	call	??_M@YGXPAXIHP6EX0@Z@Z
	test	bl, 1
	je	SHORT $LN2@vector@2
	push	edi
	call	??_V@YAXPAX@Z				; operator delete[]
	add	esp, 4
$LN2@vector@2:
	mov	eax, edi
	pop	edi
	pop	esi
	pop	ebx
	ret	4
$LN3@vector@2:
	mov	DWORD PTR [esi], OFFSET ??_7_ns2__getSessionIDElement@@6B@
	test	bl, 1
	je	SHORT $LN1@vector@2
	push	esi
	call	??3@YAXPAX@Z				; operator delete
	add	esp, 4
$LN1@vector@2:
	mov	eax, esi
	pop	esi
	pop	ebx
	ret	4
??_E_ns2__getSessionIDElement@@UAEPAXI@Z ENDP		; _ns2__getSessionIDElement::`vector deleting destructor'
; Function compile flags: /Ogtpy
_TEXT	ENDS
_TEXT	SEGMENT
_soap$ = 8						; size = 4
?soap_serialize@_ns2__getSessionIDElement@@UBEXPAUsoap@@@Z PROC ; _ns2__getSessionIDElement::soap_serialize
; _this$ = ecx

; 1749 : 	(void)soap; /* appease -Wall -Werror */
; 1750 : 	soap_serialize_PointerTostd__string(soap, &this->_ns2__getSessionIDElement::String_USCORE1);

	mov	eax, DWORD PTR _soap$[esp-4]
	mov	ecx, DWORD PTR [ecx+4]
	push	eax
	mov	eax, 18					; 00000012H
	call	_soap_reference
	pop	ecx

; 1751 : 	/* transient soap skipped */
; 1752 : }

	ret	4
?soap_serialize@_ns2__getSessionIDElement@@UBEXPAUsoap@@@Z ENDP ; _ns2__getSessionIDElement::soap_serialize
; Function compile flags: /Ogtpy
_TEXT	ENDS
;	COMDAT ??_E_ns2__getSessionIDResponseElement@@UAEPAXI@Z
_TEXT	SEGMENT
___flags$ = 8						; size = 4
??_E_ns2__getSessionIDResponseElement@@UAEPAXI@Z PROC	; _ns2__getSessionIDResponseElement::`vector deleting destructor', COMDAT
; _this$ = ecx
	push	ebx
	mov	bl, BYTE PTR ___flags$[esp]
	push	esi
	mov	esi, ecx
	test	bl, 2
	je	SHORT $LN3@vector@3
	mov	eax, DWORD PTR [esi-4]
	push	edi
	push	OFFSET ??1_ns2__getSessionIDResponseElement@@UAE@XZ ; _ns2__getSessionIDResponseElement::~_ns2__getSessionIDResponseElement
	lea	edi, DWORD PTR [esi-4]
	push	eax
	push	12					; 0000000cH
	push	esi
	call	??_M@YGXPAXIHP6EX0@Z@Z
	test	bl, 1
	je	SHORT $LN2@vector@3
	push	edi
	call	??_V@YAXPAX@Z				; operator delete[]
	add	esp, 4
$LN2@vector@3:
	mov	eax, edi
	pop	edi
	pop	esi
	pop	ebx
	ret	4
$LN3@vector@3:
	mov	DWORD PTR [esi], OFFSET ??_7_ns2__getSessionIDResponseElement@@6B@
	test	bl, 1
	je	SHORT $LN1@vector@3
	push	esi
	call	??3@YAXPAX@Z				; operator delete
	add	esp, 4
$LN1@vector@3:
	mov	eax, esi
	pop	esi
	pop	ebx
	ret	4
??_E_ns2__getSessionIDResponseElement@@UAEPAXI@Z ENDP	; _ns2__getSessionIDResponseElement::`vector deleting destructor'
; Function compile flags: /Ogtpy
_TEXT	ENDS
_TEXT	SEGMENT
_soap$ = 8						; size = 4
?soap_default@_ns2__getSessionIDResponseElement@@UAEXPAUsoap@@@Z PROC ; _ns2__getSessionIDResponseElement::soap_default
; _this$ = ecx

; 1599 : 	this->soap = soap;

	mov	eax, DWORD PTR _soap$[esp-4]
	mov	DWORD PTR [ecx+8], eax

; 1600 : 	soap_default_int(soap, &this->_ns2__getSessionIDResponseElement::result);

	mov	DWORD PTR [ecx+4], 0

; 1601 : 	/* transient soap skipped */
; 1602 : }

	ret	4
?soap_default@_ns2__getSessionIDResponseElement@@UAEXPAUsoap@@@Z ENDP ; _ns2__getSessionIDResponseElement::soap_default
; Function compile flags: /Ogtpy
_TEXT	ENDS
;	COMDAT ??_E_ns2__getSettingsFileElement@@UAEPAXI@Z
_TEXT	SEGMENT
___flags$ = 8						; size = 4
??_E_ns2__getSettingsFileElement@@UAEPAXI@Z PROC	; _ns2__getSettingsFileElement::`vector deleting destructor', COMDAT
; _this$ = ecx
	push	ebx
	mov	bl, BYTE PTR ___flags$[esp]
	push	esi
	mov	esi, ecx
	test	bl, 2
	je	SHORT $LN3@vector@4
	mov	eax, DWORD PTR [esi-4]
	push	edi
	push	OFFSET ??1_ns2__getSettingsFileElement@@UAE@XZ ; _ns2__getSettingsFileElement::~_ns2__getSettingsFileElement
	lea	edi, DWORD PTR [esi-4]
	push	eax
	push	12					; 0000000cH
	push	esi
	call	??_M@YGXPAXIHP6EX0@Z@Z
	test	bl, 1
	je	SHORT $LN2@vector@4
	push	edi
	call	??_V@YAXPAX@Z				; operator delete[]
	add	esp, 4
$LN2@vector@4:
	mov	eax, edi
	pop	edi
	pop	esi
	pop	ebx
	ret	4
$LN3@vector@4:
	mov	DWORD PTR [esi], OFFSET ??_7_ns2__getSettingsFileElement@@6B@
	test	bl, 1
	je	SHORT $LN1@vector@4
	push	esi
	call	??3@YAXPAX@Z				; operator delete
	add	esp, 4
$LN1@vector@4:
	mov	eax, esi
	pop	esi
	pop	ebx
	ret	4
??_E_ns2__getSettingsFileElement@@UAEPAXI@Z ENDP	; _ns2__getSettingsFileElement::`vector deleting destructor'
; Function compile flags: /Ogtpy
_TEXT	ENDS
_TEXT	SEGMENT
_soap$ = 8						; size = 4
?soap_default@_ns2__getSettingsFileElement@@UAEXPAUsoap@@@Z PROC ; _ns2__getSettingsFileElement::soap_default
; _this$ = ecx

; 1458 : 	this->soap = soap;

	mov	eax, DWORD PTR _soap$[esp-4]
	mov	DWORD PTR [ecx+8], eax

; 1459 : 	soap_default_int(soap, &this->_ns2__getSettingsFileElement::int_USCORE1);

	mov	DWORD PTR [ecx+4], 0

; 1460 : 	/* transient soap skipped */
; 1461 : }

	ret	4
?soap_default@_ns2__getSettingsFileElement@@UAEXPAUsoap@@@Z ENDP ; _ns2__getSettingsFileElement::soap_default
; Function compile flags: /Ogtpy
_TEXT	ENDS
;	COMDAT ??_E_ns2__getSettingsFileResponseElement@@UAEPAXI@Z
_TEXT	SEGMENT
___flags$ = 8						; size = 4
??_E_ns2__getSettingsFileResponseElement@@UAEPAXI@Z PROC ; _ns2__getSettingsFileResponseElement::`vector deleting destructor', COMDAT
; _this$ = ecx
	push	ebx
	mov	bl, BYTE PTR ___flags$[esp]
	push	esi
	mov	esi, ecx
	test	bl, 2
	je	SHORT $LN3@vector@5
	mov	eax, DWORD PTR [esi-4]
	push	edi
	push	OFFSET ??1_ns2__getSettingsFileResponseElement@@UAE@XZ ; _ns2__getSettingsFileResponseElement::~_ns2__getSettingsFileResponseElement
	lea	edi, DWORD PTR [esi-4]
	push	eax
	push	12					; 0000000cH
	push	esi
	call	??_M@YGXPAXIHP6EX0@Z@Z
	test	bl, 1
	je	SHORT $LN2@vector@5
	push	edi
	call	??_V@YAXPAX@Z				; operator delete[]
	add	esp, 4
$LN2@vector@5:
	mov	eax, edi
	pop	edi
	pop	esi
	pop	ebx
	ret	4
$LN3@vector@5:
	mov	DWORD PTR [esi], OFFSET ??_7_ns2__getSettingsFileResponseElement@@6B@
	test	bl, 1
	je	SHORT $LN1@vector@5
	push	esi
	call	??3@YAXPAX@Z				; operator delete
	add	esp, 4
$LN1@vector@5:
	mov	eax, esi
	pop	esi
	pop	ebx
	ret	4
??_E_ns2__getSettingsFileResponseElement@@UAEPAXI@Z ENDP ; _ns2__getSettingsFileResponseElement::`vector deleting destructor'
; Function compile flags: /Ogtpy
_TEXT	ENDS
_TEXT	SEGMENT
_soap$ = 8						; size = 4
?soap_serialize@_ns2__getSettingsFileResponseElement@@UBEXPAUsoap@@@Z PROC ; _ns2__getSettingsFileResponseElement::soap_serialize
; _this$ = ecx

; 1324 : 	(void)soap; /* appease -Wall -Werror */
; 1325 : 	soap_serialize_PointerTostd__string(soap, &this->_ns2__getSettingsFileResponseElement::result);

	mov	eax, DWORD PTR _soap$[esp-4]
	mov	ecx, DWORD PTR [ecx+4]
	push	eax
	mov	eax, 18					; 00000012H
	call	_soap_reference
	pop	ecx

; 1326 : 	/* transient soap skipped */
; 1327 : }

	ret	4
?soap_serialize@_ns2__getSettingsFileResponseElement@@UBEXPAUsoap@@@Z ENDP ; _ns2__getSettingsFileResponseElement::soap_serialize
; Function compile flags: /Ogtpy
_soap$ = 8						; size = 4
?soap_serialize@_ns2__submitEpochResultElement@@UBEXPAUsoap@@@Z PROC ; _ns2__submitEpochResultElement::soap_serialize
; _this$ = ecx

; 1134 : 	(void)soap; /* appease -Wall -Werror */
; 1135 : 	soap_serialize_PointerTostd__string(soap, &this->_ns2__submitEpochResultElement::sessionID);

	mov	eax, DWORD PTR _soap$[esp-4]
	mov	ecx, DWORD PTR [ecx+8]
	push	eax
	mov	eax, 18					; 00000012H
	call	_soap_reference
	pop	ecx

; 1136 : 	soap_serialize_std__vectorTemplateOfint(soap, &this->_ns2__submitEpochResultElement::channel);
; 1137 : 	soap_serialize_std__vectorTemplateOfint(soap, &this->_ns2__submitEpochResultElement::rank);
; 1138 : 	soap_serialize_std__vectorTemplateOffloat(soap, &this->_ns2__submitEpochResultElement::PsysACTSTBY);
; 1139 : 	soap_serialize_std__vectorTemplateOffloat(soap, &this->_ns2__submitEpochResultElement::PsysACT);
; 1140 : 	/* transient soap skipped */
; 1141 : }

	ret	4
?soap_serialize@_ns2__submitEpochResultElement@@UBEXPAUsoap@@@Z ENDP ; _ns2__submitEpochResultElement::soap_serialize
; Function compile flags: /Ogtpy
_TEXT	ENDS
;	COMDAT ??_E_ns2__submitEpochResultResponseElement@@UAEPAXI@Z
_TEXT	SEGMENT
___flags$ = 8						; size = 4
??_E_ns2__submitEpochResultResponseElement@@UAEPAXI@Z PROC ; _ns2__submitEpochResultResponseElement::`vector deleting destructor', COMDAT
; _this$ = ecx
	push	ebx
	mov	bl, BYTE PTR ___flags$[esp]
	push	esi
	mov	esi, ecx
	test	bl, 2
	je	SHORT $LN3@vector@6
	mov	eax, DWORD PTR [esi-4]
	push	edi
	push	OFFSET ??1_ns2__submitEpochResultResponseElement@@UAE@XZ ; _ns2__submitEpochResultResponseElement::~_ns2__submitEpochResultResponseElement
	lea	edi, DWORD PTR [esi-4]
	push	eax
	push	12					; 0000000cH
	push	esi
	call	??_M@YGXPAXIHP6EX0@Z@Z
	test	bl, 1
	je	SHORT $LN2@vector@6
	push	edi
	call	??_V@YAXPAX@Z				; operator delete[]
	add	esp, 4
$LN2@vector@6:
	mov	eax, edi
	pop	edi
	pop	esi
	pop	ebx
	ret	4
$LN3@vector@6:
	mov	DWORD PTR [esi], OFFSET ??_7_ns2__submitEpochResultResponseElement@@6B@
	test	bl, 1
	je	SHORT $LN1@vector@6
	push	esi
	call	??3@YAXPAX@Z				; operator delete
	add	esp, 4
$LN1@vector@6:
	mov	eax, esi
	pop	esi
	pop	ebx
	ret	4
??_E_ns2__submitEpochResultResponseElement@@UAEPAXI@Z ENDP ; _ns2__submitEpochResultResponseElement::`vector deleting destructor'
; Function compile flags: /Ogtpy
_TEXT	ENDS
_TEXT	SEGMENT
_soap$ = 8						; size = 4
?soap_default@_ns2__submitEpochResultResponseElement@@UAEXPAUsoap@@@Z PROC ; _ns2__submitEpochResultResponseElement::soap_default
; _this$ = ecx

; 977  : 	this->soap = soap;

	mov	eax, DWORD PTR _soap$[esp-4]
	mov	DWORD PTR [ecx+8], eax

; 978  : 	soap_default_bool(soap, &this->_ns2__submitEpochResultResponseElement::result);

	mov	BYTE PTR [ecx+4], 0

; 979  : 	/* transient soap skipped */
; 980  : }

	ret	4
?soap_default@_ns2__submitEpochResultResponseElement@@UAEXPAUsoap@@@Z ENDP ; _ns2__submitEpochResultResponseElement::soap_default
_TEXT	ENDS
PUBLIC	?soap_container_insert@@YAXPAUsoap@@HHPAXIPBXI@Z ; soap_container_insert
; Function compile flags: /Ogtpy
_TEXT	SEGMENT
_soap$ = 8						; size = 4
_st$ = 12						; size = 4
_tt$ = 16						; size = 4
_p$ = 20						; size = 4
_len$ = 24						; size = 4
_q$ = 28						; size = 4
_n$ = 32						; size = 4
?soap_container_insert@@YAXPAUsoap@@HHPAXIPBXI@Z PROC	; soap_container_insert

; 736  : {	switch (tt)

	mov	eax, DWORD PTR _tt$[esp-4]
	sub	eax, 26					; 0000001aH
	push	esi
	push	edi
	je	SHORT $LN2@soap_conta
	sub	eax, 1
	jne	SHORT $LN1@soap_conta

; 737  : 	{
; 738  : 	case SOAP_TYPE_std__vectorTemplateOffloat:
; 739  : 		DBGLOG(TEST, SOAP_MESSAGE(fdebug, "Container insert type=%d in %d location=%p object=%p len=%lu\n", st, tt, p, q, (unsigned long)len));
; 740  : 		(*(std::vector<float >*)p)[len] = *(float *)q;

	mov	esi, DWORD PTR _p$[esp+4]
	mov	eax, DWORD PTR [esi+16]
	sub	eax, DWORD PTR [esi+12]
	mov	edi, DWORD PTR _len$[esp+4]
	sar	eax, 2
	cmp	edi, eax
	jb	SHORT $LN8@soap_conta
	call	__invalid_parameter_noinfo
$LN8@soap_conta:
	mov	edx, DWORD PTR _q$[esp+4]
	mov	ecx, DWORD PTR [esi+12]
	fld	DWORD PTR [edx]
	fstp	DWORD PTR [ecx+edi*4]
	pop	edi
	pop	esi

; 745  : 		break;
; 746  : 	default:
; 747  : 		DBGLOG(TEST, SOAP_MESSAGE(fdebug, "Could not insert type=%d in %d\n", st, tt));
; 748  : 	}
; 749  : #ifdef WIN32
; 750  : #pragma warning(pop)
; 751  : #endif
; 752  : }

	ret	0
$LN2@soap_conta:

; 741  : 		break;
; 742  : 	case SOAP_TYPE_std__vectorTemplateOfint:
; 743  : 		DBGLOG(TEST, SOAP_MESSAGE(fdebug, "Container insert type=%d in %d location=%p object=%p len=%lu\n", st, tt, p, q, (unsigned long)len));
; 744  : 		(*(std::vector<int >*)p)[len] = *(int *)q;

	mov	esi, DWORD PTR _p$[esp+4]
	mov	eax, DWORD PTR [esi+16]
	sub	eax, DWORD PTR [esi+12]
	mov	edi, DWORD PTR _len$[esp+4]
	sar	eax, 2
	cmp	edi, eax
	jb	SHORT $LN13@soap_conta
	call	__invalid_parameter_noinfo
$LN13@soap_conta:
	mov	edx, DWORD PTR _q$[esp+4]
	mov	ecx, DWORD PTR [esi+12]
	mov	eax, DWORD PTR [edx]
	mov	DWORD PTR [ecx+edi*4], eax
$LN1@soap_conta:
	pop	edi
	pop	esi

; 745  : 		break;
; 746  : 	default:
; 747  : 		DBGLOG(TEST, SOAP_MESSAGE(fdebug, "Could not insert type=%d in %d\n", st, tt));
; 748  : 	}
; 749  : #ifdef WIN32
; 750  : #pragma warning(pop)
; 751  : #endif
; 752  : }

	ret	0
?soap_container_insert@@YAXPAUsoap@@HHPAXIPBXI@Z ENDP	; soap_container_insert
_TEXT	ENDS
PUBLIC	_soap_markelement
; Function compile flags: /Ogtpy
_TEXT	SEGMENT
_soap$ = 8						; size = 4
_soap_markelement PROC
; _ptr$ = ecx
; _type$ = eax

; 427  : 	(void)soap; (void)ptr; (void)type; /* appease -Wall -Werror */
; 428  : 	switch (type)

	add	eax, -4					; fffffffcH
	push	edi
	mov	edi, DWORD PTR _soap$[esp]
	cmp	eax, 35					; 00000023H
	ja	$LN26@soap_marke
	push	esi
	jmp	DWORD PTR $LN43@soap_marke[eax*4]
$LN25@soap_marke:

; 429  : 	{
; 430  : 	case SOAP_TYPE__ns2__submitEpochResultResponseElement:
; 431  : 		((_ns2__submitEpochResultResponseElement *)ptr)->soap_serialize(soap);

	mov	eax, DWORD PTR [ecx]
	mov	edx, DWORD PTR [eax+8]
	push	edi
	call	edx
	pop	esi
	pop	edi

; 504  : 		break;
; 505  : 	}
; 506  : }

	ret	0
$LN12@soap_marke:

; 432  : 		break;
; 433  : 	case SOAP_TYPE__ns2__submitEpochResultElement:
; 434  : 		((_ns2__submitEpochResultElement *)ptr)->soap_serialize(soap);
; 435  : 		break;
; 436  : 	case SOAP_TYPE__ns2__getSettingsFileResponseElement:
; 437  : 		((_ns2__getSettingsFileResponseElement *)ptr)->soap_serialize(soap);
; 438  : 		break;
; 439  : 	case SOAP_TYPE__ns2__getSettingsFileElement:
; 440  : 		((_ns2__getSettingsFileElement *)ptr)->soap_serialize(soap);
; 441  : 		break;
; 442  : 	case SOAP_TYPE__ns2__getSessionIDResponseElement:
; 443  : 		((_ns2__getSessionIDResponseElement *)ptr)->soap_serialize(soap);
; 444  : 		break;
; 445  : 	case SOAP_TYPE__ns2__getSessionIDElement:
; 446  : 		((_ns2__getSessionIDElement *)ptr)->soap_serialize(soap);
; 447  : 		break;
; 448  : 	case SOAP_TYPE_std__string:
; 449  : 		soap_serialize_std__string(soap, (const std::string *)ptr);
; 450  : 		break;
; 451  : 	case SOAP_TYPE_xsd__string:
; 452  : 		((xsd__string *)ptr)->soap_serialize(soap);
; 453  : 		break;
; 454  : 	case SOAP_TYPE_xsd__long:
; 455  : 		((xsd__long *)ptr)->soap_serialize(soap);
; 456  : 		break;
; 457  : 	case SOAP_TYPE_xsd__int:
; 458  : 		((xsd__int *)ptr)->soap_serialize(soap);
; 459  : 		break;
; 460  : 	case SOAP_TYPE_xsd__float:
; 461  : 		((xsd__float *)ptr)->soap_serialize(soap);
; 462  : 		break;
; 463  : 	case SOAP_TYPE_xsd__boolean:
; 464  : 		((xsd__boolean *)ptr)->soap_serialize(soap);
; 465  : 		break;
; 466  : 	case SOAP_TYPE_xsd__anyType:
; 467  : 		((xsd__anyType *)ptr)->soap_serialize(soap);
; 468  : 		break;
; 469  : 	case SOAP_TYPE___ns1__submitEpochResult:
; 470  : 		soap_serialize___ns1__submitEpochResult(soap, (const struct __ns1__submitEpochResult *)ptr);

	mov	esi, ecx
	call	?soap_serialize___ns1__submitEpochResult@@YAXPAUsoap@@PBU__ns1__submitEpochResult@@@Z ; soap_serialize___ns1__submitEpochResult
	pop	esi
	pop	edi

; 504  : 		break;
; 505  : 	}
; 506  : }

	ret	0
$LN11@soap_marke:

; 471  : 		break;
; 472  : 	case SOAP_TYPE___ns1__getSettingsFile:
; 473  : 		soap_serialize___ns1__getSettingsFile(soap, (const struct __ns1__getSettingsFile *)ptr);

	mov	esi, ecx
	call	?soap_serialize___ns1__getSettingsFile@@YAXPAUsoap@@PBU__ns1__getSettingsFile@@@Z ; soap_serialize___ns1__getSettingsFile
	pop	esi
	pop	edi

; 504  : 		break;
; 505  : 	}
; 506  : }

	ret	0
$LN10@soap_marke:

; 474  : 		break;
; 475  : 	case SOAP_TYPE___ns1__getSessionID:
; 476  : 		soap_serialize___ns1__getSessionID(soap, (const struct __ns1__getSessionID *)ptr);

	mov	esi, ecx
	call	?soap_serialize___ns1__getSessionID@@YAXPAUsoap@@PBU__ns1__getSessionID@@@Z ; soap_serialize___ns1__getSessionID
	pop	esi
	pop	edi

; 504  : 		break;
; 505  : 	}
; 506  : }

	ret	0
$LN9@soap_marke:

; 477  : 		break;
; 478  : 	case SOAP_TYPE_PointerTo_ns2__submitEpochResultResponseElement:
; 479  : 		soap_serialize_PointerTo_ns2__submitEpochResultResponseElement(soap, (_ns2__submitEpochResultResponseElement *const*)ptr);

	mov	esi, ecx
	call	?soap_serialize_PointerTo_ns2__submitEpochResultResponseElement@@YAXPAUsoap@@PBQAV_ns2__submitEpochResultResponseElement@@@Z ; soap_serialize_PointerTo_ns2__submitEpochResultResponseElement
	pop	esi
	pop	edi

; 504  : 		break;
; 505  : 	}
; 506  : }

	ret	0
$LN8@soap_marke:

; 480  : 		break;
; 481  : 	case SOAP_TYPE_PointerTo_ns2__submitEpochResultElement:
; 482  : 		soap_serialize_PointerTo_ns2__submitEpochResultElement(soap, (_ns2__submitEpochResultElement *const*)ptr);

	mov	esi, ecx
	call	?soap_serialize_PointerTo_ns2__submitEpochResultElement@@YAXPAUsoap@@PBQAV_ns2__submitEpochResultElement@@@Z ; soap_serialize_PointerTo_ns2__submitEpochResultElement
	pop	esi
	pop	edi

; 504  : 		break;
; 505  : 	}
; 506  : }

	ret	0
$LN7@soap_marke:

; 483  : 		break;
; 484  : 	case SOAP_TYPE_PointerTo_ns2__getSettingsFileResponseElement:
; 485  : 		soap_serialize_PointerTo_ns2__getSettingsFileResponseElement(soap, (_ns2__getSettingsFileResponseElement *const*)ptr);

	mov	esi, ecx
	call	?soap_serialize_PointerTo_ns2__getSettingsFileResponseElement@@YAXPAUsoap@@PBQAV_ns2__getSettingsFileResponseElement@@@Z ; soap_serialize_PointerTo_ns2__getSettingsFileResponseElement
	pop	esi
	pop	edi

; 504  : 		break;
; 505  : 	}
; 506  : }

	ret	0
$LN6@soap_marke:

; 486  : 		break;
; 487  : 	case SOAP_TYPE_PointerTo_ns2__getSettingsFileElement:
; 488  : 		soap_serialize_PointerTo_ns2__getSettingsFileElement(soap, (_ns2__getSettingsFileElement *const*)ptr);

	mov	esi, ecx
	call	?soap_serialize_PointerTo_ns2__getSettingsFileElement@@YAXPAUsoap@@PBQAV_ns2__getSettingsFileElement@@@Z ; soap_serialize_PointerTo_ns2__getSettingsFileElement
	pop	esi
	pop	edi

; 504  : 		break;
; 505  : 	}
; 506  : }

	ret	0
$LN5@soap_marke:

; 489  : 		break;
; 490  : 	case SOAP_TYPE_PointerTo_ns2__getSessionIDResponseElement:
; 491  : 		soap_serialize_PointerTo_ns2__getSessionIDResponseElement(soap, (_ns2__getSessionIDResponseElement *const*)ptr);

	mov	esi, ecx
	call	?soap_serialize_PointerTo_ns2__getSessionIDResponseElement@@YAXPAUsoap@@PBQAV_ns2__getSessionIDResponseElement@@@Z ; soap_serialize_PointerTo_ns2__getSessionIDResponseElement
	pop	esi
	pop	edi

; 504  : 		break;
; 505  : 	}
; 506  : }

	ret	0
$LN4@soap_marke:

; 492  : 		break;
; 493  : 	case SOAP_TYPE_PointerTo_ns2__getSessionIDElement:
; 494  : 		soap_serialize_PointerTo_ns2__getSessionIDElement(soap, (_ns2__getSessionIDElement *const*)ptr);

	mov	esi, ecx
	call	?soap_serialize_PointerTo_ns2__getSessionIDElement@@YAXPAUsoap@@PBQAV_ns2__getSessionIDElement@@@Z ; soap_serialize_PointerTo_ns2__getSessionIDElement
	pop	esi
	pop	edi

; 504  : 		break;
; 505  : 	}
; 506  : }

	ret	0
$LN3@soap_marke:

; 495  : 		break;
; 496  : 	case SOAP_TYPE_PointerTostd__string:
; 497  : 		soap_serialize_PointerTostd__string(soap, (std::string *const*)ptr);

	mov	ecx, DWORD PTR [ecx]
	mov	eax, 18					; 00000012H

; 498  : 		break;
; 499  : 	case SOAP_TYPE__QName:
; 500  : 		soap_serialize_string(soap, (char*const*)&ptr);
; 501  : 		break;
; 502  : 	case SOAP_TYPE_string:
; 503  : 		soap_serialize_string(soap, (char*const*)&ptr);

	push	edi
	call	_soap_reference
	add	esp, 4
	pop	esi
	pop	edi

; 504  : 		break;
; 505  : 	}
; 506  : }

	ret	0
$LN1@soap_marke:

; 498  : 		break;
; 499  : 	case SOAP_TYPE__QName:
; 500  : 		soap_serialize_string(soap, (char*const*)&ptr);
; 501  : 		break;
; 502  : 	case SOAP_TYPE_string:
; 503  : 		soap_serialize_string(soap, (char*const*)&ptr);

	mov	eax, 4
	push	edi
	call	_soap_reference
	add	esp, 4
$LN41@soap_marke:
	pop	esi
$LN26@soap_marke:
	pop	edi

; 504  : 		break;
; 505  : 	}
; 506  : }

	ret	0
	npad	2
$LN43@soap_marke:
	DD	$LN1@soap_marke
	DD	$LN1@soap_marke
	DD	$LN41@soap_marke
	DD	$LN41@soap_marke
	DD	$LN25@soap_marke
	DD	$LN41@soap_marke
	DD	$LN25@soap_marke
	DD	$LN41@soap_marke
	DD	$LN25@soap_marke
	DD	$LN41@soap_marke
	DD	$LN25@soap_marke
	DD	$LN25@soap_marke
	DD	$LN41@soap_marke
	DD	$LN25@soap_marke
	DD	$LN41@soap_marke
	DD	$LN25@soap_marke
	DD	$LN25@soap_marke
	DD	$LN25@soap_marke
	DD	$LN25@soap_marke
	DD	$LN25@soap_marke
	DD	$LN25@soap_marke
	DD	$LN3@soap_marke
	DD	$LN41@soap_marke
	DD	$LN41@soap_marke
	DD	$LN4@soap_marke
	DD	$LN5@soap_marke
	DD	$LN41@soap_marke
	DD	$LN10@soap_marke
	DD	$LN6@soap_marke
	DD	$LN7@soap_marke
	DD	$LN41@soap_marke
	DD	$LN11@soap_marke
	DD	$LN8@soap_marke
	DD	$LN9@soap_marke
	DD	$LN41@soap_marke
	DD	$LN12@soap_marke
_soap_markelement ENDP
; Function compile flags: /Ogtpy
; File c:\users\crius\documents\visual studio 2008\projects\dramsimiihg\src\reporting\soapstub.h
_TEXT	ENDS
;	COMDAT ??1xsd__long@@UAE@XZ
_TEXT	SEGMENT
??1xsd__long@@UAE@XZ PROC				; xsd__long::~xsd__long, COMDAT
; _this$ = ecx

; 128  : 	virtual ~xsd__long() { }

	mov	DWORD PTR [ecx], OFFSET ??_7xsd__anyType@@6B@
	ret	0
??1xsd__long@@UAE@XZ ENDP				; xsd__long::~xsd__long
; Function compile flags: /Ogtpy
_TEXT	ENDS
;	COMDAT ??0xsd__long@@QAE@XZ
_TEXT	SEGMENT
??0xsd__long@@QAE@XZ PROC				; xsd__long::xsd__long, COMDAT
; _this$ = ecx

; 127  : 	xsd__long() : __item(0) { }

	mov	eax, ecx
	xor	ecx, ecx
	mov	DWORD PTR [eax+4], ecx
	mov	DWORD PTR [eax+8], ecx
	mov	DWORD PTR [eax], OFFSET ??_7xsd__long@@6B@
	mov	DWORD PTR [eax+16], ecx
	mov	DWORD PTR [eax+20], ecx
	ret	0
??0xsd__long@@QAE@XZ ENDP				; xsd__long::xsd__long
; Function compile flags: /Ogtpy
_TEXT	ENDS
;	COMDAT ??1xsd__int@@UAE@XZ
_TEXT	SEGMENT
??1xsd__int@@UAE@XZ PROC				; xsd__int::~xsd__int, COMDAT
; _this$ = ecx

; 108  : 	virtual ~xsd__int() { }

	mov	DWORD PTR [ecx], OFFSET ??_7xsd__anyType@@6B@
	ret	0
??1xsd__int@@UAE@XZ ENDP				; xsd__int::~xsd__int
; Function compile flags: /Ogtpy
_TEXT	ENDS
;	COMDAT ??0xsd__int@@QAE@XZ
_TEXT	SEGMENT
??0xsd__int@@QAE@XZ PROC				; xsd__int::xsd__int, COMDAT
; _this$ = ecx

; 107  : 	xsd__int() : __item(0) { }

	mov	eax, ecx
	xor	ecx, ecx
	mov	DWORD PTR [eax+4], ecx
	mov	DWORD PTR [eax+8], ecx
	mov	DWORD PTR [eax], OFFSET ??_7xsd__int@@6B@
	mov	DWORD PTR [eax+12], ecx
	ret	0
??0xsd__int@@QAE@XZ ENDP				; xsd__int::xsd__int
; Function compile flags: /Ogtpy
_TEXT	ENDS
;	COMDAT ??1xsd__float@@UAE@XZ
_TEXT	SEGMENT
??1xsd__float@@UAE@XZ PROC				; xsd__float::~xsd__float, COMDAT
; _this$ = ecx

; 88   : 	virtual ~xsd__float() { }

	mov	DWORD PTR [ecx], OFFSET ??_7xsd__anyType@@6B@
	ret	0
??1xsd__float@@UAE@XZ ENDP				; xsd__float::~xsd__float
; Function compile flags: /Ogtpy
_TEXT	ENDS
;	COMDAT ??0xsd__float@@QAE@XZ
_TEXT	SEGMENT
??0xsd__float@@QAE@XZ PROC				; xsd__float::xsd__float, COMDAT
; _this$ = ecx

; 87   : 	xsd__float() : __item(0) { }

	xorps	xmm0, xmm0
	mov	eax, ecx
	xor	ecx, ecx
	mov	DWORD PTR [eax+4], ecx
	mov	DWORD PTR [eax+8], ecx
	mov	DWORD PTR [eax], OFFSET ??_7xsd__float@@6B@
	movss	DWORD PTR [eax+12], xmm0
	ret	0
??0xsd__float@@QAE@XZ ENDP				; xsd__float::xsd__float
; Function compile flags: /Ogtpy
_TEXT	ENDS
;	COMDAT ??1xsd__boolean@@UAE@XZ
_TEXT	SEGMENT
??1xsd__boolean@@UAE@XZ PROC				; xsd__boolean::~xsd__boolean, COMDAT
; _this$ = ecx

; 68   : 	virtual ~xsd__boolean() { }

	mov	DWORD PTR [ecx], OFFSET ??_7xsd__anyType@@6B@
	ret	0
??1xsd__boolean@@UAE@XZ ENDP				; xsd__boolean::~xsd__boolean
; Function compile flags: /Ogtpy
_TEXT	ENDS
;	COMDAT ??0xsd__boolean@@QAE@XZ
_TEXT	SEGMENT
??0xsd__boolean@@QAE@XZ PROC				; xsd__boolean::xsd__boolean, COMDAT
; _this$ = ecx

; 67   : 	xsd__boolean() : __item((bool)0) { }

	mov	eax, ecx
	xor	ecx, ecx
	mov	DWORD PTR [eax+4], ecx
	mov	DWORD PTR [eax+8], ecx
	mov	DWORD PTR [eax], OFFSET ??_7xsd__boolean@@6B@
	mov	BYTE PTR [eax+12], cl
	ret	0
??0xsd__boolean@@QAE@XZ ENDP				; xsd__boolean::xsd__boolean
; Function compile flags: /Ogtpy
; File c:\program files\microsoft visual studio 9.0\vc\include\memory
;	COMDAT ??$_Uninit_move@PAMPAMV?$allocator@M@std@@U_Undefined_move_tag@2@@std@@YAPAMPAM00AAV?$allocator@M@0@U_Undefined_move_tag@0@U_Range_checked_iterator_tag@0@@Z
_TEXT	SEGMENT
___formal$ = 8						; size = 1
___formal$ = 12						; size = 1
??$_Uninit_move@PAMPAMV?$allocator@M@std@@U_Undefined_move_tag@2@@std@@YAPAMPAM00AAV?$allocator@M@0@U_Undefined_move_tag@0@U_Range_checked_iterator_tag@0@@Z PROC ; std::_Uninit_move<float *,float *,std::allocator<float>,std::_Undefined_move_tag>, COMDAT
; __First$ = edi
; __Last$ = eax
; __Dest$ = edx

; 207  : 	return (_STDEXT unchecked_uninitialized_copy(_First, _Last, _Dest, _Al));

	sub	eax, edi
	sar	eax, 2
	lea	ecx, DWORD PTR [eax*4]
	push	esi
	lea	esi, DWORD PTR [ecx+edx]
	test	eax, eax
	jbe	SHORT $LN18@Uninit_mov@6
	push	ecx
	push	edi
	push	ecx
	push	edx
	call	_memmove_s
	add	esp, 16					; 00000010H
$LN18@Uninit_mov@6:
	mov	eax, esi
	pop	esi

; 208  : 	}

	ret	0
??$_Uninit_move@PAMPAMV?$allocator@M@std@@U_Undefined_move_tag@2@@std@@YAPAMPAM00AAV?$allocator@M@0@U_Undefined_move_tag@0@U_Range_checked_iterator_tag@0@@Z ENDP ; std::_Uninit_move<float *,float *,std::allocator<float>,std::_Undefined_move_tag>
; Function compile flags: /Ogtpy
_TEXT	ENDS
;	COMDAT ??$_Unchecked_uninitialized_move@PAMPAMV?$allocator@M@std@@@stdext@@YAPAMPAM00AAV?$allocator@M@std@@@Z
_TEXT	SEGMENT
??$_Unchecked_uninitialized_move@PAMPAMV?$allocator@M@std@@@stdext@@YAPAMPAM00AAV?$allocator@M@std@@@Z PROC ; stdext::_Unchecked_uninitialized_move<float *,float *,std::allocator<float> >, COMDAT
; __First$ = edi
; __Last$ = eax
; __Dest$ = edx

; 862  : 	return (_STD _Uninit_move(_CHECKED_BASE(_First),
; 863  : 		_CHECKED_BASE(_Last), _Dest, _Al,
; 864  : 		_STD _Move_cat(_Dest), _STD _Range_checked_iterator_tag()));

	sub	eax, edi
	sar	eax, 2
	lea	ecx, DWORD PTR [eax*4]
	push	esi
	lea	esi, DWORD PTR [ecx+edx]
	test	eax, eax
	jbe	SHORT $LN30@Unchecked_@15
	push	ecx
	push	edi
	push	ecx
	push	edx
	call	_memmove_s
	add	esp, 16					; 00000010H
$LN30@Unchecked_@15:
	mov	eax, esi
	pop	esi

; 865  : 	}

	ret	0
??$_Unchecked_uninitialized_move@PAMPAMV?$allocator@M@std@@@stdext@@YAPAMPAM00AAV?$allocator@M@std@@@Z ENDP ; stdext::_Unchecked_uninitialized_move<float *,float *,std::allocator<float> >
; Function compile flags: /Ogtpy
; File c:\program files\microsoft visual studio 9.0\vc\include\vector
_TEXT	ENDS
;	COMDAT ??$_Umove@PAM@?$vector@MV?$allocator@M@std@@@std@@IAEPAMPAM00@Z
_TEXT	SEGMENT
??$_Umove@PAM@?$vector@MV?$allocator@M@std@@@std@@IAEPAMPAM00@Z PROC ; std::vector<float,std::allocator<float> >::_Umove<float *>, COMDAT
; __First$ = edi
; __Last$ = eax
; __Ptr$ = edx

; 1146 : 		{	// move initializing [_First, _Last), using allocator
; 1147 : 		return (_STDEXT _Unchecked_uninitialized_move(_First, _Last,
; 1148 : 			_Ptr, this->_Alval));

	sub	eax, edi
	sar	eax, 2
	lea	ecx, DWORD PTR [eax*4]
	push	esi
	lea	esi, DWORD PTR [ecx+edx]
	test	eax, eax
	jbe	SHORT $LN32@Umove@8
	push	ecx
	push	edi
	push	ecx
	push	edx
	call	_memmove_s
	add	esp, 16					; 00000010H
$LN32@Umove@8:
	mov	eax, esi
	pop	esi

; 1149 : 		}

	ret	0
??$_Umove@PAM@?$vector@MV?$allocator@M@std@@@std@@IAEPAMPAM00@Z ENDP ; std::vector<float,std::allocator<float> >::_Umove<float *>
; Function compile flags: /Ogtpy
_TEXT	ENDS
;	COMDAT ??Y?$_Vector_const_iterator@MV?$allocator@M@std@@@std@@QAEAAV01@H@Z
_TEXT	SEGMENT
__Off$ = 8						; size = 4
??Y?$_Vector_const_iterator@MV?$allocator@M@std@@@std@@QAEAAV01@H@Z PROC ; std::_Vector_const_iterator<float,std::allocator<float> >::operator+=, COMDAT
; _this$ = esi

; 160  : 		_SCL_SECURE_VALIDATE(this->_Has_container());

	mov	eax, DWORD PTR [esi]
	test	eax, eax
	jne	SHORT $LN20@operator@145
	call	__invalid_parameter_noinfo

; 161  : 		_SCL_SECURE_VALIDATE_RANGE(

	mov	eax, DWORD PTR [esi]
	test	eax, eax
	je	SHORT $LN10@operator@145
$LN20@operator@145:
	mov	edx, DWORD PTR [eax]
	jmp	SHORT $LN11@operator@145
$LN10@operator@145:
	xor	edx, edx
$LN11@operator@145:
	mov	ecx, DWORD PTR [esi+4]
	push	edi
	mov	edi, DWORD PTR __Off$[esp]
	add	edi, edi
	add	edi, edi
	add	ecx, edi
	cmp	ecx, DWORD PTR [edx+16]
	ja	SHORT $LN1@operator@145
	test	eax, eax
	je	SHORT $LN16@operator@145
	mov	eax, DWORD PTR [eax]
	jmp	SHORT $LN17@operator@145
$LN16@operator@145:
	xor	eax, eax
$LN17@operator@145:
	cmp	ecx, DWORD PTR [eax+12]
	jae	SHORT $LN21@operator@145
$LN1@operator@145:

; 162  : 			_Myptr + _Off <= ((_Myvec *)(this->_Getmycont()))->_Mylast &&
; 163  : 			_Myptr + _Off >= ((_Myvec *)(this->_Getmycont()))->_Myfirst);

	call	__invalid_parameter_noinfo
$LN21@operator@145:

; 164  : 		_Myptr += _Off;

	add	DWORD PTR [esi+4], edi

; 165  : 		return (*this);

	mov	eax, esi
	pop	edi

; 166  : 		}

	ret	4
??Y?$_Vector_const_iterator@MV?$allocator@M@std@@@std@@QAEAAV01@H@Z ENDP ; std::_Vector_const_iterator<float,std::allocator<float> >::operator+=
; Function compile flags: /Ogtpy
_TEXT	ENDS
;	COMDAT ??Y?$_Vector_iterator@MV?$allocator@M@std@@@std@@QAEAAV01@H@Z
_TEXT	SEGMENT
__Off$ = 8						; size = 4
??Y?$_Vector_iterator@MV?$allocator@M@std@@@std@@QAEAAV01@H@Z PROC ; std::_Vector_iterator<float,std::allocator<float> >::operator+=, COMDAT
; _this$ = esi

; 375  : 		(*(_Mybase *)this) += _Off;

	mov	eax, DWORD PTR [esi]
	test	eax, eax
	jne	SHORT $LN22@operator@146
	call	__invalid_parameter_noinfo
	mov	eax, DWORD PTR [esi]
	test	eax, eax
	je	SHORT $LN12@operator@146
$LN22@operator@146:
	mov	edx, DWORD PTR [eax]
	jmp	SHORT $LN13@operator@146
$LN12@operator@146:
	xor	edx, edx
$LN13@operator@146:
	mov	ecx, DWORD PTR [esi+4]
	push	edi
	mov	edi, DWORD PTR __Off$[esp]
	add	edi, edi
	add	edi, edi
	add	ecx, edi
	cmp	ecx, DWORD PTR [edx+16]
	ja	SHORT $LN3@operator@146
	test	eax, eax
	je	SHORT $LN18@operator@146
	mov	eax, DWORD PTR [eax]
	jmp	SHORT $LN19@operator@146
$LN18@operator@146:
	xor	eax, eax
$LN19@operator@146:
	cmp	ecx, DWORD PTR [eax+12]
	jae	SHORT $LN23@operator@146
$LN3@operator@146:
	call	__invalid_parameter_noinfo
$LN23@operator@146:
	add	DWORD PTR [esi+4], edi

; 376  : 		return (*this);

	mov	eax, esi
	pop	edi

; 377  : 		}

	ret	4
??Y?$_Vector_iterator@MV?$allocator@M@std@@@std@@QAEAAV01@H@Z ENDP ; std::_Vector_iterator<float,std::allocator<float> >::operator+=
; Function compile flags: /Ogtpy
_TEXT	ENDS
;	COMDAT ??H?$_Vector_iterator@MV?$allocator@M@std@@@std@@QBE?AV01@H@Z
_TEXT	SEGMENT
___$ReturnUdt$ = 8					; size = 4
__Off$ = 12						; size = 4
??H?$_Vector_iterator@MV?$allocator@M@std@@@std@@QBE?AV01@H@Z PROC ; std::_Vector_iterator<float,std::allocator<float> >::operator+, COMDAT
; _this$ = eax

; 380  : 		{	// return this + integer

	push	ebx
	mov	ebx, DWORD PTR ___$ReturnUdt$[esp]
	push	esi

; 381  : 		_Myt _Tmp = *this;

	mov	esi, DWORD PTR [eax]
	push	edi
	mov	edi, DWORD PTR [eax+4]

; 382  : 		return (_Tmp += _Off);

	test	esi, esi
	jne	SHORT $LN24@operator@147
	call	__invalid_parameter_noinfo
	xor	eax, eax
$LN15@operator@147:
	mov	ecx, DWORD PTR __Off$[esp+8]
	lea	edi, DWORD PTR [edi+ecx*4]
	cmp	edi, DWORD PTR [eax+16]
	ja	SHORT $LN5@operator@147
	test	esi, esi
	je	SHORT $LN20@operator@147
	mov	eax, DWORD PTR [esi]
	jmp	SHORT $LN21@operator@147
$LN24@operator@147:
	mov	eax, DWORD PTR [esi]
	jmp	SHORT $LN15@operator@147
$LN20@operator@147:
	xor	eax, eax
$LN21@operator@147:
	cmp	edi, DWORD PTR [eax+12]
	jae	SHORT $LN6@operator@147
$LN5@operator@147:
	call	__invalid_parameter_noinfo
$LN6@operator@147:
	mov	DWORD PTR [ebx+4], edi

; 383  : 		}

	pop	edi
	mov	DWORD PTR [ebx], esi
	pop	esi
	mov	eax, ebx
	pop	ebx
	ret	8
??H?$_Vector_iterator@MV?$allocator@M@std@@@std@@QBE?AV01@H@Z ENDP ; std::_Vector_iterator<float,std::allocator<float> >::operator+
; Function compile flags: /Ogtpy
_TEXT	ENDS
;	COMDAT ??E?$_Vector_const_iterator@HV?$allocator@H@std@@@std@@QAEAAV01@XZ
_TEXT	SEGMENT
??E?$_Vector_const_iterator@HV?$allocator@H@std@@@std@@QAEAAV01@XZ PROC ; std::_Vector_const_iterator<int,std::allocator<int> >::operator++, COMDAT
; _this$ = esi

; 116  : 		_SCL_SECURE_VALIDATE(this->_Has_container());

	mov	eax, DWORD PTR [esi]
	test	eax, eax
	jne	SHORT $LN13@operator@148
	call	__invalid_parameter_noinfo

; 117  : 		_SCL_SECURE_VALIDATE_RANGE(_Myptr < ((_Myvec *)(this->_Getmycont()))->_Mylast);

	mov	eax, DWORD PTR [esi]
	test	eax, eax
	je	SHORT $LN9@operator@148
$LN13@operator@148:
	mov	eax, DWORD PTR [eax]
	jmp	SHORT $LN10@operator@148
$LN9@operator@148:
	xor	eax, eax
$LN10@operator@148:
	mov	ecx, DWORD PTR [esi+4]
	cmp	ecx, DWORD PTR [eax+16]
	jb	SHORT $LN14@operator@148
	call	__invalid_parameter_noinfo
$LN14@operator@148:

; 118  : 
; 119  :  #if _HAS_ITERATOR_DEBUGGING
; 120  : 		if (this->_Mycont == 0
; 121  : 			|| ((_Myvec *)this->_Mycont)->_Mylast <= _Myptr)
; 122  : 			_DEBUG_ERROR("vector iterator not incrementable");
; 123  :  #endif /* _HAS_ITERATOR_DEBUGGING */
; 124  : 
; 125  : 		++_Myptr;

	add	DWORD PTR [esi+4], 4

; 126  : 		return (*this);

	mov	eax, esi

; 127  : 		}

	ret	0
??E?$_Vector_const_iterator@HV?$allocator@H@std@@@std@@QAEAAV01@XZ ENDP ; std::_Vector_const_iterator<int,std::allocator<int> >::operator++
; Function compile flags: /Ogtpy
_TEXT	ENDS
;	COMDAT ??D?$_Vector_const_iterator@HV?$allocator@H@std@@@std@@QBEABHXZ
_TEXT	SEGMENT
??D?$_Vector_const_iterator@HV?$allocator@H@std@@@std@@QBEABHXZ PROC ; std::_Vector_const_iterator<int,std::allocator<int> >::operator*, COMDAT
; _this$ = esi

; 92   : 
; 93   :  #if _HAS_ITERATOR_DEBUGGING
; 94   : 		if (this->_Mycont == 0
; 95   : 			|| _Myptr < ((_Myvec *)this->_Mycont)->_Myfirst
; 96   : 			|| ((_Myvec *)this->_Mycont)->_Mylast <= _Myptr)
; 97   : 			{
; 98   : 			_DEBUG_ERROR("vector iterator not dereferencable");
; 99   : 			_SCL_SECURE_OUT_OF_RANGE;
; 100  : 			}
; 101  :  #else
; 102  :  		_SCL_SECURE_VALIDATE(this->_Has_container());

	mov	eax, DWORD PTR [esi]
	test	eax, eax
	jne	SHORT $LN13@operator@149
	call	__invalid_parameter_noinfo

; 103  : 		_SCL_SECURE_VALIDATE_RANGE(_Myptr < ((_Myvec *)(this->_Getmycont()))->_Mylast);

	mov	eax, DWORD PTR [esi]
	test	eax, eax
	je	SHORT $LN9@operator@149
$LN13@operator@149:
	mov	eax, DWORD PTR [eax]
	jmp	SHORT $LN10@operator@149
$LN9@operator@149:
	xor	eax, eax
$LN10@operator@149:
	mov	ecx, DWORD PTR [esi+4]
	cmp	ecx, DWORD PTR [eax+16]
	jb	SHORT $LN14@operator@149
	call	__invalid_parameter_noinfo

; 104  :  #endif /* _HAS_ITERATOR_DEBUGGING */
; 105  : 
; 106  : 		return (*_Myptr);

	mov	eax, DWORD PTR [esi+4]

; 107  : 		}

	ret	0
$LN14@operator@149:

; 104  :  #endif /* _HAS_ITERATOR_DEBUGGING */
; 105  : 
; 106  : 		return (*_Myptr);

	mov	eax, ecx

; 107  : 		}

	ret	0
??D?$_Vector_const_iterator@HV?$allocator@H@std@@@std@@QBEABHXZ ENDP ; std::_Vector_const_iterator<int,std::allocator<int> >::operator*
; Function compile flags: /Ogtpy
_TEXT	ENDS
;	COMDAT ??E?$_Vector_const_iterator@MV?$allocator@M@std@@@std@@QAEAAV01@XZ
_TEXT	SEGMENT
??E?$_Vector_const_iterator@MV?$allocator@M@std@@@std@@QAEAAV01@XZ PROC ; std::_Vector_const_iterator<float,std::allocator<float> >::operator++, COMDAT
; _this$ = esi

; 116  : 		_SCL_SECURE_VALIDATE(this->_Has_container());

	mov	eax, DWORD PTR [esi]
	test	eax, eax
	jne	SHORT $LN13@operator@150
	call	__invalid_parameter_noinfo

; 117  : 		_SCL_SECURE_VALIDATE_RANGE(_Myptr < ((_Myvec *)(this->_Getmycont()))->_Mylast);

	mov	eax, DWORD PTR [esi]
	test	eax, eax
	je	SHORT $LN9@operator@150
$LN13@operator@150:
	mov	eax, DWORD PTR [eax]
	jmp	SHORT $LN10@operator@150
$LN9@operator@150:
	xor	eax, eax
$LN10@operator@150:
	mov	ecx, DWORD PTR [esi+4]
	cmp	ecx, DWORD PTR [eax+16]
	jb	SHORT $LN14@operator@150
	call	__invalid_parameter_noinfo
$LN14@operator@150:

; 118  : 
; 119  :  #if _HAS_ITERATOR_DEBUGGING
; 120  : 		if (this->_Mycont == 0
; 121  : 			|| ((_Myvec *)this->_Mycont)->_Mylast <= _Myptr)
; 122  : 			_DEBUG_ERROR("vector iterator not incrementable");
; 123  :  #endif /* _HAS_ITERATOR_DEBUGGING */
; 124  : 
; 125  : 		++_Myptr;

	add	DWORD PTR [esi+4], 4

; 126  : 		return (*this);

	mov	eax, esi

; 127  : 		}

	ret	0
??E?$_Vector_const_iterator@MV?$allocator@M@std@@@std@@QAEAAV01@XZ ENDP ; std::_Vector_const_iterator<float,std::allocator<float> >::operator++
; Function compile flags: /Ogtpy
_TEXT	ENDS
;	COMDAT ??D?$_Vector_const_iterator@MV?$allocator@M@std@@@std@@QBEABMXZ
_TEXT	SEGMENT
??D?$_Vector_const_iterator@MV?$allocator@M@std@@@std@@QBEABMXZ PROC ; std::_Vector_const_iterator<float,std::allocator<float> >::operator*, COMDAT
; _this$ = esi

; 92   : 
; 93   :  #if _HAS_ITERATOR_DEBUGGING
; 94   : 		if (this->_Mycont == 0
; 95   : 			|| _Myptr < ((_Myvec *)this->_Mycont)->_Myfirst
; 96   : 			|| ((_Myvec *)this->_Mycont)->_Mylast <= _Myptr)
; 97   : 			{
; 98   : 			_DEBUG_ERROR("vector iterator not dereferencable");
; 99   : 			_SCL_SECURE_OUT_OF_RANGE;
; 100  : 			}
; 101  :  #else
; 102  :  		_SCL_SECURE_VALIDATE(this->_Has_container());

	mov	eax, DWORD PTR [esi]
	test	eax, eax
	jne	SHORT $LN13@operator@151
	call	__invalid_parameter_noinfo

; 103  : 		_SCL_SECURE_VALIDATE_RANGE(_Myptr < ((_Myvec *)(this->_Getmycont()))->_Mylast);

	mov	eax, DWORD PTR [esi]
	test	eax, eax
	je	SHORT $LN9@operator@151
$LN13@operator@151:
	mov	eax, DWORD PTR [eax]
	jmp	SHORT $LN10@operator@151
$LN9@operator@151:
	xor	eax, eax
$LN10@operator@151:
	mov	ecx, DWORD PTR [esi+4]
	cmp	ecx, DWORD PTR [eax+16]
	jb	SHORT $LN14@operator@151
	call	__invalid_parameter_noinfo

; 104  :  #endif /* _HAS_ITERATOR_DEBUGGING */
; 105  : 
; 106  : 		return (*_Myptr);

	mov	eax, DWORD PTR [esi+4]

; 107  : 		}

	ret	0
$LN14@operator@151:

; 104  :  #endif /* _HAS_ITERATOR_DEBUGGING */
; 105  : 
; 106  : 		return (*_Myptr);

	mov	eax, ecx

; 107  : 		}

	ret	0
??D?$_Vector_const_iterator@MV?$allocator@M@std@@@std@@QBEABMXZ ENDP ; std::_Vector_const_iterator<float,std::allocator<float> >::operator*
; Function compile flags: /Ogtpy
_TEXT	ENDS
;	COMDAT ?end@?$vector@MV?$allocator@M@std@@@std@@QBE?AV?$_Vector_const_iterator@MV?$allocator@M@std@@@2@XZ
_TEXT	SEGMENT
?end@?$vector@MV?$allocator@M@std@@@std@@QBE?AV?$_Vector_const_iterator@MV?$allocator@M@std@@@2@XZ PROC ; std::vector<float,std::allocator<float> >::end, COMDAT
; _this$ = edi
; ___$ReturnUdt$ = esi

; 655  : 		{	// return iterator for end of nonmutable sequence

	push	ebx

; 656  : 		return (const_iterator(_Mylast, this));

	mov	ebx, DWORD PTR [edi+16]
	mov	DWORD PTR [esi], 0
	cmp	DWORD PTR [edi+12], ebx
	jbe	SHORT $LN4@end@27
	call	__invalid_parameter_noinfo
$LN4@end@27:
	mov	eax, DWORD PTR [edi]
	mov	DWORD PTR [esi], eax
	mov	DWORD PTR [esi+4], ebx
	mov	eax, esi
	pop	ebx

; 657  : 		}

	ret	0
?end@?$vector@MV?$allocator@M@std@@@std@@QBE?AV?$_Vector_const_iterator@MV?$allocator@M@std@@@2@XZ ENDP ; std::vector<float,std::allocator<float> >::end
; Function compile flags: /Ogtpy
_TEXT	ENDS
;	COMDAT ?begin@?$vector@MV?$allocator@M@std@@@std@@QBE?AV?$_Vector_const_iterator@MV?$allocator@M@std@@@2@XZ
_TEXT	SEGMENT
?begin@?$vector@MV?$allocator@M@std@@@std@@QBE?AV?$_Vector_const_iterator@MV?$allocator@M@std@@@2@XZ PROC ; std::vector<float,std::allocator<float> >::begin, COMDAT
; _this$ = edi
; ___$ReturnUdt$ = esi

; 645  : 		{	// return iterator for beginning of nonmutable sequence

	push	ebx

; 646  : 		return (const_iterator(_Myfirst, this));

	mov	ebx, DWORD PTR [edi+12]
	mov	DWORD PTR [esi], 0
	cmp	ebx, DWORD PTR [edi+16]
	jbe	SHORT $LN4@begin@30
	call	__invalid_parameter_noinfo
$LN4@begin@30:
	mov	eax, DWORD PTR [edi]
	mov	DWORD PTR [esi], eax
	mov	DWORD PTR [esi+4], ebx
	mov	eax, esi
	pop	ebx

; 647  : 		}

	ret	0
?begin@?$vector@MV?$allocator@M@std@@@std@@QBE?AV?$_Vector_const_iterator@MV?$allocator@M@std@@@2@XZ ENDP ; std::vector<float,std::allocator<float> >::begin
_TEXT	ENDS
PUBLIC	?soap_default_std__vectorTemplateOffloat@@YAXPAUsoap@@PAV?$vector@MV?$allocator@M@std@@@std@@@Z ; soap_default_std__vectorTemplateOffloat
; Function compile flags: /Ogtpy
; File c:\users\crius\documents\visual studio 2008\projects\dramsimiihg\src\reporting\soapc.cpp
_TEXT	SEGMENT
$T367061 = -8						; size = 4
$T367147 = -8						; size = 8
?soap_default_std__vectorTemplateOffloat@@YAXPAUsoap@@PAV?$vector@MV?$allocator@M@std@@@std@@@Z PROC ; soap_default_std__vectorTemplateOffloat
; _p$ = eax

; 4326 : {

	push	ebp
	mov	ebp, esp
	and	esp, -8					; fffffff8H
	sub	esp, 12					; 0000000cH
	push	ebx
	push	esi
	mov	esi, eax

; 4327 : 	p->clear();

	mov	eax, DWORD PTR [esi+16]
	push	edi
	mov	DWORD PTR $T367061[esp+24], eax
	cmp	DWORD PTR [esi+12], eax
	jbe	SHORT $LN10@soap_defau
	call	__invalid_parameter_noinfo
$LN10@soap_defau:
	mov	edi, DWORD PTR [esi+12]
	mov	ebx, DWORD PTR [esi]
	cmp	edi, DWORD PTR [esi+16]
	jbe	SHORT $LN26@soap_defau
	call	__invalid_parameter_noinfo
$LN26@soap_defau:
	mov	ecx, DWORD PTR $T367061[esp+24]
	mov	eax, DWORD PTR [esi]
	push	ecx
	push	ebx
	push	edi
	push	eax
	lea	edx, DWORD PTR $T367147[esp+40]
	push	edx
	call	?erase@?$vector@MV?$allocator@M@std@@@std@@QAE?AV?$_Vector_iterator@MV?$allocator@M@std@@@2@V?$_Vector_const_iterator@MV?$allocator@M@std@@@2@0@Z ; std::vector<float,std::allocator<float> >::erase

; 4328 : }

	pop	edi
	pop	esi
	pop	ebx
	mov	esp, ebp
	pop	ebp
	ret	0
?soap_default_std__vectorTemplateOffloat@@YAXPAUsoap@@PAV?$vector@MV?$allocator@M@std@@@std@@@Z ENDP ; soap_default_std__vectorTemplateOffloat
_TEXT	ENDS
PUBLIC	?soap_serialize_PointerToSOAP_ENV__Code@@YAXPAUsoap@@PBQAUSOAP_ENV__Code@@@Z ; soap_serialize_PointerToSOAP_ENV__Code
; Function compile flags: /Ogtpy
_TEXT	SEGMENT
?soap_serialize_PointerToSOAP_ENV__Code@@YAXPAUsoap@@PBQAUSOAP_ENV__Code@@@Z PROC ; soap_serialize_PointerToSOAP_ENV__Code
; _soap$ = eax
; _a$ = esi

; 3819 : 	if (!soap_reference(soap, *a, SOAP_TYPE_SOAP_ENV__Code))

	mov	ecx, DWORD PTR [esi]
	push	edi
	mov	edi, eax
	push	edi
	mov	eax, 41					; 00000029H
	call	_soap_reference
	add	esp, 4
	test	eax, eax
	jne	SHORT $LN1@soap_seria@11

; 3820 : 		soap_serialize_SOAP_ENV__Code(soap, *a);

	mov	eax, DWORD PTR [esi]
	call	?soap_serialize_SOAP_ENV__Code@@YAXPAUsoap@@PBUSOAP_ENV__Code@@@Z ; soap_serialize_SOAP_ENV__Code
$LN1@soap_seria@11:
	pop	edi

; 3821 : }

	ret	0
?soap_serialize_PointerToSOAP_ENV__Code@@YAXPAUsoap@@PBQAUSOAP_ENV__Code@@@Z ENDP ; soap_serialize_PointerToSOAP_ENV__Code
_TEXT	ENDS
PUBLIC	?soap_serialize_PointerToSOAP_ENV__Reason@@YAXPAUsoap@@PBQAUSOAP_ENV__Reason@@@Z ; soap_serialize_PointerToSOAP_ENV__Reason
; Function compile flags: /Ogtpy
_TEXT	SEGMENT
?soap_serialize_PointerToSOAP_ENV__Reason@@YAXPAUsoap@@PBQAUSOAP_ENV__Reason@@@Z PROC ; soap_serialize_PointerToSOAP_ENV__Reason
; _soap$ = edi
; _a$ = esi

; 3709 : 	if (!soap_reference(soap, *a, SOAP_TYPE_SOAP_ENV__Reason))

	mov	ecx, DWORD PTR [esi]
	push	edi
	mov	eax, 46					; 0000002eH
	call	_soap_reference
	add	esp, 4
	test	eax, eax
	jne	SHORT $LN6@soap_seria@12

; 3710 : 		soap_serialize_SOAP_ENV__Reason(soap, *a);

	mov	ecx, DWORD PTR [esi]
	mov	ecx, DWORD PTR [ecx]
	push	edi
	mov	eax, 4
	call	_soap_reference
	pop	ecx
$LN6@soap_seria@12:

; 3711 : }

	ret	0
?soap_serialize_PointerToSOAP_ENV__Reason@@YAXPAUsoap@@PBQAUSOAP_ENV__Reason@@@Z ENDP ; soap_serialize_PointerToSOAP_ENV__Reason
_TEXT	ENDS
PUBLIC	?soap_serialize_SOAP_ENV__Detail@@YAXPAUsoap@@PBUSOAP_ENV__Detail@@@Z ; soap_serialize_SOAP_ENV__Detail
; Function compile flags: /Ogtpy
_TEXT	SEGMENT
?soap_serialize_SOAP_ENV__Detail@@YAXPAUsoap@@PBUSOAP_ENV__Detail@@@Z PROC ; soap_serialize_SOAP_ENV__Detail
; _soap$ = eax
; _a$ = ecx

; 3065 : 	(void)soap; (void)a; /* appease -Wall -Werror */
; 3066 : 	soap_markelement(soap, a->fault, a->__type);

	push	eax
	mov	eax, DWORD PTR [ecx]
	mov	ecx, DWORD PTR [ecx+4]
	call	_soap_markelement
	pop	ecx

; 3067 : }

	ret	0
?soap_serialize_SOAP_ENV__Detail@@YAXPAUsoap@@PBUSOAP_ENV__Detail@@@Z ENDP ; soap_serialize_SOAP_ENV__Detail
; Function compile flags: /Ogtpy
_TEXT	ENDS
;	COMDAT ??_Exsd__boolean@@UAEPAXI@Z
_TEXT	SEGMENT
___flags$ = 8						; size = 4
??_Exsd__boolean@@UAEPAXI@Z PROC			; xsd__boolean::`vector deleting destructor', COMDAT
; _this$ = ecx
	push	ebx
	mov	bl, BYTE PTR ___flags$[esp]
	push	esi
	mov	esi, ecx
	test	bl, 2
	je	SHORT $LN3@vector@25
	mov	eax, DWORD PTR [esi-4]
	push	edi
	push	OFFSET ??1xsd__boolean@@UAE@XZ		; xsd__boolean::~xsd__boolean
	lea	edi, DWORD PTR [esi-4]
	push	eax
	push	16					; 00000010H
	push	esi
	call	??_M@YGXPAXIHP6EX0@Z@Z
	test	bl, 1
	je	SHORT $LN2@vector@25
	push	edi
	call	??_V@YAXPAX@Z				; operator delete[]
	add	esp, 4
$LN2@vector@25:
	mov	eax, edi
	pop	edi
	pop	esi
	pop	ebx
	ret	4
$LN3@vector@25:
	mov	DWORD PTR [esi], OFFSET ??_7xsd__anyType@@6B@
	test	bl, 1
	je	SHORT $LN1@vector@25
	push	esi
	call	??3@YAXPAX@Z				; operator delete
	add	esp, 4
$LN1@vector@25:
	mov	eax, esi
	pop	esi
	pop	ebx
	ret	4
??_Exsd__boolean@@UAEPAXI@Z ENDP			; xsd__boolean::`vector deleting destructor'
; Function compile flags: /Ogtpy
_TEXT	ENDS
;	COMDAT ??_Exsd__float@@UAEPAXI@Z
_TEXT	SEGMENT
___flags$ = 8						; size = 4
??_Exsd__float@@UAEPAXI@Z PROC				; xsd__float::`vector deleting destructor', COMDAT
; _this$ = ecx
	push	ebx
	mov	bl, BYTE PTR ___flags$[esp]
	push	esi
	mov	esi, ecx
	test	bl, 2
	je	SHORT $LN3@vector@26
	mov	eax, DWORD PTR [esi-4]
	push	edi
	push	OFFSET ??1xsd__float@@UAE@XZ		; xsd__float::~xsd__float
	lea	edi, DWORD PTR [esi-4]
	push	eax
	push	16					; 00000010H
	push	esi
	call	??_M@YGXPAXIHP6EX0@Z@Z
	test	bl, 1
	je	SHORT $LN2@vector@26
	push	edi
	call	??_V@YAXPAX@Z				; operator delete[]
	add	esp, 4
$LN2@vector@26:
	mov	eax, edi
	pop	edi
	pop	esi
	pop	ebx
	ret	4
$LN3@vector@26:
	mov	DWORD PTR [esi], OFFSET ??_7xsd__anyType@@6B@
	test	bl, 1
	je	SHORT $LN1@vector@26
	push	esi
	call	??3@YAXPAX@Z				; operator delete
	add	esp, 4
$LN1@vector@26:
	mov	eax, esi
	pop	esi
	pop	ebx
	ret	4
??_Exsd__float@@UAEPAXI@Z ENDP				; xsd__float::`vector deleting destructor'
; Function compile flags: /Ogtpy
_TEXT	ENDS
;	COMDAT ??_Exsd__int@@UAEPAXI@Z
_TEXT	SEGMENT
___flags$ = 8						; size = 4
??_Exsd__int@@UAEPAXI@Z PROC				; xsd__int::`vector deleting destructor', COMDAT
; _this$ = ecx
	push	ebx
	mov	bl, BYTE PTR ___flags$[esp]
	push	esi
	mov	esi, ecx
	test	bl, 2
	je	SHORT $LN3@vector@27
	mov	eax, DWORD PTR [esi-4]
	push	edi
	push	OFFSET ??1xsd__int@@UAE@XZ		; xsd__int::~xsd__int
	lea	edi, DWORD PTR [esi-4]
	push	eax
	push	16					; 00000010H
	push	esi
	call	??_M@YGXPAXIHP6EX0@Z@Z
	test	bl, 1
	je	SHORT $LN2@vector@27
	push	edi
	call	??_V@YAXPAX@Z				; operator delete[]
	add	esp, 4
$LN2@vector@27:
	mov	eax, edi
	pop	edi
	pop	esi
	pop	ebx
	ret	4
$LN3@vector@27:
	mov	DWORD PTR [esi], OFFSET ??_7xsd__anyType@@6B@
	test	bl, 1
	je	SHORT $LN1@vector@27
	push	esi
	call	??3@YAXPAX@Z				; operator delete
	add	esp, 4
$LN1@vector@27:
	mov	eax, esi
	pop	esi
	pop	ebx
	ret	4
??_Exsd__int@@UAEPAXI@Z ENDP				; xsd__int::`vector deleting destructor'
; Function compile flags: /Ogtpy
_TEXT	ENDS
;	COMDAT ??_Exsd__long@@UAEPAXI@Z
_TEXT	SEGMENT
___flags$ = 8						; size = 4
??_Exsd__long@@UAEPAXI@Z PROC				; xsd__long::`vector deleting destructor', COMDAT
; _this$ = ecx
	push	ebx
	mov	bl, BYTE PTR ___flags$[esp]
	push	esi
	mov	esi, ecx
	test	bl, 2
	je	SHORT $LN3@vector@28
	mov	eax, DWORD PTR [esi-4]
	push	edi
	push	OFFSET ??1xsd__long@@UAE@XZ		; xsd__long::~xsd__long
	lea	edi, DWORD PTR [esi-4]
	push	eax
	push	24					; 00000018H
	push	esi
	call	??_M@YGXPAXIHP6EX0@Z@Z
	test	bl, 1
	je	SHORT $LN2@vector@28
	push	edi
	call	??_V@YAXPAX@Z				; operator delete[]
	add	esp, 4
$LN2@vector@28:
	mov	eax, edi
	pop	edi
	pop	esi
	pop	ebx
	ret	4
$LN3@vector@28:
	mov	DWORD PTR [esi], OFFSET ??_7xsd__anyType@@6B@
	test	bl, 1
	je	SHORT $LN1@vector@28
	push	esi
	call	??3@YAXPAX@Z				; operator delete
	add	esp, 4
$LN1@vector@28:
	mov	eax, esi
	pop	esi
	pop	ebx
	ret	4
??_Exsd__long@@UAEPAXI@Z ENDP				; xsd__long::`vector deleting destructor'
_TEXT	ENDS
PUBLIC	?soap_default_std__string@@YAXPAUsoap@@PAV?$basic_string@DU?$char_traits@D@std@@V?$allocator@D@2@@std@@@Z ; soap_default_std__string
; Function compile flags: /Ogtpy
_TEXT	SEGMENT
?soap_default_std__string@@YAXPAUsoap@@PAV?$basic_string@DU?$char_traits@D@std@@V?$allocator@D@2@@std@@@Z PROC ; soap_default_std__string
; _p$ = ecx

; 1880 : 	p->erase();

	push	-1
	push	0
	call	?erase@?$basic_string@DU?$char_traits@D@std@@V?$allocator@D@2@@std@@QAEAAV12@II@Z ; std::basic_string<char,std::char_traits<char>,std::allocator<char> >::erase

; 1881 : }

	ret	0
?soap_default_std__string@@YAXPAUsoap@@PAV?$basic_string@DU?$char_traits@D@std@@V?$allocator@D@2@@std@@@Z ENDP ; soap_default_std__string
; Function compile flags: /Ogtpy
_TEXT	ENDS
;	COMDAT ??_E_ns2__submitEpochResultElement@@UAEPAXI@Z
_TEXT	SEGMENT
___flags$ = 8						; size = 4
??_E_ns2__submitEpochResultElement@@UAEPAXI@Z PROC	; _ns2__submitEpochResultElement::`vector deleting destructor', COMDAT
; _this$ = ecx
	push	ebx
	mov	bl, BYTE PTR ___flags$[esp]
	push	esi
	mov	esi, ecx
	test	bl, 2
	je	SHORT $LN3@vector@29
	mov	eax, DWORD PTR [esi-4]
	push	edi
	push	OFFSET ??1_ns2__submitEpochResultElement@@UAE@XZ ; _ns2__submitEpochResultElement::~_ns2__submitEpochResultElement
	lea	edi, DWORD PTR [esi-4]
	push	eax
	push	136					; 00000088H
	push	esi
	call	??_M@YGXPAXIHP6EX0@Z@Z
	test	bl, 1
	je	SHORT $LN2@vector@29
	push	edi
	call	??_V@YAXPAX@Z				; operator delete[]
	add	esp, 4
$LN2@vector@29:
	mov	eax, edi
	pop	edi
	pop	esi
	pop	ebx
	ret	4
$LN3@vector@29:
	call	??1_ns2__submitEpochResultElement@@UAE@XZ ; _ns2__submitEpochResultElement::~_ns2__submitEpochResultElement
	test	bl, 1
	je	SHORT $LN1@vector@29
	push	esi
	call	??3@YAXPAX@Z				; operator delete
	add	esp, 4
$LN1@vector@29:
	mov	eax, esi
	pop	esi
	pop	ebx
	ret	4
??_E_ns2__submitEpochResultElement@@UAEPAXI@Z ENDP	; _ns2__submitEpochResultElement::`vector deleting destructor'
_TEXT	ENDS
PUBLIC	?soap_container_id_forward@@YAPAXPAUsoap@@PBDPAXIHHII@Z ; soap_container_id_forward
; Function compile flags: /Ogtpy
_TEXT	SEGMENT
_soap$ = 8						; size = 4
_href$ = 12						; size = 4
_p$ = 16						; size = 4
_len$ = 20						; size = 4
?soap_container_id_forward@@YAPAXPAUsoap@@PBDPAXIHHII@Z PROC ; soap_container_id_forward
; _st$ = ecx
; _tt$ = eax

; 728  : {	return soap_id_forward(soap, href, p, len, st, tt, n, k, soap_container_insert);

	mov	edx, DWORD PTR _len$[esp-4]
	push	OFFSET ?soap_container_insert@@YAXPAUsoap@@HHPAXIPBXI@Z ; soap_container_insert
	push	4
	push	eax
	mov	eax, DWORD PTR _p$[esp+8]
	push	ecx
	mov	ecx, DWORD PTR _soap$[esp+12]
	push	edx
	push	eax
	mov	eax, DWORD PTR _href$[esp+20]
	push	ecx
	call	_soap_id_forward
	add	esp, 28					; 0000001cH

; 729  : }

	ret	0
?soap_container_id_forward@@YAPAXPAUsoap@@PBDPAXIHHII@Z ENDP ; soap_container_id_forward
_TEXT	ENDS
PUBLIC	??_E?$vector@HV?$allocator@H@std@@@std@@QAEPAXI@Z ; std::vector<int,std::allocator<int> >::`vector deleting destructor'
; Function compile flags: /Ogtpy
;	COMDAT ??_E?$vector@HV?$allocator@H@std@@@std@@QAEPAXI@Z
_TEXT	SEGMENT
??_E?$vector@HV?$allocator@H@std@@@std@@QAEPAXI@Z PROC	; std::vector<int,std::allocator<int> >::`vector deleting destructor', COMDAT
; _this$ = eax
	mov	ecx, DWORD PTR [eax-4]
	push	esi
	lea	esi, DWORD PTR [eax-4]
	push	OFFSET ??1?$vector@HV?$allocator@H@std@@@std@@QAE@XZ ; std::vector<int,std::allocator<int> >::~vector<int,std::allocator<int> >
	push	ecx
	push	24					; 00000018H
	push	eax
	call	??_M@YGXPAXIHP6EX0@Z@Z
	push	esi
	call	??_V@YAXPAX@Z				; operator delete[]
	add	esp, 4
	mov	eax, esi
	pop	esi
	ret	0
??_E?$vector@HV?$allocator@H@std@@@std@@QAEPAXI@Z ENDP	; std::vector<int,std::allocator<int> >::`vector deleting destructor'
; Function compile flags: /Ogtpy
_TEXT	ENDS
;	COMDAT ??_G?$vector@HV?$allocator@H@std@@@std@@QAEPAXI@Z
_TEXT	SEGMENT
??_G?$vector@HV?$allocator@H@std@@@std@@QAEPAXI@Z PROC	; std::vector<int,std::allocator<int> >::`scalar deleting destructor', COMDAT
; _this$ = esi
	mov	eax, DWORD PTR [esi+12]
	test	eax, eax
	je	SHORT $LN9@scalar@25
	push	eax
	call	??3@YAXPAX@Z				; operator delete
	add	esp, 4
$LN9@scalar@25:
	mov	eax, DWORD PTR [esi]
	push	eax
	mov	DWORD PTR [esi+12], 0
	mov	DWORD PTR [esi+16], 0
	mov	DWORD PTR [esi+20], 0
	call	??3@YAXPAX@Z				; operator delete
	push	esi
	call	??3@YAXPAX@Z				; operator delete
	add	esp, 8
	mov	eax, esi
	ret	0
??_G?$vector@HV?$allocator@H@std@@@std@@QAEPAXI@Z ENDP	; std::vector<int,std::allocator<int> >::`scalar deleting destructor'
_TEXT	ENDS
PUBLIC	??_E?$vector@MV?$allocator@M@std@@@std@@QAEPAXI@Z ; std::vector<float,std::allocator<float> >::`vector deleting destructor'
; Function compile flags: /Ogtpy
;	COMDAT ??_E?$vector@MV?$allocator@M@std@@@std@@QAEPAXI@Z
_TEXT	SEGMENT
??_E?$vector@MV?$allocator@M@std@@@std@@QAEPAXI@Z PROC	; std::vector<float,std::allocator<float> >::`vector deleting destructor', COMDAT
; _this$ = eax
	mov	ecx, DWORD PTR [eax-4]
	push	esi
	lea	esi, DWORD PTR [eax-4]
	push	OFFSET ??1?$vector@MV?$allocator@M@std@@@std@@QAE@XZ ; std::vector<float,std::allocator<float> >::~vector<float,std::allocator<float> >
	push	ecx
	push	24					; 00000018H
	push	eax
	call	??_M@YGXPAXIHP6EX0@Z@Z
	push	esi
	call	??_V@YAXPAX@Z				; operator delete[]
	add	esp, 4
	mov	eax, esi
	pop	esi
	ret	0
??_E?$vector@MV?$allocator@M@std@@@std@@QAEPAXI@Z ENDP	; std::vector<float,std::allocator<float> >::`vector deleting destructor'
; Function compile flags: /Ogtpy
_TEXT	ENDS
;	COMDAT ??_G?$vector@MV?$allocator@M@std@@@std@@QAEPAXI@Z
_TEXT	SEGMENT
??_G?$vector@MV?$allocator@M@std@@@std@@QAEPAXI@Z PROC	; std::vector<float,std::allocator<float> >::`scalar deleting destructor', COMDAT
; _this$ = esi
	mov	eax, DWORD PTR [esi+12]
	test	eax, eax
	je	SHORT $LN9@scalar@26
	push	eax
	call	??3@YAXPAX@Z				; operator delete
	add	esp, 4
$LN9@scalar@26:
	mov	eax, DWORD PTR [esi]
	push	eax
	mov	DWORD PTR [esi+12], 0
	mov	DWORD PTR [esi+16], 0
	mov	DWORD PTR [esi+20], 0
	call	??3@YAXPAX@Z				; operator delete
	push	esi
	call	??3@YAXPAX@Z				; operator delete
	add	esp, 8
	mov	eax, esi
	ret	0
??_G?$vector@MV?$allocator@M@std@@@std@@QAEPAXI@Z ENDP	; std::vector<float,std::allocator<float> >::`scalar deleting destructor'
_TEXT	ENDS
PUBLIC	??_E?$basic_string@DU?$char_traits@D@std@@V?$allocator@D@2@@std@@QAEPAXI@Z ; std::basic_string<char,std::char_traits<char>,std::allocator<char> >::`vector deleting destructor'
; Function compile flags: /Ogtpy
;	COMDAT ??_E?$basic_string@DU?$char_traits@D@std@@V?$allocator@D@2@@std@@QAEPAXI@Z
_TEXT	SEGMENT
??_E?$basic_string@DU?$char_traits@D@std@@V?$allocator@D@2@@std@@QAEPAXI@Z PROC ; std::basic_string<char,std::char_traits<char>,std::allocator<char> >::`vector deleting destructor', COMDAT
; _this$ = eax
	mov	ecx, DWORD PTR [eax-4]
	push	esi
	lea	esi, DWORD PTR [eax-4]
	push	OFFSET ??1?$basic_string@DU?$char_traits@D@std@@V?$allocator@D@2@@std@@QAE@XZ ; std::basic_string<char,std::char_traits<char>,std::allocator<char> >::~basic_string<char,std::char_traits<char>,std::allocator<char> >
	push	ecx
	push	28					; 0000001cH
	push	eax
	call	??_M@YGXPAXIHP6EX0@Z@Z
	push	esi
	call	??_V@YAXPAX@Z				; operator delete[]
	add	esp, 4
	mov	eax, esi
	pop	esi
	ret	0
??_E?$basic_string@DU?$char_traits@D@std@@V?$allocator@D@2@@std@@QAEPAXI@Z ENDP ; std::basic_string<char,std::char_traits<char>,std::allocator<char> >::`vector deleting destructor'
; Function compile flags: /Ogtpy
; File c:\users\crius\documents\visual studio 2008\projects\dramsimiihg\src\reporting\soapstub.h
_TEXT	ENDS
;	COMDAT ??1xsd__string@@UAE@XZ
_TEXT	SEGMENT
??1xsd__string@@UAE@XZ PROC				; xsd__string::~xsd__string, COMDAT
; _this$ = ecx

; 152  : 	virtual ~xsd__string() { }

	push	esi
	mov	esi, ecx
	mov	DWORD PTR [esi], OFFSET ??_7xsd__string@@6B@
	cmp	DWORD PTR [esi+36], 16			; 00000010H
	jb	SHORT $LN19@xsd__strin
	mov	eax, DWORD PTR [esi+16]
	push	eax
	call	??3@YAXPAX@Z				; operator delete
	add	esp, 4
$LN19@xsd__strin:
	xor	eax, eax
	mov	DWORD PTR [esi+36], 15			; 0000000fH
	mov	DWORD PTR [esi+32], eax
	mov	BYTE PTR [esi+16], al
	mov	DWORD PTR [esi], OFFSET ??_7xsd__anyType@@6B@
	pop	esi
	ret	0
??1xsd__string@@UAE@XZ ENDP				; xsd__string::~xsd__string
; Function compile flags: /Ogtpy
_TEXT	ENDS
;	COMDAT ??0xsd__string@@QAE@XZ
_TEXT	SEGMENT
??0xsd__string@@QAE@XZ PROC				; xsd__string::xsd__string, COMDAT
; _this$ = ecx

; 151  : 	xsd__string()  { }

	mov	eax, ecx
	xor	ecx, ecx
	mov	DWORD PTR [eax+4], ecx
	mov	DWORD PTR [eax+8], ecx
	mov	DWORD PTR [eax], OFFSET ??_7xsd__string@@6B@
	mov	DWORD PTR [eax+36], 15			; 0000000fH
	mov	DWORD PTR [eax+32], ecx
	mov	BYTE PTR [eax+16], cl
	ret	0
??0xsd__string@@QAE@XZ ENDP				; xsd__string::xsd__string
PUBLIC	?soap_serialize_PointerToSOAP_ENV__Detail@@YAXPAUsoap@@PBQAUSOAP_ENV__Detail@@@Z ; soap_serialize_PointerToSOAP_ENV__Detail
; Function compile flags: /Ogtpy
; File c:\users\crius\documents\visual studio 2008\projects\dramsimiihg\src\reporting\soapc.cpp
_TEXT	SEGMENT
?soap_serialize_PointerToSOAP_ENV__Detail@@YAXPAUsoap@@PBQAUSOAP_ENV__Detail@@@Z PROC ; soap_serialize_PointerToSOAP_ENV__Detail
; _soap$ = edi
; _a$ = esi

; 3764 : 	if (!soap_reference(soap, *a, SOAP_TYPE_SOAP_ENV__Detail))

	mov	ecx, DWORD PTR [esi]
	push	edi
	mov	eax, 43					; 0000002bH
	call	_soap_reference
	add	esp, 4
	test	eax, eax
	jne	SHORT $LN4@soap_seria@13

; 3765 : 		soap_serialize_SOAP_ENV__Detail(soap, *a);

	mov	ecx, DWORD PTR [esi]
	mov	eax, DWORD PTR [ecx]
	mov	ecx, DWORD PTR [ecx+4]
	push	edi
	call	_soap_markelement
	pop	ecx
$LN4@soap_seria@13:

; 3766 : }

	ret	0
?soap_serialize_PointerToSOAP_ENV__Detail@@YAXPAUsoap@@PBQAUSOAP_ENV__Detail@@@Z ENDP ; soap_serialize_PointerToSOAP_ENV__Detail
_TEXT	ENDS
PUBLIC	?soap_serialize_SOAP_ENV__Fault@@YAXPAUsoap@@PBUSOAP_ENV__Fault@@@Z ; soap_serialize_SOAP_ENV__Fault
; Function compile flags: /Ogtpy
_TEXT	SEGMENT
?soap_serialize_SOAP_ENV__Fault@@YAXPAUsoap@@PBUSOAP_ENV__Fault@@@Z PROC ; soap_serialize_SOAP_ENV__Fault
; _soap$ = ecx
; _a$ = eax

; 2758 : {

	push	esi
	push	edi
	mov	esi, eax
	mov	edi, ecx

; 2759 : 	(void)soap; (void)a; /* appease -Wall -Werror */
; 2760 : 	soap_serialize__QName(soap, &a->faultcode);

	mov	ecx, DWORD PTR [esi]
	push	edi
	mov	eax, 4
	call	_soap_reference

; 2761 : 	soap_serialize_string(soap, &a->faultstring);

	mov	ecx, DWORD PTR [esi+4]
	push	edi
	mov	eax, 4
	call	_soap_reference

; 2762 : 	soap_serialize_string(soap, &a->faultactor);

	mov	ecx, DWORD PTR [esi+8]
	push	edi
	mov	eax, 4
	call	_soap_reference

; 2763 : 	soap_serialize_PointerToSOAP_ENV__Detail(soap, &a->detail);

	mov	ecx, DWORD PTR [esi+12]
	push	edi
	mov	eax, 43					; 0000002bH
	call	_soap_reference
	add	esp, 16					; 00000010H
	test	eax, eax
	jne	SHORT $LN14@soap_seria@14
	mov	ecx, DWORD PTR [esi+12]
	mov	eax, DWORD PTR [ecx]
	mov	ecx, DWORD PTR [ecx+4]
	push	edi
	call	_soap_markelement
	add	esp, 4
$LN14@soap_seria@14:

; 2764 : 	soap_serialize_PointerToSOAP_ENV__Code(soap, &a->SOAP_ENV__Code);

	mov	ecx, DWORD PTR [esi+16]
	push	edi
	mov	eax, 41					; 00000029H
	call	_soap_reference
	add	esp, 4
	test	eax, eax
	jne	SHORT $LN16@soap_seria@14
	mov	eax, DWORD PTR [esi+16]
	call	?soap_serialize_SOAP_ENV__Code@@YAXPAUsoap@@PBUSOAP_ENV__Code@@@Z ; soap_serialize_SOAP_ENV__Code
$LN16@soap_seria@14:

; 2765 : 	soap_serialize_PointerToSOAP_ENV__Reason(soap, &a->SOAP_ENV__Reason);

	mov	ecx, DWORD PTR [esi+20]
	push	edi
	mov	eax, 46					; 0000002eH
	call	_soap_reference
	add	esp, 4
	test	eax, eax
	jne	SHORT $LN24@soap_seria@14
	mov	ecx, DWORD PTR [esi+20]
	mov	ecx, DWORD PTR [ecx]
	push	edi
	mov	eax, 4
	call	_soap_reference
	add	esp, 4
$LN24@soap_seria@14:

; 2766 : 	soap_serialize_string(soap, &a->SOAP_ENV__Node);

	mov	ecx, DWORD PTR [esi+24]
	push	edi
	mov	eax, 4
	call	_soap_reference

; 2767 : 	soap_serialize_string(soap, &a->SOAP_ENV__Role);

	mov	ecx, DWORD PTR [esi+28]
	push	edi
	mov	eax, 4
	call	_soap_reference

; 2768 : 	soap_serialize_PointerToSOAP_ENV__Detail(soap, &a->SOAP_ENV__Detail);

	mov	ecx, DWORD PTR [esi+32]
	push	edi
	mov	eax, 43					; 0000002bH
	call	_soap_reference
	add	esp, 12					; 0000000cH
	test	eax, eax
	jne	SHORT $LN33@soap_seria@14
	mov	esi, DWORD PTR [esi+32]
	mov	eax, DWORD PTR [esi]
	mov	ecx, DWORD PTR [esi+4]
	push	edi
	call	_soap_markelement
	add	esp, 4
$LN33@soap_seria@14:
	pop	edi
	pop	esi

; 2769 : }

	ret	0
?soap_serialize_SOAP_ENV__Fault@@YAXPAUsoap@@PBUSOAP_ENV__Fault@@@Z ENDP ; soap_serialize_SOAP_ENV__Fault
; Function compile flags: /Ogtpy
_TEXT	ENDS
;	COMDAT ??_Exsd__string@@UAEPAXI@Z
_TEXT	SEGMENT
___flags$ = 8						; size = 4
??_Exsd__string@@UAEPAXI@Z PROC				; xsd__string::`vector deleting destructor', COMDAT
; _this$ = ecx
	push	ebx
	mov	bl, BYTE PTR ___flags$[esp]
	push	esi
	mov	esi, ecx
	test	bl, 2
	je	SHORT $LN3@vector@35
	mov	eax, DWORD PTR [esi-4]
	push	edi
	push	OFFSET ??1xsd__string@@UAE@XZ		; xsd__string::~xsd__string
	lea	edi, DWORD PTR [esi-4]
	push	eax
	push	40					; 00000028H
	push	esi
	call	??_M@YGXPAXIHP6EX0@Z@Z
	test	bl, 1
	je	SHORT $LN2@vector@35
	push	edi
	call	??_V@YAXPAX@Z				; operator delete[]
	add	esp, 4
$LN2@vector@35:
	mov	eax, edi
	pop	edi
	pop	esi
	pop	ebx
	ret	4
$LN3@vector@35:
	mov	DWORD PTR [esi], OFFSET ??_7xsd__string@@6B@
	cmp	DWORD PTR [esi+36], 16			; 00000010H
	jb	SHORT $LN24@vector@35
	mov	ecx, DWORD PTR [esi+16]
	push	ecx
	call	??3@YAXPAX@Z				; operator delete
	add	esp, 4
$LN24@vector@35:
	xor	eax, eax
	mov	DWORD PTR [esi+36], 15			; 0000000fH
	mov	DWORD PTR [esi+32], eax
	mov	BYTE PTR [esi+16], al
	mov	DWORD PTR [esi], OFFSET ??_7xsd__anyType@@6B@
	test	bl, 1
	je	SHORT $LN1@vector@35
	push	esi
	call	??3@YAXPAX@Z				; operator delete
	add	esp, 4
$LN1@vector@35:
	mov	eax, esi
	pop	esi
	pop	ebx
	ret	4
??_Exsd__string@@UAEPAXI@Z ENDP				; xsd__string::`vector deleting destructor'
; Function compile flags: /Ogtpy
_TEXT	ENDS
_TEXT	SEGMENT
_soap$ = 8						; size = 4
?soap_default@xsd__string@@UAEXPAUsoap@@@Z PROC		; xsd__string::soap_default
; _this$ = ecx

; 1978 : 	this->soap = soap;

	mov	eax, DWORD PTR _soap$[esp-4]
	push	esi
	mov	esi, ecx

; 1979 : 	soap_default_std__string(soap, &this->xsd__string::__item);

	push	-1
	push	0
	lea	ecx, DWORD PTR [esi+12]
	mov	DWORD PTR [esi+8], eax
	call	?erase@?$basic_string@DU?$char_traits@D@std@@V?$allocator@D@2@@std@@QAEAAV12@II@Z ; std::basic_string<char,std::char_traits<char>,std::allocator<char> >::erase

; 1980 : 	this->xsd__anyType::__item = NULL;

	mov	DWORD PTR [esi+4], 0
	pop	esi

; 1981 : 	/* transient soap skipped */
; 1982 : }

	ret	4
?soap_default@xsd__string@@UAEXPAUsoap@@@Z ENDP		; xsd__string::soap_default
; Function compile flags: /Ogtpy
_p$ = 8						; size = 4
?soap_fdelete@@YAHPAUsoap_clist@@@Z PROC		; soap_fdelete

; 578  : {	switch (p->type)

	mov	eax, DWORD PTR _p$[esp-4]
	mov	ecx, DWORD PTR [eax+8]
	add	ecx, -8					; fffffff8H
	push	esi
	cmp	ecx, 39					; 00000027H
	ja	$LN1@soap_fdele
	movzx	ecx, BYTE PTR $LN159@soap_fdele[ecx]
	jmp	DWORD PTR $LN160@soap_fdele[ecx*4]
$LN70@soap_fdele:

; 579  : 	{
; 580  : 	case SOAP_TYPE_xsd__anyType:
; 581  : 		if (p->size < 0)

	cmp	DWORD PTR [eax+12], 0

; 582  : 			delete (xsd__anyType*)p->ptr;

	mov	eax, DWORD PTR [eax+4]
	jge	SHORT $LN69@soap_fdele
	test	eax, eax
	je	$LN157@soap_fdele
	mov	edx, DWORD PTR [eax]
	mov	ecx, eax
	mov	eax, DWORD PTR [edx+28]
	push	1
	call	eax

; 719  : 	}
; 720  : 	return SOAP_OK;

	xor	eax, eax
	pop	esi

; 721  : }

	ret	0
$LN69@soap_fdele:

; 583  : 		else
; 584  : 			delete[] (xsd__anyType*)p->ptr;

	test	eax, eax
	je	$LN157@soap_fdele
	cmp	DWORD PTR [eax-4], 0
	lea	ecx, DWORD PTR [eax-4]
	je	SHORT $LN77@soap_fdele
	mov	edx, DWORD PTR [eax]
	mov	ecx, eax
	mov	eax, DWORD PTR [edx+28]
	push	3
	call	eax

; 719  : 	}
; 720  : 	return SOAP_OK;

	xor	eax, eax
	pop	esi

; 721  : }

	ret	0
$LN55@soap_fdele:

; 585  : 		break;
; 586  : 	case SOAP_TYPE_xsd__boolean:
; 587  : 		if (p->size < 0)
; 588  : 			delete (xsd__boolean*)p->ptr;
; 589  : 		else
; 590  : 			delete[] (xsd__boolean*)p->ptr;
; 591  : 		break;
; 592  : 	case SOAP_TYPE_xsd__float:
; 593  : 		if (p->size < 0)
; 594  : 			delete (xsd__float*)p->ptr;
; 595  : 		else
; 596  : 			delete[] (xsd__float*)p->ptr;
; 597  : 		break;
; 598  : 	case SOAP_TYPE_xsd__int:
; 599  : 		if (p->size < 0)
; 600  : 			delete (xsd__int*)p->ptr;
; 601  : 		else
; 602  : 			delete[] (xsd__int*)p->ptr;
; 603  : 		break;
; 604  : 	case SOAP_TYPE_xsd__long:
; 605  : 		if (p->size < 0)
; 606  : 			delete (xsd__long*)p->ptr;
; 607  : 		else
; 608  : 			delete[] (xsd__long*)p->ptr;
; 609  : 		break;
; 610  : 	case SOAP_TYPE_std__string:
; 611  : 		if (p->size < 0)

	cmp	DWORD PTR [eax+12], 0

; 612  : 			delete (std::string*)p->ptr;

	mov	eax, DWORD PTR [eax+4]
	jge	SHORT $LN54@soap_fdele
	test	eax, eax
	je	$LN157@soap_fdele
	push	1
	mov	ecx, eax
	call	??_G?$basic_string@DU?$char_traits@D@std@@V?$allocator@D@2@@std@@QAEPAXI@Z

; 719  : 	}
; 720  : 	return SOAP_OK;

	xor	eax, eax
	pop	esi

; 721  : }

	ret	0
$LN54@soap_fdele:

; 613  : 		else
; 614  : 			delete[] (std::string*)p->ptr;

	test	eax, eax
	je	$LN157@soap_fdele
	call	??_E?$basic_string@DU?$char_traits@D@std@@V?$allocator@D@2@@std@@QAEPAXI@Z

; 719  : 	}
; 720  : 	return SOAP_OK;

	xor	eax, eax
	pop	esi

; 721  : }

	ret	0
$LN31@soap_fdele:

; 615  : 		break;
; 616  : 	case SOAP_TYPE_xsd__string:
; 617  : 		if (p->size < 0)
; 618  : 			delete (xsd__string*)p->ptr;
; 619  : 		else
; 620  : 			delete[] (xsd__string*)p->ptr;
; 621  : 		break;
; 622  : 	case SOAP_TYPE__ns2__getSessionIDElement:
; 623  : 		if (p->size < 0)
; 624  : 			delete (_ns2__getSessionIDElement*)p->ptr;
; 625  : 		else
; 626  : 			delete[] (_ns2__getSessionIDElement*)p->ptr;
; 627  : 		break;
; 628  : 	case SOAP_TYPE__ns2__getSessionIDResponseElement:
; 629  : 		if (p->size < 0)
; 630  : 			delete (_ns2__getSessionIDResponseElement*)p->ptr;
; 631  : 		else
; 632  : 			delete[] (_ns2__getSessionIDResponseElement*)p->ptr;
; 633  : 		break;
; 634  : 	case SOAP_TYPE__ns2__getSettingsFileElement:
; 635  : 		if (p->size < 0)
; 636  : 			delete (_ns2__getSettingsFileElement*)p->ptr;
; 637  : 		else
; 638  : 			delete[] (_ns2__getSettingsFileElement*)p->ptr;
; 639  : 		break;
; 640  : 	case SOAP_TYPE__ns2__getSettingsFileResponseElement:
; 641  : 		if (p->size < 0)
; 642  : 			delete (_ns2__getSettingsFileResponseElement*)p->ptr;
; 643  : 		else
; 644  : 			delete[] (_ns2__getSettingsFileResponseElement*)p->ptr;
; 645  : 		break;
; 646  : 	case SOAP_TYPE__ns2__submitEpochResultElement:
; 647  : 		if (p->size < 0)
; 648  : 			delete (_ns2__submitEpochResultElement*)p->ptr;
; 649  : 		else
; 650  : 			delete[] (_ns2__submitEpochResultElement*)p->ptr;
; 651  : 		break;
; 652  : 	case SOAP_TYPE__ns2__submitEpochResultResponseElement:
; 653  : 		if (p->size < 0)
; 654  : 			delete (_ns2__submitEpochResultResponseElement*)p->ptr;
; 655  : 		else
; 656  : 			delete[] (_ns2__submitEpochResultResponseElement*)p->ptr;
; 657  : 		break;
; 658  : 	case SOAP_TYPE___ns1__getSessionID:
; 659  : 		if (p->size < 0)

	cmp	DWORD PTR [eax+12], 0
	jge	SHORT $LN30@soap_fdele

; 660  : 			delete (struct __ns1__getSessionID*)p->ptr;

	mov	ecx, DWORD PTR [eax+4]
	push	ecx
	call	??3@YAXPAX@Z				; operator delete
	add	esp, 4

; 719  : 	}
; 720  : 	return SOAP_OK;

	xor	eax, eax
	pop	esi

; 721  : }

	ret	0
$LN30@soap_fdele:

; 661  : 		else
; 662  : 			delete[] (struct __ns1__getSessionID*)p->ptr;

	mov	edx, DWORD PTR [eax+4]
	push	edx
	call	??_V@YAXPAX@Z				; operator delete[]
	add	esp, 4

; 719  : 	}
; 720  : 	return SOAP_OK;

	xor	eax, eax
	pop	esi

; 721  : }

	ret	0
$LN28@soap_fdele:

; 663  : 		break;
; 664  : 	case SOAP_TYPE___ns1__getSettingsFile:
; 665  : 		if (p->size < 0)

	cmp	DWORD PTR [eax+12], 0
	jge	SHORT $LN27@soap_fdele

; 666  : 			delete (struct __ns1__getSettingsFile*)p->ptr;

	mov	eax, DWORD PTR [eax+4]
	push	eax
	call	??3@YAXPAX@Z				; operator delete
	add	esp, 4

; 719  : 	}
; 720  : 	return SOAP_OK;

	xor	eax, eax
	pop	esi

; 721  : }

	ret	0
$LN27@soap_fdele:

; 667  : 		else
; 668  : 			delete[] (struct __ns1__getSettingsFile*)p->ptr;

	mov	ecx, DWORD PTR [eax+4]
$LN77@soap_fdele:
	push	ecx
	call	??_V@YAXPAX@Z				; operator delete[]
	add	esp, 4

; 719  : 	}
; 720  : 	return SOAP_OK;

	xor	eax, eax
	pop	esi

; 721  : }

	ret	0
$LN25@soap_fdele:

; 669  : 		break;
; 670  : 	case SOAP_TYPE___ns1__submitEpochResult:
; 671  : 		if (p->size < 0)

	cmp	DWORD PTR [eax+12], 0
	jge	SHORT $LN24@soap_fdele

; 672  : 			delete (struct __ns1__submitEpochResult*)p->ptr;

	mov	edx, DWORD PTR [eax+4]
	push	edx
	call	??3@YAXPAX@Z				; operator delete
	add	esp, 4

; 719  : 	}
; 720  : 	return SOAP_OK;

	xor	eax, eax
	pop	esi

; 721  : }

	ret	0
$LN24@soap_fdele:

; 673  : 		else
; 674  : 			delete[] (struct __ns1__submitEpochResult*)p->ptr;

	mov	eax, DWORD PTR [eax+4]
	push	eax
	call	??_V@YAXPAX@Z				; operator delete[]
	add	esp, 4

; 719  : 	}
; 720  : 	return SOAP_OK;

	xor	eax, eax
	pop	esi

; 721  : }

	ret	0
$LN7@soap_fdele:

; 675  : 		break;
; 676  : 	case SOAP_TYPE_SOAP_ENV__Header:
; 677  : 		if (p->size < 0)
; 678  : 			delete (struct SOAP_ENV__Header*)p->ptr;
; 679  : 		else
; 680  : 			delete[] (struct SOAP_ENV__Header*)p->ptr;
; 681  : 		break;
; 682  : 	case SOAP_TYPE_SOAP_ENV__Code:
; 683  : 		if (p->size < 0)
; 684  : 			delete (struct SOAP_ENV__Code*)p->ptr;
; 685  : 		else
; 686  : 			delete[] (struct SOAP_ENV__Code*)p->ptr;
; 687  : 		break;
; 688  : 	case SOAP_TYPE_SOAP_ENV__Detail:
; 689  : 		if (p->size < 0)
; 690  : 			delete (struct SOAP_ENV__Detail*)p->ptr;
; 691  : 		else
; 692  : 			delete[] (struct SOAP_ENV__Detail*)p->ptr;
; 693  : 		break;
; 694  : 	case SOAP_TYPE_SOAP_ENV__Reason:
; 695  : 		if (p->size < 0)
; 696  : 			delete (struct SOAP_ENV__Reason*)p->ptr;
; 697  : 		else
; 698  : 			delete[] (struct SOAP_ENV__Reason*)p->ptr;
; 699  : 		break;
; 700  : 	case SOAP_TYPE_SOAP_ENV__Fault:
; 701  : 		if (p->size < 0)
; 702  : 			delete (struct SOAP_ENV__Fault*)p->ptr;
; 703  : 		else
; 704  : 			delete[] (struct SOAP_ENV__Fault*)p->ptr;
; 705  : 		break;
; 706  : 	case SOAP_TYPE_std__vectorTemplateOffloat:
; 707  : 		if (p->size < 0)

	cmp	DWORD PTR [eax+12], 0

; 708  : 			delete (std::vector<float >*)p->ptr;

	mov	eax, DWORD PTR [eax+4]
	jge	SHORT $LN6@soap_fdele
	test	eax, eax
	je	SHORT $LN157@soap_fdele
	mov	esi, eax
	call	??_G?$vector@MV?$allocator@M@std@@@std@@QAEPAXI@Z

; 719  : 	}
; 720  : 	return SOAP_OK;

	xor	eax, eax
	pop	esi

; 721  : }

	ret	0
$LN6@soap_fdele:

; 709  : 		else
; 710  : 			delete[] (std::vector<float >*)p->ptr;

	test	eax, eax
	je	SHORT $LN157@soap_fdele
	call	??_E?$vector@MV?$allocator@M@std@@@std@@QAEPAXI@Z

; 719  : 	}
; 720  : 	return SOAP_OK;

	xor	eax, eax
	pop	esi

; 721  : }

	ret	0
$LN4@soap_fdele:

; 711  : 		break;
; 712  : 	case SOAP_TYPE_std__vectorTemplateOfint:
; 713  : 		if (p->size < 0)

	cmp	DWORD PTR [eax+12], 0

; 714  : 			delete (std::vector<int >*)p->ptr;

	mov	eax, DWORD PTR [eax+4]
	jge	SHORT $LN3@soap_fdele
	test	eax, eax
	je	SHORT $LN157@soap_fdele
	mov	esi, eax
	call	??_G?$vector@HV?$allocator@H@std@@@std@@QAEPAXI@Z

; 719  : 	}
; 720  : 	return SOAP_OK;

	xor	eax, eax
	pop	esi

; 721  : }

	ret	0
$LN3@soap_fdele:

; 715  : 		else
; 716  : 			delete[] (std::vector<int >*)p->ptr;

	test	eax, eax
	je	SHORT $LN157@soap_fdele
	call	??_E?$vector@HV?$allocator@H@std@@@std@@QAEPAXI@Z
$LN157@soap_fdele:

; 719  : 	}
; 720  : 	return SOAP_OK;

	xor	eax, eax
	pop	esi

; 721  : }

	ret	0
$LN1@soap_fdele:

; 717  : 		break;
; 718  : 	default:	return SOAP_ERR;

	or	eax, -1
	pop	esi

; 721  : }

	ret	0
	npad	2
$LN160@soap_fdele:
	DD	$LN70@soap_fdele
	DD	$LN55@soap_fdele
	DD	$LN4@soap_fdele
	DD	$LN7@soap_fdele
	DD	$LN31@soap_fdele
	DD	$LN28@soap_fdele
	DD	$LN25@soap_fdele
	DD	$LN1@soap_fdele
$LN159@soap_fdele:
	DB	0
	DB	7
	DB	0
	DB	7
	DB	0
	DB	7
	DB	0
	DB	0
	DB	7
	DB	0
	DB	1
	DB	0
	DB	0
	DB	0
	DB	0
	DB	0
	DB	0
	DB	7
	DB	2
	DB	3
	DB	7
	DB	7
	DB	7
	DB	4
	DB	7
	DB	7
	DB	7
	DB	5
	DB	7
	DB	7
	DB	7
	DB	6
	DB	4
	DB	5
	DB	7
	DB	6
	DB	7
	DB	7
	DB	4
	DB	5
?soap_fdelete@@YAHPAUsoap_clist@@@Z ENDP		; soap_fdelete
PUBLIC	?soap_default_std__vectorTemplateOfint@@YAXPAUsoap@@PAV?$vector@HV?$allocator@H@std@@@std@@@Z ; soap_default_std__vectorTemplateOfint
; Function compile flags: /Ogtpy
_TEXT	SEGMENT
$T457505 = -8						; size = 4
$T457591 = -8						; size = 8
?soap_default_std__vectorTemplateOfint@@YAXPAUsoap@@PAV?$vector@HV?$allocator@H@std@@@std@@@Z PROC ; soap_default_std__vectorTemplateOfint
; _p$ = eax

; 4415 : {

	push	ebp
	mov	ebp, esp
	and	esp, -8					; fffffff8H
	sub	esp, 12					; 0000000cH
	push	ebx
	push	esi
	mov	esi, eax

; 4416 : 	p->clear();

	mov	eax, DWORD PTR [esi+16]
	push	edi
	mov	DWORD PTR $T457505[esp+24], eax
	cmp	DWORD PTR [esi+12], eax
	jbe	SHORT $LN10@soap_defau@2
	call	__invalid_parameter_noinfo
$LN10@soap_defau@2:
	mov	edi, DWORD PTR [esi+12]
	mov	ebx, DWORD PTR [esi]
	cmp	edi, DWORD PTR [esi+16]
	jbe	SHORT $LN26@soap_defau@2
	call	__invalid_parameter_noinfo
$LN26@soap_defau@2:
	mov	ecx, DWORD PTR $T457505[esp+24]
	mov	eax, DWORD PTR [esi]
	push	ecx
	push	ebx
	push	edi
	push	eax
	lea	edx, DWORD PTR $T457591[esp+40]
	push	edx
	call	?erase@?$vector@HV?$allocator@H@std@@@std@@QAE?AV?$_Vector_iterator@HV?$allocator@H@std@@@2@V?$_Vector_const_iterator@HV?$allocator@H@std@@@2@0@Z ; std::vector<int,std::allocator<int> >::erase

; 4417 : }

	pop	edi
	pop	esi
	pop	ebx
	mov	esp, ebp
	pop	ebp
	ret	0
?soap_default_std__vectorTemplateOfint@@YAXPAUsoap@@PAV?$vector@HV?$allocator@H@std@@@std@@@Z ENDP ; soap_default_std__vectorTemplateOfint
_TEXT	ENDS
PUBLIC	?soap_instantiate___ns1__getSessionID@@YAPAU__ns1__getSessionID@@PAUsoap@@HPBD1PAI@Z ; soap_instantiate___ns1__getSessionID
; Function compile flags: /Ogtpy
_TEXT	SEGMENT
_soap$ = 8						; size = 4
_size$ = 12						; size = 4
?soap_instantiate___ns1__getSessionID@@YAPAU__ns1__getSessionID@@PAUsoap@@HPBD1PAI@Z PROC ; soap_instantiate___ns1__getSessionID
; _n$ = edi

; 3677 : {

	push	ebx
	mov	ebx, DWORD PTR _size$[esp]
	push	ebp
	mov	ebp, DWORD PTR _soap$[esp+4]
	push	esi

; 3678 : 	DBGLOG(TEST, SOAP_MESSAGE(fdebug, "soap_instantiate___ns1__getSessionID(%d, %s, %s)\n", n, type?type:"", arrayType?arrayType:""));
; 3679 : 	struct soap_clist *cp = soap_link(soap, NULL, SOAP_TYPE___ns1__getSessionID, n, soap_fdelete);

	push	20					; 00000014H
	call	_malloc
	mov	esi, eax
	add	esp, 4
	test	esi, esi
	je	SHORT $LN12@soap_insta
	mov	eax, DWORD PTR [ebp+96]
	mov	DWORD PTR [esi], eax
	mov	DWORD PTR [esi+8], 31			; 0000001fH
	mov	DWORD PTR [esi+12], edi
	mov	DWORD PTR [esi+4], 0
	mov	DWORD PTR [esi+16], OFFSET ?soap_fdelete@@YAHPAUsoap_clist@@@Z ; soap_fdelete
	mov	DWORD PTR [ebp+96], esi

; 3680 : 	if (!cp)
; 3681 : 		return NULL;
; 3682 : 	if (n < 0)

	test	edi, edi
	jge	SHORT $LN5@soap_insta

; 3683 : 	{	cp->ptr = (void*)new struct __ns1__getSessionID;

	push	4
	call	??2@YAPAXI@Z				; operator new
	add	esp, 4
	mov	DWORD PTR [esi+4], eax

; 3684 : 		if (size)

	test	ebx, ebx
	je	SHORT $LN1@soap_insta

; 3685 : 			*size = sizeof(struct __ns1__getSessionID);

	mov	DWORD PTR [ebx], 4

; 3695 : 	}
; 3696 : 		DBGLOG(TEST, SOAP_MESSAGE(fdebug, "Instantiated location=%p\n", cp->ptr));
; 3697 : 	return (struct __ns1__getSessionID*)cp->ptr;

	mov	eax, DWORD PTR [esi+4]
	pop	esi
	pop	ebp
	pop	ebx

; 3698 : }

	ret	0
$LN5@soap_insta:

; 3686 : 	}
; 3687 : 	else
; 3688 : 	{	cp->ptr = (void*)new struct __ns1__getSessionID[n];

	xor	ecx, ecx
	mov	eax, edi
	mov	edx, 4
	mul	edx
	seto	cl
	neg	ecx
	or	ecx, eax
	push	ecx
	call	??_U@YAPAXI@Z				; operator new[]
	add	esp, 4
	mov	DWORD PTR [esi+4], eax

; 3689 : 		if (!cp->ptr)

	test	eax, eax
	jne	SHORT $LN2@soap_insta

; 3690 : 		{	soap->error = SOAP_EOM;

	mov	DWORD PTR [ebp+90460], 20		; 00000014H
$LN12@soap_insta:
	pop	esi
	pop	ebp

; 3691 : 			return NULL;

	xor	eax, eax
	pop	ebx

; 3698 : }

	ret	0
$LN2@soap_insta:

; 3692 : 		}
; 3693 : 		if (size)

	test	ebx, ebx
	je	SHORT $LN1@soap_insta

; 3694 : 			*size = n * sizeof(struct __ns1__getSessionID);

	lea	eax, DWORD PTR [edi*4]
	mov	DWORD PTR [ebx], eax
$LN1@soap_insta:

; 3695 : 	}
; 3696 : 		DBGLOG(TEST, SOAP_MESSAGE(fdebug, "Instantiated location=%p\n", cp->ptr));
; 3697 : 	return (struct __ns1__getSessionID*)cp->ptr;

	mov	eax, DWORD PTR [esi+4]
	pop	esi
	pop	ebp
	pop	ebx

; 3698 : }

	ret	0
?soap_instantiate___ns1__getSessionID@@YAPAU__ns1__getSessionID@@PAUsoap@@HPBD1PAI@Z ENDP ; soap_instantiate___ns1__getSessionID
_TEXT	ENDS
PUBLIC	?soap_new___ns1__getSessionID@@YAPAU__ns1__getSessionID@@PAUsoap@@H@Z ; soap_new___ns1__getSessionID
; Function compile flags: /Ogtpy
_TEXT	SEGMENT
_soap$ = 8						; size = 4
?soap_new___ns1__getSessionID@@YAPAU__ns1__getSessionID@@PAUsoap@@H@Z PROC ; soap_new___ns1__getSessionID
; _n$ = edi

; 3669 : {	return soap_instantiate___ns1__getSessionID(soap, n, NULL, NULL, NULL);

	push	ebp
	mov	ebp, DWORD PTR _soap$[esp]
	push	esi
	push	20					; 00000014H
	call	_malloc
	mov	esi, eax
	add	esp, 4
	test	esi, esi
	je	SHORT $LN14@soap_new__
	mov	eax, DWORD PTR [ebp+96]
	mov	DWORD PTR [esi], eax
	mov	DWORD PTR [esi+8], 31			; 0000001fH
	mov	DWORD PTR [esi+12], edi
	mov	DWORD PTR [esi+4], 0
	mov	DWORD PTR [esi+16], OFFSET ?soap_fdelete@@YAHPAUsoap_clist@@@Z ; soap_fdelete
	mov	DWORD PTR [ebp+96], esi
	test	edi, edi
	jge	SHORT $LN7@soap_new__
	push	4
	call	??2@YAPAXI@Z				; operator new
	add	esp, 4
	mov	DWORD PTR [esi+4], eax
$LN4@soap_new__:
	mov	eax, DWORD PTR [esi+4]
	pop	esi
	pop	ebp

; 3670 : }

	ret	0

; 3669 : {	return soap_instantiate___ns1__getSessionID(soap, n, NULL, NULL, NULL);

$LN7@soap_new__:
	xor	ecx, ecx
	mov	eax, edi
	mov	edx, 4
	mul	edx
	seto	cl
	neg	ecx
	or	ecx, eax
	push	ecx
	call	??_U@YAPAXI@Z				; operator new[]
	add	esp, 4
	mov	DWORD PTR [esi+4], eax
	test	eax, eax
	jne	SHORT $LN4@soap_new__
	mov	DWORD PTR [ebp+90460], 20		; 00000014H
$LN14@soap_new__:
	pop	esi
	xor	eax, eax
	pop	ebp

; 3670 : }

	ret	0
?soap_new___ns1__getSessionID@@YAPAU__ns1__getSessionID@@PAUsoap@@H@Z ENDP ; soap_new___ns1__getSessionID
_TEXT	ENDS
PUBLIC	?soap_instantiate___ns1__getSettingsFile@@YAPAU__ns1__getSettingsFile@@PAUsoap@@HPBD1PAI@Z ; soap_instantiate___ns1__getSettingsFile
; Function compile flags: /Ogtpy
_TEXT	SEGMENT
_soap$ = 8						; size = 4
_size$ = 12						; size = 4
?soap_instantiate___ns1__getSettingsFile@@YAPAU__ns1__getSettingsFile@@PAUsoap@@HPBD1PAI@Z PROC ; soap_instantiate___ns1__getSettingsFile
; _n$ = edi

; 3577 : {

	push	ebx
	mov	ebx, DWORD PTR _size$[esp]
	push	ebp
	mov	ebp, DWORD PTR _soap$[esp+4]
	push	esi

; 3578 : 	DBGLOG(TEST, SOAP_MESSAGE(fdebug, "soap_instantiate___ns1__getSettingsFile(%d, %s, %s)\n", n, type?type:"", arrayType?arrayType:""));
; 3579 : 	struct soap_clist *cp = soap_link(soap, NULL, SOAP_TYPE___ns1__getSettingsFile, n, soap_fdelete);

	push	20					; 00000014H
	call	_malloc
	mov	esi, eax
	add	esp, 4
	test	esi, esi
	je	SHORT $LN12@soap_insta@2
	mov	eax, DWORD PTR [ebp+96]
	mov	DWORD PTR [esi], eax
	mov	DWORD PTR [esi+8], 35			; 00000023H
	mov	DWORD PTR [esi+12], edi
	mov	DWORD PTR [esi+4], 0
	mov	DWORD PTR [esi+16], OFFSET ?soap_fdelete@@YAHPAUsoap_clist@@@Z ; soap_fdelete
	mov	DWORD PTR [ebp+96], esi

; 3580 : 	if (!cp)
; 3581 : 		return NULL;
; 3582 : 	if (n < 0)

	test	edi, edi
	jge	SHORT $LN5@soap_insta@2

; 3583 : 	{	cp->ptr = (void*)new struct __ns1__getSettingsFile;

	push	4
	call	??2@YAPAXI@Z				; operator new
	add	esp, 4
	mov	DWORD PTR [esi+4], eax

; 3584 : 		if (size)

	test	ebx, ebx
	je	SHORT $LN1@soap_insta@2

; 3585 : 			*size = sizeof(struct __ns1__getSettingsFile);

	mov	DWORD PTR [ebx], 4

; 3595 : 	}
; 3596 : 		DBGLOG(TEST, SOAP_MESSAGE(fdebug, "Instantiated location=%p\n", cp->ptr));
; 3597 : 	return (struct __ns1__getSettingsFile*)cp->ptr;

	mov	eax, DWORD PTR [esi+4]
	pop	esi
	pop	ebp
	pop	ebx

; 3598 : }

	ret	0
$LN5@soap_insta@2:

; 3586 : 	}
; 3587 : 	else
; 3588 : 	{	cp->ptr = (void*)new struct __ns1__getSettingsFile[n];

	xor	ecx, ecx
	mov	eax, edi
	mov	edx, 4
	mul	edx
	seto	cl
	neg	ecx
	or	ecx, eax
	push	ecx
	call	??_U@YAPAXI@Z				; operator new[]
	add	esp, 4
	mov	DWORD PTR [esi+4], eax

; 3589 : 		if (!cp->ptr)

	test	eax, eax
	jne	SHORT $LN2@soap_insta@2

; 3590 : 		{	soap->error = SOAP_EOM;

	mov	DWORD PTR [ebp+90460], 20		; 00000014H
$LN12@soap_insta@2:
	pop	esi
	pop	ebp

; 3591 : 			return NULL;

	xor	eax, eax
	pop	ebx

; 3598 : }

	ret	0
$LN2@soap_insta@2:

; 3592 : 		}
; 3593 : 		if (size)

	test	ebx, ebx
	je	SHORT $LN1@soap_insta@2

; 3594 : 			*size = n * sizeof(struct __ns1__getSettingsFile);

	lea	eax, DWORD PTR [edi*4]
	mov	DWORD PTR [ebx], eax
$LN1@soap_insta@2:

; 3595 : 	}
; 3596 : 		DBGLOG(TEST, SOAP_MESSAGE(fdebug, "Instantiated location=%p\n", cp->ptr));
; 3597 : 	return (struct __ns1__getSettingsFile*)cp->ptr;

	mov	eax, DWORD PTR [esi+4]
	pop	esi
	pop	ebp
	pop	ebx

; 3598 : }

	ret	0
?soap_instantiate___ns1__getSettingsFile@@YAPAU__ns1__getSettingsFile@@PAUsoap@@HPBD1PAI@Z ENDP ; soap_instantiate___ns1__getSettingsFile
_TEXT	ENDS
PUBLIC	?soap_new___ns1__getSettingsFile@@YAPAU__ns1__getSettingsFile@@PAUsoap@@H@Z ; soap_new___ns1__getSettingsFile
; Function compile flags: /Ogtpy
_TEXT	SEGMENT
_soap$ = 8						; size = 4
?soap_new___ns1__getSettingsFile@@YAPAU__ns1__getSettingsFile@@PAUsoap@@H@Z PROC ; soap_new___ns1__getSettingsFile
; _n$ = edi

; 3569 : {	return soap_instantiate___ns1__getSettingsFile(soap, n, NULL, NULL, NULL);

	push	ebp
	mov	ebp, DWORD PTR _soap$[esp]
	push	esi
	push	20					; 00000014H
	call	_malloc
	mov	esi, eax
	add	esp, 4
	test	esi, esi
	je	SHORT $LN14@soap_new__@2
	mov	eax, DWORD PTR [ebp+96]
	mov	DWORD PTR [esi], eax
	mov	DWORD PTR [esi+8], 35			; 00000023H
	mov	DWORD PTR [esi+12], edi
	mov	DWORD PTR [esi+4], 0
	mov	DWORD PTR [esi+16], OFFSET ?soap_fdelete@@YAHPAUsoap_clist@@@Z ; soap_fdelete
	mov	DWORD PTR [ebp+96], esi
	test	edi, edi
	jge	SHORT $LN7@soap_new__@2
	push	4
	call	??2@YAPAXI@Z				; operator new
	add	esp, 4
	mov	DWORD PTR [esi+4], eax
$LN4@soap_new__@2:
	mov	eax, DWORD PTR [esi+4]
	pop	esi
	pop	ebp

; 3570 : }

	ret	0

; 3569 : {	return soap_instantiate___ns1__getSettingsFile(soap, n, NULL, NULL, NULL);

$LN7@soap_new__@2:
	xor	ecx, ecx
	mov	eax, edi
	mov	edx, 4
	mul	edx
	seto	cl
	neg	ecx
	or	ecx, eax
	push	ecx
	call	??_U@YAPAXI@Z				; operator new[]
	add	esp, 4
	mov	DWORD PTR [esi+4], eax
	test	eax, eax
	jne	SHORT $LN4@soap_new__@2
	mov	DWORD PTR [ebp+90460], 20		; 00000014H
$LN14@soap_new__@2:
	pop	esi
	xor	eax, eax
	pop	ebp

; 3570 : }

	ret	0
?soap_new___ns1__getSettingsFile@@YAPAU__ns1__getSettingsFile@@PAUsoap@@H@Z ENDP ; soap_new___ns1__getSettingsFile
_TEXT	ENDS
PUBLIC	?soap_instantiate___ns1__submitEpochResult@@YAPAU__ns1__submitEpochResult@@PAUsoap@@HPBD1PAI@Z ; soap_instantiate___ns1__submitEpochResult
; Function compile flags: /Ogtpy
_TEXT	SEGMENT
_soap$ = 8						; size = 4
_size$ = 12						; size = 4
?soap_instantiate___ns1__submitEpochResult@@YAPAU__ns1__submitEpochResult@@PAUsoap@@HPBD1PAI@Z PROC ; soap_instantiate___ns1__submitEpochResult
; _n$ = edi

; 3477 : {

	push	ebx
	mov	ebx, DWORD PTR _size$[esp]
	push	ebp
	mov	ebp, DWORD PTR _soap$[esp+4]
	push	esi

; 3478 : 	DBGLOG(TEST, SOAP_MESSAGE(fdebug, "soap_instantiate___ns1__submitEpochResult(%d, %s, %s)\n", n, type?type:"", arrayType?arrayType:""));
; 3479 : 	struct soap_clist *cp = soap_link(soap, NULL, SOAP_TYPE___ns1__submitEpochResult, n, soap_fdelete);

	push	20					; 00000014H
	call	_malloc
	mov	esi, eax
	add	esp, 4
	test	esi, esi
	je	SHORT $LN12@soap_insta@3
	mov	eax, DWORD PTR [ebp+96]
	mov	DWORD PTR [esi], eax
	mov	DWORD PTR [esi+8], 39			; 00000027H
	mov	DWORD PTR [esi+12], edi
	mov	DWORD PTR [esi+4], 0
	mov	DWORD PTR [esi+16], OFFSET ?soap_fdelete@@YAHPAUsoap_clist@@@Z ; soap_fdelete
	mov	DWORD PTR [ebp+96], esi

; 3480 : 	if (!cp)
; 3481 : 		return NULL;
; 3482 : 	if (n < 0)

	test	edi, edi
	jge	SHORT $LN5@soap_insta@3

; 3483 : 	{	cp->ptr = (void*)new struct __ns1__submitEpochResult;

	push	4
	call	??2@YAPAXI@Z				; operator new
	add	esp, 4
	mov	DWORD PTR [esi+4], eax

; 3484 : 		if (size)

	test	ebx, ebx
	je	SHORT $LN1@soap_insta@3

; 3485 : 			*size = sizeof(struct __ns1__submitEpochResult);

	mov	DWORD PTR [ebx], 4

; 3495 : 	}
; 3496 : 		DBGLOG(TEST, SOAP_MESSAGE(fdebug, "Instantiated location=%p\n", cp->ptr));
; 3497 : 	return (struct __ns1__submitEpochResult*)cp->ptr;

	mov	eax, DWORD PTR [esi+4]
	pop	esi
	pop	ebp
	pop	ebx

; 3498 : }

	ret	0
$LN5@soap_insta@3:

; 3486 : 	}
; 3487 : 	else
; 3488 : 	{	cp->ptr = (void*)new struct __ns1__submitEpochResult[n];

	xor	ecx, ecx
	mov	eax, edi
	mov	edx, 4
	mul	edx
	seto	cl
	neg	ecx
	or	ecx, eax
	push	ecx
	call	??_U@YAPAXI@Z				; operator new[]
	add	esp, 4
	mov	DWORD PTR [esi+4], eax

; 3489 : 		if (!cp->ptr)

	test	eax, eax
	jne	SHORT $LN2@soap_insta@3

; 3490 : 		{	soap->error = SOAP_EOM;

	mov	DWORD PTR [ebp+90460], 20		; 00000014H
$LN12@soap_insta@3:
	pop	esi
	pop	ebp

; 3491 : 			return NULL;

	xor	eax, eax
	pop	ebx

; 3498 : }

	ret	0
$LN2@soap_insta@3:

; 3492 : 		}
; 3493 : 		if (size)

	test	ebx, ebx
	je	SHORT $LN1@soap_insta@3

; 3494 : 			*size = n * sizeof(struct __ns1__submitEpochResult);

	lea	eax, DWORD PTR [edi*4]
	mov	DWORD PTR [ebx], eax
$LN1@soap_insta@3:

; 3495 : 	}
; 3496 : 		DBGLOG(TEST, SOAP_MESSAGE(fdebug, "Instantiated location=%p\n", cp->ptr));
; 3497 : 	return (struct __ns1__submitEpochResult*)cp->ptr;

	mov	eax, DWORD PTR [esi+4]
	pop	esi
	pop	ebp
	pop	ebx

; 3498 : }

	ret	0
?soap_instantiate___ns1__submitEpochResult@@YAPAU__ns1__submitEpochResult@@PAUsoap@@HPBD1PAI@Z ENDP ; soap_instantiate___ns1__submitEpochResult
_TEXT	ENDS
PUBLIC	?soap_new___ns1__submitEpochResult@@YAPAU__ns1__submitEpochResult@@PAUsoap@@H@Z ; soap_new___ns1__submitEpochResult
; Function compile flags: /Ogtpy
_TEXT	SEGMENT
_soap$ = 8						; size = 4
?soap_new___ns1__submitEpochResult@@YAPAU__ns1__submitEpochResult@@PAUsoap@@H@Z PROC ; soap_new___ns1__submitEpochResult
; _n$ = edi

; 3469 : {	return soap_instantiate___ns1__submitEpochResult(soap, n, NULL, NULL, NULL);

	push	ebp
	mov	ebp, DWORD PTR _soap$[esp]
	push	esi
	push	20					; 00000014H
	call	_malloc
	mov	esi, eax
	add	esp, 4
	test	esi, esi
	je	SHORT $LN14@soap_new__@3
	mov	eax, DWORD PTR [ebp+96]
	mov	DWORD PTR [esi], eax
	mov	DWORD PTR [esi+8], 39			; 00000027H
	mov	DWORD PTR [esi+12], edi
	mov	DWORD PTR [esi+4], 0
	mov	DWORD PTR [esi+16], OFFSET ?soap_fdelete@@YAHPAUsoap_clist@@@Z ; soap_fdelete
	mov	DWORD PTR [ebp+96], esi
	test	edi, edi
	jge	SHORT $LN7@soap_new__@3
	push	4
	call	??2@YAPAXI@Z				; operator new
	add	esp, 4
	mov	DWORD PTR [esi+4], eax
$LN4@soap_new__@3:
	mov	eax, DWORD PTR [esi+4]
	pop	esi
	pop	ebp

; 3470 : }

	ret	0

; 3469 : {	return soap_instantiate___ns1__submitEpochResult(soap, n, NULL, NULL, NULL);

$LN7@soap_new__@3:
	xor	ecx, ecx
	mov	eax, edi
	mov	edx, 4
	mul	edx
	seto	cl
	neg	ecx
	or	ecx, eax
	push	ecx
	call	??_U@YAPAXI@Z				; operator new[]
	add	esp, 4
	mov	DWORD PTR [esi+4], eax
	test	eax, eax
	jne	SHORT $LN4@soap_new__@3
	mov	DWORD PTR [ebp+90460], 20		; 00000014H
$LN14@soap_new__@3:
	pop	esi
	xor	eax, eax
	pop	ebp

; 3470 : }

	ret	0
?soap_new___ns1__submitEpochResult@@YAPAU__ns1__submitEpochResult@@PAUsoap@@H@Z ENDP ; soap_new___ns1__submitEpochResult
_TEXT	ENDS
PUBLIC	?soap_instantiate_SOAP_ENV__Header@@YAPAUSOAP_ENV__Header@@PAUsoap@@HPBD1PAI@Z ; soap_instantiate_SOAP_ENV__Header
; Function compile flags: /Ogtpy
_TEXT	SEGMENT
_size$ = 8						; size = 4
?soap_instantiate_SOAP_ENV__Header@@YAPAUSOAP_ENV__Header@@PAUsoap@@HPBD1PAI@Z PROC ; soap_instantiate_SOAP_ENV__Header
; _soap$ = edi

; 3375 : {

	push	ebx
	mov	ebx, DWORD PTR _size$[esp]
	push	esi

; 3376 : 	DBGLOG(TEST, SOAP_MESSAGE(fdebug, "soap_instantiate_SOAP_ENV__Header(%d, %s, %s)\n", n, type?type:"", arrayType?arrayType:""));
; 3377 : 	struct soap_clist *cp = soap_link(soap, NULL, SOAP_TYPE_SOAP_ENV__Header, n, soap_fdelete);

	push	20					; 00000014H
	call	_malloc
	mov	esi, eax
	add	esp, 4
	test	esi, esi
	je	SHORT $LN13@soap_insta@4
	mov	eax, DWORD PTR [edi+96]
	mov	DWORD PTR [esi], eax
	mov	DWORD PTR [esi+8], 40			; 00000028H
	mov	DWORD PTR [esi+12], -1
	mov	DWORD PTR [esi+4], 0
	mov	DWORD PTR [esi+16], OFFSET ?soap_fdelete@@YAHPAUsoap_clist@@@Z ; soap_fdelete

; 3380 : 	if (n < 0)
; 3381 : 	{	cp->ptr = (void*)new struct SOAP_ENV__Header;

	push	1
	mov	DWORD PTR [edi+96], esi
	call	??2@YAPAXI@Z				; operator new
	add	esp, 4
	mov	DWORD PTR [esi+4], eax

; 3382 : 		if (size)

	test	ebx, ebx
	je	SHORT $LN4@soap_insta@4

; 3383 : 			*size = sizeof(struct SOAP_ENV__Header);

	mov	DWORD PTR [ebx], 1
$LN4@soap_insta@4:

; 3384 : 	}
; 3385 : 	else
; 3386 : 	{	cp->ptr = (void*)new struct SOAP_ENV__Header[n];
; 3387 : 		if (!cp->ptr)
; 3388 : 		{	soap->error = SOAP_EOM;
; 3389 : 			return NULL;
; 3390 : 		}
; 3391 : 		if (size)
; 3392 : 			*size = n * sizeof(struct SOAP_ENV__Header);
; 3393 : 	}
; 3394 : 		DBGLOG(TEST, SOAP_MESSAGE(fdebug, "Instantiated location=%p\n", cp->ptr));
; 3395 : 	return (struct SOAP_ENV__Header*)cp->ptr;

	mov	eax, DWORD PTR [esi+4]
	pop	esi
	pop	ebx

; 3396 : }

	ret	0
$LN13@soap_insta@4:
	pop	esi

; 3378 : 	if (!cp)
; 3379 : 		return NULL;

	xor	eax, eax
	pop	ebx

; 3396 : }

	ret	0
?soap_instantiate_SOAP_ENV__Header@@YAPAUSOAP_ENV__Header@@PAUsoap@@HPBD1PAI@Z ENDP ; soap_instantiate_SOAP_ENV__Header
_TEXT	ENDS
PUBLIC	?soap_new_SOAP_ENV__Header@@YAPAUSOAP_ENV__Header@@PAUsoap@@H@Z ; soap_new_SOAP_ENV__Header
; Function compile flags: /Ogtpy
_TEXT	SEGMENT
?soap_new_SOAP_ENV__Header@@YAPAUSOAP_ENV__Header@@PAUsoap@@H@Z PROC ; soap_new_SOAP_ENV__Header
; _soap$ = edi

; 3367 : {	return soap_instantiate_SOAP_ENV__Header(soap, n, NULL, NULL, NULL);

	push	esi
	push	20					; 00000014H
	call	_malloc
	mov	esi, eax
	xor	eax, eax
	add	esp, 4
	cmp	esi, eax
	je	SHORT $LN9@soap_new_S
	mov	ecx, DWORD PTR [edi+96]
	mov	DWORD PTR [esi], ecx
	mov	DWORD PTR [esi+8], 40			; 00000028H
	mov	DWORD PTR [esi+12], -1
	mov	DWORD PTR [esi+4], eax
	mov	DWORD PTR [esi+16], OFFSET ?soap_fdelete@@YAHPAUsoap_clist@@@Z ; soap_fdelete
	push	1
	mov	DWORD PTR [edi+96], esi
	call	??2@YAPAXI@Z				; operator new
	add	esp, 4
	mov	DWORD PTR [esi+4], eax
$LN9@soap_new_S:
	pop	esi

; 3368 : }

	ret	0
?soap_new_SOAP_ENV__Header@@YAPAUSOAP_ENV__Header@@PAUsoap@@H@Z ENDP ; soap_new_SOAP_ENV__Header
_TEXT	ENDS
PUBLIC	?soap_out_SOAP_ENV__Header@@YAHPAUsoap@@PBDHPBUSOAP_ENV__Header@@1@Z ; soap_out_SOAP_ENV__Header
; Function compile flags: /Ogtpy
_TEXT	SEGMENT
_soap$ = 8						; size = 4
_tag$ = 12						; size = 4
_type$ = 16						; size = 4
?soap_out_SOAP_ENV__Header@@YAHPAUsoap@@PBDHPBUSOAP_ENV__Header@@1@Z PROC ; soap_out_SOAP_ENV__Header
; _id$ = eax
; _a$ = ecx

; 3322 : {

	push	esi
	mov	esi, DWORD PTR _tag$[esp]
	push	edi
	mov	edi, DWORD PTR _soap$[esp+4]

; 3323 : 	if (soap_element_begin_out(soap, tag, soap_embedded_id(soap, id, a, SOAP_TYPE_SOAP_ENV__Header), type))

	push	eax
	push	edi
	mov	eax, 40					; 00000028H
	call	_soap_embedded_id
	add	esp, 8
	cmp	BYTE PTR [esi], 45			; 0000002dH
	je	SHORT $LN1@soap_out_S
	mov	ecx, DWORD PTR _type$[esp+4]
	push	ecx
	push	eax
	push	esi
	mov	eax, edi
	call	_soap_element
	add	esp, 12					; 0000000cH
	test	eax, eax
	je	SHORT $LN4@soap_out_S
	mov	eax, DWORD PTR [edi+90460]
	jmp	SHORT $LN6@soap_out_S
$LN4@soap_out_S:
	push	0
	call	_soap_element_start_end_out
	add	esp, 4
$LN6@soap_out_S:
	test	eax, eax
	je	SHORT $LN1@soap_out_S

; 3324 : 		return soap->error;

	mov	eax, DWORD PTR [edi+90460]
	pop	edi
	pop	esi

; 3326 : }

	ret	0
$LN1@soap_out_S:

; 3325 : 	return soap_element_end_out(soap, tag);

	mov	eax, edi
	call	_soap_element_end_out
	pop	edi
	pop	esi

; 3326 : }

	ret	0
?soap_out_SOAP_ENV__Header@@YAHPAUsoap@@PBDHPBUSOAP_ENV__Header@@1@Z ENDP ; soap_out_SOAP_ENV__Header
_TEXT	ENDS
PUBLIC	?soap_instantiate_SOAP_ENV__Code@@YAPAUSOAP_ENV__Code@@PAUsoap@@HPBD1PAI@Z ; soap_instantiate_SOAP_ENV__Code
; Function compile flags: /Ogtpy
_TEXT	SEGMENT
_size$ = 8						; size = 4
?soap_instantiate_SOAP_ENV__Code@@YAPAUSOAP_ENV__Code@@PAUsoap@@HPBD1PAI@Z PROC ; soap_instantiate_SOAP_ENV__Code
; _soap$ = edi

; 3271 : {

	push	ebx
	mov	ebx, DWORD PTR _size$[esp]
	push	esi

; 3272 : 	DBGLOG(TEST, SOAP_MESSAGE(fdebug, "soap_instantiate_SOAP_ENV__Code(%d, %s, %s)\n", n, type?type:"", arrayType?arrayType:""));
; 3273 : 	struct soap_clist *cp = soap_link(soap, NULL, SOAP_TYPE_SOAP_ENV__Code, n, soap_fdelete);

	push	20					; 00000014H
	call	_malloc
	mov	esi, eax
	add	esp, 4
	test	esi, esi
	je	SHORT $LN13@soap_insta@5
	mov	eax, DWORD PTR [edi+96]
	mov	DWORD PTR [esi], eax
	mov	DWORD PTR [esi+8], 41			; 00000029H
	mov	DWORD PTR [esi+12], -1
	mov	DWORD PTR [esi+4], 0
	mov	DWORD PTR [esi+16], OFFSET ?soap_fdelete@@YAHPAUsoap_clist@@@Z ; soap_fdelete

; 3276 : 	if (n < 0)
; 3277 : 	{	cp->ptr = (void*)new struct SOAP_ENV__Code;

	push	8
	mov	DWORD PTR [edi+96], esi
	call	??2@YAPAXI@Z				; operator new
	add	esp, 4
	mov	DWORD PTR [esi+4], eax

; 3278 : 		if (size)

	test	ebx, ebx
	je	SHORT $LN4@soap_insta@5

; 3279 : 			*size = sizeof(struct SOAP_ENV__Code);

	mov	DWORD PTR [ebx], 8
$LN4@soap_insta@5:

; 3280 : 	}
; 3281 : 	else
; 3282 : 	{	cp->ptr = (void*)new struct SOAP_ENV__Code[n];
; 3283 : 		if (!cp->ptr)
; 3284 : 		{	soap->error = SOAP_EOM;
; 3285 : 			return NULL;
; 3286 : 		}
; 3287 : 		if (size)
; 3288 : 			*size = n * sizeof(struct SOAP_ENV__Code);
; 3289 : 	}
; 3290 : 		DBGLOG(TEST, SOAP_MESSAGE(fdebug, "Instantiated location=%p\n", cp->ptr));
; 3291 : 	return (struct SOAP_ENV__Code*)cp->ptr;

	mov	eax, DWORD PTR [esi+4]
	pop	esi
	pop	ebx

; 3292 : }

	ret	0
$LN13@soap_insta@5:
	pop	esi

; 3274 : 	if (!cp)
; 3275 : 		return NULL;

	xor	eax, eax
	pop	ebx

; 3292 : }

	ret	0
?soap_instantiate_SOAP_ENV__Code@@YAPAUSOAP_ENV__Code@@PAUsoap@@HPBD1PAI@Z ENDP ; soap_instantiate_SOAP_ENV__Code
_TEXT	ENDS
PUBLIC	?soap_new_SOAP_ENV__Code@@YAPAUSOAP_ENV__Code@@PAUsoap@@H@Z ; soap_new_SOAP_ENV__Code
; Function compile flags: /Ogtpy
_TEXT	SEGMENT
?soap_new_SOAP_ENV__Code@@YAPAUSOAP_ENV__Code@@PAUsoap@@H@Z PROC ; soap_new_SOAP_ENV__Code
; _soap$ = edi

; 3263 : {	return soap_instantiate_SOAP_ENV__Code(soap, n, NULL, NULL, NULL);

	push	esi
	push	20					; 00000014H
	call	_malloc
	mov	esi, eax
	xor	eax, eax
	add	esp, 4
	cmp	esi, eax
	je	SHORT $LN9@soap_new_S@2
	mov	ecx, DWORD PTR [edi+96]
	mov	DWORD PTR [esi], ecx
	mov	DWORD PTR [esi+8], 41			; 00000029H
	mov	DWORD PTR [esi+12], -1
	mov	DWORD PTR [esi+4], eax
	mov	DWORD PTR [esi+16], OFFSET ?soap_fdelete@@YAHPAUsoap_clist@@@Z ; soap_fdelete
	push	8
	mov	DWORD PTR [edi+96], esi
	call	??2@YAPAXI@Z				; operator new
	add	esp, 4
	mov	DWORD PTR [esi+4], eax
$LN9@soap_new_S@2:
	pop	esi

; 3264 : }

	ret	0
?soap_new_SOAP_ENV__Code@@YAPAUSOAP_ENV__Code@@PAUsoap@@H@Z ENDP ; soap_new_SOAP_ENV__Code
_TEXT	ENDS
PUBLIC	?soap_instantiate_SOAP_ENV__Detail@@YAPAUSOAP_ENV__Detail@@PAUsoap@@HPBD1PAI@Z ; soap_instantiate_SOAP_ENV__Detail
; Function compile flags: /Ogtpy
_TEXT	SEGMENT
_size$ = 8						; size = 4
?soap_instantiate_SOAP_ENV__Detail@@YAPAUSOAP_ENV__Detail@@PAUsoap@@HPBD1PAI@Z PROC ; soap_instantiate_SOAP_ENV__Detail
; _soap$ = edi

; 3146 : {

	push	ebx
	mov	ebx, DWORD PTR _size$[esp]
	push	esi

; 3147 : 	DBGLOG(TEST, SOAP_MESSAGE(fdebug, "soap_instantiate_SOAP_ENV__Detail(%d, %s, %s)\n", n, type?type:"", arrayType?arrayType:""));
; 3148 : 	struct soap_clist *cp = soap_link(soap, NULL, SOAP_TYPE_SOAP_ENV__Detail, n, soap_fdelete);

	push	20					; 00000014H
	call	_malloc
	mov	esi, eax
	add	esp, 4
	test	esi, esi
	je	SHORT $LN13@soap_insta@6
	mov	eax, DWORD PTR [edi+96]
	mov	DWORD PTR [esi], eax
	mov	DWORD PTR [esi+8], 43			; 0000002bH
	mov	DWORD PTR [esi+12], -1
	mov	DWORD PTR [esi+4], 0
	mov	DWORD PTR [esi+16], OFFSET ?soap_fdelete@@YAHPAUsoap_clist@@@Z ; soap_fdelete

; 3151 : 	if (n < 0)
; 3152 : 	{	cp->ptr = (void*)new struct SOAP_ENV__Detail;

	push	12					; 0000000cH
	mov	DWORD PTR [edi+96], esi
	call	??2@YAPAXI@Z				; operator new
	add	esp, 4
	mov	DWORD PTR [esi+4], eax

; 3153 : 		if (size)

	test	ebx, ebx
	je	SHORT $LN4@soap_insta@6

; 3154 : 			*size = sizeof(struct SOAP_ENV__Detail);

	mov	DWORD PTR [ebx], 12			; 0000000cH
$LN4@soap_insta@6:

; 3155 : 	}
; 3156 : 	else
; 3157 : 	{	cp->ptr = (void*)new struct SOAP_ENV__Detail[n];
; 3158 : 		if (!cp->ptr)
; 3159 : 		{	soap->error = SOAP_EOM;
; 3160 : 			return NULL;
; 3161 : 		}
; 3162 : 		if (size)
; 3163 : 			*size = n * sizeof(struct SOAP_ENV__Detail);
; 3164 : 	}
; 3165 : 		DBGLOG(TEST, SOAP_MESSAGE(fdebug, "Instantiated location=%p\n", cp->ptr));
; 3166 : 	return (struct SOAP_ENV__Detail*)cp->ptr;

	mov	eax, DWORD PTR [esi+4]
	pop	esi
	pop	ebx

; 3167 : }

	ret	0
$LN13@soap_insta@6:
	pop	esi

; 3149 : 	if (!cp)
; 3150 : 		return NULL;

	xor	eax, eax
	pop	ebx

; 3167 : }

	ret	0
?soap_instantiate_SOAP_ENV__Detail@@YAPAUSOAP_ENV__Detail@@PAUsoap@@HPBD1PAI@Z ENDP ; soap_instantiate_SOAP_ENV__Detail
_TEXT	ENDS
PUBLIC	?soap_new_SOAP_ENV__Detail@@YAPAUSOAP_ENV__Detail@@PAUsoap@@H@Z ; soap_new_SOAP_ENV__Detail
; Function compile flags: /Ogtpy
_TEXT	SEGMENT
?soap_new_SOAP_ENV__Detail@@YAPAUSOAP_ENV__Detail@@PAUsoap@@H@Z PROC ; soap_new_SOAP_ENV__Detail
; _soap$ = edi

; 3138 : {	return soap_instantiate_SOAP_ENV__Detail(soap, n, NULL, NULL, NULL);

	push	esi
	push	20					; 00000014H
	call	_malloc
	mov	esi, eax
	xor	eax, eax
	add	esp, 4
	cmp	esi, eax
	je	SHORT $LN9@soap_new_S@3
	mov	ecx, DWORD PTR [edi+96]
	mov	DWORD PTR [esi], ecx
	mov	DWORD PTR [esi+8], 43			; 0000002bH
	mov	DWORD PTR [esi+12], -1
	mov	DWORD PTR [esi+4], eax
	mov	DWORD PTR [esi+16], OFFSET ?soap_fdelete@@YAHPAUsoap_clist@@@Z ; soap_fdelete
	push	12					; 0000000cH
	mov	DWORD PTR [edi+96], esi
	call	??2@YAPAXI@Z				; operator new
	add	esp, 4
	mov	DWORD PTR [esi+4], eax
$LN9@soap_new_S@3:
	pop	esi

; 3139 : }

	ret	0
?soap_new_SOAP_ENV__Detail@@YAPAUSOAP_ENV__Detail@@PAUsoap@@H@Z ENDP ; soap_new_SOAP_ENV__Detail
_TEXT	ENDS
PUBLIC	?soap_instantiate_SOAP_ENV__Reason@@YAPAUSOAP_ENV__Reason@@PAUsoap@@HPBD1PAI@Z ; soap_instantiate_SOAP_ENV__Reason
; Function compile flags: /Ogtpy
_TEXT	SEGMENT
_size$ = 8						; size = 4
?soap_instantiate_SOAP_ENV__Reason@@YAPAUSOAP_ENV__Reason@@PAUsoap@@HPBD1PAI@Z PROC ; soap_instantiate_SOAP_ENV__Reason
; _soap$ = edi

; 3023 : {

	push	ebx
	mov	ebx, DWORD PTR _size$[esp]
	push	esi

; 3024 : 	DBGLOG(TEST, SOAP_MESSAGE(fdebug, "soap_instantiate_SOAP_ENV__Reason(%d, %s, %s)\n", n, type?type:"", arrayType?arrayType:""));
; 3025 : 	struct soap_clist *cp = soap_link(soap, NULL, SOAP_TYPE_SOAP_ENV__Reason, n, soap_fdelete);

	push	20					; 00000014H
	call	_malloc
	mov	esi, eax
	add	esp, 4
	test	esi, esi
	je	SHORT $LN13@soap_insta@7
	mov	eax, DWORD PTR [edi+96]
	mov	DWORD PTR [esi], eax
	mov	DWORD PTR [esi+8], 46			; 0000002eH
	mov	DWORD PTR [esi+12], -1
	mov	DWORD PTR [esi+4], 0
	mov	DWORD PTR [esi+16], OFFSET ?soap_fdelete@@YAHPAUsoap_clist@@@Z ; soap_fdelete

; 3028 : 	if (n < 0)
; 3029 : 	{	cp->ptr = (void*)new struct SOAP_ENV__Reason;

	push	4
	mov	DWORD PTR [edi+96], esi
	call	??2@YAPAXI@Z				; operator new
	add	esp, 4
	mov	DWORD PTR [esi+4], eax

; 3030 : 		if (size)

	test	ebx, ebx
	je	SHORT $LN4@soap_insta@7

; 3031 : 			*size = sizeof(struct SOAP_ENV__Reason);

	mov	DWORD PTR [ebx], 4
$LN4@soap_insta@7:

; 3032 : 	}
; 3033 : 	else
; 3034 : 	{	cp->ptr = (void*)new struct SOAP_ENV__Reason[n];
; 3035 : 		if (!cp->ptr)
; 3036 : 		{	soap->error = SOAP_EOM;
; 3037 : 			return NULL;
; 3038 : 		}
; 3039 : 		if (size)
; 3040 : 			*size = n * sizeof(struct SOAP_ENV__Reason);
; 3041 : 	}
; 3042 : 		DBGLOG(TEST, SOAP_MESSAGE(fdebug, "Instantiated location=%p\n", cp->ptr));
; 3043 : 	return (struct SOAP_ENV__Reason*)cp->ptr;

	mov	eax, DWORD PTR [esi+4]
	pop	esi
	pop	ebx

; 3044 : }

	ret	0
$LN13@soap_insta@7:
	pop	esi

; 3026 : 	if (!cp)
; 3027 : 		return NULL;

	xor	eax, eax
	pop	ebx

; 3044 : }

	ret	0
?soap_instantiate_SOAP_ENV__Reason@@YAPAUSOAP_ENV__Reason@@PAUsoap@@HPBD1PAI@Z ENDP ; soap_instantiate_SOAP_ENV__Reason
_TEXT	ENDS
PUBLIC	?soap_new_SOAP_ENV__Reason@@YAPAUSOAP_ENV__Reason@@PAUsoap@@H@Z ; soap_new_SOAP_ENV__Reason
; Function compile flags: /Ogtpy
_TEXT	SEGMENT
?soap_new_SOAP_ENV__Reason@@YAPAUSOAP_ENV__Reason@@PAUsoap@@H@Z PROC ; soap_new_SOAP_ENV__Reason
; _soap$ = edi

; 3015 : {	return soap_instantiate_SOAP_ENV__Reason(soap, n, NULL, NULL, NULL);

	push	esi
	push	20					; 00000014H
	call	_malloc
	mov	esi, eax
	xor	eax, eax
	add	esp, 4
	cmp	esi, eax
	je	SHORT $LN9@soap_new_S@4
	mov	ecx, DWORD PTR [edi+96]
	mov	DWORD PTR [esi], ecx
	mov	DWORD PTR [esi+8], 46			; 0000002eH
	mov	DWORD PTR [esi+12], -1
	mov	DWORD PTR [esi+4], eax
	mov	DWORD PTR [esi+16], OFFSET ?soap_fdelete@@YAHPAUsoap_clist@@@Z ; soap_fdelete
	push	4
	mov	DWORD PTR [edi+96], esi
	call	??2@YAPAXI@Z				; operator new
	add	esp, 4
	mov	DWORD PTR [esi+4], eax
$LN9@soap_new_S@4:
	pop	esi

; 3016 : }

	ret	0
?soap_new_SOAP_ENV__Reason@@YAPAUSOAP_ENV__Reason@@PAUsoap@@H@Z ENDP ; soap_new_SOAP_ENV__Reason
_TEXT	ENDS
PUBLIC	?soap_instantiate_SOAP_ENV__Fault@@YAPAUSOAP_ENV__Fault@@PAUsoap@@HPBD1PAI@Z ; soap_instantiate_SOAP_ENV__Fault
; Function compile flags: /Ogtpy
_TEXT	SEGMENT
_size$ = 8						; size = 4
?soap_instantiate_SOAP_ENV__Fault@@YAPAUSOAP_ENV__Fault@@PAUsoap@@HPBD1PAI@Z PROC ; soap_instantiate_SOAP_ENV__Fault
; _soap$ = edi

; 2906 : {

	push	ebx
	mov	ebx, DWORD PTR _size$[esp]
	push	esi

; 2907 : 	DBGLOG(TEST, SOAP_MESSAGE(fdebug, "soap_instantiate_SOAP_ENV__Fault(%d, %s, %s)\n", n, type?type:"", arrayType?arrayType:""));
; 2908 : 	struct soap_clist *cp = soap_link(soap, NULL, SOAP_TYPE_SOAP_ENV__Fault, n, soap_fdelete);

	push	20					; 00000014H
	call	_malloc
	mov	esi, eax
	add	esp, 4
	test	esi, esi
	je	SHORT $LN13@soap_insta@8
	mov	eax, DWORD PTR [edi+96]
	mov	DWORD PTR [esi], eax
	mov	DWORD PTR [esi+8], 47			; 0000002fH
	mov	DWORD PTR [esi+12], -1
	mov	DWORD PTR [esi+4], 0
	mov	DWORD PTR [esi+16], OFFSET ?soap_fdelete@@YAHPAUsoap_clist@@@Z ; soap_fdelete

; 2911 : 	if (n < 0)
; 2912 : 	{	cp->ptr = (void*)new struct SOAP_ENV__Fault;

	push	36					; 00000024H
	mov	DWORD PTR [edi+96], esi
	call	??2@YAPAXI@Z				; operator new
	add	esp, 4
	mov	DWORD PTR [esi+4], eax

; 2913 : 		if (size)

	test	ebx, ebx
	je	SHORT $LN4@soap_insta@8

; 2914 : 			*size = sizeof(struct SOAP_ENV__Fault);

	mov	DWORD PTR [ebx], 36			; 00000024H
$LN4@soap_insta@8:

; 2915 : 	}
; 2916 : 	else
; 2917 : 	{	cp->ptr = (void*)new struct SOAP_ENV__Fault[n];
; 2918 : 		if (!cp->ptr)
; 2919 : 		{	soap->error = SOAP_EOM;
; 2920 : 			return NULL;
; 2921 : 		}
; 2922 : 		if (size)
; 2923 : 			*size = n * sizeof(struct SOAP_ENV__Fault);
; 2924 : 	}
; 2925 : 		DBGLOG(TEST, SOAP_MESSAGE(fdebug, "Instantiated location=%p\n", cp->ptr));
; 2926 : 	return (struct SOAP_ENV__Fault*)cp->ptr;

	mov	eax, DWORD PTR [esi+4]
	pop	esi
	pop	ebx

; 2927 : }

	ret	0
$LN13@soap_insta@8:
	pop	esi

; 2909 : 	if (!cp)
; 2910 : 		return NULL;

	xor	eax, eax
	pop	ebx

; 2927 : }

	ret	0
?soap_instantiate_SOAP_ENV__Fault@@YAPAUSOAP_ENV__Fault@@PAUsoap@@HPBD1PAI@Z ENDP ; soap_instantiate_SOAP_ENV__Fault
_TEXT	ENDS
PUBLIC	?soap_new_SOAP_ENV__Fault@@YAPAUSOAP_ENV__Fault@@PAUsoap@@H@Z ; soap_new_SOAP_ENV__Fault
; Function compile flags: /Ogtpy
_TEXT	SEGMENT
?soap_new_SOAP_ENV__Fault@@YAPAUSOAP_ENV__Fault@@PAUsoap@@H@Z PROC ; soap_new_SOAP_ENV__Fault
; _soap$ = edi

; 2898 : {	return soap_instantiate_SOAP_ENV__Fault(soap, n, NULL, NULL, NULL);

	push	esi
	push	20					; 00000014H
	call	_malloc
	mov	esi, eax
	xor	eax, eax
	add	esp, 4
	cmp	esi, eax
	je	SHORT $LN9@soap_new_S@5
	mov	ecx, DWORD PTR [edi+96]
	mov	DWORD PTR [esi], ecx
	mov	DWORD PTR [esi+8], 47			; 0000002fH
	mov	DWORD PTR [esi+12], -1
	mov	DWORD PTR [esi+4], eax
	mov	DWORD PTR [esi+16], OFFSET ?soap_fdelete@@YAHPAUsoap_clist@@@Z ; soap_fdelete
	push	36					; 00000024H
	mov	DWORD PTR [edi+96], esi
	call	??2@YAPAXI@Z				; operator new
	add	esp, 4
	mov	DWORD PTR [esi+4], eax
$LN9@soap_new_S@5:
	pop	esi

; 2899 : }

	ret	0
?soap_new_SOAP_ENV__Fault@@YAPAUSOAP_ENV__Fault@@PAUsoap@@H@Z ENDP ; soap_new_SOAP_ENV__Fault
_TEXT	ENDS
PUBLIC	?soap_instantiate_xsd__anyType@@YAPAVxsd__anyType@@PAUsoap@@HPBD1PAI@Z ; soap_instantiate_xsd__anyType
__unwindtable$?soap_instantiate_xsd__anyType@@YAPAVxsd__anyType@@PAUsoap@@HPBD1PAI@Z DD 0ffffffffH
	DD	FLAT:__unwindfunclet$?soap_instantiate_xsd__anyType@@YAPAVxsd__anyType@@PAUsoap@@HPBD1PAI@Z$1
	DD	0ffffffffH
	DD	FLAT:__unwindfunclet$?soap_instantiate_xsd__anyType@@YAPAVxsd__anyType@@PAUsoap@@HPBD1PAI@Z$3
	DD	0ffffffffH
	DD	FLAT:__unwindfunclet$?soap_instantiate_xsd__anyType@@YAPAVxsd__anyType@@PAUsoap@@HPBD1PAI@Z$5
	DD	0ffffffffH
	DD	FLAT:__unwindfunclet$?soap_instantiate_xsd__anyType@@YAPAVxsd__anyType@@PAUsoap@@HPBD1PAI@Z$7
	DD	0ffffffffH
	DD	FLAT:__unwindfunclet$?soap_instantiate_xsd__anyType@@YAPAVxsd__anyType@@PAUsoap@@HPBD1PAI@Z$9
	DD	0ffffffffH
	DD	FLAT:__unwindfunclet$?soap_instantiate_xsd__anyType@@YAPAVxsd__anyType@@PAUsoap@@HPBD1PAI@Z$11
__ehfuncinfo$?soap_instantiate_xsd__anyType@@YAPAVxsd__anyType@@PAUsoap@@HPBD1PAI@Z DD 019930522H
	DD	06H
	DD	FLAT:__unwindtable$?soap_instantiate_xsd__anyType@@YAPAVxsd__anyType@@PAUsoap@@HPBD1PAI@Z
	DD	2 DUP(00H)
	DD	2 DUP(00H)
	DD	00H
	DD	01H
; Function compile flags: /Ogtpy
_TEXT	SEGMENT
$T457975 = -16						; size = 4
$T457966 = -16						; size = 4
$T457957 = -16						; size = 4
$T457948 = -16						; size = 4
$T457939 = -16						; size = 4
$T457930 = -16						; size = 4
__$EHRec$ = -12						; size = 12
_soap$ = 8						; size = 4
_type$ = 12						; size = 4
_size$ = 16						; size = 4
?soap_instantiate_xsd__anyType@@YAPAVxsd__anyType@@PAUsoap@@HPBD1PAI@Z PROC ; soap_instantiate_xsd__anyType
; _n$ = ecx

; 2600 : {

	push	-1
	push	__ehhandler$?soap_instantiate_xsd__anyType@@YAPAVxsd__anyType@@PAUsoap@@HPBD1PAI@Z
	mov	eax, DWORD PTR fs:0
	push	eax
	push	ecx
	push	ebx
	push	ebp
	push	esi
	push	edi
	mov	eax, DWORD PTR ___security_cookie
	xor	eax, esp
	push	eax
	lea	eax, DWORD PTR __$EHRec$[esp+36]
	mov	DWORD PTR fs:0, eax
	mov	ebx, DWORD PTR _type$[esp+32]
	mov	esi, ecx

; 2601 : 	DBGLOG(TEST, SOAP_MESSAGE(fdebug, "soap_instantiate_xsd__anyType(%d, %s, %s)\n", n, type?type:"", arrayType?arrayType:""));
; 2602 : 	struct soap_clist *cp = soap_link(soap, NULL, SOAP_TYPE_xsd__anyType, n, soap_fdelete);

	push	20					; 00000014H
	call	_malloc
	mov	ebp, eax
	xor	edi, edi
	add	esp, 4
	cmp	ebp, edi
	je	$LN126@soap_insta@9
	mov	eax, DWORD PTR _soap$[esp+32]
	mov	ecx, DWORD PTR [eax+96]
	mov	DWORD PTR [ebp], ecx
	mov	DWORD PTR [ebp+8], 8
	mov	DWORD PTR [ebp+12], esi
	mov	DWORD PTR [ebp+4], edi
	mov	DWORD PTR [ebp+16], OFFSET ?soap_fdelete@@YAHPAUsoap_clist@@@Z ; soap_fdelete
	mov	DWORD PTR [eax+96], ebp

; 2603 : 	if (!cp)
; 2604 : 		return NULL;
; 2605 : 	if (type && !soap_match_tag(soap, type, "xsd:boolean"))

	cmp	ebx, edi
	je	$LN17@soap_insta@9
	mov	edx, eax
	push	ebx
	push	edx
	mov	edi, OFFSET ??_C@_0M@FGHMEICI@xsd?3boolean?$AA@
	call	_soap_match_tag
	add	esp, 8
	test	eax, eax
	jne	$LN53@soap_insta@9

; 2606 : 	{	cp->type = SOAP_TYPE_xsd__boolean;
; 2607 : 		if (n < 0)

	xor	ebx, ebx
	cmp	esi, ebx
	mov	DWORD PTR [ebp+8], 10			; 0000000aH
	jge	SHORT $LN52@soap_insta@9

; 2608 : 		{	cp->ptr = (void*)new xsd__boolean;

	push	16					; 00000010H
	call	??2@YAPAXI@Z				; operator new
	add	esp, 4
	cmp	eax, ebx
	je	SHORT $LN57@soap_insta@9
	mov	DWORD PTR [eax+4], ebx
	mov	DWORD PTR [eax+8], ebx
	mov	DWORD PTR [eax], OFFSET ??_7xsd__boolean@@6B@
	mov	BYTE PTR [eax+12], bl
	jmp	SHORT $LN58@soap_insta@9
$LN57@soap_insta@9:
	xor	eax, eax
$LN58@soap_insta@9:
	mov	DWORD PTR [ebp+4], eax

; 2609 : 			if (!cp->ptr)

	cmp	eax, ebx
	jne	SHORT $LN51@soap_insta@9

; 2610 : 			{	soap->error = SOAP_EOM;

	mov	eax, DWORD PTR _soap$[esp+32]
	mov	DWORD PTR [eax+90460], 20		; 00000014H
$LN126@soap_insta@9:

; 2611 : 				return NULL;

	xor	eax, eax

; 2734 : }

	mov	ecx, DWORD PTR __$EHRec$[esp+36]
	mov	DWORD PTR fs:0, ecx
	pop	ecx
	pop	edi
	pop	esi
	pop	ebp
	pop	ebx
	add	esp, 16					; 00000010H
	ret	0
$LN51@soap_insta@9:

; 2612 : 			}
; 2613 : 			if (size)

	mov	eax, DWORD PTR _size$[esp+32]
	cmp	eax, ebx
	je	SHORT $LN50@soap_insta@9

; 2614 : 				*size = sizeof(xsd__boolean);

	mov	DWORD PTR [eax], 16			; 00000010H
$LN50@soap_insta@9:

; 2615 : 			((xsd__boolean*)cp->ptr)->soap = soap;

	mov	ecx, DWORD PTR [ebp+4]
	mov	edx, DWORD PTR _soap$[esp+32]
	mov	DWORD PTR [ecx+8], edx

; 2616 : 		}
; 2617 : 		else

	jmp	$LN1@soap_insta@9
$LN52@soap_insta@9:

; 2618 : 		{	cp->ptr = (void*)new xsd__boolean[n];

	xor	ecx, ecx
	mov	eax, esi
	mov	edx, 16					; 00000010H
	mul	edx
	seto	cl
	neg	ecx
	or	ecx, eax
	xor	eax, eax
	add	ecx, 4
	setb	al
	neg	eax
	or	eax, ecx
	push	eax
	call	??_U@YAPAXI@Z				; operator new[]
	add	esp, 4
	mov	DWORD PTR $T457930[esp+36], eax
	mov	DWORD PTR __$EHRec$[esp+44], ebx
	cmp	eax, ebx
	je	SHORT $LN59@soap_insta@9
	push	OFFSET ??1xsd__boolean@@UAE@XZ		; xsd__boolean::~xsd__boolean
	push	OFFSET ??0xsd__boolean@@QAE@XZ		; xsd__boolean::xsd__boolean
	push	esi
	lea	edi, DWORD PTR [eax+4]
	push	16					; 00000010H
	push	edi
	mov	DWORD PTR [eax], esi
	call	??_L@YGXPAXIHP6EX0@Z1@Z
	jmp	SHORT $LN60@soap_insta@9
$LN59@soap_insta@9:
	xor	edi, edi
$LN60@soap_insta@9:

; 2619 : 			if (size)

	mov	eax, DWORD PTR _size$[esp+32]
	mov	DWORD PTR [ebp+4], edi
	cmp	eax, ebx
	je	SHORT $LN48@soap_insta@9

; 2620 : 				*size = n * sizeof(xsd__boolean);

	mov	ecx, esi
	shl	ecx, 4
	mov	DWORD PTR [eax], ecx
$LN48@soap_insta@9:

; 2621 : 			for (int i = 0; i < n; i++)

	cmp	esi, ebx
	jle	$LN1@soap_insta@9
	mov	ecx, DWORD PTR _soap$[esp+32]
	xor	eax, eax
	npad	8
$LL47@soap_insta@9:

; 2622 : 				((xsd__boolean*)cp->ptr)[i].soap = soap;

	mov	edx, DWORD PTR [ebp+4]
	mov	DWORD PTR [edx+eax+8], ecx
	add	eax, 16					; 00000010H
	sub	esi, 1
	jne	SHORT $LL47@soap_insta@9

; 2623 : 		}
; 2624 : 	DBGLOG(TEST, SOAP_MESSAGE(fdebug, "Instantiated location=%p\n", cp->ptr));
; 2625 : 		return (xsd__boolean*)cp->ptr;

	jmp	$LN1@soap_insta@9
$LN53@soap_insta@9:

; 2626 : 	}
; 2627 : 	if (type && !soap_match_tag(soap, type, "xsd:float"))

	mov	eax, DWORD PTR _soap$[esp+32]
	push	ebx
	push	eax
	mov	edi, OFFSET ??_C@_09ILBLHFBD@xsd?3float?$AA@
	call	_soap_match_tag
	add	esp, 8
	test	eax, eax
	jne	$LN44@soap_insta@9

; 2628 : 	{	cp->type = SOAP_TYPE_xsd__float;
; 2629 : 		if (n < 0)

	xor	ebx, ebx
	cmp	esi, ebx
	mov	DWORD PTR [ebp+8], 12			; 0000000cH
	jge	SHORT $LN43@soap_insta@9

; 2630 : 		{	cp->ptr = (void*)new xsd__float;

	push	16					; 00000010H
	call	??2@YAPAXI@Z				; operator new
	add	esp, 4
	cmp	eax, ebx
	je	SHORT $LN61@soap_insta@9
	xorps	xmm0, xmm0
	mov	DWORD PTR [eax+4], ebx
	mov	DWORD PTR [eax+8], ebx
	mov	DWORD PTR [eax], OFFSET ??_7xsd__float@@6B@
	movss	DWORD PTR [eax+12], xmm0
	jmp	SHORT $LN62@soap_insta@9
$LN61@soap_insta@9:
	xor	eax, eax
$LN62@soap_insta@9:
	mov	DWORD PTR [ebp+4], eax

; 2631 : 			if (!cp->ptr)

	cmp	eax, ebx
	jne	SHORT $LN42@soap_insta@9
$LN129@soap_insta@9:

; 2632 : 			{	soap->error = SOAP_EOM;

	mov	ecx, DWORD PTR _soap$[esp+32]
	mov	DWORD PTR [ecx+90460], 20		; 00000014H

; 2633 : 				return NULL;

	xor	eax, eax

; 2734 : }

	mov	ecx, DWORD PTR __$EHRec$[esp+36]
	mov	DWORD PTR fs:0, ecx
	pop	ecx
	pop	edi
	pop	esi
	pop	ebp
	pop	ebx
	add	esp, 16					; 00000010H
	ret	0
$LN42@soap_insta@9:

; 2634 : 			}
; 2635 : 			if (size)

	mov	eax, DWORD PTR _size$[esp+32]
	cmp	eax, ebx
	je	SHORT $LN41@soap_insta@9

; 2636 : 				*size = sizeof(xsd__float);

	mov	DWORD PTR [eax], 16			; 00000010H
$LN41@soap_insta@9:

; 2637 : 			((xsd__float*)cp->ptr)->soap = soap;

	mov	edx, DWORD PTR [ebp+4]
	mov	eax, DWORD PTR _soap$[esp+32]
	mov	DWORD PTR [edx+8], eax

; 2638 : 		}
; 2639 : 		else

	jmp	$LN1@soap_insta@9
$LN43@soap_insta@9:

; 2640 : 		{	cp->ptr = (void*)new xsd__float[n];

	xor	ecx, ecx
	mov	eax, esi
	mov	edx, 16					; 00000010H
	mul	edx
	seto	cl
	neg	ecx
	or	ecx, eax
	xor	eax, eax
	add	ecx, 4
	setb	al
	neg	eax
	or	eax, ecx
	push	eax
	call	??_U@YAPAXI@Z				; operator new[]
	add	esp, 4
	mov	DWORD PTR $T457939[esp+36], eax
	mov	DWORD PTR __$EHRec$[esp+44], 1
	cmp	eax, ebx
	je	SHORT $LN63@soap_insta@9
	push	OFFSET ??1xsd__float@@UAE@XZ		; xsd__float::~xsd__float
	push	OFFSET ??0xsd__float@@QAE@XZ		; xsd__float::xsd__float
	push	esi
	lea	edi, DWORD PTR [eax+4]
	push	16					; 00000010H
	push	edi
	mov	DWORD PTR [eax], esi
	call	??_L@YGXPAXIHP6EX0@Z1@Z
	jmp	SHORT $LN64@soap_insta@9
$LN63@soap_insta@9:
	xor	edi, edi
$LN64@soap_insta@9:

; 2641 : 			if (size)

	mov	eax, DWORD PTR _size$[esp+32]
	mov	DWORD PTR [ebp+4], edi
	cmp	eax, ebx
	je	SHORT $LN39@soap_insta@9

; 2642 : 				*size = n * sizeof(xsd__float);

	mov	ecx, esi
	shl	ecx, 4
	mov	DWORD PTR [eax], ecx
$LN39@soap_insta@9:

; 2643 : 			for (int i = 0; i < n; i++)

	cmp	esi, ebx
	jle	$LN1@soap_insta@9
	mov	ecx, DWORD PTR _soap$[esp+32]
	xor	eax, eax
	npad	3
$LL38@soap_insta@9:

; 2644 : 				((xsd__float*)cp->ptr)[i].soap = soap;

	mov	edx, DWORD PTR [ebp+4]
	mov	DWORD PTR [edx+eax+8], ecx
	add	eax, 16					; 00000010H
	sub	esi, 1
	jne	SHORT $LL38@soap_insta@9

; 2645 : 		}
; 2646 : 	DBGLOG(TEST, SOAP_MESSAGE(fdebug, "Instantiated location=%p\n", cp->ptr));
; 2647 : 		return (xsd__float*)cp->ptr;

	jmp	$LN1@soap_insta@9
$LN44@soap_insta@9:

; 2648 : 	}
; 2649 : 	if (type && !soap_match_tag(soap, type, "xsd:int"))

	mov	eax, DWORD PTR _soap$[esp+32]
	push	ebx
	push	eax
	mov	edi, OFFSET ??_C@_07PCIGPDP@xsd?3int?$AA@
	call	_soap_match_tag
	add	esp, 8
	test	eax, eax
	jne	$LN35@soap_insta@9

; 2650 : 	{	cp->type = SOAP_TYPE_xsd__int;
; 2651 : 		if (n < 0)

	xor	ebx, ebx
	cmp	esi, ebx
