; Listing generated by Microsoft (R) Optimizing Compiler Version 15.00.30729.01 

	TITLE	c:\Users\CriuS\Documents\Visual Studio 2008\Projects\DRAMsimIIhg\src\reporting\soapClient.cpp
	.686P
	.XMM
	include listing.inc
	.model	flat

INCLUDELIB OLDNAMES

PUBLIC	??_C@_0CF@POEJDBMI@http?3?1?1DRAMsimReporter?1?1getSessi@ ; `string'
PUBLIC	??_C@_0BC@MMOHEKHG@?9ns1?3getSessionID?$AA@	; `string'
PUBLIC	??_C@_0CI@EHMBALD@http?3?1?1DRAMsimReporter?1?1getSetti@ ; `string'
PUBLIC	??_C@_0BF@DGBJONEJ@?9ns1?3getSettingsFile?$AA@	; `string'
PUBLIC	??_C@_0CK@MLDOLCEF@http?3?1?1DRAMsimReporter?1?1submitEp@ ; `string'
PUBLIC	??_C@_0BH@OGGBAHLG@?9ns1?3submitEpochResult?$AA@ ; `string'
;	COMDAT ??_C@_0BH@OGGBAHLG@?9ns1?3submitEpochResult?$AA@
CONST	SEGMENT
??_C@_0BH@OGGBAHLG@?9ns1?3submitEpochResult?$AA@ DB '-ns1:submitEpochResu'
	DB	'lt', 00H					; `string'
CONST	ENDS
;	COMDAT ??_C@_0CK@MLDOLCEF@http?3?1?1DRAMsimReporter?1?1submitEp@
CONST	SEGMENT
??_C@_0CK@MLDOLCEF@http?3?1?1DRAMsimReporter?1?1submitEp@ DB 'http://DRAM'
	DB	'simReporter//submitEpochResult', 00H	; `string'
CONST	ENDS
;	COMDAT ??_C@_0BF@DGBJONEJ@?9ns1?3getSettingsFile?$AA@
CONST	SEGMENT
??_C@_0BF@DGBJONEJ@?9ns1?3getSettingsFile?$AA@ DB '-ns1:getSettingsFile', 00H ; `string'
CONST	ENDS
;	COMDAT ??_C@_0CI@EHMBALD@http?3?1?1DRAMsimReporter?1?1getSetti@
CONST	SEGMENT
??_C@_0CI@EHMBALD@http?3?1?1DRAMsimReporter?1?1getSetti@ DB 'http://DRAMs'
	DB	'imReporter//getSettingsFile', 00H		; `string'
CONST	ENDS
;	COMDAT ??_C@_0BC@MMOHEKHG@?9ns1?3getSessionID?$AA@
CONST	SEGMENT
??_C@_0BC@MMOHEKHG@?9ns1?3getSessionID?$AA@ DB '-ns1:getSessionID', 00H ; `string'
CONST	ENDS
;	COMDAT ??_C@_0CF@POEJDBMI@http?3?1?1DRAMsimReporter?1?1getSessi@
CONST	SEGMENT
??_C@_0CF@POEJDBMI@http?3?1?1DRAMsimReporter?1?1getSessi@ DB 'http://DRAM'
	DB	'simReporter//getSessionID', 00H		; `string'
__bad_alloc_Message DD FLAT:??_C@_0P@GHFPNOJB@bad?5allocation?$AA@
PUBLIC	?soap_call___ns1__submitEpochResult@@YAHPAUsoap@@PBD1PAV_ns2__submitEpochResultElement@@PAV_ns2__submitEpochResultResponseElement@@@Z ; soap_call___ns1__submitEpochResult
; Function compile flags: /Ogtpy
; File c:\users\crius\documents\visual studio 2008\projects\dramsimiihg\src\reporting\soapclient.cpp
_TEXT	SEGMENT
_soap_tmp___ns1__submitEpochResult$ = 8			; size = 4
_soap_endpoint$ = 8					; size = 4
_ns2__submitEpochResultResponseElement$ = 12		; size = 4
?soap_call___ns1__submitEpochResult@@YAHPAUsoap@@PBD1PAV_ns2__submitEpochResultElement@@PAV_ns2__submitEpochResultResponseElement@@@Z PROC ; soap_call___ns1__submitEpochResult
; _soap$ = ecx
; _ns2__submitEpochResultElement$ = eax

; 121  : {	struct __ns1__submitEpochResult soap_tmp___ns1__submitEpochResult;

	push	ecx
	push	ebx
	mov	ebx, DWORD PTR _soap_endpoint$[esp+4]
	push	ebp
	mov	ebp, DWORD PTR _ns2__submitEpochResultResponseElement$[esp+8]
	push	esi
	push	edi
	mov	edi, eax
	mov	esi, ecx

; 122  : 	if (!soap_endpoint)

	test	ebx, ebx
	jne	SHORT $LN29@soap_call_

; 123  : 		soap_endpoint = "http://id2.gentag.com:7777/DRAMsim/DRAMsimWSSoapHttpPort";

	mov	ebx, OFFSET ??_C@_0DJ@LMOMBNJL@http?3?1?1id2?4gentag?4com?37777?1DRAMs@
$LN29@soap_call_:

; 124  : 	if (!soap_action)
; 125  : 		soap_action = "http://DRAMsimReporter//submitEpochResult";
; 126  : 	soap->encodingStyle = NULL;
; 127  : 	soap_tmp___ns1__submitEpochResult.ns2__submitEpochResultElement = ns2__submitEpochResultElement;
; 128  : 	soap_begin(soap);

	mov	eax, esi
	mov	DWORD PTR [esi+40], 0
	mov	DWORD PTR _soap_tmp___ns1__submitEpochResult$[esp+16], edi
	call	_soap_begin

; 129  : 	soap_serializeheader(soap);
; 130  : 	soap_serialize___ns1__submitEpochResult(soap, &soap_tmp___ns1__submitEpochResult);

	push	esi
	mov	eax, 23					; 00000017H
	mov	ecx, edi
	call	_soap_reference
	add	esp, 4
	test	eax, eax
	jne	SHORT $LN21@soap_call_
	mov	eax, DWORD PTR [edi]
	mov	edx, DWORD PTR [eax+8]
	push	esi
	mov	ecx, edi
	call	edx
$LN21@soap_call_:

; 131  : 	if (soap_begin_count(soap))

	call	_soap_begin_count
	test	eax, eax
	je	SHORT $LN14@soap_call_
$LN11@soap_call_:

; 132  : 		return soap->error;

	mov	eax, DWORD PTR [esi+90460]

; 170  : 		return soap_closesock(soap);
; 171  : 	return soap_closesock(soap);
; 172  : }

	pop	edi
	pop	esi
	pop	ebp
	pop	ebx
	pop	ecx
	ret	0
$LN14@soap_call_:

; 133  : 	if (soap->mode & SOAP_IO_LENGTH)

	test	BYTE PTR [esi+8], 8
	je	SHORT $LN12@soap_call_

; 134  : 	{	if (soap_envelope_begin_out(soap)
; 135  : 		 || soap_putheader(soap)
; 136  : 		 || soap_body_begin_out(soap)
; 137  : 		 || soap_put___ns1__submitEpochResult(soap, &soap_tmp___ns1__submitEpochResult, "-ns1:submitEpochResult", "")
; 138  : 		 || soap_body_end_out(soap)
; 139  : 		 || soap_envelope_end_out(soap))

	mov	eax, esi
	call	_soap_envelope_begin_out
	test	eax, eax
	jne	SHORT $LN11@soap_call_
	call	_soap_putheader
	test	eax, eax
	jne	SHORT $LN11@soap_call_
	mov	eax, esi
	call	_soap_body_begin_out
	test	eax, eax
	jne	SHORT $LN11@soap_call_
	lea	eax, DWORD PTR _soap_tmp___ns1__submitEpochResult$[esp+16]
	call	?soap_put___ns1__submitEpochResult@@YAHPAUsoap@@PBU__ns1__submitEpochResult@@PBD2@Z ; soap_put___ns1__submitEpochResult
	test	eax, eax
	jne	SHORT $LN11@soap_call_
	mov	edi, esi
	call	_soap_body_end_out
	test	eax, eax
	jne	SHORT $LN11@soap_call_
	call	_soap_envelope_end_out
	test	eax, eax

; 140  : 			 return soap->error;

	jne	SHORT $LN11@soap_call_
$LN12@soap_call_:

; 141  : 	}
; 142  : 	if (soap_end_count(soap))

	mov	eax, DWORD PTR [esi+12352]
	test	eax, eax
	je	SHORT $LN10@soap_call_
	push	esi
	call	eax
	add	esp, 4
	mov	DWORD PTR [esi+90460], eax
	test	eax, eax

; 143  : 		return soap->error;

	jne	$LN17@soap_call_
$LN10@soap_call_:

; 144  : 	if (soap_connect(soap, soap_endpoint, soap_action)
; 145  : 	 || soap_envelope_begin_out(soap)
; 146  : 	 || soap_putheader(soap)
; 147  : 	 || soap_body_begin_out(soap)
; 148  : 	 || soap_put___ns1__submitEpochResult(soap, &soap_tmp___ns1__submitEpochResult, "-ns1:submitEpochResult", "")
; 149  : 	 || soap_body_end_out(soap)
; 150  : 	 || soap_envelope_end_out(soap)
; 151  : 	 || soap_end_send(soap))

	push	OFFSET ??_C@_0CK@MLDOLCEF@http?3?1?1DRAMsimReporter?1?1submitEp@
	push	ebx
	mov	ecx, esi
	call	_soap_connect_command
	add	esp, 8
	test	eax, eax
	jne	$LN8@soap_call_
	mov	eax, esi
	call	_soap_envelope_begin_out
	test	eax, eax
	jne	$LN8@soap_call_
	call	_soap_putheader
	test	eax, eax
	jne	$LN8@soap_call_
	mov	eax, esi
	call	_soap_body_begin_out
	test	eax, eax
	jne	$LN8@soap_call_
	lea	eax, DWORD PTR _soap_tmp___ns1__submitEpochResult$[esp+16]
	call	?soap_put___ns1__submitEpochResult@@YAHPAUsoap@@PBU__ns1__submitEpochResult@@PBD2@Z ; soap_put___ns1__submitEpochResult
	test	eax, eax
	jne	$LN8@soap_call_
	mov	edi, esi
	call	_soap_body_end_out
	test	eax, eax
	jne	$LN8@soap_call_
	call	_soap_envelope_end_out
	test	eax, eax
	jne	$LN8@soap_call_
	mov	eax, esi
	call	_soap_end_send
	test	eax, eax
	jne	$LN8@soap_call_

; 153  : 	if (!ns2__submitEpochResultResponseElement)

	test	ebp, ebp

; 154  : 		return soap_closesock(soap);

	je	$LN8@soap_call_

; 155  : 	ns2__submitEpochResultResponseElement->soap_default(soap);

	mov	eax, DWORD PTR [ebp]
	mov	edx, DWORD PTR [eax+4]
	push	esi
	mov	ecx, ebp
	call	edx

; 156  : 	if (soap_begin_recv(soap)
; 157  : 	 || soap_envelope_begin_in(soap)
; 158  : 	 || soap_recv_header(soap)
; 159  : 	 || soap_body_begin_in(soap))

	mov	eax, esi
	call	_soap_begin_recv
	test	eax, eax
	jne	SHORT $LN8@soap_call_
	mov	eax, esi
	call	_soap_envelope_begin_in
	test	eax, eax
	jne	SHORT $LN8@soap_call_
	call	_soap_recv_header
	test	eax, eax
	jne	SHORT $LN8@soap_call_
	mov	eax, esi
	call	_soap_body_begin_in
	test	eax, eax
	jne	SHORT $LN8@soap_call_

; 160  : 		return soap_closesock(soap);
; 161  : 	ns2__submitEpochResultResponseElement->soap_get(soap, "ns2:submitEpochResultResponseElement", "");

	mov	eax, DWORD PTR [ebp]
	mov	edx, DWORD PTR [eax+20]
	push	OFFSET ??_C@_00CNPNBAHC@?$AA@
	push	OFFSET ??_C@_0CF@HCKJIEH@ns2?3submitEpochResultResponseEle@
	push	esi
	mov	ecx, ebp
	call	edx

; 162  : 	if (soap->error)

	mov	eax, DWORD PTR [esi+90460]
	test	eax, eax
	je	SHORT $LN4@soap_call_

; 163  : 	{	if (soap->error == SOAP_TAG_MISMATCH && soap->level == 2)

	cmp	eax, 3
	jne	SHORT $LN8@soap_call_
	cmp	DWORD PTR [esi+12444], 2
	jne	SHORT $LN8@soap_call_

; 164  : 			return soap_recv_fault(soap);

	mov	eax, esi
	call	_soap_recv_fault

; 170  : 		return soap_closesock(soap);
; 171  : 	return soap_closesock(soap);
; 172  : }

	pop	edi
	pop	esi
	pop	ebp
	pop	ebx
	pop	ecx
	ret	0
$LN4@soap_call_:

; 165  : 		return soap_closesock(soap);
; 166  : 	}
; 167  : 	if (soap_body_end_in(soap)
; 168  : 	 || soap_envelope_end_in(soap)
; 169  : 	 || soap_end_recv(soap))

	mov	eax, esi
	call	_soap_body_end_in
	test	eax, eax
	jne	SHORT $LN8@soap_call_
	mov	eax, esi
	call	_soap_envelope_end_in
	test	eax, eax
	jne	SHORT $LN8@soap_call_
	mov	eax, esi
	call	_soap_end_recv
$LN8@soap_call_:

; 152  : 		return soap_closesock(soap);

	call	_soap_closesock
$LN17@soap_call_:

; 170  : 		return soap_closesock(soap);
; 171  : 	return soap_closesock(soap);
; 172  : }

	pop	edi
	pop	esi
	pop	ebp
	pop	ebx
	pop	ecx
	ret	0
?soap_call___ns1__submitEpochResult@@YAHPAUsoap@@PBD1PAV_ns2__submitEpochResultElement@@PAV_ns2__submitEpochResultResponseElement@@@Z ENDP ; soap_call___ns1__submitEpochResult
_TEXT	ENDS
PUBLIC	?soap_call___ns1__getSettingsFile@@YAHPAUsoap@@PBD1PAV_ns2__getSettingsFileElement@@PAV_ns2__getSettingsFileResponseElement@@@Z ; soap_call___ns1__getSettingsFile
; Function compile flags: /Ogtpy
_TEXT	SEGMENT
_soap_tmp___ns1__getSettingsFile$ = 8			; size = 4
_soap_endpoint$ = 8					; size = 4
_ns2__getSettingsFileResponseElement$ = 12		; size = 4
?soap_call___ns1__getSettingsFile@@YAHPAUsoap@@PBD1PAV_ns2__getSettingsFileElement@@PAV_ns2__getSettingsFileResponseElement@@@Z PROC ; soap_call___ns1__getSettingsFile
; _soap$ = ecx
; _ns2__getSettingsFileElement$ = eax

; 67   : {	struct __ns1__getSettingsFile soap_tmp___ns1__getSettingsFile;

	push	ebx
	mov	ebx, DWORD PTR _soap_endpoint$[esp]
	push	ebp
	mov	ebp, DWORD PTR _ns2__getSettingsFileResponseElement$[esp+4]
	push	esi
	push	edi
	mov	edi, eax
	mov	esi, ecx

; 68   : 	if (!soap_endpoint)

	test	ebx, ebx
	jne	SHORT $LN29@soap_call_@2

; 69   : 		soap_endpoint = "http://id2.gentag.com:7777/DRAMsim/DRAMsimWSSoapHttpPort";

	mov	ebx, OFFSET ??_C@_0DJ@LMOMBNJL@http?3?1?1id2?4gentag?4com?37777?1DRAMs@
$LN29@soap_call_@2:

; 70   : 	if (!soap_action)
; 71   : 		soap_action = "http://DRAMsimReporter//getSettingsFile";
; 72   : 	soap->encodingStyle = NULL;
; 73   : 	soap_tmp___ns1__getSettingsFile.ns2__getSettingsFileElement = ns2__getSettingsFileElement;
; 74   : 	soap_begin(soap);

	mov	eax, esi
	mov	DWORD PTR [esi+40], 0
	mov	DWORD PTR _soap_tmp___ns1__getSettingsFile$[esp+12], edi
	call	_soap_begin

; 75   : 	soap_serializeheader(soap);
; 76   : 	soap_serialize___ns1__getSettingsFile(soap, &soap_tmp___ns1__getSettingsFile);

	push	esi
	mov	eax, 21					; 00000015H
	mov	ecx, edi
	call	_soap_reference
	add	esp, 4
	test	eax, eax
	jne	SHORT $LN21@soap_call_@2
	mov	eax, DWORD PTR [edi]
	mov	edx, DWORD PTR [eax+8]
	push	esi
	mov	ecx, edi
	call	edx
$LN21@soap_call_@2:

; 77   : 	if (soap_begin_count(soap))

	call	_soap_begin_count
	test	eax, eax
	je	SHORT $LN14@soap_call_@2
$LN11@soap_call_@2:

; 78   : 		return soap->error;

	mov	eax, DWORD PTR [esi+90460]
	pop	edi
	pop	esi
	pop	ebp
	pop	ebx

; 116  : 		return soap_closesock(soap);
; 117  : 	return soap_closesock(soap);
; 118  : }

	ret	0
$LN14@soap_call_@2:

; 79   : 	if (soap->mode & SOAP_IO_LENGTH)

	test	BYTE PTR [esi+8], 8
	je	SHORT $LN12@soap_call_@2

; 80   : 	{	if (soap_envelope_begin_out(soap)
; 81   : 		 || soap_putheader(soap)
; 82   : 		 || soap_body_begin_out(soap)
; 83   : 		 || soap_put___ns1__getSettingsFile(soap, &soap_tmp___ns1__getSettingsFile, "-ns1:getSettingsFile", "")
; 84   : 		 || soap_body_end_out(soap)
; 85   : 		 || soap_envelope_end_out(soap))

	mov	eax, esi
	call	_soap_envelope_begin_out
	test	eax, eax
	jne	SHORT $LN11@soap_call_@2
	call	_soap_putheader
	test	eax, eax
	jne	SHORT $LN11@soap_call_@2
	mov	eax, esi
	call	_soap_body_begin_out
	test	eax, eax
	jne	SHORT $LN11@soap_call_@2
	lea	eax, DWORD PTR _soap_tmp___ns1__getSettingsFile$[esp+12]
	call	?soap_put___ns1__getSettingsFile@@YAHPAUsoap@@PBU__ns1__getSettingsFile@@PBD2@Z ; soap_put___ns1__getSettingsFile
	test	eax, eax
	jne	SHORT $LN11@soap_call_@2
	mov	edi, esi
	call	_soap_body_end_out
	test	eax, eax
	jne	SHORT $LN11@soap_call_@2
	call	_soap_envelope_end_out
	test	eax, eax

; 86   : 			 return soap->error;

	jne	SHORT $LN11@soap_call_@2
$LN12@soap_call_@2:

; 87   : 	}
; 88   : 	if (soap_end_count(soap))

	mov	eax, DWORD PTR [esi+12352]
	test	eax, eax
	je	SHORT $LN10@soap_call_@2
	push	esi
	call	eax
	add	esp, 4
	mov	DWORD PTR [esi+90460], eax
	test	eax, eax

; 89   : 		return soap->error;

	jne	$LN17@soap_call_@2
$LN10@soap_call_@2:

; 90   : 	if (soap_connect(soap, soap_endpoint, soap_action)
; 91   : 	 || soap_envelope_begin_out(soap)
; 92   : 	 || soap_putheader(soap)
; 93   : 	 || soap_body_begin_out(soap)
; 94   : 	 || soap_put___ns1__getSettingsFile(soap, &soap_tmp___ns1__getSettingsFile, "-ns1:getSettingsFile", "")
; 95   : 	 || soap_body_end_out(soap)
; 96   : 	 || soap_envelope_end_out(soap)
; 97   : 	 || soap_end_send(soap))

	push	OFFSET ??_C@_0CI@EHMBALD@http?3?1?1DRAMsimReporter?1?1getSetti@
	push	ebx
	mov	ecx, esi
	call	_soap_connect_command
	add	esp, 8
	test	eax, eax
	jne	$LN8@soap_call_@2
	mov	eax, esi
	call	_soap_envelope_begin_out
	test	eax, eax
	jne	$LN8@soap_call_@2
	call	_soap_putheader
	test	eax, eax
	jne	$LN8@soap_call_@2
	mov	eax, esi
	call	_soap_body_begin_out
	test	eax, eax
	jne	$LN8@soap_call_@2
	lea	eax, DWORD PTR _soap_tmp___ns1__getSettingsFile$[esp+12]
	call	?soap_put___ns1__getSettingsFile@@YAHPAUsoap@@PBU__ns1__getSettingsFile@@PBD2@Z ; soap_put___ns1__getSettingsFile
	test	eax, eax
	jne	$LN8@soap_call_@2
	mov	edi, esi
	call	_soap_body_end_out
	test	eax, eax
	jne	$LN8@soap_call_@2
	call	_soap_envelope_end_out
	test	eax, eax
	jne	$LN8@soap_call_@2
	mov	eax, esi
	call	_soap_end_send
	test	eax, eax
	jne	$LN8@soap_call_@2

; 99   : 	if (!ns2__getSettingsFileResponseElement)

	test	ebp, ebp

; 100  : 		return soap_closesock(soap);

	je	$LN8@soap_call_@2

; 101  : 	ns2__getSettingsFileResponseElement->soap_default(soap);

	mov	eax, DWORD PTR [ebp]
	mov	edx, DWORD PTR [eax+4]
	push	esi
	mov	ecx, ebp
	call	edx

; 102  : 	if (soap_begin_recv(soap)
; 103  : 	 || soap_envelope_begin_in(soap)
; 104  : 	 || soap_recv_header(soap)
; 105  : 	 || soap_body_begin_in(soap))

	mov	eax, esi
	call	_soap_begin_recv
	test	eax, eax
	jne	SHORT $LN8@soap_call_@2
	mov	eax, esi
	call	_soap_envelope_begin_in
	test	eax, eax
	jne	SHORT $LN8@soap_call_@2
	call	_soap_recv_header
	test	eax, eax
	jne	SHORT $LN8@soap_call_@2
	mov	eax, esi
	call	_soap_body_begin_in
	test	eax, eax
	jne	SHORT $LN8@soap_call_@2

; 106  : 		return soap_closesock(soap);
; 107  : 	ns2__getSettingsFileResponseElement->soap_get(soap, "ns2:getSettingsFileResponseElement", "");

	mov	eax, DWORD PTR [ebp]
	mov	edx, DWORD PTR [eax+20]
	push	OFFSET ??_C@_00CNPNBAHC@?$AA@
	push	OFFSET ??_C@_0CD@GADHDKNA@ns2?3getSettingsFileResponseEleme@
	push	esi
	mov	ecx, ebp
	call	edx

; 108  : 	if (soap->error)

	mov	eax, DWORD PTR [esi+90460]
	test	eax, eax
	je	SHORT $LN4@soap_call_@2

; 109  : 	{	if (soap->error == SOAP_TAG_MISMATCH && soap->level == 2)

	cmp	eax, 3
	jne	SHORT $LN8@soap_call_@2
	cmp	DWORD PTR [esi+12444], 2
	jne	SHORT $LN8@soap_call_@2
	pop	edi

; 110  : 			return soap_recv_fault(soap);

	mov	eax, esi
	pop	esi
	pop	ebp
	pop	ebx
	jmp	_soap_recv_fault
$LN4@soap_call_@2:

; 111  : 		return soap_closesock(soap);
; 112  : 	}
; 113  : 	if (soap_body_end_in(soap)
; 114  : 	 || soap_envelope_end_in(soap)
; 115  : 	 || soap_end_recv(soap))

	mov	eax, esi
	call	_soap_body_end_in
	test	eax, eax
	jne	SHORT $LN8@soap_call_@2
	mov	eax, esi
	call	_soap_envelope_end_in
	test	eax, eax
	jne	SHORT $LN8@soap_call_@2
	mov	eax, esi
	call	_soap_end_recv
$LN8@soap_call_@2:

; 98   : 		return soap_closesock(soap);

	call	_soap_closesock
$LN17@soap_call_@2:
	pop	edi
	pop	esi
	pop	ebp
	pop	ebx

; 116  : 		return soap_closesock(soap);
; 117  : 	return soap_closesock(soap);
; 118  : }

	ret	0
?soap_call___ns1__getSettingsFile@@YAHPAUsoap@@PBD1PAV_ns2__getSettingsFileElement@@PAV_ns2__getSettingsFileResponseElement@@@Z ENDP ; soap_call___ns1__getSettingsFile
_TEXT	ENDS
PUBLIC	?soap_call___ns1__getSessionID@@YAHPAUsoap@@PBD1PAV_ns2__getSessionIDElement@@PAV_ns2__getSessionIDResponseElement@@@Z ; soap_call___ns1__getSessionID
; Function compile flags: /Ogtpy
_TEXT	SEGMENT
_soap_tmp___ns1__getSessionID$ = 8			; size = 4
_soap_endpoint$ = 8					; size = 4
_ns2__getSessionIDResponseElement$ = 12			; size = 4
?soap_call___ns1__getSessionID@@YAHPAUsoap@@PBD1PAV_ns2__getSessionIDElement@@PAV_ns2__getSessionIDResponseElement@@@Z PROC ; soap_call___ns1__getSessionID
; _soap$ = ecx
; _ns2__getSessionIDElement$ = eax

; 13   : {	struct __ns1__getSessionID soap_tmp___ns1__getSessionID;

	push	ebx
	mov	ebx, DWORD PTR _soap_endpoint$[esp]
	push	ebp
	mov	ebp, DWORD PTR _ns2__getSessionIDResponseElement$[esp+4]
	push	esi
	push	edi
	mov	edi, eax
	mov	esi, ecx

; 14   : 	if (!soap_endpoint)

	test	ebx, ebx
	jne	SHORT $LN29@soap_call_@3

; 15   : 		soap_endpoint = "http://id2.gentag.com:7777/DRAMsim/DRAMsimWSSoapHttpPort";

	mov	ebx, OFFSET ??_C@_0DJ@LMOMBNJL@http?3?1?1id2?4gentag?4com?37777?1DRAMs@
$LN29@soap_call_@3:

; 16   : 	if (!soap_action)
; 17   : 		soap_action = "http://DRAMsimReporter//getSessionID";
; 18   : 	soap->encodingStyle = NULL;
; 19   : 	soap_tmp___ns1__getSessionID.ns2__getSessionIDElement = ns2__getSessionIDElement;
; 20   : 	soap_begin(soap);

	mov	eax, esi
	mov	DWORD PTR [esi+40], 0
	mov	DWORD PTR _soap_tmp___ns1__getSessionID$[esp+12], edi
	call	_soap_begin

; 21   : 	soap_serializeheader(soap);
; 22   : 	soap_serialize___ns1__getSessionID(soap, &soap_tmp___ns1__getSessionID);

	push	esi
	mov	eax, 19					; 00000013H
	mov	ecx, edi
	call	_soap_reference
	add	esp, 4
	test	eax, eax
	jne	SHORT $LN21@soap_call_@3
	mov	eax, DWORD PTR [edi]
	mov	edx, DWORD PTR [eax+8]
	push	esi
	mov	ecx, edi
	call	edx
$LN21@soap_call_@3:

; 23   : 	if (soap_begin_count(soap))

	call	_soap_begin_count
	test	eax, eax
	je	SHORT $LN14@soap_call_@3
$LN11@soap_call_@3:

; 24   : 		return soap->error;

	mov	eax, DWORD PTR [esi+90460]
	pop	edi
	pop	esi
	pop	ebp
	pop	ebx

; 62   : 		return soap_closesock(soap);
; 63   : 	return soap_closesock(soap);
; 64   : }

	ret	0
$LN14@soap_call_@3:

; 25   : 	if (soap->mode & SOAP_IO_LENGTH)

	test	BYTE PTR [esi+8], 8
	je	SHORT $LN12@soap_call_@3

; 26   : 	{	if (soap_envelope_begin_out(soap)
; 27   : 		 || soap_putheader(soap)
; 28   : 		 || soap_body_begin_out(soap)
; 29   : 		 || soap_put___ns1__getSessionID(soap, &soap_tmp___ns1__getSessionID, "-ns1:getSessionID", "")
; 30   : 		 || soap_body_end_out(soap)
; 31   : 		 || soap_envelope_end_out(soap))

	mov	eax, esi
	call	_soap_envelope_begin_out
	test	eax, eax
	jne	SHORT $LN11@soap_call_@3
	call	_soap_putheader
	test	eax, eax
	jne	SHORT $LN11@soap_call_@3
	mov	eax, esi
	call	_soap_body_begin_out
	test	eax, eax
	jne	SHORT $LN11@soap_call_@3
	lea	eax, DWORD PTR _soap_tmp___ns1__getSessionID$[esp+12]
	call	?soap_put___ns1__getSessionID@@YAHPAUsoap@@PBU__ns1__getSessionID@@PBD2@Z ; soap_put___ns1__getSessionID
	test	eax, eax
	jne	SHORT $LN11@soap_call_@3
	mov	edi, esi
	call	_soap_body_end_out
	test	eax, eax
	jne	SHORT $LN11@soap_call_@3
	call	_soap_envelope_end_out
	test	eax, eax

; 32   : 			 return soap->error;

	jne	SHORT $LN11@soap_call_@3
$LN12@soap_call_@3:

; 33   : 	}
; 34   : 	if (soap_end_count(soap))

	mov	eax, DWORD PTR [esi+12352]
	test	eax, eax
	je	SHORT $LN10@soap_call_@3
	push	esi
	call	eax
	add	esp, 4
	mov	DWORD PTR [esi+90460], eax
	test	eax, eax

; 35   : 		return soap->error;

	jne	$LN17@soap_call_@3
$LN10@soap_call_@3:

; 36   : 	if (soap_connect(soap, soap_endpoint, soap_action)
; 37   : 	 || soap_envelope_begin_out(soap)
; 38   : 	 || soap_putheader(soap)
; 39   : 	 || soap_body_begin_out(soap)
; 40   : 	 || soap_put___ns1__getSessionID(soap, &soap_tmp___ns1__getSessionID, "-ns1:getSessionID", "")
; 41   : 	 || soap_body_end_out(soap)
; 42   : 	 || soap_envelope_end_out(soap)
; 43   : 	 || soap_end_send(soap))

	push	OFFSET ??_C@_0CF@POEJDBMI@http?3?1?1DRAMsimReporter?1?1getSessi@
	push	ebx
	mov	ecx, esi
	call	_soap_connect_command
	add	esp, 8
	test	eax, eax
	jne	$LN8@soap_call_@3
	mov	eax, esi
	call	_soap_envelope_begin_out
	test	eax, eax
	jne	$LN8@soap_call_@3
	call	_soap_putheader
	test	eax, eax
	jne	$LN8@soap_call_@3
	mov	eax, esi
	call	_soap_body_begin_out
	test	eax, eax
	jne	$LN8@soap_call_@3
	lea	eax, DWORD PTR _soap_tmp___ns1__getSessionID$[esp+12]
	call	?soap_put___ns1__getSessionID@@YAHPAUsoap@@PBU__ns1__getSessionID@@PBD2@Z ; soap_put___ns1__getSessionID
	test	eax, eax
	jne	$LN8@soap_call_@3
	mov	edi, esi
	call	_soap_body_end_out
	test	eax, eax
	jne	$LN8@soap_call_@3
	call	_soap_envelope_end_out
	test	eax, eax
	jne	$LN8@soap_call_@3
	mov	eax, esi
	call	_soap_end_send
	test	eax, eax
	jne	$LN8@soap_call_@3

; 45   : 	if (!ns2__getSessionIDResponseElement)

	test	ebp, ebp

; 46   : 		return soap_closesock(soap);

	je	$LN8@soap_call_@3

; 47   : 	ns2__getSessionIDResponseElement->soap_default(soap);

	mov	eax, DWORD PTR [ebp]
	mov	edx, DWORD PTR [eax+4]
	push	esi
	mov	ecx, ebp
	call	edx

; 48   : 	if (soap_begin_recv(soap)
; 49   : 	 || soap_envelope_begin_in(soap)
; 50   : 	 || soap_recv_header(soap)
; 51   : 	 || soap_body_begin_in(soap))

	mov	eax, esi
	call	_soap_begin_recv
	test	eax, eax
	jne	SHORT $LN8@soap_call_@3
	mov	eax, esi
	call	_soap_envelope_begin_in
	test	eax, eax
	jne	SHORT $LN8@soap_call_@3
	call	_soap_recv_header
	test	eax, eax
	jne	SHORT $LN8@soap_call_@3
	mov	eax, esi
	call	_soap_body_begin_in
	test	eax, eax
	jne	SHORT $LN8@soap_call_@3

; 52   : 		return soap_closesock(soap);
; 53   : 	ns2__getSessionIDResponseElement->soap_get(soap, "ns2:getSessionIDResponseElement", "");

	mov	eax, DWORD PTR [ebp]
	mov	edx, DWORD PTR [eax+20]
	push	OFFSET ??_C@_00CNPNBAHC@?$AA@
	push	OFFSET ??_C@_0CA@KPMHIEOJ@ns2?3getSessionIDResponseElement?$AA@
	push	esi
	mov	ecx, ebp
	call	edx

; 54   : 	if (soap->error)

	mov	eax, DWORD PTR [esi+90460]
	test	eax, eax
	je	SHORT $LN4@soap_call_@3

; 55   : 	{	if (soap->error == SOAP_TAG_MISMATCH && soap->level == 2)

	cmp	eax, 3
	jne	SHORT $LN8@soap_call_@3
	cmp	DWORD PTR [esi+12444], 2
	jne	SHORT $LN8@soap_call_@3
	pop	edi

; 56   : 			return soap_recv_fault(soap);

	mov	eax, esi
	pop	esi
	pop	ebp
	pop	ebx
	jmp	_soap_recv_fault
$LN4@soap_call_@3:

; 57   : 		return soap_closesock(soap);
; 58   : 	}
; 59   : 	if (soap_body_end_in(soap)
; 60   : 	 || soap_envelope_end_in(soap)
; 61   : 	 || soap_end_recv(soap))

	mov	eax, esi
	call	_soap_body_end_in
	test	eax, eax
	jne	SHORT $LN8@soap_call_@3
	mov	eax, esi
	call	_soap_envelope_end_in
	test	eax, eax
	jne	SHORT $LN8@soap_call_@3
	mov	eax, esi
	call	_soap_end_recv
$LN8@soap_call_@3:

; 44   : 		return soap_closesock(soap);

	call	_soap_closesock
$LN17@soap_call_@3:
	pop	edi
	pop	esi
	pop	ebp
	pop	ebx

; 62   : 		return soap_closesock(soap);
; 63   : 	return soap_closesock(soap);
; 64   : }

	ret	0
?soap_call___ns1__getSessionID@@YAHPAUsoap@@PBD1PAV_ns2__getSessionIDElement@@PAV_ns2__getSessionIDResponseElement@@@Z ENDP ; soap_call___ns1__getSessionID
END
