; Listing generated by Microsoft (R) Optimizing Compiler Version 15.00.30729.01 

	TITLE	c:\Users\CriuS\Documents\Visual Studio 2008\Projects\DRAMsimIIhg\src\Statistics.cpp
	.686P
	.XMM
	include listing.inc
	.model	flat

INCLUDELIB OLDNAMES

PUBLIC	?capacity@?$vector@IV?$allocator@I@std@@@std@@QBEIXZ ; std::vector<unsigned int,std::allocator<unsigned int> >::capacity
PUBLIC	?_Checked_iterator_base@?$_Vector_iterator@IV?$allocator@I@std@@@std@@QBEPAIXZ ; std::_Vector_iterator<unsigned int,std::allocator<unsigned int> >::_Checked_iterator_base
PUBLIC	??$_Checked_base@V?$_Vector_iterator@IV?$allocator@I@std@@@std@@U_Different_checked_iterator_base_type_tag@2@@std@@YAPAIAAV?$_Vector_iterator@IV?$allocator@I@std@@@0@U_Different_checked_iterator_base_type_tag@0@@Z ; std::_Checked_base<std::_Vector_iterator<unsigned int,std::allocator<unsigned int> >,std::_Different_checked_iterator_base_type_tag>
PUBLIC	??$_Checked_base@V?$_Vector_iterator@IV?$allocator@I@std@@@std@@@std@@YAPAIAAV?$_Vector_iterator@IV?$allocator@I@std@@@0@@Z ; std::_Checked_base<std::_Vector_iterator<unsigned int,std::allocator<unsigned int> > >
PUBLIC	??$_Move_cat@PAI@std@@YA?AU_Undefined_move_tag@0@ABQAI@Z ; std::_Move_cat<unsigned int *>
PUBLIC	??$_Uninit_copy@PAIPAIV?$allocator@I@std@@@std@@YAPAIPAI00AAV?$allocator@I@0@U_Scalar_ptr_iterator_tag@0@U_Range_checked_iterator_tag@0@@Z ; std::_Uninit_copy<unsigned int *,unsigned int *,std::allocator<unsigned int> >
PUBLIC	??$unchecked_uninitialized_copy@PAIPAIV?$allocator@I@std@@@stdext@@YAPAIPAI00AAV?$allocator@I@std@@@Z ; stdext::unchecked_uninitialized_copy<unsigned int *,unsigned int *,std::allocator<unsigned int> >
PUBLIC	??$_Uninit_move@PAIPAIV?$allocator@I@std@@U_Undefined_move_tag@2@@std@@YAPAIPAI00AAV?$allocator@I@0@U_Undefined_move_tag@0@U_Range_checked_iterator_tag@0@@Z ; std::_Uninit_move<unsigned int *,unsigned int *,std::allocator<unsigned int>,std::_Undefined_move_tag>
PUBLIC	??$_Unchecked_uninitialized_move@V?$_Vector_iterator@IV?$allocator@I@std@@@std@@PAIV?$allocator@I@2@@stdext@@YAPAIV?$_Vector_iterator@IV?$allocator@I@std@@@std@@0PAIAAV?$allocator@I@2@@Z ; stdext::_Unchecked_uninitialized_move<std::_Vector_iterator<unsigned int,std::allocator<unsigned int> >,unsigned int *,std::allocator<unsigned int> >
PUBLIC	??$_Umove@V?$_Vector_iterator@IV?$allocator@I@std@@@std@@@?$vector@IV?$allocator@I@std@@@std@@IAEPAIV?$_Vector_iterator@IV?$allocator@I@std@@@1@0PAI@Z ; std::vector<unsigned int,std::allocator<unsigned int> >::_Umove<std::_Vector_iterator<unsigned int,std::allocator<unsigned int> > >
PUBLIC	?reserve@?$vector@IV?$allocator@I@std@@@std@@QAEXI@Z ; std::vector<unsigned int,std::allocator<unsigned int> >::reserve
PUBLIC	?_Checked_iterator_base@?$_Vector_iterator@_JV?$allocator@_J@std@@@std@@QBEPA_JXZ ; std::_Vector_iterator<__int64,std::allocator<__int64> >::_Checked_iterator_base
PUBLIC	??$_Checked_base@V?$_Vector_iterator@_JV?$allocator@_J@std@@@std@@U_Different_checked_iterator_base_type_tag@2@@std@@YAPA_JAAV?$_Vector_iterator@_JV?$allocator@_J@std@@@0@U_Different_checked_iterator_base_type_tag@0@@Z ; std::_Checked_base<std::_Vector_iterator<__int64,std::allocator<__int64> >,std::_Different_checked_iterator_base_type_tag>
PUBLIC	??$_Checked_base@V?$_Vector_iterator@_JV?$allocator@_J@std@@@std@@@std@@YAPA_JAAV?$_Vector_iterator@_JV?$allocator@_J@std@@@0@@Z ; std::_Checked_base<std::_Vector_iterator<__int64,std::allocator<__int64> > >
PUBLIC	??$_Move_cat@PA_J@std@@YA?AU_Undefined_move_tag@0@ABQA_J@Z ; std::_Move_cat<__int64 *>
PUBLIC	??$_Uninit_move@PA_JPA_JV?$allocator@_J@std@@U_Undefined_move_tag@2@@std@@YAPA_JPA_J00AAV?$allocator@_J@0@U_Undefined_move_tag@0@U_Range_checked_iterator_tag@0@@Z ; std::_Uninit_move<__int64 *,__int64 *,std::allocator<__int64>,std::_Undefined_move_tag>
PUBLIC	??$_Unchecked_uninitialized_move@V?$_Vector_iterator@_JV?$allocator@_J@std@@@std@@PA_JV?$allocator@_J@2@@stdext@@YAPA_JV?$_Vector_iterator@_JV?$allocator@_J@std@@@std@@0PA_JAAV?$allocator@_J@2@@Z ; stdext::_Unchecked_uninitialized_move<std::_Vector_iterator<__int64,std::allocator<__int64> >,__int64 *,std::allocator<__int64> >
PUBLIC	??$_Umove@V?$_Vector_iterator@_JV?$allocator@_J@std@@@std@@@?$vector@_JV?$allocator@_J@std@@@std@@IAEPA_JV?$_Vector_iterator@_JV?$allocator@_J@std@@@1@0PA_J@Z ; std::vector<__int64,std::allocator<__int64> >::_Umove<std::_Vector_iterator<__int64,std::allocator<__int64> > >
PUBLIC	?reserve@?$vector@_JV?$allocator@_J@std@@@std@@QAEXI@Z ; std::vector<__int64,std::allocator<__int64> >::reserve
PUBLIC	?_Checked_iterator_base@?$_Vector_const_iterator@U?$pair@U?$pair@_K_K@std@@U12@@std@@V?$allocator@U?$pair@U?$pair@_K_K@std@@U12@@std@@@2@@std@@QBEPBU?$pair@U?$pair@_K_K@std@@U12@@2@XZ ; std::_Vector_const_iterator<std::pair<std::pair<unsigned __int64,unsigned __int64>,std::pair<unsigned __int64,unsigned __int64> >,std::allocator<std::pair<std::pair<unsigned __int64,unsigned __int64>,std::pair<unsigned __int64,unsigned __int64> > > >::_Checked_iterator_base
PUBLIC	??$_Checked_base@V?$_Vector_const_iterator@U?$pair@U?$pair@_K_K@std@@U12@@std@@V?$allocator@U?$pair@U?$pair@_K_K@std@@U12@@std@@@2@@std@@U_Different_checked_iterator_base_type_tag@2@@std@@YAPBU?$pair@U?$pair@_K_K@std@@U12@@0@AAV?$_Vector_const_iterator@U?$pair@U?$pair@_K_K@std@@U12@@std@@V?$allocator@U?$pair@U?$pair@_K_K@std@@U12@@std@@@2@@0@U_Different_checked_iterator_base_type_tag@0@@Z ; std::_Checked_base<std::_Vector_const_iterator<std::pair<std::pair<unsigned __int64,unsigned __int64>,std::pair<unsigned __int64,unsigned __int64> >,std::allocator<std::pair<std::pair<unsigned __int64,unsigned __int64>,std::pair<unsigned __int64,unsigned __int64> > > >,std::_Different_checked_iterator_base_type_tag>
PUBLIC	??$_Checked_base@V?$_Vector_const_iterator@U?$pair@U?$pair@_K_K@std@@U12@@std@@V?$allocator@U?$pair@U?$pair@_K_K@std@@U12@@std@@@2@@std@@@std@@YAPBU?$pair@U?$pair@_K_K@std@@U12@@0@AAV?$_Vector_const_iterator@U?$pair@U?$pair@_K_K@std@@U12@@std@@V?$allocator@U?$pair@U?$pair@_K_K@std@@U12@@std@@@2@@0@@Z ; std::_Checked_base<std::_Vector_const_iterator<std::pair<std::pair<unsigned __int64,unsigned __int64>,std::pair<unsigned __int64,unsigned __int64> >,std::allocator<std::pair<std::pair<unsigned __int64,unsigned __int64>,std::pair<unsigned __int64,unsigned __int64> > > > >
PUBLIC	??$_Ptr_cat@V?$_Vector_const_iterator@U?$pair@U?$pair@_K_K@std@@U12@@std@@V?$allocator@U?$pair@U?$pair@_K_K@std@@U12@@std@@@2@@std@@PAU?$pair@U?$pair@_K_K@std@@U12@@2@@std@@YA?AU_Nonscalar_ptr_iterator_tag@0@AAV?$_Vector_const_iterator@U?$pair@U?$pair@_K_K@std@@U12@@std@@V?$allocator@U?$pair@U?$pair@_K_K@std@@U12@@std@@@2@@0@AAPAU?$pair@U?$pair@_K_K@std@@U12@@0@@Z ; std::_Ptr_cat<std::_Vector_const_iterator<std::pair<std::pair<unsigned __int64,unsigned __int64>,std::pair<unsigned __int64,unsigned __int64> >,std::allocator<std::pair<std::pair<unsigned __int64,unsigned __int64>,std::pair<unsigned __int64,unsigned __int64> > > >,std::pair<std::pair<unsigned __int64,unsigned __int64>,std::pair<unsigned __int64,unsigned __int64> > *>
PUBLIC	??$_Uninit_copy@PBU?$pair@U?$pair@_K_K@std@@U12@@std@@PAU12@V?$allocator@U?$pair@U?$pair@_K_K@std@@U12@@std@@@2@@std@@YAPAU?$pair@U?$pair@_K_K@std@@U12@@0@PBU10@0PAU10@AAV?$allocator@U?$pair@U?$pair@_K_K@std@@U12@@std@@@0@U_Nonscalar_ptr_iterator_tag@0@U_Range_checked_iterator_tag@0@@Z ; std::_Uninit_copy<std::pair<std::pair<unsigned __int64,unsigned __int64>,std::pair<unsigned __int64,unsigned __int64> > const *,std::pair<std::pair<unsigned __int64,unsigned __int64>,std::pair<unsigned __int64,unsigned __int64> > *,std::allocator<std::pair<std::pair<unsigned __int64,unsigned __int64>,std::pair<unsigned __int64,unsigned __int64> > > >
PUBLIC	??$unchecked_uninitialized_copy@V?$_Vector_const_iterator@U?$pair@U?$pair@_K_K@std@@U12@@std@@V?$allocator@U?$pair@U?$pair@_K_K@std@@U12@@std@@@2@@std@@PAU?$pair@U?$pair@_K_K@std@@U12@@2@V?$allocator@U?$pair@U?$pair@_K_K@std@@U12@@std@@@2@@stdext@@YAPAU?$pair@U?$pair@_K_K@std@@U12@@std@@V?$_Vector_const_iterator@U?$pair@U?$pair@_K_K@std@@U12@@std@@V?$allocator@U?$pair@U?$pair@_K_K@std@@U12@@std@@@2@@2@0PAU12@AAV?$allocator@U?$pair@U?$pair@_K_K@std@@U12@@std@@@2@@Z ; stdext::unchecked_uninitialized_copy<std::_Vector_const_iterator<std::pair<std::pair<unsigned __int64,unsigned __int64>,std::pair<unsigned __int64,unsigned __int64> >,std::allocator<std::pair<std::pair<unsigned __int64,unsigned __int64>,std::pair<unsigned __int64,unsigned __int64> > > >,std::pair<std::pair<unsigned __int64,unsigned __int64>,std::pair<unsigned __int64,unsigned __int64> > *,std::allocator<std::pair<std::pair<unsigned __int64,unsigned __int64>,std::pair<unsigned __int64,unsigned __int64> > > >
PUBLIC	??$_Ucopy@V?$_Vector_const_iterator@U?$pair@U?$pair@_K_K@std@@U12@@std@@V?$allocator@U?$pair@U?$pair@_K_K@std@@U12@@std@@@2@@std@@@?$vector@U?$pair@U?$pair@_K_K@std@@U12@@std@@V?$allocator@U?$pair@U?$pair@_K_K@std@@U12@@std@@@2@@std@@IAEPAU?$pair@U?$pair@_K_K@std@@U12@@1@V?$_Vector_const_iterator@U?$pair@U?$pair@_K_K@std@@U12@@std@@V?$allocator@U?$pair@U?$pair@_K_K@std@@U12@@std@@@2@@1@0PAU21@@Z ; std::vector<std::pair<std::pair<unsigned __int64,unsigned __int64>,std::pair<unsigned __int64,unsigned __int64> >,std::allocator<std::pair<std::pair<unsigned __int64,unsigned __int64>,std::pair<unsigned __int64,unsigned __int64> > > >::_Ucopy<std::_Vector_const_iterator<std::pair<std::pair<unsigned __int64,unsigned __int64>,std::pair<unsigned __int64,unsigned __int64> >,std::allocator<std::pair<std::pair<unsigned __int64,unsigned __int64>,std::pair<unsigned __int64,unsigned __int64> > > > >
PUBLIC	??0?$vector@U?$pair@U?$pair@_K_K@std@@U12@@std@@V?$allocator@U?$pair@U?$pair@_K_K@std@@U12@@std@@@2@@std@@QAE@ABV01@@Z ; std::vector<std::pair<std::pair<unsigned __int64,unsigned __int64>,std::pair<unsigned __int64,unsigned __int64> >,std::allocator<std::pair<std::pair<unsigned __int64,unsigned __int64>,std::pair<unsigned __int64,unsigned __int64> > > >::vector<std::pair<std::pair<unsigned __int64,unsigned __int64>,std::pair<unsigned __int64,unsigned __int64> >,std::allocator<std::pair<std::pair<unsigned __int64,unsigned __int64>,std::pair<unsigned __int64,unsigned __int64> > > >
PUBLIC	??$_Construct@V?$vector@U?$pair@U?$pair@_K_K@std@@U12@@std@@V?$allocator@U?$pair@U?$pair@_K_K@std@@U12@@std@@@2@@std@@V12@@std@@YAXPAV?$vector@U?$pair@U?$pair@_K_K@std@@U12@@std@@V?$allocator@U?$pair@U?$pair@_K_K@std@@U12@@std@@@2@@0@ABV10@@Z ; std::_Construct<std::vector<std::pair<std::pair<unsigned __int64,unsigned __int64>,std::pair<unsigned __int64,unsigned __int64> >,std::allocator<std::pair<std::pair<unsigned __int64,unsigned __int64>,std::pair<unsigned __int64,unsigned __int64> > > >,std::vector<std::pair<std::pair<unsigned __int64,unsigned __int64>,std::pair<unsigned __int64,unsigned __int64> >,std::allocator<std::pair<std::pair<unsigned __int64,unsigned __int64>,std::pair<unsigned __int64,unsigned __int64> > > > >
PUBLIC	?construct@?$allocator@V?$vector@U?$pair@U?$pair@_K_K@std@@U12@@std@@V?$allocator@U?$pair@U?$pair@_K_K@std@@U12@@std@@@2@@std@@@std@@QAEXPAV?$vector@U?$pair@U?$pair@_K_K@std@@U12@@std@@V?$allocator@U?$pair@U?$pair@_K_K@std@@U12@@std@@@2@@2@ABV32@@Z ; std::allocator<std::vector<std::pair<std::pair<unsigned __int64,unsigned __int64>,std::pair<unsigned __int64,unsigned __int64> >,std::allocator<std::pair<std::pair<unsigned __int64,unsigned __int64>,std::pair<unsigned __int64,unsigned __int64> > > > >::construct
PUBLIC	??$_Uninit_fill_n@PAV?$vector@U?$pair@U?$pair@_K_K@std@@U12@@std@@V?$allocator@U?$pair@U?$pair@_K_K@std@@U12@@std@@@2@@std@@IV12@V?$allocator@V?$vector@U?$pair@U?$pair@_K_K@std@@U12@@std@@V?$allocator@U?$pair@U?$pair@_K_K@std@@U12@@std@@@2@@std@@@2@@std@@YAXPAV?$vector@U?$pair@U?$pair@_K_K@std@@U12@@std@@V?$allocator@U?$pair@U?$pair@_K_K@std@@U12@@std@@@2@@0@IABV10@AAV?$allocator@V?$vector@U?$pair@U?$pair@_K_K@std@@U12@@std@@V?$allocator@U?$pair@U?$pair@_K_K@std@@U12@@std@@@2@@std@@@0@U_Nonscalar_ptr_iterator_tag@0@U_Range_checked_iterator_tag@0@@Z ; std::_Uninit_fill_n<std::vector<std::pair<std::pair<unsigned __int64,unsigned __int64>,std::pair<unsigned __int64,unsigned __int64> >,std::allocator<std::pair<std::pair<unsigned __int64,unsigned __int64>,std::pair<unsigned __int64,unsigned __int64> > > > *,unsigned int,std::vector<std::pair<std::pair<unsigned __int64,unsigned __int64>,std::pair<unsigned __int64,unsigned __int64> >,std::allocator<std::pair<std::pair<unsigned __int64,unsigned __int64>,std::pair<unsigned __int64,unsigned __int64> > > >,std::allocator<std::vector<std::pair<std::pair<unsigned __int64,unsigned __int64>,std::pair<unsigned __int64,unsigned __int64> >,std::allocator<std::pair<std::pair<unsigned __int64,unsigned __int64>,std::pair<unsigned __int64,unsigned __int64> > > > > >
PUBLIC	??$unchecked_uninitialized_fill_n@PAV?$vector@U?$pair@U?$pair@_K_K@std@@U12@@std@@V?$allocator@U?$pair@U?$pair@_K_K@std@@U12@@std@@@2@@std@@IV12@V?$allocator@V?$vector@U?$pair@U?$pair@_K_K@std@@U12@@std@@V?$allocator@U?$pair@U?$pair@_K_K@std@@U12@@std@@@2@@std@@@2@@stdext@@YAXPAV?$vector@U?$pair@U?$pair@_K_K@std@@U12@@std@@V?$allocator@U?$pair@U?$pair@_K_K@std@@U12@@std@@@2@@std@@IABV12@AAV?$allocator@V?$vector@U?$pair@U?$pair@_K_K@std@@U12@@std@@V?$allocator@U?$pair@U?$pair@_K_K@std@@U12@@std@@@2@@std@@@2@@Z ; stdext::unchecked_uninitialized_fill_n<std::vector<std::pair<std::pair<unsigned __int64,unsigned __int64>,std::pair<unsigned __int64,unsigned __int64> >,std::allocator<std::pair<std::pair<unsigned __int64,unsigned __int64>,std::pair<unsigned __int64,unsigned __int64> > > > *,unsigned int,std::vector<std::pair<std::pair<unsigned __int64,unsigned __int64>,std::pair<unsigned __int64,unsigned __int64> >,std::allocator<std::pair<std::pair<unsigned __int64,unsigned __int64>,std::pair<unsigned __int64,unsigned __int64> > > >,std::allocator<std::vector<std::pair<std::pair<unsigned __int64,unsigned __int64>,std::pair<unsigned __int64,unsigned __int64> >,std::allocator<std::pair<std::pair<unsigned __int64,unsigned __int64>,std::pair<unsigned __int64,unsigned __int64> > > > > >
PUBLIC	?_Ufill@?$vector@V?$vector@U?$pair@U?$pair@_K_K@std@@U12@@std@@V?$allocator@U?$pair@U?$pair@_K_K@std@@U12@@std@@@2@@std@@V?$allocator@V?$vector@U?$pair@U?$pair@_K_K@std@@U12@@std@@V?$allocator@U?$pair@U?$pair@_K_K@std@@U12@@std@@@2@@std@@@2@@std@@IAEPAV?$vector@U?$pair@U?$pair@_K_K@std@@U12@@std@@V?$allocator@U?$pair@U?$pair@_K_K@std@@U12@@std@@@2@@2@PAV32@IABV32@@Z ; std::vector<std::vector<std::pair<std::pair<unsigned __int64,unsigned __int64>,std::pair<unsigned __int64,unsigned __int64> >,std::allocator<std::pair<std::pair<unsigned __int64,unsigned __int64>,std::pair<unsigned __int64,unsigned __int64> > > >,std::allocator<std::vector<std::pair<std::pair<unsigned __int64,unsigned __int64>,std::pair<unsigned __int64,unsigned __int64> >,std::allocator<std::pair<std::pair<unsigned __int64,unsigned __int64>,std::pair<unsigned __int64,unsigned __int64> > > > > >::_Ufill
PUBLIC	?_Construct_n@?$vector@V?$vector@U?$pair@U?$pair@_K_K@std@@U12@@std@@V?$allocator@U?$pair@U?$pair@_K_K@std@@U12@@std@@@2@@std@@V?$allocator@V?$vector@U?$pair@U?$pair@_K_K@std@@U12@@std@@V?$allocator@U?$pair@U?$pair@_K_K@std@@U12@@std@@@2@@std@@@2@@std@@QAEXIABV?$vector@U?$pair@U?$pair@_K_K@std@@U12@@std@@V?$allocator@U?$pair@U?$pair@_K_K@std@@U12@@std@@@2@@2@@Z ; std::vector<std::vector<std::pair<std::pair<unsigned __int64,unsigned __int64>,std::pair<unsigned __int64,unsigned __int64> >,std::allocator<std::pair<std::pair<unsigned __int64,unsigned __int64>,std::pair<unsigned __int64,unsigned __int64> > > >,std::allocator<std::vector<std::pair<std::pair<unsigned __int64,unsigned __int64>,std::pair<unsigned __int64,unsigned __int64> >,std::allocator<std::pair<std::pair<unsigned __int64,unsigned __int64>,std::pair<unsigned __int64,unsigned __int64> > > > > >::_Construct_n
PUBLIC	??0?$vector@V?$vector@U?$pair@U?$pair@_K_K@std@@U12@@std@@V?$allocator@U?$pair@U?$pair@_K_K@std@@U12@@std@@@2@@std@@V?$allocator@V?$vector@U?$pair@U?$pair@_K_K@std@@U12@@std@@V?$allocator@U?$pair@U?$pair@_K_K@std@@U12@@std@@@2@@std@@@2@@std@@QAE@IABV?$vector@U?$pair@U?$pair@_K_K@std@@U12@@std@@V?$allocator@U?$pair@U?$pair@_K_K@std@@U12@@std@@@2@@1@@Z ; std::vector<std::vector<std::pair<std::pair<unsigned __int64,unsigned __int64>,std::pair<unsigned __int64,unsigned __int64> >,std::allocator<std::pair<std::pair<unsigned __int64,unsigned __int64>,std::pair<unsigned __int64,unsigned __int64> > > >,std::allocator<std::vector<std::pair<std::pair<unsigned __int64,unsigned __int64>,std::pair<unsigned __int64,unsigned __int64> >,std::allocator<std::pair<std::pair<unsigned __int64,unsigned __int64>,std::pair<unsigned __int64,unsigned __int64> > > > > >::vector<std::vector<std::pair<std::pair<unsigned __int64,unsigned __int64>,std::pair<unsigned __int64,unsigned __int64> >,std::allocator<std::pair<std::pair<unsigned __int64,unsigned __int64>,std::pair<unsigned __int64,unsigned __int64> > > >,std::allocator<std::vector<std::pair<std::pair<unsigned __int64,unsigned __int64>,std::pair<unsigned __int64,unsigned __int64> >,std::allocator<std::pair<std::pair<unsigned __int64,unsigned __int64>,std::pair<unsigned __int64,unsigned __int64> > > > > >
PUBLIC	??0?$allocator@U?$pair@U?$pair@_K_K@std@@U12@@std@@@std@@QAE@XZ ; std::allocator<std::pair<std::pair<unsigned __int64,unsigned __int64>,std::pair<unsigned __int64,unsigned __int64> > >::allocator<std::pair<std::pair<unsigned __int64,unsigned __int64>,std::pair<unsigned __int64,unsigned __int64> > >
PUBLIC	??$?0U?$pair@U?$pair@_K_K@std@@U12@@std@@@?$allocator@V_Aux_cont@std@@@std@@QAE@ABV?$allocator@U?$pair@U?$pair@_K_K@std@@U12@@std@@@1@@Z ; std::allocator<std::_Aux_cont>::allocator<std::_Aux_cont><std::pair<std::pair<unsigned __int64,unsigned __int64>,std::pair<unsigned __int64,unsigned __int64> > >
PUBLIC	??0?$_Container_base_aux_alloc_real@V?$allocator@U?$pair@U?$pair@_K_K@std@@U12@@std@@@std@@@std@@IAE@V?$allocator@U?$pair@U?$pair@_K_K@std@@U12@@std@@@1@@Z ; std::_Container_base_aux_alloc_real<std::allocator<std::pair<std::pair<unsigned __int64,unsigned __int64>,std::pair<unsigned __int64,unsigned __int64> > > >::_Container_base_aux_alloc_real<std::allocator<std::pair<std::pair<unsigned __int64,unsigned __int64>,std::pair<unsigned __int64,unsigned __int64> > > >
PUBLIC	??0?$allocator@U?$pair@U?$pair@_K_K@std@@U12@@std@@@std@@QAE@ABV01@@Z ; std::allocator<std::pair<std::pair<unsigned __int64,unsigned __int64>,std::pair<unsigned __int64,unsigned __int64> > >::allocator<std::pair<std::pair<unsigned __int64,unsigned __int64>,std::pair<unsigned __int64,unsigned __int64> > >
PUBLIC	??0?$_Vector_val@U?$pair@U?$pair@_K_K@std@@U12@@std@@V?$allocator@U?$pair@U?$pair@_K_K@std@@U12@@std@@@2@@std@@IAE@V?$allocator@U?$pair@U?$pair@_K_K@std@@U12@@std@@@1@@Z ; std::_Vector_val<std::pair<std::pair<unsigned __int64,unsigned __int64>,std::pair<unsigned __int64,unsigned __int64> >,std::allocator<std::pair<std::pair<unsigned __int64,unsigned __int64>,std::pair<unsigned __int64,unsigned __int64> > > >::_Vector_val<std::pair<std::pair<unsigned __int64,unsigned __int64>,std::pair<unsigned __int64,unsigned __int64> >,std::allocator<std::pair<std::pair<unsigned __int64,unsigned __int64>,std::pair<unsigned __int64,unsigned __int64> > > >
PUBLIC	??$_Allocate@U?$pair@U?$pair@_K_K@std@@U12@@std@@@std@@YAPAU?$pair@U?$pair@_K_K@std@@U12@@0@IPAU10@@Z ; std::_Allocate<std::pair<std::pair<unsigned __int64,unsigned __int64>,std::pair<unsigned __int64,unsigned __int64> > >
PUBLIC	?allocate@?$allocator@U?$pair@U?$pair@_K_K@std@@U12@@std@@@std@@QAEPAU?$pair@U?$pair@_K_K@std@@U12@@2@I@Z ; std::allocator<std::pair<std::pair<unsigned __int64,unsigned __int64>,std::pair<unsigned __int64,unsigned __int64> > >::allocate
PUBLIC	?max_size@?$allocator@U?$pair@U?$pair@_K_K@std@@U12@@std@@@std@@QBEIXZ ; std::allocator<std::pair<std::pair<unsigned __int64,unsigned __int64>,std::pair<unsigned __int64,unsigned __int64> > >::max_size
PUBLIC	?max_size@?$vector@U?$pair@U?$pair@_K_K@std@@U12@@std@@V?$allocator@U?$pair@U?$pair@_K_K@std@@U12@@std@@@2@@std@@QBEIXZ ; std::vector<std::pair<std::pair<unsigned __int64,unsigned __int64>,std::pair<unsigned __int64,unsigned __int64> >,std::allocator<std::pair<std::pair<unsigned __int64,unsigned __int64>,std::pair<unsigned __int64,unsigned __int64> > > >::max_size
PUBLIC	?_Xlen@?$vector@U?$pair@U?$pair@_K_K@std@@U12@@std@@V?$allocator@U?$pair@U?$pair@_K_K@std@@U12@@std@@@2@@std@@KAXXZ ; std::vector<std::pair<std::pair<unsigned __int64,unsigned __int64>,std::pair<unsigned __int64,unsigned __int64> >,std::allocator<std::pair<std::pair<unsigned __int64,unsigned __int64>,std::pair<unsigned __int64,unsigned __int64> > > >::_Xlen
PUBLIC	?_Buy@?$vector@U?$pair@U?$pair@_K_K@std@@U12@@std@@V?$allocator@U?$pair@U?$pair@_K_K@std@@U12@@std@@@2@@std@@IAE_NI@Z ; std::vector<std::pair<std::pair<unsigned __int64,unsigned __int64>,std::pair<unsigned __int64,unsigned __int64> >,std::allocator<std::pair<std::pair<unsigned __int64,unsigned __int64>,std::pair<unsigned __int64,unsigned __int64> > > >::_Buy
PUBLIC	??$_Construct@U?$pair@U?$pair@_K_K@std@@U12@@std@@U12@@std@@YAXPAU?$pair@U?$pair@_K_K@std@@U12@@0@ABU10@@Z ; std::_Construct<std::pair<std::pair<unsigned __int64,unsigned __int64>,std::pair<unsigned __int64,unsigned __int64> >,std::pair<std::pair<unsigned __int64,unsigned __int64>,std::pair<unsigned __int64,unsigned __int64> > >
PUBLIC	?construct@?$allocator@U?$pair@U?$pair@_K_K@std@@U12@@std@@@std@@QAEXPAU?$pair@U?$pair@_K_K@std@@U12@@2@ABU32@@Z ; std::allocator<std::pair<std::pair<unsigned __int64,unsigned __int64>,std::pair<unsigned __int64,unsigned __int64> > >::construct
PUBLIC	??$_Uninit_fill_n@PAU?$pair@U?$pair@_K_K@std@@U12@@std@@IU12@V?$allocator@U?$pair@U?$pair@_K_K@std@@U12@@std@@@2@@std@@YAXPAU?$pair@U?$pair@_K_K@std@@U12@@0@IABU10@AAV?$allocator@U?$pair@U?$pair@_K_K@std@@U12@@std@@@0@U_Nonscalar_ptr_iterator_tag@0@U_Range_checked_iterator_tag@0@@Z ; std::_Uninit_fill_n<std::pair<std::pair<unsigned __int64,unsigned __int64>,std::pair<unsigned __int64,unsigned __int64> > *,unsigned int,std::pair<std::pair<unsigned __int64,unsigned __int64>,std::pair<unsigned __int64,unsigned __int64> >,std::allocator<std::pair<std::pair<unsigned __int64,unsigned __int64>,std::pair<unsigned __int64,unsigned __int64> > > >
PUBLIC	??$unchecked_uninitialized_fill_n@PAU?$pair@U?$pair@_K_K@std@@U12@@std@@IU12@V?$allocator@U?$pair@U?$pair@_K_K@std@@U12@@std@@@2@@stdext@@YAXPAU?$pair@U?$pair@_K_K@std@@U12@@std@@IABU12@AAV?$allocator@U?$pair@U?$pair@_K_K@std@@U12@@std@@@2@@Z ; stdext::unchecked_uninitialized_fill_n<std::pair<std::pair<unsigned __int64,unsigned __int64>,std::pair<unsigned __int64,unsigned __int64> > *,unsigned int,std::pair<std::pair<unsigned __int64,unsigned __int64>,std::pair<unsigned __int64,unsigned __int64> >,std::allocator<std::pair<std::pair<unsigned __int64,unsigned __int64>,std::pair<unsigned __int64,unsigned __int64> > > >
PUBLIC	?_Ufill@?$vector@U?$pair@U?$pair@_K_K@std@@U12@@std@@V?$allocator@U?$pair@U?$pair@_K_K@std@@U12@@std@@@2@@std@@IAEPAU?$pair@U?$pair@_K_K@std@@U12@@2@PAU32@IABU32@@Z ; std::vector<std::pair<std::pair<unsigned __int64,unsigned __int64>,std::pair<unsigned __int64,unsigned __int64> >,std::allocator<std::pair<std::pair<unsigned __int64,unsigned __int64>,std::pair<unsigned __int64,unsigned __int64> > > >::_Ufill
PUBLIC	?_Construct_n@?$vector@U?$pair@U?$pair@_K_K@std@@U12@@std@@V?$allocator@U?$pair@U?$pair@_K_K@std@@U12@@std@@@2@@std@@QAEXIABU?$pair@U?$pair@_K_K@std@@U12@@2@@Z ; std::vector<std::pair<std::pair<unsigned __int64,unsigned __int64>,std::pair<unsigned __int64,unsigned __int64> >,std::allocator<std::pair<std::pair<unsigned __int64,unsigned __int64>,std::pair<unsigned __int64,unsigned __int64> > > >::_Construct_n
PUBLIC	??0?$pair@_K_K@std@@QAE@XZ			; std::pair<unsigned __int64,unsigned __int64>::pair<unsigned __int64,unsigned __int64>
PUBLIC	??0?$pair@U?$pair@_K_K@std@@U12@@std@@QAE@XZ	; std::pair<std::pair<unsigned __int64,unsigned __int64>,std::pair<unsigned __int64,unsigned __int64> >::pair<std::pair<unsigned __int64,unsigned __int64>,std::pair<unsigned __int64,unsigned __int64> >
PUBLIC	??0?$vector@U?$pair@U?$pair@_K_K@std@@U12@@std@@V?$allocator@U?$pair@U?$pair@_K_K@std@@U12@@std@@@2@@std@@QAE@I@Z ; std::vector<std::pair<std::pair<unsigned __int64,unsigned __int64>,std::pair<unsigned __int64,unsigned __int64> >,std::allocator<std::pair<std::pair<unsigned __int64,unsigned __int64>,std::pair<unsigned __int64,unsigned __int64> > > >::vector<std::pair<std::pair<unsigned __int64,unsigned __int64>,std::pair<unsigned __int64,unsigned __int64> >,std::allocator<std::pair<std::pair<unsigned __int64,unsigned __int64>,std::pair<unsigned __int64,unsigned __int64> > > >
PUBLIC	??0?$allocator@V?$vector@U?$pair@II@std@@V?$allocator@U?$pair@II@std@@@2@@std@@@std@@QAE@XZ ; std::allocator<std::vector<std::pair<unsigned int,unsigned int>,std::allocator<std::pair<unsigned int,unsigned int> > > >::allocator<std::vector<std::pair<unsigned int,unsigned int>,std::allocator<std::pair<unsigned int,unsigned int> > > >
PUBLIC	??$?0V?$vector@U?$pair@II@std@@V?$allocator@U?$pair@II@std@@@2@@std@@@?$allocator@V_Aux_cont@std@@@std@@QAE@ABV?$allocator@V?$vector@U?$pair@II@std@@V?$allocator@U?$pair@II@std@@@2@@std@@@1@@Z ; std::allocator<std::_Aux_cont>::allocator<std::_Aux_cont><std::vector<std::pair<unsigned int,unsigned int>,std::allocator<std::pair<unsigned int,unsigned int> > > >
PUBLIC	??0?$_Container_base_aux_alloc_real@V?$allocator@V?$vector@U?$pair@II@std@@V?$allocator@U?$pair@II@std@@@2@@std@@@std@@@std@@IAE@V?$allocator@V?$vector@U?$pair@II@std@@V?$allocator@U?$pair@II@std@@@2@@std@@@1@@Z ; std::_Container_base_aux_alloc_real<std::allocator<std::vector<std::pair<unsigned int,unsigned int>,std::allocator<std::pair<unsigned int,unsigned int> > > > >::_Container_base_aux_alloc_real<std::allocator<std::vector<std::pair<unsigned int,unsigned int>,std::allocator<std::pair<unsigned int,unsigned int> > > > >
PUBLIC	??0?$allocator@V?$vector@U?$pair@II@std@@V?$allocator@U?$pair@II@std@@@2@@std@@@std@@QAE@ABV01@@Z ; std::allocator<std::vector<std::pair<unsigned int,unsigned int>,std::allocator<std::pair<unsigned int,unsigned int> > > >::allocator<std::vector<std::pair<unsigned int,unsigned int>,std::allocator<std::pair<unsigned int,unsigned int> > > >
PUBLIC	??0?$_Vector_val@V?$vector@U?$pair@II@std@@V?$allocator@U?$pair@II@std@@@2@@std@@V?$allocator@V?$vector@U?$pair@II@std@@V?$allocator@U?$pair@II@std@@@2@@std@@@2@@std@@IAE@V?$allocator@V?$vector@U?$pair@II@std@@V?$allocator@U?$pair@II@std@@@2@@std@@@1@@Z ; std::_Vector_val<std::vector<std::pair<unsigned int,unsigned int>,std::allocator<std::pair<unsigned int,unsigned int> > >,std::allocator<std::vector<std::pair<unsigned int,unsigned int>,std::allocator<std::pair<unsigned int,unsigned int> > > > >::_Vector_val<std::vector<std::pair<unsigned int,unsigned int>,std::allocator<std::pair<unsigned int,unsigned int> > >,std::allocator<std::vector<std::pair<unsigned int,unsigned int>,std::allocator<std::pair<unsigned int,unsigned int> > > > >
PUBLIC	??$_Allocate@V?$vector@U?$pair@II@std@@V?$allocator@U?$pair@II@std@@@2@@std@@@std@@YAPAV?$vector@U?$pair@II@std@@V?$allocator@U?$pair@II@std@@@2@@0@IPAV10@@Z ; std::_Allocate<std::vector<std::pair<unsigned int,unsigned int>,std::allocator<std::pair<unsigned int,unsigned int> > > >
PUBLIC	?allocate@?$allocator@V?$vector@U?$pair@II@std@@V?$allocator@U?$pair@II@std@@@2@@std@@@std@@QAEPAV?$vector@U?$pair@II@std@@V?$allocator@U?$pair@II@std@@@2@@2@I@Z ; std::allocator<std::vector<std::pair<unsigned int,unsigned int>,std::allocator<std::pair<unsigned int,unsigned int> > > >::allocate
PUBLIC	?max_size@?$allocator@V?$vector@U?$pair@II@std@@V?$allocator@U?$pair@II@std@@@2@@std@@@std@@QBEIXZ ; std::allocator<std::vector<std::pair<unsigned int,unsigned int>,std::allocator<std::pair<unsigned int,unsigned int> > > >::max_size
PUBLIC	?max_size@?$vector@V?$vector@U?$pair@II@std@@V?$allocator@U?$pair@II@std@@@2@@std@@V?$allocator@V?$vector@U?$pair@II@std@@V?$allocator@U?$pair@II@std@@@2@@std@@@2@@std@@QBEIXZ ; std::vector<std::vector<std::pair<unsigned int,unsigned int>,std::allocator<std::pair<unsigned int,unsigned int> > >,std::allocator<std::vector<std::pair<unsigned int,unsigned int>,std::allocator<std::pair<unsigned int,unsigned int> > > > >::max_size
PUBLIC	?_Xlen@?$vector@V?$vector@U?$pair@II@std@@V?$allocator@U?$pair@II@std@@@2@@std@@V?$allocator@V?$vector@U?$pair@II@std@@V?$allocator@U?$pair@II@std@@@2@@std@@@2@@std@@KAXXZ ; std::vector<std::vector<std::pair<unsigned int,unsigned int>,std::allocator<std::pair<unsigned int,unsigned int> > >,std::allocator<std::vector<std::pair<unsigned int,unsigned int>,std::allocator<std::pair<unsigned int,unsigned int> > > > >::_Xlen
PUBLIC	?_Buy@?$vector@V?$vector@U?$pair@II@std@@V?$allocator@U?$pair@II@std@@@2@@std@@V?$allocator@V?$vector@U?$pair@II@std@@V?$allocator@U?$pair@II@std@@@2@@std@@@2@@std@@IAE_NI@Z ; std::vector<std::vector<std::pair<unsigned int,unsigned int>,std::allocator<std::pair<unsigned int,unsigned int> > >,std::allocator<std::vector<std::pair<unsigned int,unsigned int>,std::allocator<std::pair<unsigned int,unsigned int> > > > >::_Buy
PUBLIC	?_Checked_iterator_base@?$_Vector_const_iterator@U?$pair@II@std@@V?$allocator@U?$pair@II@std@@@2@@std@@QBEPBU?$pair@II@2@XZ ; std::_Vector_const_iterator<std::pair<unsigned int,unsigned int>,std::allocator<std::pair<unsigned int,unsigned int> > >::_Checked_iterator_base
PUBLIC	??$_Checked_base@V?$_Vector_const_iterator@U?$pair@II@std@@V?$allocator@U?$pair@II@std@@@2@@std@@U_Different_checked_iterator_base_type_tag@2@@std@@YAPBU?$pair@II@0@AAV?$_Vector_const_iterator@U?$pair@II@std@@V?$allocator@U?$pair@II@std@@@2@@0@U_Different_checked_iterator_base_type_tag@0@@Z ; std::_Checked_base<std::_Vector_const_iterator<std::pair<unsigned int,unsigned int>,std::allocator<std::pair<unsigned int,unsigned int> > >,std::_Different_checked_iterator_base_type_tag>
PUBLIC	??$_Checked_base@V?$_Vector_const_iterator@U?$pair@II@std@@V?$allocator@U?$pair@II@std@@@2@@std@@@std@@YAPBU?$pair@II@0@AAV?$_Vector_const_iterator@U?$pair@II@std@@V?$allocator@U?$pair@II@std@@@2@@0@@Z ; std::_Checked_base<std::_Vector_const_iterator<std::pair<unsigned int,unsigned int>,std::allocator<std::pair<unsigned int,unsigned int> > > >
PUBLIC	??$_Ptr_cat@V?$_Vector_const_iterator@U?$pair@II@std@@V?$allocator@U?$pair@II@std@@@2@@std@@PAU?$pair@II@2@@std@@YA?AU_Nonscalar_ptr_iterator_tag@0@AAV?$_Vector_const_iterator@U?$pair@II@std@@V?$allocator@U?$pair@II@std@@@2@@0@AAPAU?$pair@II@0@@Z ; std::_Ptr_cat<std::_Vector_const_iterator<std::pair<unsigned int,unsigned int>,std::allocator<std::pair<unsigned int,unsigned int> > >,std::pair<unsigned int,unsigned int> *>
PUBLIC	??$_Uninit_copy@PBU?$pair@II@std@@PAU12@V?$allocator@U?$pair@II@std@@@2@@std@@YAPAU?$pair@II@0@PBU10@0PAU10@AAV?$allocator@U?$pair@II@std@@@0@U_Nonscalar_ptr_iterator_tag@0@U_Range_checked_iterator_tag@0@@Z ; std::_Uninit_copy<std::pair<unsigned int,unsigned int> const *,std::pair<unsigned int,unsigned int> *,std::allocator<std::pair<unsigned int,unsigned int> > >
PUBLIC	??$unchecked_uninitialized_copy@V?$_Vector_const_iterator@U?$pair@II@std@@V?$allocator@U?$pair@II@std@@@2@@std@@PAU?$pair@II@2@V?$allocator@U?$pair@II@std@@@2@@stdext@@YAPAU?$pair@II@std@@V?$_Vector_const_iterator@U?$pair@II@std@@V?$allocator@U?$pair@II@std@@@2@@2@0PAU12@AAV?$allocator@U?$pair@II@std@@@2@@Z ; stdext::unchecked_uninitialized_copy<std::_Vector_const_iterator<std::pair<unsigned int,unsigned int>,std::allocator<std::pair<unsigned int,unsigned int> > >,std::pair<unsigned int,unsigned int> *,std::allocator<std::pair<unsigned int,unsigned int> > >
PUBLIC	??$_Ucopy@V?$_Vector_const_iterator@U?$pair@II@std@@V?$allocator@U?$pair@II@std@@@2@@std@@@?$vector@U?$pair@II@std@@V?$allocator@U?$pair@II@std@@@2@@std@@IAEPAU?$pair@II@1@V?$_Vector_const_iterator@U?$pair@II@std@@V?$allocator@U?$pair@II@std@@@2@@1@0PAU21@@Z ; std::vector<std::pair<unsigned int,unsigned int>,std::allocator<std::pair<unsigned int,unsigned int> > >::_Ucopy<std::_Vector_const_iterator<std::pair<unsigned int,unsigned int>,std::allocator<std::pair<unsigned int,unsigned int> > > >
PUBLIC	??0?$vector@U?$pair@II@std@@V?$allocator@U?$pair@II@std@@@2@@std@@QAE@ABV01@@Z ; std::vector<std::pair<unsigned int,unsigned int>,std::allocator<std::pair<unsigned int,unsigned int> > >::vector<std::pair<unsigned int,unsigned int>,std::allocator<std::pair<unsigned int,unsigned int> > >
PUBLIC	??$_Construct@V?$vector@U?$pair@II@std@@V?$allocator@U?$pair@II@std@@@2@@std@@V12@@std@@YAXPAV?$vector@U?$pair@II@std@@V?$allocator@U?$pair@II@std@@@2@@0@ABV10@@Z ; std::_Construct<std::vector<std::pair<unsigned int,unsigned int>,std::allocator<std::pair<unsigned int,unsigned int> > >,std::vector<std::pair<unsigned int,unsigned int>,std::allocator<std::pair<unsigned int,unsigned int> > > >
PUBLIC	?construct@?$allocator@V?$vector@U?$pair@II@std@@V?$allocator@U?$pair@II@std@@@2@@std@@@std@@QAEXPAV?$vector@U?$pair@II@std@@V?$allocator@U?$pair@II@std@@@2@@2@ABV32@@Z ; std::allocator<std::vector<std::pair<unsigned int,unsigned int>,std::allocator<std::pair<unsigned int,unsigned int> > > >::construct
PUBLIC	??$_Uninit_fill_n@PAV?$vector@U?$pair@II@std@@V?$allocator@U?$pair@II@std@@@2@@std@@IV12@V?$allocator@V?$vector@U?$pair@II@std@@V?$allocator@U?$pair@II@std@@@2@@std@@@2@@std@@YAXPAV?$vector@U?$pair@II@std@@V?$allocator@U?$pair@II@std@@@2@@0@IABV10@AAV?$allocator@V?$vector@U?$pair@II@std@@V?$allocator@U?$pair@II@std@@@2@@std@@@0@U_Nonscalar_ptr_iterator_tag@0@U_Range_checked_iterator_tag@0@@Z ; std::_Uninit_fill_n<std::vector<std::pair<unsigned int,unsigned int>,std::allocator<std::pair<unsigned int,unsigned int> > > *,unsigned int,std::vector<std::pair<unsigned int,unsigned int>,std::allocator<std::pair<unsigned int,unsigned int> > >,std::allocator<std::vector<std::pair<unsigned int,unsigned int>,std::allocator<std::pair<unsigned int,unsigned int> > > > >
PUBLIC	??$unchecked_uninitialized_fill_n@PAV?$vector@U?$pair@II@std@@V?$allocator@U?$pair@II@std@@@2@@std@@IV12@V?$allocator@V?$vector@U?$pair@II@std@@V?$allocator@U?$pair@II@std@@@2@@std@@@2@@stdext@@YAXPAV?$vector@U?$pair@II@std@@V?$allocator@U?$pair@II@std@@@2@@std@@IABV12@AAV?$allocator@V?$vector@U?$pair@II@std@@V?$allocator@U?$pair@II@std@@@2@@std@@@2@@Z ; stdext::unchecked_uninitialized_fill_n<std::vector<std::pair<unsigned int,unsigned int>,std::allocator<std::pair<unsigned int,unsigned int> > > *,unsigned int,std::vector<std::pair<unsigned int,unsigned int>,std::allocator<std::pair<unsigned int,unsigned int> > >,std::allocator<std::vector<std::pair<unsigned int,unsigned int>,std::allocator<std::pair<unsigned int,unsigned int> > > > >
PUBLIC	?_Ufill@?$vector@V?$vector@U?$pair@II@std@@V?$allocator@U?$pair@II@std@@@2@@std@@V?$allocator@V?$vector@U?$pair@II@std@@V?$allocator@U?$pair@II@std@@@2@@std@@@2@@std@@IAEPAV?$vector@U?$pair@II@std@@V?$allocator@U?$pair@II@std@@@2@@2@PAV32@IABV32@@Z ; std::vector<std::vector<std::pair<unsigned int,unsigned int>,std::allocator<std::pair<unsigned int,unsigned int> > >,std::allocator<std::vector<std::pair<unsigned int,unsigned int>,std::allocator<std::pair<unsigned int,unsigned int> > > > >::_Ufill
PUBLIC	?_Construct_n@?$vector@V?$vector@U?$pair@II@std@@V?$allocator@U?$pair@II@std@@@2@@std@@V?$allocator@V?$vector@U?$pair@II@std@@V?$allocator@U?$pair@II@std@@@2@@std@@@2@@std@@QAEXIABV?$vector@U?$pair@II@std@@V?$allocator@U?$pair@II@std@@@2@@2@@Z ; std::vector<std::vector<std::pair<unsigned int,unsigned int>,std::allocator<std::pair<unsigned int,unsigned int> > >,std::allocator<std::vector<std::pair<unsigned int,unsigned int>,std::allocator<std::pair<unsigned int,unsigned int> > > > >::_Construct_n
PUBLIC	??0?$vector@V?$vector@U?$pair@II@std@@V?$allocator@U?$pair@II@std@@@2@@std@@V?$allocator@V?$vector@U?$pair@II@std@@V?$allocator@U?$pair@II@std@@@2@@std@@@2@@std@@QAE@IABV?$vector@U?$pair@II@std@@V?$allocator@U?$pair@II@std@@@2@@1@@Z ; std::vector<std::vector<std::pair<unsigned int,unsigned int>,std::allocator<std::pair<unsigned int,unsigned int> > >,std::allocator<std::vector<std::pair<unsigned int,unsigned int>,std::allocator<std::pair<unsigned int,unsigned int> > > > >::vector<std::vector<std::pair<unsigned int,unsigned int>,std::allocator<std::pair<unsigned int,unsigned int> > >,std::allocator<std::vector<std::pair<unsigned int,unsigned int>,std::allocator<std::pair<unsigned int,unsigned int> > > > >
PUBLIC	??0?$allocator@V?$vector@IV?$allocator@I@std@@@std@@@std@@QAE@XZ ; std::allocator<std::vector<unsigned int,std::allocator<unsigned int> > >::allocator<std::vector<unsigned int,std::allocator<unsigned int> > >
PUBLIC	??$?0V?$vector@IV?$allocator@I@std@@@std@@@?$allocator@V_Aux_cont@std@@@std@@QAE@ABV?$allocator@V?$vector@IV?$allocator@I@std@@@std@@@1@@Z ; std::allocator<std::_Aux_cont>::allocator<std::_Aux_cont><std::vector<unsigned int,std::allocator<unsigned int> > >
PUBLIC	??0?$_Container_base_aux_alloc_real@V?$allocator@V?$vector@IV?$allocator@I@std@@@std@@@std@@@std@@IAE@V?$allocator@V?$vector@IV?$allocator@I@std@@@std@@@1@@Z ; std::_Container_base_aux_alloc_real<std::allocator<std::vector<unsigned int,std::allocator<unsigned int> > > >::_Container_base_aux_alloc_real<std::allocator<std::vector<unsigned int,std::allocator<unsigned int> > > >
PUBLIC	??0?$allocator@V?$vector@IV?$allocator@I@std@@@std@@@std@@QAE@ABV01@@Z ; std::allocator<std::vector<unsigned int,std::allocator<unsigned int> > >::allocator<std::vector<unsigned int,std::allocator<unsigned int> > >
PUBLIC	??0?$_Vector_val@V?$vector@IV?$allocator@I@std@@@std@@V?$allocator@V?$vector@IV?$allocator@I@std@@@std@@@2@@std@@IAE@V?$allocator@V?$vector@IV?$allocator@I@std@@@std@@@1@@Z ; std::_Vector_val<std::vector<unsigned int,std::allocator<unsigned int> >,std::allocator<std::vector<unsigned int,std::allocator<unsigned int> > > >::_Vector_val<std::vector<unsigned int,std::allocator<unsigned int> >,std::allocator<std::vector<unsigned int,std::allocator<unsigned int> > > >
PUBLIC	??$_Allocate@V?$vector@IV?$allocator@I@std@@@std@@@std@@YAPAV?$vector@IV?$allocator@I@std@@@0@IPAV10@@Z ; std::_Allocate<std::vector<unsigned int,std::allocator<unsigned int> > >
PUBLIC	?allocate@?$allocator@V?$vector@IV?$allocator@I@std@@@std@@@std@@QAEPAV?$vector@IV?$allocator@I@std@@@2@I@Z ; std::allocator<std::vector<unsigned int,std::allocator<unsigned int> > >::allocate
PUBLIC	?max_size@?$allocator@V?$vector@IV?$allocator@I@std@@@std@@@std@@QBEIXZ ; std::allocator<std::vector<unsigned int,std::allocator<unsigned int> > >::max_size
PUBLIC	?max_size@?$vector@V?$vector@IV?$allocator@I@std@@@std@@V?$allocator@V?$vector@IV?$allocator@I@std@@@std@@@2@@std@@QBEIXZ ; std::vector<std::vector<unsigned int,std::allocator<unsigned int> >,std::allocator<std::vector<unsigned int,std::allocator<unsigned int> > > >::max_size
PUBLIC	?_Xlen@?$vector@V?$vector@IV?$allocator@I@std@@@std@@V?$allocator@V?$vector@IV?$allocator@I@std@@@std@@@2@@std@@KAXXZ ; std::vector<std::vector<unsigned int,std::allocator<unsigned int> >,std::allocator<std::vector<unsigned int,std::allocator<unsigned int> > > >::_Xlen
PUBLIC	?_Buy@?$vector@V?$vector@IV?$allocator@I@std@@@std@@V?$allocator@V?$vector@IV?$allocator@I@std@@@std@@@2@@std@@IAE_NI@Z ; std::vector<std::vector<unsigned int,std::allocator<unsigned int> >,std::allocator<std::vector<unsigned int,std::allocator<unsigned int> > > >::_Buy
PUBLIC	??$_Ptr_cat@V?$_Vector_const_iterator@IV?$allocator@I@std@@@std@@PAI@std@@YA?AU_Scalar_ptr_iterator_tag@0@AAV?$_Vector_const_iterator@IV?$allocator@I@std@@@0@AAPAI@Z ; std::_Ptr_cat<std::_Vector_const_iterator<unsigned int,std::allocator<unsigned int> >,unsigned int *>
PUBLIC	??$_Uninit_copy@PBIPAIV?$allocator@I@std@@@std@@YAPAIPBI0PAIAAV?$allocator@I@0@U_Scalar_ptr_iterator_tag@0@U_Range_checked_iterator_tag@0@@Z ; std::_Uninit_copy<unsigned int const *,unsigned int *,std::allocator<unsigned int> >
PUBLIC	??$unchecked_uninitialized_copy@V?$_Vector_const_iterator@IV?$allocator@I@std@@@std@@PAIV?$allocator@I@2@@stdext@@YAPAIV?$_Vector_const_iterator@IV?$allocator@I@std@@@std@@0PAIAAV?$allocator@I@2@@Z ; stdext::unchecked_uninitialized_copy<std::_Vector_const_iterator<unsigned int,std::allocator<unsigned int> >,unsigned int *,std::allocator<unsigned int> >
PUBLIC	??$_Ucopy@V?$_Vector_const_iterator@IV?$allocator@I@std@@@std@@@?$vector@IV?$allocator@I@std@@@std@@IAEPAIV?$_Vector_const_iterator@IV?$allocator@I@std@@@1@0PAI@Z ; std::vector<unsigned int,std::allocator<unsigned int> >::_Ucopy<std::_Vector_const_iterator<unsigned int,std::allocator<unsigned int> > >
PUBLIC	??0?$vector@IV?$allocator@I@std@@@std@@QAE@ABV01@@Z ; std::vector<unsigned int,std::allocator<unsigned int> >::vector<unsigned int,std::allocator<unsigned int> >
PUBLIC	??$_Construct@V?$vector@IV?$allocator@I@std@@@std@@V12@@std@@YAXPAV?$vector@IV?$allocator@I@std@@@0@ABV10@@Z ; std::_Construct<std::vector<unsigned int,std::allocator<unsigned int> >,std::vector<unsigned int,std::allocator<unsigned int> > >
PUBLIC	?construct@?$allocator@V?$vector@IV?$allocator@I@std@@@std@@@std@@QAEXPAV?$vector@IV?$allocator@I@std@@@2@ABV32@@Z ; std::allocator<std::vector<unsigned int,std::allocator<unsigned int> > >::construct
PUBLIC	??$_Uninit_fill_n@PAV?$vector@IV?$allocator@I@std@@@std@@IV12@V?$allocator@V?$vector@IV?$allocator@I@std@@@std@@@2@@std@@YAXPAV?$vector@IV?$allocator@I@std@@@0@IABV10@AAV?$allocator@V?$vector@IV?$allocator@I@std@@@std@@@0@U_Nonscalar_ptr_iterator_tag@0@U_Range_checked_iterator_tag@0@@Z ; std::_Uninit_fill_n<std::vector<unsigned int,std::allocator<unsigned int> > *,unsigned int,std::vector<unsigned int,std::allocator<unsigned int> >,std::allocator<std::vector<unsigned int,std::allocator<unsigned int> > > >
PUBLIC	??$unchecked_uninitialized_fill_n@PAV?$vector@IV?$allocator@I@std@@@std@@IV12@V?$allocator@V?$vector@IV?$allocator@I@std@@@std@@@2@@stdext@@YAXPAV?$vector@IV?$allocator@I@std@@@std@@IABV12@AAV?$allocator@V?$vector@IV?$allocator@I@std@@@std@@@2@@Z ; stdext::unchecked_uninitialized_fill_n<std::vector<unsigned int,std::allocator<unsigned int> > *,unsigned int,std::vector<unsigned int,std::allocator<unsigned int> >,std::allocator<std::vector<unsigned int,std::allocator<unsigned int> > > >
PUBLIC	?_Ufill@?$vector@V?$vector@IV?$allocator@I@std@@@std@@V?$allocator@V?$vector@IV?$allocator@I@std@@@std@@@2@@std@@IAEPAV?$vector@IV?$allocator@I@std@@@2@PAV32@IABV32@@Z ; std::vector<std::vector<unsigned int,std::allocator<unsigned int> >,std::allocator<std::vector<unsigned int,std::allocator<unsigned int> > > >::_Ufill
PUBLIC	?_Construct_n@?$vector@V?$vector@IV?$allocator@I@std@@@std@@V?$allocator@V?$vector@IV?$allocator@I@std@@@std@@@2@@std@@QAEXIABV?$vector@IV?$allocator@I@std@@@2@@Z ; std::vector<std::vector<unsigned int,std::allocator<unsigned int> >,std::allocator<std::vector<unsigned int,std::allocator<unsigned int> > > >::_Construct_n
PUBLIC	??0?$vector@V?$vector@IV?$allocator@I@std@@@std@@V?$allocator@V?$vector@IV?$allocator@I@std@@@std@@@2@@std@@QAE@IABV?$vector@IV?$allocator@I@std@@@1@@Z ; std::vector<std::vector<unsigned int,std::allocator<unsigned int> >,std::allocator<std::vector<unsigned int,std::allocator<unsigned int> > > >::vector<std::vector<unsigned int,std::allocator<unsigned int> >,std::allocator<std::vector<unsigned int,std::allocator<unsigned int> > > >
PUBLIC	??0?$allocator@U?$pair@$$CBII@std@@@std@@QAE@XZ	; std::allocator<std::pair<unsigned int const ,unsigned int> >::allocator<std::pair<unsigned int const ,unsigned int> >
PUBLIC	??0?$_Hash_compare@IV?$hash@I@tr1@std@@U?$equal_to@I@3@@stdext@@QAE@XZ ; stdext::_Hash_compare<unsigned int,std::tr1::hash<unsigned int>,std::equal_to<unsigned int> >::_Hash_compare<unsigned int,std::tr1::hash<unsigned int>,std::equal_to<unsigned int> >
PUBLIC	??0?$_Umap_traits@IIV?$_Hash_compare@IV?$hash@I@tr1@std@@U?$equal_to@I@3@@stdext@@V?$allocator@U?$pair@$$CBII@std@@@std@@$0A@@tr1@std@@QAE@ABV?$_Hash_compare@IV?$hash@I@tr1@std@@U?$equal_to@I@3@@stdext@@@Z ; std::tr1::_Umap_traits<unsigned int,unsigned int,stdext::_Hash_compare<unsigned int,std::tr1::hash<unsigned int>,std::equal_to<unsigned int> >,std::allocator<std::pair<unsigned int const ,unsigned int> >,0>::_Umap_traits<unsigned int,unsigned int,stdext::_Hash_compare<unsigned int,std::tr1::hash<unsigned int>,std::equal_to<unsigned int> >,std::allocator<std::pair<unsigned int const ,unsigned int> >,0>
PUBLIC	??0?$allocator@U?$pair@$$CBII@std@@@std@@QAE@ABV01@@Z ; std::allocator<std::pair<unsigned int const ,unsigned int> >::allocator<std::pair<unsigned int const ,unsigned int> >
PUBLIC	??$?0U?$pair@$$CBII@std@@@?$allocator@V_Aux_cont@std@@@std@@QAE@ABV?$allocator@U?$pair@$$CBII@std@@@1@@Z ; std::allocator<std::_Aux_cont>::allocator<std::_Aux_cont><std::pair<unsigned int const ,unsigned int> >
PUBLIC	??0?$_Container_base_aux_alloc_real@V?$allocator@U?$pair@$$CBII@std@@@std@@@std@@IAE@V?$allocator@U?$pair@$$CBII@std@@@1@@Z ; std::_Container_base_aux_alloc_real<std::allocator<std::pair<unsigned int const ,unsigned int> > >::_Container_base_aux_alloc_real<std::allocator<std::pair<unsigned int const ,unsigned int> > >
PUBLIC	??$?0U?$pair@$$CBII@std@@@?$allocator@U_Node@?$_List_nod@U?$pair@$$CBII@std@@V?$allocator@U?$pair@$$CBII@std@@@2@@std@@@std@@QAE@ABV?$allocator@U?$pair@$$CBII@std@@@1@@Z ; std::allocator<std::_List_nod<std::pair<unsigned int const ,unsigned int>,std::allocator<std::pair<unsigned int const ,unsigned int> > >::_Node>::allocator<std::_List_nod<std::pair<unsigned int const ,unsigned int>,std::allocator<std::pair<unsigned int const ,unsigned int> > >::_Node><std::pair<unsigned int const ,unsigned int> >
PUBLIC	??0?$_List_nod@U?$pair@$$CBII@std@@V?$allocator@U?$pair@$$CBII@std@@@2@@std@@IAE@V?$allocator@U?$pair@$$CBII@std@@@1@@Z ; std::_List_nod<std::pair<unsigned int const ,unsigned int>,std::allocator<std::pair<unsigned int const ,unsigned int> > >::_List_nod<std::pair<unsigned int const ,unsigned int>,std::allocator<std::pair<unsigned int const ,unsigned int> > >
PUBLIC	??$?0U?$pair@$$CBII@std@@@?$allocator@PAU_Node@?$_List_nod@U?$pair@$$CBII@std@@V?$allocator@U?$pair@$$CBII@std@@@2@@std@@@std@@QAE@ABV?$allocator@U?$pair@$$CBII@std@@@1@@Z ; std::allocator<std::_List_nod<std::pair<unsigned int const ,unsigned int>,std::allocator<std::pair<unsigned int const ,unsigned int> > >::_Node *>::allocator<std::_List_nod<std::pair<unsigned int const ,unsigned int>,std::allocator<std::pair<unsigned int const ,unsigned int> > >::_Node *><std::pair<unsigned int const ,unsigned int> >
PUBLIC	??0?$_List_ptr@U?$pair@$$CBII@std@@V?$allocator@U?$pair@$$CBII@std@@@2@@std@@IAE@V?$allocator@U?$pair@$$CBII@std@@@1@@Z ; std::_List_ptr<std::pair<unsigned int const ,unsigned int>,std::allocator<std::pair<unsigned int const ,unsigned int> > >::_List_ptr<std::pair<unsigned int const ,unsigned int>,std::allocator<std::pair<unsigned int const ,unsigned int> > >
PUBLIC	??0?$_List_val@U?$pair@$$CBII@std@@V?$allocator@U?$pair@$$CBII@std@@@2@@std@@QAE@V?$allocator@U?$pair@$$CBII@std@@@1@@Z ; std::_List_val<std::pair<unsigned int const ,unsigned int>,std::allocator<std::pair<unsigned int const ,unsigned int> > >::_List_val<std::pair<unsigned int const ,unsigned int>,std::allocator<std::pair<unsigned int const ,unsigned int> > >
PUBLIC	?_Buynode@?$list@U?$pair@$$CBII@std@@V?$allocator@U?$pair@$$CBII@std@@@2@@std@@IAEPAU_Node@?$_List_nod@U?$pair@$$CBII@std@@V?$allocator@U?$pair@$$CBII@std@@@2@@2@XZ ; std::list<std::pair<unsigned int const ,unsigned int>,std::allocator<std::pair<unsigned int const ,unsigned int> > >::_Buynode
PUBLIC	??0?$list@U?$pair@$$CBII@std@@V?$allocator@U?$pair@$$CBII@std@@@2@@std@@QAE@ABV?$allocator@U?$pair@$$CBII@std@@@1@@Z ; std::list<std::pair<unsigned int const ,unsigned int>,std::allocator<std::pair<unsigned int const ,unsigned int> > >::list<std::pair<unsigned int const ,unsigned int>,std::allocator<std::pair<unsigned int const ,unsigned int> > >
PUBLIC	??$?0U_List_position@?$_Hash@V?$_Umap_traits@IIV?$_Hash_compare@IV?$hash@I@tr1@std@@U?$equal_to@I@3@@stdext@@V?$allocator@U?$pair@$$CBII@std@@@std@@$0A@@tr1@std@@@stdext@@@?$allocator@V_Aux_cont@std@@@std@@QAE@ABV?$allocator@U_List_position@?$_Hash@V?$_Umap_traits@IIV?$_Hash_compare@IV?$hash@I@tr1@std@@U?$equal_to@I@3@@stdext@@V?$allocator@U?$pair@$$CBII@std@@@std@@$0A@@tr1@std@@@stdext@@@1@@Z ; std::allocator<std::_Aux_cont>::allocator<std::_Aux_cont><stdext::_Hash<std::tr1::_Umap_traits<unsigned int,unsigned int,stdext::_Hash_compare<unsigned int,std::tr1::hash<unsigned int>,std::equal_to<unsigned int> >,std::allocator<std::pair<unsigned int const ,unsigned int> >,0> >::_List_position>
PUBLIC	??0?$_Container_base_aux_alloc_real@V?$allocator@U_List_position@?$_Hash@V?$_Umap_traits@IIV?$_Hash_compare@IV?$hash@I@tr1@std@@U?$equal_to@I@3@@stdext@@V?$allocator@U?$pair@$$CBII@std@@@std@@$0A@@tr1@std@@@stdext@@@std@@@std@@IAE@V?$allocator@U_List_position@?$_Hash@V?$_Umap_traits@IIV?$_Hash_compare@IV?$hash@I@tr1@std@@U?$equal_to@I@3@@stdext@@V?$allocator@U?$pair@$$CBII@std@@@std@@$0A@@tr1@std@@@stdext@@@1@@Z ; std::_Container_base_aux_alloc_real<std::allocator<stdext::_Hash<std::tr1::_Umap_traits<unsigned int,unsigned int,stdext::_Hash_compare<unsigned int,std::tr1::hash<unsigned int>,std::equal_to<unsigned int> >,std::allocator<std::pair<unsigned int const ,unsigned int> >,0> >::_List_position> >::_Container_base_aux_alloc_real<std::allocator<stdext::_Hash<std::tr1::_Umap_traits<unsigned int,unsigned int,stdext::_Hash_compare<unsigned int,std::tr1::hash<unsigned int>,std::equal_to<unsigned int> >,std::allocator<std::pair<unsigned int const ,unsigned int> >,0> >::_List_position> >
PUBLIC	??0?$allocator@U_List_position@?$_Hash@V?$_Umap_traits@IIV?$_Hash_compare@IV?$hash@I@tr1@std@@U?$equal_to@I@3@@stdext@@V?$allocator@U?$pair@$$CBII@std@@@std@@$0A@@tr1@std@@@stdext@@@std@@QAE@ABV01@@Z ; std::allocator<stdext::_Hash<std::tr1::_Umap_traits<unsigned int,unsigned int,stdext::_Hash_compare<unsigned int,std::tr1::hash<unsigned int>,std::equal_to<unsigned int> >,std::allocator<std::pair<unsigned int const ,unsigned int> >,0> >::_List_position>::allocator<stdext::_Hash<std::tr1::_Umap_traits<unsigned int,unsigned int,stdext::_Hash_compare<unsigned int,std::tr1::hash<unsigned int>,std::equal_to<unsigned int> >,std::allocator<std::pair<unsigned int const ,unsigned int> >,0> >::_List_position>
PUBLIC	??0?$_Vector_val@U_List_position@?$_Hash@V?$_Umap_traits@IIV?$_Hash_compare@IV?$hash@I@tr1@std@@U?$equal_to@I@3@@stdext@@V?$allocator@U?$pair@$$CBII@std@@@std@@$0A@@tr1@std@@@stdext@@V?$allocator@U_List_position@?$_Hash@V?$_Umap_traits@IIV?$_Hash_compare@IV?$hash@I@tr1@std@@U?$equal_to@I@3@@stdext@@V?$allocator@U?$pair@$$CBII@std@@@std@@$0A@@tr1@std@@@stdext@@@std@@@std@@IAE@V?$allocator@U_List_position@?$_Hash@V?$_Umap_traits@IIV?$_Hash_compare@IV?$hash@I@tr1@std@@U?$equal_to@I@3@@stdext@@V?$allocator@U?$pair@$$CBII@std@@@std@@$0A@@tr1@std@@@stdext@@@1@@Z ; std::_Vector_val<stdext::_Hash<std::tr1::_Umap_traits<unsigned int,unsigned int,stdext::_Hash_compare<unsigned int,std::tr1::hash<unsigned int>,std::equal_to<unsigned int> >,std::allocator<std::pair<unsigned int const ,unsigned int> >,0> >::_List_position,std::allocator<stdext::_Hash<std::tr1::_Umap_traits<unsigned int,unsigned int,stdext::_Hash_compare<unsigned int,std::tr1::hash<unsigned int>,std::equal_to<unsigned int> >,std::allocator<std::pair<unsigned int const ,unsigned int> >,0> >::_List_position> >::_Vector_val<stdext::_Hash<std::tr1::_Umap_traits<unsigned int,unsigned int,stdext::_Hash_compare<unsigned int,std::tr1::hash<unsigned int>,std::equal_to<unsigned int> >,std::allocator<std::pair<unsigned int const ,unsigned int> >,0> >::_List_position,std::allocator<stdext::_Hash<std::tr1::_Umap_traits<unsigned int,unsigned int,stdext::_Hash_compare<unsigned int,std::tr1::hash<unsigned int>,std::equal_to<unsigned int> >,std::allocator<std::pair<unsigned int const ,unsigned int> >,0> >::_List_position> >
PUBLIC	?_Buy@?$vector@U_List_position@?$_Hash@V?$_Umap_traits@IIV?$_Hash_compare@IV?$hash@I@tr1@std@@U?$equal_to@I@3@@stdext@@V?$allocator@U?$pair@$$CBII@std@@@std@@$0A@@tr1@std@@@stdext@@V?$allocator@U_List_position@?$_Hash@V?$_Umap_traits@IIV?$_Hash_compare@IV?$hash@I@tr1@std@@U?$equal_to@I@3@@stdext@@V?$allocator@U?$pair@$$CBII@std@@@std@@$0A@@tr1@std@@@stdext@@@std@@@std@@IAE_NI@Z ; std::vector<stdext::_Hash<std::tr1::_Umap_traits<unsigned int,unsigned int,stdext::_Hash_compare<unsigned int,std::tr1::hash<unsigned int>,std::equal_to<unsigned int> >,std::allocator<std::pair<unsigned int const ,unsigned int> >,0> >::_List_position,std::allocator<stdext::_Hash<std::tr1::_Umap_traits<unsigned int,unsigned int,stdext::_Hash_compare<unsigned int,std::tr1::hash<unsigned int>,std::equal_to<unsigned int> >,std::allocator<std::pair<unsigned int const ,unsigned int> >,0> >::_List_position> >::_Buy
PUBLIC	??0?$vector@U_List_position@?$_Hash@V?$_Umap_traits@IIV?$_Hash_compare@IV?$hash@I@tr1@std@@U?$equal_to@I@3@@stdext@@V?$allocator@U?$pair@$$CBII@std@@@std@@$0A@@tr1@std@@@stdext@@V?$allocator@U_List_position@?$_Hash@V?$_Umap_traits@IIV?$_Hash_compare@IV?$hash@I@tr1@std@@U?$equal_to@I@3@@stdext@@V?$allocator@U?$pair@$$CBII@std@@@std@@$0A@@tr1@std@@@stdext@@@std@@@std@@QAE@ABV?$allocator@U_List_position@?$_Hash@V?$_Umap_traits@IIV?$_Hash_compare@IV?$hash@I@tr1@std@@U?$equal_to@I@3@@stdext@@V?$allocator@U?$pair@$$CBII@std@@@std@@$0A@@tr1@std@@@stdext@@@1@@Z ; std::vector<stdext::_Hash<std::tr1::_Umap_traits<unsigned int,unsigned int,stdext::_Hash_compare<unsigned int,std::tr1::hash<unsigned int>,std::equal_to<unsigned int> >,std::allocator<std::pair<unsigned int const ,unsigned int> >,0> >::_List_position,std::allocator<stdext::_Hash<std::tr1::_Umap_traits<unsigned int,unsigned int,stdext::_Hash_compare<unsigned int,std::tr1::hash<unsigned int>,std::equal_to<unsigned int> >,std::allocator<std::pair<unsigned int const ,unsigned int> >,0> >::_List_position> >::vector<stdext::_Hash<std::tr1::_Umap_traits<unsigned int,unsigned int,stdext::_Hash_compare<unsigned int,std::tr1::hash<unsigned int>,std::equal_to<unsigned int> >,std::allocator<std::pair<unsigned int const ,unsigned int> >,0> >::_List_position,std::allocator<stdext::_Hash<std::tr1::_Umap_traits<unsigned int,unsigned int,stdext::_Hash_compare<unsigned int,std::tr1::hash<unsigned int>,std::equal_to<unsigned int> >,std::allocator<std::pair<unsigned int const ,unsigned int> >,0> >::_List_position> >
PUBLIC	??$?0U?$pair@$$CBII@std@@@?$allocator@U_List_position@?$_Hash@V?$_Umap_traits@IIV?$_Hash_compare@IV?$hash@I@tr1@std@@U?$equal_to@I@3@@stdext@@V?$allocator@U?$pair@$$CBII@std@@@std@@$0A@@tr1@std@@@stdext@@@std@@QAE@ABV?$allocator@U?$pair@$$CBII@std@@@1@@Z ; std::allocator<stdext::_Hash<std::tr1::_Umap_traits<unsigned int,unsigned int,stdext::_Hash_compare<unsigned int,std::tr1::hash<unsigned int>,std::equal_to<unsigned int> >,std::allocator<std::pair<unsigned int const ,unsigned int> >,0> >::_List_position>::allocator<stdext::_Hash<std::tr1::_Umap_traits<unsigned int,unsigned int,stdext::_Hash_compare<unsigned int,std::tr1::hash<unsigned int>,std::equal_to<unsigned int> >,std::allocator<std::pair<unsigned int const ,unsigned int> >,0> >::_List_position><std::pair<unsigned int const ,unsigned int> >
PUBLIC	??0?$_Hash@V?$_Umap_traits@IIV?$_Hash_compare@IV?$hash@I@tr1@std@@U?$equal_to@I@3@@stdext@@V?$allocator@U?$pair@$$CBII@std@@@std@@$0A@@tr1@std@@@stdext@@QAE@ABV?$_Hash_compare@IV?$hash@I@tr1@std@@U?$equal_to@I@3@@1@ABV?$allocator@U?$pair@$$CBII@std@@@std@@@Z ; stdext::_Hash<std::tr1::_Umap_traits<unsigned int,unsigned int,stdext::_Hash_compare<unsigned int,std::tr1::hash<unsigned int>,std::equal_to<unsigned int> >,std::allocator<std::pair<unsigned int const ,unsigned int> >,0> >::_Hash<std::tr1::_Umap_traits<unsigned int,unsigned int,stdext::_Hash_compare<unsigned int,std::tr1::hash<unsigned int>,std::equal_to<unsigned int> >,std::allocator<std::pair<unsigned int const ,unsigned int> >,0> >
PUBLIC	??0?$unordered_map@IIV?$hash@I@tr1@std@@U?$equal_to@I@3@V?$allocator@U?$pair@$$CBII@std@@@3@@tr1@std@@QAE@XZ ; std::tr1::unordered_map<unsigned int,unsigned int,std::tr1::hash<unsigned int>,std::equal_to<unsigned int>,std::allocator<std::pair<unsigned int const ,unsigned int> > >::unordered_map<unsigned int,unsigned int,std::tr1::hash<unsigned int>,std::equal_to<unsigned int>,std::allocator<std::pair<unsigned int const ,unsigned int> > >
PUBLIC	??0?$allocator@U?$pair@$$CB_KVDelayCounter@Statistics@DRAMsimII@@@std@@@std@@QAE@XZ ; std::allocator<std::pair<unsigned __int64 const ,DRAMsimII::Statistics::DelayCounter> >::allocator<std::pair<unsigned __int64 const ,DRAMsimII::Statistics::DelayCounter> >
PUBLIC	??$?0U?$pair@$$CB_KVDelayCounter@Statistics@DRAMsimII@@@std@@@?$allocator@V_Aux_cont@std@@@std@@QAE@ABV?$allocator@U?$pair@$$CB_KVDelayCounter@Statistics@DRAMsimII@@@std@@@1@@Z ; std::allocator<std::_Aux_cont>::allocator<std::_Aux_cont><std::pair<unsigned __int64 const ,DRAMsimII::Statistics::DelayCounter> >
PUBLIC	??0?$_Container_base_aux_alloc_real@V?$allocator@U?$pair@$$CB_KVDelayCounter@Statistics@DRAMsimII@@@std@@@std@@@std@@IAE@V?$allocator@U?$pair@$$CB_KVDelayCounter@Statistics@DRAMsimII@@@std@@@1@@Z ; std::_Container_base_aux_alloc_real<std::allocator<std::pair<unsigned __int64 const ,DRAMsimII::Statistics::DelayCounter> > >::_Container_base_aux_alloc_real<std::allocator<std::pair<unsigned __int64 const ,DRAMsimII::Statistics::DelayCounter> > >
PUBLIC	??0?$allocator@U?$pair@$$CB_KVDelayCounter@Statistics@DRAMsimII@@@std@@@std@@QAE@ABV01@@Z ; std::allocator<std::pair<unsigned __int64 const ,DRAMsimII::Statistics::DelayCounter> >::allocator<std::pair<unsigned __int64 const ,DRAMsimII::Statistics::DelayCounter> >
PUBLIC	??0?$_Tmap_traits@_KVDelayCounter@Statistics@DRAMsimII@@U?$less@_K@std@@V?$allocator@U?$pair@$$CB_KVDelayCounter@Statistics@DRAMsimII@@@std@@@5@$0A@@std@@QAE@U?$less@_K@1@V?$allocator@U?$pair@$$CB_KVDelayCounter@Statistics@DRAMsimII@@@std@@@1@@Z ; std::_Tmap_traits<unsigned __int64,DRAMsimII::Statistics::DelayCounter,std::less<unsigned __int64>,std::allocator<std::pair<unsigned __int64 const ,DRAMsimII::Statistics::DelayCounter> >,0>::_Tmap_traits<unsigned __int64,DRAMsimII::Statistics::DelayCounter,std::less<unsigned __int64>,std::allocator<std::pair<unsigned __int64 const ,DRAMsimII::Statistics::DelayCounter> >,0>
PUBLIC	??$?0U?$pair@$$CB_KVDelayCounter@Statistics@DRAMsimII@@@std@@@?$allocator@U_Node@?$_Tree_nod@V?$_Tmap_traits@_KVDelayCounter@Statistics@DRAMsimII@@U?$less@_K@std@@V?$allocator@U?$pair@$$CB_KVDelayCounter@Statistics@DRAMsimII@@@std@@@5@$0A@@std@@@std@@@std@@QAE@ABV?$allocator@U?$pair@$$CB_KVDelayCounter@Statistics@DRAMsimII@@@std@@@1@@Z ; std::allocator<std::_Tree_nod<std::_Tmap_traits<unsigned __int64,DRAMsimII::Statistics::DelayCounter,std::less<unsigned __int64>,std::allocator<std::pair<unsigned __int64 const ,DRAMsimII::Statistics::DelayCounter> >,0> >::_Node>::allocator<std::_Tree_nod<std::_Tmap_traits<unsigned __int64,DRAMsimII::Statistics::DelayCounter,std::less<unsigned __int64>,std::allocator<std::pair<unsigned __int64 const ,DRAMsimII::Statistics::DelayCounter> >,0> >::_Node><std::pair<unsigned __int64 const ,DRAMsimII::Statistics::DelayCounter> >
PUBLIC	??0?$_Tree_nod@V?$_Tmap_traits@_KVDelayCounter@Statistics@DRAMsimII@@U?$less@_K@std@@V?$allocator@U?$pair@$$CB_KVDelayCounter@Statistics@DRAMsimII@@@std@@@5@$0A@@std@@@std@@IAE@ABU?$less@_K@1@V?$allocator@U?$pair@$$CB_KVDelayCounter@Statistics@DRAMsimII@@@std@@@1@@Z ; std::_Tree_nod<std::_Tmap_traits<unsigned __int64,DRAMsimII::Statistics::DelayCounter,std::less<unsigned __int64>,std::allocator<std::pair<unsigned __int64 const ,DRAMsimII::Statistics::DelayCounter> >,0> >::_Tree_nod<std::_Tmap_traits<unsigned __int64,DRAMsimII::Statistics::DelayCounter,std::less<unsigned __int64>,std::allocator<std::pair<unsigned __int64 const ,DRAMsimII::Statistics::DelayCounter> >,0> >
PUBLIC	??$?0U?$pair@$$CB_KVDelayCounter@Statistics@DRAMsimII@@@std@@@?$allocator@PAU_Node@?$_Tree_nod@V?$_Tmap_traits@_KVDelayCounter@Statistics@DRAMsimII@@U?$less@_K@std@@V?$allocator@U?$pair@$$CB_KVDelayCounter@Statistics@DRAMsimII@@@std@@@5@$0A@@std@@@std@@@std@@QAE@ABV?$allocator@U?$pair@$$CB_KVDelayCounter@Statistics@DRAMsimII@@@std@@@1@@Z ; std::allocator<std::_Tree_nod<std::_Tmap_traits<unsigned __int64,DRAMsimII::Statistics::DelayCounter,std::less<unsigned __int64>,std::allocator<std::pair<unsigned __int64 const ,DRAMsimII::Statistics::DelayCounter> >,0> >::_Node *>::allocator<std::_Tree_nod<std::_Tmap_traits<unsigned __int64,DRAMsimII::Statistics::DelayCounter,std::less<unsigned __int64>,std::allocator<std::pair<unsigned __int64 const ,DRAMsimII::Statistics::DelayCounter> >,0> >::_Node *><std::pair<unsigned __int64 const ,DRAMsimII::Statistics::DelayCounter> >
PUBLIC	??0?$_Tree_ptr@V?$_Tmap_traits@_KVDelayCounter@Statistics@DRAMsimII@@U?$less@_K@std@@V?$allocator@U?$pair@$$CB_KVDelayCounter@Statistics@DRAMsimII@@@std@@@5@$0A@@std@@@std@@IAE@ABU?$less@_K@1@V?$allocator@U?$pair@$$CB_KVDelayCounter@Statistics@DRAMsimII@@@std@@@1@@Z ; std::_Tree_ptr<std::_Tmap_traits<unsigned __int64,DRAMsimII::Statistics::DelayCounter,std::less<unsigned __int64>,std::allocator<std::pair<unsigned __int64 const ,DRAMsimII::Statistics::DelayCounter> >,0> >::_Tree_ptr<std::_Tmap_traits<unsigned __int64,DRAMsimII::Statistics::DelayCounter,std::less<unsigned __int64>,std::allocator<std::pair<unsigned __int64 const ,DRAMsimII::Statistics::DelayCounter> >,0> >
PUBLIC	??0?$_Tree_val@V?$_Tmap_traits@_KVDelayCounter@Statistics@DRAMsimII@@U?$less@_K@std@@V?$allocator@U?$pair@$$CB_KVDelayCounter@Statistics@DRAMsimII@@@std@@@5@$0A@@std@@@std@@IAE@ABU?$less@_K@1@V?$allocator@U?$pair@$$CB_KVDelayCounter@Statistics@DRAMsimII@@@std@@@1@@Z ; std::_Tree_val<std::_Tmap_traits<unsigned __int64,DRAMsimII::Statistics::DelayCounter,std::less<unsigned __int64>,std::allocator<std::pair<unsigned __int64 const ,DRAMsimII::Statistics::DelayCounter> >,0> >::_Tree_val<std::_Tmap_traits<unsigned __int64,DRAMsimII::Statistics::DelayCounter,std::less<unsigned __int64>,std::allocator<std::pair<unsigned __int64 const ,DRAMsimII::Statistics::DelayCounter> >,0> >
PUBLIC	??$_Construct@PAU_Node@?$_Tree_nod@V?$_Tmap_traits@_KVDelayCounter@Statistics@DRAMsimII@@U?$less@_K@std@@V?$allocator@U?$pair@$$CB_KVDelayCounter@Statistics@DRAMsimII@@@std@@@5@$0A@@std@@@std@@PAU123@@std@@YAXPAPAU_Node@?$_Tree_nod@V?$_Tmap_traits@_KVDelayCounter@Statistics@DRAMsimII@@U?$less@_K@std@@V?$allocator@U?$pair@$$CB_KVDelayCounter@Statistics@DRAMsimII@@@std@@@5@$0A@@std@@@0@ABQAU120@@Z ; std::_Construct<std::_Tree_nod<std::_Tmap_traits<unsigned __int64,DRAMsimII::Statistics::DelayCounter,std::less<unsigned __int64>,std::allocator<std::pair<unsigned __int64 const ,DRAMsimII::Statistics::DelayCounter> >,0> >::_Node *,std::_Tree_nod<std::_Tmap_traits<unsigned __int64,DRAMsimII::Statistics::DelayCounter,std::less<unsigned __int64>,std::allocator<std::pair<unsigned __int64 const ,DRAMsimII::Statistics::DelayCounter> >,0> >::_Node *>
PUBLIC	?construct@?$allocator@PAU_Node@?$_Tree_nod@V?$_Tmap_traits@_KVDelayCounter@Statistics@DRAMsimII@@U?$less@_K@std@@V?$allocator@U?$pair@$$CB_KVDelayCounter@Statistics@DRAMsimII@@@std@@@5@$0A@@std@@@std@@@std@@QAEXPAPAU_Node@?$_Tree_nod@V?$_Tmap_traits@_KVDelayCounter@Statistics@DRAMsimII@@U?$less@_K@std@@V?$allocator@U?$pair@$$CB_KVDelayCounter@Statistics@DRAMsimII@@@std@@@5@$0A@@std@@@2@ABQAU342@@Z ; std::allocator<std::_Tree_nod<std::_Tmap_traits<unsigned __int64,DRAMsimII::Statistics::DelayCounter,std::less<unsigned __int64>,std::allocator<std::pair<unsigned __int64 const ,DRAMsimII::Statistics::DelayCounter> >,0> >::_Node *>::construct
PUBLIC	?_Buynode@?$_Tree@V?$_Tmap_traits@_KVDelayCounter@Statistics@DRAMsimII@@U?$less@_K@std@@V?$allocator@U?$pair@$$CB_KVDelayCounter@Statistics@DRAMsimII@@@std@@@5@$0A@@std@@@std@@IAEPAU_Node@?$_Tree_nod@V?$_Tmap_traits@_KVDelayCounter@Statistics@DRAMsimII@@U?$less@_K@std@@V?$allocator@U?$pair@$$CB_KVDelayCounter@Statistics@DRAMsimII@@@std@@@5@$0A@@std@@@2@XZ ; std::_Tree<std::_Tmap_traits<unsigned __int64,DRAMsimII::Statistics::DelayCounter,std::less<unsigned __int64>,std::allocator<std::pair<unsigned __int64 const ,DRAMsimII::Statistics::DelayCounter> >,0> >::_Buynode
PUBLIC	?_Init@?$_Tree@V?$_Tmap_traits@_KVDelayCounter@Statistics@DRAMsimII@@U?$less@_K@std@@V?$allocator@U?$pair@$$CB_KVDelayCounter@Statistics@DRAMsimII@@@std@@@5@$0A@@std@@@std@@IAEXXZ ; std::_Tree<std::_Tmap_traits<unsigned __int64,DRAMsimII::Statistics::DelayCounter,std::less<unsigned __int64>,std::allocator<std::pair<unsigned __int64 const ,DRAMsimII::Statistics::DelayCounter> >,0> >::_Init
PUBLIC	??0?$_Tree@V?$_Tmap_traits@_KVDelayCounter@Statistics@DRAMsimII@@U?$less@_K@std@@V?$allocator@U?$pair@$$CB_KVDelayCounter@Statistics@DRAMsimII@@@std@@@5@$0A@@std@@@std@@QAE@ABU?$less@_K@1@ABV?$allocator@U?$pair@$$CB_KVDelayCounter@Statistics@DRAMsimII@@@std@@@1@@Z ; std::_Tree<std::_Tmap_traits<unsigned __int64,DRAMsimII::Statistics::DelayCounter,std::less<unsigned __int64>,std::allocator<std::pair<unsigned __int64 const ,DRAMsimII::Statistics::DelayCounter> >,0> >::_Tree<std::_Tmap_traits<unsigned __int64,DRAMsimII::Statistics::DelayCounter,std::less<unsigned __int64>,std::allocator<std::pair<unsigned __int64 const ,DRAMsimII::Statistics::DelayCounter> >,0> >
PUBLIC	??0?$map@_KVDelayCounter@Statistics@DRAMsimII@@U?$less@_K@std@@V?$allocator@U?$pair@$$CB_KVDelayCounter@Statistics@DRAMsimII@@@std@@@5@@std@@QAE@XZ ; std::map<unsigned __int64,DRAMsimII::Statistics::DelayCounter,std::less<unsigned __int64>,std::allocator<std::pair<unsigned __int64 const ,DRAMsimII::Statistics::DelayCounter> > >::map<unsigned __int64,DRAMsimII::Statistics::DelayCounter,std::less<unsigned __int64>,std::allocator<std::pair<unsigned __int64 const ,DRAMsimII::Statistics::DelayCounter> > >
PUBLIC	??0?$allocator@U?$pair@$$CB_KI@std@@@std@@QAE@XZ ; std::allocator<std::pair<unsigned __int64 const ,unsigned int> >::allocator<std::pair<unsigned __int64 const ,unsigned int> >
PUBLIC	??$?0U?$pair@$$CB_KI@std@@@?$allocator@V_Aux_cont@std@@@std@@QAE@ABV?$allocator@U?$pair@$$CB_KI@std@@@1@@Z ; std::allocator<std::_Aux_cont>::allocator<std::_Aux_cont><std::pair<unsigned __int64 const ,unsigned int> >
PUBLIC	??0?$_Container_base_aux_alloc_real@V?$allocator@U?$pair@$$CB_KI@std@@@std@@@std@@IAE@V?$allocator@U?$pair@$$CB_KI@std@@@1@@Z ; std::_Container_base_aux_alloc_real<std::allocator<std::pair<unsigned __int64 const ,unsigned int> > >::_Container_base_aux_alloc_real<std::allocator<std::pair<unsigned __int64 const ,unsigned int> > >
PUBLIC	??0?$allocator@U?$pair@$$CB_KI@std@@@std@@QAE@ABV01@@Z ; std::allocator<std::pair<unsigned __int64 const ,unsigned int> >::allocator<std::pair<unsigned __int64 const ,unsigned int> >
PUBLIC	??0?$_Tmap_traits@_KIU?$less@_K@std@@V?$allocator@U?$pair@$$CB_KI@std@@@2@$0A@@std@@QAE@U?$less@_K@1@V?$allocator@U?$pair@$$CB_KI@std@@@1@@Z ; std::_Tmap_traits<unsigned __int64,unsigned int,std::less<unsigned __int64>,std::allocator<std::pair<unsigned __int64 const ,unsigned int> >,0>::_Tmap_traits<unsigned __int64,unsigned int,std::less<unsigned __int64>,std::allocator<std::pair<unsigned __int64 const ,unsigned int> >,0>
PUBLIC	??$?0U?$pair@$$CB_KI@std@@@?$allocator@U_Node@?$_Tree_nod@V?$_Tmap_traits@_KIU?$less@_K@std@@V?$allocator@U?$pair@$$CB_KI@std@@@2@$0A@@std@@@std@@@std@@QAE@ABV?$allocator@U?$pair@$$CB_KI@std@@@1@@Z ; std::allocator<std::_Tree_nod<std::_Tmap_traits<unsigned __int64,unsigned int,std::less<unsigned __int64>,std::allocator<std::pair<unsigned __int64 const ,unsigned int> >,0> >::_Node>::allocator<std::_Tree_nod<std::_Tmap_traits<unsigned __int64,unsigned int,std::less<unsigned __int64>,std::allocator<std::pair<unsigned __int64 const ,unsigned int> >,0> >::_Node><std::pair<unsigned __int64 const ,unsigned int> >
PUBLIC	??0?$_Tree_nod@V?$_Tmap_traits@_KIU?$less@_K@std@@V?$allocator@U?$pair@$$CB_KI@std@@@2@$0A@@std@@@std@@IAE@ABU?$less@_K@1@V?$allocator@U?$pair@$$CB_KI@std@@@1@@Z ; std::_Tree_nod<std::_Tmap_traits<unsigned __int64,unsigned int,std::less<unsigned __int64>,std::allocator<std::pair<unsigned __int64 const ,unsigned int> >,0> >::_Tree_nod<std::_Tmap_traits<unsigned __int64,unsigned int,std::less<unsigned __int64>,std::allocator<std::pair<unsigned __int64 const ,unsigned int> >,0> >
PUBLIC	??$?0U?$pair@$$CB_KI@std@@@?$allocator@PAU_Node@?$_Tree_nod@V?$_Tmap_traits@_KIU?$less@_K@std@@V?$allocator@U?$pair@$$CB_KI@std@@@2@$0A@@std@@@std@@@std@@QAE@ABV?$allocator@U?$pair@$$CB_KI@std@@@1@@Z ; std::allocator<std::_Tree_nod<std::_Tmap_traits<unsigned __int64,unsigned int,std::less<unsigned __int64>,std::allocator<std::pair<unsigned __int64 const ,unsigned int> >,0> >::_Node *>::allocator<std::_Tree_nod<std::_Tmap_traits<unsigned __int64,unsigned int,std::less<unsigned __int64>,std::allocator<std::pair<unsigned __int64 const ,unsigned int> >,0> >::_Node *><std::pair<unsigned __int64 const ,unsigned int> >
PUBLIC	??0?$_Tree_ptr@V?$_Tmap_traits@_KIU?$less@_K@std@@V?$allocator@U?$pair@$$CB_KI@std@@@2@$0A@@std@@@std@@IAE@ABU?$less@_K@1@V?$allocator@U?$pair@$$CB_KI@std@@@1@@Z ; std::_Tree_ptr<std::_Tmap_traits<unsigned __int64,unsigned int,std::less<unsigned __int64>,std::allocator<std::pair<unsigned __int64 const ,unsigned int> >,0> >::_Tree_ptr<std::_Tmap_traits<unsigned __int64,unsigned int,std::less<unsigned __int64>,std::allocator<std::pair<unsigned __int64 const ,unsigned int> >,0> >
PUBLIC	??0?$_Tree_val@V?$_Tmap_traits@_KIU?$less@_K@std@@V?$allocator@U?$pair@$$CB_KI@std@@@2@$0A@@std@@@std@@IAE@ABU?$less@_K@1@V?$allocator@U?$pair@$$CB_KI@std@@@1@@Z ; std::_Tree_val<std::_Tmap_traits<unsigned __int64,unsigned int,std::less<unsigned __int64>,std::allocator<std::pair<unsigned __int64 const ,unsigned int> >,0> >::_Tree_val<std::_Tmap_traits<unsigned __int64,unsigned int,std::less<unsigned __int64>,std::allocator<std::pair<unsigned __int64 const ,unsigned int> >,0> >
PUBLIC	??$_Construct@PAU_Node@?$_Tree_nod@V?$_Tmap_traits@_KIU?$less@_K@std@@V?$allocator@U?$pair@$$CB_KI@std@@@2@$0A@@std@@@std@@PAU123@@std@@YAXPAPAU_Node@?$_Tree_nod@V?$_Tmap_traits@_KIU?$less@_K@std@@V?$allocator@U?$pair@$$CB_KI@std@@@2@$0A@@std@@@0@ABQAU120@@Z ; std::_Construct<std::_Tree_nod<std::_Tmap_traits<unsigned __int64,unsigned int,std::less<unsigned __int64>,std::allocator<std::pair<unsigned __int64 const ,unsigned int> >,0> >::_Node *,std::_Tree_nod<std::_Tmap_traits<unsigned __int64,unsigned int,std::less<unsigned __int64>,std::allocator<std::pair<unsigned __int64 const ,unsigned int> >,0> >::_Node *>
PUBLIC	?construct@?$allocator@PAU_Node@?$_Tree_nod@V?$_Tmap_traits@_KIU?$less@_K@std@@V?$allocator@U?$pair@$$CB_KI@std@@@2@$0A@@std@@@std@@@std@@QAEXPAPAU_Node@?$_Tree_nod@V?$_Tmap_traits@_KIU?$less@_K@std@@V?$allocator@U?$pair@$$CB_KI@std@@@2@$0A@@std@@@2@ABQAU342@@Z ; std::allocator<std::_Tree_nod<std::_Tmap_traits<unsigned __int64,unsigned int,std::less<unsigned __int64>,std::allocator<std::pair<unsigned __int64 const ,unsigned int> >,0> >::_Node *>::construct
PUBLIC	?_Buynode@?$_Tree@V?$_Tmap_traits@_KIU?$less@_K@std@@V?$allocator@U?$pair@$$CB_KI@std@@@2@$0A@@std@@@std@@IAEPAU_Node@?$_Tree_nod@V?$_Tmap_traits@_KIU?$less@_K@std@@V?$allocator@U?$pair@$$CB_KI@std@@@2@$0A@@std@@@2@XZ ; std::_Tree<std::_Tmap_traits<unsigned __int64,unsigned int,std::less<unsigned __int64>,std::allocator<std::pair<unsigned __int64 const ,unsigned int> >,0> >::_Buynode
PUBLIC	?_Init@?$_Tree@V?$_Tmap_traits@_KIU?$less@_K@std@@V?$allocator@U?$pair@$$CB_KI@std@@@2@$0A@@std@@@std@@IAEXXZ ; std::_Tree<std::_Tmap_traits<unsigned __int64,unsigned int,std::less<unsigned __int64>,std::allocator<std::pair<unsigned __int64 const ,unsigned int> >,0> >::_Init
PUBLIC	??0?$_Tree@V?$_Tmap_traits@_KIU?$less@_K@std@@V?$allocator@U?$pair@$$CB_KI@std@@@2@$0A@@std@@@std@@QAE@ABU?$less@_K@1@ABV?$allocator@U?$pair@$$CB_KI@std@@@1@@Z ; std::_Tree<std::_Tmap_traits<unsigned __int64,unsigned int,std::less<unsigned __int64>,std::allocator<std::pair<unsigned __int64 const ,unsigned int> >,0> >::_Tree<std::_Tmap_traits<unsigned __int64,unsigned int,std::less<unsigned __int64>,std::allocator<std::pair<unsigned __int64 const ,unsigned int> >,0> >
PUBLIC	??0?$map@_KIU?$less@_K@std@@V?$allocator@U?$pair@$$CB_KI@std@@@2@@std@@QAE@XZ ; std::map<unsigned __int64,unsigned int,std::less<unsigned __int64>,std::allocator<std::pair<unsigned __int64 const ,unsigned int> > >::map<unsigned __int64,unsigned int,std::less<unsigned __int64>,std::allocator<std::pair<unsigned __int64 const ,unsigned int> > >
PUBLIC	??0?$allocator@I@std@@QAE@XZ			; std::allocator<unsigned int>::allocator<unsigned int>
PUBLIC	??$?0I@?$allocator@V_Aux_cont@std@@@std@@QAE@ABV?$allocator@I@1@@Z ; std::allocator<std::_Aux_cont>::allocator<std::_Aux_cont><unsigned int>
PUBLIC	??0?$_Container_base_aux_alloc_real@V?$allocator@I@std@@@std@@IAE@V?$allocator@I@1@@Z ; std::_Container_base_aux_alloc_real<std::allocator<unsigned int> >::_Container_base_aux_alloc_real<std::allocator<unsigned int> >
PUBLIC	??0?$allocator@I@std@@QAE@ABV01@@Z		; std::allocator<unsigned int>::allocator<unsigned int>
PUBLIC	??0?$_Vector_val@IV?$allocator@I@std@@@std@@IAE@V?$allocator@I@1@@Z ; std::_Vector_val<unsigned int,std::allocator<unsigned int> >::_Vector_val<unsigned int,std::allocator<unsigned int> >
PUBLIC	??$_Allocate@I@std@@YAPAIIPAI@Z			; std::_Allocate<unsigned int>
PUBLIC	?allocate@?$allocator@I@std@@QAEPAII@Z		; std::allocator<unsigned int>::allocate
PUBLIC	?max_size@?$allocator@I@std@@QBEIXZ		; std::allocator<unsigned int>::max_size
PUBLIC	?max_size@?$vector@IV?$allocator@I@std@@@std@@QBEIXZ ; std::vector<unsigned int,std::allocator<unsigned int> >::max_size
PUBLIC	?_Xlen@?$vector@IV?$allocator@I@std@@@std@@KAXXZ ; std::vector<unsigned int,std::allocator<unsigned int> >::_Xlen
PUBLIC	?_Buy@?$vector@IV?$allocator@I@std@@@std@@IAE_NI@Z ; std::vector<unsigned int,std::allocator<unsigned int> >::_Buy
PUBLIC	??$_Iter_cat@PAI@std@@YA?AUrandom_access_iterator_tag@0@ABQAI@Z ; std::_Iter_cat<unsigned int *>
PUBLIC	??$_Checked_base@PAI@std@@YAPAIAAPAIU_Unchanged_checked_iterator_base_type_tag@0@@Z ; std::_Checked_base<unsigned int *>
PUBLIC	??$_Checked_base@PAI@std@@YAPAIAAPAI@Z		; std::_Checked_base<unsigned int *>
PUBLIC	??$_Fill_n@PAIII@std@@YAXPAIIABIU_Range_checked_iterator_tag@0@@Z ; std::_Fill_n<unsigned int *,unsigned int,unsigned int>
PUBLIC	??$_Fill_n@PAIII@std@@YAXPAIIABIUrandom_access_iterator_tag@0@U_Range_checked_iterator_tag@0@@Z ; std::_Fill_n<unsigned int *,unsigned int,unsigned int>
PUBLIC	??$unchecked_fill_n@PAIII@stdext@@YAXPAIIABI@Z	; stdext::unchecked_fill_n<unsigned int *,unsigned int,unsigned int>
PUBLIC	??$_Uninit_fill_n@PAIIIV?$allocator@I@std@@@std@@YAXPAIIABIAAV?$allocator@I@0@U_Scalar_ptr_iterator_tag@0@U_Range_checked_iterator_tag@0@@Z ; std::_Uninit_fill_n<unsigned int *,unsigned int,unsigned int,std::allocator<unsigned int> >
PUBLIC	??$unchecked_uninitialized_fill_n@PAIIIV?$allocator@I@std@@@stdext@@YAXPAIIABIAAV?$allocator@I@std@@@Z ; stdext::unchecked_uninitialized_fill_n<unsigned int *,unsigned int,unsigned int,std::allocator<unsigned int> >
PUBLIC	?_Ufill@?$vector@IV?$allocator@I@std@@@std@@IAEPAIPAIIABI@Z ; std::vector<unsigned int,std::allocator<unsigned int> >::_Ufill
PUBLIC	?_Construct_n@?$vector@IV?$allocator@I@std@@@std@@QAEXIABI@Z ; std::vector<unsigned int,std::allocator<unsigned int> >::_Construct_n
PUBLIC	??0?$vector@IV?$allocator@I@std@@@std@@QAE@I@Z	; std::vector<unsigned int,std::allocator<unsigned int> >::vector<unsigned int,std::allocator<unsigned int> >
PUBLIC	??0?$allocator@V?$vector@U?$pair@U?$pair@_K_K@std@@U12@@std@@V?$allocator@U?$pair@U?$pair@_K_K@std@@U12@@std@@@2@@std@@@std@@QAE@XZ ; std::allocator<std::vector<std::pair<std::pair<unsigned __int64,unsigned __int64>,std::pair<unsigned __int64,unsigned __int64> >,std::allocator<std::pair<std::pair<unsigned __int64,unsigned __int64>,std::pair<unsigned __int64,unsigned __int64> > > > >::allocator<std::vector<std::pair<std::pair<unsigned __int64,unsigned __int64>,std::pair<unsigned __int64,unsigned __int64> >,std::allocator<std::pair<std::pair<unsigned __int64,unsigned __int64>,std::pair<unsigned __int64,unsigned __int64> > > > >
PUBLIC	??$?0V?$vector@U?$pair@U?$pair@_K_K@std@@U12@@std@@V?$allocator@U?$pair@U?$pair@_K_K@std@@U12@@std@@@2@@std@@@?$allocator@V_Aux_cont@std@@@std@@QAE@ABV?$allocator@V?$vector@U?$pair@U?$pair@_K_K@std@@U12@@std@@V?$allocator@U?$pair@U?$pair@_K_K@std@@U12@@std@@@2@@std@@@1@@Z ; std::allocator<std::_Aux_cont>::allocator<std::_Aux_cont><std::vector<std::pair<std::pair<unsigned __int64,unsigned __int64>,std::pair<unsigned __int64,unsigned __int64> >,std::allocator<std::pair<std::pair<unsigned __int64,unsigned __int64>,std::pair<unsigned __int64,unsigned __int64> > > > >
PUBLIC	??0?$_Container_base_aux_alloc_real@V?$allocator@V?$vector@U?$pair@U?$pair@_K_K@std@@U12@@std@@V?$allocator@U?$pair@U?$pair@_K_K@std@@U12@@std@@@2@@std@@@std@@@std@@IAE@V?$allocator@V?$vector@U?$pair@U?$pair@_K_K@std@@U12@@std@@V?$allocator@U?$pair@U?$pair@_K_K@std@@U12@@std@@@2@@std@@@1@@Z ; std::_Container_base_aux_alloc_real<std::allocator<std::vector<std::pair<std::pair<unsigned __int64,unsigned __int64>,std::pair<unsigned __int64,unsigned __int64> >,std::allocator<std::pair<std::pair<unsigned __int64,unsigned __int64>,std::pair<unsigned __int64,unsigned __int64> > > > > >::_Container_base_aux_alloc_real<std::allocator<std::vector<std::pair<std::pair<unsigned __int64,unsigned __int64>,std::pair<unsigned __int64,unsigned __int64> >,std::allocator<std::pair<std::pair<unsigned __int64,unsigned __int64>,std::pair<unsigned __int64,unsigned __int64> > > > > >
PUBLIC	??0?$allocator@V?$vector@U?$pair@U?$pair@_K_K@std@@U12@@std@@V?$allocator@U?$pair@U?$pair@_K_K@std@@U12@@std@@@2@@std@@@std@@QAE@ABV01@@Z ; std::allocator<std::vector<std::pair<std::pair<unsigned __int64,unsigned __int64>,std::pair<unsigned __int64,unsigned __int64> >,std::allocator<std::pair<std::pair<unsigned __int64,unsigned __int64>,std::pair<unsigned __int64,unsigned __int64> > > > >::allocator<std::vector<std::pair<std::pair<unsigned __int64,unsigned __int64>,std::pair<unsigned __int64,unsigned __int64> >,std::allocator<std::pair<std::pair<unsigned __int64,unsigned __int64>,std::pair<unsigned __int64,unsigned __int64> > > > >
PUBLIC	??0?$_Vector_val@V?$vector@U?$pair@U?$pair@_K_K@std@@U12@@std@@V?$allocator@U?$pair@U?$pair@_K_K@std@@U12@@std@@@2@@std@@V?$allocator@V?$vector@U?$pair@U?$pair@_K_K@std@@U12@@std@@V?$allocator@U?$pair@U?$pair@_K_K@std@@U12@@std@@@2@@std@@@2@@std@@IAE@V?$allocator@V?$vector@U?$pair@U?$pair@_K_K@std@@U12@@std@@V?$allocator@U?$pair@U?$pair@_K_K@std@@U12@@std@@@2@@std@@@1@@Z ; std::_Vector_val<std::vector<std::pair<std::pair<unsigned __int64,unsigned __int64>,std::pair<unsigned __int64,unsigned __int64> >,std::allocator<std::pair<std::pair<unsigned __int64,unsigned __int64>,std::pair<unsigned __int64,unsigned __int64> > > >,std::allocator<std::vector<std::pair<std::pair<unsigned __int64,unsigned __int64>,std::pair<unsigned __int64,unsigned __int64> >,std::allocator<std::pair<std::pair<unsigned __int64,unsigned __int64>,std::pair<unsigned __int64,unsigned __int64> > > > > >::_Vector_val<std::vector<std::pair<std::pair<unsigned __int64,unsigned __int64>,std::pair<unsigned __int64,unsigned __int64> >,std::allocator<std::pair<std::pair<unsigned __int64,unsigned __int64>,std::pair<unsigned __int64,unsigned __int64> > > >,std::allocator<std::vector<std::pair<std::pair<unsigned __int64,unsigned __int64>,std::pair<unsigned __int64,unsigned __int64> >,std::allocator<std::pair<std::pair<unsigned __int64,unsigned __int64>,std::pair<unsigned __int64,unsigned __int64> > > > > >
PUBLIC	??$_Allocate@V?$vector@U?$pair@U?$pair@_K_K@std@@U12@@std@@V?$allocator@U?$pair@U?$pair@_K_K@std@@U12@@std@@@2@@std@@@std@@YAPAV?$vector@U?$pair@U?$pair@_K_K@std@@U12@@std@@V?$allocator@U?$pair@U?$pair@_K_K@std@@U12@@std@@@2@@0@IPAV10@@Z ; std::_Allocate<std::vector<std::pair<std::pair<unsigned __int64,unsigned __int64>,std::pair<unsigned __int64,unsigned __int64> >,std::allocator<std::pair<std::pair<unsigned __int64,unsigned __int64>,std::pair<unsigned __int64,unsigned __int64> > > > >
PUBLIC	?allocate@?$allocator@V?$vector@U?$pair@U?$pair@_K_K@std@@U12@@std@@V?$allocator@U?$pair@U?$pair@_K_K@std@@U12@@std@@@2@@std@@@std@@QAEPAV?$vector@U?$pair@U?$pair@_K_K@std@@U12@@std@@V?$allocator@U?$pair@U?$pair@_K_K@std@@U12@@std@@@2@@2@I@Z ; std::allocator<std::vector<std::pair<std::pair<unsigned __int64,unsigned __int64>,std::pair<unsigned __int64,unsigned __int64> >,std::allocator<std::pair<std::pair<unsigned __int64,unsigned __int64>,std::pair<unsigned __int64,unsigned __int64> > > > >::allocate
PUBLIC	?max_size@?$allocator@V?$vector@U?$pair@U?$pair@_K_K@std@@U12@@std@@V?$allocator@U?$pair@U?$pair@_K_K@std@@U12@@std@@@2@@std@@@std@@QBEIXZ ; std::allocator<std::vector<std::pair<std::pair<unsigned __int64,unsigned __int64>,std::pair<unsigned __int64,unsigned __int64> >,std::allocator<std::pair<std::pair<unsigned __int64,unsigned __int64>,std::pair<unsigned __int64,unsigned __int64> > > > >::max_size
PUBLIC	?max_size@?$vector@V?$vector@U?$pair@U?$pair@_K_K@std@@U12@@std@@V?$allocator@U?$pair@U?$pair@_K_K@std@@U12@@std@@@2@@std@@V?$allocator@V?$vector@U?$pair@U?$pair@_K_K@std@@U12@@std@@V?$allocator@U?$pair@U?$pair@_K_K@std@@U12@@std@@@2@@std@@@2@@std@@QBEIXZ ; std::vector<std::vector<std::pair<std::pair<unsigned __int64,unsigned __int64>,std::pair<unsigned __int64,unsigned __int64> >,std::allocator<std::pair<std::pair<unsigned __int64,unsigned __int64>,std::pair<unsigned __int64,unsigned __int64> > > >,std::allocator<std::vector<std::pair<std::pair<unsigned __int64,unsigned __int64>,std::pair<unsigned __int64,unsigned __int64> >,std::allocator<std::pair<std::pair<unsigned __int64,unsigned __int64>,std::pair<unsigned __int64,unsigned __int64> > > > > >::max_size
PUBLIC	?_Xlen@?$vector@V?$vector@U?$pair@U?$pair@_K_K@std@@U12@@std@@V?$allocator@U?$pair@U?$pair@_K_K@std@@U12@@std@@@2@@std@@V?$allocator@V?$vector@U?$pair@U?$pair@_K_K@std@@U12@@std@@V?$allocator@U?$pair@U?$pair@_K_K@std@@U12@@std@@@2@@std@@@2@@std@@KAXXZ ; std::vector<std::vector<std::pair<std::pair<unsigned __int64,unsigned __int64>,std::pair<unsigned __int64,unsigned __int64> >,std::allocator<std::pair<std::pair<unsigned __int64,unsigned __int64>,std::pair<unsigned __int64,unsigned __int64> > > >,std::allocator<std::vector<std::pair<std::pair<unsigned __int64,unsigned __int64>,std::pair<unsigned __int64,unsigned __int64> >,std::allocator<std::pair<std::pair<unsigned __int64,unsigned __int64>,std::pair<unsigned __int64,unsigned __int64> > > > > >::_Xlen
PUBLIC	?_Buy@?$vector@V?$vector@U?$pair@U?$pair@_K_K@std@@U12@@std@@V?$allocator@U?$pair@U?$pair@_K_K@std@@U12@@std@@@2@@std@@V?$allocator@V?$vector@U?$pair@U?$pair@_K_K@std@@U12@@std@@V?$allocator@U?$pair@U?$pair@_K_K@std@@U12@@std@@@2@@std@@@2@@std@@IAE_NI@Z ; std::vector<std::vector<std::pair<std::pair<unsigned __int64,unsigned __int64>,std::pair<unsigned __int64,unsigned __int64> >,std::allocator<std::pair<std::pair<unsigned __int64,unsigned __int64>,std::pair<unsigned __int64,unsigned __int64> > > >,std::allocator<std::vector<std::pair<std::pair<unsigned __int64,unsigned __int64>,std::pair<unsigned __int64,unsigned __int64> >,std::allocator<std::pair<std::pair<unsigned __int64,unsigned __int64>,std::pair<unsigned __int64,unsigned __int64> > > > > >::_Buy
PUBLIC	??0?$vector@V?$vector@U?$pair@U?$pair@_K_K@std@@U12@@std@@V?$allocator@U?$pair@U?$pair@_K_K@std@@U12@@std@@@2@@std@@V?$allocator@V?$vector@U?$pair@U?$pair@_K_K@std@@U12@@std@@V?$allocator@U?$pair@U?$pair@_K_K@std@@U12@@std@@@2@@std@@@2@@std@@QAE@XZ ; std::vector<std::vector<std::pair<std::pair<unsigned __int64,unsigned __int64>,std::pair<unsigned __int64,unsigned __int64> >,std::allocator<std::pair<std::pair<unsigned __int64,unsigned __int64>,std::pair<unsigned __int64,unsigned __int64> > > >,std::allocator<std::vector<std::pair<std::pair<unsigned __int64,unsigned __int64>,std::pair<unsigned __int64,unsigned __int64> >,std::allocator<std::pair<std::pair<unsigned __int64,unsigned __int64>,std::pair<unsigned __int64,unsigned __int64> > > > > >::vector<std::vector<std::pair<std::pair<unsigned __int64,unsigned __int64>,std::pair<unsigned __int64,unsigned __int64> >,std::allocator<std::pair<std::pair<unsigned __int64,unsigned __int64>,std::pair<unsigned __int64,unsigned __int64> > > >,std::allocator<std::vector<std::pair<std::pair<unsigned __int64,unsigned __int64>,std::pair<unsigned __int64,unsigned __int64> >,std::allocator<std::pair<std::pair<unsigned __int64,unsigned __int64>,std::pair<unsigned __int64,unsigned __int64> > > > > >
PUBLIC	??0?$pair@II@std@@QAE@XZ			; std::pair<unsigned int,unsigned int>::pair<unsigned int,unsigned int>
PUBLIC	??0?$allocator@U?$pair@II@std@@@std@@QAE@XZ	; std::allocator<std::pair<unsigned int,unsigned int> >::allocator<std::pair<unsigned int,unsigned int> >
PUBLIC	??$?0U?$pair@II@std@@@?$allocator@V_Aux_cont@std@@@std@@QAE@ABV?$allocator@U?$pair@II@std@@@1@@Z ; std::allocator<std::_Aux_cont>::allocator<std::_Aux_cont><std::pair<unsigned int,unsigned int> >
PUBLIC	??0?$_Container_base_aux_alloc_real@V?$allocator@U?$pair@II@std@@@std@@@std@@IAE@V?$allocator@U?$pair@II@std@@@1@@Z ; std::_Container_base_aux_alloc_real<std::allocator<std::pair<unsigned int,unsigned int> > >::_Container_base_aux_alloc_real<std::allocator<std::pair<unsigned int,unsigned int> > >
PUBLIC	??0?$allocator@U?$pair@II@std@@@std@@QAE@ABV01@@Z ; std::allocator<std::pair<unsigned int,unsigned int> >::allocator<std::pair<unsigned int,unsigned int> >
PUBLIC	??0?$_Vector_val@U?$pair@II@std@@V?$allocator@U?$pair@II@std@@@2@@std@@IAE@V?$allocator@U?$pair@II@std@@@1@@Z ; std::_Vector_val<std::pair<unsigned int,unsigned int>,std::allocator<std::pair<unsigned int,unsigned int> > >::_Vector_val<std::pair<unsigned int,unsigned int>,std::allocator<std::pair<unsigned int,unsigned int> > >
PUBLIC	??$_Allocate@U?$pair@II@std@@@std@@YAPAU?$pair@II@0@IPAU10@@Z ; std::_Allocate<std::pair<unsigned int,unsigned int> >
PUBLIC	?allocate@?$allocator@U?$pair@II@std@@@std@@QAEPAU?$pair@II@2@I@Z ; std::allocator<std::pair<unsigned int,unsigned int> >::allocate
PUBLIC	?max_size@?$allocator@U?$pair@II@std@@@std@@QBEIXZ ; std::allocator<std::pair<unsigned int,unsigned int> >::max_size
PUBLIC	?max_size@?$vector@U?$pair@II@std@@V?$allocator@U?$pair@II@std@@@2@@std@@QBEIXZ ; std::vector<std::pair<unsigned int,unsigned int>,std::allocator<std::pair<unsigned int,unsigned int> > >::max_size
PUBLIC	?_Xlen@?$vector@U?$pair@II@std@@V?$allocator@U?$pair@II@std@@@2@@std@@KAXXZ ; std::vector<std::pair<unsigned int,unsigned int>,std::allocator<std::pair<unsigned int,unsigned int> > >::_Xlen
PUBLIC	?_Buy@?$vector@U?$pair@II@std@@V?$allocator@U?$pair@II@std@@@2@@std@@IAE_NI@Z ; std::vector<std::pair<unsigned int,unsigned int>,std::allocator<std::pair<unsigned int,unsigned int> > >::_Buy
PUBLIC	??$_Construct@U?$pair@II@std@@U12@@std@@YAXPAU?$pair@II@0@ABU10@@Z ; std::_Construct<std::pair<unsigned int,unsigned int>,std::pair<unsigned int,unsigned int> >
PUBLIC	?construct@?$allocator@U?$pair@II@std@@@std@@QAEXPAU?$pair@II@2@ABU32@@Z ; std::allocator<std::pair<unsigned int,unsigned int> >::construct
PUBLIC	??$_Uninit_fill_n@PAU?$pair@II@std@@IU12@V?$allocator@U?$pair@II@std@@@2@@std@@YAXPAU?$pair@II@0@IABU10@AAV?$allocator@U?$pair@II@std@@@0@U_Nonscalar_ptr_iterator_tag@0@U_Range_checked_iterator_tag@0@@Z ; std::_Uninit_fill_n<std::pair<unsigned int,unsigned int> *,unsigned int,std::pair<unsigned int,unsigned int>,std::allocator<std::pair<unsigned int,unsigned int> > >
PUBLIC	??$unchecked_uninitialized_fill_n@PAU?$pair@II@std@@IU12@V?$allocator@U?$pair@II@std@@@2@@stdext@@YAXPAU?$pair@II@std@@IABU12@AAV?$allocator@U?$pair@II@std@@@2@@Z ; stdext::unchecked_uninitialized_fill_n<std::pair<unsigned int,unsigned int> *,unsigned int,std::pair<unsigned int,unsigned int>,std::allocator<std::pair<unsigned int,unsigned int> > >
PUBLIC	?_Ufill@?$vector@U?$pair@II@std@@V?$allocator@U?$pair@II@std@@@2@@std@@IAEPAU?$pair@II@2@PAU32@IABU32@@Z ; std::vector<std::pair<unsigned int,unsigned int>,std::allocator<std::pair<unsigned int,unsigned int> > >::_Ufill
PUBLIC	?_Construct_n@?$vector@U?$pair@II@std@@V?$allocator@U?$pair@II@std@@@2@@std@@QAEXIABU?$pair@II@2@@Z ; std::vector<std::pair<unsigned int,unsigned int>,std::allocator<std::pair<unsigned int,unsigned int> > >::_Construct_n
PUBLIC	??0?$vector@U?$pair@II@std@@V?$allocator@U?$pair@II@std@@@2@@std@@QAE@I@Z ; std::vector<std::pair<unsigned int,unsigned int>,std::allocator<std::pair<unsigned int,unsigned int> > >::vector<std::pair<unsigned int,unsigned int>,std::allocator<std::pair<unsigned int,unsigned int> > >
PUBLIC	?getDecodeDelay@Transaction@DRAMsimII@@QBE_JXZ	; DRAMsimII::Transaction::getDecodeDelay
PUBLIC	?getProgramCounter@Transaction@DRAMsimII@@QBE_KXZ ; DRAMsimII::Transaction::getProgramCounter
PUBLIC	?getLength@Transaction@DRAMsimII@@QBEIXZ	; DRAMsimII::Transaction::getLength
PUBLIC	?isWrite@Transaction@DRAMsimII@@QBE_NXZ		; DRAMsimII::Transaction::isWrite
PUBLIC	?countUp@DelayCounter@Statistics@DRAMsimII@@QAEXXZ ; DRAMsimII::Statistics::DelayCounter::countUp
PUBLIC	?delay@DelayCounter@Statistics@DRAMsimII@@QAEXI@Z ; DRAMsimII::Statistics::DelayCounter::delay
PUBLIC	??0DelayCounter@Statistics@DRAMsimII@@QAE@XZ	; DRAMsimII::Statistics::DelayCounter::DelayCounter
PUBLIC	??Fiterator@?$_Tree@V?$_Tmap_traits@_KVDelayCounter@Statistics@DRAMsimII@@U?$less@_K@std@@V?$allocator@U?$pair@$$CB_KVDelayCounter@Statistics@DRAMsimII@@@std@@@5@$0A@@std@@@std@@QAEAAV012@XZ ; std::_Tree<std::_Tmap_traits<unsigned __int64,DRAMsimII::Statistics::DelayCounter,std::less<unsigned __int64>,std::allocator<std::pair<unsigned __int64 const ,DRAMsimII::Statistics::DelayCounter> >,0> >::iterator::operator--
PUBLIC	??0?$pair@Viterator@?$_Tree@V?$_Tmap_traits@_KVDelayCounter@Statistics@DRAMsimII@@U?$less@_K@std@@V?$allocator@U?$pair@$$CB_KVDelayCounter@Statistics@DRAMsimII@@@std@@@5@$0A@@std@@@std@@_N@std@@QAE@ABViterator@?$_Tree@V?$_Tmap_traits@_KVDelayCounter@Statistics@DRAMsimII@@U?$less@_K@std@@V?$allocator@U?$pair@$$CB_KVDelayCounter@Statistics@DRAMsimII@@@std@@@5@$0A@@std@@@1@AB_N@Z ; std::pair<std::_Tree<std::_Tmap_traits<unsigned __int64,DRAMsimII::Statistics::DelayCounter,std::less<unsigned __int64>,std::allocator<std::pair<unsigned __int64 const ,DRAMsimII::Statistics::DelayCounter> >,0> >::iterator,bool>::pair<std::_Tree<std::_Tmap_traits<unsigned __int64,DRAMsimII::Statistics::DelayCounter,std::less<unsigned __int64>,std::allocator<std::pair<unsigned __int64 const ,DRAMsimII::Statistics::DelayCounter> >,0> >::iterator,bool>
PUBLIC	?insert@?$_Tree@V?$_Tmap_traits@_KVDelayCounter@Statistics@DRAMsimII@@U?$less@_K@std@@V?$allocator@U?$pair@$$CB_KVDelayCounter@Statistics@DRAMsimII@@@std@@@5@$0A@@std@@@std@@QAE?AU?$pair@Viterator@?$_Tree@V?$_Tmap_traits@_KVDelayCounter@Statistics@DRAMsimII@@U?$less@_K@std@@V?$allocator@U?$pair@$$CB_KVDelayCounter@Statistics@DRAMsimII@@@std@@@5@$0A@@std@@@std@@_N@2@ABU?$pair@$$CB_KVDelayCounter@Statistics@DRAMsimII@@@2@@Z ; std::_Tree<std::_Tmap_traits<unsigned __int64,DRAMsimII::Statistics::DelayCounter,std::less<unsigned __int64>,std::allocator<std::pair<unsigned __int64 const ,DRAMsimII::Statistics::DelayCounter> >,0> >::insert
PUBLIC	?max_size@?$allocator@U?$pair@$$CB_KVDelayCounter@Statistics@DRAMsimII@@@std@@@std@@QBEIXZ ; std::allocator<std::pair<unsigned __int64 const ,DRAMsimII::Statistics::DelayCounter> >::max_size
PUBLIC	?max_size@?$_Tree@V?$_Tmap_traits@_KVDelayCounter@Statistics@DRAMsimII@@U?$less@_K@std@@V?$allocator@U?$pair@$$CB_KVDelayCounter@Statistics@DRAMsimII@@@std@@@5@$0A@@std@@@std@@QBEIXZ ; std::_Tree<std::_Tmap_traits<unsigned __int64,DRAMsimII::Statistics::DelayCounter,std::less<unsigned __int64>,std::allocator<std::pair<unsigned __int64 const ,DRAMsimII::Statistics::DelayCounter> >,0> >::max_size
PUBLIC	??$_Allocate@U_Node@?$_Tree_nod@V?$_Tmap_traits@_KVDelayCounter@Statistics@DRAMsimII@@U?$less@_K@std@@V?$allocator@U?$pair@$$CB_KVDelayCounter@Statistics@DRAMsimII@@@std@@@5@$0A@@std@@@std@@@std@@YAPAU_Node@?$_Tree_nod@V?$_Tmap_traits@_KVDelayCounter@Statistics@DRAMsimII@@U?$less@_K@std@@V?$allocator@U?$pair@$$CB_KVDelayCounter@Statistics@DRAMsimII@@@std@@@5@$0A@@std@@@0@IPAU120@@Z ; std::_Allocate<std::_Tree_nod<std::_Tmap_traits<unsigned __int64,DRAMsimII::Statistics::DelayCounter,std::less<unsigned __int64>,std::allocator<std::pair<unsigned __int64 const ,DRAMsimII::Statistics::DelayCounter> >,0> >::_Node>
PUBLIC	?allocate@?$allocator@U_Node@?$_Tree_nod@V?$_Tmap_traits@_KVDelayCounter@Statistics@DRAMsimII@@U?$less@_K@std@@V?$allocator@U?$pair@$$CB_KVDelayCounter@Statistics@DRAMsimII@@@std@@@5@$0A@@std@@@std@@@std@@QAEPAU_Node@?$_Tree_nod@V?$_Tmap_traits@_KVDelayCounter@Statistics@DRAMsimII@@U?$less@_K@std@@V?$allocator@U?$pair@$$CB_KVDelayCounter@Statistics@DRAMsimII@@@std@@@5@$0A@@std@@@2@I@Z ; std::allocator<std::_Tree_nod<std::_Tmap_traits<unsigned __int64,DRAMsimII::Statistics::DelayCounter,std::less<unsigned __int64>,std::allocator<std::pair<unsigned __int64 const ,DRAMsimII::Statistics::DelayCounter> >,0> >::_Node>::allocate
PUBLIC	??0_Node@?$_Tree_nod@V?$_Tmap_traits@_KVDelayCounter@Statistics@DRAMsimII@@U?$less@_K@std@@V?$allocator@U?$pair@$$CB_KVDelayCounter@Statistics@DRAMsimII@@@std@@@5@$0A@@std@@@std@@QAE@PAU012@00ABU?$pair@$$CB_KVDelayCounter@Statistics@DRAMsimII@@@2@D@Z ; std::_Tree_nod<std::_Tmap_traits<unsigned __int64,DRAMsimII::Statistics::DelayCounter,std::less<unsigned __int64>,std::allocator<std::pair<unsigned __int64 const ,DRAMsimII::Statistics::DelayCounter> >,0> >::_Node::_Node
PUBLIC	?_Buynode@?$_Tree@V?$_Tmap_traits@_KVDelayCounter@Statistics@DRAMsimII@@U?$less@_K@std@@V?$allocator@U?$pair@$$CB_KVDelayCounter@Statistics@DRAMsimII@@@std@@@5@$0A@@std@@@std@@IAEPAU_Node@?$_Tree_nod@V?$_Tmap_traits@_KVDelayCounter@Statistics@DRAMsimII@@U?$less@_K@std@@V?$allocator@U?$pair@$$CB_KVDelayCounter@Statistics@DRAMsimII@@@std@@@5@$0A@@std@@@2@PAU342@00ABU?$pair@$$CB_KVDelayCounter@Statistics@DRAMsimII@@@2@D@Z ; std::_Tree<std::_Tmap_traits<unsigned __int64,DRAMsimII::Statistics::DelayCounter,std::less<unsigned __int64>,std::allocator<std::pair<unsigned __int64 const ,DRAMsimII::Statistics::DelayCounter> >,0> >::_Buynode
PUBLIC	?_Insert@?$_Tree@V?$_Tmap_traits@_KVDelayCounter@Statistics@DRAMsimII@@U?$less@_K@std@@V?$allocator@U?$pair@$$CB_KVDelayCounter@Statistics@DRAMsimII@@@std@@@5@$0A@@std@@@std@@IAE?AViterator@12@_NPAU_Node@?$_Tree_nod@V?$_Tmap_traits@_KVDelayCounter@Statistics@DRAMsimII@@U?$less@_K@std@@V?$allocator@U?$pair@$$CB_KVDelayCounter@Statistics@DRAMsimII@@@std@@@5@$0A@@std@@@2@ABU?$pair@$$CB_KVDelayCounter@Statistics@DRAMsimII@@@2@@Z ; std::_Tree<std::_Tmap_traits<unsigned __int64,DRAMsimII::Statistics::DelayCounter,std::less<unsigned __int64>,std::allocator<std::pair<unsigned __int64 const ,DRAMsimII::Statistics::DelayCounter> >,0> >::_Insert
PUBLIC	??0const_iterator@?$_Tree@V?$_Tmap_traits@_KVDelayCounter@Statistics@DRAMsimII@@U?$less@_K@std@@V?$allocator@U?$pair@$$CB_KVDelayCounter@Statistics@DRAMsimII@@@std@@@5@$0A@@std@@@std@@QAE@XZ ; std::_Tree<std::_Tmap_traits<unsigned __int64,DRAMsimII::Statistics::DelayCounter,std::less<unsigned __int64>,std::allocator<std::pair<unsigned __int64 const ,DRAMsimII::Statistics::DelayCounter> >,0> >::const_iterator::const_iterator
PUBLIC	?_Dec@const_iterator@?$_Tree@V?$_Tmap_traits@_KVDelayCounter@Statistics@DRAMsimII@@U?$less@_K@std@@V?$allocator@U?$pair@$$CB_KVDelayCounter@Statistics@DRAMsimII@@@std@@@5@$0A@@std@@@std@@QAEXXZ ; std::_Tree<std::_Tmap_traits<unsigned __int64,DRAMsimII::Statistics::DelayCounter,std::less<unsigned __int64>,std::allocator<std::pair<unsigned __int64 const ,DRAMsimII::Statistics::DelayCounter> >,0> >::const_iterator::_Dec
PUBLIC	??Fconst_iterator@?$_Tree@V?$_Tmap_traits@_KVDelayCounter@Statistics@DRAMsimII@@U?$less@_K@std@@V?$allocator@U?$pair@$$CB_KVDelayCounter@Statistics@DRAMsimII@@@std@@@5@$0A@@std@@@std@@QAEAAV012@XZ ; std::_Tree<std::_Tmap_traits<unsigned __int64,DRAMsimII::Statistics::DelayCounter,std::less<unsigned __int64>,std::allocator<std::pair<unsigned __int64 const ,DRAMsimII::Statistics::DelayCounter> >,0> >::const_iterator::operator--
PUBLIC	?insert@?$_Tree@V?$_Tmap_traits@_KVDelayCounter@Statistics@DRAMsimII@@U?$less@_K@std@@V?$allocator@U?$pair@$$CB_KVDelayCounter@Statistics@DRAMsimII@@@std@@@5@$0A@@std@@@std@@QAE?AViterator@12@Vconst_iterator@12@ABU?$pair@$$CB_KVDelayCounter@Statistics@DRAMsimII@@@2@@Z ; std::_Tree<std::_Tmap_traits<unsigned __int64,DRAMsimII::Statistics::DelayCounter,std::less<unsigned __int64>,std::allocator<std::pair<unsigned __int64 const ,DRAMsimII::Statistics::DelayCounter> >,0> >::insert
PUBLIC	?_Kfn@?$_Tmap_traits@_KVDelayCounter@Statistics@DRAMsimII@@U?$less@_K@std@@V?$allocator@U?$pair@$$CB_KVDelayCounter@Statistics@DRAMsimII@@@std@@@5@$0A@@std@@SAAB_KABU?$pair@$$CB_KVDelayCounter@Statistics@DRAMsimII@@@2@@Z ; std::_Tmap_traits<unsigned __int64,DRAMsimII::Statistics::DelayCounter,std::less<unsigned __int64>,std::allocator<std::pair<unsigned __int64 const ,DRAMsimII::Statistics::DelayCounter> >,0>::_Kfn
PUBLIC	?_Key@?$_Tree@V?$_Tmap_traits@_KVDelayCounter@Statistics@DRAMsimII@@U?$less@_K@std@@V?$allocator@U?$pair@$$CB_KVDelayCounter@Statistics@DRAMsimII@@@std@@@5@$0A@@std@@@std@@KAAB_KPAU_Node@?$_Tree_nod@V?$_Tmap_traits@_KVDelayCounter@Statistics@DRAMsimII@@U?$less@_K@std@@V?$allocator@U?$pair@$$CB_KVDelayCounter@Statistics@DRAMsimII@@@std@@@5@$0A@@std@@@2@@Z ; std::_Tree<std::_Tmap_traits<unsigned __int64,DRAMsimII::Statistics::DelayCounter,std::less<unsigned __int64>,std::allocator<std::pair<unsigned __int64 const ,DRAMsimII::Statistics::DelayCounter> >,0> >::_Key
PUBLIC	?_Lbound@?$_Tree@V?$_Tmap_traits@_KVDelayCounter@Statistics@DRAMsimII@@U?$less@_K@std@@V?$allocator@U?$pair@$$CB_KVDelayCounter@Statistics@DRAMsimII@@@std@@@5@$0A@@std@@@std@@IBEPAU_Node@?$_Tree_nod@V?$_Tmap_traits@_KVDelayCounter@Statistics@DRAMsimII@@U?$less@_K@std@@V?$allocator@U?$pair@$$CB_KVDelayCounter@Statistics@DRAMsimII@@@std@@@5@$0A@@std@@@2@AB_K@Z ; std::_Tree<std::_Tmap_traits<unsigned __int64,DRAMsimII::Statistics::DelayCounter,std::less<unsigned __int64>,std::allocator<std::pair<unsigned __int64 const ,DRAMsimII::Statistics::DelayCounter> >,0> >::_Lbound
PUBLIC	?lower_bound@?$_Tree@V?$_Tmap_traits@_KVDelayCounter@Statistics@DRAMsimII@@U?$less@_K@std@@V?$allocator@U?$pair@$$CB_KVDelayCounter@Statistics@DRAMsimII@@@std@@@5@$0A@@std@@@std@@QAE?AViterator@12@AB_K@Z ; std::_Tree<std::_Tmap_traits<unsigned __int64,DRAMsimII::Statistics::DelayCounter,std::less<unsigned __int64>,std::allocator<std::pair<unsigned __int64 const ,DRAMsimII::Statistics::DelayCounter> >,0> >::lower_bound
PUBLIC	??0?$pair@$$CB_KVDelayCounter@Statistics@DRAMsimII@@@std@@QAE@AB_KABVDelayCounter@Statistics@DRAMsimII@@@Z ; std::pair<unsigned __int64 const ,DRAMsimII::Statistics::DelayCounter>::pair<unsigned __int64 const ,DRAMsimII::Statistics::DelayCounter>
PUBLIC	??Diterator@?$_Tree@V?$_Tmap_traits@_KVDelayCounter@Statistics@DRAMsimII@@U?$less@_K@std@@V?$allocator@U?$pair@$$CB_KVDelayCounter@Statistics@DRAMsimII@@@std@@@5@$0A@@std@@@std@@QBEAAU?$pair@$$CB_KVDelayCounter@Statistics@DRAMsimII@@@2@XZ ; std::_Tree<std::_Tmap_traits<unsigned __int64,DRAMsimII::Statistics::DelayCounter,std::less<unsigned __int64>,std::allocator<std::pair<unsigned __int64 const ,DRAMsimII::Statistics::DelayCounter> >,0> >::iterator::operator*
PUBLIC	??A?$map@_KVDelayCounter@Statistics@DRAMsimII@@U?$less@_K@std@@V?$allocator@U?$pair@$$CB_KVDelayCounter@Statistics@DRAMsimII@@@std@@@5@@std@@QAEAAVDelayCounter@Statistics@DRAMsimII@@AB_K@Z ; std::map<unsigned __int64,DRAMsimII::Statistics::DelayCounter,std::less<unsigned __int64>,std::allocator<std::pair<unsigned __int64 const ,DRAMsimII::Statistics::DelayCounter> > >::operator[]
PUBLIC	??Fiterator@?$_Tree@V?$_Tmap_traits@_KIU?$less@_K@std@@V?$allocator@U?$pair@$$CB_KI@std@@@2@$0A@@std@@@std@@QAEAAV012@XZ ; std::_Tree<std::_Tmap_traits<unsigned __int64,unsigned int,std::less<unsigned __int64>,std::allocator<std::pair<unsigned __int64 const ,unsigned int> >,0> >::iterator::operator--
PUBLIC	??0?$pair@Viterator@?$_Tree@V?$_Tmap_traits@_KIU?$less@_K@std@@V?$allocator@U?$pair@$$CB_KI@std@@@2@$0A@@std@@@std@@_N@std@@QAE@ABViterator@?$_Tree@V?$_Tmap_traits@_KIU?$less@_K@std@@V?$allocator@U?$pair@$$CB_KI@std@@@2@$0A@@std@@@1@AB_N@Z ; std::pair<std::_Tree<std::_Tmap_traits<unsigned __int64,unsigned int,std::less<unsigned __int64>,std::allocator<std::pair<unsigned __int64 const ,unsigned int> >,0> >::iterator,bool>::pair<std::_Tree<std::_Tmap_traits<unsigned __int64,unsigned int,std::less<unsigned __int64>,std::allocator<std::pair<unsigned __int64 const ,unsigned int> >,0> >::iterator,bool>
PUBLIC	?insert@?$_Tree@V?$_Tmap_traits@_KIU?$less@_K@std@@V?$allocator@U?$pair@$$CB_KI@std@@@2@$0A@@std@@@std@@QAE?AU?$pair@Viterator@?$_Tree@V?$_Tmap_traits@_KIU?$less@_K@std@@V?$allocator@U?$pair@$$CB_KI@std@@@2@$0A@@std@@@std@@_N@2@ABU?$pair@$$CB_KI@2@@Z ; std::_Tree<std::_Tmap_traits<unsigned __int64,unsigned int,std::less<unsigned __int64>,std::allocator<std::pair<unsigned __int64 const ,unsigned int> >,0> >::insert
PUBLIC	?max_size@?$allocator@U?$pair@$$CB_KI@std@@@std@@QBEIXZ ; std::allocator<std::pair<unsigned __int64 const ,unsigned int> >::max_size
PUBLIC	?max_size@?$_Tree@V?$_Tmap_traits@_KIU?$less@_K@std@@V?$allocator@U?$pair@$$CB_KI@std@@@2@$0A@@std@@@std@@QBEIXZ ; std::_Tree<std::_Tmap_traits<unsigned __int64,unsigned int,std::less<unsigned __int64>,std::allocator<std::pair<unsigned __int64 const ,unsigned int> >,0> >::max_size
PUBLIC	??$_Allocate@U_Node@?$_Tree_nod@V?$_Tmap_traits@_KIU?$less@_K@std@@V?$allocator@U?$pair@$$CB_KI@std@@@2@$0A@@std@@@std@@@std@@YAPAU_Node@?$_Tree_nod@V?$_Tmap_traits@_KIU?$less@_K@std@@V?$allocator@U?$pair@$$CB_KI@std@@@2@$0A@@std@@@0@IPAU120@@Z ; std::_Allocate<std::_Tree_nod<std::_Tmap_traits<unsigned __int64,unsigned int,std::less<unsigned __int64>,std::allocator<std::pair<unsigned __int64 const ,unsigned int> >,0> >::_Node>
PUBLIC	?allocate@?$allocator@U_Node@?$_Tree_nod@V?$_Tmap_traits@_KIU?$less@_K@std@@V?$allocator@U?$pair@$$CB_KI@std@@@2@$0A@@std@@@std@@@std@@QAEPAU_Node@?$_Tree_nod@V?$_Tmap_traits@_KIU?$less@_K@std@@V?$allocator@U?$pair@$$CB_KI@std@@@2@$0A@@std@@@2@I@Z ; std::allocator<std::_Tree_nod<std::_Tmap_traits<unsigned __int64,unsigned int,std::less<unsigned __int64>,std::allocator<std::pair<unsigned __int64 const ,unsigned int> >,0> >::_Node>::allocate
PUBLIC	??0_Node@?$_Tree_nod@V?$_Tmap_traits@_KIU?$less@_K@std@@V?$allocator@U?$pair@$$CB_KI@std@@@2@$0A@@std@@@std@@QAE@PAU012@00ABU?$pair@$$CB_KI@2@D@Z ; std::_Tree_nod<std::_Tmap_traits<unsigned __int64,unsigned int,std::less<unsigned __int64>,std::allocator<std::pair<unsigned __int64 const ,unsigned int> >,0> >::_Node::_Node
PUBLIC	?_Buynode@?$_Tree@V?$_Tmap_traits@_KIU?$less@_K@std@@V?$allocator@U?$pair@$$CB_KI@std@@@2@$0A@@std@@@std@@IAEPAU_Node@?$_Tree_nod@V?$_Tmap_traits@_KIU?$less@_K@std@@V?$allocator@U?$pair@$$CB_KI@std@@@2@$0A@@std@@@2@PAU342@00ABU?$pair@$$CB_KI@2@D@Z ; std::_Tree<std::_Tmap_traits<unsigned __int64,unsigned int,std::less<unsigned __int64>,std::allocator<std::pair<unsigned __int64 const ,unsigned int> >,0> >::_Buynode
PUBLIC	?_Insert@?$_Tree@V?$_Tmap_traits@_KIU?$less@_K@std@@V?$allocator@U?$pair@$$CB_KI@std@@@2@$0A@@std@@@std@@IAE?AViterator@12@_NPAU_Node@?$_Tree_nod@V?$_Tmap_traits@_KIU?$less@_K@std@@V?$allocator@U?$pair@$$CB_KI@std@@@2@$0A@@std@@@2@ABU?$pair@$$CB_KI@2@@Z ; std::_Tree<std::_Tmap_traits<unsigned __int64,unsigned int,std::less<unsigned __int64>,std::allocator<std::pair<unsigned __int64 const ,unsigned int> >,0> >::_Insert
PUBLIC	??0const_iterator@?$_Tree@V?$_Tmap_traits@_KIU?$less@_K@std@@V?$allocator@U?$pair@$$CB_KI@std@@@2@$0A@@std@@@std@@QAE@XZ ; std::_Tree<std::_Tmap_traits<unsigned __int64,unsigned int,std::less<unsigned __int64>,std::allocator<std::pair<unsigned __int64 const ,unsigned int> >,0> >::const_iterator::const_iterator
PUBLIC	?_Dec@const_iterator@?$_Tree@V?$_Tmap_traits@_KIU?$less@_K@std@@V?$allocator@U?$pair@$$CB_KI@std@@@2@$0A@@std@@@std@@QAEXXZ ; std::_Tree<std::_Tmap_traits<unsigned __int64,unsigned int,std::less<unsigned __int64>,std::allocator<std::pair<unsigned __int64 const ,unsigned int> >,0> >::const_iterator::_Dec
PUBLIC	??Fconst_iterator@?$_Tree@V?$_Tmap_traits@_KIU?$less@_K@std@@V?$allocator@U?$pair@$$CB_KI@std@@@2@$0A@@std@@@std@@QAEAAV012@XZ ; std::_Tree<std::_Tmap_traits<unsigned __int64,unsigned int,std::less<unsigned __int64>,std::allocator<std::pair<unsigned __int64 const ,unsigned int> >,0> >::const_iterator::operator--
PUBLIC	?insert@?$_Tree@V?$_Tmap_traits@_KIU?$less@_K@std@@V?$allocator@U?$pair@$$CB_KI@std@@@2@$0A@@std@@@std@@QAE?AViterator@12@Vconst_iterator@12@ABU?$pair@$$CB_KI@2@@Z ; std::_Tree<std::_Tmap_traits<unsigned __int64,unsigned int,std::less<unsigned __int64>,std::allocator<std::pair<unsigned __int64 const ,unsigned int> >,0> >::insert
PUBLIC	??R?$less@_K@std@@QBE_NAB_K0@Z			; std::less<unsigned __int64>::operator()
PUBLIC	?_Kfn@?$_Tmap_traits@_KIU?$less@_K@std@@V?$allocator@U?$pair@$$CB_KI@std@@@2@$0A@@std@@SAAB_KABU?$pair@$$CB_KI@2@@Z ; std::_Tmap_traits<unsigned __int64,unsigned int,std::less<unsigned __int64>,std::allocator<std::pair<unsigned __int64 const ,unsigned int> >,0>::_Kfn
PUBLIC	?_Key@?$_Tree@V?$_Tmap_traits@_KIU?$less@_K@std@@V?$allocator@U?$pair@$$CB_KI@std@@@2@$0A@@std@@@std@@KAAB_KPAU_Node@?$_Tree_nod@V?$_Tmap_traits@_KIU?$less@_K@std@@V?$allocator@U?$pair@$$CB_KI@std@@@2@$0A@@std@@@2@@Z ; std::_Tree<std::_Tmap_traits<unsigned __int64,unsigned int,std::less<unsigned __int64>,std::allocator<std::pair<unsigned __int64 const ,unsigned int> >,0> >::_Key
PUBLIC	?_Lbound@?$_Tree@V?$_Tmap_traits@_KIU?$less@_K@std@@V?$allocator@U?$pair@$$CB_KI@std@@@2@$0A@@std@@@std@@IBEPAU_Node@?$_Tree_nod@V?$_Tmap_traits@_KIU?$less@_K@std@@V?$allocator@U?$pair@$$CB_KI@std@@@2@$0A@@std@@@2@AB_K@Z ; std::_Tree<std::_Tmap_traits<unsigned __int64,unsigned int,std::less<unsigned __int64>,std::allocator<std::pair<unsigned __int64 const ,unsigned int> >,0> >::_Lbound
PUBLIC	?lower_bound@?$_Tree@V?$_Tmap_traits@_KIU?$less@_K@std@@V?$allocator@U?$pair@$$CB_KI@std@@@2@$0A@@std@@@std@@QAE?AViterator@12@AB_K@Z ; std::_Tree<std::_Tmap_traits<unsigned __int64,unsigned int,std::less<unsigned __int64>,std::allocator<std::pair<unsigned __int64 const ,unsigned int> >,0> >::lower_bound
PUBLIC	??Diterator@?$_Tree@V?$_Tmap_traits@_KIU?$less@_K@std@@V?$allocator@U?$pair@$$CB_KI@std@@@2@$0A@@std@@@std@@QBEAAU?$pair@$$CB_KI@2@XZ ; std::_Tree<std::_Tmap_traits<unsigned __int64,unsigned int,std::less<unsigned __int64>,std::allocator<std::pair<unsigned __int64 const ,unsigned int> >,0> >::iterator::operator*
PUBLIC	??0?$pair@$$CB_KI@std@@QAE@AB_KABI@Z		; std::pair<unsigned __int64 const ,unsigned int>::pair<unsigned __int64 const ,unsigned int>
PUBLIC	??A?$map@_KIU?$less@_K@std@@V?$allocator@U?$pair@$$CB_KI@std@@@2@@std@@QAEAAIAB_K@Z ; std::map<unsigned __int64,unsigned int,std::less<unsigned __int64>,std::allocator<std::pair<unsigned __int64 const ,unsigned int> > >::operator[]
PUBLIC	??A?$vector@V?$vector@IV?$allocator@I@std@@@std@@V?$allocator@V?$vector@IV?$allocator@I@std@@@std@@@2@@std@@QAEAAV?$vector@IV?$allocator@I@std@@@1@I@Z ; std::vector<std::vector<unsigned int,std::allocator<unsigned int> >,std::allocator<std::vector<unsigned int,std::allocator<unsigned int> > > >::operator[]
PUBLIC	?size@?$vector@V?$vector@U?$pair@II@std@@V?$allocator@U?$pair@II@std@@@2@@std@@V?$allocator@V?$vector@U?$pair@II@std@@V?$allocator@U?$pair@II@std@@@2@@std@@@2@@std@@QBEIXZ ; std::vector<std::vector<std::pair<unsigned int,unsigned int>,std::allocator<std::pair<unsigned int,unsigned int> > >,std::allocator<std::vector<std::pair<unsigned int,unsigned int>,std::allocator<std::pair<unsigned int,unsigned int> > > > >::size
PUBLIC	??A?$vector@V?$vector@U?$pair@II@std@@V?$allocator@U?$pair@II@std@@@2@@std@@V?$allocator@V?$vector@U?$pair@II@std@@V?$allocator@U?$pair@II@std@@@2@@std@@@2@@std@@QAEAAV?$vector@U?$pair@II@std@@V?$allocator@U?$pair@II@std@@@2@@1@I@Z ; std::vector<std::vector<std::pair<unsigned int,unsigned int>,std::allocator<std::pair<unsigned int,unsigned int> > >,std::allocator<std::vector<std::pair<unsigned int,unsigned int>,std::allocator<std::pair<unsigned int,unsigned int> > > > >::operator[]
PUBLIC	?size@?$vector@U?$pair@II@std@@V?$allocator@U?$pair@II@std@@@2@@std@@QBEIXZ ; std::vector<std::pair<unsigned int,unsigned int>,std::allocator<std::pair<unsigned int,unsigned int> > >::size
PUBLIC	??A?$vector@U?$pair@II@std@@V?$allocator@U?$pair@II@std@@@2@@std@@QAEAAU?$pair@II@1@I@Z ; std::vector<std::pair<unsigned int,unsigned int>,std::allocator<std::pair<unsigned int,unsigned int> > >::operator[]
PUBLIC	?getChannel@Address@DRAMsimII@@QBEIXZ		; DRAMsimII::Address::getChannel
PUBLIC	?getDelayTime@Event@DRAMsimII@@QBE_JXZ		; DRAMsimII::Event::getDelayTime
PUBLIC	?isHit@Command@DRAMsimII@@QBE_NXZ		; DRAMsimII::Command::isHit
PUBLIC	?insert@?$list@U?$pair@$$CBII@std@@V?$allocator@U?$pair@$$CBII@std@@@2@@std@@QAE?AV?$_Iterator@$00@12@V?$_Const_iterator@$00@12@ABU?$pair@$$CBII@2@@Z ; std::list<std::pair<unsigned int const ,unsigned int>,std::allocator<std::pair<unsigned int const ,unsigned int> > >::insert
PUBLIC	?erase@?$list@U?$pair@$$CBII@std@@V?$allocator@U?$pair@$$CBII@std@@@2@@std@@QAE?AV?$_Iterator@$00@12@V?$_Const_iterator@$00@12@0@Z ; std::list<std::pair<unsigned int const ,unsigned int>,std::allocator<std::pair<unsigned int const ,unsigned int> > >::erase
PUBLIC	??$?8U?$pair@$$CBII@std@@U01@@std@@YA_NABV?$allocator@U?$pair@$$CBII@std@@@0@0@Z ; std::operator==<std::pair<unsigned int const ,unsigned int>,std::pair<unsigned int const ,unsigned int> >
PUBLIC	??$_Iter_cat@V?$_Const_iterator@$00@?$list@U?$pair@$$CBII@std@@V?$allocator@U?$pair@$$CBII@std@@@2@@std@@@std@@YA?AUbidirectional_iterator_tag@0@ABV?$_Const_iterator@$00@?$list@U?$pair@$$CBII@std@@V?$allocator@U?$pair@$$CBII@std@@@2@@0@@Z ; std::_Iter_cat<std::list<std::pair<unsigned int const ,unsigned int>,std::allocator<std::pair<unsigned int const ,unsigned int> > >::_Const_iterator<1> >
PUBLIC	??$_Construct@U?$pair@$$CBII@std@@U12@@std@@YAXPAU?$pair@$$CBII@0@ABU10@@Z ; std::_Construct<std::pair<unsigned int const ,unsigned int>,std::pair<unsigned int const ,unsigned int> >
PUBLIC	?construct@?$allocator@U?$pair@$$CBII@std@@@std@@QAEXPAU?$pair@$$CBII@2@ABU32@@Z ; std::allocator<std::pair<unsigned int const ,unsigned int> >::construct
PUBLIC	??$_Allocate@U_Node@?$_List_nod@U?$pair@$$CBII@std@@V?$allocator@U?$pair@$$CBII@std@@@2@@std@@@std@@YAPAU_Node@?$_List_nod@U?$pair@$$CBII@std@@V?$allocator@U?$pair@$$CBII@std@@@2@@0@IPAU120@@Z ; std::_Allocate<std::_List_nod<std::pair<unsigned int const ,unsigned int>,std::allocator<std::pair<unsigned int const ,unsigned int> > >::_Node>
PUBLIC	?allocate@?$allocator@U_Node@?$_List_nod@U?$pair@$$CBII@std@@V?$allocator@U?$pair@$$CBII@std@@@2@@std@@@std@@QAEPAU_Node@?$_List_nod@U?$pair@$$CBII@std@@V?$allocator@U?$pair@$$CBII@std@@@2@@2@I@Z ; std::allocator<std::_List_nod<std::pair<unsigned int const ,unsigned int>,std::allocator<std::pair<unsigned int const ,unsigned int> > >::_Node>::allocate
PUBLIC	??$_Construct@PAU_Node@?$_List_nod@U?$pair@$$CBII@std@@V?$allocator@U?$pair@$$CBII@std@@@2@@std@@PAU123@@std@@YAXPAPAU_Node@?$_List_nod@U?$pair@$$CBII@std@@V?$allocator@U?$pair@$$CBII@std@@@2@@0@ABQAU120@@Z ; std::_Construct<std::_List_nod<std::pair<unsigned int const ,unsigned int>,std::allocator<std::pair<unsigned int const ,unsigned int> > >::_Node *,std::_List_nod<std::pair<unsigned int const ,unsigned int>,std::allocator<std::pair<unsigned int const ,unsigned int> > >::_Node *>
PUBLIC	?construct@?$allocator@PAU_Node@?$_List_nod@U?$pair@$$CBII@std@@V?$allocator@U?$pair@$$CBII@std@@@2@@std@@@std@@QAEXPAPAU_Node@?$_List_nod@U?$pair@$$CBII@std@@V?$allocator@U?$pair@$$CBII@std@@@2@@2@ABQAU342@@Z ; std::allocator<std::_List_nod<std::pair<unsigned int const ,unsigned int>,std::allocator<std::pair<unsigned int const ,unsigned int> > >::_Node *>::construct
PUBLIC	?_Buynode@?$list@U?$pair@$$CBII@std@@V?$allocator@U?$pair@$$CBII@std@@@2@@std@@IAEPAU_Node@?$_List_nod@U?$pair@$$CBII@std@@V?$allocator@U?$pair@$$CBII@std@@@2@@2@PAU342@0ABU?$pair@$$CBII@2@@Z ; std::list<std::pair<unsigned int const ,unsigned int>,std::allocator<std::pair<unsigned int const ,unsigned int> > >::_Buynode
PUBLIC	?max_size@?$allocator@U?$pair@$$CBII@std@@@std@@QBEIXZ ; std::allocator<std::pair<unsigned int const ,unsigned int> >::max_size
PUBLIC	?max_size@?$list@U?$pair@$$CBII@std@@V?$allocator@U?$pair@$$CBII@std@@@2@@std@@QBEIXZ ; std::list<std::pair<unsigned int const ,unsigned int>,std::allocator<std::pair<unsigned int const ,unsigned int> > >::max_size
PUBLIC	?_Incsize@?$list@U?$pair@$$CBII@std@@V?$allocator@U?$pair@$$CBII@std@@@2@@std@@IAEXI@Z ; std::list<std::pair<unsigned int const ,unsigned int>,std::allocator<std::pair<unsigned int const ,unsigned int> > >::_Incsize
PUBLIC	?_Insert@?$list@U?$pair@$$CBII@std@@V?$allocator@U?$pair@$$CBII@std@@@2@@std@@QAEXV?$_Const_iterator@$00@12@ABU?$pair@$$CBII@2@@Z ; std::list<std::pair<unsigned int const ,unsigned int>,std::allocator<std::pair<unsigned int const ,unsigned int> > >::_Insert
PUBLIC	?_Make_iter@?$list@U?$pair@$$CBII@std@@V?$allocator@U?$pair@$$CBII@std@@@2@@std@@QBE?AV?$_Iterator@$00@12@V?$_Const_iterator@$00@12@@Z ; std::list<std::pair<unsigned int const ,unsigned int>,std::allocator<std::pair<unsigned int const ,unsigned int> > >::_Make_iter
PUBLIC	?erase@?$list@U?$pair@$$CBII@std@@V?$allocator@U?$pair@$$CBII@std@@@2@@std@@QAE?AV?$_Iterator@$00@12@V?$_Const_iterator@$00@12@@Z ; std::list<std::pair<unsigned int const ,unsigned int>,std::allocator<std::pair<unsigned int const ,unsigned int> > >::erase
PUBLIC	??$_Insert@V?$_Const_iterator@$00@?$list@U?$pair@$$CBII@std@@V?$allocator@U?$pair@$$CBII@std@@@2@@std@@@?$list@U?$pair@$$CBII@std@@V?$allocator@U?$pair@$$CBII@std@@@2@@std@@QAEXV?$_Const_iterator@$00@01@00Uforward_iterator_tag@1@@Z ; std::list<std::pair<unsigned int const ,unsigned int>,std::allocator<std::pair<unsigned int const ,unsigned int> > >::_Insert<std::list<std::pair<unsigned int const ,unsigned int>,std::allocator<std::pair<unsigned int const ,unsigned int> > >::_Const_iterator<1> >
PUBLIC	??$insert@V?$_Const_iterator@$00@?$list@U?$pair@$$CBII@std@@V?$allocator@U?$pair@$$CBII@std@@@2@@std@@@?$list@U?$pair@$$CBII@std@@V?$allocator@U?$pair@$$CBII@std@@@2@@std@@QAEXV?$_Const_iterator@$00@01@00@Z ; std::list<std::pair<unsigned int const ,unsigned int>,std::allocator<std::pair<unsigned int const ,unsigned int> > >::insert<std::list<std::pair<unsigned int const ,unsigned int>,std::allocator<std::pair<unsigned int const ,unsigned int> > >::_Const_iterator<1> >
PUBLIC	?_Splice@?$list@U?$pair@$$CBII@std@@V?$allocator@U?$pair@$$CBII@std@@@2@@std@@QAEXV?$_Const_iterator@$00@12@AAV12@00I_N@Z ; std::list<std::pair<unsigned int const ,unsigned int>,std::allocator<std::pair<unsigned int const ,unsigned int> > >::_Splice
PUBLIC	?splice@?$list@U?$pair@$$CBII@std@@V?$allocator@U?$pair@$$CBII@std@@@2@@std@@QAEXV?$_Const_iterator@$00@12@AAV12@0@Z ; std::list<std::pair<unsigned int const ,unsigned int>,std::allocator<std::pair<unsigned int const ,unsigned int> > >::splice
PUBLIC	?bucket_count@?$_Hash@V?$_Umap_traits@IIV?$_Hash_compare@IV?$hash@I@tr1@std@@U?$equal_to@I@3@@stdext@@V?$allocator@U?$pair@$$CBII@std@@@std@@$0A@@tr1@std@@@stdext@@QBEIXZ ; stdext::_Hash<std::tr1::_Umap_traits<unsigned int,unsigned int,stdext::_Hash_compare<unsigned int,std::tr1::hash<unsigned int>,std::equal_to<unsigned int> >,std::allocator<std::pair<unsigned int const ,unsigned int> >,0> >::bucket_count
PUBLIC	?load_factor@?$_Hash@V?$_Umap_traits@IIV?$_Hash_compare@IV?$hash@I@tr1@std@@U?$equal_to@I@3@@stdext@@V?$allocator@U?$pair@$$CBII@std@@@std@@$0A@@tr1@std@@@stdext@@QBEMXZ ; stdext::_Hash<std::tr1::_Umap_traits<unsigned int,unsigned int,stdext::_Hash_compare<unsigned int,std::tr1::hash<unsigned int>,std::equal_to<unsigned int> >,std::allocator<std::pair<unsigned int const ,unsigned int> >,0> >::load_factor
PUBLIC	?max_load_factor@?$_Hash@V?$_Umap_traits@IIV?$_Hash_compare@IV?$hash@I@tr1@std@@U?$equal_to@I@3@@stdext@@V?$allocator@U?$pair@$$CBII@std@@@std@@$0A@@tr1@std@@@stdext@@QBEMXZ ; stdext::_Hash<std::tr1::_Umap_traits<unsigned int,unsigned int,stdext::_Hash_compare<unsigned int,std::tr1::hash<unsigned int>,std::equal_to<unsigned int> >,std::allocator<std::pair<unsigned int const ,unsigned int> >,0> >::max_load_factor
PUBLIC	?begin@?$list@U?$pair@$$CBII@std@@V?$allocator@U?$pair@$$CBII@std@@@2@@std@@QAE?AV?$_Iterator@$00@12@XZ ; std::list<std::pair<unsigned int const ,unsigned int>,std::allocator<std::pair<unsigned int const ,unsigned int> > >::begin
PUBLIC	?_Reinsert@?$_Hash@V?$_Umap_traits@IIV?$_Hash_compare@IV?$hash@I@tr1@std@@U?$equal_to@I@3@@stdext@@V?$allocator@U?$pair@$$CBII@std@@@std@@$0A@@tr1@std@@@stdext@@IAEXXZ ; stdext::_Hash<std::tr1::_Umap_traits<unsigned int,unsigned int,stdext::_Hash_compare<unsigned int,std::tr1::hash<unsigned int>,std::equal_to<unsigned int> >,std::allocator<std::pair<unsigned int const ,unsigned int> >,0> >::_Reinsert
PUBLIC	??F?$_Const_iterator@$00@?$list@U?$pair@$$CBII@std@@V?$allocator@U?$pair@$$CBII@std@@@2@@std@@QAEAAV012@XZ ; std::list<std::pair<unsigned int const ,unsigned int>,std::allocator<std::pair<unsigned int const ,unsigned int> > >::_Const_iterator<1>::operator--
PUBLIC	??F?$_Iterator@$00@?$list@U?$pair@$$CBII@std@@V?$allocator@U?$pair@$$CBII@std@@@2@@std@@QAEAAV012@XZ ; std::list<std::pair<unsigned int const ,unsigned int>,std::allocator<std::pair<unsigned int const ,unsigned int> > >::_Iterator<1>::operator--
PUBLIC	??0?$pair@V?$_Iterator@$00@?$list@U?$pair@$$CBII@std@@V?$allocator@U?$pair@$$CBII@std@@@2@@std@@_N@std@@QAE@ABV?$_Iterator@$00@?$list@U?$pair@$$CBII@std@@V?$allocator@U?$pair@$$CBII@std@@@2@@1@AB_N@Z ; std::pair<std::list<std::pair<unsigned int const ,unsigned int>,std::allocator<std::pair<unsigned int const ,unsigned int> > >::_Iterator<1>,bool>::pair<std::list<std::pair<unsigned int const ,unsigned int>,std::allocator<std::pair<unsigned int const ,unsigned int> > >::_Iterator<1>,bool>
PUBLIC	?_Insert@?$_Hash@V?$_Umap_traits@IIV?$_Hash_compare@IV?$hash@I@tr1@std@@U?$equal_to@I@3@@stdext@@V?$allocator@U?$pair@$$CBII@std@@@std@@$0A@@tr1@std@@@stdext@@IAE?AU?$pair@V?$_Iterator@$00@?$list@U?$pair@$$CBII@std@@V?$allocator@U?$pair@$$CBII@std@@@2@@std@@_N@std@@ABU?$pair@$$CBII@4@V?$_Iterator@$00@?$list@U?$pair@$$CBII@std@@V?$allocator@U?$pair@$$CBII@std@@@2@@4@@Z ; stdext::_Hash<std::tr1::_Umap_traits<unsigned int,unsigned int,stdext::_Hash_compare<unsigned int,std::tr1::hash<unsigned int>,std::equal_to<unsigned int> >,std::allocator<std::pair<unsigned int const ,unsigned int> >,0> >::_Insert
PUBLIC	?insert@?$_Hash@V?$_Umap_traits@IIV?$_Hash_compare@IV?$hash@I@tr1@std@@U?$equal_to@I@3@@stdext@@V?$allocator@U?$pair@$$CBII@std@@@std@@$0A@@tr1@std@@@stdext@@QAE?AU?$pair@V?$_Iterator@$00@?$list@U?$pair@$$CBII@std@@V?$allocator@U?$pair@$$CBII@std@@@2@@std@@_N@std@@ABU?$pair@$$CBII@4@@Z ; stdext::_Hash<std::tr1::_Umap_traits<unsigned int,unsigned int,stdext::_Hash_compare<unsigned int,std::tr1::hash<unsigned int>,std::equal_to<unsigned int> >,std::allocator<std::pair<unsigned int const ,unsigned int> >,0> >::insert
PUBLIC	??A?$vector@U_List_position@?$_Hash@V?$_Umap_traits@IIV?$_Hash_compare@IV?$hash@I@tr1@std@@U?$equal_to@I@3@@stdext@@V?$allocator@U?$pair@$$CBII@std@@@std@@$0A@@tr1@std@@@stdext@@V?$allocator@U_List_position@?$_Hash@V?$_Umap_traits@IIV?$_Hash_compare@IV?$hash@I@tr1@std@@U?$equal_to@I@3@@stdext@@V?$allocator@U?$pair@$$CBII@std@@@std@@$0A@@tr1@std@@@stdext@@@std@@@std@@QAEAAU_List_position@?$_Hash@V?$_Umap_traits@IIV?$_Hash_compare@IV?$hash@I@tr1@std@@U?$equal_to@I@3@@stdext@@V?$allocator@U?$pair@$$CBII@std@@@std@@$0A@@tr1@std@@@stdext@@I@Z ; std::vector<stdext::_Hash<std::tr1::_Umap_traits<unsigned int,unsigned int,stdext::_Hash_compare<unsigned int,std::tr1::hash<unsigned int>,std::equal_to<unsigned int> >,std::allocator<std::pair<unsigned int const ,unsigned int> >,0> >::_List_position,std::allocator<stdext::_Hash<std::tr1::_Umap_traits<unsigned int,unsigned int,stdext::_Hash_compare<unsigned int,std::tr1::hash<unsigned int>,std::equal_to<unsigned int> >,std::allocator<std::pair<unsigned int const ,unsigned int> >,0> >::_List_position> >::operator[]
PUBLIC	??0?$_Iterator@$00@?$list@U?$pair@$$CBII@std@@V?$allocator@U?$pair@$$CBII@std@@@2@@std@@QAE@XZ ; std::list<std::pair<unsigned int const ,unsigned int>,std::allocator<std::pair<unsigned int const ,unsigned int> > >::_Iterator<1>::_Iterator<1>
PUBLIC	??E?$_Iterator@$00@?$list@U?$pair@$$CBII@std@@V?$allocator@U?$pair@$$CBII@std@@@2@@std@@QAEAAV012@XZ ; std::list<std::pair<unsigned int const ,unsigned int>,std::allocator<std::pair<unsigned int const ,unsigned int> > >::_Iterator<1>::operator++
PUBLIC	?lower_bound@?$_Hash@V?$_Umap_traits@IIV?$_Hash_compare@IV?$hash@I@tr1@std@@U?$equal_to@I@3@@stdext@@V?$allocator@U?$pair@$$CBII@std@@@std@@$0A@@tr1@std@@@stdext@@QAE?AV?$_Iterator@$00@?$list@U?$pair@$$CBII@std@@V?$allocator@U?$pair@$$CBII@std@@@2@@std@@ABI@Z ; stdext::_Hash<std::tr1::_Umap_traits<unsigned int,unsigned int,stdext::_Hash_compare<unsigned int,std::tr1::hash<unsigned int>,std::equal_to<unsigned int> >,std::allocator<std::pair<unsigned int const ,unsigned int> >,0> >::lower_bound
PUBLIC	??0?$pair@$$CBII@std@@QAE@ABI0@Z		; std::pair<unsigned int const ,unsigned int>::pair<unsigned int const ,unsigned int>
PUBLIC	??D?$_Iterator@$00@?$list@U?$pair@$$CBII@std@@V?$allocator@U?$pair@$$CBII@std@@@2@@std@@QBEAAU?$pair@$$CBII@2@XZ ; std::list<std::pair<unsigned int const ,unsigned int>,std::allocator<std::pair<unsigned int const ,unsigned int> > >::_Iterator<1>::operator*
PUBLIC	??A?$unordered_map@IIV?$hash@I@tr1@std@@U?$equal_to@I@3@V?$allocator@U?$pair@$$CBII@std@@@3@@tr1@std@@QAEAAIABI@Z ; std::tr1::unordered_map<unsigned int,unsigned int,std::tr1::hash<unsigned int>,std::equal_to<unsigned int>,std::allocator<std::pair<unsigned int const ,unsigned int> > >::operator[]
PUBLIC	??A?$vector@V?$vector@U?$pair@U?$pair@_K_K@std@@U12@@std@@V?$allocator@U?$pair@U?$pair@_K_K@std@@U12@@std@@@2@@std@@V?$allocator@V?$vector@U?$pair@U?$pair@_K_K@std@@U12@@std@@V?$allocator@U?$pair@U?$pair@_K_K@std@@U12@@std@@@2@@std@@@2@@std@@QAEAAV?$vector@U?$pair@U?$pair@_K_K@std@@U12@@std@@V?$allocator@U?$pair@U?$pair@_K_K@std@@U12@@std@@@2@@1@I@Z ; std::vector<std::vector<std::pair<std::pair<unsigned __int64,unsigned __int64>,std::pair<unsigned __int64,unsigned __int64> >,std::allocator<std::pair<std::pair<unsigned __int64,unsigned __int64>,std::pair<unsigned __int64,unsigned __int64> > > >,std::allocator<std::vector<std::pair<std::pair<unsigned __int64,unsigned __int64>,std::pair<unsigned __int64,unsigned __int64> >,std::allocator<std::pair<std::pair<unsigned __int64,unsigned __int64>,std::pair<unsigned __int64,unsigned __int64> > > > > >::operator[]
PUBLIC	??A?$vector@U?$pair@U?$pair@_K_K@std@@U12@@std@@V?$allocator@U?$pair@U?$pair@_K_K@std@@U12@@std@@@2@@std@@QAEAAU?$pair@U?$pair@_K_K@std@@U12@@1@I@Z ; std::vector<std::pair<std::pair<unsigned __int64,unsigned __int64>,std::pair<unsigned __int64,unsigned __int64> >,std::allocator<std::pair<std::pair<unsigned __int64,unsigned __int64>,std::pair<unsigned __int64,unsigned __int64> > > >::operator[]
PUBLIC	?noshowpoint@std@@YAAAVios_base@1@AAV21@@Z	; std::noshowpoint
PUBLIC	?getAccumulatedLatency@DelayCounter@Statistics@DRAMsimII@@QBE_JXZ ; DRAMsimII::Statistics::DelayCounter::getAccumulatedLatency
PUBLIC	?getCount@DelayCounter@Statistics@DRAMsimII@@QBEIXZ ; DRAMsimII::Statistics::DelayCounter::getCount
PUBLIC	?begin@?$vector@V?$vector@U?$pair@II@std@@V?$allocator@U?$pair@II@std@@@2@@std@@V?$allocator@V?$vector@U?$pair@II@std@@V?$allocator@U?$pair@II@std@@@2@@std@@@2@@std@@QBE?AV?$_Vector_const_iterator@V?$vector@U?$pair@II@std@@V?$allocator@U?$pair@II@std@@@2@@std@@V?$allocator@V?$vector@U?$pair@II@std@@V?$allocator@U?$pair@II@std@@@2@@std@@@2@@2@XZ ; std::vector<std::vector<std::pair<unsigned int,unsigned int>,std::allocator<std::pair<unsigned int,unsigned int> > >,std::allocator<std::vector<std::pair<unsigned int,unsigned int>,std::allocator<std::pair<unsigned int,unsigned int> > > > >::begin
PUBLIC	?end@?$vector@V?$vector@U?$pair@II@std@@V?$allocator@U?$pair@II@std@@@2@@std@@V?$allocator@V?$vector@U?$pair@II@std@@V?$allocator@U?$pair@II@std@@@2@@std@@@2@@std@@QBE?AV?$_Vector_const_iterator@V?$vector@U?$pair@II@std@@V?$allocator@U?$pair@II@std@@@2@@std@@V?$allocator@V?$vector@U?$pair@II@std@@V?$allocator@U?$pair@II@std@@@2@@std@@@2@@2@XZ ; std::vector<std::vector<std::pair<unsigned int,unsigned int>,std::allocator<std::pair<unsigned int,unsigned int> > >,std::allocator<std::vector<std::pair<unsigned int,unsigned int>,std::allocator<std::pair<unsigned int,unsigned int> > > > >::end
PUBLIC	?begin@?$vector@V?$vector@U?$pair@U?$pair@_K_K@std@@U12@@std@@V?$allocator@U?$pair@U?$pair@_K_K@std@@U12@@std@@@2@@std@@V?$allocator@V?$vector@U?$pair@U?$pair@_K_K@std@@U12@@std@@V?$allocator@U?$pair@U?$pair@_K_K@std@@U12@@std@@@2@@std@@@2@@std@@QBE?AV?$_Vector_const_iterator@V?$vector@U?$pair@U?$pair@_K_K@std@@U12@@std@@V?$allocator@U?$pair@U?$pair@_K_K@std@@U12@@std@@@2@@std@@V?$allocator@V?$vector@U?$pair@U?$pair@_K_K@std@@U12@@std@@V?$allocator@U?$pair@U?$pair@_K_K@std@@U12@@std@@@2@@std@@@2@@2@XZ ; std::vector<std::vector<std::pair<std::pair<unsigned __int64,unsigned __int64>,std::pair<unsigned __int64,unsigned __int64> >,std::allocator<std::pair<std::pair<unsigned __int64,unsigned __int64>,std::pair<unsigned __int64,unsigned __int64> > > >,std::allocator<std::vector<std::pair<std::pair<unsigned __int64,unsigned __int64>,std::pair<unsigned __int64,unsigned __int64> >,std::allocator<std::pair<std::pair<unsigned __int64,unsigned __int64>,std::pair<unsigned __int64,unsigned __int64> > > > > >::begin
PUBLIC	?end@?$vector@V?$vector@U?$pair@U?$pair@_K_K@std@@U12@@std@@V?$allocator@U?$pair@U?$pair@_K_K@std@@U12@@std@@@2@@std@@V?$allocator@V?$vector@U?$pair@U?$pair@_K_K@std@@U12@@std@@V?$allocator@U?$pair@U?$pair@_K_K@std@@U12@@std@@@2@@std@@@2@@std@@QBE?AV?$_Vector_const_iterator@V?$vector@U?$pair@U?$pair@_K_K@std@@U12@@std@@V?$allocator@U?$pair@U?$pair@_K_K@std@@U12@@std@@@2@@std@@V?$allocator@V?$vector@U?$pair@U?$pair@_K_K@std@@U12@@std@@V?$allocator@U?$pair@U?$pair@_K_K@std@@U12@@std@@@2@@std@@@2@@2@XZ ; std::vector<std::vector<std::pair<std::pair<unsigned __int64,unsigned __int64>,std::pair<unsigned __int64,unsigned __int64> >,std::allocator<std::pair<std::pair<unsigned __int64,unsigned __int64>,std::pair<unsigned __int64,unsigned __int64> > > >,std::allocator<std::vector<std::pair<std::pair<unsigned __int64,unsigned __int64>,std::pair<unsigned __int64,unsigned __int64> >,std::allocator<std::pair<std::pair<unsigned __int64,unsigned __int64>,std::pair<unsigned __int64,unsigned __int64> > > > > >::end
PUBLIC	?getRowBufferAccesses@Statistics@DRAMsimII@@QBEABV?$vector@V?$vector@U?$pair@II@std@@V?$allocator@U?$pair@II@std@@@2@@std@@V?$allocator@V?$vector@U?$pair@II@std@@V?$allocator@U?$pair@II@std@@@2@@std@@@2@@std@@XZ ; DRAMsimII::Statistics::getRowBufferAccesses
PUBLIC	?begin@?$vector@U?$pair@II@std@@V?$allocator@U?$pair@II@std@@@2@@std@@QBE?AV?$_Vector_const_iterator@U?$pair@II@std@@V?$allocator@U?$pair@II@std@@@2@@2@XZ ; std::vector<std::pair<unsigned int,unsigned int>,std::allocator<std::pair<unsigned int,unsigned int> > >::begin
PUBLIC	?end@?$vector@U?$pair@II@std@@V?$allocator@U?$pair@II@std@@@2@@std@@QBE?AV?$_Vector_const_iterator@U?$pair@II@std@@V?$allocator@U?$pair@II@std@@@2@@2@XZ ; std::vector<std::pair<unsigned int,unsigned int>,std::allocator<std::pair<unsigned int,unsigned int> > >::end
PUBLIC	?begin@?$vector@U?$pair@U?$pair@_K_K@std@@U12@@std@@V?$allocator@U?$pair@U?$pair@_K_K@std@@U12@@std@@@2@@std@@QBE?AV?$_Vector_const_iterator@U?$pair@U?$pair@_K_K@std@@U12@@std@@V?$allocator@U?$pair@U?$pair@_K_K@std@@U12@@std@@@2@@2@XZ ; std::vector<std::pair<std::pair<unsigned __int64,unsigned __int64>,std::pair<unsigned __int64,unsigned __int64> >,std::allocator<std::pair<std::pair<unsigned __int64,unsigned __int64>,std::pair<unsigned __int64,unsigned __int64> > > >::begin
PUBLIC	?end@?$vector@U?$pair@U?$pair@_K_K@std@@U12@@std@@V?$allocator@U?$pair@U?$pair@_K_K@std@@U12@@std@@@2@@std@@QBE?AV?$_Vector_const_iterator@U?$pair@U?$pair@_K_K@std@@U12@@std@@V?$allocator@U?$pair@U?$pair@_K_K@std@@U12@@std@@@2@@2@XZ ; std::vector<std::pair<std::pair<unsigned __int64,unsigned __int64>,std::pair<unsigned __int64,unsigned __int64> >,std::allocator<std::pair<std::pair<unsigned __int64,unsigned __int64>,std::pair<unsigned __int64,unsigned __int64> > > >::end
PUBLIC	??C?$_Vector_const_iterator@V?$vector@U?$pair@II@std@@V?$allocator@U?$pair@II@std@@@2@@std@@V?$allocator@V?$vector@U?$pair@II@std@@V?$allocator@U?$pair@II@std@@@2@@std@@@2@@std@@QBEPBV?$vector@U?$pair@II@std@@V?$allocator@U?$pair@II@std@@@2@@1@XZ ; std::_Vector_const_iterator<std::vector<std::pair<unsigned int,unsigned int>,std::allocator<std::pair<unsigned int,unsigned int> > >,std::allocator<std::vector<std::pair<unsigned int,unsigned int>,std::allocator<std::pair<unsigned int,unsigned int> > > > >::operator->
PUBLIC	??E?$_Vector_const_iterator@V?$vector@U?$pair@II@std@@V?$allocator@U?$pair@II@std@@@2@@std@@V?$allocator@V?$vector@U?$pair@II@std@@V?$allocator@U?$pair@II@std@@@2@@std@@@2@@std@@QAE?AV01@H@Z ; std::_Vector_const_iterator<std::vector<std::pair<unsigned int,unsigned int>,std::allocator<std::pair<unsigned int,unsigned int> > >,std::allocator<std::vector<std::pair<unsigned int,unsigned int>,std::allocator<std::pair<unsigned int,unsigned int> > > > >::operator++
PUBLIC	??C?$_Vector_const_iterator@U?$pair@II@std@@V?$allocator@U?$pair@II@std@@@2@@std@@QBEPBU?$pair@II@1@XZ ; std::_Vector_const_iterator<std::pair<unsigned int,unsigned int>,std::allocator<std::pair<unsigned int,unsigned int> > >::operator->
PUBLIC	??E?$_Vector_const_iterator@U?$pair@II@std@@V?$allocator@U?$pair@II@std@@@2@@std@@QAE?AV01@H@Z ; std::_Vector_const_iterator<std::pair<unsigned int,unsigned int>,std::allocator<std::pair<unsigned int,unsigned int> > >::operator++
PUBLIC	??C?$_Vector_const_iterator@V?$vector@U?$pair@U?$pair@_K_K@std@@U12@@std@@V?$allocator@U?$pair@U?$pair@_K_K@std@@U12@@std@@@2@@std@@V?$allocator@V?$vector@U?$pair@U?$pair@_K_K@std@@U12@@std@@V?$allocator@U?$pair@U?$pair@_K_K@std@@U12@@std@@@2@@std@@@2@@std@@QBEPBV?$vector@U?$pair@U?$pair@_K_K@std@@U12@@std@@V?$allocator@U?$pair@U?$pair@_K_K@std@@U12@@std@@@2@@1@XZ ; std::_Vector_const_iterator<std::vector<std::pair<std::pair<unsigned __int64,unsigned __int64>,std::pair<unsigned __int64,unsigned __int64> >,std::allocator<std::pair<std::pair<unsigned __int64,unsigned __int64>,std::pair<unsigned __int64,unsigned __int64> > > >,std::allocator<std::vector<std::pair<std::pair<unsigned __int64,unsigned __int64>,std::pair<unsigned __int64,unsigned __int64> >,std::allocator<std::pair<std::pair<unsigned __int64,unsigned __int64>,std::pair<unsigned __int64,unsigned __int64> > > > > >::operator->
PUBLIC	??E?$_Vector_const_iterator@V?$vector@U?$pair@U?$pair@_K_K@std@@U12@@std@@V?$allocator@U?$pair@U?$pair@_K_K@std@@U12@@std@@@2@@std@@V?$allocator@V?$vector@U?$pair@U?$pair@_K_K@std@@U12@@std@@V?$allocator@U?$pair@U?$pair@_K_K@std@@U12@@std@@@2@@std@@@2@@std@@QAE?AV01@H@Z ; std::_Vector_const_iterator<std::vector<std::pair<std::pair<unsigned __int64,unsigned __int64>,std::pair<unsigned __int64,unsigned __int64> >,std::allocator<std::pair<std::pair<unsigned __int64,unsigned __int64>,std::pair<unsigned __int64,unsigned __int64> > > >,std::allocator<std::vector<std::pair<std::pair<unsigned __int64,unsigned __int64>,std::pair<unsigned __int64,unsigned __int64> >,std::allocator<std::pair<std::pair<unsigned __int64,unsigned __int64>,std::pair<unsigned __int64,unsigned __int64> > > > > >::operator++
PUBLIC	??C?$_Vector_const_iterator@U?$pair@U?$pair@_K_K@std@@U12@@std@@V?$allocator@U?$pair@U?$pair@_K_K@std@@U12@@std@@@2@@std@@QBEPBU?$pair@U?$pair@_K_K@std@@U12@@1@XZ ; std::_Vector_const_iterator<std::pair<std::pair<unsigned __int64,unsigned __int64>,std::pair<unsigned __int64,unsigned __int64> >,std::allocator<std::pair<std::pair<unsigned __int64,unsigned __int64>,std::pair<unsigned __int64,unsigned __int64> > > >::operator->
PUBLIC	??E?$_Vector_const_iterator@U?$pair@U?$pair@_K_K@std@@U12@@std@@V?$allocator@U?$pair@U?$pair@_K_K@std@@U12@@std@@@2@@std@@QAE?AV01@H@Z ; std::_Vector_const_iterator<std::pair<std::pair<unsigned __int64,unsigned __int64>,std::pair<unsigned __int64,unsigned __int64> >,std::allocator<std::pair<std::pair<unsigned __int64,unsigned __int64>,std::pair<unsigned __int64,unsigned __int64> > > >::operator++
PUBLIC	?begin@?$vector@V?$vector@U?$pair@II@std@@V?$allocator@U?$pair@II@std@@@2@@std@@V?$allocator@V?$vector@U?$pair@II@std@@V?$allocator@U?$pair@II@std@@@2@@std@@@2@@std@@QAE?AV?$_Vector_iterator@V?$vector@U?$pair@II@std@@V?$allocator@U?$pair@II@std@@@2@@std@@V?$allocator@V?$vector@U?$pair@II@std@@V?$allocator@U?$pair@II@std@@@2@@std@@@2@@2@XZ ; std::vector<std::vector<std::pair<unsigned int,unsigned int>,std::allocator<std::pair<unsigned int,unsigned int> > >,std::allocator<std::vector<std::pair<unsigned int,unsigned int>,std::allocator<std::pair<unsigned int,unsigned int> > > > >::begin
PUBLIC	??0?$_Iterator_with_base@Urandom_access_iterator_tag@std@@V?$vector@U?$pair@II@std@@V?$allocator@U?$pair@II@std@@@2@@2@HPBV32@ABV32@V_Iterator_base_aux@2@@std@@QAE@XZ ; std::_Iterator_with_base<std::random_access_iterator_tag,std::vector<std::pair<unsigned int,unsigned int>,std::allocator<std::pair<unsigned int,unsigned int> > >,int,std::vector<std::pair<unsigned int,unsigned int>,std::allocator<std::pair<unsigned int,unsigned int> > > const *,std::vector<std::pair<unsigned int,unsigned int>,std::allocator<std::pair<unsigned int,unsigned int> > > const &,std::_Iterator_base_aux>::_Iterator_with_base<std::random_access_iterator_tag,std::vector<std::pair<unsigned int,unsigned int>,std::allocator<std::pair<unsigned int,unsigned int> > >,int,std::vector<std::pair<unsigned int,unsigned int>,std::allocator<std::pair<unsigned int,unsigned int> > > const *,std::vector<std::pair<unsigned int,unsigned int>,std::allocator<std::pair<unsigned int,unsigned int> > > const &,std::_Iterator_base_aux>
PUBLIC	??0?$_Ranit@V?$vector@U?$pair@II@std@@V?$allocator@U?$pair@II@std@@@2@@std@@HPBV12@ABV12@@std@@QAE@XZ ; std::_Ranit<std::vector<std::pair<unsigned int,unsigned int>,std::allocator<std::pair<unsigned int,unsigned int> > >,int,std::vector<std::pair<unsigned int,unsigned int>,std::allocator<std::pair<unsigned int,unsigned int> > > const *,std::vector<std::pair<unsigned int,unsigned int>,std::allocator<std::pair<unsigned int,unsigned int> > > const &>::_Ranit<std::vector<std::pair<unsigned int,unsigned int>,std::allocator<std::pair<unsigned int,unsigned int> > >,int,std::vector<std::pair<unsigned int,unsigned int>,std::allocator<std::pair<unsigned int,unsigned int> > > const *,std::vector<std::pair<unsigned int,unsigned int>,std::allocator<std::pair<unsigned int,unsigned int> > > const &>
PUBLIC	??0?$_Vector_const_iterator@V?$vector@U?$pair@II@std@@V?$allocator@U?$pair@II@std@@@2@@std@@V?$allocator@V?$vector@U?$pair@II@std@@V?$allocator@U?$pair@II@std@@@2@@std@@@2@@std@@QAE@PAV?$vector@U?$pair@II@std@@V?$allocator@U?$pair@II@std@@@2@@1@PBV_Container_base_aux@1@@Z ; std::_Vector_const_iterator<std::vector<std::pair<unsigned int,unsigned int>,std::allocator<std::pair<unsigned int,unsigned int> > >,std::allocator<std::vector<std::pair<unsigned int,unsigned int>,std::allocator<std::pair<unsigned int,unsigned int> > > > >::_Vector_const_iterator<std::vector<std::pair<unsigned int,unsigned int>,std::allocator<std::pair<unsigned int,unsigned int> > >,std::allocator<std::vector<std::pair<unsigned int,unsigned int>,std::allocator<std::pair<unsigned int,unsigned int> > > > >
PUBLIC	??0?$_Vector_iterator@V?$vector@U?$pair@II@std@@V?$allocator@U?$pair@II@std@@@2@@std@@V?$allocator@V?$vector@U?$pair@II@std@@V?$allocator@U?$pair@II@std@@@2@@std@@@2@@std@@QAE@PAV?$vector@U?$pair@II@std@@V?$allocator@U?$pair@II@std@@@2@@1@PBV_Container_base_aux@1@@Z ; std::_Vector_iterator<std::vector<std::pair<unsigned int,unsigned int>,std::allocator<std::pair<unsigned int,unsigned int> > >,std::allocator<std::vector<std::pair<unsigned int,unsigned int>,std::allocator<std::pair<unsigned int,unsigned int> > > > >::_Vector_iterator<std::vector<std::pair<unsigned int,unsigned int>,std::allocator<std::pair<unsigned int,unsigned int> > >,std::allocator<std::vector<std::pair<unsigned int,unsigned int>,std::allocator<std::pair<unsigned int,unsigned int> > > > >
PUBLIC	?end@?$vector@V?$vector@U?$pair@II@std@@V?$allocator@U?$pair@II@std@@@2@@std@@V?$allocator@V?$vector@U?$pair@II@std@@V?$allocator@U?$pair@II@std@@@2@@std@@@2@@std@@QAE?AV?$_Vector_iterator@V?$vector@U?$pair@II@std@@V?$allocator@U?$pair@II@std@@@2@@std@@V?$allocator@V?$vector@U?$pair@II@std@@V?$allocator@U?$pair@II@std@@@2@@std@@@2@@2@XZ ; std::vector<std::vector<std::pair<unsigned int,unsigned int>,std::allocator<std::pair<unsigned int,unsigned int> > >,std::allocator<std::vector<std::pair<unsigned int,unsigned int>,std::allocator<std::pair<unsigned int,unsigned int> > > > >::end
PUBLIC	?begin@?$vector@V?$vector@IV?$allocator@I@std@@@std@@V?$allocator@V?$vector@IV?$allocator@I@std@@@std@@@2@@std@@QAE?AV?$_Vector_iterator@V?$vector@IV?$allocator@I@std@@@std@@V?$allocator@V?$vector@IV?$allocator@I@std@@@std@@@2@@2@XZ ; std::vector<std::vector<unsigned int,std::allocator<unsigned int> >,std::allocator<std::vector<unsigned int,std::allocator<unsigned int> > > >::begin
PUBLIC	??0?$_Iterator_with_base@Urandom_access_iterator_tag@std@@V?$vector@IV?$allocator@I@std@@@2@HPBV32@ABV32@V_Iterator_base_aux@2@@std@@QAE@XZ ; std::_Iterator_with_base<std::random_access_iterator_tag,std::vector<unsigned int,std::allocator<unsigned int> >,int,std::vector<unsigned int,std::allocator<unsigned int> > const *,std::vector<unsigned int,std::allocator<unsigned int> > const &,std::_Iterator_base_aux>::_Iterator_with_base<std::random_access_iterator_tag,std::vector<unsigned int,std::allocator<unsigned int> >,int,std::vector<unsigned int,std::allocator<unsigned int> > const *,std::vector<unsigned int,std::allocator<unsigned int> > const &,std::_Iterator_base_aux>
PUBLIC	??0?$_Ranit@V?$vector@IV?$allocator@I@std@@@std@@HPBV12@ABV12@@std@@QAE@XZ ; std::_Ranit<std::vector<unsigned int,std::allocator<unsigned int> >,int,std::vector<unsigned int,std::allocator<unsigned int> > const *,std::vector<unsigned int,std::allocator<unsigned int> > const &>::_Ranit<std::vector<unsigned int,std::allocator<unsigned int> >,int,std::vector<unsigned int,std::allocator<unsigned int> > const *,std::vector<unsigned int,std::allocator<unsigned int> > const &>
PUBLIC	??0?$_Vector_const_iterator@V?$vector@IV?$allocator@I@std@@@std@@V?$allocator@V?$vector@IV?$allocator@I@std@@@std@@@2@@std@@QAE@PAV?$vector@IV?$allocator@I@std@@@1@PBV_Container_base_aux@1@@Z ; std::_Vector_const_iterator<std::vector<unsigned int,std::allocator<unsigned int> >,std::allocator<std::vector<unsigned int,std::allocator<unsigned int> > > >::_Vector_const_iterator<std::vector<unsigned int,std::allocator<unsigned int> >,std::allocator<std::vector<unsigned int,std::allocator<unsigned int> > > >
PUBLIC	??0?$_Vector_iterator@V?$vector@IV?$allocator@I@std@@@std@@V?$allocator@V?$vector@IV?$allocator@I@std@@@std@@@2@@std@@QAE@PAV?$vector@IV?$allocator@I@std@@@1@PBV_Container_base_aux@1@@Z ; std::_Vector_iterator<std::vector<unsigned int,std::allocator<unsigned int> >,std::allocator<std::vector<unsigned int,std::allocator<unsigned int> > > >::_Vector_iterator<std::vector<unsigned int,std::allocator<unsigned int> >,std::allocator<std::vector<unsigned int,std::allocator<unsigned int> > > >
PUBLIC	?end@?$vector@V?$vector@IV?$allocator@I@std@@@std@@V?$allocator@V?$vector@IV?$allocator@I@std@@@std@@@2@@std@@QAE?AV?$_Vector_iterator@V?$vector@IV?$allocator@I@std@@@std@@V?$allocator@V?$vector@IV?$allocator@I@std@@@std@@@2@@2@XZ ; std::vector<std::vector<unsigned int,std::allocator<unsigned int> >,std::allocator<std::vector<unsigned int,std::allocator<unsigned int> > > >::end
PUBLIC	?end@?$list@U?$pair@$$CBII@std@@V?$allocator@U?$pair@$$CBII@std@@@2@@std@@QAE?AV?$_Iterator@$00@12@XZ ; std::list<std::pair<unsigned int const ,unsigned int>,std::allocator<std::pair<unsigned int const ,unsigned int> > >::end
PUBLIC	?end@?$_Hash@V?$_Umap_traits@IIV?$_Hash_compare@IV?$hash@I@tr1@std@@U?$equal_to@I@3@@stdext@@V?$allocator@U?$pair@$$CBII@std@@@std@@$0A@@tr1@std@@@stdext@@QAE?AV?$_Iterator@$00@?$list@U?$pair@$$CBII@std@@V?$allocator@U?$pair@$$CBII@std@@@2@@std@@XZ ; stdext::_Hash<std::tr1::_Umap_traits<unsigned int,unsigned int,stdext::_Hash_compare<unsigned int,std::tr1::hash<unsigned int>,std::equal_to<unsigned int> >,std::allocator<std::pair<unsigned int const ,unsigned int> >,0> >::end
PUBLIC	?begin@?$vector@U_List_position@?$_Hash@V?$_Umap_traits@IIV?$_Hash_compare@IV?$hash@I@tr1@std@@U?$equal_to@I@3@@stdext@@V?$allocator@U?$pair@$$CBII@std@@@std@@$0A@@tr1@std@@@stdext@@V?$allocator@U_List_position@?$_Hash@V?$_Umap_traits@IIV?$_Hash_compare@IV?$hash@I@tr1@std@@U?$equal_to@I@3@@stdext@@V?$allocator@U?$pair@$$CBII@std@@@std@@$0A@@tr1@std@@@stdext@@@std@@@std@@QAE?AV?$_Vector_iterator@U_List_position@?$_Hash@V?$_Umap_traits@IIV?$_Hash_compare@IV?$hash@I@tr1@std@@U?$equal_to@I@3@@stdext@@V?$allocator@U?$pair@$$CBII@std@@@std@@$0A@@tr1@std@@@stdext@@V?$allocator@U_List_position@?$_Hash@V?$_Umap_traits@IIV?$_Hash_compare@IV?$hash@I@tr1@std@@U?$equal_to@I@3@@stdext@@V?$allocator@U?$pair@$$CBII@std@@@std@@$0A@@tr1@std@@@stdext@@@std@@@2@XZ ; std::vector<stdext::_Hash<std::tr1::_Umap_traits<unsigned int,unsigned int,stdext::_Hash_compare<unsigned int,std::tr1::hash<unsigned int>,std::equal_to<unsigned int> >,std::allocator<std::pair<unsigned int const ,unsigned int> >,0> >::_List_position,std::allocator<stdext::_Hash<std::tr1::_Umap_traits<unsigned int,unsigned int,stdext::_Hash_compare<unsigned int,std::tr1::hash<unsigned int>,std::equal_to<unsigned int> >,std::allocator<std::pair<unsigned int const ,unsigned int> >,0> >::_List_position> >::begin
PUBLIC	?end@?$vector@U_List_position@?$_Hash@V?$_Umap_traits@IIV?$_Hash_compare@IV?$hash@I@tr1@std@@U?$equal_to@I@3@@stdext@@V?$allocator@U?$pair@$$CBII@std@@@std@@$0A@@tr1@std@@@stdext@@V?$allocator@U_List_position@?$_Hash@V?$_Umap_traits@IIV?$_Hash_compare@IV?$hash@I@tr1@std@@U?$equal_to@I@3@@stdext@@V?$allocator@U?$pair@$$CBII@std@@@std@@$0A@@tr1@std@@@stdext@@@std@@@std@@QAE?AV?$_Vector_iterator@U_List_position@?$_Hash@V?$_Umap_traits@IIV?$_Hash_compare@IV?$hash@I@tr1@std@@U?$equal_to@I@3@@stdext@@V?$allocator@U?$pair@$$CBII@std@@@std@@$0A@@tr1@std@@@stdext@@V?$allocator@U_List_position@?$_Hash@V?$_Umap_traits@IIV?$_Hash_compare@IV?$hash@I@tr1@std@@U?$equal_to@I@3@@stdext@@V?$allocator@U?$pair@$$CBII@std@@@std@@$0A@@tr1@std@@@stdext@@@std@@@2@XZ ; std::vector<stdext::_Hash<std::tr1::_Umap_traits<unsigned int,unsigned int,stdext::_Hash_compare<unsigned int,std::tr1::hash<unsigned int>,std::equal_to<unsigned int> >,std::allocator<std::pair<unsigned int const ,unsigned int> >,0> >::_List_position,std::allocator<stdext::_Hash<std::tr1::_Umap_traits<unsigned int,unsigned int,stdext::_Hash_compare<unsigned int,std::tr1::hash<unsigned int>,std::equal_to<unsigned int> >,std::allocator<std::pair<unsigned int const ,unsigned int> >,0> >::_List_position> >::end
PUBLIC	??$_Allocate@U_List_position@?$_Hash@V?$_Umap_traits@IIV?$_Hash_compare@IV?$hash@I@tr1@std@@U?$equal_to@I@3@@stdext@@V?$allocator@U?$pair@$$CBII@std@@@std@@$0A@@tr1@std@@@stdext@@@std@@YAPAU_List_position@?$_Hash@V?$_Umap_traits@IIV?$_Hash_compare@IV?$hash@I@tr1@std@@U?$equal_to@I@3@@stdext@@V?$allocator@U?$pair@$$CBII@std@@@std@@$0A@@tr1@std@@@stdext@@IPAU123@@Z ; std::_Allocate<stdext::_Hash<std::tr1::_Umap_traits<unsigned int,unsigned int,stdext::_Hash_compare<unsigned int,std::tr1::hash<unsigned int>,std::equal_to<unsigned int> >,std::allocator<std::pair<unsigned int const ,unsigned int> >,0> >::_List_position>
PUBLIC	?allocate@?$allocator@U_List_position@?$_Hash@V?$_Umap_traits@IIV?$_Hash_compare@IV?$hash@I@tr1@std@@U?$equal_to@I@3@@stdext@@V?$allocator@U?$pair@$$CBII@std@@@std@@$0A@@tr1@std@@@stdext@@@std@@QAEPAU_List_position@?$_Hash@V?$_Umap_traits@IIV?$_Hash_compare@IV?$hash@I@tr1@std@@U?$equal_to@I@3@@stdext@@V?$allocator@U?$pair@$$CBII@std@@@std@@$0A@@tr1@std@@@stdext@@I@Z ; std::allocator<stdext::_Hash<std::tr1::_Umap_traits<unsigned int,unsigned int,stdext::_Hash_compare<unsigned int,std::tr1::hash<unsigned int>,std::equal_to<unsigned int> >,std::allocator<std::pair<unsigned int const ,unsigned int> >,0> >::_List_position>::allocate
PUBLIC	?capacity@?$vector@U_List_position@?$_Hash@V?$_Umap_traits@IIV?$_Hash_compare@IV?$hash@I@tr1@std@@U?$equal_to@I@3@@stdext@@V?$allocator@U?$pair@$$CBII@std@@@std@@$0A@@tr1@std@@@stdext@@V?$allocator@U_List_position@?$_Hash@V?$_Umap_traits@IIV?$_Hash_compare@IV?$hash@I@tr1@std@@U?$equal_to@I@3@@stdext@@V?$allocator@U?$pair@$$CBII@std@@@std@@$0A@@tr1@std@@@stdext@@@std@@@std@@QBEIXZ ; std::vector<stdext::_Hash<std::tr1::_Umap_traits<unsigned int,unsigned int,stdext::_Hash_compare<unsigned int,std::tr1::hash<unsigned int>,std::equal_to<unsigned int> >,std::allocator<std::pair<unsigned int const ,unsigned int> >,0> >::_List_position,std::allocator<stdext::_Hash<std::tr1::_Umap_traits<unsigned int,unsigned int,stdext::_Hash_compare<unsigned int,std::tr1::hash<unsigned int>,std::equal_to<unsigned int> >,std::allocator<std::pair<unsigned int const ,unsigned int> >,0> >::_List_position> >::capacity
PUBLIC	?max_size@?$allocator@U_List_position@?$_Hash@V?$_Umap_traits@IIV?$_Hash_compare@IV?$hash@I@tr1@std@@U?$equal_to@I@3@@stdext@@V?$allocator@U?$pair@$$CBII@std@@@std@@$0A@@tr1@std@@@stdext@@@std@@QBEIXZ ; std::allocator<stdext::_Hash<std::tr1::_Umap_traits<unsigned int,unsigned int,stdext::_Hash_compare<unsigned int,std::tr1::hash<unsigned int>,std::equal_to<unsigned int> >,std::allocator<std::pair<unsigned int const ,unsigned int> >,0> >::_List_position>::max_size
PUBLIC	?max_size@?$vector@U_List_position@?$_Hash@V?$_Umap_traits@IIV?$_Hash_compare@IV?$hash@I@tr1@std@@U?$equal_to@I@3@@stdext@@V?$allocator@U?$pair@$$CBII@std@@@std@@$0A@@tr1@std@@@stdext@@V?$allocator@U_List_position@?$_Hash@V?$_Umap_traits@IIV?$_Hash_compare@IV?$hash@I@tr1@std@@U?$equal_to@I@3@@stdext@@V?$allocator@U?$pair@$$CBII@std@@@std@@$0A@@tr1@std@@@stdext@@@std@@@std@@QBEIXZ ; std::vector<stdext::_Hash<std::tr1::_Umap_traits<unsigned int,unsigned int,stdext::_Hash_compare<unsigned int,std::tr1::hash<unsigned int>,std::equal_to<unsigned int> >,std::allocator<std::pair<unsigned int const ,unsigned int> >,0> >::_List_position,std::allocator<stdext::_Hash<std::tr1::_Umap_traits<unsigned int,unsigned int,stdext::_Hash_compare<unsigned int,std::tr1::hash<unsigned int>,std::equal_to<unsigned int> >,std::allocator<std::pair<unsigned int const ,unsigned int> >,0> >::_List_position> >::max_size
PUBLIC	??$_Uninit_fill_n@PAU_List_position@?$_Hash@V?$_Umap_traits@IIV?$_Hash_compare@IV?$hash@I@tr1@std@@U?$equal_to@I@3@@stdext@@V?$allocator@U?$pair@$$CBII@std@@@std@@$0A@@tr1@std@@@stdext@@IU123@V?$allocator@U_List_position@?$_Hash@V?$_Umap_traits@IIV?$_Hash_compare@IV?$hash@I@tr1@std@@U?$equal_to@I@3@@stdext@@V?$allocator@U?$pair@$$CBII@std@@@std@@$0A@@tr1@std@@@stdext@@@std@@@std@@YAXPAU_List_position@?$_Hash@V?$_Umap_traits@IIV?$_Hash_compare@IV?$hash@I@tr1@std@@U?$equal_to@I@3@@stdext@@V?$allocator@U?$pair@$$CBII@std@@@std@@$0A@@tr1@std@@@stdext@@IABU123@AAV?$allocator@U_List_position@?$_Hash@V?$_Umap_traits@IIV?$_Hash_compare@IV?$hash@I@tr1@std@@U?$equal_to@I@3@@stdext@@V?$allocator@U?$pair@$$CBII@std@@@std@@$0A@@tr1@std@@@stdext@@@0@U_Nonscalar_ptr_iterator_tag@0@U_Range_checked_iterator_tag@0@@Z ; std::_Uninit_fill_n<stdext::_Hash<std::tr1::_Umap_traits<unsigned int,unsigned int,stdext::_Hash_compare<unsigned int,std::tr1::hash<unsigned int>,std::equal_to<unsigned int> >,std::allocator<std::pair<unsigned int const ,unsigned int> >,0> >::_List_position *,unsigned int,stdext::_Hash<std::tr1::_Umap_traits<unsigned int,unsigned int,stdext::_Hash_compare<unsigned int,std::tr1::hash<unsigned int>,std::equal_to<unsigned int> >,std::allocator<std::pair<unsigned int const ,unsigned int> >,0> >::_List_position,std::allocator<stdext::_Hash<std::tr1::_Umap_traits<unsigned int,unsigned int,stdext::_Hash_compare<unsigned int,std::tr1::hash<unsigned int>,std::equal_to<unsigned int> >,std::allocator<std::pair<unsigned int const ,unsigned int> >,0> >::_List_position> >
PUBLIC	??$unchecked_uninitialized_fill_n@PAU_List_position@?$_Hash@V?$_Umap_traits@IIV?$_Hash_compare@IV?$hash@I@tr1@std@@U?$equal_to@I@3@@stdext@@V?$allocator@U?$pair@$$CBII@std@@@std@@$0A@@tr1@std@@@stdext@@IU123@V?$allocator@U_List_position@?$_Hash@V?$_Umap_traits@IIV?$_Hash_compare@IV?$hash@I@tr1@std@@U?$equal_to@I@3@@stdext@@V?$allocator@U?$pair@$$CBII@std@@@std@@$0A@@tr1@std@@@stdext@@@std@@@stdext@@YAXPAU_List_position@?$_Hash@V?$_Umap_traits@IIV?$_Hash_compare@IV?$hash@I@tr1@std@@U?$equal_to@I@3@@stdext@@V?$allocator@U?$pair@$$CBII@std@@@std@@$0A@@tr1@std@@@0@IABU120@AAV?$allocator@U_List_position@?$_Hash@V?$_Umap_traits@IIV?$_Hash_compare@IV?$hash@I@tr1@std@@U?$equal_to@I@3@@stdext@@V?$allocator@U?$pair@$$CBII@std@@@std@@$0A@@tr1@std@@@stdext@@@std@@@Z ; stdext::unchecked_uninitialized_fill_n<stdext::_Hash<std::tr1::_Umap_traits<unsigned int,unsigned int,stdext::_Hash_compare<unsigned int,std::tr1::hash<unsigned int>,std::equal_to<unsigned int> >,std::allocator<std::pair<unsigned int const ,unsigned int> >,0> >::_List_position *,unsigned int,stdext::_Hash<std::tr1::_Umap_traits<unsigned int,unsigned int,stdext::_Hash_compare<unsigned int,std::tr1::hash<unsigned int>,std::equal_to<unsigned int> >,std::allocator<std::pair<unsigned int const ,unsigned int> >,0> >::_List_position,std::allocator<stdext::_Hash<std::tr1::_Umap_traits<unsigned int,unsigned int,stdext::_Hash_compare<unsigned int,std::tr1::hash<unsigned int>,std::equal_to<unsigned int> >,std::allocator<std::pair<unsigned int const ,unsigned int> >,0> >::_List_position> >
PUBLIC	?_Ufill@?$vector@U_List_position@?$_Hash@V?$_Umap_traits@IIV?$_Hash_compare@IV?$hash@I@tr1@std@@U?$equal_to@I@3@@stdext@@V?$allocator@U?$pair@$$CBII@std@@@std@@$0A@@tr1@std@@@stdext@@V?$allocator@U_List_position@?$_Hash@V?$_Umap_traits@IIV?$_Hash_compare@IV?$hash@I@tr1@std@@U?$equal_to@I@3@@stdext@@V?$allocator@U?$pair@$$CBII@std@@@std@@$0A@@tr1@std@@@stdext@@@std@@@std@@IAEPAU_List_position@?$_Hash@V?$_Umap_traits@IIV?$_Hash_compare@IV?$hash@I@tr1@std@@U?$equal_to@I@3@@stdext@@V?$allocator@U?$pair@$$CBII@std@@@std@@$0A@@tr1@std@@@stdext@@PAU345@IABU345@@Z ; std::vector<stdext::_Hash<std::tr1::_Umap_traits<unsigned int,unsigned int,stdext::_Hash_compare<unsigned int,std::tr1::hash<unsigned int>,std::equal_to<unsigned int> >,std::allocator<std::pair<unsigned int const ,unsigned int> >,0> >::_List_position,std::allocator<stdext::_Hash<std::tr1::_Umap_traits<unsigned int,unsigned int,stdext::_Hash_compare<unsigned int,std::tr1::hash<unsigned int>,std::equal_to<unsigned int> >,std::allocator<std::pair<unsigned int const ,unsigned int> >,0> >::_List_position> >::_Ufill
PUBLIC	?_Xlen@?$vector@U_List_position@?$_Hash@V?$_Umap_traits@IIV?$_Hash_compare@IV?$hash@I@tr1@std@@U?$equal_to@I@3@@stdext@@V?$allocator@U?$pair@$$CBII@std@@@std@@$0A@@tr1@std@@@stdext@@V?$allocator@U_List_position@?$_Hash@V?$_Umap_traits@IIV?$_Hash_compare@IV?$hash@I@tr1@std@@U?$equal_to@I@3@@stdext@@V?$allocator@U?$pair@$$CBII@std@@@std@@$0A@@tr1@std@@@stdext@@@std@@@std@@KAXXZ ; std::vector<stdext::_Hash<std::tr1::_Umap_traits<unsigned int,unsigned int,stdext::_Hash_compare<unsigned int,std::tr1::hash<unsigned int>,std::equal_to<unsigned int> >,std::allocator<std::pair<unsigned int const ,unsigned int> >,0> >::_List_position,std::allocator<stdext::_Hash<std::tr1::_Umap_traits<unsigned int,unsigned int,stdext::_Hash_compare<unsigned int,std::tr1::hash<unsigned int>,std::equal_to<unsigned int> >,std::allocator<std::pair<unsigned int const ,unsigned int> >,0> >::_List_position> >::_Xlen
PUBLIC	??$_Construct@U_List_position@?$_Hash@V?$_Umap_traits@IIV?$_Hash_compare@IV?$hash@I@tr1@std@@U?$equal_to@I@3@@stdext@@V?$allocator@U?$pair@$$CBII@std@@@std@@$0A@@tr1@std@@@stdext@@U123@@std@@YAXPAU_List_position@?$_Hash@V?$_Umap_traits@IIV?$_Hash_compare@IV?$hash@I@tr1@std@@U?$equal_to@I@3@@stdext@@V?$allocator@U?$pair@$$CBII@std@@@std@@$0A@@tr1@std@@@stdext@@ABU123@@Z ; std::_Construct<stdext::_Hash<std::tr1::_Umap_traits<unsigned int,unsigned int,stdext::_Hash_compare<unsigned int,std::tr1::hash<unsigned int>,std::equal_to<unsigned int> >,std::allocator<std::pair<unsigned int const ,unsigned int> >,0> >::_List_position,stdext::_Hash<std::tr1::_Umap_traits<unsigned int,unsigned int,stdext::_Hash_compare<unsigned int,std::tr1::hash<unsigned int>,std::equal_to<unsigned int> >,std::allocator<std::pair<unsigned int const ,unsigned int> >,0> >::_List_position>
PUBLIC	?construct@?$allocator@U_List_position@?$_Hash@V?$_Umap_traits@IIV?$_Hash_compare@IV?$hash@I@tr1@std@@U?$equal_to@I@3@@stdext@@V?$allocator@U?$pair@$$CBII@std@@@std@@$0A@@tr1@std@@@stdext@@@std@@QAEXPAU_List_position@?$_Hash@V?$_Umap_traits@IIV?$_Hash_compare@IV?$hash@I@tr1@std@@U?$equal_to@I@3@@stdext@@V?$allocator@U?$pair@$$CBII@std@@@std@@$0A@@tr1@std@@@stdext@@ABU345@@Z ; std::allocator<stdext::_Hash<std::tr1::_Umap_traits<unsigned int,unsigned int,stdext::_Hash_compare<unsigned int,std::tr1::hash<unsigned int>,std::equal_to<unsigned int> >,std::allocator<std::pair<unsigned int const ,unsigned int> >,0> >::_List_position>::construct
PUBLIC	??$_Uninit_copy@PAU_List_position@?$_Hash@V?$_Umap_traits@IIV?$_Hash_compare@IV?$hash@I@tr1@std@@U?$equal_to@I@3@@stdext@@V?$allocator@U?$pair@$$CBII@std@@@std@@$0A@@tr1@std@@@stdext@@PAU123@V?$allocator@U_List_position@?$_Hash@V?$_Umap_traits@IIV?$_Hash_compare@IV?$hash@I@tr1@std@@U?$equal_to@I@3@@stdext@@V?$allocator@U?$pair@$$CBII@std@@@std@@$0A@@tr1@std@@@stdext@@@std@@@std@@YAPAU_List_position@?$_Hash@V?$_Umap_traits@IIV?$_Hash_compare@IV?$hash@I@tr1@std@@U?$equal_to@I@3@@stdext@@V?$allocator@U?$pair@$$CBII@std@@@std@@$0A@@tr1@std@@@stdext@@PAU123@00AAV?$allocator@U_List_position@?$_Hash@V?$_Umap_traits@IIV?$_Hash_compare@IV?$hash@I@tr1@std@@U?$equal_to@I@3@@stdext@@V?$allocator@U?$pair@$$CBII@std@@@std@@$0A@@tr1@std@@@stdext@@@0@U_Nonscalar_ptr_iterator_tag@0@U_Range_checked_iterator_tag@0@@Z ; std::_Uninit_copy<stdext::_Hash<std::tr1::_Umap_traits<unsigned int,unsigned int,stdext::_Hash_compare<unsigned int,std::tr1::hash<unsigned int>,std::equal_to<unsigned int> >,std::allocator<std::pair<unsigned int const ,unsigned int> >,0> >::_List_position *,stdext::_Hash<std::tr1::_Umap_traits<unsigned int,unsigned int,stdext::_Hash_compare<unsigned int,std::tr1::hash<unsigned int>,std::equal_to<unsigned int> >,std::allocator<std::pair<unsigned int const ,unsigned int> >,0> >::_List_position *,std::allocator<stdext::_Hash<std::tr1::_Umap_traits<unsigned int,unsigned int,stdext::_Hash_compare<unsigned int,std::tr1::hash<unsigned int>,std::equal_to<unsigned int> >,std::allocator<std::pair<unsigned int const ,unsigned int> >,0> >::_List_position> >
PUBLIC	??$unchecked_uninitialized_copy@PAU_List_position@?$_Hash@V?$_Umap_traits@IIV?$_Hash_compare@IV?$hash@I@tr1@std@@U?$equal_to@I@3@@stdext@@V?$allocator@U?$pair@$$CBII@std@@@std@@$0A@@tr1@std@@@stdext@@PAU123@V?$allocator@U_List_position@?$_Hash@V?$_Umap_traits@IIV?$_Hash_compare@IV?$hash@I@tr1@std@@U?$equal_to@I@3@@stdext@@V?$allocator@U?$pair@$$CBII@std@@@std@@$0A@@tr1@std@@@stdext@@@std@@@stdext@@YAPAU_List_position@?$_Hash@V?$_Umap_traits@IIV?$_Hash_compare@IV?$hash@I@tr1@std@@U?$equal_to@I@3@@stdext@@V?$allocator@U?$pair@$$CBII@std@@@std@@$0A@@tr1@std@@@0@PAU120@00AAV?$allocator@U_List_position@?$_Hash@V?$_Umap_traits@IIV?$_Hash_compare@IV?$hash@I@tr1@std@@U?$equal_to@I@3@@stdext@@V?$allocator@U?$pair@$$CBII@std@@@std@@$0A@@tr1@std@@@stdext@@@std@@@Z ; stdext::unchecked_uninitialized_copy<stdext::_Hash<std::tr1::_Umap_traits<unsigned int,unsigned int,stdext::_Hash_compare<unsigned int,std::tr1::hash<unsigned int>,std::equal_to<unsigned int> >,std::allocator<std::pair<unsigned int const ,unsigned int> >,0> >::_List_position *,stdext::_Hash<std::tr1::_Umap_traits<unsigned int,unsigned int,stdext::_Hash_compare<unsigned int,std::tr1::hash<unsigned int>,std::equal_to<unsigned int> >,std::allocator<std::pair<unsigned int const ,unsigned int> >,0> >::_List_position *,std::allocator<stdext::_Hash<std::tr1::_Umap_traits<unsigned int,unsigned int,stdext::_Hash_compare<unsigned int,std::tr1::hash<unsigned int>,std::equal_to<unsigned int> >,std::allocator<std::pair<unsigned int const ,unsigned int> >,0> >::_List_position> >
PUBLIC	??$_Uninit_move@PAU_List_position@?$_Hash@V?$_Umap_traits@IIV?$_Hash_compare@IV?$hash@I@tr1@std@@U?$equal_to@I@3@@stdext@@V?$allocator@U?$pair@$$CBII@std@@@std@@$0A@@tr1@std@@@stdext@@PAU123@V?$allocator@U_List_position@?$_Hash@V?$_Umap_traits@IIV?$_Hash_compare@IV?$hash@I@tr1@std@@U?$equal_to@I@3@@stdext@@V?$allocator@U?$pair@$$CBII@std@@@std@@$0A@@tr1@std@@@stdext@@@std@@U_Undefined_move_tag@5@@std@@YAPAU_List_position@?$_Hash@V?$_Umap_traits@IIV?$_Hash_compare@IV?$hash@I@tr1@std@@U?$equal_to@I@3@@stdext@@V?$allocator@U?$pair@$$CBII@std@@@std@@$0A@@tr1@std@@@stdext@@PAU123@00AAV?$allocator@U_List_position@?$_Hash@V?$_Umap_traits@IIV?$_Hash_compare@IV?$hash@I@tr1@std@@U?$equal_to@I@3@@stdext@@V?$allocator@U?$pair@$$CBII@std@@@std@@$0A@@tr1@std@@@stdext@@@0@U_Undefined_move_tag@0@U_Range_checked_iterator_tag@0@@Z ; std::_Uninit_move<stdext::_Hash<std::tr1::_Umap_traits<unsigned int,unsigned int,stdext::_Hash_compare<unsigned int,std::tr1::hash<unsigned int>,std::equal_to<unsigned int> >,std::allocator<std::pair<unsigned int const ,unsigned int> >,0> >::_List_position *,stdext::_Hash<std::tr1::_Umap_traits<unsigned int,unsigned int,stdext::_Hash_compare<unsigned int,std::tr1::hash<unsigned int>,std::equal_to<unsigned int> >,std::allocator<std::pair<unsigned int const ,unsigned int> >,0> >::_List_position *,std::allocator<stdext::_Hash<std::tr1::_Umap_traits<unsigned int,unsigned int,stdext::_Hash_compare<unsigned int,std::tr1::hash<unsigned int>,std::equal_to<unsigned int> >,std::allocator<std::pair<unsigned int const ,unsigned int> >,0> >::_List_position>,std::_Undefined_move_tag>
PUBLIC	??$_Unchecked_uninitialized_move@PAU_List_position@?$_Hash@V?$_Umap_traits@IIV?$_Hash_compare@IV?$hash@I@tr1@std@@U?$equal_to@I@3@@stdext@@V?$allocator@U?$pair@$$CBII@std@@@std@@$0A@@tr1@std@@@stdext@@PAU123@V?$allocator@U_List_position@?$_Hash@V?$_Umap_traits@IIV?$_Hash_compare@IV?$hash@I@tr1@std@@U?$equal_to@I@3@@stdext@@V?$allocator@U?$pair@$$CBII@std@@@std@@$0A@@tr1@std@@@stdext@@@std@@@stdext@@YAPAU_List_position@?$_Hash@V?$_Umap_traits@IIV?$_Hash_compare@IV?$hash@I@tr1@std@@U?$equal_to@I@3@@stdext@@V?$allocator@U?$pair@$$CBII@std@@@std@@$0A@@tr1@std@@@0@PAU120@00AAV?$allocator@U_List_position@?$_Hash@V?$_Umap_traits@IIV?$_Hash_compare@IV?$hash@I@tr1@std@@U?$equal_to@I@3@@stdext@@V?$allocator@U?$pair@$$CBII@std@@@std@@$0A@@tr1@std@@@stdext@@@std@@@Z ; stdext::_Unchecked_uninitialized_move<stdext::_Hash<std::tr1::_Umap_traits<unsigned int,unsigned int,stdext::_Hash_compare<unsigned int,std::tr1::hash<unsigned int>,std::equal_to<unsigned int> >,std::allocator<std::pair<unsigned int const ,unsigned int> >,0> >::_List_position *,stdext::_Hash<std::tr1::_Umap_traits<unsigned int,unsigned int,stdext::_Hash_compare<unsigned int,std::tr1::hash<unsigned int>,std::equal_to<unsigned int> >,std::allocator<std::pair<unsigned int const ,unsigned int> >,0> >::_List_position *,std::allocator<stdext::_Hash<std::tr1::_Umap_traits<unsigned int,unsigned int,stdext::_Hash_compare<unsigned int,std::tr1::hash<unsigned int>,std::equal_to<unsigned int> >,std::allocator<std::pair<unsigned int const ,unsigned int> >,0> >::_List_position> >
PUBLIC	??$_Umove@PAU_List_position@?$_Hash@V?$_Umap_traits@IIV?$_Hash_compare@IV?$hash@I@tr1@std@@U?$equal_to@I@3@@stdext@@V?$allocator@U?$pair@$$CBII@std@@@std@@$0A@@tr1@std@@@stdext@@@?$vector@U_List_position@?$_Hash@V?$_Umap_traits@IIV?$_Hash_compare@IV?$hash@I@tr1@std@@U?$equal_to@I@3@@stdext@@V?$allocator@U?$pair@$$CBII@std@@@std@@$0A@@tr1@std@@@stdext@@V?$allocator@U_List_position@?$_Hash@V?$_Umap_traits@IIV?$_Hash_compare@IV?$hash@I@tr1@std@@U?$equal_to@I@3@@stdext@@V?$allocator@U?$pair@$$CBII@std@@@std@@$0A@@tr1@std@@@stdext@@@std@@@std@@IAEPAU_List_position@?$_Hash@V?$_Umap_traits@IIV?$_Hash_compare@IV?$hash@I@tr1@std@@U?$equal_to@I@3@@stdext@@V?$allocator@U?$pair@$$CBII@std@@@std@@$0A@@tr1@std@@@stdext@@PAU234@00@Z ; std::vector<stdext::_Hash<std::tr1::_Umap_traits<unsigned int,unsigned int,stdext::_Hash_compare<unsigned int,std::tr1::hash<unsigned int>,std::equal_to<unsigned int> >,std::allocator<std::pair<unsigned int const ,unsigned int> >,0> >::_List_position,std::allocator<stdext::_Hash<std::tr1::_Umap_traits<unsigned int,unsigned int,stdext::_Hash_compare<unsigned int,std::tr1::hash<unsigned int>,std::equal_to<unsigned int> >,std::allocator<std::pair<unsigned int const ,unsigned int> >,0> >::_List_position> >::_Umove<stdext::_Hash<std::tr1::_Umap_traits<unsigned int,unsigned int,stdext::_Hash_compare<unsigned int,std::tr1::hash<unsigned int>,std::equal_to<unsigned int> >,std::allocator<std::pair<unsigned int const ,unsigned int> >,0> >::_List_position *>
PUBLIC	??$_Fill@PAU_List_position@?$_Hash@V?$_Umap_traits@IIV?$_Hash_compare@IV?$hash@I@tr1@std@@U?$equal_to@I@3@@stdext@@V?$allocator@U?$pair@$$CBII@std@@@std@@$0A@@tr1@std@@@stdext@@U123@@std@@YAXPAU_List_position@?$_Hash@V?$_Umap_traits@IIV?$_Hash_compare@IV?$hash@I@tr1@std@@U?$equal_to@I@3@@stdext@@V?$allocator@U?$pair@$$CBII@std@@@std@@$0A@@tr1@std@@@stdext@@0ABU123@@Z ; std::_Fill<stdext::_Hash<std::tr1::_Umap_traits<unsigned int,unsigned int,stdext::_Hash_compare<unsigned int,std::tr1::hash<unsigned int>,std::equal_to<unsigned int> >,std::allocator<std::pair<unsigned int const ,unsigned int> >,0> >::_List_position *,stdext::_Hash<std::tr1::_Umap_traits<unsigned int,unsigned int,stdext::_Hash_compare<unsigned int,std::tr1::hash<unsigned int>,std::equal_to<unsigned int> >,std::allocator<std::pair<unsigned int const ,unsigned int> >,0> >::_List_position>
PUBLIC	??$fill@PAU_List_position@?$_Hash@V?$_Umap_traits@IIV?$_Hash_compare@IV?$hash@I@tr1@std@@U?$equal_to@I@3@@stdext@@V?$allocator@U?$pair@$$CBII@std@@@std@@$0A@@tr1@std@@@stdext@@U123@@std@@YAXPAU_List_position@?$_Hash@V?$_Umap_traits@IIV?$_Hash_compare@IV?$hash@I@tr1@std@@U?$equal_to@I@3@@stdext@@V?$allocator@U?$pair@$$CBII@std@@@std@@$0A@@tr1@std@@@stdext@@0ABU123@@Z ; std::fill<stdext::_Hash<std::tr1::_Umap_traits<unsigned int,unsigned int,stdext::_Hash_compare<unsigned int,std::tr1::hash<unsigned int>,std::equal_to<unsigned int> >,std::allocator<std::pair<unsigned int const ,unsigned int> >,0> >::_List_position *,stdext::_Hash<std::tr1::_Umap_traits<unsigned int,unsigned int,stdext::_Hash_compare<unsigned int,std::tr1::hash<unsigned int>,std::equal_to<unsigned int> >,std::allocator<std::pair<unsigned int const ,unsigned int> >,0> >::_List_position>
PUBLIC	??$_Move_cat@PAU_List_position@?$_Hash@V?$_Umap_traits@IIV?$_Hash_compare@IV?$hash@I@tr1@std@@U?$equal_to@I@3@@stdext@@V?$allocator@U?$pair@$$CBII@std@@@std@@$0A@@tr1@std@@@stdext@@@std@@YA?AU_Undefined_move_tag@0@ABQAU_List_position@?$_Hash@V?$_Umap_traits@IIV?$_Hash_compare@IV?$hash@I@tr1@std@@U?$equal_to@I@3@@stdext@@V?$allocator@U?$pair@$$CBII@std@@@std@@$0A@@tr1@std@@@stdext@@@Z ; std::_Move_cat<stdext::_Hash<std::tr1::_Umap_traits<unsigned int,unsigned int,stdext::_Hash_compare<unsigned int,std::tr1::hash<unsigned int>,std::equal_to<unsigned int> >,std::allocator<std::pair<unsigned int const ,unsigned int> >,0> >::_List_position *>
PUBLIC	??$_Copy_backward_opt@PAU_List_position@?$_Hash@V?$_Umap_traits@IIV?$_Hash_compare@IV?$hash@I@tr1@std@@U?$equal_to@I@3@@stdext@@V?$allocator@U?$pair@$$CBII@std@@@std@@$0A@@tr1@std@@@stdext@@PAU123@Uforward_iterator_tag@std@@@std@@YAPAU_List_position@?$_Hash@V?$_Umap_traits@IIV?$_Hash_compare@IV?$hash@I@tr1@std@@U?$equal_to@I@3@@stdext@@V?$allocator@U?$pair@$$CBII@std@@@std@@$0A@@tr1@std@@@stdext@@PAU123@00Uforward_iterator_tag@0@U_Nonscalar_ptr_iterator_tag@0@U_Range_checked_iterator_tag@0@@Z ; std::_Copy_backward_opt<stdext::_Hash<std::tr1::_Umap_traits<unsigned int,unsigned int,stdext::_Hash_compare<unsigned int,std::tr1::hash<unsigned int>,std::equal_to<unsigned int> >,std::allocator<std::pair<unsigned int const ,unsigned int> >,0> >::_List_position *,stdext::_Hash<std::tr1::_Umap_traits<unsigned int,unsigned int,stdext::_Hash_compare<unsigned int,std::tr1::hash<unsigned int>,std::equal_to<unsigned int> >,std::allocator<std::pair<unsigned int const ,unsigned int> >,0> >::_List_position *,std::forward_iterator_tag>
PUBLIC	??$_Copy_backward_opt@PAU_List_position@?$_Hash@V?$_Umap_traits@IIV?$_Hash_compare@IV?$hash@I@tr1@std@@U?$equal_to@I@3@@stdext@@V?$allocator@U?$pair@$$CBII@std@@@std@@$0A@@tr1@std@@@stdext@@PAU123@@std@@YAPAU_List_position@?$_Hash@V?$_Umap_traits@IIV?$_Hash_compare@IV?$hash@I@tr1@std@@U?$equal_to@I@3@@stdext@@V?$allocator@U?$pair@$$CBII@std@@@std@@$0A@@tr1@std@@@stdext@@PAU123@00Urandom_access_iterator_tag@0@U_Nonscalar_ptr_iterator_tag@0@U_Range_checked_iterator_tag@0@@Z ; std::_Copy_backward_opt<stdext::_Hash<std::tr1::_Umap_traits<unsigned int,unsigned int,stdext::_Hash_compare<unsigned int,std::tr1::hash<unsigned int>,std::equal_to<unsigned int> >,std::allocator<std::pair<unsigned int const ,unsigned int> >,0> >::_List_position *,stdext::_Hash<std::tr1::_Umap_traits<unsigned int,unsigned int,stdext::_Hash_compare<unsigned int,std::tr1::hash<unsigned int>,std::equal_to<unsigned int> >,std::allocator<std::pair<unsigned int const ,unsigned int> >,0> >::_List_position *>
PUBLIC	??$_Move_backward_opt@PAU_List_position@?$_Hash@V?$_Umap_traits@IIV?$_Hash_compare@IV?$hash@I@tr1@std@@U?$equal_to@I@3@@stdext@@V?$allocator@U?$pair@$$CBII@std@@@std@@$0A@@tr1@std@@@stdext@@PAU123@Urandom_access_iterator_tag@std@@U_Undefined_move_tag@5@@std@@YAPAU_List_position@?$_Hash@V?$_Umap_traits@IIV?$_Hash_compare@IV?$hash@I@tr1@std@@U?$equal_to@I@3@@stdext@@V?$allocator@U?$pair@$$CBII@std@@@std@@$0A@@tr1@std@@@stdext@@PAU123@00Urandom_access_iterator_tag@0@U_Undefined_move_tag@0@U_Range_checked_iterator_tag@0@@Z ; std::_Move_backward_opt<stdext::_Hash<std::tr1::_Umap_traits<unsigned int,unsigned int,stdext::_Hash_compare<unsigned int,std::tr1::hash<unsigned int>,std::equal_to<unsigned int> >,std::allocator<std::pair<unsigned int const ,unsigned int> >,0> >::_List_position *,stdext::_Hash<std::tr1::_Umap_traits<unsigned int,unsigned int,stdext::_Hash_compare<unsigned int,std::tr1::hash<unsigned int>,std::equal_to<unsigned int> >,std::allocator<std::pair<unsigned int const ,unsigned int> >,0> >::_List_position *,std::random_access_iterator_tag,std::_Undefined_move_tag>
PUBLIC	??$_Unchecked_move_backward@PAU_List_position@?$_Hash@V?$_Umap_traits@IIV?$_Hash_compare@IV?$hash@I@tr1@std@@U?$equal_to@I@3@@stdext@@V?$allocator@U?$pair@$$CBII@std@@@std@@$0A@@tr1@std@@@stdext@@PAU123@@stdext@@YAPAU_List_position@?$_Hash@V?$_Umap_traits@IIV?$_Hash_compare@IV?$hash@I@tr1@std@@U?$equal_to@I@3@@stdext@@V?$allocator@U?$pair@$$CBII@std@@@std@@$0A@@tr1@std@@@0@PAU120@00@Z ; stdext::_Unchecked_move_backward<stdext::_Hash<std::tr1::_Umap_traits<unsigned int,unsigned int,stdext::_Hash_compare<unsigned int,std::tr1::hash<unsigned int>,std::equal_to<unsigned int> >,std::allocator<std::pair<unsigned int const ,unsigned int> >,0> >::_List_position *,stdext::_Hash<std::tr1::_Umap_traits<unsigned int,unsigned int,stdext::_Hash_compare<unsigned int,std::tr1::hash<unsigned int>,std::equal_to<unsigned int> >,std::allocator<std::pair<unsigned int const ,unsigned int> >,0> >::_List_position *>
PUBLIC	?_Insert_n@?$vector@U_List_position@?$_Hash@V?$_Umap_traits@IIV?$_Hash_compare@IV?$hash@I@tr1@std@@U?$equal_to@I@3@@stdext@@V?$allocator@U?$pair@$$CBII@std@@@std@@$0A@@tr1@std@@@stdext@@V?$allocator@U_List_position@?$_Hash@V?$_Umap_traits@IIV?$_Hash_compare@IV?$hash@I@tr1@std@@U?$equal_to@I@3@@stdext@@V?$allocator@U?$pair@$$CBII@std@@@std@@$0A@@tr1@std@@@stdext@@@std@@@std@@IAEXV?$_Vector_const_iterator@U_List_position@?$_Hash@V?$_Umap_traits@IIV?$_Hash_compare@IV?$hash@I@tr1@std@@U?$equal_to@I@3@@stdext@@V?$allocator@U?$pair@$$CBII@std@@@std@@$0A@@tr1@std@@@stdext@@V?$allocator@U_List_position@?$_Hash@V?$_Umap_traits@IIV?$_Hash_compare@IV?$hash@I@tr1@std@@U?$equal_to@I@3@@stdext@@V?$allocator@U?$pair@$$CBII@std@@@std@@$0A@@tr1@std@@@stdext@@@std@@@2@IABU_List_position@?$_Hash@V?$_Umap_traits@IIV?$_Hash_compare@IV?$hash@I@tr1@std@@U?$equal_to@I@3@@stdext@@V?$allocator@U?$pair@$$CBII@std@@@std@@$0A@@tr1@std@@@stdext@@@Z ; std::vector<stdext::_Hash<std::tr1::_Umap_traits<unsigned int,unsigned int,stdext::_Hash_compare<unsigned int,std::tr1::hash<unsigned int>,std::equal_to<unsigned int> >,std::allocator<std::pair<unsigned int const ,unsigned int> >,0> >::_List_position,std::allocator<stdext::_Hash<std::tr1::_Umap_traits<unsigned int,unsigned int,stdext::_Hash_compare<unsigned int,std::tr1::hash<unsigned int>,std::equal_to<unsigned int> >,std::allocator<std::pair<unsigned int const ,unsigned int> >,0> >::_List_position> >::_Insert_n
PUBLIC	?insert@?$vector@U_List_position@?$_Hash@V?$_Umap_traits@IIV?$_Hash_compare@IV?$hash@I@tr1@std@@U?$equal_to@I@3@@stdext@@V?$allocator@U?$pair@$$CBII@std@@@std@@$0A@@tr1@std@@@stdext@@V?$allocator@U_List_position@?$_Hash@V?$_Umap_traits@IIV?$_Hash_compare@IV?$hash@I@tr1@std@@U?$equal_to@I@3@@stdext@@V?$allocator@U?$pair@$$CBII@std@@@std@@$0A@@tr1@std@@@stdext@@@std@@@std@@QAEXV?$_Vector_const_iterator@U_List_position@?$_Hash@V?$_Umap_traits@IIV?$_Hash_compare@IV?$hash@I@tr1@std@@U?$equal_to@I@3@@stdext@@V?$allocator@U?$pair@$$CBII@std@@@std@@$0A@@tr1@std@@@stdext@@V?$allocator@U_List_position@?$_Hash@V?$_Umap_traits@IIV?$_Hash_compare@IV?$hash@I@tr1@std@@U?$equal_to@I@3@@stdext@@V?$allocator@U?$pair@$$CBII@std@@@std@@$0A@@tr1@std@@@stdext@@@std@@@2@IABU_List_position@?$_Hash@V?$_Umap_traits@IIV?$_Hash_compare@IV?$hash@I@tr1@std@@U?$equal_to@I@3@@stdext@@V?$allocator@U?$pair@$$CBII@std@@@std@@$0A@@tr1@std@@@stdext@@@Z ; std::vector<stdext::_Hash<std::tr1::_Umap_traits<unsigned int,unsigned int,stdext::_Hash_compare<unsigned int,std::tr1::hash<unsigned int>,std::equal_to<unsigned int> >,std::allocator<std::pair<unsigned int const ,unsigned int> >,0> >::_List_position,std::allocator<stdext::_Hash<std::tr1::_Umap_traits<unsigned int,unsigned int,stdext::_Hash_compare<unsigned int,std::tr1::hash<unsigned int>,std::equal_to<unsigned int> >,std::allocator<std::pair<unsigned int const ,unsigned int> >,0> >::_List_position> >::insert
PUBLIC	??0?$_Iterator_with_base@Urandom_access_iterator_tag@std@@U_List_position@?$_Hash@V?$_Umap_traits@IIV?$_Hash_compare@IV?$hash@I@tr1@std@@U?$equal_to@I@3@@stdext@@V?$allocator@U?$pair@$$CBII@std@@@std@@$0A@@tr1@std@@@stdext@@HPBU345@ABU345@V_Iterator_base_aux@2@@std@@QAE@XZ ; std::_Iterator_with_base<std::random_access_iterator_tag,stdext::_Hash<std::tr1::_Umap_traits<unsigned int,unsigned int,stdext::_Hash_compare<unsigned int,std::tr1::hash<unsigned int>,std::equal_to<unsigned int> >,std::allocator<std::pair<unsigned int const ,unsigned int> >,0> >::_List_position,int,stdext::_Hash<std::tr1::_Umap_traits<unsigned int,unsigned int,stdext::_Hash_compare<unsigned int,std::tr1::hash<unsigned int>,std::equal_to<unsigned int> >,std::allocator<std::pair<unsigned int const ,unsigned int> >,0> >::_List_position const *,stdext::_Hash<std::tr1::_Umap_traits<unsigned int,unsigned int,stdext::_Hash_compare<unsigned int,std::tr1::hash<unsigned int>,std::equal_to<unsigned int> >,std::allocator<std::pair<unsigned int const ,unsigned int> >,0> >::_List_position const &,std::_Iterator_base_aux>::_Iterator_with_base<std::random_access_iterator_tag,stdext::_Hash<std::tr1::_Umap_traits<unsigned int,unsigned int,stdext::_Hash_compare<unsigned int,std::tr1::hash<unsigned int>,std::equal_to<unsigned int> >,std::allocator<std::pair<unsigned int const ,unsigned int> >,0> >::_List_position,int,stdext::_Hash<std::tr1::_Umap_traits<unsigned int,unsigned int,stdext::_Hash_compare<unsigned int,std::tr1::hash<unsigned int>,std::equal_to<unsigned int> >,std::allocator<std::pair<unsigned int const ,unsigned int> >,0> >::_List_position const *,stdext::_Hash<std::tr1::_Umap_traits<unsigned int,unsigned int,stdext::_Hash_compare<unsigned int,std::tr1::hash<unsigned int>,std::equal_to<unsigned int> >,std::allocator<std::pair<unsigned int const ,unsigned int> >,0> >::_List_position const &,std::_Iterator_base_aux>
PUBLIC	??0?$_Ranit@U_List_position@?$_Hash@V?$_Umap_traits@IIV?$_Hash_compare@IV?$hash@I@tr1@std@@U?$equal_to@I@3@@stdext@@V?$allocator@U?$pair@$$CBII@std@@@std@@$0A@@tr1@std@@@stdext@@HPBU123@ABU123@@std@@QAE@XZ ; std::_Ranit<stdext::_Hash<std::tr1::_Umap_traits<unsigned int,unsigned int,stdext::_Hash_compare<unsigned int,std::tr1::hash<unsigned int>,std::equal_to<unsigned int> >,std::allocator<std::pair<unsigned int const ,unsigned int> >,0> >::_List_position,int,stdext::_Hash<std::tr1::_Umap_traits<unsigned int,unsigned int,stdext::_Hash_compare<unsigned int,std::tr1::hash<unsigned int>,std::equal_to<unsigned int> >,std::allocator<std::pair<unsigned int const ,unsigned int> >,0> >::_List_position const *,stdext::_Hash<std::tr1::_Umap_traits<unsigned int,unsigned int,stdext::_Hash_compare<unsigned int,std::tr1::hash<unsigned int>,std::equal_to<unsigned int> >,std::allocator<std::pair<unsigned int const ,unsigned int> >,0> >::_List_position const &>::_Ranit<stdext::_Hash<std::tr1::_Umap_traits<unsigned int,unsigned int,stdext::_Hash_compare<unsigned int,std::tr1::hash<unsigned int>,std::equal_to<unsigned int> >,std::allocator<std::pair<unsigned int const ,unsigned int> >,0> >::_List_position,int,stdext::_Hash<std::tr1::_Umap_traits<unsigned int,unsigned int,stdext::_Hash_compare<unsigned int,std::tr1::hash<unsigned int>,std::equal_to<unsigned int> >,std::allocator<std::pair<unsigned int const ,unsigned int> >,0> >::_List_position const *,stdext::_Hash<std::tr1::_Umap_traits<unsigned int,unsigned int,stdext::_Hash_compare<unsigned int,std::tr1::hash<unsigned int>,std::equal_to<unsigned int> >,std::allocator<std::pair<unsigned int const ,unsigned int> >,0> >::_List_position const &>
PUBLIC	??0?$_Vector_const_iterator@U_List_position@?$_Hash@V?$_Umap_traits@IIV?$_Hash_compare@IV?$hash@I@tr1@std@@U?$equal_to@I@3@@stdext@@V?$allocator@U?$pair@$$CBII@std@@@std@@$0A@@tr1@std@@@stdext@@V?$allocator@U_List_position@?$_Hash@V?$_Umap_traits@IIV?$_Hash_compare@IV?$hash@I@tr1@std@@U?$equal_to@I@3@@stdext@@V?$allocator@U?$pair@$$CBII@std@@@std@@$0A@@tr1@std@@@stdext@@@std@@@std@@QAE@PAU_List_position@?$_Hash@V?$_Umap_traits@IIV?$_Hash_compare@IV?$hash@I@tr1@std@@U?$equal_to@I@3@@stdext@@V?$allocator@U?$pair@$$CBII@std@@@std@@$0A@@tr1@std@@@stdext@@PBV_Container_base_aux@1@@Z ; std::_Vector_const_iterator<stdext::_Hash<std::tr1::_Umap_traits<unsigned int,unsigned int,stdext::_Hash_compare<unsigned int,std::tr1::hash<unsigned int>,std::equal_to<unsigned int> >,std::allocator<std::pair<unsigned int const ,unsigned int> >,0> >::_List_position,std::allocator<stdext::_Hash<std::tr1::_Umap_traits<unsigned int,unsigned int,stdext::_Hash_compare<unsigned int,std::tr1::hash<unsigned int>,std::equal_to<unsigned int> >,std::allocator<std::pair<unsigned int const ,unsigned int> >,0> >::_List_position> >::_Vector_const_iterator<stdext::_Hash<std::tr1::_Umap_traits<unsigned int,unsigned int,stdext::_Hash_compare<unsigned int,std::tr1::hash<unsigned int>,std::equal_to<unsigned int> >,std::allocator<std::pair<unsigned int const ,unsigned int> >,0> >::_List_position,std::allocator<stdext::_Hash<std::tr1::_Umap_traits<unsigned int,unsigned int,stdext::_Hash_compare<unsigned int,std::tr1::hash<unsigned int>,std::equal_to<unsigned int> >,std::allocator<std::pair<unsigned int const ,unsigned int> >,0> >::_List_position> >
PUBLIC	??0?$_Vector_iterator@U_List_position@?$_Hash@V?$_Umap_traits@IIV?$_Hash_compare@IV?$hash@I@tr1@std@@U?$equal_to@I@3@@stdext@@V?$allocator@U?$pair@$$CBII@std@@@std@@$0A@@tr1@std@@@stdext@@V?$allocator@U_List_position@?$_Hash@V?$_Umap_traits@IIV?$_Hash_compare@IV?$hash@I@tr1@std@@U?$equal_to@I@3@@stdext@@V?$allocator@U?$pair@$$CBII@std@@@std@@$0A@@tr1@std@@@stdext@@@std@@@std@@QAE@PAU_List_position@?$_Hash@V?$_Umap_traits@IIV?$_Hash_compare@IV?$hash@I@tr1@std@@U?$equal_to@I@3@@stdext@@V?$allocator@U?$pair@$$CBII@std@@@std@@$0A@@tr1@std@@@stdext@@PBV_Container_base_aux@1@@Z ; std::_Vector_iterator<stdext::_Hash<std::tr1::_Umap_traits<unsigned int,unsigned int,stdext::_Hash_compare<unsigned int,std::tr1::hash<unsigned int>,std::equal_to<unsigned int> >,std::allocator<std::pair<unsigned int const ,unsigned int> >,0> >::_List_position,std::allocator<stdext::_Hash<std::tr1::_Umap_traits<unsigned int,unsigned int,stdext::_Hash_compare<unsigned int,std::tr1::hash<unsigned int>,std::equal_to<unsigned int> >,std::allocator<std::pair<unsigned int const ,unsigned int> >,0> >::_List_position> >::_Vector_iterator<stdext::_Hash<std::tr1::_Umap_traits<unsigned int,unsigned int,stdext::_Hash_compare<unsigned int,std::tr1::hash<unsigned int>,std::equal_to<unsigned int> >,std::allocator<std::pair<unsigned int const ,unsigned int> >,0> >::_List_position,std::allocator<stdext::_Hash<std::tr1::_Umap_traits<unsigned int,unsigned int,stdext::_Hash_compare<unsigned int,std::tr1::hash<unsigned int>,std::equal_to<unsigned int> >,std::allocator<std::pair<unsigned int const ,unsigned int> >,0> >::_List_position> >
PUBLIC	?_Make_iter@?$vector@U_List_position@?$_Hash@V?$_Umap_traits@IIV?$_Hash_compare@IV?$hash@I@tr1@std@@U?$equal_to@I@3@@stdext@@V?$allocator@U?$pair@$$CBII@std@@@std@@$0A@@tr1@std@@@stdext@@V?$allocator@U_List_position@?$_Hash@V?$_Umap_traits@IIV?$_Hash_compare@IV?$hash@I@tr1@std@@U?$equal_to@I@3@@stdext@@V?$allocator@U?$pair@$$CBII@std@@@std@@$0A@@tr1@std@@@stdext@@@std@@@std@@QBE?AV?$_Vector_iterator@U_List_position@?$_Hash@V?$_Umap_traits@IIV?$_Hash_compare@IV?$hash@I@tr1@std@@U?$equal_to@I@3@@stdext@@V?$allocator@U?$pair@$$CBII@std@@@std@@$0A@@tr1@std@@@stdext@@V?$allocator@U_List_position@?$_Hash@V?$_Umap_traits@IIV?$_Hash_compare@IV?$hash@I@tr1@std@@U?$equal_to@I@3@@stdext@@V?$allocator@U?$pair@$$CBII@std@@@std@@$0A@@tr1@std@@@stdext@@@std@@@2@V?$_Vector_const_iterator@U_List_position@?$_Hash@V?$_Umap_traits@IIV?$_Hash_compare@IV?$hash@I@tr1@std@@U?$equal_to@I@3@@stdext@@V?$allocator@U?$pair@$$CBII@std@@@std@@$0A@@tr1@std@@@stdext@@V?$allocator@U_List_position@?$_Hash@V?$_Umap_traits@IIV?$_Hash_compare@IV?$hash@I@tr1@std@@U?$equal_to@I@3@@stdext@@V?$allocator@U?$pair@$$CBII@std@@@std@@$0A@@tr1@std@@@stdext@@@std@@@2@@Z ; std::vector<stdext::_Hash<std::tr1::_Umap_traits<unsigned int,unsigned int,stdext::_Hash_compare<unsigned int,std::tr1::hash<unsigned int>,std::equal_to<unsigned int> >,std::allocator<std::pair<unsigned int const ,unsigned int> >,0> >::_List_position,std::allocator<stdext::_Hash<std::tr1::_Umap_traits<unsigned int,unsigned int,stdext::_Hash_compare<unsigned int,std::tr1::hash<unsigned int>,std::equal_to<unsigned int> >,std::allocator<std::pair<unsigned int const ,unsigned int> >,0> >::_List_position> >::_Make_iter
PUBLIC	??8?$_Vector_const_iterator@U_List_position@?$_Hash@V?$_Umap_traits@IIV?$_Hash_compare@IV?$hash@I@tr1@std@@U?$equal_to@I@3@@stdext@@V?$allocator@U?$pair@$$CBII@std@@@std@@$0A@@tr1@std@@@stdext@@V?$allocator@U_List_position@?$_Hash@V?$_Umap_traits@IIV?$_Hash_compare@IV?$hash@I@tr1@std@@U?$equal_to@I@3@@stdext@@V?$allocator@U?$pair@$$CBII@std@@@std@@$0A@@tr1@std@@@stdext@@@std@@@std@@QBE_NABV01@@Z ; std::_Vector_const_iterator<stdext::_Hash<std::tr1::_Umap_traits<unsigned int,unsigned int,stdext::_Hash_compare<unsigned int,std::tr1::hash<unsigned int>,std::equal_to<unsigned int> >,std::allocator<std::pair<unsigned int const ,unsigned int> >,0> >::_List_position,std::allocator<stdext::_Hash<std::tr1::_Umap_traits<unsigned int,unsigned int,stdext::_Hash_compare<unsigned int,std::tr1::hash<unsigned int>,std::equal_to<unsigned int> >,std::allocator<std::pair<unsigned int const ,unsigned int> >,0> >::_List_position> >::operator==
PUBLIC	??9?$_Vector_const_iterator@U_List_position@?$_Hash@V?$_Umap_traits@IIV?$_Hash_compare@IV?$hash@I@tr1@std@@U?$equal_to@I@3@@stdext@@V?$allocator@U?$pair@$$CBII@std@@@std@@$0A@@tr1@std@@@stdext@@V?$allocator@U_List_position@?$_Hash@V?$_Umap_traits@IIV?$_Hash_compare@IV?$hash@I@tr1@std@@U?$equal_to@I@3@@stdext@@V?$allocator@U?$pair@$$CBII@std@@@std@@$0A@@tr1@std@@@stdext@@@std@@@std@@QBE_NABV01@@Z ; std::_Vector_const_iterator<stdext::_Hash<std::tr1::_Umap_traits<unsigned int,unsigned int,stdext::_Hash_compare<unsigned int,std::tr1::hash<unsigned int>,std::equal_to<unsigned int> >,std::allocator<std::pair<unsigned int const ,unsigned int> >,0> >::_List_position,std::allocator<stdext::_Hash<std::tr1::_Umap_traits<unsigned int,unsigned int,stdext::_Hash_compare<unsigned int,std::tr1::hash<unsigned int>,std::equal_to<unsigned int> >,std::allocator<std::pair<unsigned int const ,unsigned int> >,0> >::_List_position> >::operator!=
PUBLIC	??$_Iter_random@PAU_List_position@?$_Hash@V?$_Umap_traits@IIV?$_Hash_compare@IV?$hash@I@tr1@std@@U?$equal_to@I@3@@stdext@@V?$allocator@U?$pair@$$CBII@std@@@std@@$0A@@tr1@std@@@stdext@@PAU123@@std@@YA?AUrandom_access_iterator_tag@0@ABQAU_List_position@?$_Hash@V?$_Umap_traits@IIV?$_Hash_compare@IV?$hash@I@tr1@std@@U?$equal_to@I@3@@stdext@@V?$allocator@U?$pair@$$CBII@std@@@std@@$0A@@tr1@std@@@stdext@@0@Z ; std::_Iter_random<stdext::_Hash<std::tr1::_Umap_traits<unsigned int,unsigned int,stdext::_Hash_compare<unsigned int,std::tr1::hash<unsigned int>,std::equal_to<unsigned int> >,std::allocator<std::pair<unsigned int const ,unsigned int> >,0> >::_List_position *,stdext::_Hash<std::tr1::_Umap_traits<unsigned int,unsigned int,stdext::_Hash_compare<unsigned int,std::tr1::hash<unsigned int>,std::equal_to<unsigned int> >,std::allocator<std::pair<unsigned int const ,unsigned int> >,0> >::_List_position *>
PUBLIC	??$_Checked_base@PAU_List_position@?$_Hash@V?$_Umap_traits@IIV?$_Hash_compare@IV?$hash@I@tr1@std@@U?$equal_to@I@3@@stdext@@V?$allocator@U?$pair@$$CBII@std@@@std@@$0A@@tr1@std@@@stdext@@@std@@YAPAU_List_position@?$_Hash@V?$_Umap_traits@IIV?$_Hash_compare@IV?$hash@I@tr1@std@@U?$equal_to@I@3@@stdext@@V?$allocator@U?$pair@$$CBII@std@@@std@@$0A@@tr1@std@@@stdext@@AAPAU123@U_Unchanged_checked_iterator_base_type_tag@0@@Z ; std::_Checked_base<stdext::_Hash<std::tr1::_Umap_traits<unsigned int,unsigned int,stdext::_Hash_compare<unsigned int,std::tr1::hash<unsigned int>,std::equal_to<unsigned int> >,std::allocator<std::pair<unsigned int const ,unsigned int> >,0> >::_List_position *>
PUBLIC	??$_Checked_base@PAU_List_position@?$_Hash@V?$_Umap_traits@IIV?$_Hash_compare@IV?$hash@I@tr1@std@@U?$equal_to@I@3@@stdext@@V?$allocator@U?$pair@$$CBII@std@@@std@@$0A@@tr1@std@@@stdext@@@std@@YAPAU_List_position@?$_Hash@V?$_Umap_traits@IIV?$_Hash_compare@IV?$hash@I@tr1@std@@U?$equal_to@I@3@@stdext@@V?$allocator@U?$pair@$$CBII@std@@@std@@$0A@@tr1@std@@@stdext@@AAPAU123@@Z ; std::_Checked_base<stdext::_Hash<std::tr1::_Umap_traits<unsigned int,unsigned int,stdext::_Hash_compare<unsigned int,std::tr1::hash<unsigned int>,std::equal_to<unsigned int> >,std::allocator<std::pair<unsigned int const ,unsigned int> >,0> >::_List_position *>
PUBLIC	??$_Copy_opt@PAU_List_position@?$_Hash@V?$_Umap_traits@IIV?$_Hash_compare@IV?$hash@I@tr1@std@@U?$equal_to@I@3@@stdext@@V?$allocator@U?$pair@$$CBII@std@@@std@@$0A@@tr1@std@@@stdext@@PAU123@Uforward_iterator_tag@std@@@std@@YAPAU_List_position@?$_Hash@V?$_Umap_traits@IIV?$_Hash_compare@IV?$hash@I@tr1@std@@U?$equal_to@I@3@@stdext@@V?$allocator@U?$pair@$$CBII@std@@@std@@$0A@@tr1@std@@@stdext@@PAU123@00Uforward_iterator_tag@0@U_Nonscalar_ptr_iterator_tag@0@U_Range_checked_iterator_tag@0@@Z ; std::_Copy_opt<stdext::_Hash<std::tr1::_Umap_traits<unsigned int,unsigned int,stdext::_Hash_compare<unsigned int,std::tr1::hash<unsigned int>,std::equal_to<unsigned int> >,std::allocator<std::pair<unsigned int const ,unsigned int> >,0> >::_List_position *,stdext::_Hash<std::tr1::_Umap_traits<unsigned int,unsigned int,stdext::_Hash_compare<unsigned int,std::tr1::hash<unsigned int>,std::equal_to<unsigned int> >,std::allocator<std::pair<unsigned int const ,unsigned int> >,0> >::_List_position *,std::forward_iterator_tag>
PUBLIC	??$_Copy_opt@PAU_List_position@?$_Hash@V?$_Umap_traits@IIV?$_Hash_compare@IV?$hash@I@tr1@std@@U?$equal_to@I@3@@stdext@@V?$allocator@U?$pair@$$CBII@std@@@std@@$0A@@tr1@std@@@stdext@@PAU123@@std@@YAPAU_List_position@?$_Hash@V?$_Umap_traits@IIV?$_Hash_compare@IV?$hash@I@tr1@std@@U?$equal_to@I@3@@stdext@@V?$allocator@U?$pair@$$CBII@std@@@std@@$0A@@tr1@std@@@stdext@@PAU123@00Urandom_access_iterator_tag@0@U_Nonscalar_ptr_iterator_tag@0@U_Range_checked_iterator_tag@0@@Z ; std::_Copy_opt<stdext::_Hash<std::tr1::_Umap_traits<unsigned int,unsigned int,stdext::_Hash_compare<unsigned int,std::tr1::hash<unsigned int>,std::equal_to<unsigned int> >,std::allocator<std::pair<unsigned int const ,unsigned int> >,0> >::_List_position *,stdext::_Hash<std::tr1::_Umap_traits<unsigned int,unsigned int,stdext::_Hash_compare<unsigned int,std::tr1::hash<unsigned int>,std::equal_to<unsigned int> >,std::allocator<std::pair<unsigned int const ,unsigned int> >,0> >::_List_position *>
PUBLIC	??$unchecked_copy@PAU_List_position@?$_Hash@V?$_Umap_traits@IIV?$_Hash_compare@IV?$hash@I@tr1@std@@U?$equal_to@I@3@@stdext@@V?$allocator@U?$pair@$$CBII@std@@@std@@$0A@@tr1@std@@@stdext@@PAU123@@stdext@@YAPAU_List_position@?$_Hash@V?$_Umap_traits@IIV?$_Hash_compare@IV?$hash@I@tr1@std@@U?$equal_to@I@3@@stdext@@V?$allocator@U?$pair@$$CBII@std@@@std@@$0A@@tr1@std@@@0@PAU120@00@Z ; stdext::unchecked_copy<stdext::_Hash<std::tr1::_Umap_traits<unsigned int,unsigned int,stdext::_Hash_compare<unsigned int,std::tr1::hash<unsigned int>,std::equal_to<unsigned int> >,std::allocator<std::pair<unsigned int const ,unsigned int> >,0> >::_List_position *,stdext::_Hash<std::tr1::_Umap_traits<unsigned int,unsigned int,stdext::_Hash_compare<unsigned int,std::tr1::hash<unsigned int>,std::equal_to<unsigned int> >,std::allocator<std::pair<unsigned int const ,unsigned int> >,0> >::_List_position *>
PUBLIC	?erase@?$vector@U_List_position@?$_Hash@V?$_Umap_traits@IIV?$_Hash_compare@IV?$hash@I@tr1@std@@U?$equal_to@I@3@@stdext@@V?$allocator@U?$pair@$$CBII@std@@@std@@$0A@@tr1@std@@@stdext@@V?$allocator@U_List_position@?$_Hash@V?$_Umap_traits@IIV?$_Hash_compare@IV?$hash@I@tr1@std@@U?$equal_to@I@3@@stdext@@V?$allocator@U?$pair@$$CBII@std@@@std@@$0A@@tr1@std@@@stdext@@@std@@@std@@QAE?AV?$_Vector_iterator@U_List_position@?$_Hash@V?$_Umap_traits@IIV?$_Hash_compare@IV?$hash@I@tr1@std@@U?$equal_to@I@3@@stdext@@V?$allocator@U?$pair@$$CBII@std@@@std@@$0A@@tr1@std@@@stdext@@V?$allocator@U_List_position@?$_Hash@V?$_Umap_traits@IIV?$_Hash_compare@IV?$hash@I@tr1@std@@U?$equal_to@I@3@@stdext@@V?$allocator@U?$pair@$$CBII@std@@@std@@$0A@@tr1@std@@@stdext@@@std@@@2@V?$_Vector_const_iterator@U_List_position@?$_Hash@V?$_Umap_traits@IIV?$_Hash_compare@IV?$hash@I@tr1@std@@U?$equal_to@I@3@@stdext@@V?$allocator@U?$pair@$$CBII@std@@@std@@$0A@@tr1@std@@@stdext@@V?$allocator@U_List_position@?$_Hash@V?$_Umap_traits@IIV?$_Hash_compare@IV?$hash@I@tr1@std@@U?$equal_to@I@3@@stdext@@V?$allocator@U?$pair@$$CBII@std@@@std@@$0A@@tr1@std@@@stdext@@@std@@@2@0@Z ; std::vector<stdext::_Hash<std::tr1::_Umap_traits<unsigned int,unsigned int,stdext::_Hash_compare<unsigned int,std::tr1::hash<unsigned int>,std::equal_to<unsigned int> >,std::allocator<std::pair<unsigned int const ,unsigned int> >,0> >::_List_position,std::allocator<stdext::_Hash<std::tr1::_Umap_traits<unsigned int,unsigned int,stdext::_Hash_compare<unsigned int,std::tr1::hash<unsigned int>,std::equal_to<unsigned int> >,std::allocator<std::pair<unsigned int const ,unsigned int> >,0> >::_List_position> >::erase
PUBLIC	?_Assign_n@?$vector@U_List_position@?$_Hash@V?$_Umap_traits@IIV?$_Hash_compare@IV?$hash@I@tr1@std@@U?$equal_to@I@3@@stdext@@V?$allocator@U?$pair@$$CBII@std@@@std@@$0A@@tr1@std@@@stdext@@V?$allocator@U_List_position@?$_Hash@V?$_Umap_traits@IIV?$_Hash_compare@IV?$hash@I@tr1@std@@U?$equal_to@I@3@@stdext@@V?$allocator@U?$pair@$$CBII@std@@@std@@$0A@@tr1@std@@@stdext@@@std@@@std@@IAEXIABU_List_position@?$_Hash@V?$_Umap_traits@IIV?$_Hash_compare@IV?$hash@I@tr1@std@@U?$equal_to@I@3@@stdext@@V?$allocator@U?$pair@$$CBII@std@@@std@@$0A@@tr1@std@@@stdext@@@Z ; std::vector<stdext::_Hash<std::tr1::_Umap_traits<unsigned int,unsigned int,stdext::_Hash_compare<unsigned int,std::tr1::hash<unsigned int>,std::equal_to<unsigned int> >,std::allocator<std::pair<unsigned int const ,unsigned int> >,0> >::_List_position,std::allocator<stdext::_Hash<std::tr1::_Umap_traits<unsigned int,unsigned int,stdext::_Hash_compare<unsigned int,std::tr1::hash<unsigned int>,std::equal_to<unsigned int> >,std::allocator<std::pair<unsigned int const ,unsigned int> >,0> >::_List_position> >::_Assign_n
PUBLIC	?assign@?$vector@U_List_position@?$_Hash@V?$_Umap_traits@IIV?$_Hash_compare@IV?$hash@I@tr1@std@@U?$equal_to@I@3@@stdext@@V?$allocator@U?$pair@$$CBII@std@@@std@@$0A@@tr1@std@@@stdext@@V?$allocator@U_List_position@?$_Hash@V?$_Umap_traits@IIV?$_Hash_compare@IV?$hash@I@tr1@std@@U?$equal_to@I@3@@stdext@@V?$allocator@U?$pair@$$CBII@std@@@std@@$0A@@tr1@std@@@stdext@@@std@@@std@@QAEXIABU_List_position@?$_Hash@V?$_Umap_traits@IIV?$_Hash_compare@IV?$hash@I@tr1@std@@U?$equal_to@I@3@@stdext@@V?$allocator@U?$pair@$$CBII@std@@@std@@$0A@@tr1@std@@@stdext@@@Z ; std::vector<stdext::_Hash<std::tr1::_Umap_traits<unsigned int,unsigned int,stdext::_Hash_compare<unsigned int,std::tr1::hash<unsigned int>,std::equal_to<unsigned int> >,std::allocator<std::pair<unsigned int const ,unsigned int> >,0> >::_List_position,std::allocator<stdext::_Hash<std::tr1::_Umap_traits<unsigned int,unsigned int,stdext::_Hash_compare<unsigned int,std::tr1::hash<unsigned int>,std::equal_to<unsigned int> >,std::allocator<std::pair<unsigned int const ,unsigned int> >,0> >::_List_position> >::assign
PUBLIC	??0?$_Const_iterator@$0A@@?$list@U?$pair@$$CBII@std@@V?$allocator@U?$pair@$$CBII@std@@@2@@std@@QAE@PAU_Node@?$_List_nod@U?$pair@$$CBII@std@@V?$allocator@U?$pair@$$CBII@std@@@2@@2@PBV12@@Z ; std::list<std::pair<unsigned int const ,unsigned int>,std::allocator<std::pair<unsigned int const ,unsigned int> > >::_Const_iterator<0>::_Const_iterator<0>
PUBLIC	??0?$_Iterator@$0A@@?$list@U?$pair@$$CBII@std@@V?$allocator@U?$pair@$$CBII@std@@@2@@std@@QAE@PAU_Node@?$_List_nod@U?$pair@$$CBII@std@@V?$allocator@U?$pair@$$CBII@std@@@2@@2@PBV12@@Z ; std::list<std::pair<unsigned int const ,unsigned int>,std::allocator<std::pair<unsigned int const ,unsigned int> > >::_Iterator<0>::_Iterator<0>
PUBLIC	??0_List_position@?$_Hash@V?$_Umap_traits@IIV?$_Hash_compare@IV?$hash@I@tr1@std@@U?$equal_to@I@3@@stdext@@V?$allocator@U?$pair@$$CBII@std@@@std@@$0A@@tr1@std@@@stdext@@QAE@V?$_Iterator@$00@?$list@U?$pair@$$CBII@std@@V?$allocator@U?$pair@$$CBII@std@@@2@@std@@@Z ; stdext::_Hash<std::tr1::_Umap_traits<unsigned int,unsigned int,stdext::_Hash_compare<unsigned int,std::tr1::hash<unsigned int>,std::equal_to<unsigned int> >,std::allocator<std::pair<unsigned int const ,unsigned int> >,0> >::_List_position::_List_position
PUBLIC	?_Init@?$_Hash@V?$_Umap_traits@IIV?$_Hash_compare@IV?$hash@I@tr1@std@@U?$equal_to@I@3@@stdext@@V?$allocator@U?$pair@$$CBII@std@@@std@@$0A@@tr1@std@@@stdext@@IAEXI@Z ; stdext::_Hash<std::tr1::_Umap_traits<unsigned int,unsigned int,stdext::_Hash_compare<unsigned int,std::tr1::hash<unsigned int>,std::equal_to<unsigned int> >,std::allocator<std::pair<unsigned int const ,unsigned int> >,0> >::_Init
PUBLIC	?clear@?$_Hash@V?$_Umap_traits@IIV?$_Hash_compare@IV?$hash@I@tr1@std@@U?$equal_to@I@3@@stdext@@V?$allocator@U?$pair@$$CBII@std@@@std@@$0A@@tr1@std@@@stdext@@QAEXXZ ; stdext::_Hash<std::tr1::_Umap_traits<unsigned int,unsigned int,stdext::_Hash_compare<unsigned int,std::tr1::hash<unsigned int>,std::equal_to<unsigned int> >,std::allocator<std::pair<unsigned int const ,unsigned int> >,0> >::clear
PUBLIC	?begin@?$vector@IV?$allocator@I@std@@@std@@QAE?AV?$_Vector_iterator@IV?$allocator@I@std@@@2@XZ ; std::vector<unsigned int,std::allocator<unsigned int> >::begin
PUBLIC	??0?$_Vector_iterator@IV?$allocator@I@std@@@std@@QAE@PAIPBV_Container_base_aux@1@@Z ; std::_Vector_iterator<unsigned int,std::allocator<unsigned int> >::_Vector_iterator<unsigned int,std::allocator<unsigned int> >
PUBLIC	?end@?$vector@IV?$allocator@I@std@@@std@@QAE?AV?$_Vector_iterator@IV?$allocator@I@std@@@2@XZ ; std::vector<unsigned int,std::allocator<unsigned int> >::end
PUBLIC	??A?$vector@IV?$allocator@I@std@@@std@@QAEAAII@Z ; std::vector<unsigned int,std::allocator<unsigned int> >::operator[]
PUBLIC	?begin@?$vector@V?$vector@U?$pair@U?$pair@_K_K@std@@U12@@std@@V?$allocator@U?$pair@U?$pair@_K_K@std@@U12@@std@@@2@@std@@V?$allocator@V?$vector@U?$pair@U?$pair@_K_K@std@@U12@@std@@V?$allocator@U?$pair@U?$pair@_K_K@std@@U12@@std@@@2@@std@@@2@@std@@QAE?AV?$_Vector_iterator@V?$vector@U?$pair@U?$pair@_K_K@std@@U12@@std@@V?$allocator@U?$pair@U?$pair@_K_K@std@@U12@@std@@@2@@std@@V?$allocator@V?$vector@U?$pair@U?$pair@_K_K@std@@U12@@std@@V?$allocator@U?$pair@U?$pair@_K_K@std@@U12@@std@@@2@@std@@@2@@2@XZ ; std::vector<std::vector<std::pair<std::pair<unsigned __int64,unsigned __int64>,std::pair<unsigned __int64,unsigned __int64> >,std::allocator<std::pair<std::pair<unsigned __int64,unsigned __int64>,std::pair<unsigned __int64,unsigned __int64> > > >,std::allocator<std::vector<std::pair<std::pair<unsigned __int64,unsigned __int64>,std::pair<unsigned __int64,unsigned __int64> >,std::allocator<std::pair<std::pair<unsigned __int64,unsigned __int64>,std::pair<unsigned __int64,unsigned __int64> > > > > >::begin
PUBLIC	??0?$_Iterator_with_base@Urandom_access_iterator_tag@std@@V?$vector@U?$pair@U?$pair@_K_K@std@@U12@@std@@V?$allocator@U?$pair@U?$pair@_K_K@std@@U12@@std@@@2@@2@HPBV32@ABV32@V_Iterator_base_aux@2@@std@@QAE@XZ ; std::_Iterator_with_base<std::random_access_iterator_tag,std::vector<std::pair<std::pair<unsigned __int64,unsigned __int64>,std::pair<unsigned __int64,unsigned __int64> >,std::allocator<std::pair<std::pair<unsigned __int64,unsigned __int64>,std::pair<unsigned __int64,unsigned __int64> > > >,int,std::vector<std::pair<std::pair<unsigned __int64,unsigned __int64>,std::pair<unsigned __int64,unsigned __int64> >,std::allocator<std::pair<std::pair<unsigned __int64,unsigned __int64>,std::pair<unsigned __int64,unsigned __int64> > > > const *,std::vector<std::pair<std::pair<unsigned __int64,unsigned __int64>,std::pair<unsigned __int64,unsigned __int64> >,std::allocator<std::pair<std::pair<unsigned __int64,unsigned __int64>,std::pair<unsigned __int64,unsigned __int64> > > > const &,std::_Iterator_base_aux>::_Iterator_with_base<std::random_access_iterator_tag,std::vector<std::pair<std::pair<unsigned __int64,unsigned __int64>,std::pair<unsigned __int64,unsigned __int64> >,std::allocator<std::pair<std::pair<unsigned __int64,unsigned __int64>,std::pair<unsigned __int64,unsigned __int64> > > >,int,std::vector<std::pair<std::pair<unsigned __int64,unsigned __int64>,std::pair<unsigned __int64,unsigned __int64> >,std::allocator<std::pair<std::pair<unsigned __int64,unsigned __int64>,std::pair<unsigned __int64,unsigned __int64> > > > const *,std::vector<std::pair<std::pair<unsigned __int64,unsigned __int64>,std::pair<unsigned __int64,unsigned __int64> >,std::allocator<std::pair<std::pair<unsigned __int64,unsigned __int64>,std::pair<unsigned __int64,unsigned __int64> > > > const &,std::_Iterator_base_aux>
PUBLIC	??0?$_Ranit@V?$vector@U?$pair@U?$pair@_K_K@std@@U12@@std@@V?$allocator@U?$pair@U?$pair@_K_K@std@@U12@@std@@@2@@std@@HPBV12@ABV12@@std@@QAE@XZ ; std::_Ranit<std::vector<std::pair<std::pair<unsigned __int64,unsigned __int64>,std::pair<unsigned __int64,unsigned __int64> >,std::allocator<std::pair<std::pair<unsigned __int64,unsigned __int64>,std::pair<unsigned __int64,unsigned __int64> > > >,int,std::vector<std::pair<std::pair<unsigned __int64,unsigned __int64>,std::pair<unsigned __int64,unsigned __int64> >,std::allocator<std::pair<std::pair<unsigned __int64,unsigned __int64>,std::pair<unsigned __int64,unsigned __int64> > > > const *,std::vector<std::pair<std::pair<unsigned __int64,unsigned __int64>,std::pair<unsigned __int64,unsigned __int64> >,std::allocator<std::pair<std::pair<unsigned __int64,unsigned __int64>,std::pair<unsigned __int64,unsigned __int64> > > > const &>::_Ranit<std::vector<std::pair<std::pair<unsigned __int64,unsigned __int64>,std::pair<unsigned __int64,unsigned __int64> >,std::allocator<std::pair<std::pair<unsigned __int64,unsigned __int64>,std::pair<unsigned __int64,unsigned __int64> > > >,int,std::vector<std::pair<std::pair<unsigned __int64,unsigned __int64>,std::pair<unsigned __int64,unsigned __int64> >,std::allocator<std::pair<std::pair<unsigned __int64,unsigned __int64>,std::pair<unsigned __int64,unsigned __int64> > > > const *,std::vector<std::pair<std::pair<unsigned __int64,unsigned __int64>,std::pair<unsigned __int64,unsigned __int64> >,std::allocator<std::pair<std::pair<unsigned __int64,unsigned __int64>,std::pair<unsigned __int64,unsigned __int64> > > > const &>
PUBLIC	??0?$_Vector_const_iterator@V?$vector@U?$pair@U?$pair@_K_K@std@@U12@@std@@V?$allocator@U?$pair@U?$pair@_K_K@std@@U12@@std@@@2@@std@@V?$allocator@V?$vector@U?$pair@U?$pair@_K_K@std@@U12@@std@@V?$allocator@U?$pair@U?$pair@_K_K@std@@U12@@std@@@2@@std@@@2@@std@@QAE@PAV?$vector@U?$pair@U?$pair@_K_K@std@@U12@@std@@V?$allocator@U?$pair@U?$pair@_K_K@std@@U12@@std@@@2@@1@PBV_Container_base_aux@1@@Z ; std::_Vector_const_iterator<std::vector<std::pair<std::pair<unsigned __int64,unsigned __int64>,std::pair<unsigned __int64,unsigned __int64> >,std::allocator<std::pair<std::pair<unsigned __int64,unsigned __int64>,std::pair<unsigned __int64,unsigned __int64> > > >,std::allocator<std::vector<std::pair<std::pair<unsigned __int64,unsigned __int64>,std::pair<unsigned __int64,unsigned __int64> >,std::allocator<std::pair<std::pair<unsigned __int64,unsigned __int64>,std::pair<unsigned __int64,unsigned __int64> > > > > >::_Vector_const_iterator<std::vector<std::pair<std::pair<unsigned __int64,unsigned __int64>,std::pair<unsigned __int64,unsigned __int64> >,std::allocator<std::pair<std::pair<unsigned __int64,unsigned __int64>,std::pair<unsigned __int64,unsigned __int64> > > >,std::allocator<std::vector<std::pair<std::pair<unsigned __int64,unsigned __int64>,std::pair<unsigned __int64,unsigned __int64> >,std::allocator<std::pair<std::pair<unsigned __int64,unsigned __int64>,std::pair<unsigned __int64,unsigned __int64> > > > > >
PUBLIC	??0?$_Vector_iterator@V?$vector@U?$pair@U?$pair@_K_K@std@@U12@@std@@V?$allocator@U?$pair@U?$pair@_K_K@std@@U12@@std@@@2@@std@@V?$allocator@V?$vector@U?$pair@U?$pair@_K_K@std@@U12@@std@@V?$allocator@U?$pair@U?$pair@_K_K@std@@U12@@std@@@2@@std@@@2@@std@@QAE@PAV?$vector@U?$pair@U?$pair@_K_K@std@@U12@@std@@V?$allocator@U?$pair@U?$pair@_K_K@std@@U12@@std@@@2@@1@PBV_Container_base_aux@1@@Z ; std::_Vector_iterator<std::vector<std::pair<std::pair<unsigned __int64,unsigned __int64>,std::pair<unsigned __int64,unsigned __int64> >,std::allocator<std::pair<std::pair<unsigned __int64,unsigned __int64>,std::pair<unsigned __int64,unsigned __int64> > > >,std::allocator<std::vector<std::pair<std::pair<unsigned __int64,unsigned __int64>,std::pair<unsigned __int64,unsigned __int64> >,std::allocator<std::pair<std::pair<unsigned __int64,unsigned __int64>,std::pair<unsigned __int64,unsigned __int64> > > > > >::_Vector_iterator<std::vector<std::pair<std::pair<unsigned __int64,unsigned __int64>,std::pair<unsigned __int64,unsigned __int64> >,std::allocator<std::pair<std::pair<unsigned __int64,unsigned __int64>,std::pair<unsigned __int64,unsigned __int64> > > >,std::allocator<std::vector<std::pair<std::pair<unsigned __int64,unsigned __int64>,std::pair<unsigned __int64,unsigned __int64> >,std::allocator<std::pair<std::pair<unsigned __int64,unsigned __int64>,std::pair<unsigned __int64,unsigned __int64> > > > > >
PUBLIC	?end@?$vector@V?$vector@U?$pair@U?$pair@_K_K@std@@U12@@std@@V?$allocator@U?$pair@U?$pair@_K_K@std@@U12@@std@@@2@@std@@V?$allocator@V?$vector@U?$pair@U?$pair@_K_K@std@@U12@@std@@V?$allocator@U?$pair@U?$pair@_K_K@std@@U12@@std@@@2@@std@@@2@@std@@QAE?AV?$_Vector_iterator@V?$vector@U?$pair@U?$pair@_K_K@std@@U12@@std@@V?$allocator@U?$pair@U?$pair@_K_K@std@@U12@@std@@@2@@std@@V?$allocator@V?$vector@U?$pair@U?$pair@_K_K@std@@U12@@std@@V?$allocator@U?$pair@U?$pair@_K_K@std@@U12@@std@@@2@@std@@@2@@2@XZ ; std::vector<std::vector<std::pair<std::pair<unsigned __int64,unsigned __int64>,std::pair<unsigned __int64,unsigned __int64> >,std::allocator<std::pair<std::pair<unsigned __int64,unsigned __int64>,std::pair<unsigned __int64,unsigned __int64> > > >,std::allocator<std::vector<std::pair<std::pair<unsigned __int64,unsigned __int64>,std::pair<unsigned __int64,unsigned __int64> >,std::allocator<std::pair<std::pair<unsigned __int64,unsigned __int64>,std::pair<unsigned __int64,unsigned __int64> > > > > >::end
PUBLIC	?begin@?$vector@U?$pair@II@std@@V?$allocator@U?$pair@II@std@@@2@@std@@QAE?AV?$_Vector_iterator@U?$pair@II@std@@V?$allocator@U?$pair@II@std@@@2@@2@XZ ; std::vector<std::pair<unsigned int,unsigned int>,std::allocator<std::pair<unsigned int,unsigned int> > >::begin
PUBLIC	??0?$_Iterator_with_base@Urandom_access_iterator_tag@std@@U?$pair@II@2@HPBU32@ABU32@V_Iterator_base_aux@2@@std@@QAE@XZ ; std::_Iterator_with_base<std::random_access_iterator_tag,std::pair<unsigned int,unsigned int>,int,std::pair<unsigned int,unsigned int> const *,std::pair<unsigned int,unsigned int> const &,std::_Iterator_base_aux>::_Iterator_with_base<std::random_access_iterator_tag,std::pair<unsigned int,unsigned int>,int,std::pair<unsigned int,unsigned int> const *,std::pair<unsigned int,unsigned int> const &,std::_Iterator_base_aux>
PUBLIC	??0?$_Ranit@U?$pair@II@std@@HPBU12@ABU12@@std@@QAE@XZ ; std::_Ranit<std::pair<unsigned int,unsigned int>,int,std::pair<unsigned int,unsigned int> const *,std::pair<unsigned int,unsigned int> const &>::_Ranit<std::pair<unsigned int,unsigned int>,int,std::pair<unsigned int,unsigned int> const *,std::pair<unsigned int,unsigned int> const &>
PUBLIC	??0?$_Vector_const_iterator@U?$pair@II@std@@V?$allocator@U?$pair@II@std@@@2@@std@@QAE@PAU?$pair@II@1@PBV_Container_base_aux@1@@Z ; std::_Vector_const_iterator<std::pair<unsigned int,unsigned int>,std::allocator<std::pair<unsigned int,unsigned int> > >::_Vector_const_iterator<std::pair<unsigned int,unsigned int>,std::allocator<std::pair<unsigned int,unsigned int> > >
PUBLIC	??0?$_Vector_iterator@U?$pair@II@std@@V?$allocator@U?$pair@II@std@@@2@@std@@QAE@PAU?$pair@II@1@PBV_Container_base_aux@1@@Z ; std::_Vector_iterator<std::pair<unsigned int,unsigned int>,std::allocator<std::pair<unsigned int,unsigned int> > >::_Vector_iterator<std::pair<unsigned int,unsigned int>,std::allocator<std::pair<unsigned int,unsigned int> > >
PUBLIC	?end@?$vector@U?$pair@II@std@@V?$allocator@U?$pair@II@std@@@2@@std@@QAE?AV?$_Vector_iterator@U?$pair@II@std@@V?$allocator@U?$pair@II@std@@@2@@2@XZ ; std::vector<std::pair<unsigned int,unsigned int>,std::allocator<std::pair<unsigned int,unsigned int> > >::end
PUBLIC	?begin@?$vector@U?$pair@U?$pair@_K_K@std@@U12@@std@@V?$allocator@U?$pair@U?$pair@_K_K@std@@U12@@std@@@2@@std@@QAE?AV?$_Vector_iterator@U?$pair@U?$pair@_K_K@std@@U12@@std@@V?$allocator@U?$pair@U?$pair@_K_K@std@@U12@@std@@@2@@2@XZ ; std::vector<std::pair<std::pair<unsigned __int64,unsigned __int64>,std::pair<unsigned __int64,unsigned __int64> >,std::allocator<std::pair<std::pair<unsigned __int64,unsigned __int64>,std::pair<unsigned __int64,unsigned __int64> > > >::begin
PUBLIC	??0?$_Iterator_with_base@Urandom_access_iterator_tag@std@@U?$pair@U?$pair@_K_K@std@@U12@@2@HPBU32@ABU32@V_Iterator_base_aux@2@@std@@QAE@XZ ; std::_Iterator_with_base<std::random_access_iterator_tag,std::pair<std::pair<unsigned __int64,unsigned __int64>,std::pair<unsigned __int64,unsigned __int64> >,int,std::pair<std::pair<unsigned __int64,unsigned __int64>,std::pair<unsigned __int64,unsigned __int64> > const *,std::pair<std::pair<unsigned __int64,unsigned __int64>,std::pair<unsigned __int64,unsigned __int64> > const &,std::_Iterator_base_aux>::_Iterator_with_base<std::random_access_iterator_tag,std::pair<std::pair<unsigned __int64,unsigned __int64>,std::pair<unsigned __int64,unsigned __int64> >,int,std::pair<std::pair<unsigned __int64,unsigned __int64>,std::pair<unsigned __int64,unsigned __int64> > const *,std::pair<std::pair<unsigned __int64,unsigned __int64>,std::pair<unsigned __int64,unsigned __int64> > const &,std::_Iterator_base_aux>
PUBLIC	??0?$_Ranit@U?$pair@U?$pair@_K_K@std@@U12@@std@@HPBU12@ABU12@@std@@QAE@XZ ; std::_Ranit<std::pair<std::pair<unsigned __int64,unsigned __int64>,std::pair<unsigned __int64,unsigned __int64> >,int,std::pair<std::pair<unsigned __int64,unsigned __int64>,std::pair<unsigned __int64,unsigned __int64> > const *,std::pair<std::pair<unsigned __int64,unsigned __int64>,std::pair<unsigned __int64,unsigned __int64> > const &>::_Ranit<std::pair<std::pair<unsigned __int64,unsigned __int64>,std::pair<unsigned __int64,unsigned __int64> >,int,std::pair<std::pair<unsigned __int64,unsigned __int64>,std::pair<unsigned __int64,unsigned __int64> > const *,std::pair<std::pair<unsigned __int64,unsigned __int64>,std::pair<unsigned __int64,unsigned __int64> > const &>
PUBLIC	??0?$_Vector_const_iterator@U?$pair@U?$pair@_K_K@std@@U12@@std@@V?$allocator@U?$pair@U?$pair@_K_K@std@@U12@@std@@@2@@std@@QAE@PAU?$pair@U?$pair@_K_K@std@@U12@@1@PBV_Container_base_aux@1@@Z ; std::_Vector_const_iterator<std::pair<std::pair<unsigned __int64,unsigned __int64>,std::pair<unsigned __int64,unsigned __int64> >,std::allocator<std::pair<std::pair<unsigned __int64,unsigned __int64>,std::pair<unsigned __int64,unsigned __int64> > > >::_Vector_const_iterator<std::pair<std::pair<unsigned __int64,unsigned __int64>,std::pair<unsigned __int64,unsigned __int64> >,std::allocator<std::pair<std::pair<unsigned __int64,unsigned __int64>,std::pair<unsigned __int64,unsigned __int64> > > >
PUBLIC	??0?$_Vector_iterator@U?$pair@U?$pair@_K_K@std@@U12@@std@@V?$allocator@U?$pair@U?$pair@_K_K@std@@U12@@std@@@2@@std@@QAE@PAU?$pair@U?$pair@_K_K@std@@U12@@1@PBV_Container_base_aux@1@@Z ; std::_Vector_iterator<std::pair<std::pair<unsigned __int64,unsigned __int64>,std::pair<unsigned __int64,unsigned __int64> >,std::allocator<std::pair<std::pair<unsigned __int64,unsigned __int64>,std::pair<unsigned __int64,unsigned __int64> > > >::_Vector_iterator<std::pair<std::pair<unsigned __int64,unsigned __int64>,std::pair<unsigned __int64,unsigned __int64> >,std::allocator<std::pair<std::pair<unsigned __int64,unsigned __int64>,std::pair<unsigned __int64,unsigned __int64> > > >
PUBLIC	?end@?$vector@U?$pair@U?$pair@_K_K@std@@U12@@std@@V?$allocator@U?$pair@U?$pair@_K_K@std@@U12@@std@@@2@@std@@QAE?AV?$_Vector_iterator@U?$pair@U?$pair@_K_K@std@@U12@@std@@V?$allocator@U?$pair@U?$pair@_K_K@std@@U12@@std@@@2@@2@XZ ; std::vector<std::pair<std::pair<unsigned __int64,unsigned __int64>,std::pair<unsigned __int64,unsigned __int64> >,std::allocator<std::pair<std::pair<unsigned __int64,unsigned __int64>,std::pair<unsigned __int64,unsigned __int64> > > >::end
PUBLIC	??8?$_Vector_const_iterator@V?$vector@U?$pair@II@std@@V?$allocator@U?$pair@II@std@@@2@@std@@V?$allocator@V?$vector@U?$pair@II@std@@V?$allocator@U?$pair@II@std@@@2@@std@@@2@@std@@QBE_NABV01@@Z ; std::_Vector_const_iterator<std::vector<std::pair<unsigned int,unsigned int>,std::allocator<std::pair<unsigned int,unsigned int> > >,std::allocator<std::vector<std::pair<unsigned int,unsigned int>,std::allocator<std::pair<unsigned int,unsigned int> > > > >::operator==
PUBLIC	??9?$_Vector_const_iterator@V?$vector@U?$pair@II@std@@V?$allocator@U?$pair@II@std@@@2@@std@@V?$allocator@V?$vector@U?$pair@II@std@@V?$allocator@U?$pair@II@std@@@2@@std@@@2@@std@@QBE_NABV01@@Z ; std::_Vector_const_iterator<std::vector<std::pair<unsigned int,unsigned int>,std::allocator<std::pair<unsigned int,unsigned int> > >,std::allocator<std::vector<std::pair<unsigned int,unsigned int>,std::allocator<std::pair<unsigned int,unsigned int> > > > >::operator!=
PUBLIC	??8?$_Vector_const_iterator@U?$pair@II@std@@V?$allocator@U?$pair@II@std@@@2@@std@@QBE_NABV01@@Z ; std::_Vector_const_iterator<std::pair<unsigned int,unsigned int>,std::allocator<std::pair<unsigned int,unsigned int> > >::operator==
PUBLIC	??9?$_Vector_const_iterator@U?$pair@II@std@@V?$allocator@U?$pair@II@std@@@2@@std@@QBE_NABV01@@Z ; std::_Vector_const_iterator<std::pair<unsigned int,unsigned int>,std::allocator<std::pair<unsigned int,unsigned int> > >::operator!=
PUBLIC	??8?$_Vector_const_iterator@V?$vector@U?$pair@U?$pair@_K_K@std@@U12@@std@@V?$allocator@U?$pair@U?$pair@_K_K@std@@U12@@std@@@2@@std@@V?$allocator@V?$vector@U?$pair@U?$pair@_K_K@std@@U12@@std@@V?$allocator@U?$pair@U?$pair@_K_K@std@@U12@@std@@@2@@std@@@2@@std@@QBE_NABV01@@Z ; std::_Vector_const_iterator<std::vector<std::pair<std::pair<unsigned __int64,unsigned __int64>,std::pair<unsigned __int64,unsigned __int64> >,std::allocator<std::pair<std::pair<unsigned __int64,unsigned __int64>,std::pair<unsigned __int64,unsigned __int64> > > >,std::allocator<std::vector<std::pair<std::pair<unsigned __int64,unsigned __int64>,std::pair<unsigned __int64,unsigned __int64> >,std::allocator<std::pair<std::pair<unsigned __int64,unsigned __int64>,std::pair<unsigned __int64,unsigned __int64> > > > > >::operator==
PUBLIC	??9?$_Vector_const_iterator@V?$vector@U?$pair@U?$pair@_K_K@std@@U12@@std@@V?$allocator@U?$pair@U?$pair@_K_K@std@@U12@@std@@@2@@std@@V?$allocator@V?$vector@U?$pair@U?$pair@_K_K@std@@U12@@std@@V?$allocator@U?$pair@U?$pair@_K_K@std@@U12@@std@@@2@@std@@@2@@std@@QBE_NABV01@@Z ; std::_Vector_const_iterator<std::vector<std::pair<std::pair<unsigned __int64,unsigned __int64>,std::pair<unsigned __int64,unsigned __int64> >,std::allocator<std::pair<std::pair<unsigned __int64,unsigned __int64>,std::pair<unsigned __int64,unsigned __int64> > > >,std::allocator<std::vector<std::pair<std::pair<unsigned __int64,unsigned __int64>,std::pair<unsigned __int64,unsigned __int64> >,std::allocator<std::pair<std::pair<unsigned __int64,unsigned __int64>,std::pair<unsigned __int64,unsigned __int64> > > > > >::operator!=
PUBLIC	??8?$_Vector_const_iterator@U?$pair@U?$pair@_K_K@std@@U12@@std@@V?$allocator@U?$pair@U?$pair@_K_K@std@@U12@@std@@@2@@std@@QBE_NABV01@@Z ; std::_Vector_const_iterator<std::pair<std::pair<unsigned __int64,unsigned __int64>,std::pair<unsigned __int64,unsigned __int64> >,std::allocator<std::pair<std::pair<unsigned __int64,unsigned __int64>,std::pair<unsigned __int64,unsigned __int64> > > >::operator==
PUBLIC	??9?$_Vector_const_iterator@U?$pair@U?$pair@_K_K@std@@U12@@std@@V?$allocator@U?$pair@U?$pair@_K_K@std@@U12@@std@@@2@@std@@QBE_NABV01@@Z ; std::_Vector_const_iterator<std::pair<std::pair<unsigned __int64,unsigned __int64>,std::pair<unsigned __int64,unsigned __int64> >,std::allocator<std::pair<std::pair<unsigned __int64,unsigned __int64>,std::pair<unsigned __int64,unsigned __int64> > > >::operator!=
PUBLIC	??D?$_Vector_const_iterator@V?$vector@U?$pair@II@std@@V?$allocator@U?$pair@II@std@@@2@@std@@V?$allocator@V?$vector@U?$pair@II@std@@V?$allocator@U?$pair@II@std@@@2@@std@@@2@@std@@QBEABV?$vector@U?$pair@II@std@@V?$allocator@U?$pair@II@std@@@2@@1@XZ ; std::_Vector_const_iterator<std::vector<std::pair<unsigned int,unsigned int>,std::allocator<std::pair<unsigned int,unsigned int> > >,std::allocator<std::vector<std::pair<unsigned int,unsigned int>,std::allocator<std::pair<unsigned int,unsigned int> > > > >::operator*
PUBLIC	??D?$_Vector_iterator@V?$vector@U?$pair@II@std@@V?$allocator@U?$pair@II@std@@@2@@std@@V?$allocator@V?$vector@U?$pair@II@std@@V?$allocator@U?$pair@II@std@@@2@@std@@@2@@std@@QBEAAV?$vector@U?$pair@II@std@@V?$allocator@U?$pair@II@std@@@2@@1@XZ ; std::_Vector_iterator<std::vector<std::pair<unsigned int,unsigned int>,std::allocator<std::pair<unsigned int,unsigned int> > >,std::allocator<std::vector<std::pair<unsigned int,unsigned int>,std::allocator<std::pair<unsigned int,unsigned int> > > > >::operator*
PUBLIC	??C?$_Vector_iterator@V?$vector@U?$pair@II@std@@V?$allocator@U?$pair@II@std@@@2@@std@@V?$allocator@V?$vector@U?$pair@II@std@@V?$allocator@U?$pair@II@std@@@2@@std@@@2@@std@@QBEPAV?$vector@U?$pair@II@std@@V?$allocator@U?$pair@II@std@@@2@@1@XZ ; std::_Vector_iterator<std::vector<std::pair<unsigned int,unsigned int>,std::allocator<std::pair<unsigned int,unsigned int> > >,std::allocator<std::vector<std::pair<unsigned int,unsigned int>,std::allocator<std::pair<unsigned int,unsigned int> > > > >::operator->
PUBLIC	??E?$_Vector_const_iterator@V?$vector@U?$pair@II@std@@V?$allocator@U?$pair@II@std@@@2@@std@@V?$allocator@V?$vector@U?$pair@II@std@@V?$allocator@U?$pair@II@std@@@2@@std@@@2@@std@@QAEAAV01@XZ ; std::_Vector_const_iterator<std::vector<std::pair<unsigned int,unsigned int>,std::allocator<std::pair<unsigned int,unsigned int> > >,std::allocator<std::vector<std::pair<unsigned int,unsigned int>,std::allocator<std::pair<unsigned int,unsigned int> > > > >::operator++
PUBLIC	??E?$_Vector_iterator@V?$vector@U?$pair@II@std@@V?$allocator@U?$pair@II@std@@@2@@std@@V?$allocator@V?$vector@U?$pair@II@std@@V?$allocator@U?$pair@II@std@@@2@@std@@@2@@std@@QAEAAV01@XZ ; std::_Vector_iterator<std::vector<std::pair<unsigned int,unsigned int>,std::allocator<std::pair<unsigned int,unsigned int> > >,std::allocator<std::vector<std::pair<unsigned int,unsigned int>,std::allocator<std::pair<unsigned int,unsigned int> > > > >::operator++
PUBLIC	??E?$_Vector_iterator@V?$vector@U?$pair@II@std@@V?$allocator@U?$pair@II@std@@@2@@std@@V?$allocator@V?$vector@U?$pair@II@std@@V?$allocator@U?$pair@II@std@@@2@@std@@@2@@std@@QAE?AV01@H@Z ; std::_Vector_iterator<std::vector<std::pair<unsigned int,unsigned int>,std::allocator<std::pair<unsigned int,unsigned int> > >,std::allocator<std::vector<std::pair<unsigned int,unsigned int>,std::allocator<std::pair<unsigned int,unsigned int> > > > >::operator++
PUBLIC	??D?$_Vector_const_iterator@U?$pair@II@std@@V?$allocator@U?$pair@II@std@@@2@@std@@QBEABU?$pair@II@1@XZ ; std::_Vector_const_iterator<std::pair<unsigned int,unsigned int>,std::allocator<std::pair<unsigned int,unsigned int> > >::operator*
PUBLIC	??D?$_Vector_iterator@U?$pair@II@std@@V?$allocator@U?$pair@II@std@@@2@@std@@QBEAAU?$pair@II@1@XZ ; std::_Vector_iterator<std::pair<unsigned int,unsigned int>,std::allocator<std::pair<unsigned int,unsigned int> > >::operator*
PUBLIC	??C?$_Vector_iterator@U?$pair@II@std@@V?$allocator@U?$pair@II@std@@@2@@std@@QBEPAU?$pair@II@1@XZ ; std::_Vector_iterator<std::pair<unsigned int,unsigned int>,std::allocator<std::pair<unsigned int,unsigned int> > >::operator->
PUBLIC	??E?$_Vector_const_iterator@U?$pair@II@std@@V?$allocator@U?$pair@II@std@@@2@@std@@QAEAAV01@XZ ; std::_Vector_const_iterator<std::pair<unsigned int,unsigned int>,std::allocator<std::pair<unsigned int,unsigned int> > >::operator++
PUBLIC	??E?$_Vector_iterator@U?$pair@II@std@@V?$allocator@U?$pair@II@std@@@2@@std@@QAEAAV01@XZ ; std::_Vector_iterator<std::pair<unsigned int,unsigned int>,std::allocator<std::pair<unsigned int,unsigned int> > >::operator++
PUBLIC	??E?$_Vector_iterator@U?$pair@II@std@@V?$allocator@U?$pair@II@std@@@2@@std@@QAE?AV01@H@Z ; std::_Vector_iterator<std::pair<unsigned int,unsigned int>,std::allocator<std::pair<unsigned int,unsigned int> > >::operator++
PUBLIC	??D?$_Vector_const_iterator@V?$vector@U?$pair@U?$pair@_K_K@std@@U12@@std@@V?$allocator@U?$pair@U?$pair@_K_K@std@@U12@@std@@@2@@std@@V?$allocator@V?$vector@U?$pair@U?$pair@_K_K@std@@U12@@std@@V?$allocator@U?$pair@U?$pair@_K_K@std@@U12@@std@@@2@@std@@@2@@std@@QBEABV?$vector@U?$pair@U?$pair@_K_K@std@@U12@@std@@V?$allocator@U?$pair@U?$pair@_K_K@std@@U12@@std@@@2@@1@XZ ; std::_Vector_const_iterator<std::vector<std::pair<std::pair<unsigned __int64,unsigned __int64>,std::pair<unsigned __int64,unsigned __int64> >,std::allocator<std::pair<std::pair<unsigned __int64,unsigned __int64>,std::pair<unsigned __int64,unsigned __int64> > > >,std::allocator<std::vector<std::pair<std::pair<unsigned __int64,unsigned __int64>,std::pair<unsigned __int64,unsigned __int64> >,std::allocator<std::pair<std::pair<unsigned __int64,unsigned __int64>,std::pair<unsigned __int64,unsigned __int64> > > > > >::operator*
PUBLIC	??D?$_Vector_iterator@V?$vector@U?$pair@U?$pair@_K_K@std@@U12@@std@@V?$allocator@U?$pair@U?$pair@_K_K@std@@U12@@std@@@2@@std@@V?$allocator@V?$vector@U?$pair@U?$pair@_K_K@std@@U12@@std@@V?$allocator@U?$pair@U?$pair@_K_K@std@@U12@@std@@@2@@std@@@2@@std@@QBEAAV?$vector@U?$pair@U?$pair@_K_K@std@@U12@@std@@V?$allocator@U?$pair@U?$pair@_K_K@std@@U12@@std@@@2@@1@XZ ; std::_Vector_iterator<std::vector<std::pair<std::pair<unsigned __int64,unsigned __int64>,std::pair<unsigned __int64,unsigned __int64> >,std::allocator<std::pair<std::pair<unsigned __int64,unsigned __int64>,std::pair<unsigned __int64,unsigned __int64> > > >,std::allocator<std::vector<std::pair<std::pair<unsigned __int64,unsigned __int64>,std::pair<unsigned __int64,unsigned __int64> >,std::allocator<std::pair<std::pair<unsigned __int64,unsigned __int64>,std::pair<unsigned __int64,unsigned __int64> > > > > >::operator*
PUBLIC	??C?$_Vector_iterator@V?$vector@U?$pair@U?$pair@_K_K@std@@U12@@std@@V?$allocator@U?$pair@U?$pair@_K_K@std@@U12@@std@@@2@@std@@V?$allocator@V?$vector@U?$pair@U?$pair@_K_K@std@@U12@@std@@V?$allocator@U?$pair@U?$pair@_K_K@std@@U12@@std@@@2@@std@@@2@@std@@QBEPAV?$vector@U?$pair@U?$pair@_K_K@std@@U12@@std@@V?$allocator@U?$pair@U?$pair@_K_K@std@@U12@@std@@@2@@1@XZ ; std::_Vector_iterator<std::vector<std::pair<std::pair<unsigned __int64,unsigned __int64>,std::pair<unsigned __int64,unsigned __int64> >,std::allocator<std::pair<std::pair<unsigned __int64,unsigned __int64>,std::pair<unsigned __int64,unsigned __int64> > > >,std::allocator<std::vector<std::pair<std::pair<unsigned __int64,unsigned __int64>,std::pair<unsigned __int64,unsigned __int64> >,std::allocator<std::pair<std::pair<unsigned __int64,unsigned __int64>,std::pair<unsigned __int64,unsigned __int64> > > > > >::operator->
PUBLIC	??E?$_Vector_const_iterator@V?$vector@U?$pair@U?$pair@_K_K@std@@U12@@std@@V?$allocator@U?$pair@U?$pair@_K_K@std@@U12@@std@@@2@@std@@V?$allocator@V?$vector@U?$pair@U?$pair@_K_K@std@@U12@@std@@V?$allocator@U?$pair@U?$pair@_K_K@std@@U12@@std@@@2@@std@@@2@@std@@QAEAAV01@XZ ; std::_Vector_const_iterator<std::vector<std::pair<std::pair<unsigned __int64,unsigned __int64>,std::pair<unsigned __int64,unsigned __int64> >,std::allocator<std::pair<std::pair<unsigned __int64,unsigned __int64>,std::pair<unsigned __int64,unsigned __int64> > > >,std::allocator<std::vector<std::pair<std::pair<unsigned __int64,unsigned __int64>,std::pair<unsigned __int64,unsigned __int64> >,std::allocator<std::pair<std::pair<unsigned __int64,unsigned __int64>,std::pair<unsigned __int64,unsigned __int64> > > > > >::operator++
PUBLIC	??E?$_Vector_iterator@V?$vector@U?$pair@U?$pair@_K_K@std@@U12@@std@@V?$allocator@U?$pair@U?$pair@_K_K@std@@U12@@std@@@2@@std@@V?$allocator@V?$vector@U?$pair@U?$pair@_K_K@std@@U12@@std@@V?$allocator@U?$pair@U?$pair@_K_K@std@@U12@@std@@@2@@std@@@2@@std@@QAEAAV01@XZ ; std::_Vector_iterator<std::vector<std::pair<std::pair<unsigned __int64,unsigned __int64>,std::pair<unsigned __int64,unsigned __int64> >,std::allocator<std::pair<std::pair<unsigned __int64,unsigned __int64>,std::pair<unsigned __int64,unsigned __int64> > > >,std::allocator<std::vector<std::pair<std::pair<unsigned __int64,unsigned __int64>,std::pair<unsigned __int64,unsigned __int64> >,std::allocator<std::pair<std::pair<unsigned __int64,unsigned __int64>,std::pair<unsigned __int64,unsigned __int64> > > > > >::operator++
PUBLIC	??E?$_Vector_iterator@V?$vector@U?$pair@U?$pair@_K_K@std@@U12@@std@@V?$allocator@U?$pair@U?$pair@_K_K@std@@U12@@std@@@2@@std@@V?$allocator@V?$vector@U?$pair@U?$pair@_K_K@std@@U12@@std@@V?$allocator@U?$pair@U?$pair@_K_K@std@@U12@@std@@@2@@std@@@2@@std@@QAE?AV01@H@Z ; std::_Vector_iterator<std::vector<std::pair<std::pair<unsigned __int64,unsigned __int64>,std::pair<unsigned __int64,unsigned __int64> >,std::allocator<std::pair<std::pair<unsigned __int64,unsigned __int64>,std::pair<unsigned __int64,unsigned __int64> > > >,std::allocator<std::vector<std::pair<std::pair<unsigned __int64,unsigned __int64>,std::pair<unsigned __int64,unsigned __int64> >,std::allocator<std::pair<std::pair<unsigned __int64,unsigned __int64>,std::pair<unsigned __int64,unsigned __int64> > > > > >::operator++
PUBLIC	??D?$_Vector_const_iterator@U?$pair@U?$pair@_K_K@std@@U12@@std@@V?$allocator@U?$pair@U?$pair@_K_K@std@@U12@@std@@@2@@std@@QBEABU?$pair@U?$pair@_K_K@std@@U12@@1@XZ ; std::_Vector_const_iterator<std::pair<std::pair<unsigned __int64,unsigned __int64>,std::pair<unsigned __int64,unsigned __int64> >,std::allocator<std::pair<std::pair<unsigned __int64,unsigned __int64>,std::pair<unsigned __int64,unsigned __int64> > > >::operator*
PUBLIC	??D?$_Vector_iterator@U?$pair@U?$pair@_K_K@std@@U12@@std@@V?$allocator@U?$pair@U?$pair@_K_K@std@@U12@@std@@@2@@std@@QBEAAU?$pair@U?$pair@_K_K@std@@U12@@1@XZ ; std::_Vector_iterator<std::pair<std::pair<unsigned __int64,unsigned __int64>,std::pair<unsigned __int64,unsigned __int64> >,std::allocator<std::pair<std::pair<unsigned __int64,unsigned __int64>,std::pair<unsigned __int64,unsigned __int64> > > >::operator*
PUBLIC	??C?$_Vector_iterator@U?$pair@U?$pair@_K_K@std@@U12@@std@@V?$allocator@U?$pair@U?$pair@_K_K@std@@U12@@std@@@2@@std@@QBEPAU?$pair@U?$pair@_K_K@std@@U12@@1@XZ ; std::_Vector_iterator<std::pair<std::pair<unsigned __int64,unsigned __int64>,std::pair<unsigned __int64,unsigned __int64> >,std::allocator<std::pair<std::pair<unsigned __int64,unsigned __int64>,std::pair<unsigned __int64,unsigned __int64> > > >::operator->
PUBLIC	??E?$_Vector_const_iterator@U?$pair@U?$pair@_K_K@std@@U12@@std@@V?$allocator@U?$pair@U?$pair@_K_K@std@@U12@@std@@@2@@std@@QAEAAV01@XZ ; std::_Vector_const_iterator<std::pair<std::pair<unsigned __int64,unsigned __int64>,std::pair<unsigned __int64,unsigned __int64> >,std::allocator<std::pair<std::pair<unsigned __int64,unsigned __int64>,std::pair<unsigned __int64,unsigned __int64> > > >::operator++
PUBLIC	??E?$_Vector_iterator@U?$pair@U?$pair@_K_K@std@@U12@@std@@V?$allocator@U?$pair@U?$pair@_K_K@std@@U12@@std@@@2@@std@@QAEAAV01@XZ ; std::_Vector_iterator<std::pair<std::pair<unsigned __int64,unsigned __int64>,std::pair<unsigned __int64,unsigned __int64> >,std::allocator<std::pair<std::pair<unsigned __int64,unsigned __int64>,std::pair<unsigned __int64,unsigned __int64> > > >::operator++
PUBLIC	??E?$_Vector_iterator@U?$pair@U?$pair@_K_K@std@@U12@@std@@V?$allocator@U?$pair@U?$pair@_K_K@std@@U12@@std@@@2@@std@@QAE?AV01@H@Z ; std::_Vector_iterator<std::pair<std::pair<unsigned __int64,unsigned __int64>,std::pair<unsigned __int64,unsigned __int64> >,std::allocator<std::pair<std::pair<unsigned __int64,unsigned __int64>,std::pair<unsigned __int64,unsigned __int64> > > >::operator++
PUBLIC	??8?$_Vector_const_iterator@V?$vector@IV?$allocator@I@std@@@std@@V?$allocator@V?$vector@IV?$allocator@I@std@@@std@@@2@@std@@QBE_NABV01@@Z ; std::_Vector_const_iterator<std::vector<unsigned int,std::allocator<unsigned int> >,std::allocator<std::vector<unsigned int,std::allocator<unsigned int> > > >::operator==
PUBLIC	??9?$_Vector_const_iterator@V?$vector@IV?$allocator@I@std@@@std@@V?$allocator@V?$vector@IV?$allocator@I@std@@@std@@@2@@std@@QBE_NABV01@@Z ; std::_Vector_const_iterator<std::vector<unsigned int,std::allocator<unsigned int> >,std::allocator<std::vector<unsigned int,std::allocator<unsigned int> > > >::operator!=
PUBLIC	??D?$_Vector_const_iterator@V?$vector@IV?$allocator@I@std@@@std@@V?$allocator@V?$vector@IV?$allocator@I@std@@@std@@@2@@std@@QBEABV?$vector@IV?$allocator@I@std@@@1@XZ ; std::_Vector_const_iterator<std::vector<unsigned int,std::allocator<unsigned int> >,std::allocator<std::vector<unsigned int,std::allocator<unsigned int> > > >::operator*
PUBLIC	??D?$_Vector_iterator@V?$vector@IV?$allocator@I@std@@@std@@V?$allocator@V?$vector@IV?$allocator@I@std@@@std@@@2@@std@@QBEAAV?$vector@IV?$allocator@I@std@@@1@XZ ; std::_Vector_iterator<std::vector<unsigned int,std::allocator<unsigned int> >,std::allocator<std::vector<unsigned int,std::allocator<unsigned int> > > >::operator*
PUBLIC	??C?$_Vector_iterator@V?$vector@IV?$allocator@I@std@@@std@@V?$allocator@V?$vector@IV?$allocator@I@std@@@std@@@2@@std@@QBEPAV?$vector@IV?$allocator@I@std@@@1@XZ ; std::_Vector_iterator<std::vector<unsigned int,std::allocator<unsigned int> >,std::allocator<std::vector<unsigned int,std::allocator<unsigned int> > > >::operator->
PUBLIC	??E?$_Vector_const_iterator@V?$vector@IV?$allocator@I@std@@@std@@V?$allocator@V?$vector@IV?$allocator@I@std@@@std@@@2@@std@@QAEAAV01@XZ ; std::_Vector_const_iterator<std::vector<unsigned int,std::allocator<unsigned int> >,std::allocator<std::vector<unsigned int,std::allocator<unsigned int> > > >::operator++
PUBLIC	??E?$_Vector_iterator@V?$vector@IV?$allocator@I@std@@@std@@V?$allocator@V?$vector@IV?$allocator@I@std@@@std@@@2@@std@@QAEAAV01@XZ ; std::_Vector_iterator<std::vector<unsigned int,std::allocator<unsigned int> >,std::allocator<std::vector<unsigned int,std::allocator<unsigned int> > > >::operator++
PUBLIC	??E?$_Vector_iterator@V?$vector@IV?$allocator@I@std@@@std@@V?$allocator@V?$vector@IV?$allocator@I@std@@@std@@@2@@std@@QAE?AV01@H@Z ; std::_Vector_iterator<std::vector<unsigned int,std::allocator<unsigned int> >,std::allocator<std::vector<unsigned int,std::allocator<unsigned int> > > >::operator++
PUBLIC	??8?$_Vector_const_iterator@IV?$allocator@I@std@@@std@@QBE_NABV01@@Z ; std::_Vector_const_iterator<unsigned int,std::allocator<unsigned int> >::operator==
PUBLIC	??9?$_Vector_const_iterator@IV?$allocator@I@std@@@std@@QBE_NABV01@@Z ; std::_Vector_const_iterator<unsigned int,std::allocator<unsigned int> >::operator!=
PUBLIC	??D?$_Vector_const_iterator@IV?$allocator@I@std@@@std@@QBEABIXZ ; std::_Vector_const_iterator<unsigned int,std::allocator<unsigned int> >::operator*
PUBLIC	??D?$_Vector_iterator@IV?$allocator@I@std@@@std@@QBEAAIXZ ; std::_Vector_iterator<unsigned int,std::allocator<unsigned int> >::operator*
PUBLIC	??E?$_Vector_const_iterator@IV?$allocator@I@std@@@std@@QAEAAV01@XZ ; std::_Vector_const_iterator<unsigned int,std::allocator<unsigned int> >::operator++
PUBLIC	??E?$_Vector_iterator@IV?$allocator@I@std@@@std@@QAEAAV01@XZ ; std::_Vector_iterator<unsigned int,std::allocator<unsigned int> >::operator++
PUBLIC	??E?$_Vector_iterator@IV?$allocator@I@std@@@std@@QAE?AV01@H@Z ; std::_Vector_iterator<unsigned int,std::allocator<unsigned int> >::operator++
PUBLIC	?begin@?$list@U?$pair@$$CBII@std@@V?$allocator@U?$pair@$$CBII@std@@@2@@std@@QBE?AV?$_Const_iterator@$00@12@XZ ; std::list<std::pair<unsigned int const ,unsigned int>,std::allocator<std::pair<unsigned int const ,unsigned int> > >::begin
PUBLIC	?begin@?$_Hash@V?$_Umap_traits@IIV?$_Hash_compare@IV?$hash@I@tr1@std@@U?$equal_to@I@3@@stdext@@V?$allocator@U?$pair@$$CBII@std@@@std@@$0A@@tr1@std@@@stdext@@QBE?AV?$_Const_iterator@$00@?$list@U?$pair@$$CBII@std@@V?$allocator@U?$pair@$$CBII@std@@@2@@std@@XZ ; stdext::_Hash<std::tr1::_Umap_traits<unsigned int,unsigned int,stdext::_Hash_compare<unsigned int,std::tr1::hash<unsigned int>,std::equal_to<unsigned int> >,std::allocator<std::pair<unsigned int const ,unsigned int> >,0> >::begin
PUBLIC	?size@?$list@U?$pair@$$CBII@std@@V?$allocator@U?$pair@$$CBII@std@@@2@@std@@QBEIXZ ; std::list<std::pair<unsigned int const ,unsigned int>,std::allocator<std::pair<unsigned int const ,unsigned int> > >::size
PUBLIC	?size@?$_Hash@V?$_Umap_traits@IIV?$_Hash_compare@IV?$hash@I@tr1@std@@U?$equal_to@I@3@@stdext@@V?$allocator@U?$pair@$$CBII@std@@@std@@$0A@@tr1@std@@@stdext@@QBEIXZ ; stdext::_Hash<std::tr1::_Umap_traits<unsigned int,unsigned int,stdext::_Hash_compare<unsigned int,std::tr1::hash<unsigned int>,std::equal_to<unsigned int> >,std::allocator<std::pair<unsigned int const ,unsigned int> >,0> >::size
PUBLIC	?_Kfn@?$_Umap_traits@IIV?$_Hash_compare@IV?$hash@I@tr1@std@@U?$equal_to@I@3@@stdext@@V?$allocator@U?$pair@$$CBII@std@@@std@@$0A@@tr1@std@@SAABIABU?$pair@$$CBII@3@@Z ; std::tr1::_Umap_traits<unsigned int,unsigned int,stdext::_Hash_compare<unsigned int,std::tr1::hash<unsigned int>,std::equal_to<unsigned int> >,std::allocator<std::pair<unsigned int const ,unsigned int> >,0>::_Kfn
PUBLIC	??R?$equal_to@I@std@@QBE_NABI0@Z		; std::equal_to<unsigned int>::operator()
PUBLIC	??R?$_Hash_compare@IV?$hash@I@tr1@std@@U?$equal_to@I@3@@stdext@@QBE_NABI0@Z ; stdext::_Hash_compare<unsigned int,std::tr1::hash<unsigned int>,std::equal_to<unsigned int> >::operator()
PUBLIC	??0?$_Iterator@$00@?$list@U?$pair@$$CBII@std@@V?$allocator@U?$pair@$$CBII@std@@@2@@std@@QAE@PAU_Node@?$_List_nod@U?$pair@$$CBII@std@@V?$allocator@U?$pair@$$CBII@std@@@2@@2@PBV12@@Z ; std::list<std::pair<unsigned int const ,unsigned int>,std::allocator<std::pair<unsigned int const ,unsigned int> > >::_Iterator<1>::_Iterator<1>
PUBLIC	?_Get_iter@_List_position@?$_Hash@V?$_Umap_traits@IIV?$_Hash_compare@IV?$hash@I@tr1@std@@U?$equal_to@I@3@@stdext@@V?$allocator@U?$pair@$$CBII@std@@@std@@$0A@@tr1@std@@@stdext@@QBE?AV?$_Iterator@$00@?$list@U?$pair@$$CBII@std@@V?$allocator@U?$pair@$$CBII@std@@@2@@std@@ABV56@@Z ; stdext::_Hash<std::tr1::_Umap_traits<unsigned int,unsigned int,stdext::_Hash_compare<unsigned int,std::tr1::hash<unsigned int>,std::equal_to<unsigned int> >,std::allocator<std::pair<unsigned int const ,unsigned int> >,0> >::_List_position::_Get_iter
PUBLIC	?_Get_iter_from_vec@?$_Hash@V?$_Umap_traits@IIV?$_Hash_compare@IV?$hash@I@tr1@std@@U?$equal_to@I@3@@stdext@@V?$allocator@U?$pair@$$CBII@std@@@std@@$0A@@tr1@std@@@stdext@@QBE?AV?$_Iterator@$00@?$list@U?$pair@$$CBII@std@@V?$allocator@U?$pair@$$CBII@std@@@2@@std@@ABU_List_position@12@@Z ; stdext::_Hash<std::tr1::_Umap_traits<unsigned int,unsigned int,stdext::_Hash_compare<unsigned int,std::tr1::hash<unsigned int>,std::equal_to<unsigned int> >,std::allocator<std::pair<unsigned int const ,unsigned int> >,0> >::_Get_iter_from_vec
PUBLIC	??0?$_Const_iterator@$00@?$list@U?$pair@$$CBII@std@@V?$allocator@U?$pair@$$CBII@std@@@2@@std@@QAE@PAU_Node@?$_List_nod@U?$pair@$$CBII@std@@V?$allocator@U?$pair@$$CBII@std@@@2@@2@PBV12@@Z ; std::list<std::pair<unsigned int const ,unsigned int>,std::allocator<std::pair<unsigned int const ,unsigned int> > >::_Const_iterator<1>::_Const_iterator<1>
PUBLIC	?end@?$list@U?$pair@$$CBII@std@@V?$allocator@U?$pair@$$CBII@std@@@2@@std@@QBE?AV?$_Const_iterator@$00@12@XZ ; std::list<std::pair<unsigned int const ,unsigned int>,std::allocator<std::pair<unsigned int const ,unsigned int> > >::end
PUBLIC	?end@?$_Hash@V?$_Umap_traits@IIV?$_Hash_compare@IV?$hash@I@tr1@std@@U?$equal_to@I@3@@stdext@@V?$allocator@U?$pair@$$CBII@std@@@std@@$0A@@tr1@std@@@stdext@@QBE?AV?$_Const_iterator@$00@?$list@U?$pair@$$CBII@std@@V?$allocator@U?$pair@$$CBII@std@@@2@@std@@XZ ; stdext::_Hash<std::tr1::_Umap_traits<unsigned int,unsigned int,stdext::_Hash_compare<unsigned int,std::tr1::hash<unsigned int>,std::equal_to<unsigned int> >,std::allocator<std::pair<unsigned int const ,unsigned int> >,0> >::end
PUBLIC	??R?$hash@I@tr1@std@@QBEIABI@Z			; std::tr1::hash<unsigned int>::operator()
PUBLIC	??R?$_Hash_compare@IV?$hash@I@tr1@std@@U?$equal_to@I@3@@stdext@@QBEIABI@Z ; stdext::_Hash_compare<unsigned int,std::tr1::hash<unsigned int>,std::equal_to<unsigned int> >::operator()
PUBLIC	?_Hashval@?$_Hash@V?$_Umap_traits@IIV?$_Hash_compare@IV?$hash@I@tr1@std@@U?$equal_to@I@3@@stdext@@V?$allocator@U?$pair@$$CBII@std@@@std@@$0A@@tr1@std@@@stdext@@IBEIABI@Z ; stdext::_Hash<std::tr1::_Umap_traits<unsigned int,unsigned int,stdext::_Hash_compare<unsigned int,std::tr1::hash<unsigned int>,std::equal_to<unsigned int> >,std::allocator<std::pair<unsigned int const ,unsigned int> >,0> >::_Hashval
PUBLIC	?size@?$vector@U_List_position@?$_Hash@V?$_Umap_traits@IIV?$_Hash_compare@IV?$hash@I@tr1@std@@U?$equal_to@I@3@@stdext@@V?$allocator@U?$pair@$$CBII@std@@@std@@$0A@@tr1@std@@@stdext@@V?$allocator@U_List_position@?$_Hash@V?$_Umap_traits@IIV?$_Hash_compare@IV?$hash@I@tr1@std@@U?$equal_to@I@3@@stdext@@V?$allocator@U?$pair@$$CBII@std@@@std@@$0A@@tr1@std@@@stdext@@@std@@@std@@QBEIXZ ; std::vector<stdext::_Hash<std::tr1::_Umap_traits<unsigned int,unsigned int,stdext::_Hash_compare<unsigned int,std::tr1::hash<unsigned int>,std::equal_to<unsigned int> >,std::allocator<std::pair<unsigned int const ,unsigned int> >,0> >::_List_position,std::allocator<stdext::_Hash<std::tr1::_Umap_traits<unsigned int,unsigned int,stdext::_Hash_compare<unsigned int,std::tr1::hash<unsigned int>,std::equal_to<unsigned int> >,std::allocator<std::pair<unsigned int const ,unsigned int> >,0> >::_List_position> >::size
PUBLIC	??A?$vector@U_List_position@?$_Hash@V?$_Umap_traits@IIV?$_Hash_compare@IV?$hash@I@tr1@std@@U?$equal_to@I@3@@stdext@@V?$allocator@U?$pair@$$CBII@std@@@std@@$0A@@tr1@std@@@stdext@@V?$allocator@U_List_position@?$_Hash@V?$_Umap_traits@IIV?$_Hash_compare@IV?$hash@I@tr1@std@@U?$equal_to@I@3@@stdext@@V?$allocator@U?$pair@$$CBII@std@@@std@@$0A@@tr1@std@@@stdext@@@std@@@std@@QBEABU_List_position@?$_Hash@V?$_Umap_traits@IIV?$_Hash_compare@IV?$hash@I@tr1@std@@U?$equal_to@I@3@@stdext@@V?$allocator@U?$pair@$$CBII@std@@@std@@$0A@@tr1@std@@@stdext@@I@Z ; std::vector<stdext::_Hash<std::tr1::_Umap_traits<unsigned int,unsigned int,stdext::_Hash_compare<unsigned int,std::tr1::hash<unsigned int>,std::equal_to<unsigned int> >,std::allocator<std::pair<unsigned int const ,unsigned int> >,0> >::_List_position,std::allocator<stdext::_Hash<std::tr1::_Umap_traits<unsigned int,unsigned int,stdext::_Hash_compare<unsigned int,std::tr1::hash<unsigned int>,std::equal_to<unsigned int> >,std::allocator<std::pair<unsigned int const ,unsigned int> >,0> >::_List_position> >::operator[]
PUBLIC	??0?$_Iterator_with_base@Ubidirectional_iterator_tag@std@@U?$pair@$$CBII@2@HPBU32@ABU32@V_Iterator_base_aux@2@@std@@QAE@XZ ; std::_Iterator_with_base<std::bidirectional_iterator_tag,std::pair<unsigned int const ,unsigned int>,int,std::pair<unsigned int const ,unsigned int> const *,std::pair<unsigned int const ,unsigned int> const &,std::_Iterator_base_aux>::_Iterator_with_base<std::bidirectional_iterator_tag,std::pair<unsigned int const ,unsigned int>,int,std::pair<unsigned int const ,unsigned int> const *,std::pair<unsigned int const ,unsigned int> const &,std::_Iterator_base_aux>
PUBLIC	??0?$_Bidit@U?$pair@$$CBII@std@@HPBU12@ABU12@@std@@QAE@XZ ; std::_Bidit<std::pair<unsigned int const ,unsigned int>,int,std::pair<unsigned int const ,unsigned int> const *,std::pair<unsigned int const ,unsigned int> const &>::_Bidit<std::pair<unsigned int const ,unsigned int>,int,std::pair<unsigned int const ,unsigned int> const *,std::pair<unsigned int const ,unsigned int> const &>
PUBLIC	??0?$_Const_iterator@$00@?$list@U?$pair@$$CBII@std@@V?$allocator@U?$pair@$$CBII@std@@@2@@std@@QAE@XZ ; std::list<std::pair<unsigned int const ,unsigned int>,std::allocator<std::pair<unsigned int const ,unsigned int> > >::_Const_iterator<1>::_Const_iterator<1>
PUBLIC	?_Mynode@?$_Const_iterator@$00@?$list@U?$pair@$$CBII@std@@V?$allocator@U?$pair@$$CBII@std@@@2@@std@@QBEPAU_Node@?$_List_nod@U?$pair@$$CBII@std@@V?$allocator@U?$pair@$$CBII@std@@@2@@3@XZ ; std::list<std::pair<unsigned int const ,unsigned int>,std::allocator<std::pair<unsigned int const ,unsigned int> > >::_Const_iterator<1>::_Mynode
PUBLIC	?_Mynode@?$_Const_iterator@$0A@@?$list@U?$pair@$$CBII@std@@V?$allocator@U?$pair@$$CBII@std@@@2@@std@@QBEPAU_Node@?$_List_nod@U?$pair@$$CBII@std@@V?$allocator@U?$pair@$$CBII@std@@@2@@3@XZ ; std::list<std::pair<unsigned int const ,unsigned int>,std::allocator<std::pair<unsigned int const ,unsigned int> > >::_Const_iterator<0>::_Mynode
PUBLIC	??8_List_position@?$_Hash@V?$_Umap_traits@IIV?$_Hash_compare@IV?$hash@I@tr1@std@@U?$equal_to@I@3@@stdext@@V?$allocator@U?$pair@$$CBII@std@@@std@@$0A@@tr1@std@@@stdext@@QBE_NABV?$_Const_iterator@$00@?$list@U?$pair@$$CBII@std@@V?$allocator@U?$pair@$$CBII@std@@@2@@std@@@Z ; stdext::_Hash<std::tr1::_Umap_traits<unsigned int,unsigned int,stdext::_Hash_compare<unsigned int,std::tr1::hash<unsigned int>,std::equal_to<unsigned int> >,std::allocator<std::pair<unsigned int const ,unsigned int> >,0> >::_List_position::operator==
PUBLIC	??9_List_position@?$_Hash@V?$_Umap_traits@IIV?$_Hash_compare@IV?$hash@I@tr1@std@@U?$equal_to@I@3@@stdext@@V?$allocator@U?$pair@$$CBII@std@@@std@@$0A@@tr1@std@@@stdext@@QBE_NABV?$_Const_iterator@$00@?$list@U?$pair@$$CBII@std@@V?$allocator@U?$pair@$$CBII@std@@@2@@std@@@Z ; stdext::_Hash<std::tr1::_Umap_traits<unsigned int,unsigned int,stdext::_Hash_compare<unsigned int,std::tr1::hash<unsigned int>,std::equal_to<unsigned int> >,std::allocator<std::pair<unsigned int const ,unsigned int> >,0> >::_List_position::operator!=
PUBLIC	?lower_bound@?$_Hash@V?$_Umap_traits@IIV?$_Hash_compare@IV?$hash@I@tr1@std@@U?$equal_to@I@3@@stdext@@V?$allocator@U?$pair@$$CBII@std@@@std@@$0A@@tr1@std@@@stdext@@QBE?AV?$_Const_iterator@$00@?$list@U?$pair@$$CBII@std@@V?$allocator@U?$pair@$$CBII@std@@@2@@std@@ABI@Z ; stdext::_Hash<std::tr1::_Umap_traits<unsigned int,unsigned int,stdext::_Hash_compare<unsigned int,std::tr1::hash<unsigned int>,std::equal_to<unsigned int> >,std::allocator<std::pair<unsigned int const ,unsigned int> >,0> >::lower_bound
PUBLIC	?find@?$_Hash@V?$_Umap_traits@IIV?$_Hash_compare@IV?$hash@I@tr1@std@@U?$equal_to@I@3@@stdext@@V?$allocator@U?$pair@$$CBII@std@@@std@@$0A@@tr1@std@@@stdext@@QBE?AV?$_Const_iterator@$00@?$list@U?$pair@$$CBII@std@@V?$allocator@U?$pair@$$CBII@std@@@2@@std@@ABI@Z ; stdext::_Hash<std::tr1::_Umap_traits<unsigned int,unsigned int,stdext::_Hash_compare<unsigned int,std::tr1::hash<unsigned int>,std::equal_to<unsigned int> >,std::allocator<std::pair<unsigned int const ,unsigned int> >,0> >::find
PUBLIC	?_Myval@?$list@U?$pair@$$CBII@std@@V?$allocator@U?$pair@$$CBII@std@@@2@@std@@KAAAU?$pair@$$CBII@2@PAU_Node@?$_List_nod@U?$pair@$$CBII@std@@V?$allocator@U?$pair@$$CBII@std@@@2@@2@@Z ; std::list<std::pair<unsigned int const ,unsigned int>,std::allocator<std::pair<unsigned int const ,unsigned int> > >::_Myval
PUBLIC	??D?$_Const_iterator@$00@?$list@U?$pair@$$CBII@std@@V?$allocator@U?$pair@$$CBII@std@@@2@@std@@QBEABU?$pair@$$CBII@2@XZ ; std::list<std::pair<unsigned int const ,unsigned int>,std::allocator<std::pair<unsigned int const ,unsigned int> > >::_Const_iterator<1>::operator*
PUBLIC	??C?$_Const_iterator@$00@?$list@U?$pair@$$CBII@std@@V?$allocator@U?$pair@$$CBII@std@@@2@@std@@QBEPBU?$pair@$$CBII@2@XZ ; std::list<std::pair<unsigned int const ,unsigned int>,std::allocator<std::pair<unsigned int const ,unsigned int> > >::_Const_iterator<1>::operator->
PUBLIC	??E?$_Const_iterator@$00@?$list@U?$pair@$$CBII@std@@V?$allocator@U?$pair@$$CBII@std@@@2@@std@@QAEAAV012@XZ ; std::list<std::pair<unsigned int const ,unsigned int>,std::allocator<std::pair<unsigned int const ,unsigned int> > >::_Const_iterator<1>::operator++
PUBLIC	??E?$_Const_iterator@$00@?$list@U?$pair@$$CBII@std@@V?$allocator@U?$pair@$$CBII@std@@@2@@std@@QAE?AV012@H@Z ; std::list<std::pair<unsigned int const ,unsigned int>,std::allocator<std::pair<unsigned int const ,unsigned int> > >::_Const_iterator<1>::operator++
PUBLIC	??8?$_Const_iterator@$00@?$list@U?$pair@$$CBII@std@@V?$allocator@U?$pair@$$CBII@std@@@2@@std@@QBE_NABV012@@Z ; std::list<std::pair<unsigned int const ,unsigned int>,std::allocator<std::pair<unsigned int const ,unsigned int> > >::_Const_iterator<1>::operator==
PUBLIC	??9?$_Const_iterator@$00@?$list@U?$pair@$$CBII@std@@V?$allocator@U?$pair@$$CBII@std@@@2@@std@@QBE_NABV012@@Z ; std::list<std::pair<unsigned int const ,unsigned int>,std::allocator<std::pair<unsigned int const ,unsigned int> > >::_Const_iterator<1>::operator!=
PUBLIC	??$?8II@DRAMsimII@@YA_NABV?$unordered_map@IIV?$hash@I@tr1@std@@U?$equal_to@I@3@V?$allocator@U?$pair@$$CBII@std@@@3@@tr1@std@@0@Z ; DRAMsimII::operator==<unsigned int,unsigned int>
PUBLIC	?begin@?$vector@IV?$allocator@I@std@@@std@@QBE?AV?$_Vector_const_iterator@IV?$allocator@I@std@@@2@XZ ; std::vector<unsigned int,std::allocator<unsigned int> >::begin
PUBLIC	??0?$_Iterator_with_base@Urandom_access_iterator_tag@std@@IHPBIABIV_Iterator_base_aux@2@@std@@QAE@XZ ; std::_Iterator_with_base<std::random_access_iterator_tag,unsigned int,int,unsigned int const *,unsigned int const &,std::_Iterator_base_aux>::_Iterator_with_base<std::random_access_iterator_tag,unsigned int,int,unsigned int const *,unsigned int const &,std::_Iterator_base_aux>
PUBLIC	??0?$_Ranit@IHPBIABI@std@@QAE@XZ		; std::_Ranit<unsigned int,int,unsigned int const *,unsigned int const &>::_Ranit<unsigned int,int,unsigned int const *,unsigned int const &>
PUBLIC	??0?$_Vector_const_iterator@IV?$allocator@I@std@@@std@@QAE@PAIPBV_Container_base_aux@1@@Z ; std::_Vector_const_iterator<unsigned int,std::allocator<unsigned int> >::_Vector_const_iterator<unsigned int,std::allocator<unsigned int> >
PUBLIC	?end@?$vector@IV?$allocator@I@std@@@std@@QBE?AV?$_Vector_const_iterator@IV?$allocator@I@std@@@2@XZ ; std::vector<unsigned int,std::allocator<unsigned int> >::end
PUBLIC	??$_Iter_random@V?$_Vector_const_iterator@IV?$allocator@I@std@@@std@@V12@@std@@YA?AUrandom_access_iterator_tag@0@ABV?$_Vector_const_iterator@IV?$allocator@I@std@@@0@0@Z ; std::_Iter_random<std::_Vector_const_iterator<unsigned int,std::allocator<unsigned int> >,std::_Vector_const_iterator<unsigned int,std::allocator<unsigned int> > >
PUBLIC	??Y?$_Vector_const_iterator@IV?$allocator@I@std@@@std@@QAEAAV01@H@Z ; std::_Vector_const_iterator<unsigned int,std::allocator<unsigned int> >::operator+=
PUBLIC	??H?$_Vector_const_iterator@IV?$allocator@I@std@@@std@@QBE?AV01@H@Z ; std::_Vector_const_iterator<unsigned int,std::allocator<unsigned int> >::operator+
PUBLIC	?_Checked_iterator_base@?$_Vector_const_iterator@IV?$allocator@I@std@@@std@@QBEPBIXZ ; std::_Vector_const_iterator<unsigned int,std::allocator<unsigned int> >::_Checked_iterator_base
PUBLIC	??$_Checked_base@V?$_Vector_const_iterator@IV?$allocator@I@std@@@std@@U_Different_checked_iterator_base_type_tag@2@@std@@YAPBIAAV?$_Vector_const_iterator@IV?$allocator@I@std@@@0@U_Different_checked_iterator_base_type_tag@0@@Z ; std::_Checked_base<std::_Vector_const_iterator<unsigned int,std::allocator<unsigned int> >,std::_Different_checked_iterator_base_type_tag>
PUBLIC	??$_Checked_base@V?$_Vector_const_iterator@IV?$allocator@I@std@@@std@@@std@@YAPBIAAV?$_Vector_const_iterator@IV?$allocator@I@std@@@0@@Z ; std::_Checked_base<std::_Vector_const_iterator<unsigned int,std::allocator<unsigned int> > >
PUBLIC	??$_Equal@PBIPBIUforward_iterator_tag@std@@@std@@YA_NPBI00Uforward_iterator_tag@0@U_Range_checked_iterator_tag@0@@Z ; std::_Equal<unsigned int const *,unsigned int const *,std::forward_iterator_tag>
PUBLIC	??$_Equal@PBIV?$_Vector_const_iterator@IV?$allocator@I@std@@@std@@@std@@YA_NPBI0V?$_Vector_const_iterator@IV?$allocator@I@std@@@0@Urandom_access_iterator_tag@0@U_Range_checked_iterator_tag@0@@Z ; std::_Equal<unsigned int const *,std::_Vector_const_iterator<unsigned int,std::allocator<unsigned int> > >
PUBLIC	??$equal@V?$_Vector_const_iterator@IV?$allocator@I@std@@@std@@V12@@std@@YA_NV?$_Vector_const_iterator@IV?$allocator@I@std@@@0@00@Z ; std::equal<std::_Vector_const_iterator<unsigned int,std::allocator<unsigned int> >,std::_Vector_const_iterator<unsigned int,std::allocator<unsigned int> > >
PUBLIC	??$?8IV?$allocator@I@std@@@std@@YA_NABV?$vector@IV?$allocator@I@std@@@0@0@Z ; std::operator==<unsigned int,std::allocator<unsigned int> >
PUBLIC	?begin@?$_Tree@V?$_Tmap_traits@_KVDelayCounter@Statistics@DRAMsimII@@U?$less@_K@std@@V?$allocator@U?$pair@$$CB_KVDelayCounter@Statistics@DRAMsimII@@@std@@@5@$0A@@std@@@std@@QBE?AVconst_iterator@12@XZ ; std::_Tree<std::_Tmap_traits<unsigned __int64,DRAMsimII::Statistics::DelayCounter,std::less<unsigned __int64>,std::allocator<std::pair<unsigned __int64 const ,DRAMsimII::Statistics::DelayCounter> >,0> >::begin
PUBLIC	?end@?$_Tree@V?$_Tmap_traits@_KVDelayCounter@Statistics@DRAMsimII@@U?$less@_K@std@@V?$allocator@U?$pair@$$CB_KVDelayCounter@Statistics@DRAMsimII@@@std@@@5@$0A@@std@@@std@@QBE?AVconst_iterator@12@XZ ; std::_Tree<std::_Tmap_traits<unsigned __int64,DRAMsimII::Statistics::DelayCounter,std::less<unsigned __int64>,std::allocator<std::pair<unsigned __int64 const ,DRAMsimII::Statistics::DelayCounter> >,0> >::end
PUBLIC	?size@?$_Tree@V?$_Tmap_traits@_KVDelayCounter@Statistics@DRAMsimII@@U?$less@_K@std@@V?$allocator@U?$pair@$$CB_KVDelayCounter@Statistics@DRAMsimII@@@std@@@5@$0A@@std@@@std@@QBEIXZ ; std::_Tree<std::_Tmap_traits<unsigned __int64,DRAMsimII::Statistics::DelayCounter,std::less<unsigned __int64>,std::allocator<std::pair<unsigned __int64 const ,DRAMsimII::Statistics::DelayCounter> >,0> >::size
PUBLIC	??$_Checked_base@Vconst_iterator@?$_Tree@V?$_Tmap_traits@_KVDelayCounter@Statistics@DRAMsimII@@U?$less@_K@std@@V?$allocator@U?$pair@$$CB_KVDelayCounter@Statistics@DRAMsimII@@@std@@@5@$0A@@std@@@std@@@std@@YA?AVconst_iterator@?$_Tree@V?$_Tmap_traits@_KVDelayCounter@Statistics@DRAMsimII@@U?$less@_K@std@@V?$allocator@U?$pair@$$CB_KVDelayCounter@Statistics@DRAMsimII@@@std@@@5@$0A@@std@@@0@AAV120@U_Unchanged_checked_iterator_base_type_tag@0@@Z ; std::_Checked_base<std::_Tree<std::_Tmap_traits<unsigned __int64,DRAMsimII::Statistics::DelayCounter,std::less<unsigned __int64>,std::allocator<std::pair<unsigned __int64 const ,DRAMsimII::Statistics::DelayCounter> >,0> >::const_iterator>
PUBLIC	??$_Checked_base@Vconst_iterator@?$_Tree@V?$_Tmap_traits@_KVDelayCounter@Statistics@DRAMsimII@@U?$less@_K@std@@V?$allocator@U?$pair@$$CB_KVDelayCounter@Statistics@DRAMsimII@@@std@@@5@$0A@@std@@@std@@@std@@YA?AVconst_iterator@?$_Tree@V?$_Tmap_traits@_KVDelayCounter@Statistics@DRAMsimII@@U?$less@_K@std@@V?$allocator@U?$pair@$$CB_KVDelayCounter@Statistics@DRAMsimII@@@std@@@5@$0A@@std@@@0@AAV120@@Z ; std::_Checked_base<std::_Tree<std::_Tmap_traits<unsigned __int64,DRAMsimII::Statistics::DelayCounter,std::less<unsigned __int64>,std::allocator<std::pair<unsigned __int64 const ,DRAMsimII::Statistics::DelayCounter> >,0> >::const_iterator>
PUBLIC	??$_Iter_random@Vconst_iterator@?$_Tree@V?$_Tmap_traits@_KVDelayCounter@Statistics@DRAMsimII@@U?$less@_K@std@@V?$allocator@U?$pair@$$CB_KVDelayCounter@Statistics@DRAMsimII@@@std@@@5@$0A@@std@@@std@@V123@@std@@YA?AUforward_iterator_tag@0@ABVconst_iterator@?$_Tree@V?$_Tmap_traits@_KVDelayCounter@Statistics@DRAMsimII@@U?$less@_K@std@@V?$allocator@U?$pair@$$CB_KVDelayCounter@Statistics@DRAMsimII@@@std@@@5@$0A@@std@@@0@0@Z ; std::_Iter_random<std::_Tree<std::_Tmap_traits<unsigned __int64,DRAMsimII::Statistics::DelayCounter,std::less<unsigned __int64>,std::allocator<std::pair<unsigned __int64 const ,DRAMsimII::Statistics::DelayCounter> >,0> >::const_iterator,std::_Tree<std::_Tmap_traits<unsigned __int64,DRAMsimII::Statistics::DelayCounter,std::less<unsigned __int64>,std::allocator<std::pair<unsigned __int64 const ,DRAMsimII::Statistics::DelayCounter> >,0> >::const_iterator>
PUBLIC	?_Myval@?$_Tree@V?$_Tmap_traits@_KVDelayCounter@Statistics@DRAMsimII@@U?$less@_K@std@@V?$allocator@U?$pair@$$CB_KVDelayCounter@Statistics@DRAMsimII@@@std@@@5@$0A@@std@@@std@@KAAAU?$pair@$$CB_KVDelayCounter@Statistics@DRAMsimII@@@2@PAU_Node@?$_Tree_nod@V?$_Tmap_traits@_KVDelayCounter@Statistics@DRAMsimII@@U?$less@_K@std@@V?$allocator@U?$pair@$$CB_KVDelayCounter@Statistics@DRAMsimII@@@std@@@5@$0A@@std@@@2@@Z ; std::_Tree<std::_Tmap_traits<unsigned __int64,DRAMsimII::Statistics::DelayCounter,std::less<unsigned __int64>,std::allocator<std::pair<unsigned __int64 const ,DRAMsimII::Statistics::DelayCounter> >,0> >::_Myval
PUBLIC	??Dconst_iterator@?$_Tree@V?$_Tmap_traits@_KVDelayCounter@Statistics@DRAMsimII@@U?$less@_K@std@@V?$allocator@U?$pair@$$CB_KVDelayCounter@Statistics@DRAMsimII@@@std@@@5@$0A@@std@@@std@@QBEABU?$pair@$$CB_KVDelayCounter@Statistics@DRAMsimII@@@2@XZ ; std::_Tree<std::_Tmap_traits<unsigned __int64,DRAMsimII::Statistics::DelayCounter,std::less<unsigned __int64>,std::allocator<std::pair<unsigned __int64 const ,DRAMsimII::Statistics::DelayCounter> >,0> >::const_iterator::operator*
PUBLIC	??8DelayCounter@Statistics@DRAMsimII@@QBE_NABV012@@Z ; DRAMsimII::Statistics::DelayCounter::operator==
PUBLIC	??$?8$$CB_KVDelayCounter@Statistics@DRAMsimII@@@std@@YA_NABU?$pair@$$CB_KVDelayCounter@Statistics@DRAMsimII@@@0@0@Z ; std::operator==<unsigned __int64 const ,DRAMsimII::Statistics::DelayCounter>
