; Listing generated by Microsoft (R) Optimizing Compiler Version 15.00.30729.01 

	TITLE	c:\Users\CriuS\Documents\Visual Studio 2008\Projects\DRAMsimIIhg\src\reporting\stdsoap2.cpp
	.686P
	.XMM
	include listing.inc
	.model	flat

INCLUDELIB OLDNAMES

PUBLIC	??_R4soap@@6B@					; soap::`RTTI Complete Object Locator'
PUBLIC	??_R3soap@@8					; soap::`RTTI Class Hierarchy Descriptor'
PUBLIC	??_R2soap@@8					; soap::`RTTI Base Class Array'
PUBLIC	??_R1A@?0A@EA@soap@@8				; soap::`RTTI Base Class Descriptor at (0,-1,0,64)'
PUBLIC	??_R0?AUsoap@@@8				; soap `RTTI Type Descriptor'
PUBLIC	??_C@_07JJJGGCEE@x?9token?$AA@			; `string'
PUBLIC	??_C@_0L@EPBKNKII@ietf?9token?$AA@		; `string'
PUBLIC	??_C@_06JEFEFGEJ@base64?$AA@			; `string'
PUBLIC	??_C@_0BB@CAHAECFA@quoted?9printable?$AA@	; `string'
PUBLIC	??_C@_06FNFBAEBE@binary?$AA@			; `string'
PUBLIC	??_C@_04DFPGIIHA@8bit?$AA@			; `string'
PUBLIC	??_C@_04LHKGBPKB@7bit?$AA@			; `string'
PUBLIC	??_C@_0BL@GBBFKFHI@HTTP?5Version?5not?5supported?$AA@ ; `string'
PUBLIC	??_C@_0BB@PHMOGCPC@Gateway?5Time?9out?$AA@	; `string'
PUBLIC	??_C@_0BE@NGHLFKBN@Service?5Unavailable?$AA@	; `string'
PUBLIC	??_C@_0M@BNCNLPGM@Bad?5Gateway?$AA@		; `string'
PUBLIC	??_C@_0BA@JGKGKAME@Not?5Implemented?$AA@	; `string'
PUBLIC	??_C@_0BG@NJGANGCC@Internal?5Server?5Error?$AA@	; `string'
PUBLIC	??_C@_0BD@NDMHPAED@Expectation?5Failed?$AA@	; `string'
PUBLIC	??_C@_0CA@KGJNFKJM@Requested?5range?5not?5satisfiable?$AA@ ; `string'
PUBLIC	??_C@_0BH@HLJJIAEN@Unsupported?5Media?5Type?$AA@ ; `string'
PUBLIC	??_C@_0BG@PMALKKB@Request?9URI?5Too?5Large?$AA@	; `string'
PUBLIC	??_C@_0BJ@MMEIEOIG@Request?5Entity?5Too?5Large?$AA@ ; `string'
PUBLIC	??_C@_0BE@BBDBJOM@Precondition?5Failed?$AA@	; `string'
PUBLIC	??_C@_0BA@JCKHPIPI@Length?5Required?$AA@	; `string'
PUBLIC	??_C@_04OKIIBCCG@Gone?$AA@			; `string'
PUBLIC	??_C@_08OJCIFGDF@Conflict?$AA@			; `string'
PUBLIC	??_C@_0BB@GKNJPEJG@Request?5Time?9out?$AA@	; `string'
PUBLIC	??_C@_0BO@ONPAAOGI@Proxy?5Authentication?5Required?$AA@ ; `string'
PUBLIC	??_C@_0P@HHIDFAOI@Not?5Acceptable?$AA@		; `string'
PUBLIC	??_C@_0BD@CCIPIALO@Method?5Not?5Allowed?$AA@	; `string'
PUBLIC	??_C@_09CFCBFJND@Not?5Found?$AA@		; `string'
PUBLIC	??_C@_09LMDIMFJD@Forbidden?$AA@			; `string'
PUBLIC	??_C@_0BB@LMPIHCBH@Payment?5Required?$AA@	; `string'
PUBLIC	??_C@_0N@OOAPMOJA@Unauthorized?$AA@		; `string'
PUBLIC	??_C@_0M@LNAIDEEG@Bad?5Request?$AA@		; `string'
PUBLIC	??_C@_0BD@PJMNAMDM@Temporary?5Redirect?$AA@	; `string'
PUBLIC	??_C@_09JFBGBFIM@Use?5Proxy?$AA@		; `string'
PUBLIC	??_C@_0N@IFEFAIJB@Not?5Modified?$AA@		; `string'
PUBLIC	??_C@_09FAMPMKIP@See?5Other?$AA@		; `string'
PUBLIC	??_C@_05JDGHEPJG@Found?$AA@			; `string'
PUBLIC	??_C@_0BC@BPBCNFPI@Moved?5Permanently?$AA@	; `string'
PUBLIC	??_C@_0BB@HLFEHKPE@Multiple?5Choices?$AA@	; `string'
PUBLIC	??_C@_0BA@NNLNHGMN@Partial?5Content?$AA@	; `string'
PUBLIC	??_C@_0O@BFFLKCLE@Reset?5Content?$AA@		; `string'
PUBLIC	??_C@_0L@FDPJCNGK@No?5Content?$AA@		; `string'
PUBLIC	??_C@_0BO@NKBPKPBI@Non?9Authoritative?5Information?$AA@ ; `string'
PUBLIC	??_C@_08DOBOODLA@Accepted?$AA@			; `string'
PUBLIC	??_C@_07BBIDHECN@Created?$AA@			; `string'
PUBLIC	??_C@_02GIPFHKNO@OK?$AA@			; `string'
PUBLIC	??_C@_0L@GGLPAOMP@No?5Address?$AA@		; `string'
PUBLIC	??_C@_07NNGPDNPG@No?5Data?$AA@			; `string'
PUBLIC	??_C@_0M@IFLIHMFH@No?5Recovery?$AA@		; `string'
PUBLIC	??_C@_09NOIJLNLL@Try?5Again?$AA@		; `string'
PUBLIC	??_C@_0P@CAFMJNJH@Host?5not?5found?$AA@		; `string'
PUBLIC	??_C@_04BILJKGCK@yuml?$AA@			; `string'
PUBLIC	??_C@_05LIICDAEF@thorn?$AA@			; `string'
PUBLIC	??_C@_06BBMKGLNL@yacute?$AA@			; `string'
PUBLIC	??_C@_04NNEJELCL@uuml?$AA@			; `string'
PUBLIC	??_C@_05JEMLPDGA@ucirc?$AA@			; `string'
PUBLIC	??_C@_06NGGKABKP@uacute?$AA@			; `string'
PUBLIC	??_C@_06IBEMEICG@ugrave?$AA@			; `string'
PUBLIC	??_C@_06LGBAFOGO@oslash?$AA@			; `string'
PUBLIC	??_C@_06FFHJEHBN@divide?$AA@			; `string'
PUBLIC	??_C@_04PHBJMEAI@ouml?$AA@			; `string'
PUBLIC	??_C@_06DNFIPCMD@otilde?$AA@			; `string'
PUBLIC	??_C@_05DGIGNCJN@ocirc?$AA@			; `string'
PUBLIC	??_C@_06BFMEMCCP@oacute?$AA@			; `string'
PUBLIC	??_C@_06ECOCILKG@ograve?$AA@			; `string'
PUBLIC	??_C@_06JLCPPJHH@ntilde?$AA@			; `string'
PUBLIC	??_C@_03CMJPAGPB@eth?$AA@			; `string'
PUBLIC	??_C@_04HIFJDBKI@iuml?$AA@			; `string'
PUBLIC	??_C@_05OANPDBIA@icirc?$AA@			; `string'
PUBLIC	??_C@_06HGBEPHBF@iacute?$AA@			; `string'
PUBLIC	??_C@_06CBDCLOJM@igrave?$AA@			; `string'
PUBLIC	??_C@_04LNKJNMKJ@euml?$AA@			; `string'
PUBLIC	??_C@_05JHBNPBPL@ecirc?$AA@			; `string'
PUBLIC	??_C@_06LBLEJNGB@eacute?$AA@			; `string'
PUBLIC	??_C@_06OGJCNEOI@egrave?$AA@			; `string'
PUBLIC	??_C@_06DNHFEHGA@ccedil?$AA@			; `string'
PUBLIC	??_C@_05MAANDPOK@aelig?$AA@			; `string'
PUBLIC	??_C@_05CAFMJCMP@aring?$AA@			; `string'
PUBLIC	??_C@_04EICJHKGJ@auml?$AA@			; `string'
PUBLIC	??_C@_06GNGHIJJO@atilde?$AA@			; `string'
PUBLIC	??_C@_05MIMLDON@acirc?$AA@			; `string'
PUBLIC	??_C@_06EFPLLJHC@aacute?$AA@			; `string'
PUBLIC	??_C@_06BCNNPAPL@agrave?$AA@			; `string'
PUBLIC	??_C@_05GMKDJMCJ@szlig?$AA@			; `string'
PUBLIC	??_C@_05HDBENHAL@THORN?$AA@			; `string'
PUBLIC	??_C@_06NOHHFCEH@Yacute?$AA@			; `string'
PUBLIC	??_C@_04BMIIGECP@Uuml?$AA@			; `string'
PUBLIC	??_C@_05JDGHPGFG@Ucirc?$AA@			; `string'
PUBLIC	??_C@_06BJNHDIDD@Uacute?$AA@			; `string'
PUBLIC	??_C@_06EOPBHBLK@Ugrave?$AA@			; `string'
PUBLIC	??_C@_06HJKNGHPC@Oslash?$AA@			; `string'
PUBLIC	??_C@_05MJOOAIJH@times?$AA@			; `string'
PUBLIC	??_C@_04DGNIOLAM@Ouml?$AA@			; `string'
PUBLIC	??_C@_06PCOFMLFP@Otilde?$AA@			; `string'
PUBLIC	??_C@_05DBCKNHKL@Ocirc?$AA@			; `string'
PUBLIC	??_C@_06NKHJPLLD@Oacute?$AA@			; `string'
PUBLIC	??_C@_06INFPLCDK@Ograve?$AA@			; `string'
PUBLIC	??_C@_06FEJCMAOL@Ntilde?$AA@			; `string'
PUBLIC	??_C@_03CBGEMLIN@ETH?$AA@			; `string'
PUBLIC	??_C@_04LJJIBOKM@Iuml?$AA@			; `string'
PUBLIC	??_C@_05OHHDDELG@Icirc?$AA@			; `string'
PUBLIC	??_C@_06LJKJMOIJ@Iacute?$AA@			; `string'
PUBLIC	??_C@_06OOIPIHAA@Igrave?$AA@			; `string'
PUBLIC	??_C@_04HMGIPDKN@Euml?$AA@			; `string'
PUBLIC	??_C@_05JALBPEMN@Ecirc?$AA@			; `string'
PUBLIC	??_C@_06HOAJKEPN@Eacute?$AA@			; `string'
PUBLIC	??_C@_06CJCPONHE@Egrave?$AA@			; `string'
PUBLIC	??_C@_06PCMIHOPM@Ccedil?$AA@			; `string'
PUBLIC	??_C@_05GGABFNI@AElig?$AA@			; `string'
PUBLIC	??_C@_05CHPAJHPJ@Aring?$AA@			; `string'
PUBLIC	??_C@_04IJOIFFGN@Auml?$AA@			; `string'
PUBLIC	??_C@_06KCNKLAAC@Atilde?$AA@			; `string'
PUBLIC	??_C@_05LCALGNL@Acirc?$AA@			; `string'
PUBLIC	??_C@_06IKEGIAOO@Aacute?$AA@			; `string'
PUBLIC	??_C@_06NNGAMJGH@Agrave?$AA@			; `string'
PUBLIC	??_C@_06JMONPFKG@iquest?$AA@			; `string'
PUBLIC	??_C@_06NMNJFLLK@frac34?$AA@			; `string'
PUBLIC	??_C@_06IJAHCIFC@frac12?$AA@			; `string'
PUBLIC	??_C@_06NPFNIPNE@frac14?$AA@			; `string'
PUBLIC	??_C@_05MPFJLGEB@raquo?$AA@			; `string'
PUBLIC	??_C@_04HMAEPGHP@ordm?$AA@			; `string'
PUBLIC	??_C@_04EJOCKNLB@sup1?$AA@			; `string'
PUBLIC	??_C@_05KLIFGPMF@cedil?$AA@			; `string'
PUBLIC	??_C@_06HHCHNCAA@middot?$AA@			; `string'
PUBLIC	??_C@_04GIAGJOJD@para?$AA@			; `string'
PUBLIC	??_C@_05PCPGMEFP@micro?$AA@			; `string'
PUBLIC	??_C@_05EEJEIAPO@acute?$AA@			; `string'
PUBLIC	??_C@_04HLNEMPDD@sup3?$AA@			; `string'
PUBLIC	??_C@_04GCMPPOHC@sup2?$AA@			; `string'
PUBLIC	??_C@_06CAEEBBM@plusmn?$AA@			; `string'
PUBLIC	??_C@_03OFPLEBM@deg?$AA@			; `string'
PUBLIC	??_C@_04IMHNEFHF@macr?$AA@			; `string'
PUBLIC	??_C@_03HLCNLMFP@reg?$AA@			; `string'
PUBLIC	??_C@_03BPAIHHLG@shy?$AA@			; `string'
PUBLIC	??_C@_03NJKJADM@not?$AA@			; `string'
PUBLIC	??_C@_05PGIFNFKK@laquo?$AA@			; `string'
PUBLIC	??_C@_04JPPACPLE@ordf?$AA@			; `string'
PUBLIC	??_C@_04COAGEIMF@copy?$AA@			; `string'
PUBLIC	??_C@_03LBNAMJF@uml?$AA@			; `string'
PUBLIC	??_C@_04IKJFFMEH@sect?$AA@			; `string'
PUBLIC	??_C@_06ILPBEBAD@brvbar?$AA@			; `string'
PUBLIC	??_C@_03HNOOIABH@yen?$AA@			; `string'
PUBLIC	??_C@_06HEGEHONB@curren?$AA@			; `string'
PUBLIC	??_C@_05EBEEKLCG@pound?$AA@			; `string'
PUBLIC	??_C@_04OCKNFIJG@cent?$AA@			; `string'
PUBLIC	??_C@_05BNEGCBFC@iexcl?$AA@			; `string'
PUBLIC	??_C@_04PHHIFBLJ@nbsp?$AA@			; `string'
PUBLIC	?strstr@@YAPADPADPBD@Z				; strstr
PUBLIC	?write@?$basic_ostream@DU?$char_traits@D@std@@@std@@QAEAAV12@PBDH@Z ; std::basic_ostream<char,std::char_traits<char> >::write
PUBLIC	?_Sgetn_s@?$basic_streambuf@DU?$char_traits@D@std@@@std@@QAEHPADIH@Z ; std::basic_streambuf<char,std::char_traits<char> >::_Sgetn_s
PUBLIC	?_Read_s@?$basic_istream@DU?$char_traits@D@std@@@std@@QAEAAV12@PADIH@Z ; std::basic_istream<char,std::char_traits<char> >::_Read_s
PUBLIC	?read@?$basic_istream@DU?$char_traits@D@std@@@std@@QAEAAV12@PADH@Z ; std::basic_istream<char,std::char_traits<char> >::read
PUBLIC	?gcount@?$basic_istream@DU?$char_traits@D@std@@@std@@QBEHXZ ; std::basic_istream<char,std::char_traits<char> >::gcount
PUBLIC	?strrchr@@YAPADPADH@Z				; strrchr
PUBLIC	?strchr@@YAPADPADH@Z				; strchr
PUBLIC	??_Gsoap@@UAEPAXI@Z				; soap::`scalar deleting destructor'
PUBLIC	_soap_double_nan
PUBLIC	??_C@_07FCIFDIFE@?$AN?6?$CFlX?$AN?6?$AA@	; `string'
PUBLIC	??_C@_02KCAKIFL@lt?$AA@				; `string'
PUBLIC	??_C@_02GHFEHLK@gt?$AA@				; `string'
PUBLIC	??_C@_03DCBBJBAA@amp?$AA@			; `string'
PUBLIC	??_C@_04KJFGKBNM@quot?$AA@			; `string'
PUBLIC	??_C@_04LBCJFAKL@apos?$AA@			; `string'
PUBLIC	??_C@_04ONHKJKNE@xml?5?$AA@			; `string'
PUBLIC	??_C@_0L@GJNPICMJ@?5encoding?$DN?$AA@		; `string'
PUBLIC	??_C@_0M@CIPLLKIK@iso?98859?91?$CK?$AA@		; `string'
PUBLIC	??_C@_07KFPCELGH@latin1?$CK?$AA@		; `string'
PUBLIC	??_C@_06ENEJBNNE@utf?98?$CK?$AA@		; `string'
PUBLIC	??_C@_0M@BMFKMGMG@xop?3Include?$AA@		; `string'
PUBLIC	??_C@_05IEDFPCMN@?$CFs?$FL?$CFd?$AA@		; `string'
PUBLIC	??_C@_03EBJOKFHF@?5?$CFd?$AA@			; `string'
PUBLIC	??_C@_03LEIBKMN@?0?$CFd?$AA@			; `string'
PUBLIC	??_C@_03PNKAICOI@?$FL?$CFd?$AA@			; `string'
PUBLIC	??_C@_03PJHHNEEI@xml?$AA@			; `string'
PUBLIC	??_C@_0M@NANEACJL@xsd?3ur?9type?$AA@		; `string'
PUBLIC	??_C@_0BC@NFJDOJIM@WSAStartup?5failed?$AA@	; `string'
PUBLIC	??_C@_0BE@GDJAADON@TCP?1UDP?5IP?5error?5?$CFd?$AA@ ; `string'
PUBLIC	??_C@_0CB@DBACHNOG@TCP?5init?5failed?5in?5tcp_connect?$CI?$CJ@ ; `string'
PUBLIC	??_C@_0BP@IBLNNK@socket?5failed?5in?5tcp_connect?$CI?$CJ?$AA@ ; `string'
PUBLIC	??_C@_0CN@JFNFHAEF@setsockopt?5SO_LINGER?5failed?5in?5t@ ; `string'
PUBLIC	??_C@_0CD@GCKLAJL@setsockopt?5failed?5in?5tcp_connect@ ; `string'
PUBLIC	??_C@_0DA@GNDCAGOP@setsockopt?5SO_KEEPALIVE?5failed?5i@ ; `string'
PUBLIC	??_C@_0CN@CAACJAKC@setsockopt?5SO_SNDBUF?5failed?5in?5t@ ; `string'
PUBLIC	??_C@_0CN@JLLHDGBH@setsockopt?5SO_RCVBUF?5failed?5in?5t@ ; `string'
PUBLIC	??_C@_0CP@ECDFPEN@setsockopt?5TCP_NODELAY?5failed?5in@ ; `string'
PUBLIC	??_C@_0CP@BEACMDAL@get?5proxy?5host?5by?5name?5failed?5in@ ; `string'
PUBLIC	??_C@_0CJ@HHNLALCP@get?5host?5by?5name?5failed?5in?5tcp_c@ ; `string'
PUBLIC	??_C@_0CA@EGALGEOM@connect?5failed?5in?5tcp_connect?$CI?$CJ?$AA@ ; `string'
PUBLIC	??_C@_07MKALMBDJ@Timeout?$AA@			; `string'
PUBLIC	??_C@_07NHIIGDKE@https?3?$CK?$AA@		; `string'
PUBLIC	??_C@_0BP@EOFJAGHM@TCP?5init?5failed?5in?5soap_bind?$CI?$CJ?$AA@ ; `string'
PUBLIC	??_C@_0BN@LIAJIIPM@socket?5failed?5in?5soap_bind?$CI?$CJ?$AA@ ; `string'
PUBLIC	??_C@_0CB@LHEHKJOM@setsockopt?5failed?5in?5soap_bind?$CI?$CJ@ ; `string'
PUBLIC	??_C@_0CO@IMNBHKGL@setsockopt?5SO_KEEPALIVE?5failed?5i@ ; `string'
PUBLIC	??_C@_0CL@HDDANLDN@setsockopt?5SO_SNDBUF?5failed?5in?5s@ ; `string'
PUBLIC	??_C@_0CL@JJJGHOEP@setsockopt?5SO_RCVBUF?5failed?5in?5s@ ; `string'
PUBLIC	??_C@_0CN@KADDKKPF@setsockopt?5TCP_NODELAY?5failed?5in@ ; `string'
PUBLIC	??_C@_0CH@FGHBILAG@get?5host?5by?5name?5failed?5in?5soap_@ ; `string'
PUBLIC	??_C@_0BL@GFJLCODA@bind?5failed?5in?5soap_bind?$CI?$CJ?$AA@ ; `string'
PUBLIC	??_C@_0BN@GKFGOOJD@listen?5failed?5in?5soap_bind?$CI?$CJ?$AA@ ; `string'
PUBLIC	??_C@_0BN@DONKIDPM@select?5failed?5in?5soap_poll?$CI?$CJ?$AA@ ; `string'
PUBLIC	??_C@_0BP@HJFOKHGA@accept?5failed?5in?5soap_accept?$CI?$CJ?$AA@ ; `string'
PUBLIC	??_C@_0CN@IPOEJJJL@setsockopt?5SO_LINGER?5failed?5in?5s@ ; `string'
PUBLIC	??_C@_0CD@BMBLFJEF@setsockopt?5failed?5in?5soap_accept@ ; `string'
PUBLIC	??_C@_0DA@HHADOPDB@setsockopt?5SO_KEEPALIVE?5failed?5i@ ; `string'
PUBLIC	??_C@_0CN@DKDDHJHM@setsockopt?5SO_SNDBUF?5failed?5in?5s@ ; `string'
PUBLIC	??_C@_0CN@IBIGNPMJ@setsockopt?5SO_RCVBUF?5failed?5in?5s@ ; `string'
PUBLIC	??_C@_0CP@BOBCLGJD@setsockopt?5TCP_NODELAY?5failed?5in@ ; `string'
PUBLIC	??_C@_0CC@JGPGJFPH@no?5master?5socket?5in?5soap_accept?$CI@ ; `string'
PUBLIC	??_C@_04CMBCJJJD@href?$AA@			; `string'
PUBLIC	??_C@_04MLBGAAHD@cid?3?$AA@			; `string'
PUBLIC	??_C@_01PPODPGHN@?$DO?$AA@			; `string'
PUBLIC	??_C@_07MEMIDCKI@?$AN?60?$AN?6?$AN?6?$AA@	; `string'
PUBLIC	??_C@_02BOGAIONP@ab?$AA@			; `string'
PUBLIC	??_C@_01MCMALHOG@a?$AA@				; `string'
PUBLIC	??_C@_04OEJDHHEG@?$CF?49G?$AA@			; `string'
PUBLIC	??_C@_06MNPIOIFE@?$CF?417lG?$AA@		; `string'
PUBLIC	??_C@_08HGNFPOFN@cid?3id?$CFd?$AA@		; `string'
PUBLIC	??_C@_03GCKCNDHP@1?41?$AA@			; `string'
PUBLIC	??_C@_0CI@FMJEECLD@?$DM?$DPxml?5version?$DN?$CC1?40?$CC?5encoding?$DN?$CCUT@ ; `string'
PUBLIC	??_C@_01MNNFJEPP@?$DM?$AA@			; `string'
PUBLIC	??_C@_08HMPLFLKJ@xmlns?3?$CFs?$AA@		; `string'
PUBLIC	??_C@_03HCMCBFLP@_?$CFd?$AA@			; `string'
PUBLIC	??_C@_08JNIDGPLJ@xsi?3type?$AA@			; `string'
PUBLIC	??_C@_0BC@LJIIOGEO@SOAP?9ENC?3position?$AA@	; `string'
PUBLIC	??_C@_0O@HCOOBFLG@SOAP?9ENV?3role?$AA@		; `string'
PUBLIC	??_C@_0P@OHPBIEEK@SOAP?9ENV?3actor?$AA@		; `string'
PUBLIC	??_C@_0BI@ENKFHJBH@SOAP?9ENV?3mustUnderstand?$AA@ ; `string'
PUBLIC	??_C@_0BH@DOAGFCPF@SOAP?9ENV?3encodingStyle?$AA@ ; `string'
PUBLIC	??_C@_0P@EFIHKLBM@SOAP?9ENC?3Array?$AA@		; `string'
PUBLIC	??_C@_0BC@GCPDJBOG@SOAP?9ENC?3itemType?$AA@	; `string'
PUBLIC	??_C@_0BD@IKLKJNBD@SOAP?9ENC?3arraySize?$AA@	; `string'
PUBLIC	??_C@_0BA@CCJOJBBI@SOAP?9ENC?3offset?$AA@	; `string'
PUBLIC	??_C@_0BD@GFBEJDEK@SOAP?9ENC?3arrayType?$AA@	; `string'
PUBLIC	??_C@_02ILLPBGAO@?$DN?$CC?$AA@			; `string'
PUBLIC	??_C@_02HCGKDMEN@?1?$DO?$AA@			; `string'
PUBLIC	??_C@_02DPNDACHE@?$DM?1?$AA@			; `string'
PUBLIC	??_C@_0N@HAMJFIGF@SOAP?9ENC?3ref?$AA@		; `string'
PUBLIC	??_C@_04BDMFGIGK@?$CD_?$CFd?$AA@		; `string'
PUBLIC	??_C@_07KJDFMKIE@xsi?3nil?$AA@			; `string'
PUBLIC	??_C@_0BA@JOBDACAK@SOAP?9RPC?3result?$AA@	; `string'
PUBLIC	??_C@_0P@CNMICKND@xmlns?3SOAP?9RPC?$AA@		; `string'
PUBLIC	??_C@_07EFBDHEMP@?3result?$AA@			; `string'
PUBLIC	??_C@_06PNFLLAEF@xmlns?3?$AA@			; `string'
PUBLIC	??_C@_05PPEFOGKI@xmlns?$AA@			; `string'
PUBLIC	??_C@_06BGJENONN@wsu?3Id?$AA@			; `string'
PUBLIC	??_C@_08DJPLLOHP@xsi?3null?$AA@			; `string'
PUBLIC	??_C@_0O@BGJHDLJG@SOAP?9ENC?3root?$AA@		; `string'
PUBLIC	??_C@_0CL@EFBJIKLI@http?3?1?1schemas?4xmlsoap?4org?1soap?1@ ; `string'
PUBLIC	??_C@_03GCDGINBO@ref?$AA@			; `string'
PUBLIC	??_C@_0DC@KBJFLDJI@http?3?1?1www?4w3?4org?12003?105?1soap?9e@ ; `string'
PUBLIC	??_C@_05KACKFEPH@?$CG?$CDx9?$DL?$AA@		; `string'
PUBLIC	??_C@_05PKMIGNBP@?$CG?$CDxA?$DL?$AA@		; `string'
PUBLIC	??_C@_05PMADKPPE@?$CG?$CDxD?$DL?$AA@		; `string'
PUBLIC	??_C@_05JKJFEODM@?$CGamp?$DL?$AA@		; `string'
PUBLIC	??_C@_04GJOGLFEJ@?$CGlt?$DL?$AA@		; `string'
PUBLIC	??_C@_04LOOHDCEI@?$CGgt?$DL?$AA@		; `string'
PUBLIC	??_C@_06DDLNFFBN@?$CGquot?$DL?$AA@		; `string'
PUBLIC	??_C@_03MAABEHOM@lt?$DL?$AA@			; `string'
PUBLIC	??_C@_03BHAAMAON@gt?$DL?$AA@			; `string'
PUBLIC	??_C@_04DMIAPOKJ@amp?$DL?$AA@			; `string'
PUBLIC	??_C@_05LDHOCHGG@quot?$DL?$AA@			; `string'
PUBLIC	??_C@_05HNAHLMAI@apos?$DL?$AA@			; `string'
PUBLIC	??_C@_01EEMJAFIK@?6?$AA@			; `string'
PUBLIC	??_C@_04JNHIEKJE@?3int?$AA@			; `string'
PUBLIC	??_C@_06DFBHHOOH@?3short?$AA@			; `string'
PUBLIC	??_C@_05FFGLOOMC@?3byte?$AA@			; `string'
PUBLIC	??_C@_03JALODAI@?$CFld?$AA@			; `string'
PUBLIC	??_C@_05LLAMLEHD@?$CFI64d?$AA@			; `string'
PUBLIC	??_C@_08ICEBEHNK@?3integer?$AA@			; `string'
PUBLIC	??_C@_0BB@NDNOKOEA@?3positiveInteger?$AA@	; `string'
PUBLIC	??_C@_0BB@FHGJHLHJ@?3negativeInteger?$AA@	; `string'
PUBLIC	??_C@_0BE@HIKONPMJ@?3nonPositiveInteger?$AA@	; `string'
PUBLIC	??_C@_0BE@PMBJAKPA@?3nonNegativeInteger?$AA@	; `string'
PUBLIC	??_C@_05LMKOBMME@?3long?$AA@			; `string'
PUBLIC	??_C@_03ICJPMMHB@NaN?$AA@			; `string'
PUBLIC	??_C@_03OEIAHPBN@INF?$AA@			; `string'
PUBLIC	??_C@_04DKLHLMKJ@?9INF?$AA@			; `string'
PUBLIC	??_C@_04LFPHEJAJ@?$CLINF?$AA@			; `string'
PUBLIC	??_C@_02BEIEFPIG@?$CFg?$AA@			; `string'
PUBLIC	??_C@_06INOMFGCG@?3float?$AA@			; `string'
PUBLIC	??_C@_07PBNBEHML@?3double?$AA@			; `string'
PUBLIC	??_C@_08HMJFKOLE@?3decimal?$AA@			; `string'
PUBLIC	??_C@_0O@FKBEEKGD@?3unsignedLong?$AA@		; `string'
PUBLIC	??_C@_0N@EEHCOMNL@?3unsignedInt?$AA@		; `string'
PUBLIC	??_C@_0P@HNEDPCPK@?3unsignedShort?$AA@		; `string'
PUBLIC	??_C@_0O@LDNBLIGF@?3unsignedByte?$AA@		; `string'
PUBLIC	??_C@_03CCCGLAML@?$CFlg?$AA@			; `string'
PUBLIC	??_C@_03FKNCMABI@?$CFlu?$AA@			; `string'
PUBLIC	??_C@_05OINFJHGD@?$CFI64u?$AA@			; `string'
PUBLIC	??_C@_04FNFHGAAP@xml?3?$AA@			; `string'
PUBLIC	??_C@_02JMMFPCED@?$CC?$CC?$AA@			; `string'
PUBLIC	??_C@_01JLIPDDHJ@?3?$AA@			; `string'
PUBLIC	??_C@_09MCFEFMEO@xmlns?3_?$CFd?$AA@		; `string'
PUBLIC	??_C@_0BC@EJFCONBF@?$CFY?9?$CFm?9?$CFdT?$CFH?3?$CFM?3?$CFS?$AA@ ; `string'
PUBLIC	??_C@_0L@PEBBIKFI@?$CF?$CL03d?3?$CF02d?$AA@	; `string'
PUBLIC	??_C@_0BF@KNOONEPL@1969?912?931T23?359?359Z?$AA@ ; `string'
PUBLIC	??_C@_0BG@CNJMEEAL@?$CFd?9?$CFd?9?$CFdT?$CFd?3?$CFd?3?$CFd?$CF31s?$AA@ ; `string'
PUBLIC	??_C@_0BH@OJGJFHHH@?$CF4d?$CF2d?$CF2dT?$CFd?3?$CFd?3?$CFd?$CF31s?$AA@ ; `string'
PUBLIC	??_C@_0BI@KJDFMOL@?$CF4d?$CF2d?$CF2dT?$CF2d?$CF2d?$CF2d?$CF31s?$AA@ ; `string'
PUBLIC	??_C@_05NFGPCJDJ@?$CFd?3?$CFd?$AA@		; `string'
PUBLIC	??_C@_09ONEMIJDH@?3dateTime?$AA@		; `string'
PUBLIC	??_C@_0L@BJKBKLJG@Content?9ID?$AA@		; `string'
PUBLIC	??_C@_0BB@EPBMDIDM@Content?9Location?$AA@	; `string'
PUBLIC	??_C@_0BE@LMOOGHBG@Content?9Disposition?$AA@	; `string'
PUBLIC	??_C@_04MEMAJGDJ@name?$AA@			; `string'
PUBLIC	??_C@_0N@LAFFMKKA@Content?9Type?$AA@		; `string'
PUBLIC	??_C@_0BE@CDHADPEM@Content?9Description?$AA@	; `string'
PUBLIC	??_C@_0BK@MJFMDPAI@Content?9Transfer?9Encoding?$AA@ ; `string'
PUBLIC	??_C@_03KBLJEPNL@?6?9?9?$AA@			; `string'
PUBLIC	??_C@_02PCIJFNDE@?$AN?6?$AA@			; `string'
PUBLIC	??_C@_04LOEPKDGL@?$AN?6?9?9?$AA@		; `string'
PUBLIC	??_C@_0P@GJMOGDPG@Content?9Type?3?5?$AA@	; `string'
PUBLIC	??_C@_0BM@MCMHCKIN@Content?9Transfer?9Encoding?3?5?$AA@ ; `string'
PUBLIC	??_C@_0N@NKGHAKLJ@Content?9ID?3?5?$AA@		; `string'
PUBLIC	??_C@_0BD@OHIJMKJJ@Content?9Location?3?5?$AA@	; `string'
PUBLIC	??_C@_0BG@FGNCEKKA@Content?9Description?3?5?$AA@ ; `string'
PUBLIC	??_C@_02BAABKJLB@?9?9?$AA@			; `string'
PUBLIC	??_C@_02EGOFBIJA@?$DN?$DN?$AA@			; `string'
PUBLIC	??_C@_0BE@MKHJBFJG@?$DMSOAP?9ENV?3Envelope?$DO?$AA@ ; `string'
PUBLIC	??_C@_0BB@KDHCEMMM@application?1dime?$AA@	; `string'
PUBLIC	??_C@_05FKGKDBHO@HTTP?1?$AA@			; `string'
PUBLIC	??_C@_05LPJJJLLB@POST?5?$AA@			; `string'
PUBLIC	??_C@_04IBPFIGHK@GET?5?$AA@			; `string'
PUBLIC	??_C@_04DCMJKHH@PUT?5?$AA@			; `string'
PUBLIC	??_C@_07GOAKFIAN@DELETE?5?$AA@			; `string'
PUBLIC	??_C@_05PMJKDPIC@HEAD?5?$AA@			; `string'
PUBLIC	??_C@_0L@LOBKJNKF@HTTP?5Error?$AA@		; `string'
PUBLIC	??_C@_04CPPPJGME@Host?$AA@			; `string'
PUBLIC	??_C@_07FGAOOBMN@http?3?1?1?$AA@		; `string'
PUBLIC	??_C@_0BC@GGLOKPIO@multipart?1related?$AA@	; `string'
PUBLIC	??_C@_0BE@PILCJFLE@multipart?1form?9data?$AA@	; `string'
PUBLIC	??_C@_08KIKGFOKI@boundary?$AA@			; `string'
PUBLIC	??_C@_05FAGFPHJG@start?$AA@			; `string'
PUBLIC	??_C@_06DDLLCOJG@action?$AA@			; `string'
PUBLIC	??_C@_0P@HOJGPHBA@Content?9Length?$AA@		; `string'
PUBLIC	??_C@_0BB@KFPPKJHF@Content?9Encoding?$AA@	; `string'
PUBLIC	??_C@_07FNHFFEJG@deflate?$AA@			; `string'
PUBLIC	??_C@_04HOHEGKBO@gzip?$AA@			; `string'
PUBLIC	??_C@_0BC@ELHLFCNH@Transfer?9Encoding?$AA@	; `string'
PUBLIC	??_C@_07KCKHAHHI@chunked?$AA@			; `string'
PUBLIC	??_C@_0L@PJJKMLL@Connection?$AA@		; `string'
PUBLIC	??_C@_0L@FFDPOIEG@keep?9alive?$AA@		; `string'
PUBLIC	??_C@_05LBOHBHFK@close?$AA@			; `string'
PUBLIC	??_C@_0O@NAFGPKMI@Authorization?$AA@		; `string'
PUBLIC	??_C@_07LLIFBKCB@Basic?5?$CK?$AA@		; `string'
PUBLIC	??_C@_0BB@KEDJJIFI@WWW?9Authenticate?$AA@	; `string'
PUBLIC	??_C@_05ELABLNGD@realm?$AA@			; `string'
PUBLIC	??_C@_06GHDJNLIG@Expect?$AA@			; `string'
PUBLIC	??_C@_0N@IOPAKPOD@100?9continue?$AA@		; `string'
PUBLIC	??_C@_0BG@NPCCMLBA@HTTP?11?41?5100?5Continue?$AA@ ; `string'
PUBLIC	??_C@_0L@BIMPHKBC@SOAPAction?$AA@		; `string'
PUBLIC	??_C@_08KDOEBHGA@Location?$AA@			; `string'
PUBLIC	??_C@_0BA@HEMDDLEL@X?9Forwarded?9For?$AA@	; `string'
PUBLIC	??_C@_03NBBPFACD@?$DN?0?$DL?$AA@		; `string'
PUBLIC	??_C@_02NFLHGFB@?0?$DL?$AA@			; `string'
PUBLIC	??_C@_0EA@OLHLLNHK@application?1xop?$CLxml?$DL?5charset?$DNutf@ ; `string'
PUBLIC	??_C@_0CE@HOOLIGFB@application?1soap?$CLxml?$DL?5charset?$DNut@ ; `string'
PUBLIC	??_C@_0BI@JFLEALON@text?1xml?$DL?5charset?$DNutf?98?$AA@ ; `string'
PUBLIC	??_C@_0EO@EHIFGEMB@?9?9?$CFs?$AN?6Content?9Type?3?5?$CFs?$AN?6Content?9@ ; `string'
PUBLIC	??_C@_0BC@GKKKFKAB@SOAP?9ENV?3Envelope?$AA@	; `string'
PUBLIC	??_C@_04PNIFHPHN@html?$AA@			; `string'
PUBLIC	??_C@_04MJIIEFNN@Body?$AA@			; `string'
PUBLIC	??_C@_0O@DLKLKBNF@SOAP?9ENV?3Body?$AA@		; `string'
PUBLIC	??_C@_09LLHAEKON@soap?4udp?3?$AA@		; `string'
PUBLIC	??_C@_0BJ@CDMHJEKP@text?1html?$DL?5charset?$DNutf?98?$AA@ ; `string'
PUBLIC	??_C@_0CD@GGDEJPLO@application?1xop?$CLxml?$DL?5charset?$DNutf@ ; `string'
PUBLIC	??_C@_0CJ@HGDIJJKJ@multipart?1related?$DL?5boundary?$DN?$CC?$CFs?$CC@ ; `string'
PUBLIC	??_C@_0L@ENHEIJFK@?$CC?$DL?5start?$DN?$CC?$AA@	; `string'
PUBLIC	??_C@_0P@KJFFOCGK@?$DL?5start?9info?$DN?$CC?$AA@ ; `string'
PUBLIC	??_C@_03HAPOJHBM@GET?$AA@			; `string'
PUBLIC	??_C@_04HCJEIHPL@POST?$AA@			; `string'
PUBLIC	??_C@_06GLIDCHCJ@http?3?$CK?$AA@		; `string'
PUBLIC	??_C@_06EFCFIIJL@httpg?3?$AA@			; `string'
PUBLIC	??_C@_0O@FAODEEBC@?$CFs?5?$CFs?5HTTP?1?$CFs?$AA@ ; `string'
PUBLIC	??_C@_0P@PENEPKMC@?$CFs?5?1?$CFs?5HTTP?1?$CFs?$AA@ ; `string'
PUBLIC	??_C@_05HKPGCKL@?$CFs?3?$CFd?$AA@		; `string'
PUBLIC	??_C@_09MBLJBAGJ@gSOAP?12?47?$AA@		; `string'
PUBLIC	??_C@_0L@DMPACEMJ@User?9Agent?$AA@		; `string'
PUBLIC	??_C@_05CCMOGDN@?$CFs?3?$CFs?$AA@		; `string'
PUBLIC	??_C@_06FFOGOLGD@Basic?5?$AA@			; `string'
PUBLIC	??_C@_0BE@DCLKKIPG@Proxy?9Authorization?$AA@	; `string'
PUBLIC	??_C@_04OEDFLLKD@?$CC?$CFs?$CC?$AA@		; `string'
PUBLIC	??_C@_06DAENNINM@200?5OK?$AA@			; `string'
PUBLIC	??_C@_0N@GGGJJCHF@202?5ACCEPTED?$AA@		; `string'
PUBLIC	??_C@_0L@HINEDFNI@HTTP?1?$CFs?5?$CFs?$AA@	; `string'
PUBLIC	??_C@_06PGDKHFME@Status?$AA@			; `string'
PUBLIC	??_C@_0O@OIHDPKBJ@HTTP?1?$CFs?5?$CFd?5?$CFs?$AA@ ; `string'
PUBLIC	??_C@_0BC@NIIEEHHB@gSOAP?5Web?5Service?$AA@	; `string'
PUBLIC	??_C@_0BB@GEFAMELB@Basic?5realm?$DN?$CC?$CFs?$CC?$AA@ ; `string'
PUBLIC	??_C@_0BA@IGHKKIMP@SOAP?9ENV?3Sender?$AA@	; `string'
PUBLIC	??_C@_0BA@NLEABOII@400?5Bad?5Request?$AA@	; `string'
PUBLIC	??_C@_0BK@FNMKOGBN@500?5Internal?5Server?5Error?$AA@ ; `string'
PUBLIC	??_C@_06LGMEBDBC@Server?$AA@			; `string'
PUBLIC	??_C@_0DG@HKJBMIKH@Validation?5constraint?5violation?3@ ; `string'
PUBLIC	??_C@_0CG@LEBAOEFP@Validation?5constraint?5violation?3@ ; `string'
PUBLIC	??_C@_0BA@JGDIJGNL@SOAP?9ENV?3Client?$AA@	; `string'
PUBLIC	??_C@_0N@JOEFJCHK@Client?5fault?$AA@		; `string'
PUBLIC	??_C@_0N@LCJPOAAP@Server?5fault?$AA@		; `string'
PUBLIC	??_C@_0BP@EDHHHBAK@tag?5name?5or?5namespace?5mismatch?$AA@ ; `string'
PUBLIC	??_C@_0BE@GBNPKFOD@data?5type?5mismatch?5?$AA@	; `string'
PUBLIC	??_C@_0BK@BDHDOCNN@Well?9formedness?5violation?$AA@ ; `string'
PUBLIC	??_C@_0BD@HDMBMFLH@No?5XML?5element?5tag?$AA@	; `string'
PUBLIC	??_C@_0BI@MFGAEHIJ@SOAP?9ENV?3MustUnderstand?$AA@ ; `string'
PUBLIC	??_C@_0EC@DIEDGBJC@The?5data?5in?5element?5?8?$CFs?8?5must?5be@ ; `string'
PUBLIC	??_C@_0BJ@OACCBMEJ@SOAP?9ENV?3VersionMismatch?$AA@ ; `string'
PUBLIC	??_C@_0CO@JCAMFCDG@Invalid?5SOAP?5message?5or?5SOAP?5ver@ ; `string'
PUBLIC	??_C@_0BN@OABEEJDM@SOAP?9ENV?3DataEncodingUnknown?$AA@ ; `string'
PUBLIC	??_C@_0BP@NKHANBGK@Unsupported?5SOAP?5data?5encoding?$AA@ ; `string'
PUBLIC	??_C@_0BA@DMKNFBBB@namespace?5error?$AA@	; `string'
PUBLIC	??_C@_0L@PDEMLIEM@User?5error?$AA@		; `string'
PUBLIC	??_C@_0M@HCPCIMCN@Fatal?5error?$AA@		; `string'
PUBLIC	??_C@_0EF@HBJFOFK@Method?5?8?$CFs?8?5not?5implemented?3?5met@ ; `string'
PUBLIC	??_C@_0BM@MENEPEMK@Data?5required?5for?5operation?$AA@ ; `string'
PUBLIC	??_C@_0CA@BHFEEBKL@HTTP?5GET?5method?5not?5implemented?$AA@ ; `string'
PUBLIC	??_C@_0CA@DBKHPHAA@HTTP?5PUT?5method?5not?5implemented?$AA@ ; `string'
PUBLIC	??_C@_0CB@GICAEFAM@HTTP?5HEAD?5method?5not?5implemented@ ; `string'
PUBLIC	??_C@_0BM@KGAMDCLK@HTTP?5method?5not?5implemented?$AA@ ; `string'
PUBLIC	??_C@_0O@NALGGDJF@Out?5of?5memory?$AA@		; `string'
PUBLIC	??_C@_0CL@HFBNDNPH@Memory?5overflow?5or?5memory?5corrup@ ; `string'
PUBLIC	??_C@_0BF@GFHEHPAM@Header?5line?5too?5long?$AA@	; `string'
PUBLIC	??_C@_0BK@IJNJOFHI@Array?5index?5out?5of?5bounds?$AA@ ; `string'
PUBLIC	??_C@_0BA@NJOHCEBG@nil?5not?5allowed?$AA@	; `string'
PUBLIC	??_C@_0BM@BCCCPBMJ@multiple?5definitions?5of?5id?5?$AA@ ; `string'
PUBLIC	??_C@_0BF@NPKHDOOL@SOAP?9ENC?3DuplicateID?$AA@	; `string'
PUBLIC	??_C@_0BE@MPBPOAHN@missing?5id?5for?5ref?5?$AA@	; `string'
PUBLIC	??_C@_0BD@NNKPGICN@SOAP?9ENC?3MissingID?$AA@	; `string'
PUBLIC	??_C@_0CG@KLBPBEIF@incompatible?5object?5type?5ref?1id?5@ ; `string'
PUBLIC	??_C@_0CB@LLFCFDEP@Message?5too?5large?5for?5UDP?5packet@ ; `string'
PUBLIC	??_C@_0CC@KGMKOPGF@An?5HTTP?5processing?5error?5occurre@ ; `string'
PUBLIC	??_C@_0DF@GLMBMACG@OpenSSL?5not?5installed?3?5recompile@ ; `string'
PUBLIC	??_C@_0BG@IBFEEHMP@Plugin?5registry?5error?$AA@	; `string'
PUBLIC	??_C@_0BC@JILKAMFB@DIME?5format?5error?$AA@	; `string'
PUBLIC	??_C@_0CA@OHINPGEO@DIME?5href?5to?5missing?5attachment?$AA@ ; `string'
PUBLIC	??_C@_0CA@FOKLPDEJ@DIME?5version?1transmission?5error?$AA@ ; `string'
PUBLIC	??_C@_0BC@DMDFBBON@End?5of?5DIME?5error?$AA@	; `string'
PUBLIC	??_C@_0BC@GALJBELM@MIME?5format?5error?$AA@	; `string'
PUBLIC	??_C@_0CA@PFEDMHLA@MIME?5href?5to?5missing?5attachment?$AA@ ; `string'
PUBLIC	??_C@_0BC@EHHICPGI@End?5of?5MIME?5error?$AA@	; `string'
PUBLIC	??_C@_0EI@DMDOKJJA@Zlib?1gzip?5not?5installed?5for?5?$CIde?$CJ@ ; `string'
PUBLIC	??_C@_0BL@IAKLNEOE@missing?5required?5attribute?$AA@ ; `string'
PUBLIC	??_C@_0BN@FOFAKJF@prohibited?5attribute?5present?$AA@ ; `string'
PUBLIC	??_C@_0BF@NAKMPMCF@occurrence?5violation?$AA@	; `string'
PUBLIC	??_C@_0BJ@BEFALLEK@content?5length?5violation?$AA@ ; `string'
PUBLIC	??_C@_0CP@LKNNNLAG@Maximum?5number?5of?5open?5connectio@ ; `string'
PUBLIC	??_C@_0BK@GDNDADLI@Stopped?3?5no?5response?5sent?$AA@ ; `string'
PUBLIC	??_C@_0BK@LNBGPKAI@End?5of?5file?5or?5no?5input?3?5?$AA@ ; `string'
PUBLIC	??_C@_0BC@BJFDHNPP@HTTP?5Error?3?5?$CFd?5?$CFs?$AA@ ; `string'
PUBLIC	??_C@_08PNOEHBEA@Error?5?$CFd?$AA@		; `string'
PUBLIC	??_C@_0BA@NJHKENFI@SOAP?9ENV?3Server?$AA@	; `string'
PUBLIC	??_C@_0BC@DABIKIOO@SOAP?9ENV?3Receiver?$AA@	; `string'
PUBLIC	??_C@_0EH@OEKCJEEM@Operation?5interrupted?5or?5timed?5o@ ; `string'
PUBLIC	??_C@_0DL@HBKFNCEG@Operation?5interrupted?5or?5timed?5o@ ; `string'
PUBLIC	??_C@_0CD@EBMJBALC@Operation?5interrupted?5or?5timed?5o@ ; `string'
PUBLIC	??_C@_0CK@KAKMECOH@Error?3?5soap?5struct?5state?5not?5ini@ ; `string'
PUBLIC	??_C@_0M@NIEENCAP@?$FLno?5detail?$FN?$AA@	; `string'
PUBLIC	??_C@_0M@NEEDGNL@?$FLno?5reason?$FN?$AA@	; `string'
PUBLIC	??_C@_0L@HPHPPAL@no?5subcode?$AA@		; `string'
PUBLIC	??_C@_07IBLMOOJE@SOAP?51?4?$AA@			; `string'
PUBLIC	??_C@_06BAOMBKPD@Error?5?$AA@			; `string'
PUBLIC	??_C@_0CF@JFPNHCMD@?$CFs?$CFd?5fault?3?5?$CFs?5?$FL?$CFs?$FN?6?$CC?$CFs?$CC?6Detail?3@ ; `string'
PUBLIC	??_C@_08IAKGCGCB@Detail?3?5?$AA@		; `string'
PUBLIC	??_C@_01OHGJGJJP@?$FL?$AA@			; `string'
PUBLIC	??_C@_08PPEKPCIO@?5fault?3?5?$AA@		; `string'
PUBLIC	??_C@_0CD@LNJDOMMI@Error?3?5soap?5struct?5not?5initializ@ ; `string'
PUBLIC	??_C@_0BK@GONPECDN@?$CFs?$CFc?6?$DM?$CB?9?9?5?$CK?$CK?5HERE?5?$CK?$CK?5?9?9?$DO?6?$AA@ ; `string'
PUBLIC	??_C@_03OFAPEBGM@?$CFs?6?$AA@			; `string'
PUBLIC	??_7soap@@6B@					; soap::`vftable'
EXTRN	_WSACleanup@0:PROC
EXTRN	_bind@12:PROC
EXTRN	_htonl@4:PROC
EXTRN	_listen@8:PROC
EXTRN	_ntohs@4:PROC
EXTRN	_fopen:PROC
EXTRN	_strstr:PROC
EXTRN	_rand:PROC
EXTRN	_write:PROC
EXTRN	_send@16:PROC
EXTRN	_sendto@24:PROC
EXTRN	_read:PROC
EXTRN	_ntohl@4:PROC
EXTRN	_recvfrom@24:PROC
EXTRN	_inet_addr@4:PROC
EXTRN	_gethostbyname@4:PROC
EXTRN	_connect@12:PROC
EXTRN	_ioctlsocket@12:PROC
EXTRN	_getsockopt@20:PROC
EXTRN	_htons@4:PROC
EXTRN	_setsockopt@20:PROC
EXTRN	_socket@12:PROC
EXTRN	_WSAGetLastError@0:PROC
EXTRN	_WSAStartup@8:PROC
EXTRN	_accept@12:PROC
EXTRN	_closesocket@4:PROC
EXTRN	_shutdown@8:PROC
EXTRN	_strrchr:PROC
EXTRN	_mbtowc:PROC
EXTRN	____mb_cur_max_func:PROC
EXTRN	_wctomb:PROC
EXTRN	_strtol:PROC
EXTRN	__isnan:PROC
EXTRN	_strtod:PROC
EXTRN	_strtoul:PROC
EXTRN	__imp__GetLastError@0:PROC
EXTRN	__imp__SetLastError@4:PROC
EXTRN	__gmtime64:PROC
EXTRN	__ftime64:PROC
EXTRN	_strftime:PROC
EXTRN	__localtime64:PROC
EXTRN	_sscanf:PROC
EXTRN	__mktime64:PROC
EXTRN	__setmode:PROC
EXTRN	_atol:PROC
EXTRN	_strncmp:PROC
EXTRN	_strchr:PROC
EXTRN	_strncat:PROC
EXTRN	_memmove:PROC
EXTRN	_sprintf:PROC
EXTRN	__imp__FormatMessageA@28:PROC
EXTRN	___WSAFDIsSet@8:PROC
EXTRN	_recv@16:PROC
EXTRN	_select@20:PROC
EXTRN	__snprintf:PROC
EXTRN	_strncpy:PROC
EXTRN	_fprintf:PROC
EXTRN	_malloc:PROC
EXTRN	??_Esoap@@UAEPAXI@Z:PROC			; soap::`vector deleting destructor'
_tcp_done DD	01H DUP (?)
;	COMDAT ??_7soap@@6B@
CONST	SEGMENT
??_7soap@@6B@ DD FLAT:??_R4soap@@6B@			; soap::`vftable'
	DD	FLAT:??_Esoap@@UAEPAXI@Z
CONST	ENDS
;	COMDAT ??_R4soap@@6B@
rdata$r	SEGMENT
??_R4soap@@6B@ DD 00H					; soap::`RTTI Complete Object Locator'
	DD	00H
	DD	00H
	DD	FLAT:??_R0?AUsoap@@@8
	DD	FLAT:??_R3soap@@8
rdata$r	ENDS
;	COMDAT ??_R3soap@@8
rdata$r	SEGMENT
??_R3soap@@8 DD	00H					; soap::`RTTI Class Hierarchy Descriptor'
	DD	00H
	DD	01H
	DD	FLAT:??_R2soap@@8
rdata$r	ENDS
;	COMDAT ??_R2soap@@8
rdata$r	SEGMENT
??_R2soap@@8 DD	FLAT:??_R1A@?0A@EA@soap@@8		; soap::`RTTI Base Class Array'
rdata$r	ENDS
;	COMDAT ??_R1A@?0A@EA@soap@@8
rdata$r	SEGMENT
??_R1A@?0A@EA@soap@@8 DD FLAT:??_R0?AUsoap@@@8		; soap::`RTTI Base Class Descriptor at (0,-1,0,64)'
	DD	00H
	DD	00H
	DD	0ffffffffH
	DD	00H
	DD	040H
	DD	FLAT:??_R3soap@@8
rdata$r	ENDS
;	COMDAT ??_R0?AUsoap@@@8
_DATA	SEGMENT
??_R0?AUsoap@@@8 DD FLAT:??_7type_info@@6B@		; soap `RTTI Type Descriptor'
	DD	00H
	DB	'.?AUsoap@@', 00H
_DATA	ENDS
;	COMDAT ??_C@_03OFAPEBGM@?$CFs?6?$AA@
CONST	SEGMENT
??_C@_03OFAPEBGM@?$CFs?6?$AA@ DB '%s', 0aH, 00H		; `string'
CONST	ENDS
;	COMDAT ??_C@_0BK@GONPECDN@?$CFs?$CFc?6?$DM?$CB?9?9?5?$CK?$CK?5HERE?5?$CK?$CK?5?9?9?$DO?6?$AA@
CONST	SEGMENT
??_C@_0BK@GONPECDN@?$CFs?$CFc?6?$DM?$CB?9?9?5?$CK?$CK?5HERE?5?$CK?$CK?5?9?9?$DO?6?$AA@ DB '%'
	DB	's%c', 0aH, '<!-- ** HERE ** -->', 0aH, 00H	; `string'
CONST	ENDS
;	COMDAT ??_C@_0CD@LNJDOMMI@Error?3?5soap?5struct?5not?5initializ@
CONST	SEGMENT
??_C@_0CD@LNJDOMMI@Error?3?5soap?5struct?5not?5initializ@ DB 'Error: soap'
	DB	' struct not initialized', 00H		; `string'
CONST	ENDS
;	COMDAT ??_C@_08PPEKPCIO@?5fault?3?5?$AA@
CONST	SEGMENT
??_C@_08PPEKPCIO@?5fault?3?5?$AA@ DB ' fault: ', 00H	; `string'
CONST	ENDS
;	COMDAT ??_C@_01OHGJGJJP@?$FL?$AA@
CONST	SEGMENT
??_C@_01OHGJGJJP@?$FL?$AA@ DB '[', 00H			; `string'
CONST	ENDS
;	COMDAT ??_C@_08IAKGCGCB@Detail?3?5?$AA@
CONST	SEGMENT
??_C@_08IAKGCGCB@Detail?3?5?$AA@ DB 'Detail: ', 00H	; `string'
CONST	ENDS
;	COMDAT ??_C@_0CF@JFPNHCMD@?$CFs?$CFd?5fault?3?5?$CFs?5?$FL?$CFs?$FN?6?$CC?$CFs?$CC?6Detail?3@
CONST	SEGMENT
??_C@_0CF@JFPNHCMD@?$CFs?$CFd?5fault?3?5?$CFs?5?$FL?$CFs?$FN?6?$CC?$CFs?$CC?6Detail?3@ DB '%'
	DB	's%d fault: %s [%s]', 0aH, '"%s"', 0aH, 'Detail: %s', 0aH, 00H ; `string'
CONST	ENDS
;	COMDAT ??_C@_06BAOMBKPD@Error?5?$AA@
CONST	SEGMENT
??_C@_06BAOMBKPD@Error?5?$AA@ DB 'Error ', 00H		; `string'
CONST	ENDS
;	COMDAT ??_C@_07IBLMOOJE@SOAP?51?4?$AA@
CONST	SEGMENT
??_C@_07IBLMOOJE@SOAP?51?4?$AA@ DB 'SOAP 1.', 00H	; `string'
CONST	ENDS
;	COMDAT ??_C@_0L@HPHPPAL@no?5subcode?$AA@
CONST	SEGMENT
??_C@_0L@HPHPPAL@no?5subcode?$AA@ DB 'no subcode', 00H	; `string'
CONST	ENDS
;	COMDAT ??_C@_0M@NEEDGNL@?$FLno?5reason?$FN?$AA@
CONST	SEGMENT
??_C@_0M@NEEDGNL@?$FLno?5reason?$FN?$AA@ DB '[no reason]', 00H ; `string'
CONST	ENDS
;	COMDAT ??_C@_0M@NIEENCAP@?$FLno?5detail?$FN?$AA@
CONST	SEGMENT
??_C@_0M@NIEENCAP@?$FLno?5detail?$FN?$AA@ DB '[no detail]', 00H ; `string'
CONST	ENDS
;	COMDAT ??_C@_0CK@KAKMECOH@Error?3?5soap?5struct?5state?5not?5ini@
CONST	SEGMENT
??_C@_0CK@KAKMECOH@Error?3?5soap?5struct?5state?5not?5ini@ DB 'Error: soa'
	DB	'p struct state not initialized', 0aH, 00H	; `string'
CONST	ENDS
;	COMDAT ??_C@_0CD@EBMJBALC@Operation?5interrupted?5or?5timed?5o@
CONST	SEGMENT
??_C@_0CD@EBMJBALC@Operation?5interrupted?5or?5timed?5o@ DB 'Operation in'
	DB	'terrupted or timed out', 00H		; `string'
CONST	ENDS
;	COMDAT ??_C@_0DL@HBKFNCEG@Operation?5interrupted?5or?5timed?5o@
CONST	SEGMENT
??_C@_0DL@HBKFNCEG@Operation?5interrupted?5or?5timed?5o@ DB 'Operation in'
	DB	'terrupted or timed out after %ds receive delay', 00H ; `string'
CONST	ENDS
;	COMDAT ??_C@_0EH@OEKCJEEM@Operation?5interrupted?5or?5timed?5o@
CONST	SEGMENT
??_C@_0EH@OEKCJEEM@Operation?5interrupted?5or?5timed?5o@ DB 'Operation in'
	DB	'terrupted or timed out after %ds send or %ds receive delay', 00H ; `string'
CONST	ENDS
;	COMDAT ??_C@_0BC@DABIKIOO@SOAP?9ENV?3Receiver?$AA@
CONST	SEGMENT
??_C@_0BC@DABIKIOO@SOAP?9ENV?3Receiver?$AA@ DB 'SOAP-ENV:Receiver', 00H ; `string'
CONST	ENDS
;	COMDAT ??_C@_0BA@NJHKENFI@SOAP?9ENV?3Server?$AA@
CONST	SEGMENT
??_C@_0BA@NJHKENFI@SOAP?9ENV?3Server?$AA@ DB 'SOAP-ENV:Server', 00H ; `string'
CONST	ENDS
;	COMDAT ??_C@_08PNOEHBEA@Error?5?$CFd?$AA@
CONST	SEGMENT
??_C@_08PNOEHBEA@Error?5?$CFd?$AA@ DB 'Error %d', 00H	; `string'
CONST	ENDS
;	COMDAT ??_C@_0BC@BJFDHNPP@HTTP?5Error?3?5?$CFd?5?$CFs?$AA@
CONST	SEGMENT
??_C@_0BC@BJFDHNPP@HTTP?5Error?3?5?$CFd?5?$CFs?$AA@ DB 'HTTP Error: %d %s'
	DB	00H						; `string'
CONST	ENDS
;	COMDAT ??_C@_0BK@LNBGPKAI@End?5of?5file?5or?5no?5input?3?5?$AA@
CONST	SEGMENT
??_C@_0BK@LNBGPKAI@End?5of?5file?5or?5no?5input?3?5?$AA@ DB 'End of file '
	DB	'or no input: ', 00H				; `string'
CONST	ENDS
;	COMDAT ??_C@_0BK@GDNDADLI@Stopped?3?5no?5response?5sent?$AA@
CONST	SEGMENT
??_C@_0BK@GDNDADLI@Stopped?3?5no?5response?5sent?$AA@ DB 'Stopped: no res'
	DB	'ponse sent', 00H				; `string'
CONST	ENDS
;	COMDAT ??_C@_0CP@LKNNNLAG@Maximum?5number?5of?5open?5connectio@
CONST	SEGMENT
??_C@_0CP@LKNNNLAG@Maximum?5number?5of?5open?5connectio@ DB 'Maximum numb'
	DB	'er of open connections was reached', 00H	; `string'
CONST	ENDS
;	COMDAT ??_C@_0BJ@BEFALLEK@content?5length?5violation?$AA@
CONST	SEGMENT
??_C@_0BJ@BEFALLEK@content?5length?5violation?$AA@ DB 'content length vio'
	DB	'lation', 00H				; `string'
CONST	ENDS
;	COMDAT ??_C@_0BF@NAKMPMCF@occurrence?5violation?$AA@
CONST	SEGMENT
??_C@_0BF@NAKMPMCF@occurrence?5violation?$AA@ DB 'occurrence violation', 00H ; `string'
CONST	ENDS
;	COMDAT ??_C@_0BN@FOFAKJF@prohibited?5attribute?5present?$AA@
CONST	SEGMENT
??_C@_0BN@FOFAKJF@prohibited?5attribute?5present?$AA@ DB 'prohibited attr'
	DB	'ibute present', 00H				; `string'
CONST	ENDS
;	COMDAT ??_C@_0BL@IAKLNEOE@missing?5required?5attribute?$AA@
CONST	SEGMENT
??_C@_0BL@IAKLNEOE@missing?5required?5attribute?$AA@ DB 'missing required'
	DB	' attribute', 00H				; `string'
CONST	ENDS
;	COMDAT ??_C@_0EI@DMDOKJJA@Zlib?1gzip?5not?5installed?5for?5?$CIde?$CJ@
CONST	SEGMENT
??_C@_0EI@DMDOKJJA@Zlib?1gzip?5not?5installed?5for?5?$CIde?$CJ@ DB 'Zlib/'
	DB	'gzip not installed for (de)compression: recompile with -DWITH'
	DB	'_GZIP', 00H					; `string'
CONST	ENDS
;	COMDAT ??_C@_0BC@EHHICPGI@End?5of?5MIME?5error?$AA@
CONST	SEGMENT
??_C@_0BC@EHHICPGI@End?5of?5MIME?5error?$AA@ DB 'End of MIME error', 00H ; `string'
CONST	ENDS
;	COMDAT ??_C@_0CA@PFEDMHLA@MIME?5href?5to?5missing?5attachment?$AA@
CONST	SEGMENT
??_C@_0CA@PFEDMHLA@MIME?5href?5to?5missing?5attachment?$AA@ DB 'MIME href'
	DB	' to missing attachment', 00H		; `string'
CONST	ENDS
;	COMDAT ??_C@_0BC@GALJBELM@MIME?5format?5error?$AA@
CONST	SEGMENT
??_C@_0BC@GALJBELM@MIME?5format?5error?$AA@ DB 'MIME format error', 00H ; `string'
CONST	ENDS
;	COMDAT ??_C@_0BC@DMDFBBON@End?5of?5DIME?5error?$AA@
CONST	SEGMENT
??_C@_0BC@DMDFBBON@End?5of?5DIME?5error?$AA@ DB 'End of DIME error', 00H ; `string'
CONST	ENDS
;	COMDAT ??_C@_0CA@FOKLPDEJ@DIME?5version?1transmission?5error?$AA@
CONST	SEGMENT
??_C@_0CA@FOKLPDEJ@DIME?5version?1transmission?5error?$AA@ DB 'DIME versi'
	DB	'on/transmission error', 00H			; `string'
CONST	ENDS
;	COMDAT ??_C@_0CA@OHINPGEO@DIME?5href?5to?5missing?5attachment?$AA@
CONST	SEGMENT
??_C@_0CA@OHINPGEO@DIME?5href?5to?5missing?5attachment?$AA@ DB 'DIME href'
	DB	' to missing attachment', 00H		; `string'
CONST	ENDS
;	COMDAT ??_C@_0BC@JILKAMFB@DIME?5format?5error?$AA@
CONST	SEGMENT
??_C@_0BC@JILKAMFB@DIME?5format?5error?$AA@ DB 'DIME format error', 00H ; `string'
CONST	ENDS
;	COMDAT ??_C@_0BG@IBFEEHMP@Plugin?5registry?5error?$AA@
CONST	SEGMENT
??_C@_0BG@IBFEEHMP@Plugin?5registry?5error?$AA@ DB 'Plugin registry error'
	DB	00H						; `string'
CONST	ENDS
;	COMDAT ??_C@_0DF@GLMBMACG@OpenSSL?5not?5installed?3?5recompile@
CONST	SEGMENT
??_C@_0DF@GLMBMACG@OpenSSL?5not?5installed?3?5recompile@ DB 'OpenSSL not '
	DB	'installed: recompile with -DWITH_OPENSSL', 00H ; `string'
CONST	ENDS
;	COMDAT ??_C@_0CC@KGMKOPGF@An?5HTTP?5processing?5error?5occurre@
CONST	SEGMENT
??_C@_0CC@KGMKOPGF@An?5HTTP?5processing?5error?5occurre@ DB 'An HTTP proc'
	DB	'essing error occurred', 00H			; `string'
CONST	ENDS
;	COMDAT ??_C@_0CB@LLFCFDEP@Message?5too?5large?5for?5UDP?5packet@
CONST	SEGMENT
??_C@_0CB@LLFCFDEP@Message?5too?5large?5for?5UDP?5packet@ DB 'Message too'
	DB	' large for UDP packet', 00H			; `string'
CONST	ENDS
;	COMDAT ??_C@_0CG@KLBPBEIF@incompatible?5object?5type?5ref?1id?5@
CONST	SEGMENT
??_C@_0CG@KLBPBEIF@incompatible?5object?5type?5ref?1id?5@ DB 'incompatibl'
	DB	'e object type ref/id pair ', 00H		; `string'
CONST	ENDS
;	COMDAT ??_C@_0BD@NNKPGICN@SOAP?9ENC?3MissingID?$AA@
CONST	SEGMENT
??_C@_0BD@NNKPGICN@SOAP?9ENC?3MissingID?$AA@ DB 'SOAP-ENC:MissingID', 00H ; `string'
CONST	ENDS
;	COMDAT ??_C@_0BE@MPBPOAHN@missing?5id?5for?5ref?5?$AA@
CONST	SEGMENT
??_C@_0BE@MPBPOAHN@missing?5id?5for?5ref?5?$AA@ DB 'missing id for ref ', 00H ; `string'
CONST	ENDS
;	COMDAT ??_C@_0BF@NPKHDOOL@SOAP?9ENC?3DuplicateID?$AA@
CONST	SEGMENT
??_C@_0BF@NPKHDOOL@SOAP?9ENC?3DuplicateID?$AA@ DB 'SOAP-ENC:DuplicateID', 00H ; `string'
CONST	ENDS
;	COMDAT ??_C@_0BM@BCCCPBMJ@multiple?5definitions?5of?5id?5?$AA@
CONST	SEGMENT
??_C@_0BM@BCCCPBMJ@multiple?5definitions?5of?5id?5?$AA@ DB 'multiple defi'
	DB	'nitions of id ', 00H			; `string'
CONST	ENDS
;	COMDAT ??_C@_0BA@NJOHCEBG@nil?5not?5allowed?$AA@
CONST	SEGMENT
??_C@_0BA@NJOHCEBG@nil?5not?5allowed?$AA@ DB 'nil not allowed', 00H ; `string'
CONST	ENDS
;	COMDAT ??_C@_0BK@IJNJOFHI@Array?5index?5out?5of?5bounds?$AA@
CONST	SEGMENT
??_C@_0BK@IJNJOFHI@Array?5index?5out?5of?5bounds?$AA@ DB 'Array index out'
	DB	' of bounds', 00H				; `string'
CONST	ENDS
;	COMDAT ??_C@_0BF@GFHEHPAM@Header?5line?5too?5long?$AA@
CONST	SEGMENT
??_C@_0BF@GFHEHPAM@Header?5line?5too?5long?$AA@ DB 'Header line too long', 00H ; `string'
CONST	ENDS
;	COMDAT ??_C@_0CL@HFBNDNPH@Memory?5overflow?5or?5memory?5corrup@
CONST	SEGMENT
??_C@_0CL@HFBNDNPH@Memory?5overflow?5or?5memory?5corrup@ DB 'Memory overf'
	DB	'low or memory corruption error', 00H	; `string'
CONST	ENDS
;	COMDAT ??_C@_0O@NALGGDJF@Out?5of?5memory?$AA@
CONST	SEGMENT
??_C@_0O@NALGGDJF@Out?5of?5memory?$AA@ DB 'Out of memory', 00H ; `string'
CONST	ENDS
;	COMDAT ??_C@_0BM@KGAMDCLK@HTTP?5method?5not?5implemented?$AA@
CONST	SEGMENT
??_C@_0BM@KGAMDCLK@HTTP?5method?5not?5implemented?$AA@ DB 'HTTP method no'
	DB	't implemented', 00H				; `string'
CONST	ENDS
;	COMDAT ??_C@_0CB@GICAEFAM@HTTP?5HEAD?5method?5not?5implemented@
CONST	SEGMENT
??_C@_0CB@GICAEFAM@HTTP?5HEAD?5method?5not?5implemented@ DB 'HTTP HEAD me'
	DB	'thod not implemented', 00H			; `string'
CONST	ENDS
;	COMDAT ??_C@_0CA@DBKHPHAA@HTTP?5PUT?5method?5not?5implemented?$AA@
CONST	SEGMENT
??_C@_0CA@DBKHPHAA@HTTP?5PUT?5method?5not?5implemented?$AA@ DB 'HTTP PUT '
	DB	'method not implemented', 00H		; `string'
CONST	ENDS
;	COMDAT ??_C@_0CA@BHFEEBKL@HTTP?5GET?5method?5not?5implemented?$AA@
CONST	SEGMENT
??_C@_0CA@BHFEEBKL@HTTP?5GET?5method?5not?5implemented?$AA@ DB 'HTTP GET '
	DB	'method not implemented', 00H		; `string'
CONST	ENDS
;	COMDAT ??_C@_0BM@MENEPEMK@Data?5required?5for?5operation?$AA@
CONST	SEGMENT
??_C@_0BM@MENEPEMK@Data?5required?5for?5operation?$AA@ DB 'Data required '
	DB	'for operation', 00H				; `string'
CONST	ENDS
;	COMDAT ??_C@_0EF@HBJFOFK@Method?5?8?$CFs?8?5not?5implemented?3?5met@
CONST	SEGMENT
??_C@_0EF@HBJFOFK@Method?5?8?$CFs?8?5not?5implemented?3?5met@ DB 'Method '
	DB	'''%s'' not implemented: method name or namespace not recogniz'
	DB	'ed', 00H					; `string'
CONST	ENDS
;	COMDAT ??_C@_0M@HCPCIMCN@Fatal?5error?$AA@
CONST	SEGMENT
??_C@_0M@HCPCIMCN@Fatal?5error?$AA@ DB 'Fatal error', 00H ; `string'
CONST	ENDS
;	COMDAT ??_C@_0L@PDEMLIEM@User?5error?$AA@
CONST	SEGMENT
??_C@_0L@PDEMLIEM@User?5error?$AA@ DB 'User error', 00H	; `string'
CONST	ENDS
;	COMDAT ??_C@_0BA@DMKNFBBB@namespace?5error?$AA@
CONST	SEGMENT
??_C@_0BA@DMKNFBBB@namespace?5error?$AA@ DB 'namespace error', 00H ; `string'
CONST	ENDS
;	COMDAT ??_C@_0BP@NKHANBGK@Unsupported?5SOAP?5data?5encoding?$AA@
CONST	SEGMENT
??_C@_0BP@NKHANBGK@Unsupported?5SOAP?5data?5encoding?$AA@ DB 'Unsupported'
	DB	' SOAP data encoding', 00H			; `string'
CONST	ENDS
;	COMDAT ??_C@_0BN@OABEEJDM@SOAP?9ENV?3DataEncodingUnknown?$AA@
CONST	SEGMENT
??_C@_0BN@OABEEJDM@SOAP?9ENV?3DataEncodingUnknown?$AA@ DB 'SOAP-ENV:DataE'
	DB	'ncodingUnknown', 00H			; `string'
CONST	ENDS
;	COMDAT ??_C@_0CO@JCAMFCDG@Invalid?5SOAP?5message?5or?5SOAP?5ver@
CONST	SEGMENT
??_C@_0CO@JCAMFCDG@Invalid?5SOAP?5message?5or?5SOAP?5ver@ DB 'Invalid SOA'
	DB	'P message or SOAP version mismatch', 00H	; `string'
CONST	ENDS
;	COMDAT ??_C@_0BJ@OACCBMEJ@SOAP?9ENV?3VersionMismatch?$AA@
CONST	SEGMENT
??_C@_0BJ@OACCBMEJ@SOAP?9ENV?3VersionMismatch?$AA@ DB 'SOAP-ENV:VersionMi'
	DB	'smatch', 00H				; `string'
CONST	ENDS
;	COMDAT ??_C@_0EC@DIEDGBJC@The?5data?5in?5element?5?8?$CFs?8?5must?5be@
CONST	SEGMENT
??_C@_0EC@DIEDGBJC@The?5data?5in?5element?5?8?$CFs?8?5must?5be@ DB 'The d'
	DB	'ata in element ''%s'' must be understood but cannot be handle'
	DB	'd', 00H					; `string'
CONST	ENDS
;	COMDAT ??_C@_0BI@MFGAEHIJ@SOAP?9ENV?3MustUnderstand?$AA@
CONST	SEGMENT
??_C@_0BI@MFGAEHIJ@SOAP?9ENV?3MustUnderstand?$AA@ DB 'SOAP-ENV:MustUnders'
	DB	'tand', 00H					; `string'
CONST	ENDS
;	COMDAT ??_C@_0BD@HDMBMFLH@No?5XML?5element?5tag?$AA@
CONST	SEGMENT
??_C@_0BD@HDMBMFLH@No?5XML?5element?5tag?$AA@ DB 'No XML element tag', 00H ; `string'
CONST	ENDS
;	COMDAT ??_C@_0BK@BDHDOCNN@Well?9formedness?5violation?$AA@
CONST	SEGMENT
??_C@_0BK@BDHDOCNN@Well?9formedness?5violation?$AA@ DB 'Well-formedness v'
	DB	'iolation', 00H				; `string'
CONST	ENDS
;	COMDAT ??_C@_0BE@GBNPKFOD@data?5type?5mismatch?5?$AA@
CONST	SEGMENT
??_C@_0BE@GBNPKFOD@data?5type?5mismatch?5?$AA@ DB 'data type mismatch ', 00H ; `string'
CONST	ENDS
;	COMDAT ??_C@_0BP@EDHHHBAK@tag?5name?5or?5namespace?5mismatch?$AA@
CONST	SEGMENT
??_C@_0BP@EDHHHBAK@tag?5name?5or?5namespace?5mismatch?$AA@ DB 'tag name o'
	DB	'r namespace mismatch', 00H			; `string'
CONST	ENDS
;	COMDAT ??_C@_0N@LCJPOAAP@Server?5fault?$AA@
CONST	SEGMENT
??_C@_0N@LCJPOAAP@Server?5fault?$AA@ DB 'Server fault', 00H ; `string'
CONST	ENDS
;	COMDAT ??_C@_0N@JOEFJCHK@Client?5fault?$AA@
CONST	SEGMENT
??_C@_0N@JOEFJCHK@Client?5fault?$AA@ DB 'Client fault', 00H ; `string'
CONST	ENDS
;	COMDAT ??_C@_0BA@JGDIJGNL@SOAP?9ENV?3Client?$AA@
CONST	SEGMENT
??_C@_0BA@JGDIJGNL@SOAP?9ENV?3Client?$AA@ DB 'SOAP-ENV:Client', 00H ; `string'
CONST	ENDS
;	COMDAT ??_C@_0CG@LEBAOEFP@Validation?5constraint?5violation?3@
CONST	SEGMENT
??_C@_0CG@LEBAOEFP@Validation?5constraint?5violation?3@ DB 'Validation co'
	DB	'nstraint violation: %s%s', 00H		; `string'
CONST	ENDS
;	COMDAT ??_C@_0DG@HKJBMIKH@Validation?5constraint?5violation?3@
CONST	SEGMENT
??_C@_0DG@HKJBMIKH@Validation?5constraint?5violation?3@ DB 'Validation co'
	DB	'nstraint violation: %s%s in element <%s>', 00H ; `string'
CONST	ENDS
;	COMDAT ??_C@_06LGMEBDBC@Server?$AA@
CONST	SEGMENT
??_C@_06LGMEBDBC@Server?$AA@ DB 'Server', 00H		; `string'
CONST	ENDS
;	COMDAT ??_C@_0BK@FNMKOGBN@500?5Internal?5Server?5Error?$AA@
CONST	SEGMENT
??_C@_0BK@FNMKOGBN@500?5Internal?5Server?5Error?$AA@ DB '500 Internal Ser'
	DB	'ver Error', 00H				; `string'
CONST	ENDS
;	COMDAT ??_C@_0BA@NLEABOII@400?5Bad?5Request?$AA@
CONST	SEGMENT
??_C@_0BA@NLEABOII@400?5Bad?5Request?$AA@ DB '400 Bad Request', 00H ; `string'
CONST	ENDS
;	COMDAT ??_C@_0BA@IGHKKIMP@SOAP?9ENV?3Sender?$AA@
CONST	SEGMENT
??_C@_0BA@IGHKKIMP@SOAP?9ENV?3Sender?$AA@ DB 'SOAP-ENV:Sender', 00H ; `string'
CONST	ENDS
;	COMDAT ??_C@_0BB@GEFAMELB@Basic?5realm?$DN?$CC?$CFs?$CC?$AA@
CONST	SEGMENT
??_C@_0BB@GEFAMELB@Basic?5realm?$DN?$CC?$CFs?$CC?$AA@ DB 'Basic realm="%s'
	DB	'"', 00H					; `string'
CONST	ENDS
;	COMDAT ??_C@_0BC@NIIEEHHB@gSOAP?5Web?5Service?$AA@
CONST	SEGMENT
??_C@_0BC@NIIEEHHB@gSOAP?5Web?5Service?$AA@ DB 'gSOAP Web Service', 00H ; `string'
CONST	ENDS
;	COMDAT ??_C@_0O@OIHDPKBJ@HTTP?1?$CFs?5?$CFd?5?$CFs?$AA@
CONST	SEGMENT
??_C@_0O@OIHDPKBJ@HTTP?1?$CFs?5?$CFd?5?$CFs?$AA@ DB 'HTTP/%s %d %s', 00H ; `string'
CONST	ENDS
;	COMDAT ??_C@_06PGDKHFME@Status?$AA@
CONST	SEGMENT
??_C@_06PGDKHFME@Status?$AA@ DB 'Status', 00H		; `string'
CONST	ENDS
;	COMDAT ??_C@_0L@HINEDFNI@HTTP?1?$CFs?5?$CFs?$AA@
CONST	SEGMENT
??_C@_0L@HINEDFNI@HTTP?1?$CFs?5?$CFs?$AA@ DB 'HTTP/%s %s', 00H ; `string'
CONST	ENDS
;	COMDAT ??_C@_0N@GGGJJCHF@202?5ACCEPTED?$AA@
CONST	SEGMENT
??_C@_0N@GGGJJCHF@202?5ACCEPTED?$AA@ DB '202 ACCEPTED', 00H ; `string'
CONST	ENDS
;	COMDAT ??_C@_06DAENNINM@200?5OK?$AA@
CONST	SEGMENT
??_C@_06DAENNINM@200?5OK?$AA@ DB '200 OK', 00H		; `string'
CONST	ENDS
;	COMDAT ??_C@_04OEDFLLKD@?$CC?$CFs?$CC?$AA@
CONST	SEGMENT
??_C@_04OEDFLLKD@?$CC?$CFs?$CC?$AA@ DB '"%s"', 00H	; `string'
CONST	ENDS
;	COMDAT ??_C@_0BE@DCLKKIPG@Proxy?9Authorization?$AA@
CONST	SEGMENT
??_C@_0BE@DCLKKIPG@Proxy?9Authorization?$AA@ DB 'Proxy-Authorization', 00H ; `string'
CONST	ENDS
;	COMDAT ??_C@_06FFOGOLGD@Basic?5?$AA@
CONST	SEGMENT
??_C@_06FFOGOLGD@Basic?5?$AA@ DB 'Basic ', 00H		; `string'
CONST	ENDS
;	COMDAT ??_C@_05CCMOGDN@?$CFs?3?$CFs?$AA@
CONST	SEGMENT
??_C@_05CCMOGDN@?$CFs?3?$CFs?$AA@ DB '%s:%s', 00H	; `string'
CONST	ENDS
;	COMDAT ??_C@_0L@DMPACEMJ@User?9Agent?$AA@
CONST	SEGMENT
??_C@_0L@DMPACEMJ@User?9Agent?$AA@ DB 'User-Agent', 00H	; `string'
CONST	ENDS
;	COMDAT ??_C@_09MBLJBAGJ@gSOAP?12?47?$AA@
CONST	SEGMENT
??_C@_09MBLJBAGJ@gSOAP?12?47?$AA@ DB 'gSOAP/2.7', 00H	; `string'
CONST	ENDS
;	COMDAT ??_C@_05HKPGCKL@?$CFs?3?$CFd?$AA@
CONST	SEGMENT
??_C@_05HKPGCKL@?$CFs?3?$CFd?$AA@ DB '%s:%d', 00H	; `string'
CONST	ENDS
;	COMDAT ??_C@_0P@PENEPKMC@?$CFs?5?1?$CFs?5HTTP?1?$CFs?$AA@
CONST	SEGMENT
??_C@_0P@PENEPKMC@?$CFs?5?1?$CFs?5HTTP?1?$CFs?$AA@ DB '%s /%s HTTP/%s', 00H ; `string'
CONST	ENDS
;	COMDAT ??_C@_0O@FAODEEBC@?$CFs?5?$CFs?5HTTP?1?$CFs?$AA@
CONST	SEGMENT
??_C@_0O@FAODEEBC@?$CFs?5?$CFs?5HTTP?1?$CFs?$AA@ DB '%s %s HTTP/%s', 00H ; `string'
CONST	ENDS
;	COMDAT ??_C@_06EFCFIIJL@httpg?3?$AA@
CONST	SEGMENT
??_C@_06EFCFIIJL@httpg?3?$AA@ DB 'httpg:', 00H		; `string'
CONST	ENDS
;	COMDAT ??_C@_06GLIDCHCJ@http?3?$CK?$AA@
CONST	SEGMENT
??_C@_06GLIDCHCJ@http?3?$CK?$AA@ DB 'http:*', 00H	; `string'
CONST	ENDS
;	COMDAT ??_C@_04HCJEIHPL@POST?$AA@
CONST	SEGMENT
??_C@_04HCJEIHPL@POST?$AA@ DB 'POST', 00H		; `string'
CONST	ENDS
;	COMDAT ??_C@_03HAPOJHBM@GET?$AA@
CONST	SEGMENT
??_C@_03HAPOJHBM@GET?$AA@ DB 'GET', 00H			; `string'
CONST	ENDS
;	COMDAT ??_C@_0P@KJFFOCGK@?$DL?5start?9info?$DN?$CC?$AA@
CONST	SEGMENT
??_C@_0P@KJFFOCGK@?$DL?5start?9info?$DN?$CC?$AA@ DB '; start-info="', 00H ; `string'
CONST	ENDS
;	COMDAT ??_C@_0L@ENHEIJFK@?$CC?$DL?5start?$DN?$CC?$AA@
CONST	SEGMENT
??_C@_0L@ENHEIJFK@?$CC?$DL?5start?$DN?$CC?$AA@ DB '"; start="', 00H ; `string'
CONST	ENDS
;	COMDAT ??_C@_0CJ@HGDIJJKJ@multipart?1related?$DL?5boundary?$DN?$CC?$CFs?$CC@
CONST	SEGMENT
??_C@_0CJ@HGDIJJKJ@multipart?1related?$DL?5boundary?$DN?$CC?$CFs?$CC@ DB 'm'
	DB	'ultipart/related; boundary="%s"; type="', 00H ; `string'
CONST	ENDS
;	COMDAT ??_C@_0CD@GGDEJPLO@application?1xop?$CLxml?$DL?5charset?$DNutf@
CONST	SEGMENT
??_C@_0CD@GGDEJPLO@application?1xop?$CLxml?$DL?5charset?$DNutf@ DB 'appli'
	DB	'cation/xop+xml; charset=utf-8', 00H		; `string'
CONST	ENDS
;	COMDAT ??_C@_0BJ@CDMHJEKP@text?1html?$DL?5charset?$DNutf?98?$AA@
CONST	SEGMENT
??_C@_0BJ@CDMHJEKP@text?1html?$DL?5charset?$DNutf?98?$AA@ DB 'text/html; '
	DB	'charset=utf-8', 00H				; `string'
CONST	ENDS
;	COMDAT ??_C@_09LLHAEKON@soap?4udp?3?$AA@
CONST	SEGMENT
??_C@_09LLHAEKON@soap?4udp?3?$AA@ DB 'soap.udp:', 00H	; `string'
CONST	ENDS
;	COMDAT ??_C@_0O@DLKLKBNF@SOAP?9ENV?3Body?$AA@
CONST	SEGMENT
??_C@_0O@DLKLKBNF@SOAP?9ENV?3Body?$AA@ DB 'SOAP-ENV:Body', 00H ; `string'
CONST	ENDS
;	COMDAT ??_C@_04MJIIEFNN@Body?$AA@
CONST	SEGMENT
??_C@_04MJIIEFNN@Body?$AA@ DB 'Body', 00H		; `string'
CONST	ENDS
;	COMDAT ??_C@_04PNIFHPHN@html?$AA@
CONST	SEGMENT
??_C@_04PNIFHPHN@html?$AA@ DB 'html', 00H		; `string'
CONST	ENDS
;	COMDAT ??_C@_0BC@GKKKFKAB@SOAP?9ENV?3Envelope?$AA@
CONST	SEGMENT
??_C@_0BC@GKKKFKAB@SOAP?9ENV?3Envelope?$AA@ DB 'SOAP-ENV:Envelope', 00H ; `string'
CONST	ENDS
;	COMDAT ??_C@_0EO@EHIFGEMB@?9?9?$CFs?$AN?6Content?9Type?3?5?$CFs?$AN?6Content?9@
CONST	SEGMENT
??_C@_0EO@EHIFGEMB@?9?9?$CFs?$AN?6Content?9Type?3?5?$CFs?$AN?6Content?9@ DB '-'
	DB	'-%s', 0dH, 0aH, 'Content-Type: %s', 0dH, 0aH, 'Content-Transf'
	DB	'er-Encoding: binary', 0dH, 0aH, 'Content-ID: %s', 0dH, 0aH, 0dH
	DB	0aH, 00H					; `string'
CONST	ENDS
;	COMDAT ??_C@_0BI@JFLEALON@text?1xml?$DL?5charset?$DNutf?98?$AA@
CONST	SEGMENT
??_C@_0BI@JFLEALON@text?1xml?$DL?5charset?$DNutf?98?$AA@ DB 'text/xml; ch'
	DB	'arset=utf-8', 00H				; `string'
CONST	ENDS
;	COMDAT ??_C@_0CE@HOOLIGFB@application?1soap?$CLxml?$DL?5charset?$DNut@
CONST	SEGMENT
??_C@_0CE@HOOLIGFB@application?1soap?$CLxml?$DL?5charset?$DNut@ DB 'appli'
	DB	'cation/soap+xml; charset=utf-8', 00H	; `string'
CONST	ENDS
;	COMDAT ??_C@_0EA@OLHLLNHK@application?1xop?$CLxml?$DL?5charset?$DNutf@
CONST	SEGMENT
??_C@_0EA@OLHLLNHK@application?1xop?$CLxml?$DL?5charset?$DNutf@ DB 'appli'
	DB	'cation/xop+xml; charset=utf-8; type="application/soap+xml"', 00H ; `string'
CONST	ENDS
;	COMDAT ??_C@_02NFLHGFB@?0?$DL?$AA@
CONST	SEGMENT
??_C@_02NFLHGFB@?0?$DL?$AA@ DB ',;', 00H		; `string'
CONST	ENDS
;	COMDAT ??_C@_03NBBPFACD@?$DN?0?$DL?$AA@
CONST	SEGMENT
??_C@_03NBBPFACD@?$DN?0?$DL?$AA@ DB '=,;', 00H		; `string'
CONST	ENDS
;	COMDAT ??_C@_0BA@HEMDDLEL@X?9Forwarded?9For?$AA@
CONST	SEGMENT
??_C@_0BA@HEMDDLEL@X?9Forwarded?9For?$AA@ DB 'X-Forwarded-For', 00H ; `string'
CONST	ENDS
;	COMDAT ??_C@_08KDOEBHGA@Location?$AA@
CONST	SEGMENT
??_C@_08KDOEBHGA@Location?$AA@ DB 'Location', 00H	; `string'
CONST	ENDS
;	COMDAT ??_C@_0L@BIMPHKBC@SOAPAction?$AA@
CONST	SEGMENT
??_C@_0L@BIMPHKBC@SOAPAction?$AA@ DB 'SOAPAction', 00H	; `string'
CONST	ENDS
;	COMDAT ??_C@_0BG@NPCCMLBA@HTTP?11?41?5100?5Continue?$AA@
CONST	SEGMENT
??_C@_0BG@NPCCMLBA@HTTP?11?41?5100?5Continue?$AA@ DB 'HTTP/1.1 100 Contin'
	DB	'ue', 00H					; `string'
CONST	ENDS
;	COMDAT ??_C@_0N@IOPAKPOD@100?9continue?$AA@
CONST	SEGMENT
??_C@_0N@IOPAKPOD@100?9continue?$AA@ DB '100-continue', 00H ; `string'
CONST	ENDS
;	COMDAT ??_C@_06GHDJNLIG@Expect?$AA@
CONST	SEGMENT
??_C@_06GHDJNLIG@Expect?$AA@ DB 'Expect', 00H		; `string'
CONST	ENDS
;	COMDAT ??_C@_05ELABLNGD@realm?$AA@
CONST	SEGMENT
??_C@_05ELABLNGD@realm?$AA@ DB 'realm', 00H		; `string'
CONST	ENDS
;	COMDAT ??_C@_0BB@KEDJJIFI@WWW?9Authenticate?$AA@
CONST	SEGMENT
??_C@_0BB@KEDJJIFI@WWW?9Authenticate?$AA@ DB 'WWW-Authenticate', 00H ; `string'
CONST	ENDS
;	COMDAT ??_C@_07LLIFBKCB@Basic?5?$CK?$AA@
CONST	SEGMENT
??_C@_07LLIFBKCB@Basic?5?$CK?$AA@ DB 'Basic *', 00H	; `string'
CONST	ENDS
;	COMDAT ??_C@_0O@NAFGPKMI@Authorization?$AA@
CONST	SEGMENT
??_C@_0O@NAFGPKMI@Authorization?$AA@ DB 'Authorization', 00H ; `string'
CONST	ENDS
;	COMDAT ??_C@_05LBOHBHFK@close?$AA@
CONST	SEGMENT
??_C@_05LBOHBHFK@close?$AA@ DB 'close', 00H		; `string'
CONST	ENDS
;	COMDAT ??_C@_0L@FFDPOIEG@keep?9alive?$AA@
CONST	SEGMENT
??_C@_0L@FFDPOIEG@keep?9alive?$AA@ DB 'keep-alive', 00H	; `string'
CONST	ENDS
;	COMDAT ??_C@_0L@PJJKMLL@Connection?$AA@
CONST	SEGMENT
??_C@_0L@PJJKMLL@Connection?$AA@ DB 'Connection', 00H	; `string'
CONST	ENDS
;	COMDAT ??_C@_07KCKHAHHI@chunked?$AA@
CONST	SEGMENT
??_C@_07KCKHAHHI@chunked?$AA@ DB 'chunked', 00H		; `string'
CONST	ENDS
;	COMDAT ??_C@_0BC@ELHLFCNH@Transfer?9Encoding?$AA@
CONST	SEGMENT
??_C@_0BC@ELHLFCNH@Transfer?9Encoding?$AA@ DB 'Transfer-Encoding', 00H ; `string'
CONST	ENDS
;	COMDAT ??_C@_04HOHEGKBO@gzip?$AA@
CONST	SEGMENT
??_C@_04HOHEGKBO@gzip?$AA@ DB 'gzip', 00H		; `string'
CONST	ENDS
;	COMDAT ??_C@_07FNHFFEJG@deflate?$AA@
CONST	SEGMENT
??_C@_07FNHFFEJG@deflate?$AA@ DB 'deflate', 00H		; `string'
CONST	ENDS
;	COMDAT ??_C@_0BB@KFPPKJHF@Content?9Encoding?$AA@
CONST	SEGMENT
??_C@_0BB@KFPPKJHF@Content?9Encoding?$AA@ DB 'Content-Encoding', 00H ; `string'
CONST	ENDS
;	COMDAT ??_C@_0P@HOJGPHBA@Content?9Length?$AA@
CONST	SEGMENT
??_C@_0P@HOJGPHBA@Content?9Length?$AA@ DB 'Content-Length', 00H ; `string'
CONST	ENDS
;	COMDAT ??_C@_06DDLLCOJG@action?$AA@
CONST	SEGMENT
??_C@_06DDLLCOJG@action?$AA@ DB 'action', 00H		; `string'
CONST	ENDS
;	COMDAT ??_C@_05FAGFPHJG@start?$AA@
CONST	SEGMENT
??_C@_05FAGFPHJG@start?$AA@ DB 'start', 00H		; `string'
CONST	ENDS
;	COMDAT ??_C@_08KIKGFOKI@boundary?$AA@
CONST	SEGMENT
??_C@_08KIKGFOKI@boundary?$AA@ DB 'boundary', 00H	; `string'
CONST	ENDS
;	COMDAT ??_C@_0BE@PILCJFLE@multipart?1form?9data?$AA@
CONST	SEGMENT
??_C@_0BE@PILCJFLE@multipart?1form?9data?$AA@ DB 'multipart/form-data', 00H ; `string'
CONST	ENDS
;	COMDAT ??_C@_0BC@GGLOKPIO@multipart?1related?$AA@
CONST	SEGMENT
??_C@_0BC@GGLOKPIO@multipart?1related?$AA@ DB 'multipart/related', 00H ; `string'
CONST	ENDS
;	COMDAT ??_C@_07FGAOOBMN@http?3?1?1?$AA@
CONST	SEGMENT
??_C@_07FGAOOBMN@http?3?1?1?$AA@ DB 'http://', 00H	; `string'
CONST	ENDS
;	COMDAT ??_C@_04CPPPJGME@Host?$AA@
CONST	SEGMENT
??_C@_04CPPPJGME@Host?$AA@ DB 'Host', 00H		; `string'
CONST	ENDS
;	COMDAT ??_C@_0L@LOBKJNKF@HTTP?5Error?$AA@
CONST	SEGMENT
??_C@_0L@LOBKJNKF@HTTP?5Error?$AA@ DB 'HTTP Error', 00H	; `string'
CONST	ENDS
;	COMDAT ??_C@_05PMJKDPIC@HEAD?5?$AA@
CONST	SEGMENT
??_C@_05PMJKDPIC@HEAD?5?$AA@ DB 'HEAD ', 00H		; `string'
CONST	ENDS
;	COMDAT ??_C@_07GOAKFIAN@DELETE?5?$AA@
CONST	SEGMENT
??_C@_07GOAKFIAN@DELETE?5?$AA@ DB 'DELETE ', 00H	; `string'
CONST	ENDS
;	COMDAT ??_C@_04DCMJKHH@PUT?5?$AA@
CONST	SEGMENT
??_C@_04DCMJKHH@PUT?5?$AA@ DB 'PUT ', 00H		; `string'
CONST	ENDS
;	COMDAT ??_C@_04IBPFIGHK@GET?5?$AA@
CONST	SEGMENT
??_C@_04IBPFIGHK@GET?5?$AA@ DB 'GET ', 00H		; `string'
CONST	ENDS
;	COMDAT ??_C@_05LPJJJLLB@POST?5?$AA@
CONST	SEGMENT
??_C@_05LPJJJLLB@POST?5?$AA@ DB 'POST ', 00H		; `string'
CONST	ENDS
;	COMDAT ??_C@_05FKGKDBHO@HTTP?1?$AA@
CONST	SEGMENT
??_C@_05FKGKDBHO@HTTP?1?$AA@ DB 'HTTP/', 00H		; `string'
CONST	ENDS
;	COMDAT ??_C@_0BB@KDHCEMMM@application?1dime?$AA@
CONST	SEGMENT
??_C@_0BB@KDHCEMMM@application?1dime?$AA@ DB 'application/dime', 00H ; `string'
CONST	ENDS
;	COMDAT ??_C@_0BE@MKHJBFJG@?$DMSOAP?9ENV?3Envelope?$DO?$AA@
CONST	SEGMENT
??_C@_0BE@MKHJBFJG@?$DMSOAP?9ENV?3Envelope?$DO?$AA@ DB '<SOAP-ENV:Envelop'
	DB	'e>', 00H					; `string'
CONST	ENDS
;	COMDAT ??_C@_02EGOFBIJA@?$DN?$DN?$AA@
CONST	SEGMENT
??_C@_02EGOFBIJA@?$DN?$DN?$AA@ DB '==', 00H		; `string'
CONST	ENDS
;	COMDAT ??_C@_02BAABKJLB@?9?9?$AA@
CONST	SEGMENT
??_C@_02BAABKJLB@?9?9?$AA@ DB '--', 00H			; `string'
CONST	ENDS
;	COMDAT ??_C@_0BG@FGNCEKKA@Content?9Description?3?5?$AA@
CONST	SEGMENT
??_C@_0BG@FGNCEKKA@Content?9Description?3?5?$AA@ DB 'Content-Description:'
	DB	' ', 00H					; `string'
CONST	ENDS
;	COMDAT ??_C@_0BD@OHIJMKJJ@Content?9Location?3?5?$AA@
CONST	SEGMENT
??_C@_0BD@OHIJMKJJ@Content?9Location?3?5?$AA@ DB 'Content-Location: ', 00H ; `string'
CONST	ENDS
;	COMDAT ??_C@_0N@NKGHAKLJ@Content?9ID?3?5?$AA@
CONST	SEGMENT
??_C@_0N@NKGHAKLJ@Content?9ID?3?5?$AA@ DB 'Content-ID: ', 00H ; `string'
CONST	ENDS
;	COMDAT ??_C@_0BM@MCMHCKIN@Content?9Transfer?9Encoding?3?5?$AA@
CONST	SEGMENT
??_C@_0BM@MCMHCKIN@Content?9Transfer?9Encoding?3?5?$AA@ DB 'Content-Trans'
	DB	'fer-Encoding: ', 00H			; `string'
CONST	ENDS
;	COMDAT ??_C@_0P@GJMOGDPG@Content?9Type?3?5?$AA@
CONST	SEGMENT
??_C@_0P@GJMOGDPG@Content?9Type?3?5?$AA@ DB 'Content-Type: ', 00H ; `string'
CONST	ENDS
;	COMDAT ??_C@_04LOEPKDGL@?$AN?6?9?9?$AA@
CONST	SEGMENT
??_C@_04LOEPKDGL@?$AN?6?9?9?$AA@ DB 0dH, 0aH, '--', 00H	; `string'
CONST	ENDS
;	COMDAT ??_C@_02PCIJFNDE@?$AN?6?$AA@
CONST	SEGMENT
??_C@_02PCIJFNDE@?$AN?6?$AA@ DB 0dH, 0aH, 00H		; `string'
CONST	ENDS
;	COMDAT ??_C@_03KBLJEPNL@?6?9?9?$AA@
CONST	SEGMENT
??_C@_03KBLJEPNL@?6?9?9?$AA@ DB 0aH, '--', 00H		; `string'
CONST	ENDS
;	COMDAT ??_C@_0BK@MJFMDPAI@Content?9Transfer?9Encoding?$AA@
CONST	SEGMENT
??_C@_0BK@MJFMDPAI@Content?9Transfer?9Encoding?$AA@ DB 'Content-Transfer-'
	DB	'Encoding', 00H				; `string'
CONST	ENDS
;	COMDAT ??_C@_0BE@CDHADPEM@Content?9Description?$AA@
CONST	SEGMENT
??_C@_0BE@CDHADPEM@Content?9Description?$AA@ DB 'Content-Description', 00H ; `string'
CONST	ENDS
;	COMDAT ??_C@_0N@LAFFMKKA@Content?9Type?$AA@
CONST	SEGMENT
??_C@_0N@LAFFMKKA@Content?9Type?$AA@ DB 'Content-Type', 00H ; `string'
CONST	ENDS
;	COMDAT ??_C@_04MEMAJGDJ@name?$AA@
CONST	SEGMENT
??_C@_04MEMAJGDJ@name?$AA@ DB 'name', 00H		; `string'
CONST	ENDS
;	COMDAT ??_C@_0BE@LMOOGHBG@Content?9Disposition?$AA@
CONST	SEGMENT
??_C@_0BE@LMOOGHBG@Content?9Disposition?$AA@ DB 'Content-Disposition', 00H ; `string'
CONST	ENDS
;	COMDAT ??_C@_0BB@EPBMDIDM@Content?9Location?$AA@
CONST	SEGMENT
??_C@_0BB@EPBMDIDM@Content?9Location?$AA@ DB 'Content-Location', 00H ; `string'
CONST	ENDS
;	COMDAT ??_C@_0L@BJKBKLJG@Content?9ID?$AA@
CONST	SEGMENT
??_C@_0L@BJKBKLJG@Content?9ID?$AA@ DB 'Content-ID', 00H	; `string'
CONST	ENDS
;	COMDAT ??_C@_09ONEMIJDH@?3dateTime?$AA@
CONST	SEGMENT
??_C@_09ONEMIJDH@?3dateTime?$AA@ DB ':dateTime', 00H	; `string'
CONST	ENDS
;	COMDAT ??_C@_05NFGPCJDJ@?$CFd?3?$CFd?$AA@
CONST	SEGMENT
??_C@_05NFGPCJDJ@?$CFd?3?$CFd?$AA@ DB '%d:%d', 00H	; `string'
CONST	ENDS
;	COMDAT ??_C@_0BI@KJDFMOL@?$CF4d?$CF2d?$CF2dT?$CF2d?$CF2d?$CF2d?$CF31s?$AA@
CONST	SEGMENT
??_C@_0BI@KJDFMOL@?$CF4d?$CF2d?$CF2dT?$CF2d?$CF2d?$CF2d?$CF31s?$AA@ DB '%'
	DB	'4d%2d%2dT%2d%2d%2d%31s', 00H		; `string'
CONST	ENDS
;	COMDAT ??_C@_0BH@OJGJFHHH@?$CF4d?$CF2d?$CF2dT?$CFd?3?$CFd?3?$CFd?$CF31s?$AA@
CONST	SEGMENT
??_C@_0BH@OJGJFHHH@?$CF4d?$CF2d?$CF2dT?$CFd?3?$CFd?3?$CFd?$CF31s?$AA@ DB '%'
	DB	'4d%2d%2dT%d:%d:%d%31s', 00H			; `string'
CONST	ENDS
;	COMDAT ??_C@_0BG@CNJMEEAL@?$CFd?9?$CFd?9?$CFdT?$CFd?3?$CFd?3?$CFd?$CF31s?$AA@
CONST	SEGMENT
??_C@_0BG@CNJMEEAL@?$CFd?9?$CFd?9?$CFdT?$CFd?3?$CFd?3?$CFd?$CF31s?$AA@ DB '%'
	DB	'd-%d-%dT%d:%d:%d%31s', 00H			; `string'
CONST	ENDS
;	COMDAT ??_C@_0BF@KNOONEPL@1969?912?931T23?359?359Z?$AA@
CONST	SEGMENT
??_C@_0BF@KNOONEPL@1969?912?931T23?359?359Z?$AA@ DB '1969-12-31T23:59:59Z'
	DB	00H						; `string'
CONST	ENDS
;	COMDAT ??_C@_0L@PEBBIKFI@?$CF?$CL03d?3?$CF02d?$AA@
CONST	SEGMENT
??_C@_0L@PEBBIKFI@?$CF?$CL03d?3?$CF02d?$AA@ DB '%+03d:%02d', 00H ; `string'
CONST	ENDS
;	COMDAT ??_C@_0BC@EJFCONBF@?$CFY?9?$CFm?9?$CFdT?$CFH?3?$CFM?3?$CFS?$AA@
CONST	SEGMENT
??_C@_0BC@EJFCONBF@?$CFY?9?$CFm?9?$CFdT?$CFH?3?$CFM?3?$CFS?$AA@ DB '%Y-%m'
	DB	'-%dT%H:%M:%S', 00H				; `string'
CONST	ENDS
;	COMDAT ??_C@_09MCFEFMEO@xmlns?3_?$CFd?$AA@
CONST	SEGMENT
??_C@_09MCFEFMEO@xmlns?3_?$CFd?$AA@ DB 'xmlns:_%d', 00H	; `string'
CONST	ENDS
;	COMDAT ??_C@_01JLIPDDHJ@?3?$AA@
CONST	SEGMENT
??_C@_01JLIPDDHJ@?3?$AA@ DB ':', 00H			; `string'
CONST	ENDS
;	COMDAT ??_C@_02JMMFPCED@?$CC?$CC?$AA@
CONST	SEGMENT
??_C@_02JMMFPCED@?$CC?$CC?$AA@ DB '""', 00H		; `string'
CONST	ENDS
;	COMDAT ??_C@_04FNFHGAAP@xml?3?$AA@
CONST	SEGMENT
??_C@_04FNFHGAAP@xml?3?$AA@ DB 'xml:', 00H		; `string'
CONST	ENDS
;	COMDAT ??_C@_05OINFJHGD@?$CFI64u?$AA@
CONST	SEGMENT
??_C@_05OINFJHGD@?$CFI64u?$AA@ DB '%I64u', 00H		; `string'
CONST	ENDS
;	COMDAT ??_C@_03FKNCMABI@?$CFlu?$AA@
CONST	SEGMENT
??_C@_03FKNCMABI@?$CFlu?$AA@ DB '%lu', 00H		; `string'
CONST	ENDS
;	COMDAT ??_C@_03CCCGLAML@?$CFlg?$AA@
CONST	SEGMENT
??_C@_03CCCGLAML@?$CFlg?$AA@ DB '%lg', 00H		; `string'
CONST	ENDS
;	COMDAT ??_C@_0O@LDNBLIGF@?3unsignedByte?$AA@
CONST	SEGMENT
??_C@_0O@LDNBLIGF@?3unsignedByte?$AA@ DB ':unsignedByte', 00H ; `string'
CONST	ENDS
;	COMDAT ??_C@_0P@HNEDPCPK@?3unsignedShort?$AA@
CONST	SEGMENT
??_C@_0P@HNEDPCPK@?3unsignedShort?$AA@ DB ':unsignedShort', 00H ; `string'
CONST	ENDS
;	COMDAT ??_C@_0N@EEHCOMNL@?3unsignedInt?$AA@
CONST	SEGMENT
??_C@_0N@EEHCOMNL@?3unsignedInt?$AA@ DB ':unsignedInt', 00H ; `string'
CONST	ENDS
;	COMDAT ??_C@_0O@FKBEEKGD@?3unsignedLong?$AA@
CONST	SEGMENT
??_C@_0O@FKBEEKGD@?3unsignedLong?$AA@ DB ':unsignedLong', 00H ; `string'
CONST	ENDS
;	COMDAT ??_C@_08HMJFKOLE@?3decimal?$AA@
CONST	SEGMENT
??_C@_08HMJFKOLE@?3decimal?$AA@ DB ':decimal', 00H	; `string'
CONST	ENDS
;	COMDAT ??_C@_07PBNBEHML@?3double?$AA@
CONST	SEGMENT
??_C@_07PBNBEHML@?3double?$AA@ DB ':double', 00H	; `string'
CONST	ENDS
;	COMDAT ??_C@_06INOMFGCG@?3float?$AA@
CONST	SEGMENT
??_C@_06INOMFGCG@?3float?$AA@ DB ':float', 00H		; `string'
CONST	ENDS
;	COMDAT ??_C@_02BEIEFPIG@?$CFg?$AA@
CONST	SEGMENT
??_C@_02BEIEFPIG@?$CFg?$AA@ DB '%g', 00H		; `string'
CONST	ENDS
;	COMDAT ??_C@_04LFPHEJAJ@?$CLINF?$AA@
CONST	SEGMENT
??_C@_04LFPHEJAJ@?$CLINF?$AA@ DB '+INF', 00H		; `string'
CONST	ENDS
;	COMDAT ??_C@_04DKLHLMKJ@?9INF?$AA@
CONST	SEGMENT
??_C@_04DKLHLMKJ@?9INF?$AA@ DB '-INF', 00H		; `string'
CONST	ENDS
;	COMDAT ??_C@_03OEIAHPBN@INF?$AA@
CONST	SEGMENT
??_C@_03OEIAHPBN@INF?$AA@ DB 'INF', 00H			; `string'
CONST	ENDS
;	COMDAT ??_C@_03ICJPMMHB@NaN?$AA@
CONST	SEGMENT
??_C@_03ICJPMMHB@NaN?$AA@ DB 'NaN', 00H			; `string'
CONST	ENDS
;	COMDAT ??_C@_05LMKOBMME@?3long?$AA@
CONST	SEGMENT
??_C@_05LMKOBMME@?3long?$AA@ DB ':long', 00H		; `string'
CONST	ENDS
;	COMDAT ??_C@_0BE@PMBJAKPA@?3nonNegativeInteger?$AA@
CONST	SEGMENT
??_C@_0BE@PMBJAKPA@?3nonNegativeInteger?$AA@ DB ':nonNegativeInteger', 00H ; `string'
CONST	ENDS
;	COMDAT ??_C@_0BE@HIKONPMJ@?3nonPositiveInteger?$AA@
CONST	SEGMENT
??_C@_0BE@HIKONPMJ@?3nonPositiveInteger?$AA@ DB ':nonPositiveInteger', 00H ; `string'
CONST	ENDS
;	COMDAT ??_C@_0BB@FHGJHLHJ@?3negativeInteger?$AA@
CONST	SEGMENT
??_C@_0BB@FHGJHLHJ@?3negativeInteger?$AA@ DB ':negativeInteger', 00H ; `string'
CONST	ENDS
;	COMDAT ??_C@_0BB@NDNOKOEA@?3positiveInteger?$AA@
CONST	SEGMENT
??_C@_0BB@NDNOKOEA@?3positiveInteger?$AA@ DB ':positiveInteger', 00H ; `string'
CONST	ENDS
;	COMDAT ??_C@_08ICEBEHNK@?3integer?$AA@
CONST	SEGMENT
??_C@_08ICEBEHNK@?3integer?$AA@ DB ':integer', 00H	; `string'
CONST	ENDS
;	COMDAT ??_C@_05LLAMLEHD@?$CFI64d?$AA@
CONST	SEGMENT
??_C@_05LLAMLEHD@?$CFI64d?$AA@ DB '%I64d', 00H		; `string'
CONST	ENDS
;	COMDAT ??_C@_03JALODAI@?$CFld?$AA@
CONST	SEGMENT
??_C@_03JALODAI@?$CFld?$AA@ DB '%ld', 00H		; `string'
CONST	ENDS
;	COMDAT ??_C@_05FFGLOOMC@?3byte?$AA@
CONST	SEGMENT
??_C@_05FFGLOOMC@?3byte?$AA@ DB ':byte', 00H		; `string'
CONST	ENDS
;	COMDAT ??_C@_06DFBHHOOH@?3short?$AA@
CONST	SEGMENT
??_C@_06DFBHHOOH@?3short?$AA@ DB ':short', 00H		; `string'
CONST	ENDS
;	COMDAT ??_C@_04JNHIEKJE@?3int?$AA@
CONST	SEGMENT
??_C@_04JNHIEKJE@?3int?$AA@ DB ':int', 00H		; `string'
CONST	ENDS
;	COMDAT ??_C@_01EEMJAFIK@?6?$AA@
CONST	SEGMENT
??_C@_01EEMJAFIK@?6?$AA@ DB 0aH, 00H			; `string'
CONST	ENDS
;	COMDAT ??_C@_05HNAHLMAI@apos?$DL?$AA@
CONST	SEGMENT
??_C@_05HNAHLMAI@apos?$DL?$AA@ DB 'apos;', 00H		; `string'
CONST	ENDS
;	COMDAT ??_C@_05LDHOCHGG@quot?$DL?$AA@
CONST	SEGMENT
??_C@_05LDHOCHGG@quot?$DL?$AA@ DB 'quot;', 00H		; `string'
CONST	ENDS
;	COMDAT ??_C@_04DMIAPOKJ@amp?$DL?$AA@
CONST	SEGMENT
??_C@_04DMIAPOKJ@amp?$DL?$AA@ DB 'amp;', 00H		; `string'
CONST	ENDS
;	COMDAT ??_C@_03BHAAMAON@gt?$DL?$AA@
CONST	SEGMENT
??_C@_03BHAAMAON@gt?$DL?$AA@ DB 'gt;', 00H		; `string'
CONST	ENDS
;	COMDAT ??_C@_03MAABEHOM@lt?$DL?$AA@
CONST	SEGMENT
??_C@_03MAABEHOM@lt?$DL?$AA@ DB 'lt;', 00H		; `string'
CONST	ENDS
;	COMDAT ??_C@_06DDLNFFBN@?$CGquot?$DL?$AA@
CONST	SEGMENT
??_C@_06DDLNFFBN@?$CGquot?$DL?$AA@ DB '&quot;', 00H	; `string'
CONST	ENDS
;	COMDAT ??_C@_04LOOHDCEI@?$CGgt?$DL?$AA@
CONST	SEGMENT
??_C@_04LOOHDCEI@?$CGgt?$DL?$AA@ DB '&gt;', 00H		; `string'
CONST	ENDS
;	COMDAT ??_C@_04GJOGLFEJ@?$CGlt?$DL?$AA@
CONST	SEGMENT
??_C@_04GJOGLFEJ@?$CGlt?$DL?$AA@ DB '&lt;', 00H		; `string'
CONST	ENDS
;	COMDAT ??_C@_05JKJFEODM@?$CGamp?$DL?$AA@
CONST	SEGMENT
??_C@_05JKJFEODM@?$CGamp?$DL?$AA@ DB '&amp;', 00H	; `string'
CONST	ENDS
;	COMDAT ??_C@_05PMADKPPE@?$CG?$CDxD?$DL?$AA@
CONST	SEGMENT
??_C@_05PMADKPPE@?$CG?$CDxD?$DL?$AA@ DB '&#xD;', 00H	; `string'
CONST	ENDS
;	COMDAT ??_C@_05PKMIGNBP@?$CG?$CDxA?$DL?$AA@
CONST	SEGMENT
??_C@_05PKMIGNBP@?$CG?$CDxA?$DL?$AA@ DB '&#xA;', 00H	; `string'
CONST	ENDS
;	COMDAT ??_C@_05KACKFEPH@?$CG?$CDx9?$DL?$AA@
CONST	SEGMENT
??_C@_05KACKFEPH@?$CG?$CDx9?$DL?$AA@ DB '&#x9;', 00H	; `string'
CONST	ENDS
;	COMDAT ??_C@_0DC@KBJFLDJI@http?3?1?1www?4w3?4org?12003?105?1soap?9e@
CONST	SEGMENT
??_C@_0DC@KBJFLDJI@http?3?1?1www?4w3?4org?12003?105?1soap?9e@ DB 'http://'
	DB	'www.w3.org/2003/05/soap-envelope/role/next', 00H ; `string'
CONST	ENDS
;	COMDAT ??_C@_03GCDGINBO@ref?$AA@
CONST	SEGMENT
??_C@_03GCDGINBO@ref?$AA@ DB 'ref', 00H			; `string'
CONST	ENDS
;	COMDAT ??_C@_0CL@EFBJIKLI@http?3?1?1schemas?4xmlsoap?4org?1soap?1@
CONST	SEGMENT
??_C@_0CL@EFBJIKLI@http?3?1?1schemas?4xmlsoap?4org?1soap?1@ DB 'http://sc'
	DB	'hemas.xmlsoap.org/soap/actor/next', 00H	; `string'
CONST	ENDS
;	COMDAT ??_C@_0O@BGJHDLJG@SOAP?9ENC?3root?$AA@
CONST	SEGMENT
??_C@_0O@BGJHDLJG@SOAP?9ENC?3root?$AA@ DB 'SOAP-ENC:root', 00H ; `string'
CONST	ENDS
;	COMDAT ??_C@_08DJPLLOHP@xsi?3null?$AA@
CONST	SEGMENT
??_C@_08DJPLLOHP@xsi?3null?$AA@ DB 'xsi:null', 00H	; `string'
CONST	ENDS
;	COMDAT ??_C@_06BGJENONN@wsu?3Id?$AA@
CONST	SEGMENT
??_C@_06BGJENONN@wsu?3Id?$AA@ DB 'wsu:Id', 00H		; `string'
CONST	ENDS
;	COMDAT ??_C@_05PPEFOGKI@xmlns?$AA@
CONST	SEGMENT
??_C@_05PPEFOGKI@xmlns?$AA@ DB 'xmlns', 00H		; `string'
CONST	ENDS
;	COMDAT ??_C@_06PNFLLAEF@xmlns?3?$AA@
CONST	SEGMENT
??_C@_06PNFLLAEF@xmlns?3?$AA@ DB 'xmlns:', 00H		; `string'
CONST	ENDS
;	COMDAT ??_C@_07EFBDHEMP@?3result?$AA@
CONST	SEGMENT
??_C@_07EFBDHEMP@?3result?$AA@ DB ':result', 00H	; `string'
CONST	ENDS
;	COMDAT ??_C@_0P@CNMICKND@xmlns?3SOAP?9RPC?$AA@
CONST	SEGMENT
??_C@_0P@CNMICKND@xmlns?3SOAP?9RPC?$AA@ DB 'xmlns:SOAP-RPC', 00H ; `string'
CONST	ENDS
;	COMDAT ??_C@_0BA@JOBDACAK@SOAP?9RPC?3result?$AA@
CONST	SEGMENT
??_C@_0BA@JOBDACAK@SOAP?9RPC?3result?$AA@ DB 'SOAP-RPC:result', 00H ; `string'
CONST	ENDS
;	COMDAT ??_C@_07KJDFMKIE@xsi?3nil?$AA@
CONST	SEGMENT
??_C@_07KJDFMKIE@xsi?3nil?$AA@ DB 'xsi:nil', 00H	; `string'
CONST	ENDS
;	COMDAT ??_C@_04BDMFGIGK@?$CD_?$CFd?$AA@
CONST	SEGMENT
??_C@_04BDMFGIGK@?$CD_?$CFd?$AA@ DB '#_%d', 00H		; `string'
CONST	ENDS
;	COMDAT ??_C@_0N@HAMJFIGF@SOAP?9ENC?3ref?$AA@
CONST	SEGMENT
??_C@_0N@HAMJFIGF@SOAP?9ENC?3ref?$AA@ DB 'SOAP-ENC:ref', 00H ; `string'
CONST	ENDS
;	COMDAT ??_C@_02DPNDACHE@?$DM?1?$AA@
CONST	SEGMENT
??_C@_02DPNDACHE@?$DM?1?$AA@ DB '</', 00H		; `string'
CONST	ENDS
;	COMDAT ??_C@_02HCGKDMEN@?1?$DO?$AA@
CONST	SEGMENT
??_C@_02HCGKDMEN@?1?$DO?$AA@ DB '/>', 00H		; `string'
CONST	ENDS
;	COMDAT ??_C@_02ILLPBGAO@?$DN?$CC?$AA@
CONST	SEGMENT
??_C@_02ILLPBGAO@?$DN?$CC?$AA@ DB '="', 00H		; `string'
CONST	ENDS
;	COMDAT ??_C@_0BD@GFBEJDEK@SOAP?9ENC?3arrayType?$AA@
CONST	SEGMENT
??_C@_0BD@GFBEJDEK@SOAP?9ENC?3arrayType?$AA@ DB 'SOAP-ENC:arrayType', 00H ; `string'
CONST	ENDS
;	COMDAT ??_C@_0BA@CCJOJBBI@SOAP?9ENC?3offset?$AA@
CONST	SEGMENT
??_C@_0BA@CCJOJBBI@SOAP?9ENC?3offset?$AA@ DB 'SOAP-ENC:offset', 00H ; `string'
CONST	ENDS
;	COMDAT ??_C@_0BD@IKLKJNBD@SOAP?9ENC?3arraySize?$AA@
CONST	SEGMENT
??_C@_0BD@IKLKJNBD@SOAP?9ENC?3arraySize?$AA@ DB 'SOAP-ENC:arraySize', 00H ; `string'
CONST	ENDS
;	COMDAT ??_C@_0BC@GCPDJBOG@SOAP?9ENC?3itemType?$AA@
CONST	SEGMENT
??_C@_0BC@GCPDJBOG@SOAP?9ENC?3itemType?$AA@ DB 'SOAP-ENC:itemType', 00H ; `string'
CONST	ENDS
;	COMDAT ??_C@_0P@EFIHKLBM@SOAP?9ENC?3Array?$AA@
CONST	SEGMENT
??_C@_0P@EFIHKLBM@SOAP?9ENC?3Array?$AA@ DB 'SOAP-ENC:Array', 00H ; `string'
CONST	ENDS
;	COMDAT ??_C@_0BH@DOAGFCPF@SOAP?9ENV?3encodingStyle?$AA@
CONST	SEGMENT
??_C@_0BH@DOAGFCPF@SOAP?9ENV?3encodingStyle?$AA@ DB 'SOAP-ENV:encodingSty'
	DB	'le', 00H					; `string'
CONST	ENDS
;	COMDAT ??_C@_0BI@ENKFHJBH@SOAP?9ENV?3mustUnderstand?$AA@
CONST	SEGMENT
??_C@_0BI@ENKFHJBH@SOAP?9ENV?3mustUnderstand?$AA@ DB 'SOAP-ENV:mustUnders'
	DB	'tand', 00H					; `string'
CONST	ENDS
;	COMDAT ??_C@_0P@OHPBIEEK@SOAP?9ENV?3actor?$AA@
CONST	SEGMENT
??_C@_0P@OHPBIEEK@SOAP?9ENV?3actor?$AA@ DB 'SOAP-ENV:actor', 00H ; `string'
CONST	ENDS
;	COMDAT ??_C@_0O@HCOOBFLG@SOAP?9ENV?3role?$AA@
CONST	SEGMENT
??_C@_0O@HCOOBFLG@SOAP?9ENV?3role?$AA@ DB 'SOAP-ENV:role', 00H ; `string'
CONST	ENDS
;	COMDAT ??_C@_0BC@LJIIOGEO@SOAP?9ENC?3position?$AA@
CONST	SEGMENT
??_C@_0BC@LJIIOGEO@SOAP?9ENC?3position?$AA@ DB 'SOAP-ENC:position', 00H ; `string'
CONST	ENDS
;	COMDAT ??_C@_08JNIDGPLJ@xsi?3type?$AA@
CONST	SEGMENT
??_C@_08JNIDGPLJ@xsi?3type?$AA@ DB 'xsi:type', 00H	; `string'
CONST	ENDS
;	COMDAT ??_C@_03HCMCBFLP@_?$CFd?$AA@
CONST	SEGMENT
??_C@_03HCMCBFLP@_?$CFd?$AA@ DB '_%d', 00H		; `string'
CONST	ENDS
;	COMDAT ??_C@_08HMPLFLKJ@xmlns?3?$CFs?$AA@
CONST	SEGMENT
??_C@_08HMPLFLKJ@xmlns?3?$CFs?$AA@ DB 'xmlns:%s', 00H	; `string'
CONST	ENDS
;	COMDAT ??_C@_01MNNFJEPP@?$DM?$AA@
CONST	SEGMENT
??_C@_01MNNFJEPP@?$DM?$AA@ DB '<', 00H			; `string'
CONST	ENDS
;	COMDAT ??_C@_0CI@FMJEECLD@?$DM?$DPxml?5version?$DN?$CC1?40?$CC?5encoding?$DN?$CCUT@
CONST	SEGMENT
??_C@_0CI@FMJEECLD@?$DM?$DPxml?5version?$DN?$CC1?40?$CC?5encoding?$DN?$CCUT@ DB '<'
	DB	'?xml version="1.0" encoding="UTF-8"?>', 0aH, 00H ; `string'
CONST	ENDS
;	COMDAT ??_C@_03GCKCNDHP@1?41?$AA@
CONST	SEGMENT
??_C@_03GCKCNDHP@1?41?$AA@ DB '1.1', 00H		; `string'
CONST	ENDS
;	COMDAT ??_C@_08HGNFPOFN@cid?3id?$CFd?$AA@
CONST	SEGMENT
??_C@_08HGNFPOFN@cid?3id?$CFd?$AA@ DB 'cid:id%d', 00H	; `string'
CONST	ENDS
;	COMDAT ??_C@_06MNPIOIFE@?$CF?417lG?$AA@
CONST	SEGMENT
??_C@_06MNPIOIFE@?$CF?417lG?$AA@ DB '%.17lG', 00H	; `string'
CONST	ENDS
;	COMDAT ??_C@_04OEJDHHEG@?$CF?49G?$AA@
CONST	SEGMENT
??_C@_04OEJDHHEG@?$CF?49G?$AA@ DB '%.9G', 00H		; `string'
CONST	ENDS
;	COMDAT ??_C@_01MCMALHOG@a?$AA@
CONST	SEGMENT
??_C@_01MCMALHOG@a?$AA@ DB 'a', 00H			; `string'
CONST	ENDS
;	COMDAT ??_C@_02BOGAIONP@ab?$AA@
CONST	SEGMENT
??_C@_02BOGAIONP@ab?$AA@ DB 'ab', 00H			; `string'
CONST	ENDS
;	COMDAT ??_C@_07MEMIDCKI@?$AN?60?$AN?6?$AN?6?$AA@
CONST	SEGMENT
??_C@_07MEMIDCKI@?$AN?60?$AN?6?$AN?6?$AA@ DB 0dH, 0aH, '0', 0dH, 0aH, 0dH
	DB	0aH, 00H					; `string'
CONST	ENDS
;	COMDAT ??_C@_01PPODPGHN@?$DO?$AA@
CONST	SEGMENT
??_C@_01PPODPGHN@?$DO?$AA@ DB '>', 00H			; `string'
CONST	ENDS
;	COMDAT ??_C@_04MLBGAAHD@cid?3?$AA@
CONST	SEGMENT
??_C@_04MLBGAAHD@cid?3?$AA@ DB 'cid:', 00H		; `string'
CONST	ENDS
;	COMDAT ??_C@_04CMBCJJJD@href?$AA@
CONST	SEGMENT
??_C@_04CMBCJJJD@href?$AA@ DB 'href', 00H		; `string'
CONST	ENDS
;	COMDAT ??_C@_0CC@JGPGJFPH@no?5master?5socket?5in?5soap_accept?$CI@
CONST	SEGMENT
??_C@_0CC@JGPGJFPH@no?5master?5socket?5in?5soap_accept?$CI@ DB 'no master'
	DB	' socket in soap_accept()', 00H		; `string'
CONST	ENDS
;	COMDAT ??_C@_0CP@BOBCLGJD@setsockopt?5TCP_NODELAY?5failed?5in@
CONST	SEGMENT
??_C@_0CP@BOBCLGJD@setsockopt?5TCP_NODELAY?5failed?5in@ DB 'setsockopt TC'
	DB	'P_NODELAY failed in soap_accept()', 00H	; `string'
CONST	ENDS
;	COMDAT ??_C@_0CN@IBIGNPMJ@setsockopt?5SO_RCVBUF?5failed?5in?5s@
CONST	SEGMENT
??_C@_0CN@IBIGNPMJ@setsockopt?5SO_RCVBUF?5failed?5in?5s@ DB 'setsockopt S'
	DB	'O_RCVBUF failed in soap_accept()', 00H	; `string'
CONST	ENDS
;	COMDAT ??_C@_0CN@DKDDHJHM@setsockopt?5SO_SNDBUF?5failed?5in?5s@
CONST	SEGMENT
??_C@_0CN@DKDDHJHM@setsockopt?5SO_SNDBUF?5failed?5in?5s@ DB 'setsockopt S'
	DB	'O_SNDBUF failed in soap_accept()', 00H	; `string'
CONST	ENDS
;	COMDAT ??_C@_0DA@HHADOPDB@setsockopt?5SO_KEEPALIVE?5failed?5i@
CONST	SEGMENT
??_C@_0DA@HHADOPDB@setsockopt?5SO_KEEPALIVE?5failed?5i@ DB 'setsockopt SO'
	DB	'_KEEPALIVE failed in soap_accept()', 00H	; `string'
CONST	ENDS
;	COMDAT ??_C@_0CD@BMBLFJEF@setsockopt?5failed?5in?5soap_accept@
CONST	SEGMENT
??_C@_0CD@BMBLFJEF@setsockopt?5failed?5in?5soap_accept@ DB 'setsockopt fa'
	DB	'iled in soap_accept()', 00H			; `string'
CONST	ENDS
;	COMDAT ??_C@_0CN@IPOEJJJL@setsockopt?5SO_LINGER?5failed?5in?5s@
CONST	SEGMENT
??_C@_0CN@IPOEJJJL@setsockopt?5SO_LINGER?5failed?5in?5s@ DB 'setsockopt S'
	DB	'O_LINGER failed in soap_accept()', 00H	; `string'
CONST	ENDS
;	COMDAT ??_C@_0BP@HJFOKHGA@accept?5failed?5in?5soap_accept?$CI?$CJ?$AA@
CONST	SEGMENT
??_C@_0BP@HJFOKHGA@accept?5failed?5in?5soap_accept?$CI?$CJ?$AA@ DB 'accep'
	DB	't failed in soap_accept()', 00H		; `string'
CONST	ENDS
;	COMDAT ??_C@_0BN@DONKIDPM@select?5failed?5in?5soap_poll?$CI?$CJ?$AA@
CONST	SEGMENT
??_C@_0BN@DONKIDPM@select?5failed?5in?5soap_poll?$CI?$CJ?$AA@ DB 'select '
	DB	'failed in soap_poll()', 00H			; `string'
CONST	ENDS
;	COMDAT ??_C@_0BN@GKFGOOJD@listen?5failed?5in?5soap_bind?$CI?$CJ?$AA@
CONST	SEGMENT
??_C@_0BN@GKFGOOJD@listen?5failed?5in?5soap_bind?$CI?$CJ?$AA@ DB 'listen '
	DB	'failed in soap_bind()', 00H			; `string'
CONST	ENDS
;	COMDAT ??_C@_0BL@GFJLCODA@bind?5failed?5in?5soap_bind?$CI?$CJ?$AA@
CONST	SEGMENT
??_C@_0BL@GFJLCODA@bind?5failed?5in?5soap_bind?$CI?$CJ?$AA@ DB 'bind fail'
	DB	'ed in soap_bind()', 00H			; `string'
CONST	ENDS
;	COMDAT ??_C@_0CH@FGHBILAG@get?5host?5by?5name?5failed?5in?5soap_@
CONST	SEGMENT
??_C@_0CH@FGHBILAG@get?5host?5by?5name?5failed?5in?5soap_@ DB 'get host b'
	DB	'y name failed in soap_bind()', 00H		; `string'
CONST	ENDS
;	COMDAT ??_C@_0CN@KADDKKPF@setsockopt?5TCP_NODELAY?5failed?5in@
CONST	SEGMENT
??_C@_0CN@KADDKKPF@setsockopt?5TCP_NODELAY?5failed?5in@ DB 'setsockopt TC'
	DB	'P_NODELAY failed in soap_bind()', 00H	; `string'
CONST	ENDS
;	COMDAT ??_C@_0CL@JJJGHOEP@setsockopt?5SO_RCVBUF?5failed?5in?5s@
CONST	SEGMENT
??_C@_0CL@JJJGHOEP@setsockopt?5SO_RCVBUF?5failed?5in?5s@ DB 'setsockopt S'
	DB	'O_RCVBUF failed in soap_bind()', 00H	; `string'
CONST	ENDS
;	COMDAT ??_C@_0CL@HDDANLDN@setsockopt?5SO_SNDBUF?5failed?5in?5s@
CONST	SEGMENT
??_C@_0CL@HDDANLDN@setsockopt?5SO_SNDBUF?5failed?5in?5s@ DB 'setsockopt S'
	DB	'O_SNDBUF failed in soap_bind()', 00H	; `string'
CONST	ENDS
;	COMDAT ??_C@_0CO@IMNBHKGL@setsockopt?5SO_KEEPALIVE?5failed?5i@
CONST	SEGMENT
??_C@_0CO@IMNBHKGL@setsockopt?5SO_KEEPALIVE?5failed?5i@ DB 'setsockopt SO'
	DB	'_KEEPALIVE failed in soap_bind()', 00H	; `string'
CONST	ENDS
;	COMDAT ??_C@_0CB@LHEHKJOM@setsockopt?5failed?5in?5soap_bind?$CI?$CJ@
CONST	SEGMENT
??_C@_0CB@LHEHKJOM@setsockopt?5failed?5in?5soap_bind?$CI?$CJ@ DB 'setsock'
	DB	'opt failed in soap_bind()', 00H		; `string'
CONST	ENDS
;	COMDAT ??_C@_0BN@LIAJIIPM@socket?5failed?5in?5soap_bind?$CI?$CJ?$AA@
CONST	SEGMENT
??_C@_0BN@LIAJIIPM@socket?5failed?5in?5soap_bind?$CI?$CJ?$AA@ DB 'socket '
	DB	'failed in soap_bind()', 00H			; `string'
CONST	ENDS
;	COMDAT ??_C@_0BP@EOFJAGHM@TCP?5init?5failed?5in?5soap_bind?$CI?$CJ?$AA@
CONST	SEGMENT
??_C@_0BP@EOFJAGHM@TCP?5init?5failed?5in?5soap_bind?$CI?$CJ?$AA@ DB 'TCP '
	DB	'init failed in soap_bind()', 00H		; `string'
CONST	ENDS
;	COMDAT ??_C@_07NHIIGDKE@https?3?$CK?$AA@
CONST	SEGMENT
??_C@_07NHIIGDKE@https?3?$CK?$AA@ DB 'https:*', 00H	; `string'
CONST	ENDS
;	COMDAT ??_C@_07MKALMBDJ@Timeout?$AA@
CONST	SEGMENT
??_C@_07MKALMBDJ@Timeout?$AA@ DB 'Timeout', 00H		; `string'
CONST	ENDS
;	COMDAT ??_C@_0CA@EGALGEOM@connect?5failed?5in?5tcp_connect?$CI?$CJ?$AA@
CONST	SEGMENT
??_C@_0CA@EGALGEOM@connect?5failed?5in?5tcp_connect?$CI?$CJ?$AA@ DB 'conn'
	DB	'ect failed in tcp_connect()', 00H		; `string'
CONST	ENDS
;	COMDAT ??_C@_0CJ@HHNLALCP@get?5host?5by?5name?5failed?5in?5tcp_c@
CONST	SEGMENT
??_C@_0CJ@HHNLALCP@get?5host?5by?5name?5failed?5in?5tcp_c@ DB 'get host b'
	DB	'y name failed in tcp_connect()', 00H	; `string'
CONST	ENDS
;	COMDAT ??_C@_0CP@BEACMDAL@get?5proxy?5host?5by?5name?5failed?5in@
CONST	SEGMENT
??_C@_0CP@BEACMDAL@get?5proxy?5host?5by?5name?5failed?5in@ DB 'get proxy '
	DB	'host by name failed in tcp_connect()', 00H	; `string'
CONST	ENDS
;	COMDAT ??_C@_0CP@ECDFPEN@setsockopt?5TCP_NODELAY?5failed?5in@
CONST	SEGMENT
??_C@_0CP@ECDFPEN@setsockopt?5TCP_NODELAY?5failed?5in@ DB 'setsockopt TCP'
	DB	'_NODELAY failed in tcp_connect()', 00H	; `string'
CONST	ENDS
;	COMDAT ??_C@_0CN@JLLHDGBH@setsockopt?5SO_RCVBUF?5failed?5in?5t@
CONST	SEGMENT
??_C@_0CN@JLLHDGBH@setsockopt?5SO_RCVBUF?5failed?5in?5t@ DB 'setsockopt S'
	DB	'O_RCVBUF failed in tcp_connect()', 00H	; `string'
CONST	ENDS
;	COMDAT ??_C@_0CN@CAACJAKC@setsockopt?5SO_SNDBUF?5failed?5in?5t@
CONST	SEGMENT
??_C@_0CN@CAACJAKC@setsockopt?5SO_SNDBUF?5failed?5in?5t@ DB 'setsockopt S'
	DB	'O_SNDBUF failed in tcp_connect()', 00H	; `string'
CONST	ENDS
;	COMDAT ??_C@_0DA@GNDCAGOP@setsockopt?5SO_KEEPALIVE?5failed?5i@
CONST	SEGMENT
??_C@_0DA@GNDCAGOP@setsockopt?5SO_KEEPALIVE?5failed?5i@ DB 'setsockopt SO'
	DB	'_KEEPALIVE failed in tcp_connect()', 00H	; `string'
CONST	ENDS
;	COMDAT ??_C@_0CD@GCKLAJL@setsockopt?5failed?5in?5tcp_connect@
CONST	SEGMENT
??_C@_0CD@GCKLAJL@setsockopt?5failed?5in?5tcp_connect@ DB 'setsockopt fai'
	DB	'led in tcp_connect()', 00H			; `string'
CONST	ENDS
;	COMDAT ??_C@_0CN@JFNFHAEF@setsockopt?5SO_LINGER?5failed?5in?5t@
CONST	SEGMENT
??_C@_0CN@JFNFHAEF@setsockopt?5SO_LINGER?5failed?5in?5t@ DB 'setsockopt S'
	DB	'O_LINGER failed in tcp_connect()', 00H	; `string'
CONST	ENDS
;	COMDAT ??_C@_0BP@IBLNNK@socket?5failed?5in?5tcp_connect?$CI?$CJ?$AA@
CONST	SEGMENT
??_C@_0BP@IBLNNK@socket?5failed?5in?5tcp_connect?$CI?$CJ?$AA@ DB 'socket '
	DB	'failed in tcp_connect()', 00H		; `string'
CONST	ENDS
;	COMDAT ??_C@_0CB@DBACHNOG@TCP?5init?5failed?5in?5tcp_connect?$CI?$CJ@
CONST	SEGMENT
??_C@_0CB@DBACHNOG@TCP?5init?5failed?5in?5tcp_connect?$CI?$CJ@ DB 'TCP in'
	DB	'it failed in tcp_connect()', 00H		; `string'
CONST	ENDS
;	COMDAT ??_C@_0BE@GDJAADON@TCP?1UDP?5IP?5error?5?$CFd?$AA@
CONST	SEGMENT
??_C@_0BE@GDJAADON@TCP?1UDP?5IP?5error?5?$CFd?$AA@ DB 'TCP/UDP IP error %'
	DB	'd', 00H					; `string'
CONST	ENDS
;	COMDAT ??_C@_0BC@NFJDOJIM@WSAStartup?5failed?$AA@
CONST	SEGMENT
??_C@_0BC@NFJDOJIM@WSAStartup?5failed?$AA@ DB 'WSAStartup failed', 00H ; `string'
CONST	ENDS
;	COMDAT ??_C@_0M@NANEACJL@xsd?3ur?9type?$AA@
CONST	SEGMENT
??_C@_0M@NANEACJL@xsd?3ur?9type?$AA@ DB 'xsd:ur-type', 00H ; `string'
CONST	ENDS
;	COMDAT ??_C@_03PJHHNEEI@xml?$AA@
CONST	SEGMENT
??_C@_03PJHHNEEI@xml?$AA@ DB 'xml', 00H			; `string'
CONST	ENDS
;	COMDAT ??_C@_03PNKAICOI@?$FL?$CFd?$AA@
CONST	SEGMENT
??_C@_03PNKAICOI@?$FL?$CFd?$AA@ DB '[%d', 00H		; `string'
CONST	ENDS
;	COMDAT ??_C@_03LEIBKMN@?0?$CFd?$AA@
CONST	SEGMENT
??_C@_03LEIBKMN@?0?$CFd?$AA@ DB ',%d', 00H		; `string'
CONST	ENDS
;	COMDAT ??_C@_03EBJOKFHF@?5?$CFd?$AA@
CONST	SEGMENT
??_C@_03EBJOKFHF@?5?$CFd?$AA@ DB ' %d', 00H		; `string'
CONST	ENDS
;	COMDAT ??_C@_05IEDFPCMN@?$CFs?$FL?$CFd?$AA@
CONST	SEGMENT
??_C@_05IEDFPCMN@?$CFs?$FL?$CFd?$AA@ DB '%s[%d', 00H	; `string'
CONST	ENDS
;	COMDAT ??_C@_0M@BMFKMGMG@xop?3Include?$AA@
CONST	SEGMENT
??_C@_0M@BMFKMGMG@xop?3Include?$AA@ DB 'xop:Include', 00H ; `string'
CONST	ENDS
;	COMDAT ??_C@_06ENEJBNNE@utf?98?$CK?$AA@
CONST	SEGMENT
??_C@_06ENEJBNNE@utf?98?$CK?$AA@ DB 'utf-8*', 00H	; `string'
CONST	ENDS
;	COMDAT ??_C@_07KFPCELGH@latin1?$CK?$AA@
CONST	SEGMENT
??_C@_07KFPCELGH@latin1?$CK?$AA@ DB 'latin1*', 00H	; `string'
CONST	ENDS
;	COMDAT ??_C@_0M@CIPLLKIK@iso?98859?91?$CK?$AA@
CONST	SEGMENT
??_C@_0M@CIPLLKIK@iso?98859?91?$CK?$AA@ DB 'iso-8859-1*', 00H ; `string'
CONST	ENDS
;	COMDAT ??_C@_0L@GJNPICMJ@?5encoding?$DN?$AA@
CONST	SEGMENT
??_C@_0L@GJNPICMJ@?5encoding?$DN?$AA@ DB ' encoding=', 00H ; `string'
CONST	ENDS
;	COMDAT ??_C@_04ONHKJKNE@xml?5?$AA@
CONST	SEGMENT
??_C@_04ONHKJKNE@xml?5?$AA@ DB 'xml ', 00H		; `string'
CONST	ENDS
;	COMDAT ??_C@_04LBCJFAKL@apos?$AA@
CONST	SEGMENT
??_C@_04LBCJFAKL@apos?$AA@ DB 'apos', 00H		; `string'
CONST	ENDS
;	COMDAT ??_C@_04KJFGKBNM@quot?$AA@
CONST	SEGMENT
??_C@_04KJFGKBNM@quot?$AA@ DB 'quot', 00H		; `string'
CONST	ENDS
;	COMDAT ??_C@_03DCBBJBAA@amp?$AA@
CONST	SEGMENT
??_C@_03DCBBJBAA@amp?$AA@ DB 'amp', 00H			; `string'
CONST	ENDS
;	COMDAT ??_C@_02GHFEHLK@gt?$AA@
CONST	SEGMENT
??_C@_02GHFEHLK@gt?$AA@ DB 'gt', 00H			; `string'
CONST	ENDS
;	COMDAT ??_C@_02KCAKIFL@lt?$AA@
CONST	SEGMENT
??_C@_02KCAKIFL@lt?$AA@ DB 'lt', 00H			; `string'
CONST	ENDS
;	COMDAT ??_C@_07FCIFDIFE@?$AN?6?$CFlX?$AN?6?$AA@
CONST	SEGMENT
??_C@_07FCIFDIFE@?$AN?6?$CFlX?$AN?6?$AA@ DB 0dH, 0aH, '%lX', 0dH, 0aH, 00H ; `string'
CONST	ENDS
;	COMDAT ??_C@_07JJJGGCEE@x?9token?$AA@
CONST	SEGMENT
??_C@_07JJJGGCEE@x?9token?$AA@ DB 'x-token', 00H	; `string'
CONST	ENDS
;	COMDAT ??_C@_0L@EPBKNKII@ietf?9token?$AA@
CONST	SEGMENT
??_C@_0L@EPBKNKII@ietf?9token?$AA@ DB 'ietf-token', 00H	; `string'
CONST	ENDS
;	COMDAT ??_C@_06JEFEFGEJ@base64?$AA@
CONST	SEGMENT
??_C@_06JEFEFGEJ@base64?$AA@ DB 'base64', 00H		; `string'
CONST	ENDS
;	COMDAT ??_C@_0BB@CAHAECFA@quoted?9printable?$AA@
CONST	SEGMENT
??_C@_0BB@CAHAECFA@quoted?9printable?$AA@ DB 'quoted-printable', 00H ; `string'
CONST	ENDS
;	COMDAT ??_C@_06FNFBAEBE@binary?$AA@
CONST	SEGMENT
??_C@_06FNFBAEBE@binary?$AA@ DB 'binary', 00H		; `string'
CONST	ENDS
;	COMDAT ??_C@_04DFPGIIHA@8bit?$AA@
CONST	SEGMENT
??_C@_04DFPGIIHA@8bit?$AA@ DB '8bit', 00H		; `string'
CONST	ENDS
;	COMDAT ??_C@_04LHKGBPKB@7bit?$AA@
CONST	SEGMENT
??_C@_04LHKGBPKB@7bit?$AA@ DB '7bit', 00H		; `string'
CONST	ENDS
;	COMDAT ??_C@_0BL@GBBFKFHI@HTTP?5Version?5not?5supported?$AA@
CONST	SEGMENT
??_C@_0BL@GBBFKFHI@HTTP?5Version?5not?5supported?$AA@ DB 'HTTP Version no'
	DB	't supported', 00H				; `string'
CONST	ENDS
;	COMDAT ??_C@_0BB@PHMOGCPC@Gateway?5Time?9out?$AA@
CONST	SEGMENT
??_C@_0BB@PHMOGCPC@Gateway?5Time?9out?$AA@ DB 'Gateway Time-out', 00H ; `string'
CONST	ENDS
;	COMDAT ??_C@_0BE@NGHLFKBN@Service?5Unavailable?$AA@
CONST	SEGMENT
??_C@_0BE@NGHLFKBN@Service?5Unavailable?$AA@ DB 'Service Unavailable', 00H ; `string'
CONST	ENDS
;	COMDAT ??_C@_0M@BNCNLPGM@Bad?5Gateway?$AA@
CONST	SEGMENT
??_C@_0M@BNCNLPGM@Bad?5Gateway?$AA@ DB 'Bad Gateway', 00H ; `string'
CONST	ENDS
;	COMDAT ??_C@_0BA@JGKGKAME@Not?5Implemented?$AA@
CONST	SEGMENT
??_C@_0BA@JGKGKAME@Not?5Implemented?$AA@ DB 'Not Implemented', 00H ; `string'
CONST	ENDS
;	COMDAT ??_C@_0BG@NJGANGCC@Internal?5Server?5Error?$AA@
CONST	SEGMENT
??_C@_0BG@NJGANGCC@Internal?5Server?5Error?$AA@ DB 'Internal Server Error'
	DB	00H						; `string'
CONST	ENDS
;	COMDAT ??_C@_0BD@NDMHPAED@Expectation?5Failed?$AA@
CONST	SEGMENT
??_C@_0BD@NDMHPAED@Expectation?5Failed?$AA@ DB 'Expectation Failed', 00H ; `string'
CONST	ENDS
;	COMDAT ??_C@_0CA@KGJNFKJM@Requested?5range?5not?5satisfiable?$AA@
CONST	SEGMENT
??_C@_0CA@KGJNFKJM@Requested?5range?5not?5satisfiable?$AA@ DB 'Requested '
	DB	'range not satisfiable', 00H			; `string'
CONST	ENDS
;	COMDAT ??_C@_0BH@HLJJIAEN@Unsupported?5Media?5Type?$AA@
CONST	SEGMENT
??_C@_0BH@HLJJIAEN@Unsupported?5Media?5Type?$AA@ DB 'Unsupported Media Ty'
	DB	'pe', 00H					; `string'
CONST	ENDS
;	COMDAT ??_C@_0BG@PMALKKB@Request?9URI?5Too?5Large?$AA@
CONST	SEGMENT
??_C@_0BG@PMALKKB@Request?9URI?5Too?5Large?$AA@ DB 'Request-URI Too Large'
	DB	00H						; `string'
CONST	ENDS
;	COMDAT ??_C@_0BJ@MMEIEOIG@Request?5Entity?5Too?5Large?$AA@
CONST	SEGMENT
??_C@_0BJ@MMEIEOIG@Request?5Entity?5Too?5Large?$AA@ DB 'Request Entity To'
	DB	'o Large', 00H				; `string'
CONST	ENDS
;	COMDAT ??_C@_0BE@BBDBJOM@Precondition?5Failed?$AA@
CONST	SEGMENT
??_C@_0BE@BBDBJOM@Precondition?5Failed?$AA@ DB 'Precondition Failed', 00H ; `string'
CONST	ENDS
;	COMDAT ??_C@_0BA@JCKHPIPI@Length?5Required?$AA@
CONST	SEGMENT
??_C@_0BA@JCKHPIPI@Length?5Required?$AA@ DB 'Length Required', 00H ; `string'
CONST	ENDS
;	COMDAT ??_C@_04OKIIBCCG@Gone?$AA@
CONST	SEGMENT
??_C@_04OKIIBCCG@Gone?$AA@ DB 'Gone', 00H		; `string'
CONST	ENDS
;	COMDAT ??_C@_08OJCIFGDF@Conflict?$AA@
CONST	SEGMENT
??_C@_08OJCIFGDF@Conflict?$AA@ DB 'Conflict', 00H	; `string'
CONST	ENDS
;	COMDAT ??_C@_0BB@GKNJPEJG@Request?5Time?9out?$AA@
CONST	SEGMENT
??_C@_0BB@GKNJPEJG@Request?5Time?9out?$AA@ DB 'Request Time-out', 00H ; `string'
CONST	ENDS
;	COMDAT ??_C@_0BO@ONPAAOGI@Proxy?5Authentication?5Required?$AA@
CONST	SEGMENT
??_C@_0BO@ONPAAOGI@Proxy?5Authentication?5Required?$AA@ DB 'Proxy Authent'
	DB	'ication Required', 00H			; `string'
CONST	ENDS
;	COMDAT ??_C@_0P@HHIDFAOI@Not?5Acceptable?$AA@
CONST	SEGMENT
??_C@_0P@HHIDFAOI@Not?5Acceptable?$AA@ DB 'Not Acceptable', 00H ; `string'
CONST	ENDS
;	COMDAT ??_C@_0BD@CCIPIALO@Method?5Not?5Allowed?$AA@
CONST	SEGMENT
??_C@_0BD@CCIPIALO@Method?5Not?5Allowed?$AA@ DB 'Method Not Allowed', 00H ; `string'
CONST	ENDS
;	COMDAT ??_C@_09CFCBFJND@Not?5Found?$AA@
CONST	SEGMENT
??_C@_09CFCBFJND@Not?5Found?$AA@ DB 'Not Found', 00H	; `string'
CONST	ENDS
;	COMDAT ??_C@_09LMDIMFJD@Forbidden?$AA@
CONST	SEGMENT
??_C@_09LMDIMFJD@Forbidden?$AA@ DB 'Forbidden', 00H	; `string'
CONST	ENDS
;	COMDAT ??_C@_0BB@LMPIHCBH@Payment?5Required?$AA@
CONST	SEGMENT
??_C@_0BB@LMPIHCBH@Payment?5Required?$AA@ DB 'Payment Required', 00H ; `string'
CONST	ENDS
;	COMDAT ??_C@_0N@OOAPMOJA@Unauthorized?$AA@
CONST	SEGMENT
??_C@_0N@OOAPMOJA@Unauthorized?$AA@ DB 'Unauthorized', 00H ; `string'
CONST	ENDS
;	COMDAT ??_C@_0M@LNAIDEEG@Bad?5Request?$AA@
CONST	SEGMENT
??_C@_0M@LNAIDEEG@Bad?5Request?$AA@ DB 'Bad Request', 00H ; `string'
CONST	ENDS
;	COMDAT ??_C@_0BD@PJMNAMDM@Temporary?5Redirect?$AA@
CONST	SEGMENT
??_C@_0BD@PJMNAMDM@Temporary?5Redirect?$AA@ DB 'Temporary Redirect', 00H ; `string'
CONST	ENDS
;	COMDAT ??_C@_09JFBGBFIM@Use?5Proxy?$AA@
CONST	SEGMENT
??_C@_09JFBGBFIM@Use?5Proxy?$AA@ DB 'Use Proxy', 00H	; `string'
CONST	ENDS
;	COMDAT ??_C@_0N@IFEFAIJB@Not?5Modified?$AA@
CONST	SEGMENT
??_C@_0N@IFEFAIJB@Not?5Modified?$AA@ DB 'Not Modified', 00H ; `string'
CONST	ENDS
;	COMDAT ??_C@_09FAMPMKIP@See?5Other?$AA@
CONST	SEGMENT
??_C@_09FAMPMKIP@See?5Other?$AA@ DB 'See Other', 00H	; `string'
CONST	ENDS
;	COMDAT ??_C@_05JDGHEPJG@Found?$AA@
CONST	SEGMENT
??_C@_05JDGHEPJG@Found?$AA@ DB 'Found', 00H		; `string'
CONST	ENDS
;	COMDAT ??_C@_0BC@BPBCNFPI@Moved?5Permanently?$AA@
CONST	SEGMENT
??_C@_0BC@BPBCNFPI@Moved?5Permanently?$AA@ DB 'Moved Permanently', 00H ; `string'
CONST	ENDS
;	COMDAT ??_C@_0BB@HLFEHKPE@Multiple?5Choices?$AA@
CONST	SEGMENT
??_C@_0BB@HLFEHKPE@Multiple?5Choices?$AA@ DB 'Multiple Choices', 00H ; `string'
CONST	ENDS
;	COMDAT ??_C@_0BA@NNLNHGMN@Partial?5Content?$AA@
CONST	SEGMENT
??_C@_0BA@NNLNHGMN@Partial?5Content?$AA@ DB 'Partial Content', 00H ; `string'
CONST	ENDS
;	COMDAT ??_C@_0O@BFFLKCLE@Reset?5Content?$AA@
CONST	SEGMENT
??_C@_0O@BFFLKCLE@Reset?5Content?$AA@ DB 'Reset Content', 00H ; `string'
CONST	ENDS
;	COMDAT ??_C@_0L@FDPJCNGK@No?5Content?$AA@
CONST	SEGMENT
??_C@_0L@FDPJCNGK@No?5Content?$AA@ DB 'No Content', 00H	; `string'
CONST	ENDS
;	COMDAT ??_C@_0BO@NKBPKPBI@Non?9Authoritative?5Information?$AA@
CONST	SEGMENT
??_C@_0BO@NKBPKPBI@Non?9Authoritative?5Information?$AA@ DB 'Non-Authorita'
	DB	'tive Information', 00H			; `string'
CONST	ENDS
;	COMDAT ??_C@_08DOBOODLA@Accepted?$AA@
CONST	SEGMENT
??_C@_08DOBOODLA@Accepted?$AA@ DB 'Accepted', 00H	; `string'
CONST	ENDS
;	COMDAT ??_C@_07BBIDHECN@Created?$AA@
CONST	SEGMENT
??_C@_07BBIDHECN@Created?$AA@ DB 'Created', 00H		; `string'
CONST	ENDS
;	COMDAT ??_C@_02GIPFHKNO@OK?$AA@
CONST	SEGMENT
??_C@_02GIPFHKNO@OK?$AA@ DB 'OK', 00H			; `string'
CONST	ENDS
;	COMDAT ??_C@_0L@GGLPAOMP@No?5Address?$AA@
CONST	SEGMENT
??_C@_0L@GGLPAOMP@No?5Address?$AA@ DB 'No Address', 00H	; `string'
CONST	ENDS
;	COMDAT ??_C@_07NNGPDNPG@No?5Data?$AA@
CONST	SEGMENT
??_C@_07NNGPDNPG@No?5Data?$AA@ DB 'No Data', 00H	; `string'
CONST	ENDS
;	COMDAT ??_C@_0M@IFLIHMFH@No?5Recovery?$AA@
CONST	SEGMENT
??_C@_0M@IFLIHMFH@No?5Recovery?$AA@ DB 'No Recovery', 00H ; `string'
CONST	ENDS
;	COMDAT ??_C@_09NOIJLNLL@Try?5Again?$AA@
CONST	SEGMENT
??_C@_09NOIJLNLL@Try?5Again?$AA@ DB 'Try Again', 00H	; `string'
CONST	ENDS
;	COMDAT ??_C@_0P@CAFMJNJH@Host?5not?5found?$AA@
CONST	SEGMENT
??_C@_0P@CAFMJNJH@Host?5not?5found?$AA@ DB 'Host not found', 00H ; `string'
CONST	ENDS
;	COMDAT ??_C@_04BILJKGCK@yuml?$AA@
CONST	SEGMENT
??_C@_04BILJKGCK@yuml?$AA@ DB 'yuml', 00H		; `string'
CONST	ENDS
;	COMDAT ??_C@_05LIICDAEF@thorn?$AA@
CONST	SEGMENT
??_C@_05LIICDAEF@thorn?$AA@ DB 'thorn', 00H		; `string'
CONST	ENDS
;	COMDAT ??_C@_06BBMKGLNL@yacute?$AA@
CONST	SEGMENT
??_C@_06BBMKGLNL@yacute?$AA@ DB 'yacute', 00H		; `string'
CONST	ENDS
;	COMDAT ??_C@_04NNEJELCL@uuml?$AA@
CONST	SEGMENT
??_C@_04NNEJELCL@uuml?$AA@ DB 'uuml', 00H		; `string'
CONST	ENDS
;	COMDAT ??_C@_05JEMLPDGA@ucirc?$AA@
CONST	SEGMENT
??_C@_05JEMLPDGA@ucirc?$AA@ DB 'ucirc', 00H		; `string'
CONST	ENDS
;	COMDAT ??_C@_06NGGKABKP@uacute?$AA@
CONST	SEGMENT
??_C@_06NGGKABKP@uacute?$AA@ DB 'uacute', 00H		; `string'
CONST	ENDS
;	COMDAT ??_C@_06IBEMEICG@ugrave?$AA@
CONST	SEGMENT
??_C@_06IBEMEICG@ugrave?$AA@ DB 'ugrave', 00H		; `string'
CONST	ENDS
;	COMDAT ??_C@_06LGBAFOGO@oslash?$AA@
CONST	SEGMENT
??_C@_06LGBAFOGO@oslash?$AA@ DB 'oslash', 00H		; `string'
CONST	ENDS
;	COMDAT ??_C@_06FFHJEHBN@divide?$AA@
CONST	SEGMENT
??_C@_06FFHJEHBN@divide?$AA@ DB 'divide', 00H		; `string'
CONST	ENDS
;	COMDAT ??_C@_04PHBJMEAI@ouml?$AA@
CONST	SEGMENT
??_C@_04PHBJMEAI@ouml?$AA@ DB 'ouml', 00H		; `string'
CONST	ENDS
;	COMDAT ??_C@_06DNFIPCMD@otilde?$AA@
CONST	SEGMENT
??_C@_06DNFIPCMD@otilde?$AA@ DB 'otilde', 00H		; `string'
CONST	ENDS
;	COMDAT ??_C@_05DGIGNCJN@ocirc?$AA@
CONST	SEGMENT
??_C@_05DGIGNCJN@ocirc?$AA@ DB 'ocirc', 00H		; `string'
CONST	ENDS
;	COMDAT ??_C@_06BFMEMCCP@oacute?$AA@
CONST	SEGMENT
??_C@_06BFMEMCCP@oacute?$AA@ DB 'oacute', 00H		; `string'
CONST	ENDS
;	COMDAT ??_C@_06ECOCILKG@ograve?$AA@
CONST	SEGMENT
??_C@_06ECOCILKG@ograve?$AA@ DB 'ograve', 00H		; `string'
CONST	ENDS
;	COMDAT ??_C@_06JLCPPJHH@ntilde?$AA@
CONST	SEGMENT
??_C@_06JLCPPJHH@ntilde?$AA@ DB 'ntilde', 00H		; `string'
CONST	ENDS
;	COMDAT ??_C@_03CMJPAGPB@eth?$AA@
CONST	SEGMENT
??_C@_03CMJPAGPB@eth?$AA@ DB 'eth', 00H			; `string'
CONST	ENDS
;	COMDAT ??_C@_04HIFJDBKI@iuml?$AA@
CONST	SEGMENT
??_C@_04HIFJDBKI@iuml?$AA@ DB 'iuml', 00H		; `string'
CONST	ENDS
;	COMDAT ??_C@_05OANPDBIA@icirc?$AA@
CONST	SEGMENT
??_C@_05OANPDBIA@icirc?$AA@ DB 'icirc', 00H		; `string'
CONST	ENDS
;	COMDAT ??_C@_06HGBEPHBF@iacute?$AA@
CONST	SEGMENT
??_C@_06HGBEPHBF@iacute?$AA@ DB 'iacute', 00H		; `string'
CONST	ENDS
;	COMDAT ??_C@_06CBDCLOJM@igrave?$AA@
CONST	SEGMENT
??_C@_06CBDCLOJM@igrave?$AA@ DB 'igrave', 00H		; `string'
CONST	ENDS
;	COMDAT ??_C@_04LNKJNMKJ@euml?$AA@
CONST	SEGMENT
??_C@_04LNKJNMKJ@euml?$AA@ DB 'euml', 00H		; `string'
CONST	ENDS
;	COMDAT ??_C@_05JHBNPBPL@ecirc?$AA@
CONST	SEGMENT
??_C@_05JHBNPBPL@ecirc?$AA@ DB 'ecirc', 00H		; `string'
CONST	ENDS
;	COMDAT ??_C@_06LBLEJNGB@eacute?$AA@
CONST	SEGMENT
??_C@_06LBLEJNGB@eacute?$AA@ DB 'eacute', 00H		; `string'
CONST	ENDS
;	COMDAT ??_C@_06OGJCNEOI@egrave?$AA@
CONST	SEGMENT
??_C@_06OGJCNEOI@egrave?$AA@ DB 'egrave', 00H		; `string'
CONST	ENDS
;	COMDAT ??_C@_06DNHFEHGA@ccedil?$AA@
CONST	SEGMENT
??_C@_06DNHFEHGA@ccedil?$AA@ DB 'ccedil', 00H		; `string'
CONST	ENDS
;	COMDAT ??_C@_05MAANDPOK@aelig?$AA@
CONST	SEGMENT
??_C@_05MAANDPOK@aelig?$AA@ DB 'aelig', 00H		; `string'
CONST	ENDS
;	COMDAT ??_C@_05CAFMJCMP@aring?$AA@
CONST	SEGMENT
??_C@_05CAFMJCMP@aring?$AA@ DB 'aring', 00H		; `string'
CONST	ENDS
;	COMDAT ??_C@_04EICJHKGJ@auml?$AA@
CONST	SEGMENT
??_C@_04EICJHKGJ@auml?$AA@ DB 'auml', 00H		; `string'
CONST	ENDS
;	COMDAT ??_C@_06GNGHIJJO@atilde?$AA@
CONST	SEGMENT
??_C@_06GNGHIJJO@atilde?$AA@ DB 'atilde', 00H		; `string'
CONST	ENDS
;	COMDAT ??_C@_05MIMLDON@acirc?$AA@
CONST	SEGMENT
??_C@_05MIMLDON@acirc?$AA@ DB 'acirc', 00H		; `string'
CONST	ENDS
;	COMDAT ??_C@_06EFPLLJHC@aacute?$AA@
CONST	SEGMENT
??_C@_06EFPLLJHC@aacute?$AA@ DB 'aacute', 00H		; `string'
CONST	ENDS
;	COMDAT ??_C@_06BCNNPAPL@agrave?$AA@
CONST	SEGMENT
??_C@_06BCNNPAPL@agrave?$AA@ DB 'agrave', 00H		; `string'
CONST	ENDS
;	COMDAT ??_C@_05GMKDJMCJ@szlig?$AA@
CONST	SEGMENT
??_C@_05GMKDJMCJ@szlig?$AA@ DB 'szlig', 00H		; `string'
CONST	ENDS
;	COMDAT ??_C@_05HDBENHAL@THORN?$AA@
CONST	SEGMENT
??_C@_05HDBENHAL@THORN?$AA@ DB 'THORN', 00H		; `string'
CONST	ENDS
;	COMDAT ??_C@_06NOHHFCEH@Yacute?$AA@
CONST	SEGMENT
??_C@_06NOHHFCEH@Yacute?$AA@ DB 'Yacute', 00H		; `string'
CONST	ENDS
;	COMDAT ??_C@_04BMIIGECP@Uuml?$AA@
CONST	SEGMENT
??_C@_04BMIIGECP@Uuml?$AA@ DB 'Uuml', 00H		; `string'
CONST	ENDS
;	COMDAT ??_C@_05JDGHPGFG@Ucirc?$AA@
CONST	SEGMENT
??_C@_05JDGHPGFG@Ucirc?$AA@ DB 'Ucirc', 00H		; `string'
CONST	ENDS
;	COMDAT ??_C@_06BJNHDIDD@Uacute?$AA@
CONST	SEGMENT
??_C@_06BJNHDIDD@Uacute?$AA@ DB 'Uacute', 00H		; `string'
CONST	ENDS
;	COMDAT ??_C@_06EOPBHBLK@Ugrave?$AA@
CONST	SEGMENT
??_C@_06EOPBHBLK@Ugrave?$AA@ DB 'Ugrave', 00H		; `string'
CONST	ENDS
;	COMDAT ??_C@_06HJKNGHPC@Oslash?$AA@
CONST	SEGMENT
??_C@_06HJKNGHPC@Oslash?$AA@ DB 'Oslash', 00H		; `string'
CONST	ENDS
;	COMDAT ??_C@_05MJOOAIJH@times?$AA@
CONST	SEGMENT
??_C@_05MJOOAIJH@times?$AA@ DB 'times', 00H		; `string'
CONST	ENDS
;	COMDAT ??_C@_04DGNIOLAM@Ouml?$AA@
CONST	SEGMENT
??_C@_04DGNIOLAM@Ouml?$AA@ DB 'Ouml', 00H		; `string'
CONST	ENDS
;	COMDAT ??_C@_06PCOFMLFP@Otilde?$AA@
CONST	SEGMENT
??_C@_06PCOFMLFP@Otilde?$AA@ DB 'Otilde', 00H		; `string'
CONST	ENDS
;	COMDAT ??_C@_05DBCKNHKL@Ocirc?$AA@
CONST	SEGMENT
??_C@_05DBCKNHKL@Ocirc?$AA@ DB 'Ocirc', 00H		; `string'
CONST	ENDS
;	COMDAT ??_C@_06NKHJPLLD@Oacute?$AA@
CONST	SEGMENT
??_C@_06NKHJPLLD@Oacute?$AA@ DB 'Oacute', 00H		; `string'
CONST	ENDS
;	COMDAT ??_C@_06INFPLCDK@Ograve?$AA@
CONST	SEGMENT
??_C@_06INFPLCDK@Ograve?$AA@ DB 'Ograve', 00H		; `string'
CONST	ENDS
;	COMDAT ??_C@_06FEJCMAOL@Ntilde?$AA@
CONST	SEGMENT
??_C@_06FEJCMAOL@Ntilde?$AA@ DB 'Ntilde', 00H		; `string'
CONST	ENDS
;	COMDAT ??_C@_03CBGEMLIN@ETH?$AA@
CONST	SEGMENT
??_C@_03CBGEMLIN@ETH?$AA@ DB 'ETH', 00H			; `string'
CONST	ENDS
;	COMDAT ??_C@_04LJJIBOKM@Iuml?$AA@
CONST	SEGMENT
??_C@_04LJJIBOKM@Iuml?$AA@ DB 'Iuml', 00H		; `string'
CONST	ENDS
;	COMDAT ??_C@_05OHHDDELG@Icirc?$AA@
CONST	SEGMENT
??_C@_05OHHDDELG@Icirc?$AA@ DB 'Icirc', 00H		; `string'
CONST	ENDS
;	COMDAT ??_C@_06LJKJMOIJ@Iacute?$AA@
CONST	SEGMENT
??_C@_06LJKJMOIJ@Iacute?$AA@ DB 'Iacute', 00H		; `string'
CONST	ENDS
;	COMDAT ??_C@_06OOIPIHAA@Igrave?$AA@
CONST	SEGMENT
??_C@_06OOIPIHAA@Igrave?$AA@ DB 'Igrave', 00H		; `string'
CONST	ENDS
;	COMDAT ??_C@_04HMGIPDKN@Euml?$AA@
CONST	SEGMENT
??_C@_04HMGIPDKN@Euml?$AA@ DB 'Euml', 00H		; `string'
CONST	ENDS
;	COMDAT ??_C@_05JALBPEMN@Ecirc?$AA@
CONST	SEGMENT
??_C@_05JALBPEMN@Ecirc?$AA@ DB 'Ecirc', 00H		; `string'
CONST	ENDS
;	COMDAT ??_C@_06HOAJKEPN@Eacute?$AA@
CONST	SEGMENT
??_C@_06HOAJKEPN@Eacute?$AA@ DB 'Eacute', 00H		; `string'
CONST	ENDS
;	COMDAT ??_C@_06CJCPONHE@Egrave?$AA@
CONST	SEGMENT
??_C@_06CJCPONHE@Egrave?$AA@ DB 'Egrave', 00H		; `string'
CONST	ENDS
;	COMDAT ??_C@_06PCMIHOPM@Ccedil?$AA@
CONST	SEGMENT
??_C@_06PCMIHOPM@Ccedil?$AA@ DB 'Ccedil', 00H		; `string'
CONST	ENDS
;	COMDAT ??_C@_05GGABFNI@AElig?$AA@
CONST	SEGMENT
??_C@_05GGABFNI@AElig?$AA@ DB 'AElig', 00H		; `string'
CONST	ENDS
;	COMDAT ??_C@_05CHPAJHPJ@Aring?$AA@
CONST	SEGMENT
??_C@_05CHPAJHPJ@Aring?$AA@ DB 'Aring', 00H		; `string'
CONST	ENDS
;	COMDAT ??_C@_04IJOIFFGN@Auml?$AA@
CONST	SEGMENT
??_C@_04IJOIFFGN@Auml?$AA@ DB 'Auml', 00H		; `string'
CONST	ENDS
;	COMDAT ??_C@_06KCNKLAAC@Atilde?$AA@
CONST	SEGMENT
??_C@_06KCNKLAAC@Atilde?$AA@ DB 'Atilde', 00H		; `string'
CONST	ENDS
;	COMDAT ??_C@_05LCALGNL@Acirc?$AA@
CONST	SEGMENT
??_C@_05LCALGNL@Acirc?$AA@ DB 'Acirc', 00H		; `string'
CONST	ENDS
;	COMDAT ??_C@_06IKEGIAOO@Aacute?$AA@
CONST	SEGMENT
??_C@_06IKEGIAOO@Aacute?$AA@ DB 'Aacute', 00H		; `string'
CONST	ENDS
;	COMDAT ??_C@_06NNGAMJGH@Agrave?$AA@
CONST	SEGMENT
??_C@_06NNGAMJGH@Agrave?$AA@ DB 'Agrave', 00H		; `string'
CONST	ENDS
;	COMDAT ??_C@_06JMONPFKG@iquest?$AA@
CONST	SEGMENT
??_C@_06JMONPFKG@iquest?$AA@ DB 'iquest', 00H		; `string'
CONST	ENDS
;	COMDAT ??_C@_06NMNJFLLK@frac34?$AA@
CONST	SEGMENT
??_C@_06NMNJFLLK@frac34?$AA@ DB 'frac34', 00H		; `string'
CONST	ENDS
;	COMDAT ??_C@_06IJAHCIFC@frac12?$AA@
CONST	SEGMENT
??_C@_06IJAHCIFC@frac12?$AA@ DB 'frac12', 00H		; `string'
CONST	ENDS
;	COMDAT ??_C@_06NPFNIPNE@frac14?$AA@
CONST	SEGMENT
??_C@_06NPFNIPNE@frac14?$AA@ DB 'frac14', 00H		; `string'
CONST	ENDS
;	COMDAT ??_C@_05MPFJLGEB@raquo?$AA@
CONST	SEGMENT
??_C@_05MPFJLGEB@raquo?$AA@ DB 'raquo', 00H		; `string'
CONST	ENDS
;	COMDAT ??_C@_04HMAEPGHP@ordm?$AA@
CONST	SEGMENT
??_C@_04HMAEPGHP@ordm?$AA@ DB 'ordm', 00H		; `string'
CONST	ENDS
;	COMDAT ??_C@_04EJOCKNLB@sup1?$AA@
CONST	SEGMENT
??_C@_04EJOCKNLB@sup1?$AA@ DB 'sup1', 00H		; `string'
CONST	ENDS
;	COMDAT ??_C@_05KLIFGPMF@cedil?$AA@
CONST	SEGMENT
??_C@_05KLIFGPMF@cedil?$AA@ DB 'cedil', 00H		; `string'
CONST	ENDS
;	COMDAT ??_C@_06HHCHNCAA@middot?$AA@
CONST	SEGMENT
??_C@_06HHCHNCAA@middot?$AA@ DB 'middot', 00H		; `string'
CONST	ENDS
;	COMDAT ??_C@_04GIAGJOJD@para?$AA@
CONST	SEGMENT
??_C@_04GIAGJOJD@para?$AA@ DB 'para', 00H		; `string'
CONST	ENDS
;	COMDAT ??_C@_05PCPGMEFP@micro?$AA@
CONST	SEGMENT
??_C@_05PCPGMEFP@micro?$AA@ DB 'micro', 00H		; `string'
CONST	ENDS
;	COMDAT ??_C@_05EEJEIAPO@acute?$AA@
CONST	SEGMENT
??_C@_05EEJEIAPO@acute?$AA@ DB 'acute', 00H		; `string'
CONST	ENDS
;	COMDAT ??_C@_04HLNEMPDD@sup3?$AA@
CONST	SEGMENT
??_C@_04HLNEMPDD@sup3?$AA@ DB 'sup3', 00H		; `string'
CONST	ENDS
;	COMDAT ??_C@_04GCMPPOHC@sup2?$AA@
CONST	SEGMENT
??_C@_04GCMPPOHC@sup2?$AA@ DB 'sup2', 00H		; `string'
CONST	ENDS
;	COMDAT ??_C@_06CAEEBBM@plusmn?$AA@
CONST	SEGMENT
??_C@_06CAEEBBM@plusmn?$AA@ DB 'plusmn', 00H		; `string'
CONST	ENDS
;	COMDAT ??_C@_03OFPLEBM@deg?$AA@
CONST	SEGMENT
??_C@_03OFPLEBM@deg?$AA@ DB 'deg', 00H			; `string'
CONST	ENDS
;	COMDAT ??_C@_04IMHNEFHF@macr?$AA@
CONST	SEGMENT
??_C@_04IMHNEFHF@macr?$AA@ DB 'macr', 00H		; `string'
CONST	ENDS
;	COMDAT ??_C@_03HLCNLMFP@reg?$AA@
CONST	SEGMENT
??_C@_03HLCNLMFP@reg?$AA@ DB 'reg', 00H			; `string'
CONST	ENDS
;	COMDAT ??_C@_03BPAIHHLG@shy?$AA@
CONST	SEGMENT
??_C@_03BPAIHHLG@shy?$AA@ DB 'shy', 00H			; `string'
CONST	ENDS
;	COMDAT ??_C@_03NJKJADM@not?$AA@
CONST	SEGMENT
??_C@_03NJKJADM@not?$AA@ DB 'not', 00H			; `string'
CONST	ENDS
;	COMDAT ??_C@_05PGIFNFKK@laquo?$AA@
CONST	SEGMENT
??_C@_05PGIFNFKK@laquo?$AA@ DB 'laquo', 00H		; `string'
CONST	ENDS
;	COMDAT ??_C@_04JPPACPLE@ordf?$AA@
CONST	SEGMENT
??_C@_04JPPACPLE@ordf?$AA@ DB 'ordf', 00H		; `string'
CONST	ENDS
;	COMDAT ??_C@_04COAGEIMF@copy?$AA@
CONST	SEGMENT
??_C@_04COAGEIMF@copy?$AA@ DB 'copy', 00H		; `string'
CONST	ENDS
;	COMDAT ??_C@_03LBNAMJF@uml?$AA@
CONST	SEGMENT
??_C@_03LBNAMJF@uml?$AA@ DB 'uml', 00H			; `string'
CONST	ENDS
;	COMDAT ??_C@_04IKJFFMEH@sect?$AA@
CONST	SEGMENT
??_C@_04IKJFFMEH@sect?$AA@ DB 'sect', 00H		; `string'
CONST	ENDS
;	COMDAT ??_C@_06ILPBEBAD@brvbar?$AA@
CONST	SEGMENT
??_C@_06ILPBEBAD@brvbar?$AA@ DB 'brvbar', 00H		; `string'
CONST	ENDS
;	COMDAT ??_C@_03HNOOIABH@yen?$AA@
CONST	SEGMENT
??_C@_03HNOOIABH@yen?$AA@ DB 'yen', 00H			; `string'
CONST	ENDS
;	COMDAT ??_C@_06HEGEHONB@curren?$AA@
CONST	SEGMENT
??_C@_06HEGEHONB@curren?$AA@ DB 'curren', 00H		; `string'
CONST	ENDS
;	COMDAT ??_C@_05EBEEKLCG@pound?$AA@
CONST	SEGMENT
??_C@_05EBEEKLCG@pound?$AA@ DB 'pound', 00H		; `string'
CONST	ENDS
;	COMDAT ??_C@_04OCKNFIJG@cent?$AA@
CONST	SEGMENT
??_C@_04OCKNFIJG@cent?$AA@ DB 'cent', 00H		; `string'
CONST	ENDS
;	COMDAT ??_C@_05BNEGCBFC@iexcl?$AA@
CONST	SEGMENT
??_C@_05BNEGCBFC@iexcl?$AA@ DB 'iexcl', 00H		; `string'
CONST	ENDS
;	COMDAT ??_C@_04PHHIFBLJ@nbsp?$AA@
CONST	SEGMENT
??_C@_04PHHIFBLJ@nbsp?$AA@ DB 'nbsp', 00H		; `string'
_soap_env1 DB	'http://schemas.xmlsoap.org/soap/envelope/', 00H
	ORG $+2
_soap_enc1 DB	'http://schemas.xmlsoap.org/soap/encoding/', 00H
	ORG $+2
_soap_env2 DB	'http://www.w3.org/2003/05/soap-envelope', 00H
_soap_enc2 DB	'http://www.w3.org/2003/05/soap-encoding', 00H
_soap_rpc DB	'http://www.w3.org/2003/05/soap-rpc', 00H
	ORG $+1
_soap_double_nan DD 0ffffffffH
	DD	0ffffffffH
_soap_indent DB	0aH, 09H, 09H, 09H, 09H, 09H, 09H, 09H, 09H, 09H, 00H
	ORG $+1
_soap_base64o DB 'ABCDEFGHIJKLMNOPQRSTUVWXYZabcdefghijklmnopqrstuvwxyz012'
	DB	'3456789+/', 00H
	ORG $+7
_soap_base64i DB '>XXX?456789:;<=XXXXXXX', 00H, 01H, 02H, 03H, 04H, 05H, 06H
	DB	07H, 08H, 09H, 0aH, 0bH, 0cH, 0dH, 0eH, 0fH, 010H, 011H, 012H, 013H
	DB	014H, 015H, 016H, 017H, 018H, 019H, 'XXXXXX', 01aH, 01bH, 01cH
	DB	01dH, 01eH, 01fH, ' !"#$%&''()*+,-./0123', 00H
	ORG $+3
_soap_padding DB 00H, 00H, 00H, 00H
_html_entity_codes DD 0a0H
	DD	FLAT:??_C@_04PHHIFBLJ@nbsp?$AA@
	DD	0a1H
	DD	FLAT:??_C@_05BNEGCBFC@iexcl?$AA@
	DD	0a2H
	DD	FLAT:??_C@_04OCKNFIJG@cent?$AA@
	DD	0a3H
	DD	FLAT:??_C@_05EBEEKLCG@pound?$AA@
	DD	0a4H
	DD	FLAT:??_C@_06HEGEHONB@curren?$AA@
	DD	0a5H
	DD	FLAT:??_C@_03HNOOIABH@yen?$AA@
	DD	0a6H
	DD	FLAT:??_C@_06ILPBEBAD@brvbar?$AA@
	DD	0a7H
	DD	FLAT:??_C@_04IKJFFMEH@sect?$AA@
	DD	0a8H
	DD	FLAT:??_C@_03LBNAMJF@uml?$AA@
	DD	0a9H
	DD	FLAT:??_C@_04COAGEIMF@copy?$AA@
	DD	0aaH
	DD	FLAT:??_C@_04JPPACPLE@ordf?$AA@
	DD	0abH
	DD	FLAT:??_C@_05PGIFNFKK@laquo?$AA@
	DD	0acH
	DD	FLAT:??_C@_03NJKJADM@not?$AA@
	DD	0adH
	DD	FLAT:??_C@_03BPAIHHLG@shy?$AA@
	DD	0aeH
	DD	FLAT:??_C@_03HLCNLMFP@reg?$AA@
	DD	0afH
	DD	FLAT:??_C@_04IMHNEFHF@macr?$AA@
	DD	0b0H
	DD	FLAT:??_C@_03OFPLEBM@deg?$AA@
	DD	0b1H
	DD	FLAT:??_C@_06CAEEBBM@plusmn?$AA@
	DD	0b2H
	DD	FLAT:??_C@_04GCMPPOHC@sup2?$AA@
	DD	0b3H
	DD	FLAT:??_C@_04HLNEMPDD@sup3?$AA@
	DD	0b4H
	DD	FLAT:??_C@_05EEJEIAPO@acute?$AA@
	DD	0b5H
	DD	FLAT:??_C@_05PCPGMEFP@micro?$AA@
	DD	0b6H
	DD	FLAT:??_C@_04GIAGJOJD@para?$AA@
	DD	0b7H
	DD	FLAT:??_C@_06HHCHNCAA@middot?$AA@
	DD	0b8H
	DD	FLAT:??_C@_05KLIFGPMF@cedil?$AA@
	DD	0b9H
	DD	FLAT:??_C@_04EJOCKNLB@sup1?$AA@
	DD	0baH
	DD	FLAT:??_C@_04HMAEPGHP@ordm?$AA@
	DD	0bbH
	DD	FLAT:??_C@_05MPFJLGEB@raquo?$AA@
	DD	0bcH
	DD	FLAT:??_C@_06NPFNIPNE@frac14?$AA@
	DD	0bdH
	DD	FLAT:??_C@_06IJAHCIFC@frac12?$AA@
	DD	0beH
	DD	FLAT:??_C@_06NMNJFLLK@frac34?$AA@
	DD	0bfH
	DD	FLAT:??_C@_06JMONPFKG@iquest?$AA@
	DD	0c0H
	DD	FLAT:??_C@_06NNGAMJGH@Agrave?$AA@
	DD	0c1H
	DD	FLAT:??_C@_06IKEGIAOO@Aacute?$AA@
	DD	0c2H
	DD	FLAT:??_C@_05LCALGNL@Acirc?$AA@
	DD	0c3H
	DD	FLAT:??_C@_06KCNKLAAC@Atilde?$AA@
	DD	0c4H
	DD	FLAT:??_C@_04IJOIFFGN@Auml?$AA@
	DD	0c5H
	DD	FLAT:??_C@_05CHPAJHPJ@Aring?$AA@
	DD	0c6H
	DD	FLAT:??_C@_05GGABFNI@AElig?$AA@
	DD	0c7H
	DD	FLAT:??_C@_06PCMIHOPM@Ccedil?$AA@
	DD	0c8H
	DD	FLAT:??_C@_06CJCPONHE@Egrave?$AA@
	DD	0c9H
	DD	FLAT:??_C@_06HOAJKEPN@Eacute?$AA@
	DD	0caH
	DD	FLAT:??_C@_05JALBPEMN@Ecirc?$AA@
	DD	0cbH
	DD	FLAT:??_C@_04HMGIPDKN@Euml?$AA@
	DD	0ccH
	DD	FLAT:??_C@_06OOIPIHAA@Igrave?$AA@
	DD	0cdH
	DD	FLAT:??_C@_06LJKJMOIJ@Iacute?$AA@
	DD	0ceH
	DD	FLAT:??_C@_05OHHDDELG@Icirc?$AA@
	DD	0cfH
	DD	FLAT:??_C@_04LJJIBOKM@Iuml?$AA@
	DD	0d0H
	DD	FLAT:??_C@_03CBGEMLIN@ETH?$AA@
	DD	0d1H
	DD	FLAT:??_C@_06FEJCMAOL@Ntilde?$AA@
	DD	0d2H
	DD	FLAT:??_C@_06INFPLCDK@Ograve?$AA@
	DD	0d3H
	DD	FLAT:??_C@_06NKHJPLLD@Oacute?$AA@
	DD	0d4H
	DD	FLAT:??_C@_05DBCKNHKL@Ocirc?$AA@
	DD	0d5H
	DD	FLAT:??_C@_06PCOFMLFP@Otilde?$AA@
	DD	0d6H
	DD	FLAT:??_C@_04DGNIOLAM@Ouml?$AA@
	DD	0d7H
	DD	FLAT:??_C@_05MJOOAIJH@times?$AA@
	DD	0d8H
	DD	FLAT:??_C@_06HJKNGHPC@Oslash?$AA@
	DD	0d9H
	DD	FLAT:??_C@_06EOPBHBLK@Ugrave?$AA@
	DD	0daH
	DD	FLAT:??_C@_06BJNHDIDD@Uacute?$AA@
	DD	0dbH
	DD	FLAT:??_C@_05JDGHPGFG@Ucirc?$AA@
	DD	0dcH
	DD	FLAT:??_C@_04BMIIGECP@Uuml?$AA@
	DD	0ddH
	DD	FLAT:??_C@_06NOHHFCEH@Yacute?$AA@
	DD	0deH
	DD	FLAT:??_C@_05HDBENHAL@THORN?$AA@
	DD	0dfH
	DD	FLAT:??_C@_05GMKDJMCJ@szlig?$AA@
	DD	0e0H
	DD	FLAT:??_C@_06BCNNPAPL@agrave?$AA@
	DD	0e1H
	DD	FLAT:??_C@_06EFPLLJHC@aacute?$AA@
	DD	0e2H
	DD	FLAT:??_C@_05MIMLDON@acirc?$AA@
	DD	0e3H
	DD	FLAT:??_C@_06GNGHIJJO@atilde?$AA@
	DD	0e4H
	DD	FLAT:??_C@_04EICJHKGJ@auml?$AA@
	DD	0e5H
	DD	FLAT:??_C@_05CAFMJCMP@aring?$AA@
	DD	0e6H
	DD	FLAT:??_C@_05MAANDPOK@aelig?$AA@
	DD	0e7H
	DD	FLAT:??_C@_06DNHFEHGA@ccedil?$AA@
	DD	0e8H
	DD	FLAT:??_C@_06OGJCNEOI@egrave?$AA@
	DD	0e9H
	DD	FLAT:??_C@_06LBLEJNGB@eacute?$AA@
	DD	0eaH
	DD	FLAT:??_C@_05JHBNPBPL@ecirc?$AA@
	DD	0ebH
	DD	FLAT:??_C@_04LNKJNMKJ@euml?$AA@
	DD	0ecH
	DD	FLAT:??_C@_06CBDCLOJM@igrave?$AA@
	DD	0edH
	DD	FLAT:??_C@_06HGBEPHBF@iacute?$AA@
	DD	0eeH
	DD	FLAT:??_C@_05OANPDBIA@icirc?$AA@
	DD	0efH
	DD	FLAT:??_C@_04HIFJDBKI@iuml?$AA@
	DD	0f0H
	DD	FLAT:??_C@_03CMJPAGPB@eth?$AA@
	DD	0f1H
	DD	FLAT:??_C@_06JLCPPJHH@ntilde?$AA@
	DD	0f2H
	DD	FLAT:??_C@_06ECOCILKG@ograve?$AA@
	DD	0f3H
	DD	FLAT:??_C@_06BFMEMCCP@oacute?$AA@
	DD	0f4H
	DD	FLAT:??_C@_05DGIGNCJN@ocirc?$AA@
	DD	0f5H
	DD	FLAT:??_C@_06DNFIPCMD@otilde?$AA@
	DD	0f6H
	DD	FLAT:??_C@_04PHBJMEAI@ouml?$AA@
	DD	0f7H
	DD	FLAT:??_C@_06FFHJEHBN@divide?$AA@
	DD	0f8H
	DD	FLAT:??_C@_06LGBAFOGO@oslash?$AA@
	DD	0f9H
	DD	FLAT:??_C@_06IBEMEICG@ugrave?$AA@
	DD	0faH
	DD	FLAT:??_C@_06NGGKABKP@uacute?$AA@
	DD	0fbH
	DD	FLAT:??_C@_05JEMLPDGA@ucirc?$AA@
	DD	0fcH
	DD	FLAT:??_C@_04NNEJELCL@uuml?$AA@
	DD	0fdH
	DD	FLAT:??_C@_06BBMKGLNL@yacute?$AA@
	DD	0feH
	DD	FLAT:??_C@_05LIICDAEF@thorn?$AA@
	DD	0ffH
	DD	FLAT:??_C@_04BILJKGCK@yuml?$AA@
	DD	00H
	DD	00H
_h_error_codes DD 02af9H
	DD	FLAT:??_C@_0P@CAFMJNJH@Host?5not?5found?$AA@
	DD	02afaH
	DD	FLAT:??_C@_09NOIJLNLL@Try?5Again?$AA@
	DD	02afbH
	DD	FLAT:??_C@_0M@IFLIHMFH@No?5Recovery?$AA@
	DD	02afcH
	DD	FLAT:??_C@_07NNGPDNPG@No?5Data?$AA@
	DD	02afcH
	DD	FLAT:??_C@_0L@GGLPAOMP@No?5Address?$AA@
	DD	00H
	DD	00H
_h_http_error_codes DD 0c8H
	DD	FLAT:??_C@_02GIPFHKNO@OK?$AA@
	DD	0c9H
	DD	FLAT:??_C@_07BBIDHECN@Created?$AA@
	DD	0caH
	DD	FLAT:??_C@_08DOBOODLA@Accepted?$AA@
	DD	0cbH
	DD	FLAT:??_C@_0BO@NKBPKPBI@Non?9Authoritative?5Information?$AA@
	DD	0ccH
	DD	FLAT:??_C@_0L@FDPJCNGK@No?5Content?$AA@
	DD	0cdH
	DD	FLAT:??_C@_0O@BFFLKCLE@Reset?5Content?$AA@
	DD	0ceH
	DD	FLAT:??_C@_0BA@NNLNHGMN@Partial?5Content?$AA@
	DD	012cH
	DD	FLAT:??_C@_0BB@HLFEHKPE@Multiple?5Choices?$AA@
	DD	012dH
	DD	FLAT:??_C@_0BC@BPBCNFPI@Moved?5Permanently?$AA@
	DD	012eH
	DD	FLAT:??_C@_05JDGHEPJG@Found?$AA@
	DD	012fH
	DD	FLAT:??_C@_09FAMPMKIP@See?5Other?$AA@
	DD	0130H
	DD	FLAT:??_C@_0N@IFEFAIJB@Not?5Modified?$AA@
	DD	0131H
	DD	FLAT:??_C@_09JFBGBFIM@Use?5Proxy?$AA@
	DD	0133H
	DD	FLAT:??_C@_0BD@PJMNAMDM@Temporary?5Redirect?$AA@
	DD	0190H
	DD	FLAT:??_C@_0M@LNAIDEEG@Bad?5Request?$AA@
	DD	0191H
	DD	FLAT:??_C@_0N@OOAPMOJA@Unauthorized?$AA@
	DD	0192H
	DD	FLAT:??_C@_0BB@LMPIHCBH@Payment?5Required?$AA@
	DD	0193H
	DD	FLAT:??_C@_09LMDIMFJD@Forbidden?$AA@
	DD	0194H
	DD	FLAT:??_C@_09CFCBFJND@Not?5Found?$AA@
	DD	0195H
	DD	FLAT:??_C@_0BD@CCIPIALO@Method?5Not?5Allowed?$AA@
	DD	0196H
	DD	FLAT:??_C@_0P@HHIDFAOI@Not?5Acceptable?$AA@
	DD	0197H
	DD	FLAT:??_C@_0BO@ONPAAOGI@Proxy?5Authentication?5Required?$AA@
	DD	0198H
	DD	FLAT:??_C@_0BB@GKNJPEJG@Request?5Time?9out?$AA@
	DD	0199H
	DD	FLAT:??_C@_08OJCIFGDF@Conflict?$AA@
	DD	019aH
	DD	FLAT:??_C@_04OKIIBCCG@Gone?$AA@
	DD	019bH
	DD	FLAT:??_C@_0BA@JCKHPIPI@Length?5Required?$AA@
	DD	019cH
	DD	FLAT:??_C@_0BE@BBDBJOM@Precondition?5Failed?$AA@
	DD	019dH
	DD	FLAT:??_C@_0BJ@MMEIEOIG@Request?5Entity?5Too?5Large?$AA@
	DD	019eH
	DD	FLAT:??_C@_0BG@PMALKKB@Request?9URI?5Too?5Large?$AA@
	DD	019fH
	DD	FLAT:??_C@_0BH@HLJJIAEN@Unsupported?5Media?5Type?$AA@
	DD	01a0H
	DD	FLAT:??_C@_0CA@KGJNFKJM@Requested?5range?5not?5satisfiable?$AA@
	DD	01a1H
	DD	FLAT:??_C@_0BD@NDMHPAED@Expectation?5Failed?$AA@
	DD	01f4H
	DD	FLAT:??_C@_0BG@NJGANGCC@Internal?5Server?5Error?$AA@
	DD	01f5H
	DD	FLAT:??_C@_0BA@JGKGKAME@Not?5Implemented?$AA@
	DD	01f6H
	DD	FLAT:??_C@_0M@BNCNLPGM@Bad?5Gateway?$AA@
	DD	01f7H
	DD	FLAT:??_C@_0BE@NGHLFKBN@Service?5Unavailable?$AA@
	DD	01f8H
	DD	FLAT:??_C@_0BB@PHMOGCPC@Gateway?5Time?9out?$AA@
	DD	01f9H
	DD	FLAT:??_C@_0BL@GBBFKFHI@HTTP?5Version?5not?5supported?$AA@
	DD	00H
	DD	00H
_mime_codes DD	01H
	DD	FLAT:??_C@_04LHKGBPKB@7bit?$AA@
	DD	02H
	DD	FLAT:??_C@_04DFPGIIHA@8bit?$AA@
	DD	03H
	DD	FLAT:??_C@_06FNFBAEBE@binary?$AA@
	DD	04H
	DD	FLAT:??_C@_0BB@CAHAECFA@quoted?9printable?$AA@
	DD	05H
	DD	FLAT:??_C@_06JEFEFGEJ@base64?$AA@
	DD	06H
	DD	FLAT:??_C@_0L@EPBKNKII@ietf?9token?$AA@
	DD	07H
	DD	FLAT:??_C@_07JJJGGCEE@x?9token?$AA@
	DD	00H
	DD	00H
__bad_alloc_Message DD FLAT:??_C@_0P@GHFPNOJB@bad?5allocation?$AA@
; Function compile flags: /Ogtpy
; File c:\program files\microsoft visual studio 9.0\vc\include\streambuf
;	COMDAT ?_Sgetn_s@?$basic_streambuf@DU?$char_traits@D@std@@@std@@QAEHPADIH@Z
_TEXT	SEGMENT
__Ptr$ = 8						; size = 4
?_Sgetn_s@?$basic_streambuf@DU?$char_traits@D@std@@@std@@QAEHPADIH@Z PROC ; std::basic_streambuf<char,std::char_traits<char> >::_Sgetn_s, COMDAT
; _this$ = ecx
; __Count$ = edx

; 117  : 		return _Xsgetn_s(_Ptr, _Ptr_size, _Count);

	mov	eax, DWORD PTR [ecx]
	mov	eax, DWORD PTR [eax+28]
	push	edx
	mov	edx, DWORD PTR __Ptr$[esp]
	push	-1
	push	edx
	call	eax

; 118  : 		}

	ret	4
?_Sgetn_s@?$basic_streambuf@DU?$char_traits@D@std@@@std@@QAEHPADIH@Z ENDP ; std::basic_streambuf<char,std::char_traits<char> >::_Sgetn_s
; Function compile flags: /Ogtpy
; File c:\program files\microsoft visual studio 9.0\vc\include\istream
_TEXT	ENDS
;	COMDAT ?gcount@?$basic_istream@DU?$char_traits@D@std@@@std@@QBEHXZ
_TEXT	SEGMENT
?gcount@?$basic_istream@DU?$char_traits@D@std@@@std@@QBEHXZ PROC ; std::basic_istream<char,std::char_traits<char> >::gcount, COMDAT
; _this$ = eax

; 791  : 		return (_Chcount);

	mov	eax, DWORD PTR [eax+4]

; 792  : 		}

	ret	0
?gcount@?$basic_istream@DU?$char_traits@D@std@@@std@@QBEHXZ ENDP ; std::basic_istream<char,std::char_traits<char> >::gcount
_TEXT	ENDS
PUBLIC	_soap_lookup_plugin
; Function compile flags: /Ogtpy
; File c:\users\crius\documents\visual studio 2008\projects\dramsimiihg\src\reporting\stdsoap2.cpp
_TEXT	SEGMENT
_soap_lookup_plugin PROC
; _soap$ = eax
; _id$ = ecx

; 14839: { return soap->fplugin(soap, id);

	mov	edx, DWORD PTR [eax+12332]
	push	ecx
	push	eax
	call	edx
	add	esp, 8

; 14840: }

	ret	0
_soap_lookup_plugin ENDP
; Function compile flags: /Ogtpy
_soap$ = 8						; size = 4
_id$ = 12						; size = 4
_fplugin PROC

; 14826:   for (p = soap->plugins; p; p = p->next)

	mov	eax, DWORD PTR _soap$[esp-4]
	push	esi
	mov	esi, DWORD PTR [eax+12220]
	push	edi
	test	esi, esi
	je	SHORT $LN3@fplugin
	mov	edi, DWORD PTR _id$[esp+4]
$LL5@fplugin:

; 14827:     if (p->id == id || !strcmp(p->id, id))

	mov	eax, DWORD PTR [esi+4]
	cmp	eax, edi
	je	SHORT $LN9@fplugin
	mov	ecx, edi
	npad	3
$LL11@fplugin:
	mov	dl, BYTE PTR [eax]
	cmp	dl, BYTE PTR [ecx]
	jne	SHORT $LN12@fplugin
	test	dl, dl
	je	SHORT $LN13@fplugin
	mov	dl, BYTE PTR [eax+1]
	cmp	dl, BYTE PTR [ecx+1]
	jne	SHORT $LN12@fplugin
	add	eax, 2
	add	ecx, 2
	test	dl, dl
	jne	SHORT $LL11@fplugin
$LN13@fplugin:
	xor	eax, eax
	jmp	SHORT $LN14@fplugin
$LN12@fplugin:
	sbb	eax, eax
	sbb	eax, -1
$LN14@fplugin:
	test	eax, eax
	je	SHORT $LN9@fplugin
	mov	esi, DWORD PTR [esi]
	test	esi, esi
	jne	SHORT $LL5@fplugin
$LN3@fplugin:
	pop	edi

; 14829:   return NULL;

	xor	eax, eax
	pop	esi

; 14830: }

	ret	0
$LN9@fplugin:

; 14828:       return p->data;

	mov	eax, DWORD PTR [esi+8]
	pop	edi
	pop	esi

; 14830: }

	ret	0
_fplugin ENDP
_TEXT	ENDS
PUBLIC	_soap_register_plugin_arg
; Function compile flags: /Ogtpy
_TEXT	SEGMENT
_soap$ = 8						; size = 4
_fcreate$ = 12						; size = 4
_arg$ = 16						; size = 4
_soap_register_plugin_arg PROC

; 14800: { register struct soap_plugin *p;

	push	ebx
	push	ebp
	mov	ebp, DWORD PTR _soap$[esp+4]
	push	esi

; 14801:   register int r;
; 14802:   if (!(p = (struct soap_plugin*)SOAP_MALLOC(soap, sizeof(struct soap_plugin))))

	push	20					; 00000014H
	call	_malloc
	mov	esi, eax
	xor	ebx, ebx
	add	esp, 4
	cmp	esi, ebx
	jne	SHORT $LN2@soap_regis
	pop	esi

; 14803:     return soap->error = SOAP_EOM;

	mov	DWORD PTR [ebp+90460], 20		; 00000014H
	pop	ebp
	lea	eax, DWORD PTR [ebx+20]
	pop	ebx

; 14818: }

	ret	0
$LN2@soap_regis:

; 14804:   p->id = NULL;
; 14805:   p->data = NULL;
; 14806:   p->fcopy = NULL;
; 14807:   p->fdelete = NULL;
; 14808:   r = fcreate(soap, p, arg);

	mov	eax, DWORD PTR _arg$[esp+8]
	push	edi
	push	eax
	push	esi
	push	ebp
	mov	DWORD PTR [esi+4], ebx
	mov	DWORD PTR [esi+8], ebx
	mov	DWORD PTR [esi+12], ebx
	mov	DWORD PTR [esi+16], ebx
	call	DWORD PTR _fcreate$[esp+24]
	mov	edi, eax
	add	esp, 12					; 0000000cH

; 14809:   if (!r && p->fdelete)

	cmp	edi, ebx
	jne	SHORT $LN1@soap_regis
	cmp	DWORD PTR [esi+16], ebx
	je	SHORT $LN1@soap_regis

; 14810:   { p->next = soap->plugins;

	mov	ecx, DWORD PTR [ebp+12220]
	pop	edi
	mov	DWORD PTR [esi], ecx

; 14811:     soap->plugins = p;

	mov	DWORD PTR [ebp+12220], esi
	pop	esi
	pop	ebp

; 14812:     DBGLOG(TEST, SOAP_MESSAGE(fdebug, "Registered '%s' plugin\n", p->id));
; 14813:     return SOAP_OK;

	xor	eax, eax
	pop	ebx

; 14818: }

	ret	0
$LN1@soap_regis:

; 14814:   }
; 14815:   DBGLOG(TEST, SOAP_MESSAGE(fdebug, "Could not register plugin '%s': plugin returned error %d (or fdelete callback not set)\n", p->id?p->id:"?", r));
; 14816:   SOAP_FREE(soap, p);

	push	esi
	call	_free
	add	esp, 4

; 14817:   return r;

	mov	eax, edi
	pop	edi
	pop	esi
	pop	ebp
	pop	ebx

; 14818: }

	ret	0
_soap_register_plugin_arg ENDP
_TEXT	ENDS
PUBLIC	_soap_print_fault_location
; Function compile flags: /Ogtpy
_TEXT	SEGMENT
_c2$ = -4						; size = 4
_fd$ = 8						; size = 4
_soap_print_fault_location PROC
; _soap$ = esi

; 14768: {

	push	ecx

; 14769: #ifndef WITH_LEAN
; 14770:   int i, j, c1, c2;
; 14771:   if (soap->error && soap->bufidx <= soap->buflen && soap->buflen > 0 && soap->buflen <= SOAP_BUFLEN)

	xor	edx, edx
	cmp	DWORD PTR [esi+90460], edx
	je	$LN5@soap_print
	mov	ecx, DWORD PTR [esi+12428]
	mov	eax, DWORD PTR [esi+12432]
	cmp	ecx, eax
	ja	$LN5@soap_print
	cmp	eax, edx
	jbe	$LN5@soap_print
	cmp	eax, 65536				; 00010000H
	ja	$LN5@soap_print
	push	ebx
	push	ebp
	push	edi

; 14772:   { i = (int)soap->bufidx - 1;

	lea	edi, DWORD PTR [ecx-1]

; 14773:     if (i <= 0)

	cmp	edi, edx

; 14774:       i = 0;

	cmovle	edi, edx

; 14775:     c1 = soap->buf[i];

	movsx	ebx, BYTE PTR [edi+esi+12468]

; 14776:     soap->buf[i] = '\0';

	mov	BYTE PTR [edi+esi+12468], dl

; 14777:     if ((int)soap->buflen >= i + 1024)

	mov	eax, DWORD PTR [esi+12432]
	lea	ecx, DWORD PTR [edi+1024]
	cmp	eax, ecx

; 14778:       j = i + 1023;

	lea	ebp, DWORD PTR [edi+1023]
	jge	SHORT $LN2@soap_print

; 14779:     else
; 14780:       j = (int)soap->buflen - 1;

	lea	ebp, DWORD PTR [eax-1]
$LN2@soap_print:

; 14781:     c2 = soap->buf[j];

	movsx	eax, BYTE PTR [esi+ebp+12468]

; 14782:     soap->buf[j] = '\0';
; 14783:     fprintf(fd, "%s%c\n<!-- ** HERE ** -->\n", soap->buf, c1);

	push	ebx
	lea	ecx, DWORD PTR [esi+12468]
	push	ecx
	mov	BYTE PTR [esi+ebp+12468], dl
	mov	edx, DWORD PTR _fd$[esp+20]
	push	OFFSET ??_C@_0BK@GONPECDN@?$CFs?$CFc?6?$DM?$CB?9?9?5?$CK?$CK?5HERE?5?$CK?$CK?5?9?9?$DO?6?$AA@
	push	edx
	mov	DWORD PTR _c2$[esp+32], eax
	call	_fprintf

; 14784:     if (soap->bufidx < soap->buflen)

	mov	eax, DWORD PTR [esi+12428]
	add	esp, 16					; 00000010H
	cmp	eax, DWORD PTR [esi+12432]
	jae	SHORT $LN1@soap_print

; 14785:       fprintf(fd, "%s\n", soap->buf + soap->bufidx);

	mov	ecx, DWORD PTR _fd$[esp+12]
	lea	eax, DWORD PTR [eax+esi+12468]
	push	eax
	push	OFFSET ??_C@_03OFAPEBGM@?$CFs?6?$AA@
	push	ecx
	call	_fprintf
	add	esp, 12					; 0000000cH
$LN1@soap_print:

; 14786:     soap->buf[i] = c1;
; 14787:     soap->buf[j] = c2;

	mov	dl, BYTE PTR _c2$[esp+16]
	mov	BYTE PTR [edi+esi+12468], bl
	pop	edi
	mov	BYTE PTR [esi+ebp+12468], dl
	pop	ebp
	pop	ebx
$LN5@soap_print:

; 14788:   }
; 14789: #endif
; 14790: }

	pop	ecx
	ret	0
_soap_print_fault_location ENDP
; Function compile flags: /Ogtpy
_soap_strerror PROC
; _soap$ = eax

; 14540: { register int err = soap->errnum;

	mov	ecx, DWORD PTR [eax+90468]
	push	esi

; 14541:   if (err)

	test	ecx, ecx
	je	SHORT $LN4@soap_strer

; 14542:   {
; 14543: #ifndef WIN32
; 14544:     return strerror(err);
; 14545: #else
; 14546: #ifndef UNDER_CE
; 14547:     DWORD len;
; 14548:     *soap->msgbuf = '\0';
; 14549:     len = FormatMessageA(FORMAT_MESSAGE_FROM_SYSTEM | FORMAT_MESSAGE_IGNORE_INSERTS, NULL, err, MAKELANGID(LANG_NEUTRAL, SUBLANG_DEFAULT), (LPSTR)soap->msgbuf, (DWORD)sizeof(soap->msgbuf), NULL);

	push	0
	push	1024					; 00000400H
	lea	esi, DWORD PTR [eax+78004]
	push	esi
	push	1024					; 00000400H
	push	ecx
	push	0
	push	4608					; 00001200H
	mov	BYTE PTR [esi], 0
	call	DWORD PTR __imp__FormatMessageA@28

; 14550: #else
; 14551:     DWORD i, len;
; 14552:     *soap->msgbuf = '\0';
; 14553:     len = FormatMessage(FORMAT_MESSAGE_FROM_SYSTEM | FORMAT_MESSAGE_IGNORE_INSERTS, NULL, err, 0, (LPTSTR)soap->msgbuf, (DWORD)(sizeof(soap->msgbuf)/sizeof(TCHAR)), NULL);
; 14554:     for (i = 0; i <= len; i++)
; 14555:     { if (((TCHAR*)soap->msgbuf)[i] < 0x80)
; 14556:         soap->msgbuf[i] = (char)((TCHAR*)soap->msgbuf)[i];
; 14557:       else
; 14558:         soap->msgbuf[i] = '?';
; 14559:     }
; 14560: #endif
; 14561:     return soap->msgbuf;

	mov	eax, esi
	pop	esi

; 14574: }

	ret	0
$LN4@soap_strer:

; 14562: #endif
; 14563:   }
; 14564: #ifndef WITH_LEAN
; 14565:   if (soap->recv_timeout > 0)

	mov	ecx, DWORD PTR [eax+48]
	test	ecx, ecx
	jle	SHORT $LN3@soap_strer

; 14566:   { if (soap->send_timeout > 0)

	mov	edx, DWORD PTR [eax+52]

; 14567:       sprintf(soap->msgbuf, "Operation interrupted or timed out after %ds send or %ds receive delay", soap->send_timeout, soap->recv_timeout);

	lea	esi, DWORD PTR [eax+78004]
	push	ecx
	test	edx, edx
	jle	SHORT $LN2@soap_strer
	push	edx
	push	OFFSET ??_C@_0EH@OEKCJEEM@Operation?5interrupted?5or?5timed?5o@
	push	esi
	call	_sprintf
	add	esp, 16					; 00000010H

; 14570:     return soap->msgbuf;

	mov	eax, esi
	pop	esi

; 14574: }

	ret	0
$LN2@soap_strer:

; 14568:     else
; 14569:       sprintf(soap->msgbuf, "Operation interrupted or timed out after %ds receive delay", soap->recv_timeout);

	push	OFFSET ??_C@_0DL@HBKFNCEG@Operation?5interrupted?5or?5timed?5o@
	push	esi
	call	_sprintf
	add	esp, 12					; 0000000cH

; 14570:     return soap->msgbuf;

	mov	eax, esi
	pop	esi

; 14574: }

	ret	0
$LN3@soap_strer:

; 14571:   }
; 14572: #endif
; 14573:   return "Operation interrupted or timed out";

	mov	eax, OFFSET ??_C@_0CD@EBMJBALC@Operation?5interrupted?5or?5timed?5o@
	pop	esi

; 14574: }

	ret	0
_soap_strerror ENDP
; Function compile flags: /Ogtpy
_soap_set_validation_fault PROC
; _soap$ = ecx
; _s$ = edi
; _t$ = edx

; 14174: { if (*soap->tag)

	cmp	BYTE PTR [ecx+80052], 0
	lea	eax, DWORD PTR [ecx+80052]
	push	esi
	je	SHORT $LN2@soap_set_v

; 14175:     sprintf(soap->msgbuf, "Validation constraint violation: %s%s in element <%s>", s, t?t:SOAP_STR_EOS, soap->tag);

	test	edx, edx
	jne	SHORT $LN6@soap_set_v
	mov	edx, OFFSET _soap_padding
$LN6@soap_set_v:
	push	eax
	push	edx
	push	edi
	lea	esi, DWORD PTR [ecx+78004]
	push	OFFSET ??_C@_0DG@HKJBMIKH@Validation?5constraint?5violation?3@
	push	esi
	call	_sprintf
	add	esp, 20					; 00000014H

; 14178:   return soap->msgbuf;

	mov	eax, esi
	pop	esi

; 14179: }

	ret	0
$LN2@soap_set_v:

; 14176:   else
; 14177:     sprintf(soap->msgbuf, "Validation constraint violation: %s%s", s, t?t:SOAP_STR_EOS);

	test	edx, edx
	jne	SHORT $LN8@soap_set_v
	mov	edx, OFFSET _soap_padding
$LN8@soap_set_v:
	push	edx
	push	edi
	lea	esi, DWORD PTR [ecx+78004]
	push	OFFSET ??_C@_0CG@LEBAOEFP@Validation?5constraint?5violation?3@
	push	esi
	call	_sprintf
	add	esp, 16					; 00000010H

; 14178:   return soap->msgbuf;

	mov	eax, esi
	pop	esi

; 14179: }

	ret	0
_soap_set_validation_fault ENDP
; Function compile flags: /Ogtpy
_soap$ = 8						; size = 4
_http_head PROC

; 13932: { return SOAP_HEAD_METHOD;

	mov	eax, 18					; 00000012H

; 13933: }

	ret	0
_http_head ENDP
; Function compile flags: /Ogtpy
_soap$ = 8						; size = 4
_http_del PROC

; 13922: { return SOAP_DEL_METHOD;

	mov	eax, 17					; 00000011H

; 13923: }

	ret	0
_http_del ENDP
; Function compile flags: /Ogtpy
_soap$ = 8						; size = 4
_http_put PROC

; 13912: { return SOAP_PUT_METHOD;

	mov	eax, 16					; 00000010H

; 13913: }

	ret	0
_http_put ENDP
; Function compile flags: /Ogtpy
_soap$ = 8						; size = 4
_http_get PROC

; 13902: { return SOAP_GET_METHOD;

	mov	eax, 15					; 0000000fH

; 13903: }

	ret	0
_http_get ENDP
_TEXT	ENDS
PUBLIC	_soap_puthttphdr
; Function compile flags: /Ogtpy
_TEXT	SEGMENT
_r$84002 = -4						; size = 4
_err$84001 = 8						; size = 4
_soap$ = 8						; size = 4
_count$ = 12						; size = 4
_soap_puthttphdr PROC
; _status$ = eax

; 13823: { if (soap->status != SOAP_GET)

	push	ecx
	push	ebp
	mov	ebp, DWORD PTR _soap$[esp+4]
	cmp	DWORD PTR [ebp+90456], 2001		; 000007d1H
	push	esi
	push	edi
	je	$LN41@soap_putht

; 13824:   { register const char *s = "text/xml; charset=utf-8";
; 13825:     register int err = SOAP_OK;

	xor	esi, esi
	mov	edi, OFFSET ??_C@_0BI@JFLEALON@text?1xml?$DL?5charset?$DNutf?98?$AA@
	mov	DWORD PTR _err$84001[esp+12], esi

; 13826: #ifndef WITH_LEANER
; 13827:     register const char *r = NULL;

	mov	DWORD PTR _r$84002[esp+16], esi

; 13828: #endif
; 13829:     if (status == SOAP_FILE && soap->http_content)

	cmp	eax, 1003				; 000003ebH
	jne	SHORT $LN20@soap_putht
	mov	eax, DWORD PTR [ebp+36]
	cmp	eax, esi
	je	SHORT $LN18@soap_putht

; 13830:       s = soap->http_content;

	mov	edi, eax
	jmp	SHORT $LN14@soap_putht
$LN20@soap_putht:

; 13831:     else if (status == SOAP_HTML)

	cmp	eax, 1002				; 000003eaH
	jne	SHORT $LN18@soap_putht

; 13832:       s = "text/html; charset=utf-8";

	mov	edi, OFFSET ??_C@_0BJ@CDMHJEKP@text?1html?$DL?5charset?$DNutf?98?$AA@
	jmp	SHORT $LN14@soap_putht
$LN18@soap_putht:

; 13833:     else if (count || ((soap->omode & SOAP_IO) == SOAP_IO_CHUNK))

	cmp	DWORD PTR _count$[esp+12], esi
	jne	SHORT $LN40@soap_putht
	mov	eax, DWORD PTR [ebp+16]
	and	eax, 3
	cmp	al, 3
	jne	SHORT $LN14@soap_putht
$LN40@soap_putht:

; 13834:     { if (soap->version == 2)

	cmp	WORD PTR [ebp+6], 2
	jne	SHORT $LN14@soap_putht

; 13835:         s = "application/soap+xml; charset=utf-8";

	mov	edi, OFFSET ??_C@_0CE@HOOLIGFB@application?1soap?$CLxml?$DL?5charset?$DNut@
$LN14@soap_putht:

; 13836:     }
; 13837: #ifndef WITH_LEANER
; 13838:     if (soap->mode & (SOAP_ENC_DIME | SOAP_ENC_MTOM))

	mov	eax, DWORD PTR [ebp+8]
	test	eax, 640				; 00000280H
	je	SHORT $LN11@soap_putht

; 13839:     { if (soap->mode & SOAP_ENC_MTOM)

	test	eax, 512				; 00000200H
	je	SHORT $LN12@soap_putht

; 13840:       { r = s;

	mov	DWORD PTR _r$84002[esp+16], edi

; 13841:         s = "application/xop+xml; charset=utf-8";

	mov	edi, OFFSET ??_C@_0CD@GGDEJPLO@application?1xop?$CLxml?$DL?5charset?$DNutf@

; 13842:       }
; 13843:       else

	jmp	SHORT $LN11@soap_putht
$LN12@soap_putht:

; 13844:         s = "application/dime";

	mov	edi, OFFSET ??_C@_0BB@KDHCEMMM@application?1dime?$AA@
$LN11@soap_putht:

; 13845:     }
; 13846:     if ((soap->mode & SOAP_ENC_MIME) && soap->mime.boundary && strlen(soap->mime.boundary) + strlen(soap->mime.start ? soap->mime.start : SOAP_STR_EOS) < sizeof(soap->tmpbuf) - 80)

	test	eax, 256				; 00000100H
	je	$LN10@soap_putht
	mov	eax, DWORD PTR [ebp+90524]
	cmp	eax, esi
	je	$LN10@soap_putht
	lea	edx, DWORD PTR [eax+1]
$LL28@soap_putht:
	mov	cl, BYTE PTR [eax]
	inc	eax
	test	cl, cl
	jne	SHORT $LL28@soap_putht
	mov	ecx, DWORD PTR [ebp+90528]
	sub	eax, edx
	cmp	ecx, esi
	jne	SHORT $LN25@soap_putht
	mov	ecx, OFFSET _soap_padding
$LN25@soap_putht:
	lea	esi, DWORD PTR [ecx+1]
	npad	5
$LL29@soap_putht:
	mov	dl, BYTE PTR [ecx]
	inc	ecx
	test	dl, dl
	jne	SHORT $LL29@soap_putht
	sub	ecx, esi
	add	ecx, eax
	cmp	ecx, 944				; 000003b0H
	jae	$LN10@soap_putht
	push	ebx

; 13847:     { register const char *t = strchr(s, ';');

	push	59					; 0000003bH
	push	edi
	call	_strchr

; 13848:       sprintf(soap->tmpbuf, "multipart/related; boundary=\"%s\"; type=\"", soap->mime.boundary);

	mov	ecx, DWORD PTR [ebp+90524]
	push	ecx
	lea	ebx, DWORD PTR [ebp+79028]
	push	OFFSET ??_C@_0CJ@HGDIJJKJ@multipart?1related?$DL?5boundary?$DN?$CC?$CFs?$CC@
	push	ebx
	mov	esi, eax
	call	_sprintf
	add	esp, 20					; 00000014H

; 13849:       if (t)

	test	esi, esi
	je	SHORT $LN9@soap_putht

; 13850:         strncat(soap->tmpbuf, s, t - s);

	sub	esi, edi
	push	esi
	push	edi
	push	ebx
	call	_strncat
	add	esp, 12					; 0000000cH

; 13851:       else

	jmp	SHORT $LN8@soap_putht
$LN9@soap_putht:

; 13852:         strcat(soap->tmpbuf, s);

	mov	eax, edi
	mov	ecx, edi
$LL30@soap_putht:
	mov	dl, BYTE PTR [eax]
	inc	eax
	test	dl, dl
	jne	SHORT $LL30@soap_putht
	mov	edi, ebx
	sub	eax, ecx
	mov	esi, ecx
	dec	edi
$LL31@soap_putht:
	mov	cl, BYTE PTR [edi+1]
	inc	edi
	test	cl, cl
	jne	SHORT $LL31@soap_putht
	mov	ecx, eax
	shr	ecx, 2
	rep movsd
	mov	ecx, eax
	and	ecx, 3
	rep movsb
$LN8@soap_putht:

; 13853:       if (soap->mime.start)

	cmp	DWORD PTR [ebp+90528], 0
	je	SHORT $LN7@soap_putht

; 13854:       { strcat(soap->tmpbuf, "\"; start=\"");

	mov	eax, ebx
	dec	eax
$LL32@soap_putht:
	mov	cl, BYTE PTR [eax+1]
	inc	eax
	test	cl, cl
	jne	SHORT $LL32@soap_putht
	mov	edx, DWORD PTR ??_C@_0L@ENHEIJFK@?$CC?$DL?5start?$DN?$CC?$AA@
	mov	DWORD PTR [eax], edx
	mov	ecx, DWORD PTR ??_C@_0L@ENHEIJFK@?$CC?$DL?5start?$DN?$CC?$AA@+4
	mov	DWORD PTR [eax+4], ecx
	mov	dx, WORD PTR ??_C@_0L@ENHEIJFK@?$CC?$DL?5start?$DN?$CC?$AA@+8
	mov	WORD PTR [eax+8], dx
	mov	cl, BYTE PTR ??_C@_0L@ENHEIJFK@?$CC?$DL?5start?$DN?$CC?$AA@+10
	mov	BYTE PTR [eax+10], cl

; 13855:         strcat(soap->tmpbuf, soap->mime.start);

	mov	eax, DWORD PTR [ebp+90528]
	mov	ecx, eax
	npad	7
$LL33@soap_putht:
	mov	dl, BYTE PTR [eax]
	inc	eax
	test	dl, dl
	jne	SHORT $LL33@soap_putht
	mov	edi, ebx
	sub	eax, ecx
	mov	esi, ecx
	dec	edi
	npad	2
$LL34@soap_putht:
	mov	cl, BYTE PTR [edi+1]
	inc	edi
	test	cl, cl
	jne	SHORT $LL34@soap_putht
	mov	ecx, eax
	shr	ecx, 2
	rep movsd
	mov	ecx, eax
	and	ecx, 3
	rep movsb
$LN7@soap_putht:

; 13856:       }
; 13857:       strcat(soap->tmpbuf, "\"");

	mov	edi, ebx
	dec	edi
	npad	7
$LL35@soap_putht:
	mov	al, BYTE PTR [edi+1]
	inc	edi
	test	al, al
	jne	SHORT $LL35@soap_putht

; 13858:       if (r)

	mov	esi, DWORD PTR _r$84002[esp+20]
	mov	dx, WORD PTR ??_C@_01BJJEKLCA@?$CC?$AA@
	mov	WORD PTR [edi], dx
	test	esi, esi
	je	$LN6@soap_putht

; 13859:       { strcat(soap->tmpbuf, "; start-info=\"");

	mov	eax, ebx
	dec	eax
$LL36@soap_putht:
	mov	cl, BYTE PTR [eax+1]
	inc	eax
	test	cl, cl
	jne	SHORT $LL36@soap_putht
	mov	ecx, DWORD PTR ??_C@_0P@KJFFOCGK@?$DL?5start?9info?$DN?$CC?$AA@
	mov	DWORD PTR [eax], ecx
	mov	edx, DWORD PTR ??_C@_0P@KJFFOCGK@?$DL?5start?9info?$DN?$CC?$AA@+4
	mov	DWORD PTR [eax+4], edx
	mov	ecx, DWORD PTR ??_C@_0P@KJFFOCGK@?$DL?5start?9info?$DN?$CC?$AA@+8
	mov	DWORD PTR [eax+8], ecx
	mov	dx, WORD PTR ??_C@_0P@KJFFOCGK@?$DL?5start?9info?$DN?$CC?$AA@+12
	mov	WORD PTR [eax+12], dx
	mov	cl, BYTE PTR ??_C@_0P@KJFFOCGK@?$DL?5start?9info?$DN?$CC?$AA@+14
	mov	BYTE PTR [eax+14], cl

; 13860:         strcat(soap->tmpbuf, r);

	mov	eax, esi
	mov	ecx, esi
	npad	5
$LL37@soap_putht:
	mov	dl, BYTE PTR [eax]
	inc	eax
	test	dl, dl
	jne	SHORT $LL37@soap_putht
	mov	edi, ebx
	sub	eax, ecx
	mov	esi, ecx
	dec	edi
	npad	2
$LL38@soap_putht:
	mov	cl, BYTE PTR [edi+1]
	inc	edi
	test	cl, cl
	jne	SHORT $LL38@soap_putht
	mov	ecx, eax
	shr	ecx, 2
	rep movsd
	mov	ecx, eax
	and	ecx, 3
	rep movsb

; 13861:         strcat(soap->tmpbuf, "\"");

	mov	edi, ebx
	dec	edi
	npad	7
$LL39@soap_putht:
	mov	al, BYTE PTR [edi+1]
	inc	edi
	test	al, al
	jne	SHORT $LL39@soap_putht
	mov	dx, WORD PTR ??_C@_01BJJEKLCA@?$CC?$AA@
	mov	WORD PTR [edi], dx
$LN6@soap_putht:

; 13862:       }
; 13863:       s = soap->tmpbuf;

	mov	edi, ebx
	pop	ebx
$LN10@soap_putht:

; 13864:     }
; 13865: #endif
; 13866:     if (s && (err = soap->fposthdr(soap, "Content-Type", s)))

	test	edi, edi
	je	SHORT $LN42@soap_putht
	mov	eax, DWORD PTR [ebp+12256]
	push	edi
	push	OFFSET ??_C@_0N@LAFFMKKA@Content?9Type?$AA@
	push	ebp
	call	eax
	add	esp, 12					; 0000000cH
	mov	DWORD PTR _err$84001[esp+12], eax
	test	eax, eax
	je	SHORT $LN42@soap_putht
	pop	edi
	pop	esi
	pop	ebp

; 13893: }

	pop	ecx
	ret	0
$LN42@soap_putht:

; 13867:       return err;
; 13868: #ifdef WITH_ZLIB
; 13869:     if (soap->omode & SOAP_ENC_ZLIB)
; 13870:     {
; 13871: #ifdef WITH_GZIP
; 13872:       err = soap->fposthdr(soap, "Content-Encoding", soap->zlib_out == SOAP_ZLIB_DEFLATE ? "deflate" : "gzip");
; 13873: #else
; 13874:       err = soap->fposthdr(soap, "Content-Encoding", "deflate");
; 13875: #endif
; 13876:       if (err)
; 13877:         return err;
; 13878:     }
; 13879: #endif
; 13880: #ifndef WITH_LEANER
; 13881:     if ((soap->omode & SOAP_IO) == SOAP_IO_CHUNK)

	mov	ecx, DWORD PTR [ebp+16]
	and	ecx, 3
	cmp	cl, 3
	jne	SHORT $LN4@soap_putht

; 13882:       err = soap->fposthdr(soap, "Transfer-Encoding", "chunked");

	mov	edx, DWORD PTR [ebp+12256]
	push	OFFSET ??_C@_07KCKHAHHI@chunked?$AA@
	push	OFFSET ??_C@_0BC@ELHLFCNH@Transfer?9Encoding?$AA@
	push	ebp
	call	edx
	add	esp, 12					; 0000000cH

; 13883:     else

	jmp	SHORT $LN43@soap_putht
$LN4@soap_putht:

; 13884: #endif
; 13885:     if (s)

	test	edi, edi
	je	SHORT $LN2@soap_putht

; 13886:     { sprintf(soap->tmpbuf, "%lu", (unsigned long)count);

	mov	eax, DWORD PTR _count$[esp+12]
	push	eax
	lea	esi, DWORD PTR [ebp+79028]
	push	OFFSET ??_C@_03FKNCMABI@?$CFlu?$AA@
	push	esi
	call	_sprintf

; 13887:       err = soap->fposthdr(soap, "Content-Length", soap->tmpbuf);

	mov	ecx, DWORD PTR [ebp+12256]
	push	esi
	push	OFFSET ??_C@_0P@HOJGPHBA@Content?9Length?$AA@
	push	ebp
	call	ecx
	add	esp, 24					; 00000018H
$LN43@soap_putht:
	mov	DWORD PTR _err$84001[esp+12], eax
$LN2@soap_putht:

; 13888:     }
; 13889:     if (err)

	mov	eax, DWORD PTR _err$84001[esp+12]
	test	eax, eax

; 13890:       return err;

	jne	SHORT $LN22@soap_putht
$LN41@soap_putht:

; 13891:   }
; 13892:   return soap->fposthdr(soap, "Connection", soap->keep_alive ? "keep-alive" : "close");

	cmp	WORD PTR [ebp+90412], 0
	mov	eax, OFFSET ??_C@_0L@FFDPOIEG@keep?9alive?$AA@
	jne	SHORT $LN27@soap_putht
	mov	eax, OFFSET ??_C@_05LBOHBHFK@close?$AA@
$LN27@soap_putht:
	mov	edx, DWORD PTR [ebp+12256]
	push	eax
	push	OFFSET ??_C@_0L@PJJKMLL@Connection?$AA@
	push	ebp
	call	edx
	add	esp, 12					; 0000000cH
$LN22@soap_putht:
	pop	edi
	pop	esi
	pop	ebp

; 13893: }

	pop	ecx
	ret	0
_soap_puthttphdr ENDP
_TEXT	ENDS
PUBLIC	_soap_set_endpoint
; Function compile flags: /Ogtpy
_TEXT	SEGMENT
_soap$ = 8						; size = 4
_soap_set_endpoint PROC
; _endpoint$ = eax

; 13483: { register const char *s;

	push	ebp
	mov	ebp, DWORD PTR _soap$[esp]
	push	esi
	mov	esi, eax

; 13484:   register size_t i, n;
; 13485:   soap->endpoint[0] = '\0';

	lea	eax, DWORD PTR [ebp+87320]
	mov	BYTE PTR [eax], 0

; 13486:   soap->host[0] = '\0';

	mov	BYTE PTR [ebp+89368], 0

; 13487:   soap->path[0] = '/';

	mov	BYTE PTR [ebp+88344], 47		; 0000002fH

; 13488:   soap->path[1] = '\0';

	mov	BYTE PTR [ebp+88345], 0

; 13489:   soap->port = 80;

	mov	DWORD PTR [ebp+90408], 80		; 00000050H

; 13490:   if (!endpoint || !*endpoint)

	test	esi, esi
	je	$LN15@soap_set_e
	cmp	BYTE PTR [esi], 0
	je	$LN15@soap_set_e
	push	edi

; 13491:     return;
; 13492: #ifdef WITH_OPENSSL
; 13493:   if (!soap_tag_cmp(endpoint, "https:*"))
; 13494:     soap->port = 443;
; 13495: #endif
; 13496:   strncpy(soap->endpoint, endpoint, sizeof(soap->endpoint) - 1);

	push	1023					; 000003ffH
	push	esi
	push	eax
	call	_strncpy

; 13497:   soap->endpoint[sizeof(soap->endpoint) - 1] = '\0';
; 13498:   s = strchr(endpoint, ':');

	push	58					; 0000003aH
	push	esi
	mov	BYTE PTR [ebp+88343], 0
	call	_strchr
	mov	edi, eax
	add	esp, 20					; 00000014H

; 13499:   if (s && s[1] == '/' && s[2] == '/')

	test	edi, edi
	je	SHORT $LN14@soap_set_e
	cmp	BYTE PTR [edi+1], 47			; 0000002fH
	jne	SHORT $LN14@soap_set_e
	cmp	BYTE PTR [edi+2], 47			; 0000002fH
	jne	SHORT $LN14@soap_set_e

; 13500:     s += 3;

	add	edi, 3

; 13501:   else

	jmp	SHORT $LN13@soap_set_e
$LN14@soap_set_e:

; 13502:     s = endpoint;

	mov	edi, esi
$LN13@soap_set_e:

; 13503:   n = strlen(s);

	mov	eax, edi
	lea	edx, DWORD PTR [eax+1]
	npad	2
$LL25@soap_set_e:
	mov	cl, BYTE PTR [eax]
	inc	eax
	test	cl, cl
	jne	SHORT $LL25@soap_set_e
	sub	eax, edx
	push	ebx
	mov	ebx, eax

; 13504:   if (n >= sizeof(soap->host))

	cmp	ebx, 1024				; 00000400H
	jb	SHORT $LN12@soap_set_e

; 13505:     n = sizeof(soap->host) - 1;

	mov	ebx, 1023				; 000003ffH
$LN12@soap_set_e:

; 13506: #ifdef WITH_IPV6
; 13507:   if (s[0] == '[')
; 13508:   { s++;
; 13509:     for (i = 0; i < n; i++)
; 13510:     { if (s[i] == ']')
; 13511:       { s++;
; 13512:         --n;
; 13513:         break;
; 13514:       }
; 13515:       soap->host[i] = s[i];
; 13516:     }
; 13517:   }
; 13518:   else
; 13519:   { for (i = 0; i < n; i++)
; 13520:     { soap->host[i] = s[i];
; 13521:       if (s[i] == '/' || s[i] == ':')
; 13522:         break;
; 13523:     }
; 13524:   }
; 13525: #else
; 13526:   for (i = 0; i < n; i++)

	xor	esi, esi
	test	ebx, ebx
	jbe	SHORT $LN21@soap_set_e
	npad	1
$LL11@soap_set_e:

; 13527:   { soap->host[i] = s[i];

	mov	al, BYTE PTR [esi+edi]
	mov	BYTE PTR [esi+ebp+89368], al

; 13528:     if (s[i] == '/' || s[i] == ':')

	cmp	BYTE PTR [esi+edi], 47			; 0000002fH
	je	SHORT $LN21@soap_set_e
	cmp	BYTE PTR [esi+edi], 58			; 0000003aH
	je	SHORT $LN21@soap_set_e
	inc	esi
	cmp	esi, ebx
	jb	SHORT $LL11@soap_set_e
$LN21@soap_set_e:

; 13529:       break;
; 13530:   }
; 13531: #endif
; 13532:   soap->host[i] = '\0';

	mov	BYTE PTR [esi+ebp+89368], 0

; 13533:   if (s[i] == ':')

	cmp	BYTE PTR [esi+edi], 58			; 0000003aH
	jne	SHORT $LN26@soap_set_e

; 13534:   { soap->port = (int)atol(s + i + 1);

	lea	ecx, DWORD PTR [esi+edi+1]
	push	ecx
	call	_atol

; 13535:     for (i++; i < n; i++)

	inc	esi
	add	esp, 4
	mov	DWORD PTR [ebp+90408], eax
	cmp	esi, ebx
	jae	SHORT $LN28@soap_set_e
$LL5@soap_set_e:

; 13536:       if (s[i] == '/')

	cmp	BYTE PTR [esi+edi], 47			; 0000002fH
	je	SHORT $LN26@soap_set_e
	inc	esi
	cmp	esi, ebx
	jb	SHORT $LL5@soap_set_e
	pop	ebx
	pop	edi
	pop	esi
	pop	ebp

; 13542:   }
; 13543: }

	ret	0
$LN26@soap_set_e:

; 13537:         break;
; 13538:   }
; 13539:   if (i < n && s[i])

	cmp	esi, ebx
	jae	SHORT $LN28@soap_set_e
	add	esi, edi
	cmp	BYTE PTR [esi], 0
	je	SHORT $LN28@soap_set_e

; 13540:   { strncpy(soap->path, s + i, sizeof(soap->path));

	push	1024					; 00000400H
	lea	eax, DWORD PTR [ebp+88344]
	push	esi
	push	eax
	call	_strncpy
	add	esp, 12					; 0000000cH

; 13541:     soap->path[sizeof(soap->path) - 1] = '\0';

	mov	BYTE PTR [ebp+89367], 0
$LN28@soap_set_e:
	pop	ebx
	pop	edi
$LN15@soap_set_e:
	pop	esi
	pop	ebp

; 13542:   }
; 13543: }

	ret	0
_soap_set_endpoint ENDP
; Function compile flags: /Ogtpy
_sep$ = 8						; size = 4
_soap_decode PROC
; _buf$ = ecx
; _val$ = eax

; 13238: { const char *s;

	push	ebx
	push	ebp
	mov	ebp, DWORD PTR _sep$[esp+4]
	push	esi
	mov	esi, eax

; 13239:   char *t = buf;
; 13240:   for (s = val; *s; s++)

	cmp	BYTE PTR [esi], 0
	push	edi
	mov	ebx, 1024				; 00000400H
	mov	edi, ecx
	je	SHORT $LN26@soap_decod
$LL15@soap_decod:

; 13241:     if (*s != ' ' && *s != '\t' && !strchr(sep, *s))

	mov	al, BYTE PTR [esi]
	cmp	al, 32					; 00000020H
	je	SHORT $LN14@soap_decod
	cmp	al, 9
	je	SHORT $LN14@soap_decod
	movsx	eax, al
	push	eax
	push	ebp
	call	_strchr
	add	esp, 8
	test	eax, eax
	je	SHORT $LN26@soap_decod
$LN14@soap_decod:

; 13239:   char *t = buf;
; 13240:   for (s = val; *s; s++)

	inc	esi
	cmp	BYTE PTR [esi], 0
	jne	SHORT $LL15@soap_decod
$LN26@soap_decod:

; 13242:       break;
; 13243:   if (*s == '"')

	mov	al, BYTE PTR [esi]
	cmp	al, 34					; 00000022H
	jne	SHORT $LN24@soap_decod

; 13244:   { s++;
; 13245:     while (*s && *s != '"' && --len)

	mov	al, BYTE PTR [esi+1]
	inc	esi
	test	al, al
	je	$LN6@soap_decod
	npad	7
$LL10@soap_decod:
	cmp	al, 34					; 00000022H
	je	$LN6@soap_decod
	sub	ebx, 1
	je	SHORT $LN6@soap_decod

; 13246:       *t++ = *s++;

	inc	esi
	mov	BYTE PTR [edi], al
	mov	al, BYTE PTR [esi]
	inc	edi
	test	al, al
	jne	SHORT $LL10@soap_decod

; 13247:   }
; 13248:   else

	jmp	SHORT $LN6@soap_decod
$LN24@soap_decod:

; 13249:   { while (*s && !soap_blank(*s) && !strchr(sep, *s) && --len)

	test	al, al
	je	SHORT $LN6@soap_decod
$LN32@soap_decod:
	jl	SHORT $LN5@soap_decod
	cmp	al, 32					; 00000020H
	jle	SHORT $LN6@soap_decod
$LN5@soap_decod:
	movsx	ecx, al
	push	ecx
	push	ebp
	call	_strchr
	add	esp, 8
	test	eax, eax
	jne	SHORT $LN6@soap_decod
	sub	ebx, 1
	je	SHORT $LN6@soap_decod

; 13250:     { if (*s == '%')

	mov	al, BYTE PTR [esi]
	cmp	al, 37					; 00000025H
	jne	SHORT $LN4@soap_decod

; 13251:       { *t++ = ((s[1] >= 'A' ? (s[1] & 0x7) + 9 : s[1] - '0') << 4)
; 13252:               + (s[2] >= 'A' ? (s[2] & 0x7) + 9 : s[2] - '0');

	mov	al, BYTE PTR [esi+1]
	cmp	al, 65					; 00000041H
	movsx	eax, al
	jl	SHORT $LN18@soap_decod
	and	eax, 7
	add	eax, 9
	jmp	SHORT $LN19@soap_decod
$LN18@soap_decod:
	sub	eax, 48					; 00000030H
$LN19@soap_decod:
	mov	cl, BYTE PTR [esi+2]
	cmp	cl, 65					; 00000041H
	movsx	ecx, cl
	jl	SHORT $LN20@soap_decod
	and	ecx, 7
	add	ecx, 9
	shl	al, 4
	add	al, cl
	mov	BYTE PTR [edi], al
	inc	edi

; 13253:         s += 3;

	add	esi, 3

; 13254:       }
; 13255:       else

	jmp	SHORT $LN3@soap_decod
$LN20@soap_decod:

; 13251:       { *t++ = ((s[1] >= 'A' ? (s[1] & 0x7) + 9 : s[1] - '0') << 4)
; 13252:               + (s[2] >= 'A' ? (s[2] & 0x7) + 9 : s[2] - '0');

	sub	ecx, 48					; 00000030H
	shl	al, 4
	add	al, cl
	mov	BYTE PTR [edi], al
	inc	edi

; 13253:         s += 3;

	add	esi, 3

; 13254:       }
; 13255:       else

	jmp	SHORT $LN3@soap_decod
$LN4@soap_decod:

; 13256:         *t++ = *s++;

	mov	BYTE PTR [edi], al
	inc	edi
	inc	esi
$LN3@soap_decod:
	mov	al, BYTE PTR [esi]
	test	al, al
	jne	SHORT $LN32@soap_decod
$LN6@soap_decod:

; 13257:     }
; 13258:   }
; 13259:   *t = '\0';

	mov	BYTE PTR [edi], 0

; 13260:   while (*s && !strchr(sep, *s))

	mov	al, BYTE PTR [esi]
	test	al, al
	je	SHORT $LN31@soap_decod
$LL2@soap_decod:
	movsx	edx, al
	push	edx
	push	ebp
	call	_strchr
	add	esp, 8
	test	eax, eax
	jne	SHORT $LN31@soap_decod
	mov	al, BYTE PTR [esi+1]

; 13261:     s++;

	inc	esi
	test	al, al
	jne	SHORT $LL2@soap_decod
$LN31@soap_decod:
	pop	edi

; 13262:   return s;

	mov	eax, esi
	pop	esi
	pop	ebp
	pop	ebx

; 13263: }

	ret	0
_soap_decode ENDP
_TEXT	ENDS
PUBLIC	_soap_decode_val
; Function compile flags: /Ogtpy
_TEXT	SEGMENT
_soap_decode_val PROC
; _buf$ = ecx
; _val$ = eax

; 13224: { if (*val != '=')

	cmp	BYTE PTR [eax], 61			; 0000003dH
	je	SHORT $LN1@soap_decod@2

; 13225:   { *buf = '\0';

	mov	BYTE PTR [ecx], 0

; 13229: }

	ret	0
$LN1@soap_decod@2:

; 13226:     return val;
; 13227:   }
; 13228:   return soap_decode(buf, len, val + 1, ",;");

	push	OFFSET ??_C@_02NFLHGFB@?0?$DL?$AA@
	inc	eax
	call	_soap_decode
	add	esp, 4

; 13229: }

	ret	0
_soap_decode_val ENDP
_TEXT	ENDS
PUBLIC	_soap_decode_key
; Function compile flags: /Ogtpy
_TEXT	SEGMENT
_soap_decode_key PROC
; _buf$ = ecx
; _val$ = eax

; 13212: { return soap_decode(buf, len, val, "=,;");

	push	OFFSET ??_C@_03NBBPFACD@?$DN?0?$DL?$AA@
	call	_soap_decode
	add	esp, 4

; 13213: }

	ret	0
_soap_decode_key ENDP
; Function compile flags: /Ogtpy
_soap$ = 8						; size = 4
_soap_valid_mime_boundary PROC

; 11949:   register size_t k;
; 11950:   if (soap->fmimeread)

	mov	edx, DWORD PTR _soap$[esp-4]
	cmp	DWORD PTR [edx+12396], 0
	je	SHORT $LN9@soap_valid

; 11951:     return SOAP_OK;

	xor	eax, eax

; 11964: }

	ret	0
$LN9@soap_valid:
	push	esi

; 11952:   k = strlen(soap->mime.boundary);

	mov	esi, DWORD PTR [edx+90524]
	lea	ecx, DWORD PTR [esi+1]
	npad	6
$LL17@soap_valid:
	mov	al, BYTE PTR [esi]
	inc	esi
	test	al, al
	jne	SHORT $LL17@soap_valid
	push	ebx
	push	ebp

; 11953:   for (content = soap->mime.first; content; content = content->next)

	mov	ebp, DWORD PTR [edx+90536]
	sub	esi, ecx
	push	edi
	test	ebp, ebp
	je	SHORT $LN6@soap_valid
$LL8@soap_valid:

; 11954:   { if (content->ptr && content->size >= k)

	mov	ebx, DWORD PTR [ebp+4]
	test	ebx, ebx
	je	SHORT $LN7@soap_valid
	mov	eax, DWORD PTR [ebp+8]
	cmp	eax, esi
	jb	SHORT $LN7@soap_valid

; 11955:     { register const char *p = (const char*)content->ptr;
; 11956:       register size_t i;
; 11957:       for (i = 0; i < content->size - k; i++, p++)

	xor	edi, edi
	sub	eax, esi
	je	SHORT $LN7@soap_valid
	npad	6
$LL18@soap_valid:

; 11958:       { if (!strncmp(p, soap->mime.boundary, k))

	mov	eax, DWORD PTR _soap$[esp+12]
	mov	ecx, DWORD PTR [eax+90524]
	push	esi
	push	ecx
	push	ebx
	call	_strncmp
	add	esp, 12					; 0000000cH
	test	eax, eax
	je	SHORT $LN14@soap_valid
	mov	edx, DWORD PTR [ebp+8]
	inc	edi
	sub	edx, esi
	inc	ebx
	cmp	edi, edx
	jb	SHORT $LL18@soap_valid
$LN7@soap_valid:

; 11953:   for (content = soap->mime.first; content; content = content->next)

	mov	ebp, DWORD PTR [ebp]
	test	ebp, ebp
	jne	SHORT $LL8@soap_valid
$LN6@soap_valid:
	pop	edi
	pop	ebp
	pop	ebx

; 11960:       }
; 11961:     }
; 11962:   }
; 11963:   return SOAP_OK;

	xor	eax, eax
	pop	esi

; 11964: }

	ret	0
$LN14@soap_valid:
	pop	edi
	pop	ebp
	pop	ebx

; 11959:           return SOAP_ERR;

	or	eax, -1
	pop	esi

; 11964: }

	ret	0
_soap_valid_mime_boundary ENDP
_TEXT	ENDS
PUBLIC	_soap_next_multipart
; Function compile flags: /Ogtpy
_TEXT	SEGMENT
_soap_next_multipart PROC
; _content$ = eax

; 11905: { if (content)

	test	eax, eax
	je	SHORT $LN1@soap_next_

; 11906:     return content->next;

	mov	eax, DWORD PTR [eax]

; 11908: }

	ret	0
$LN1@soap_next_:

; 11907:   return NULL;

	xor	eax, eax

; 11908: }

	ret	0
_soap_next_multipart ENDP
_TEXT	ENDS
PUBLIC	_soap_clr_mime
; Function compile flags: /Ogtpy
_TEXT	SEGMENT
_soap_clr_mime PROC
; _soap$ = eax

; 11823: { soap->omode &= ~SOAP_ENC_MIME;

	and	DWORD PTR [eax+16], -257		; fffffeffH

; 11824:   soap->mime.first = NULL;

	xor	ecx, ecx
	mov	DWORD PTR [eax+90536], ecx

; 11825:   soap->mime.last = NULL;

	mov	DWORD PTR [eax+90540], ecx

; 11826:   soap->mime.boundary = NULL;

	mov	DWORD PTR [eax+90524], ecx

; 11827:   soap->mime.start = NULL;

	mov	DWORD PTR [eax+90528], ecx

; 11828: }

	ret	0
_soap_clr_mime ENDP
_TEXT	ENDS
PUBLIC	_soap_clr_dime
; Function compile flags: /Ogtpy
_TEXT	SEGMENT
_soap_clr_dime PROC
; _soap$ = eax

; 11809: { soap->omode &= ~SOAP_ENC_DIME;

	and	DWORD PTR [eax+16], -129		; ffffff7fH

; 11810:   soap->dime.first = NULL;

	xor	ecx, ecx
	mov	DWORD PTR [eax+90516], ecx

; 11811:   soap->dime.last = NULL;

	mov	DWORD PTR [eax+90520], ecx

; 11812: }

	ret	0
_soap_clr_dime ENDP
_TEXT	ENDS
PUBLIC	_soap_set_dime
; Function compile flags: /Ogtpy
_TEXT	SEGMENT
_soap_set_dime PROC
; _soap$ = eax

; 11779: { soap->omode |= SOAP_ENC_DIME;

	or	DWORD PTR [eax+16], 128			; 00000080H

; 11780:   soap->dime.first = NULL;

	xor	ecx, ecx
	mov	DWORD PTR [eax+90516], ecx

; 11781:   soap->dime.last = NULL;

	mov	DWORD PTR [eax+90520], ecx

; 11782: }

	ret	0
_soap_set_dime ENDP
_TEXT	ENDS
PUBLIC	_soap_match_cid
; Function compile flags: /Ogtpy
_TEXT	SEGMENT
_soap$ = 8						; size = 4
_s$ = 12						; size = 4
_t$ = 16						; size = 4
_soap_match_cid PROC

; 11627: { register size_t n;

	push	ebx
	mov	ebx, DWORD PTR _t$[esp]
	push	ebp
	mov	ebp, DWORD PTR _s$[esp+4]

; 11628:   if (!s)

	test	ebp, ebp
	jne	SHORT $LN6@soap_match

; 11629:     return 1;

	lea	eax, DWORD PTR [ebp+1]
	pop	ebp
	pop	ebx

; 11645: }

	ret	0
$LN6@soap_match:

; 11630:   if (!strcmp(s, t))

	mov	ecx, ebx
	mov	eax, ebp
$LL9@soap_match:
	mov	dl, BYTE PTR [eax]
	cmp	dl, BYTE PTR [ecx]
	jne	SHORT $LN10@soap_match
	test	dl, dl
	je	SHORT $LN11@soap_match
	mov	dl, BYTE PTR [eax+1]
	cmp	dl, BYTE PTR [ecx+1]
	jne	SHORT $LN10@soap_match
	add	eax, 2
	add	ecx, 2
	test	dl, dl
	jne	SHORT $LL9@soap_match
$LN11@soap_match:
	xor	eax, eax
	jmp	SHORT $LN12@soap_match
$LN10@soap_match:
	sbb	eax, eax
	sbb	eax, -1
$LN12@soap_match:
	test	eax, eax
	jne	SHORT $LN5@soap_match
	pop	ebp
	pop	ebx

; 11645: }

	ret	0
$LN5@soap_match:

; 11631:     return 0;
; 11632:   if (!strncmp(s, "cid:", 4))

	push	4
	push	OFFSET ??_C@_04MLBGAAHD@cid?3?$AA@
	push	ebp
	call	_strncmp
	add	esp, 12					; 0000000cH
	test	eax, eax
	jne	SHORT $LN4@soap_match

; 11633:     s += 4;

	add	ebp, 4
$LN4@soap_match:

; 11634:   n = strlen(t);

	mov	eax, ebx
	lea	edx, DWORD PTR [eax+1]
$LL13@soap_match:
	mov	cl, BYTE PTR [eax]
	inc	eax
	test	cl, cl
	jne	SHORT $LL13@soap_match
	sub	eax, edx

; 11635:   if (*t == '<')

	cmp	BYTE PTR [ebx], 60			; 0000003cH
	push	esi
	mov	esi, eax
	jne	SHORT $LN3@soap_match

; 11636:   { t++;

	inc	ebx

; 11637:     n -= 2;

	sub	esi, 2
$LN3@soap_match:

; 11638:   }
; 11639:   if (!strncmp(s, t, n) && !s[n])

	push	esi
	push	ebx
	push	ebp
	call	_strncmp
	add	esp, 12					; 0000000cH
	test	eax, eax
	jne	SHORT $LN2@soap_match
	cmp	BYTE PTR [esi+ebp], al

; 11640:     return 0;

	je	SHORT $LN15@soap_match
$LN2@soap_match:
	push	edi

; 11641:   soap_decode(soap->tmpbuf, sizeof(soap->tmpbuf), s, SOAP_STR_EOS);

	mov	edi, DWORD PTR _soap$[esp+12]
	add	edi, 79028				; 000134b4H
	push	OFFSET _soap_padding
	mov	eax, ebp
	mov	ecx, edi
	call	_soap_decode

; 11642:   if (!strncmp(soap->tmpbuf, t, n) && !soap->tmpbuf[n])

	push	esi
	push	ebx
	push	edi
	call	_strncmp
	add	esp, 16					; 00000010H
	pop	edi
	test	eax, eax
	jne	SHORT $LN1@soap_match
	mov	eax, DWORD PTR _soap$[esp+8]
	cmp	BYTE PTR [esi+eax+79028], 0
	jne	SHORT $LN1@soap_match
$LN15@soap_match:
	pop	esi
	pop	ebp

; 11643:     return 0;

	xor	eax, eax
	pop	ebx

; 11645: }

	ret	0
$LN1@soap_match:
	pop	esi
	pop	ebp

; 11644:   return 1;

	mov	eax, 1
	pop	ebx

; 11645: }

	ret	0
_soap_match_cid ENDP
_TEXT	ENDS
PUBLIC	_soap_post_check_mime_attachments
; Function compile flags: /Ogtpy
_TEXT	SEGMENT
_soap_post_check_mime_attachments PROC
; _soap$ = eax

; 11487: { soap->imode |= SOAP_MIME_POSTCHECK;

	or	DWORD PTR [eax+12], 268435456		; 10000000H

; 11488: }

	ret	0
_soap_post_check_mime_attachments ENDP
_TEXT	ENDS
PUBLIC	_soap_get_mime_attachment
PUBLIC	_soap_getmime
; Function compile flags: /Ogtpy
_TEXT	SEGMENT
_soap_getmime PROC
; _soap$ = esi

; 11473: { while (soap_get_mime_attachment(soap, NULL))

$LL2@soap_getmi:
	push	0
	push	esi
	call	_soap_get_mime_attachment
	add	esp, 8
	test	eax, eax
	jne	SHORT $LL2@soap_getmi

; 11474:     ;
; 11475:   return soap->error;

	mov	eax, DWORD PTR [esi+90460]

; 11476: }

	ret	0
_soap_getmime ENDP
_TEXT	ENDS
PUBLIC	_soap_s2ULONG64
; Function compile flags: /Ogtpy
_TEXT	SEGMENT
_soap_s2ULONG64 PROC
; _soap$ = esi
; _s$ = eax
; _p$ = ecx

; 10089: { if (s)

	test	eax, eax
	je	SHORT $LN6@soap_s2ULO

; 10090:   {
; 10091: #ifdef HAVE_STRTOULL
; 10092:     char *r;
; 10093: #ifndef WITH_NOIO
; 10094: #ifndef WITH_LEAN
; 10095:     soap_reset_errno;
; 10096: #endif
; 10097: #endif
; 10098:     *p = strtoull(s, &r, 10);
; 10099:     if ((s == r && (soap->mode & SOAP_XML_STRICT)) || *r
; 10100: #ifndef WITH_NOIO
; 10101: #ifndef WITH_LEAN
; 10102:        || soap_errno == SOAP_ERANGE
; 10103: #endif
; 10104: #endif
; 10105:      )
; 10106: #else
; 10107: #ifdef HAVE_SSCANF
; 10108:     if (sscanf(s, SOAP_ULONG_FORMAT, p) != 1)

	push	ecx
	push	OFFSET ??_C@_05OINFJHGD@?$CFI64u?$AA@
	push	eax
	call	_sscanf
	add	esp, 12					; 0000000cH
	cmp	eax, 1
	je	SHORT $LN6@soap_s2ULO

; 10109: #endif
; 10110: #endif
; 10111:       soap->error = SOAP_TYPE;

	mov	DWORD PTR [esi+90460], 4
$LN6@soap_s2ULO:

; 10112:   }
; 10113:   return soap->error;

	mov	eax, DWORD PTR [esi+90460]

; 10114: }

	ret	0
_soap_s2ULONG64 ENDP
_TEXT	ENDS
PUBLIC	_soap_ULONG642s
; Function compile flags: /Ogtpy
_TEXT	SEGMENT
_n$ = 8							; size = 8
_soap_ULONG642s PROC
; _soap$ = eax

; 10065: { sprintf(soap->tmpbuf, SOAP_ULONG_FORMAT, n);

	mov	ecx, DWORD PTR _n$[esp-4]
	push	esi
	mov	esi, eax
	mov	eax, DWORD PTR _n$[esp+4]
	push	eax
	push	ecx
	add	esi, 79028				; 000134b4H
	push	OFFSET ??_C@_05OINFJHGD@?$CFI64u?$AA@
	push	esi
	call	_sprintf
	add	esp, 16					; 00000010H

; 10066:   return soap->tmpbuf;

	mov	eax, esi
	pop	esi

; 10067: }

	ret	0
_soap_ULONG642s ENDP
_TEXT	ENDS
PUBLIC	_soap_s2unsignedLong
; Function compile flags: /Ogtpy
_TEXT	SEGMENT
_r$82328 = -4						; size = 4
_p$ = 8							; size = 4
_soap_s2unsignedLong PROC
; _soap$ = edi
; _s$ = esi

; 10006: { if (s)

	push	ecx
	test	esi, esi
	je	SHORT $LN8@soap_s2uns

; 10007:   { char *r;
; 10008: #ifndef WITH_NOIO
; 10009: #ifndef WITH_LEAN
; 10010:     soap_reset_errno;

	push	0
	call	DWORD PTR __imp__SetLastError@4

; 10011: #endif
; 10012: #endif
; 10013:     *p = soap_strtoul(s, &r, 10);

	push	10					; 0000000aH
	lea	eax, DWORD PTR _r$82328[esp+8]
	push	eax
	push	esi
	call	_strtoul
	mov	ecx, DWORD PTR _p$[esp+12]
	mov	DWORD PTR [ecx], eax

; 10014:     if ((s == r && (soap->mode & SOAP_XML_STRICT)) || *r
; 10015: #ifndef WITH_NOIO
; 10016: #ifndef WITH_LEAN
; 10017:      || soap_errno == SOAP_ERANGE
; 10018: #endif
; 10019: #endif
; 10020:    )

	mov	eax, DWORD PTR _r$82328[esp+16]
	add	esp, 12					; 0000000cH
	cmp	esi, eax
	jne	SHORT $LN1@soap_s2uns
	test	DWORD PTR [edi+8], 4096			; 00001000H
	jne	SHORT $LN2@soap_s2uns
$LN1@soap_s2uns:
	cmp	BYTE PTR [eax], 0
	jne	SHORT $LN2@soap_s2uns
	call	DWORD PTR __imp__GetLastError@0
	cmp	eax, 34					; 00000022H
	jne	SHORT $LN8@soap_s2uns
$LN2@soap_s2uns:

; 10021:       soap->error = SOAP_TYPE;

	mov	DWORD PTR [edi+90460], 4
$LN8@soap_s2uns:

; 10022:   }
; 10023:   return soap->error;

	mov	eax, DWORD PTR [edi+90460]

; 10024: }

	pop	ecx
	ret	0
_soap_s2unsignedLong ENDP
_TEXT	ENDS
PUBLIC	_soap_unsignedLong2s
; Function compile flags: /Ogtpy
_TEXT	SEGMENT
_soap_unsignedLong2s PROC
; _soap$ = ecx
; _n$ = eax

; 9982 : { sprintf(soap->tmpbuf, "%lu", n);

	push	esi
	push	eax
	mov	esi, ecx
	add	esi, 79028				; 000134b4H
	push	OFFSET ??_C@_03FKNCMABI@?$CFlu?$AA@
	push	esi
	call	_sprintf
	add	esp, 12					; 0000000cH

; 9983 :   return soap->tmpbuf;

	mov	eax, esi
	pop	esi

; 9984 : }

	ret	0
_soap_unsignedLong2s ENDP
_TEXT	ENDS
PUBLIC	_soap_s2unsignedInt
; Function compile flags: /Ogtpy
_TEXT	SEGMENT
_r$82284 = -4						; size = 4
_p$ = 8							; size = 4
_soap_s2unsignedInt PROC
; _soap$ = edi
; _s$ = esi

; 9923 : { if (s)

	push	ecx
	test	esi, esi
	je	SHORT $LN8@soap_s2uns@2

; 9924 :   { char *r;
; 9925 : #ifndef WITH_NOIO
; 9926 : #ifndef WITH_LEAN
; 9927 :     soap_reset_errno;

	push	0
	call	DWORD PTR __imp__SetLastError@4

; 9928 : #endif
; 9929 : #endif
; 9930 :     *p = (unsigned int)soap_strtoul(s, &r, 10);

	push	10					; 0000000aH
	lea	eax, DWORD PTR _r$82284[esp+8]
	push	eax
	push	esi
	call	_strtoul
	mov	ecx, DWORD PTR _p$[esp+12]
	mov	DWORD PTR [ecx], eax

; 9931 :     if ((s == r && (soap->mode & SOAP_XML_STRICT)) || *r
; 9932 : #ifndef WITH_NOIO
; 9933 : #ifndef WITH_LEAN
; 9934 :      || soap_errno == SOAP_ERANGE
; 9935 : #endif
; 9936 : #endif
; 9937 :    )

	mov	eax, DWORD PTR _r$82284[esp+16]
	add	esp, 12					; 0000000cH
	cmp	esi, eax
	jne	SHORT $LN1@soap_s2uns@2
	test	DWORD PTR [edi+8], 4096			; 00001000H
	jne	SHORT $LN2@soap_s2uns@2
$LN1@soap_s2uns@2:
	cmp	BYTE PTR [eax], 0
	jne	SHORT $LN2@soap_s2uns@2
	call	DWORD PTR __imp__GetLastError@0
	cmp	eax, 34					; 00000022H
	jne	SHORT $LN8@soap_s2uns@2
$LN2@soap_s2uns@2:

; 9938 :       soap->error = SOAP_TYPE;

	mov	DWORD PTR [edi+90460], 4
$LN8@soap_s2uns@2:

; 9939 :   }
; 9940 :   return soap->error;

	mov	eax, DWORD PTR [edi+90460]

; 9941 : }

	pop	ecx
	ret	0
_soap_s2unsignedInt ENDP
_TEXT	ENDS
PUBLIC	_soap_unsignedInt2s
; Function compile flags: /Ogtpy
_TEXT	SEGMENT
_soap_unsignedInt2s PROC
; _soap$ = ecx
; _n$ = eax

; 9900 : { return soap_unsignedLong2s(soap, (unsigned long)n);

	push	esi
	push	eax
	mov	esi, ecx
	add	esi, 79028				; 000134b4H
	push	OFFSET ??_C@_03FKNCMABI@?$CFlu?$AA@
	push	esi
	call	_sprintf
	add	esp, 12					; 0000000cH
	mov	eax, esi
	pop	esi

; 9901 : }

	ret	0
_soap_unsignedInt2s ENDP
_TEXT	ENDS
PUBLIC	_soap_s2unsignedShort
; Function compile flags: /Ogtpy
_TEXT	SEGMENT
_r$82240 = -4						; size = 4
_p$ = 8							; size = 4
_soap_s2unsignedShort PROC
; _soap$ = edi
; _s$ = esi

; 9851 : { if (s)

	push	ecx
	test	esi, esi
	je	SHORT $LN6@soap_s2uns@3

; 9852 :   { unsigned long n;
; 9853 :     char *r;
; 9854 :     n = soap_strtoul(s, &r, 10);

	push	10					; 0000000aH
	lea	eax, DWORD PTR _r$82240[esp+8]
	push	eax
	push	esi
	call	_strtoul

; 9855 :     if (s == r || *r || n > 65535)

	mov	ecx, DWORD PTR _r$82240[esp+16]
	add	esp, 12					; 0000000cH
	cmp	esi, ecx
	je	SHORT $LN1@soap_s2uns@3
	cmp	BYTE PTR [ecx], 0
	jne	SHORT $LN1@soap_s2uns@3
	cmp	eax, 65535				; 0000ffffH
	jbe	SHORT $LN2@soap_s2uns@3
$LN1@soap_s2uns@3:

; 9856 :       soap->error = SOAP_TYPE;

	mov	DWORD PTR [edi+90460], 4
$LN2@soap_s2uns@3:

; 9857 :     *p = (unsigned short)n;

	mov	ecx, DWORD PTR _p$[esp]
	mov	WORD PTR [ecx], ax
$LN6@soap_s2uns@3:

; 9858 :   }
; 9859 :   return soap->error;

	mov	eax, DWORD PTR [edi+90460]

; 9860 : }

	pop	ecx
	ret	0
_soap_s2unsignedShort ENDP
_TEXT	ENDS
PUBLIC	_soap_unsignedShort2s
; Function compile flags: /Ogtpy
_TEXT	SEGMENT
_soap_unsignedShort2s PROC
; _soap$ = ecx
; _n$ = eax

; 9828 : { return soap_unsignedLong2s(soap, (unsigned long)n);

	push	esi
	movzx	eax, ax
	push	eax
	mov	esi, ecx
	add	esi, 79028				; 000134b4H
	push	OFFSET ??_C@_03FKNCMABI@?$CFlu?$AA@
	push	esi
	call	_sprintf
	add	esp, 12					; 0000000cH
	mov	eax, esi
	pop	esi

; 9829 : }

	ret	0
_soap_unsignedShort2s ENDP
_TEXT	ENDS
PUBLIC	_soap_s2unsignedByte
; Function compile flags: /Ogtpy
_TEXT	SEGMENT
_r$82195 = -4						; size = 4
_p$ = 8							; size = 4
_soap_s2unsignedByte PROC
; _soap$ = edi
; _s$ = esi

; 9780 : { if (s)

	push	ecx
	test	esi, esi
	je	SHORT $LN6@soap_s2uns@4

; 9781 :   { unsigned long n;
; 9782 :     char *r;
; 9783 :     n = soap_strtoul(s, &r, 10);

	push	10					; 0000000aH
	lea	eax, DWORD PTR _r$82195[esp+8]
	push	eax
	push	esi
	call	_strtoul

; 9784 :     if (s == r || *r || n > 255)

	mov	ecx, DWORD PTR _r$82195[esp+16]
	add	esp, 12					; 0000000cH
	cmp	esi, ecx
	je	SHORT $LN1@soap_s2uns@4
	cmp	BYTE PTR [ecx], 0
	jne	SHORT $LN1@soap_s2uns@4
	cmp	eax, 255				; 000000ffH
	jbe	SHORT $LN2@soap_s2uns@4
$LN1@soap_s2uns@4:

; 9785 :       soap->error = SOAP_TYPE;

	mov	DWORD PTR [edi+90460], 4
$LN2@soap_s2uns@4:

; 9786 :     *p = (unsigned char)n;

	mov	ecx, DWORD PTR _p$[esp]
	mov	BYTE PTR [ecx], al
$LN6@soap_s2uns@4:

; 9787 :   }
; 9788 :   return soap->error;

	mov	eax, DWORD PTR [edi+90460]

; 9789 : }

	pop	ecx
	ret	0
_soap_s2unsignedByte ENDP
_TEXT	ENDS
PUBLIC	_soap_unsignedByte2s
; Function compile flags: /Ogtpy
_TEXT	SEGMENT
_soap_unsignedByte2s PROC
; _soap$ = ecx
; _n$ = eax

; 9757 : { return soap_unsignedLong2s(soap, (unsigned long)n);

	push	esi
	movzx	eax, al
	push	eax
	mov	esi, ecx
	add	esi, 79028				; 000134b4H
	push	OFFSET ??_C@_03FKNCMABI@?$CFlu?$AA@
	push	esi
	call	_sprintf
	add	esp, 12					; 0000000cH
	mov	eax, esi
	pop	esi

; 9758 : }

	ret	0
_soap_unsignedByte2s ENDP
_TEXT	ENDS
PUBLIC	_soap_s2short
; Function compile flags: /Ogtpy
_TEXT	SEGMENT
_r$82016 = -4						; size = 4
_p$ = 8							; size = 4
_soap_s2short PROC
; _soap$ = edi
; _s$ = esi

; 9457 : { if (s)

	push	ecx
	test	esi, esi
	je	SHORT $LN6@soap_s2sho

; 9458 :   { long n;
; 9459 :     char *r;
; 9460 :     n = soap_strtol(s, &r, 10);

	push	10					; 0000000aH
	lea	eax, DWORD PTR _r$82016[esp+8]
	push	eax
	push	esi
	call	_strtol

; 9461 :     if (s == r || *r || n < -32768 || n > 32767)

	mov	ecx, DWORD PTR _r$82016[esp+16]
	add	esp, 12					; 0000000cH
	cmp	esi, ecx
	je	SHORT $LN1@soap_s2sho
	cmp	BYTE PTR [ecx], 0
	jne	SHORT $LN1@soap_s2sho
	cmp	eax, -32768				; ffff8000H
	jl	SHORT $LN1@soap_s2sho
	cmp	eax, 32767				; 00007fffH
	jle	SHORT $LN2@soap_s2sho
$LN1@soap_s2sho:

; 9462 :       soap->error = SOAP_TYPE;

	mov	DWORD PTR [edi+90460], 4
$LN2@soap_s2sho:

; 9463 :     *p = (short)n;

	mov	ecx, DWORD PTR _p$[esp]
	mov	WORD PTR [ecx], ax
$LN6@soap_s2sho:

; 9464 :   }
; 9465 :   return soap->error;

	mov	eax, DWORD PTR [edi+90460]

; 9466 : }

	pop	ecx
	ret	0
_soap_s2short ENDP
_TEXT	ENDS
PUBLIC	_soap_s2byte
; Function compile flags: /Ogtpy
_TEXT	SEGMENT
_r$81971 = -4						; size = 4
_p$ = 8							; size = 4
_soap_s2byte PROC
; _soap$ = edi
; _s$ = esi

; 9386 : { if (s)

	push	ecx
	test	esi, esi
	je	SHORT $LN6@soap_s2byt

; 9387 :   { long n;
; 9388 :     char *r;
; 9389 :     n = soap_strtol(s, &r, 10);

	push	10					; 0000000aH
	lea	eax, DWORD PTR _r$81971[esp+8]
	push	eax
	push	esi
	call	_strtol

; 9390 :     if (s == r || *r || n < -128 || n > 127)

	mov	ecx, DWORD PTR _r$81971[esp+16]
	add	esp, 12					; 0000000cH
	cmp	esi, ecx
	je	SHORT $LN1@soap_s2byt
	cmp	BYTE PTR [ecx], 0
	jne	SHORT $LN1@soap_s2byt
	cmp	eax, -128				; ffffff80H
	jl	SHORT $LN1@soap_s2byt
	cmp	eax, 127				; 0000007fH
	jle	SHORT $LN2@soap_s2byt
$LN1@soap_s2byt:

; 9391 :       soap->error = SOAP_TYPE;

	mov	DWORD PTR [edi+90460], 4
$LN2@soap_s2byt:

; 9392 :     *p = (char)n;

	mov	ecx, DWORD PTR _p$[esp]
	mov	BYTE PTR [ecx], al
$LN6@soap_s2byt:

; 9393 :   }
; 9394 :   return soap->error;

	mov	eax, DWORD PTR [edi+90460]

; 9395 : }

	pop	ecx
	ret	0
_soap_s2byte ENDP
_TEXT	ENDS
PUBLIC	_soap_s2LONG64
; Function compile flags: /Ogtpy
_TEXT	SEGMENT
_soap_s2LONG64 PROC
; _soap$ = esi
; _s$ = eax
; _p$ = ecx

; 9291 : { if (s)

	test	eax, eax
	je	SHORT $LN6@soap_s2LON

; 9292 :   {
; 9293 : #ifdef HAVE_STRTOLL
; 9294 :     char *r;
; 9295 : #ifndef WITH_NOIO
; 9296 : #ifndef WITH_LEAN
; 9297 :     soap_reset_errno;
; 9298 : #endif
; 9299 : #endif
; 9300 :     *p = strtoll(s, &r, 10);
; 9301 :     if ((s == r && (soap->mode & SOAP_XML_STRICT)) || *r
; 9302 : #ifndef WITH_NOIO
; 9303 : #ifndef WITH_LEAN
; 9304 :        || soap_errno == SOAP_ERANGE
; 9305 : #endif
; 9306 : #endif
; 9307 :      )
; 9308 : #else
; 9309 : # ifdef HAVE_SSCANF
; 9310 :     if (sscanf(s, SOAP_LONG_FORMAT, p) != 1)

	push	ecx
	push	OFFSET ??_C@_05LLAMLEHD@?$CFI64d?$AA@
	push	eax
	call	_sscanf
	add	esp, 12					; 0000000cH
	cmp	eax, 1
	je	SHORT $LN6@soap_s2LON

; 9311 : # endif
; 9312 : #endif
; 9313 :       soap->error = SOAP_TYPE;

	mov	DWORD PTR [esi+90460], 4
$LN6@soap_s2LON:

; 9314 :   }
; 9315 :   return soap->error;

	mov	eax, DWORD PTR [esi+90460]

; 9316 : }

	ret	0
_soap_s2LONG64 ENDP
_TEXT	ENDS
PUBLIC	_soap_LONG642s
; Function compile flags: /Ogtpy
_TEXT	SEGMENT
_n$ = 8							; size = 8
_soap_LONG642s PROC
; _soap$ = eax

; 9267 : { sprintf(soap->tmpbuf, SOAP_LONG_FORMAT, n);

	push	ebp
	mov	ebp, esp
	and	esp, -8					; fffffff8H
	push	ecx
	mov	ecx, DWORD PTR _n$[ebp]
	push	esi
	mov	esi, eax
	mov	eax, DWORD PTR _n$[ebp+4]
	push	eax
	push	ecx
	add	esi, 79028				; 000134b4H
	push	OFFSET ??_C@_05LLAMLEHD@?$CFI64d?$AA@
	push	esi
	call	_sprintf
	add	esp, 16					; 00000010H

; 9268 :   return soap->tmpbuf;

	mov	eax, esi

; 9269 : }

	pop	esi
	mov	esp, ebp
	pop	ebp
	ret	0
_soap_LONG642s ENDP
_TEXT	ENDS
PUBLIC	_soap_s2long
; Function compile flags: /Ogtpy
_TEXT	SEGMENT
_r$81880 = -4						; size = 4
_p$ = 8							; size = 4
_soap_s2long PROC
; _soap$ = edi
; _s$ = esi

; 9208 : { if (s)

	push	ecx
	test	esi, esi
	je	SHORT $LN8@soap_s2lon

; 9209 :   { char *r;
; 9210 : #ifndef WITH_NOIO
; 9211 : #ifndef WITH_LEAN
; 9212 :     soap_reset_errno;

	push	0
	call	DWORD PTR __imp__SetLastError@4

; 9213 : #endif
; 9214 : #endif
; 9215 :     *p = soap_strtol(s, &r, 10);

	push	10					; 0000000aH
	lea	eax, DWORD PTR _r$81880[esp+8]
	push	eax
	push	esi
	call	_strtol
	mov	ecx, DWORD PTR _p$[esp+12]
	mov	DWORD PTR [ecx], eax

; 9216 :     if ((s == r && (soap->mode & SOAP_XML_STRICT)) || *r
; 9217 : #ifndef WITH_NOIO
; 9218 : #ifndef WITH_LEAN
; 9219 :      || soap_errno == SOAP_ERANGE
; 9220 : #endif
; 9221 : #endif
; 9222 :    )

	mov	eax, DWORD PTR _r$81880[esp+16]
	add	esp, 12					; 0000000cH
	cmp	esi, eax
	jne	SHORT $LN1@soap_s2lon
	test	DWORD PTR [edi+8], 4096			; 00001000H
	jne	SHORT $LN2@soap_s2lon
$LN1@soap_s2lon:
	cmp	BYTE PTR [eax], 0
	jne	SHORT $LN2@soap_s2lon
	call	DWORD PTR __imp__GetLastError@0
	cmp	eax, 34					; 00000022H
	jne	SHORT $LN8@soap_s2lon
$LN2@soap_s2lon:

; 9223 :       soap->error = SOAP_TYPE;

	mov	DWORD PTR [edi+90460], 4
$LN8@soap_s2lon:

; 9224 :   }
; 9225 :   return soap->error;

	mov	eax, DWORD PTR [edi+90460]

; 9226 : }

	pop	ecx
	ret	0
_soap_s2long ENDP
_TEXT	ENDS
PUBLIC	_soap_long2s
; Function compile flags: /Ogtpy
_TEXT	SEGMENT
_soap_long2s PROC
; _soap$ = ecx
; _n$ = eax

; 9184 : { sprintf(soap->tmpbuf, "%ld", n);

	push	esi
	push	eax
	mov	esi, ecx
	add	esi, 79028				; 000134b4H
	push	OFFSET ??_C@_03JALODAI@?$CFld?$AA@
	push	esi
	call	_sprintf
	add	esp, 12					; 0000000cH

; 9185 :   return soap->tmpbuf;

	mov	eax, esi
	pop	esi

; 9186 : }

	ret	0
_soap_long2s ENDP
_TEXT	ENDS
PUBLIC	_soap_s2int
; Function compile flags: /Ogtpy
_TEXT	SEGMENT
_r$81833 = -4						; size = 4
_p$ = 8							; size = 4
_soap_s2int PROC
; _soap$ = edi
; _s$ = esi

; 9125 : { if (s)

	push	ecx
	test	esi, esi
	je	SHORT $LN8@soap_s2int

; 9126 :   { char *r;
; 9127 : #ifndef WITH_NOIO
; 9128 : #ifndef WITH_LEAN
; 9129 :     soap_reset_errno;

	push	0
	call	DWORD PTR __imp__SetLastError@4

; 9130 : #endif
; 9131 : #endif
; 9132 :     *p = (int)soap_strtol(s, &r, 10);

	push	10					; 0000000aH
	lea	eax, DWORD PTR _r$81833[esp+8]
	push	eax
	push	esi
	call	_strtol
	mov	ecx, DWORD PTR _p$[esp+12]
	mov	DWORD PTR [ecx], eax

; 9133 :     if ((s == r && (soap->mode & SOAP_XML_STRICT)) || *r
; 9134 : #ifndef WITH_NOIO
; 9135 : #ifndef WITH_LEAN
; 9136 :      || soap_errno == SOAP_ERANGE
; 9137 : #endif
; 9138 : #endif
; 9139 :    )

	mov	eax, DWORD PTR _r$81833[esp+16]
	add	esp, 12					; 0000000cH
	cmp	esi, eax
	jne	SHORT $LN1@soap_s2int
	test	DWORD PTR [edi+8], 4096			; 00001000H
	jne	SHORT $LN2@soap_s2int
$LN1@soap_s2int:
	cmp	BYTE PTR [eax], 0
	jne	SHORT $LN2@soap_s2int
	call	DWORD PTR __imp__GetLastError@0
	cmp	eax, 34					; 00000022H
	jne	SHORT $LN8@soap_s2int
$LN2@soap_s2int:

; 9140 :       soap->error = SOAP_TYPE;

	mov	DWORD PTR [edi+90460], 4
$LN8@soap_s2int:

; 9141 :   }
; 9142 :   return soap->error;

	mov	eax, DWORD PTR [edi+90460]

; 9143 : }

	pop	ecx
	ret	0
_soap_s2int ENDP
_TEXT	ENDS
PUBLIC	_soap_int2s
; Function compile flags: /Ogtpy
_TEXT	SEGMENT
_soap_int2s PROC
; _soap$ = ecx
; _n$ = eax

; 9102 : { return soap_long2s(soap, (long)n);

	push	esi
	push	eax
	mov	esi, ecx
	add	esi, 79028				; 000134b4H
	push	OFFSET ??_C@_03JALODAI@?$CFld?$AA@
	push	esi
	call	_sprintf
	add	esp, 12					; 0000000cH
	mov	eax, esi
	pop	esi

; 9103 : }

	ret	0
_soap_int2s ENDP
_TEXT	ENDS
PUBLIC	_soap_revert
; Function compile flags: /Ogtpy
_TEXT	SEGMENT
_soap_revert PROC
; _soap$ = eax

; 8302 : { if (!soap->peeked)

	cmp	WORD PTR [eax+87308], 0
	jne	SHORT $LN1@soap_rever

; 8303 :   { soap->peeked = 1;
; 8304 :     if (soap->body)

	cmp	WORD PTR [eax+12442], 0
	mov	ecx, 1
	mov	WORD PTR [eax+87308], cx
	je	SHORT $LN1@soap_rever

; 8305 :       soap->level--;

	dec	DWORD PTR [eax+12444]
$LN1@soap_rever:

; 8306 :   }
; 8307 :   DBGLOG(TEST, SOAP_MESSAGE(fdebug, "Reverting last element (level=%u)\n", soap->level));
; 8308 : }

	ret	0
_soap_revert ENDP
_TEXT	ENDS
PUBLIC	_soap_retry
; Function compile flags: /Ogtpy
_TEXT	SEGMENT
_soap_retry PROC
; _soap$ = eax

; 8292 :   soap_revert(soap);

	cmp	WORD PTR [eax+87308], 0
	mov	DWORD PTR [eax+90460], 0
	jne	SHORT $LN3@soap_retry
	cmp	WORD PTR [eax+12442], 0
	mov	ecx, 1
	mov	WORD PTR [eax+87308], cx
	je	SHORT $LN3@soap_retry
	dec	DWORD PTR [eax+12444]
$LN3@soap_retry:

; 8293 : }

	ret	0
_soap_retry ENDP
_TEXT	ENDS
PUBLIC	_soap_append_lab
EXTRN	_memcpy:PROC
; Function compile flags: /Ogtpy
_TEXT	SEGMENT
_s$ = 8							; size = 4
_n$ = 12						; size = 4
_soap_append_lab PROC
; _soap$ = esi

; 7885 : { if (soap->labidx + n >= soap->lablen)

	mov	eax, DWORD PTR [esi+12464]
	push	ebx
	mov	ebx, DWORD PTR _n$[esp]
	lea	ecx, DWORD PTR [ebx+eax]
	mov	eax, DWORD PTR [esi+12460]
	push	ebp
	mov	ebp, DWORD PTR _s$[esp+4]
	push	edi
	cmp	ecx, eax
	jb	$LN13@soap_appen

; 7886 :   { register char *t = soap->labbuf;

	mov	edi, DWORD PTR [esi+12456]

; 7887 :     DBGLOG(TEST, SOAP_MESSAGE(fdebug, "Enlarging look-aside buffer to append data, old size=%lu", (unsigned long)soap->lablen));
; 7888 :     if (soap->lablen == 0)

	test	eax, eax
	jne	SHORT $LN11@soap_appen

; 7889 :       soap->lablen = SOAP_LABLEN;

	mov	DWORD PTR [esi+12460], 256		; 00000100H
$LN11@soap_appen:

; 7890 :     while (soap->labidx + n >= soap->lablen)

	cmp	ecx, DWORD PTR [esi+12460]
	jb	SHORT $LN5@soap_appen
	npad	2
$LL6@soap_appen:

; 7891 :       soap->lablen <<= 1;

	shl	DWORD PTR [esi+12460], 1
	mov	ecx, DWORD PTR [esi+12464]
	add	ecx, ebx
	cmp	ecx, DWORD PTR [esi+12460]
	jae	SHORT $LL6@soap_appen
$LN5@soap_appen:

; 7892 :     DBGLOG(TEST, SOAP_MESSAGE(fdebug, ", new size=%lu\n", (unsigned long)soap->lablen));
; 7893 :     soap->labbuf = (char*)SOAP_MALLOC(soap, soap->lablen);

	mov	edx, DWORD PTR [esi+12460]
	push	edx
	call	_malloc
	add	esp, 4
	mov	DWORD PTR [esi+12456], eax

; 7894 :     if (!soap->labbuf)

	test	eax, eax
	jne	SHORT $LN4@soap_appen

; 7895 :     { if (t)

	test	edi, edi
	je	SHORT $LN3@soap_appen

; 7896 :         SOAP_FREE(soap, t);

	push	edi
	call	_free
	add	esp, 4
$LN3@soap_appen:
	pop	edi

; 7897 :       return soap->error = SOAP_EOM;

	mov	eax, 20					; 00000014H
	pop	ebp
	mov	DWORD PTR [esi+90460], eax
	pop	ebx

; 7909 : }

	ret	0
$LN4@soap_appen:

; 7898 :     }
; 7899 :     if (t)

	test	edi, edi
	je	SHORT $LN13@soap_appen

; 7900 :     { memcpy(soap->labbuf, t, soap->labidx);

	mov	ecx, DWORD PTR [esi+12464]
	push	ecx
	push	edi
	push	eax
	call	_memcpy

; 7901 :       SOAP_FREE(soap, t);

	push	edi
	call	_free
	add	esp, 16					; 00000010H
$LN13@soap_appen:

; 7902 :     }
; 7903 :   }
; 7904 :   if (s)

	test	ebp, ebp
	je	SHORT $LN1@soap_appen

; 7905 :   { memcpy(soap->labbuf + soap->labidx, s, n);

	mov	edx, DWORD PTR [esi+12456]
	add	edx, DWORD PTR [esi+12464]
	push	ebx
	push	ebp
	push	edx
	call	_memcpy
	add	esp, 12					; 0000000cH

; 7906 :     soap->labidx += n;

	add	DWORD PTR [esi+12464], ebx
$LN1@soap_appen:
	pop	edi
	pop	ebp

; 7907 :   }
; 7908 :   return SOAP_OK;

	xor	eax, eax
	pop	ebx

; 7909 : }

	ret	0
_soap_append_lab ENDP
_TEXT	ENDS
PUBLIC	_soap_store_lab
; Function compile flags: /Ogtpy
_TEXT	SEGMENT
_soap$ = 8						; size = 4
_soap_store_lab PROC
; _s$ = ecx
; _n$ = eax

; 7872 : { soap->labidx = 0;

	push	esi
	mov	esi, DWORD PTR _soap$[esp]

; 7873 :   return soap_append_lab(soap, s, n);

	push	eax
	push	ecx
	mov	DWORD PTR [esi+12464], 0
	call	_soap_append_lab
	add	esp, 8
	pop	esi

; 7874 : }

	ret	0
_soap_store_lab ENDP
_TEXT	ENDS
PUBLIC	_soap_clr_attr
; Function compile flags: /Ogtpy
_TEXT	SEGMENT
_soap_clr_attr PROC
; _soap$ = eax

; 7788 : { register struct soap_attribute *tp;

	push	esi
	mov	esi, eax

; 7789 : #ifndef WITH_LEAN
; 7790 :   if ((soap->mode & SOAP_XML_CANONICAL))

	test	DWORD PTR [esi+8], 16384		; 00004000H
	je	SHORT $LN8@soap_clr_a

; 7791 :   { while (soap->attributes)

	cmp	DWORD PTR [esi+87292], 0
	je	SHORT $LN1@soap_clr_a
	push	edi
	npad	10
$LL7@soap_clr_a:

; 7792 :     { tp = soap->attributes->next;

	mov	eax, DWORD PTR [esi+87292]
	mov	edi, DWORD PTR [eax]

; 7793 :       if (soap->attributes->value)

	mov	eax, DWORD PTR [eax+4]
	test	eax, eax
	je	SHORT $LN5@soap_clr_a

; 7794 :         SOAP_FREE(soap, soap->attributes->value);

	push	eax
	call	_free
	add	esp, 4
$LN5@soap_clr_a:

; 7795 :       SOAP_FREE(soap, soap->attributes);

	mov	eax, DWORD PTR [esi+87292]
	push	eax
	call	_free
	add	esp, 4

; 7796 :       soap->attributes = tp;

	mov	DWORD PTR [esi+87292], edi
	test	edi, edi
	jne	SHORT $LL7@soap_clr_a
	pop	edi
	pop	esi

; 7803 :   }
; 7804 : }

	ret	0
$LN8@soap_clr_a:

; 7797 :     }
; 7798 :   }
; 7799 :   else
; 7800 : #endif
; 7801 :   { for (tp = soap->attributes; tp; tp = tp->next)

	mov	esi, DWORD PTR [esi+87292]
	test	esi, esi
	je	SHORT $LN1@soap_clr_a
	npad	2
$LL3@soap_clr_a:

; 7802 :       tp->visible = 0;

	xor	ecx, ecx
	mov	WORD PTR [esi+16], cx
	mov	esi, DWORD PTR [esi]
	test	esi, esi
	jne	SHORT $LL3@soap_clr_a
$LN1@soap_clr_a:
	pop	esi

; 7803 :   }
; 7804 : }

	ret	0
_soap_clr_attr ENDP
_TEXT	ENDS
PUBLIC	_soap_set_attr
; Function compile flags: /Ogtpy
_TEXT	SEGMENT
_soap$ = 8						; size = 4
_name$ = 12						; size = 4
_value$ = 16						; size = 4
_soap_set_attr PROC

; 7696 : { register struct soap_attribute *tp;

	push	edi
	mov	edi, DWORD PTR _name$[esp]

; 7697 :   if (*name == '-')

	cmp	BYTE PTR [edi], 45			; 0000002dH
	jne	SHORT $LN41@soap_set_a

; 7698 :     return SOAP_OK;

	xor	eax, eax
	pop	edi

; 7779 : }

	ret	0
$LN41@soap_set_a:
	push	ebx
	push	ebp
	push	esi

; 7699 :   DBGLOG(TEST, SOAP_MESSAGE(fdebug, "Set attribute %s='%s'\n", name, value?value:""));
; 7700 :   for (tp = soap->attributes; tp; tp = tp->next)

	mov	esi, DWORD PTR _soap$[esp+12]
	mov	ebx, DWORD PTR [esi+87292]
	add	esi, 87292				; 000154fcH
	xor	ebp, ebp
	cmp	ebx, ebp
	je	SHORT $LN58@soap_set_a
$LL40@soap_set_a:

; 7701 :   { if (!strcmp(tp->name, name))

	mov	ecx, edi
	lea	eax, DWORD PTR [ebx+18]
	npad	4
$LL59@soap_set_a:
	mov	dl, BYTE PTR [eax]
	cmp	dl, BYTE PTR [ecx]
	jne	SHORT $LN60@soap_set_a
	test	dl, dl
	je	SHORT $LN61@soap_set_a
	mov	dl, BYTE PTR [eax+1]
	cmp	dl, BYTE PTR [ecx+1]
	jne	SHORT $LN60@soap_set_a
	add	eax, 2
	add	ecx, 2
	test	dl, dl
	jne	SHORT $LL59@soap_set_a
$LN61@soap_set_a:
	xor	eax, eax
	jmp	SHORT $LN62@soap_set_a
$LN60@soap_set_a:
	sbb	eax, eax
	sbb	eax, -1
$LN62@soap_set_a:
	cmp	eax, ebp
	je	SHORT $LN52@soap_set_a
	mov	ebx, DWORD PTR [ebx]
	cmp	ebx, ebp
	jne	SHORT $LL40@soap_set_a

; 7702 :       break;
; 7703 :   }
; 7704 :   if (!tp)

	jmp	SHORT $LN58@soap_set_a
$LN52@soap_set_a:
	cmp	ebx, ebp
	jne	$LN36@soap_set_a
$LN58@soap_set_a:

; 7705 :   { DBGLOG(TEST, SOAP_MESSAGE(fdebug, "Allocate attribute %s\n", name));
; 7706 :     if (!(tp = (struct soap_attribute*)SOAP_MALLOC(soap, sizeof(struct soap_attribute) + strlen(name))))

	mov	eax, edi
	lea	edx, DWORD PTR [eax+1]
	npad	2
$LL63@soap_set_a:
	mov	cl, BYTE PTR [eax]
	inc	eax
	test	cl, cl
	jne	SHORT $LL63@soap_set_a
	sub	eax, edx
	add	eax, 20					; 00000014H
	push	eax
	call	_malloc
	mov	ebx, eax
	add	esp, 4
	cmp	ebx, ebp

; 7707 :       return soap->error = SOAP_EOM;

	je	$LN91@soap_set_a

; 7708 :     tp->ns = NULL;
; 7709 : #ifndef WITH_LEAN
; 7710 :     if (soap->mode & SOAP_XML_CANONICAL)

	mov	edx, DWORD PTR _soap$[esp+12]
	mov	DWORD PTR [ebx+12], ebp
	test	DWORD PTR [edx+8], 16384		; 00004000H
	je	$LN34@soap_set_a

; 7711 :     { struct soap_attribute **tpp = &soap->attributes;
; 7712 :       const char *s = strchr(name, ':');

	mov	eax, DWORD PTR _name$[esp+12]
	push	58					; 0000003aH
	push	eax
	mov	edi, esi
	call	_strchr

; 7713 :       DBGLOG(TEST, SOAP_MESSAGE(fdebug, "Inserting attribute %s for c14n\n", name))
; 7714 :       if (!strncmp(name, "xmlns", 5))

	mov	ecx, DWORD PTR _name$[esp+20]
	push	5
	push	OFFSET ??_C@_05PPEFOGKI@xmlns?$AA@
	push	ecx
	mov	ebp, eax
	call	_strncmp
	add	esp, 20					; 00000014H
	test	eax, eax

; 7715 :       { for (; *tpp; tpp = &(*tpp)->next)

	mov	eax, DWORD PTR [edi]
	jne	SHORT $LN33@soap_set_a
	test	eax, eax
	je	$LN12@soap_set_a
$LL32@soap_set_a:

; 7716 :           if (strncmp((*tpp)->name, "xmlns", 5) || strcmp((*tpp)->name + 5, name + 5) > 0)

	push	5
	add	eax, 18					; 00000012H
	push	OFFSET ??_C@_05PPEFOGKI@xmlns?$AA@
	push	eax
	call	_strncmp
	add	esp, 12					; 0000000cH
	test	eax, eax
	jne	$LN12@soap_set_a
	mov	esi, DWORD PTR [edi]
	mov	ecx, DWORD PTR _name$[esp+12]
	add	ecx, 5
	lea	eax, DWORD PTR [esi+23]
	npad	4
$LL64@soap_set_a:
	mov	dl, BYTE PTR [eax]
	cmp	dl, BYTE PTR [ecx]
	jne	SHORT $LN65@soap_set_a
	test	dl, dl
	je	SHORT $LN66@soap_set_a
	mov	dl, BYTE PTR [eax+1]
	cmp	dl, BYTE PTR [ecx+1]
	jne	SHORT $LN65@soap_set_a
	add	eax, 2
	add	ecx, 2
	test	dl, dl
	jne	SHORT $LL64@soap_set_a
$LN66@soap_set_a:
	xor	eax, eax
	jmp	SHORT $LN67@soap_set_a
$LN65@soap_set_a:
	sbb	eax, eax
	sbb	eax, -1
$LN67@soap_set_a:
	test	eax, eax
	jg	$LN12@soap_set_a
	mov	edi, esi
	mov	eax, DWORD PTR [edi]
	test	eax, eax
	jne	SHORT $LL32@soap_set_a

; 7734 :             break;
; 7735 :         }
; 7736 :       }
; 7737 :       tp->next = *tpp;

	mov	ecx, eax
	mov	DWORD PTR [ebx], ecx

; 7738 :       *tpp = tp;

	mov	DWORD PTR [edi], ebx

; 7739 :     }
; 7740 :     else

	mov	edi, DWORD PTR _name$[esp+12]
	xor	ebp, ebp
	jmp	$LN11@soap_set_a
$LN33@soap_set_a:

; 7717 :             break;
; 7718 :       }
; 7719 :       else if (!s)

	test	ebp, ebp
	jne	SHORT $LN26@soap_set_a

; 7720 :       { for (; *tpp; tpp = &(*tpp)->next)

	test	eax, eax
	je	$LN12@soap_set_a
$LL25@soap_set_a:

; 7721 :           if (strncmp((*tpp)->name, "xmlns", 5) && ((*tpp)->ns || strcmp((*tpp)->name, name) > 0))

	push	5
	add	eax, 18					; 00000012H
	push	OFFSET ??_C@_05PPEFOGKI@xmlns?$AA@
	push	eax
	call	_strncmp
	add	esp, 12					; 0000000cH
	test	eax, eax
	je	SHORT $LN24@soap_set_a
	mov	eax, DWORD PTR [edi]
	cmp	DWORD PTR [eax+12], 0
	jne	$LN12@soap_set_a
	mov	ecx, DWORD PTR _name$[esp+12]
	add	eax, 18					; 00000012H
	npad	4
$LL68@soap_set_a:
	mov	dl, BYTE PTR [eax]
	cmp	dl, BYTE PTR [ecx]
	jne	SHORT $LN69@soap_set_a
	test	dl, dl
	je	SHORT $LN70@soap_set_a
	mov	dl, BYTE PTR [eax+1]
	cmp	dl, BYTE PTR [ecx+1]
	jne	SHORT $LN69@soap_set_a
	add	eax, 2
	add	ecx, 2
	test	dl, dl
	jne	SHORT $LL68@soap_set_a
$LN70@soap_set_a:
	xor	eax, eax
	jmp	SHORT $LN71@soap_set_a
$LN69@soap_set_a:
	sbb	eax, eax
	sbb	eax, -1
$LN71@soap_set_a:
	test	eax, eax
	jg	$LN12@soap_set_a
$LN24@soap_set_a:

; 7720 :       { for (; *tpp; tpp = &(*tpp)->next)

	mov	edi, DWORD PTR [edi]
	mov	eax, DWORD PTR [edi]
	test	eax, eax
	jne	SHORT $LL25@soap_set_a

; 7734 :             break;
; 7735 :         }
; 7736 :       }
; 7737 :       tp->next = *tpp;

	mov	ecx, eax
	mov	DWORD PTR [ebx], ecx

; 7738 :       *tpp = tp;

	mov	DWORD PTR [edi], ebx

; 7739 :     }
; 7740 :     else

	mov	edi, DWORD PTR _name$[esp+12]
	xor	ebp, ebp
	jmp	$LN11@soap_set_a
$LN26@soap_set_a:

; 7722 :             break;
; 7723 :       }
; 7724 :       else
; 7725 :       { int k;
; 7726 :         for (; *tpp; tpp = &(*tpp)->next)

	test	eax, eax
	je	$LN12@soap_set_a
	npad	2
$LL19@soap_set_a:

; 7727 :         { if (!strncmp((*tpp)->name, "xmlns:", 6) && !strncmp((*tpp)->name + 6, name, s - name) && !(*tpp)->name[6 + s - name])

	push	6
	add	eax, 18					; 00000012H
	push	OFFSET ??_C@_06PNFLLAEF@xmlns?3?$AA@
	push	eax
	call	_strncmp
	add	esp, 12					; 0000000cH
	test	eax, eax
	jne	SHORT $LN16@soap_set_a
	mov	esi, DWORD PTR _name$[esp+12]
	mov	eax, DWORD PTR [edi]
	mov	edx, ebp
	sub	edx, esi
	push	edx
	add	eax, 24					; 00000018H
	push	esi
	push	eax
	call	_strncmp
	add	esp, 12					; 0000000cH
	test	eax, eax
	jne	SHORT $LN16@soap_set_a
	mov	eax, DWORD PTR [edi]
	mov	ecx, eax
	sub	ecx, esi
	cmp	BYTE PTR [ecx+ebp+24], 0
	jne	SHORT $LN16@soap_set_a

; 7728 :           { if (!tp->ns)

	cmp	DWORD PTR [ebx+12], 0
	jne	$LN18@soap_set_a

; 7729 :             { DBGLOG(TEST, SOAP_MESSAGE(fdebug, "Canonicalization: prefix %s=%p (%s)\n", name, (*tpp)->ns, (*tpp)->ns));
; 7730 :               tp->ns = (*tpp)->ns;

	mov	edx, DWORD PTR [eax+12]
	mov	DWORD PTR [ebx+12], edx

; 7731 :             }
; 7732 :           }

	jmp	$LN18@soap_set_a
$LN16@soap_set_a:

; 7733 :           else if (strncmp((*tpp)->name, "xmlns", 5) && (*tpp)->ns && tp->ns && ((k = strcmp((*tpp)->ns, tp->ns)) > 0 || (!k && strcmp((*tpp)->name, name) > 0)))

	mov	eax, DWORD PTR [edi]
	push	5
	add	eax, 18					; 00000012H
	push	OFFSET ??_C@_05PPEFOGKI@xmlns?$AA@
	push	eax
	call	_strncmp
	add	esp, 12					; 0000000cH
	test	eax, eax
	je	$LN18@soap_set_a
	mov	esi, DWORD PTR [edi]
	mov	eax, DWORD PTR [esi+12]
	test	eax, eax
	je	SHORT $LN18@soap_set_a
	mov	ecx, DWORD PTR [ebx+12]
	test	ecx, ecx
	je	SHORT $LN18@soap_set_a
$LL72@soap_set_a:
	mov	dl, BYTE PTR [eax]
	cmp	dl, BYTE PTR [ecx]
	jne	SHORT $LN73@soap_set_a
	test	dl, dl
	je	SHORT $LN74@soap_set_a
	mov	dl, BYTE PTR [eax+1]
	cmp	dl, BYTE PTR [ecx+1]
	jne	SHORT $LN73@soap_set_a
	add	eax, 2
	add	ecx, 2
	test	dl, dl
	jne	SHORT $LL72@soap_set_a
$LN74@soap_set_a:
	xor	eax, eax
	jmp	SHORT $LN75@soap_set_a
$LN73@soap_set_a:
	sbb	eax, eax
	sbb	eax, -1
$LN75@soap_set_a:
	test	eax, eax
	jg	SHORT $LN12@soap_set_a
	jne	SHORT $LN18@soap_set_a
	mov	ecx, DWORD PTR _name$[esp+12]
	lea	eax, DWORD PTR [esi+18]
$LL76@soap_set_a:
	mov	dl, BYTE PTR [eax]
	cmp	dl, BYTE PTR [ecx]
	jne	SHORT $LN77@soap_set_a
	test	dl, dl
	je	SHORT $LN78@soap_set_a
	mov	dl, BYTE PTR [eax+1]
	cmp	dl, BYTE PTR [ecx+1]
	jne	SHORT $LN77@soap_set_a
	add	eax, 2
	add	ecx, 2
	test	dl, dl
	jne	SHORT $LL76@soap_set_a
$LN78@soap_set_a:
	xor	eax, eax
	jmp	SHORT $LN79@soap_set_a
$LN77@soap_set_a:
	sbb	eax, eax
	sbb	eax, -1
$LN79@soap_set_a:
	test	eax, eax
	jg	SHORT $LN12@soap_set_a
$LN18@soap_set_a:

; 7722 :             break;
; 7723 :       }
; 7724 :       else
; 7725 :       { int k;
; 7726 :         for (; *tpp; tpp = &(*tpp)->next)

	mov	edi, DWORD PTR [edi]
	mov	eax, DWORD PTR [edi]
	test	eax, eax
	jne	$LL19@soap_set_a
$LN12@soap_set_a:

; 7734 :             break;
; 7735 :         }
; 7736 :       }
; 7737 :       tp->next = *tpp;

	mov	ecx, DWORD PTR [edi]
	mov	DWORD PTR [ebx], ecx

; 7738 :       *tpp = tp;

	mov	DWORD PTR [edi], ebx

; 7739 :     }
; 7740 :     else

	mov	edi, DWORD PTR _name$[esp+12]
	xor	ebp, ebp
	jmp	SHORT $LN11@soap_set_a
$LN34@soap_set_a:

; 7741 : #endif
; 7742 :     { tp->next = soap->attributes;

	mov	edx, DWORD PTR [esi]
	mov	DWORD PTR [ebx], edx

; 7743 :       soap->attributes = tp;

	mov	DWORD PTR [esi], ebx
$LN11@soap_set_a:

; 7744 :     }
; 7745 :     strcpy(tp->name, name);

	lea	edx, DWORD PTR [ebx+18]
	mov	eax, edi
	sub	edx, edi
$LL44@soap_set_a:
	mov	cl, BYTE PTR [eax]
	mov	BYTE PTR [edx+eax], cl
	inc	eax
	test	cl, cl
	jne	SHORT $LL44@soap_set_a

; 7746 :     tp->value = NULL;

	jmp	SHORT $LN90@soap_set_a
$LN36@soap_set_a:

; 7747 :   }
; 7748 :   else if (tp->visible)

	cmp	WORD PTR [ebx+16], bp

; 7749 :   { return SOAP_OK;

	jne	$LN1@soap_set_a

; 7750 :   }
; 7751 :   else if (value && tp->value && tp->size <= strlen(value))

	mov	eax, DWORD PTR _value$[esp+12]
	cmp	eax, ebp
	je	$LN6@soap_set_a
	mov	esi, DWORD PTR [ebx+4]
	cmp	esi, ebp
	je	SHORT $LN86@soap_set_a
	lea	edx, DWORD PTR [eax+1]
$LL80@soap_set_a:
	mov	cl, BYTE PTR [eax]
	inc	eax
	test	cl, cl
	jne	SHORT $LL80@soap_set_a
	sub	eax, edx
	cmp	DWORD PTR [ebx+8], eax
	ja	SHORT $LN86@soap_set_a

; 7752 :   { DBGLOG(TEST, SOAP_MESSAGE(fdebug, "Free attribute value of %s (free %p)\n", name, tp->value));
; 7753 :     SOAP_FREE(soap, tp->value);

	push	esi
	call	_free
	add	esp, 4

; 7755 :     tp->ns = NULL;

	mov	DWORD PTR [ebx+12], ebp
$LN90@soap_set_a:

; 7754 :     tp->value = NULL;

	mov	DWORD PTR [ebx+4], ebp
$LN86@soap_set_a:

; 7756 :   }
; 7757 :   if (value)

	cmp	DWORD PTR _value$[esp+12], ebp
	je	$LN6@soap_set_a

; 7758 :   { if (!tp->value)

	cmp	DWORD PTR [ebx+4], ebp
	jne	SHORT $LN4@soap_set_a

; 7759 :     { tp->size = strlen(value) + 1;

	mov	eax, DWORD PTR _value$[esp+12]
	lea	edx, DWORD PTR [eax+1]
$LL81@soap_set_a:
	mov	cl, BYTE PTR [eax]
	inc	eax
	test	cl, cl
	jne	SHORT $LL81@soap_set_a
	sub	eax, edx
	inc	eax

; 7760 :       if (!(tp->value = (char*)SOAP_MALLOC(soap, tp->size)))

	push	eax
	mov	DWORD PTR [ebx+8], eax
	call	_malloc
	add	esp, 4
	mov	DWORD PTR [ebx+4], eax
	cmp	eax, ebp
	jne	SHORT $LN4@soap_set_a
$LN91@soap_set_a:

; 7761 :         return soap->error = SOAP_EOM;

	mov	ecx, DWORD PTR _soap$[esp+12]
	pop	esi
	pop	ebp
	mov	eax, 20					; 00000014H
	pop	ebx
	mov	DWORD PTR [ecx+90460], eax
	pop	edi

; 7779 : }

	ret	0
$LN4@soap_set_a:

; 7762 :       DBGLOG(TEST, SOAP_MESSAGE(fdebug, "Allocate attribute value for %s (%p)\n", tp->name, tp->value));
; 7763 :     }
; 7764 :     strcpy(tp->value, value);

	mov	esi, DWORD PTR _value$[esp+12]
	mov	edx, DWORD PTR [ebx+4]
	mov	ecx, esi
	npad	3
$LL45@soap_set_a:
	mov	al, BYTE PTR [ecx]
	mov	BYTE PTR [edx], al
	inc	ecx
	inc	edx
	test	al, al
	jne	SHORT $LL45@soap_set_a

; 7765 :     if (!strncmp(tp->name, "xmlns:", 6))

	push	6
	lea	edx, DWORD PTR [ebx+18]
	push	OFFSET ??_C@_06PNFLLAEF@xmlns?3?$AA@
	push	edx
	call	_strncmp
	add	esp, 12					; 0000000cH
	test	eax, eax
	jne	SHORT $LN3@soap_set_a

; 7766 :       tp->ns = tp->value;

	mov	eax, DWORD PTR [ebx+4]
	mov	DWORD PTR [ebx+12], eax
$LN3@soap_set_a:

; 7767 :     tp->visible = 2;

	mov	ecx, 2
	mov	WORD PTR [ebx+16], cx

; 7768 : #ifndef WITH_LEAN
; 7769 :     if (!strcmp(name, "wsu:Id"))

	mov	ecx, OFFSET ??_C@_06BGJENONN@wsu?3Id?$AA@
	mov	eax, edi
$LL82@soap_set_a:
	mov	dl, BYTE PTR [eax]
	cmp	dl, BYTE PTR [ecx]
	jne	SHORT $LN83@soap_set_a
	test	dl, dl
	je	SHORT $LN84@soap_set_a
	mov	dl, BYTE PTR [eax+1]
	cmp	dl, BYTE PTR [ecx+1]
	jne	SHORT $LN83@soap_set_a
	add	eax, 2
	add	ecx, 2
	test	dl, dl
	jne	SHORT $LL82@soap_set_a
$LN84@soap_set_a:
	xor	eax, eax
	jmp	SHORT $LN85@soap_set_a
$LN83@soap_set_a:
	sbb	eax, eax
	sbb	eax, -1
$LN85@soap_set_a:
	cmp	eax, ebp
	jne	SHORT $LN1@soap_set_a

; 7770 :     { soap->part = SOAP_BEGIN_SECURITY;

	mov	edi, DWORD PTR _soap$[esp+12]

; 7771 :       strncpy(soap->id, value, sizeof(soap->id));

	push	1024					; 00000400H
	lea	eax, DWORD PTR [edi+81076]
	mov	edx, 10					; 0000000aH
	push	esi
	push	eax
	mov	WORD PTR [edi+87304], dx
	call	_strncpy
	add	esp, 12					; 0000000cH
	pop	esi
	pop	ebp
	pop	ebx

; 7772 :       soap->id[sizeof(soap->id)-1] = '\0';

	mov	BYTE PTR [edi+82099], 0

; 7778 :   return SOAP_OK;

	xor	eax, eax
	pop	edi

; 7779 : }

	ret	0
$LN6@soap_set_a:

; 7773 :     }
; 7774 : #endif
; 7775 :   }
; 7776 :   else
; 7777 :     tp->visible = 1;

	mov	ecx, 1
	mov	WORD PTR [ebx+16], cx
$LN1@soap_set_a:
	pop	esi
	pop	ebp
	pop	ebx

; 7778 :   return SOAP_OK;

	xor	eax, eax
	pop	edi

; 7779 : }

	ret	0
_soap_set_attr ENDP
_TEXT	ENDS
PUBLIC	_soap_lookup_ns
; Function compile flags: /Ogtpy
_TEXT	SEGMENT
_tag$ = 8						; size = 4
_soap_lookup_ns PROC
; _soap$ = eax
; _n$ = edi

; 6849 : { register struct soap_nlist *np;

	push	ebx
	mov	ebx, DWORD PTR _tag$[esp]
	push	esi

; 6850 :   for (np = soap->nlist; np; np = np->next)

	mov	esi, DWORD PTR [eax+88]
	test	esi, esi
	je	SHORT $LN2@soap_looku
	npad	3
$LL4@soap_looku:

; 6851 :   { if (!strncmp(np->id, tag, n) && !np->id[n])

	push	edi
	lea	ecx, DWORD PTR [esi+16]
	push	ebx
	push	ecx
	call	_strncmp
	add	esp, 12					; 0000000cH
	test	eax, eax
	jne	SHORT $LN3@soap_looku
	cmp	BYTE PTR [esi+edi+16], al
	je	SHORT $LN8@soap_looku
$LN3@soap_looku:

; 6850 :   for (np = soap->nlist; np; np = np->next)

	mov	esi, DWORD PTR [esi]
	test	esi, esi
	jne	SHORT $LL4@soap_looku
$LN2@soap_looku:
	pop	esi

; 6853 :   }
; 6854 :   return NULL;

	xor	eax, eax
	pop	ebx

; 6855 : }

	ret	0
$LN8@soap_looku:

; 6852 :       return np;

	mov	eax, esi
	pop	esi
	pop	ebx

; 6855 : }

	ret	0
_soap_lookup_ns ENDP
_TEXT	ENDS
PUBLIC	_soap_strsearch
; Function compile flags: /Ogtpy
_TEXT	SEGMENT
_little$ = 8						; size = 4
_soap_strsearch PROC
; _big$ = eax

; 6828 : { size_t n = strlen(little);

	push	ebx
	mov	ebx, DWORD PTR _little$[esp]
	push	esi
	mov	esi, eax
	mov	eax, ebx
	push	edi
	lea	edx, DWORD PTR [eax+1]
	npad	2
$LL10@soap_strse:
	mov	cl, BYTE PTR [eax]
	inc	eax
	test	cl, cl
	jne	SHORT $LL10@soap_strse
	sub	eax, edx
	mov	edi, eax

; 6829 :   const char *s = big;
; 6830 :   while (s)

	test	esi, esi
	je	SHORT $LN4@soap_strse
	npad	1
$LL5@soap_strse:

; 6831 :   { if (!strncmp(s, little, n) && (s[n] == '\0' || s[n] == ' '))

	push	edi
	push	ebx
	push	esi
	call	_strncmp
	add	esp, 12					; 0000000cH
	test	eax, eax
	jne	SHORT $LN3@soap_strse
	mov	al, BYTE PTR [esi+edi]
	test	al, al
	je	SHORT $LN2@soap_strse
	cmp	al, 32					; 00000020H
	je	SHORT $LN2@soap_strse
$LN3@soap_strse:

; 6833 :     s = strchr(s, ' ');

	push	32					; 00000020H
	push	esi
	call	_strchr
	mov	esi, eax
	add	esp, 8

; 6834 :     if (s)

	test	esi, esi
	je	SHORT $LN4@soap_strse

; 6835 :       s++;

	add	esi, 1

; 6829 :   const char *s = big;
; 6830 :   while (s)

	jne	SHORT $LL5@soap_strse
$LN4@soap_strse:
	pop	edi
	pop	esi

; 6836 :   }
; 6837 :   return NULL;

	xor	eax, eax
	pop	ebx

; 6838 : }

	ret	0
$LN2@soap_strse:
	pop	edi

; 6832 :       return s;

	mov	eax, esi
	pop	esi
	pop	ebx

; 6838 : }

	ret	0
_soap_strsearch ENDP
_TEXT	ENDS
PUBLIC	_soap_set_local_namespaces
; Function compile flags: /Ogtpy
_TEXT	SEGMENT
_soap$ = 8						; size = 4
_soap_set_local_namespaces PROC

; 6799 : { if (soap->namespaces && !soap->local_namespaces)

	push	ebx
	mov	ebx, DWORD PTR _soap$[esp]
	mov	eax, DWORD PTR [ebx+80]
	test	eax, eax
	je	$LN4@soap_set_l
	cmp	DWORD PTR [ebx+84], 0
	jne	$LN4@soap_set_l

; 6800 :   { register const struct Namespace *ns1;
; 6801 :     register struct Namespace *ns2;
; 6802 :     register size_t n = 1;
; 6803 :     for (ns1 = soap->namespaces; ns1->id; ns1++)

	cmp	DWORD PTR [eax], 0
	mov	ecx, 1
	je	SHORT $LN5@soap_set_l
$LL7@soap_set_l:
	add	eax, 16					; 00000010H

; 6804 :       n++;

	inc	ecx
	cmp	DWORD PTR [eax], 0
	jne	SHORT $LL7@soap_set_l
$LN5@soap_set_l:
	push	esi

; 6805 :     n *= sizeof(struct Namespace);

	shl	ecx, 4
	mov	esi, ecx
	push	edi

; 6806 :     ns2 = (struct Namespace*)SOAP_MALLOC(soap, n);

	push	esi
	call	_malloc
	mov	edi, eax
	add	esp, 4

; 6807 :     if (ns2)

	test	edi, edi
	je	SHORT $LN17@soap_set_l

; 6808 :     { memcpy(ns2, soap->namespaces, n);

	mov	eax, DWORD PTR [ebx+80]
	push	esi
	push	eax
	push	edi
	call	_memcpy

; 6809 :       if (ns2[0].ns)

	mov	eax, DWORD PTR [edi+4]
	add	esp, 12					; 0000000cH
	test	eax, eax
	je	SHORT $LN1@soap_set_l

; 6810 :       { if (!strcmp(ns2[0].ns, soap_env1))

	mov	ecx, OFFSET _soap_env1
	npad	3
$LL13@soap_set_l:
	mov	dl, BYTE PTR [eax]
	cmp	dl, BYTE PTR [ecx]
	jne	SHORT $LN14@soap_set_l
	test	dl, dl
	je	SHORT $LN15@soap_set_l
	mov	dl, BYTE PTR [eax+1]
	cmp	dl, BYTE PTR [ecx+1]
	jne	SHORT $LN14@soap_set_l
	add	eax, 2
	add	ecx, 2
	test	dl, dl
	jne	SHORT $LL13@soap_set_l
$LN15@soap_set_l:
	xor	eax, eax
	jmp	SHORT $LN16@soap_set_l
$LN14@soap_set_l:
	sbb	eax, eax
	sbb	eax, -1
$LN16@soap_set_l:
	test	eax, eax
	jne	SHORT $LN2@soap_set_l

; 6814 :       }
; 6815 :       soap->local_namespaces = ns2;

	mov	DWORD PTR [ebx+84], edi
	pop	edi
	mov	ecx, 1
	pop	esi
	mov	WORD PTR [ebx+6], cx
	pop	ebx

; 6816 :     }
; 6817 :   }
; 6818 : }

	ret	0
$LN2@soap_set_l:

; 6811 :           soap->version = 1;
; 6812 :         else
; 6813 :           soap->version = 2;

	mov	edx, 2
	mov	WORD PTR [ebx+6], dx
$LN1@soap_set_l:

; 6814 :       }
; 6815 :       soap->local_namespaces = ns2;

	mov	DWORD PTR [ebx+84], edi
$LN17@soap_set_l:
	pop	edi
	pop	esi
$LN4@soap_set_l:
	pop	ebx

; 6816 :     }
; 6817 :   }
; 6818 : }

	ret	0
_soap_set_local_namespaces ENDP
_TEXT	ENDS
PUBLIC	_soap_copy_stream
; Function compile flags: /Ogtpy
_TEXT	SEGMENT
_soap_copy_stream PROC
; _copy$ = ecx
; _soap$ = eax

; 6392 : { copy->mode = soap->mode;

	mov	edx, DWORD PTR [eax+8]
	mov	DWORD PTR [ecx+8], edx

; 6393 :   copy->imode = soap->imode;

	mov	edx, DWORD PTR [eax+12]
	mov	DWORD PTR [ecx+12], edx

; 6394 :   copy->omode = soap->omode;

	mov	edx, DWORD PTR [eax+16]
	mov	DWORD PTR [ecx+16], edx

; 6395 :   copy->socket = soap->socket;

	mov	edx, DWORD PTR [eax+12408]
	mov	DWORD PTR [ecx+12408], edx

; 6396 :   copy->recv_timeout = soap->recv_timeout;

	mov	edx, DWORD PTR [eax+48]
	mov	DWORD PTR [ecx+48], edx

; 6397 :   copy->send_timeout = soap->send_timeout;

	mov	edx, DWORD PTR [eax+52]
	mov	DWORD PTR [ecx+52], edx

; 6398 : #if defined(__cplusplus) && !defined(WITH_LEAN)
; 6399 :   copy->os = soap->os;

	mov	edx, DWORD PTR [eax+12412]
	mov	DWORD PTR [ecx+12412], edx

; 6400 :   copy->is = soap->is;

	mov	edx, DWORD PTR [eax+12416]
	mov	DWORD PTR [ecx+12416], edx

; 6401 : #endif
; 6402 :   copy->sendfd = soap->sendfd;

	mov	edx, DWORD PTR [eax+12420]
	mov	DWORD PTR [ecx+12420], edx

; 6403 :   copy->recvfd = soap->recvfd;

	mov	edx, DWORD PTR [eax+12424]
	mov	DWORD PTR [ecx+12424], edx

; 6404 :   copy->bufidx = soap->bufidx;

	mov	edx, DWORD PTR [eax+12428]
	mov	DWORD PTR [ecx+12428], edx

; 6405 :   copy->buflen = soap->buflen;

	mov	edx, DWORD PTR [eax+12432]
	mov	DWORD PTR [ecx+12432], edx

; 6406 :   copy->ahead = soap->ahead;

	mov	edx, DWORD PTR [eax+12436]
	mov	DWORD PTR [ecx+12436], edx

; 6407 :   copy->cdata = soap->cdata;

	movzx	edx, WORD PTR [eax+12440]
	mov	WORD PTR [ecx+12440], dx

; 6408 :   copy->chunksize = soap->chunksize;

	mov	edx, DWORD PTR [eax+87312]
	mov	DWORD PTR [ecx+87312], edx

; 6409 :   copy->chunkbuflen = soap->chunkbuflen;

	mov	edx, DWORD PTR [eax+87316]
	mov	DWORD PTR [ecx+87316], edx

; 6410 :   copy->keep_alive = soap->keep_alive;

	movzx	edx, WORD PTR [eax+90412]
	mov	WORD PTR [ecx+90412], dx

; 6411 :   copy->tcp_keep_alive = soap->tcp_keep_alive;

	movzx	edx, WORD PTR [eax+90414]
	mov	WORD PTR [ecx+90414], dx

; 6412 :   copy->tcp_keep_idle = soap->tcp_keep_idle;

	mov	edx, DWORD PTR [eax+90416]
	mov	DWORD PTR [ecx+90416], edx

; 6413 :   copy->tcp_keep_intvl = soap->tcp_keep_intvl;

	mov	edx, DWORD PTR [eax+90420]
	mov	DWORD PTR [ecx+90420], edx

; 6414 :   copy->tcp_keep_cnt = soap->tcp_keep_cnt;

	mov	edx, DWORD PTR [eax+90424]
	mov	DWORD PTR [ecx+90424], edx

; 6415 :   copy->max_keep_alive = soap->max_keep_alive;

	mov	edx, DWORD PTR [eax+90428]
	mov	DWORD PTR [ecx+90428], edx

; 6416 : #ifndef WITH_NOIO
; 6417 :   copy->peer = soap->peer;

	movq	xmm0, QWORD PTR [eax+94692]
	movq	QWORD PTR [ecx+94692], xmm0
	movq	xmm0, QWORD PTR [eax+94700]
	movq	QWORD PTR [ecx+94700], xmm0

; 6418 :   copy->peerlen = soap->peerlen;

	mov	edx, DWORD PTR [eax+94708]

; 6419 : #endif
; 6420 : #ifdef WITH_OPENSSL
; 6421 :   copy->bio = soap->bio;
; 6422 :   copy->ssl = soap->ssl;
; 6423 :   copy->ctx = soap->ctx;
; 6424 : #endif
; 6425 : #ifdef WITH_ZLIB
; 6426 :   copy->zlib_state = soap->zlib_state;
; 6427 :   copy->zlib_in = soap->zlib_in;
; 6428 :   copy->zlib_out = soap->zlib_out;
; 6429 :   copy->d_stream = (z_stream*)SOAP_MALLOC(copy, sizeof(z_stream));
; 6430 :   memcpy(copy->d_stream, soap->d_stream, sizeof(z_stream));
; 6431 :   copy->z_crc = soap->z_crc;
; 6432 :   copy->z_ratio_in = soap->z_ratio_in;
; 6433 :   copy->z_ratio_out = soap->z_ratio_out;
; 6434 :   copy->z_buf = NULL;
; 6435 :   copy->z_buflen = soap->z_buflen;
; 6436 :   copy->z_level = soap->z_level;
; 6437 :   if (soap->z_buf && soap->zlib_state != SOAP_ZLIB_NONE)
; 6438 :   { copy->z_buf = (char*)SOAP_MALLOC(copy, SOAP_BUFLEN);
; 6439 :     memcpy(copy->z_buf, soap->z_buf, sizeof(soap->z_buf));
; 6440 :   }
; 6441 : #endif
; 6442 :   memcpy(copy->buf, soap->buf, sizeof(soap->buf));

	push	65536					; 00010000H
	add	eax, 12468				; 000030b4H
	mov	DWORD PTR [ecx+94708], edx
	push	eax
	add	ecx, 12468				; 000030b4H
	push	ecx
	call	_memcpy
	add	esp, 12					; 0000000cH

; 6443 : }

	ret	0
_soap_copy_stream ENDP
_TEXT	ENDS
PUBLIC	_soap_open_logfile
; Function compile flags: /Ogtpy
_TEXT	SEGMENT
_soap_open_logfile PROC
; _soap$ = edi
; _i$ = esi

; 6226 : { if (soap->logfile[i])

	mov	eax, DWORD PTR [edi+esi*4+90548]
	test	eax, eax
	je	SHORT $LN1@soap_open_

; 6227 :     soap->fdebug[i] = fopen(soap->logfile[i], i < 2 ? "ab" : "a");

	cmp	esi, 2
	mov	ecx, OFFSET ??_C@_02BOGAIONP@ab?$AA@
	jl	SHORT $LN5@soap_open_
	mov	ecx, OFFSET ??_C@_01MCMALHOG@a?$AA@
$LN5@soap_open_:
	push	ecx
	push	eax
	call	_fopen
	add	esp, 8
	mov	DWORD PTR [edi+esi*4+90560], eax
$LN1@soap_open_:

; 6228 : }

	ret	0
_soap_open_logfile ENDP
_TEXT	ENDS
PUBLIC	_soap_fcopy
; Function compile flags: /Ogtpy
_TEXT	SEGMENT
_soap$ = 8						; size = 4
_st$ = 12						; size = 4
_tt$ = 16						; size = 4
_p$ = 20						; size = 4
_len$ = 24						; size = 4
_q$ = 28						; size = 4
_n$ = 32						; size = 4
_soap_fcopy PROC

; 5917 :   memcpy(p, q, n);

	mov	eax, DWORD PTR _n$[esp-4]
	mov	ecx, DWORD PTR _q$[esp-4]
	mov	edx, DWORD PTR _p$[esp-4]
	push	eax
	push	ecx
	push	edx
	call	_memcpy
	add	esp, 12					; 0000000cH

; 5918 : }

	ret	0
_soap_fcopy ENDP
_TEXT	ENDS
PUBLIC	_soap_unlink
; Function compile flags: /Ogtpy
_TEXT	SEGMENT
_soap_unlink PROC
; _soap$ = esi
; _p$ = edx

; 5664 :   register struct soap_clist **cp;
; 5665 :   if (!soap || !p)

	test	esi, esi
	je	SHORT $LN9@soap_unlin
	test	edx, edx
	je	SHORT $LN9@soap_unlin

; 5666 :     return;
; 5667 :   for (q = (char**)&soap->alist; *q; q = *(char***)q)

	cmp	DWORD PTR [esi+100], 0
	lea	eax, DWORD PTR [esi+100]
	push	edi
	je	SHORT $LN6@soap_unlin
$LL8@soap_unlin:

; 5668 :   { if (p == (void*)(*q - *(size_t*)(*q + sizeof(void*))))

	mov	ecx, DWORD PTR [eax]
	mov	edi, ecx
	sub	edi, DWORD PTR [ecx+4]
	cmp	edx, edi
	je	SHORT $LN15@soap_unlin
	mov	eax, ecx
	cmp	DWORD PTR [eax], 0
	jne	SHORT $LL8@soap_unlin
$LN6@soap_unlin:

; 5670 :       DBGLOG(TEST, SOAP_MESSAGE(fdebug, "Unlinked data %p\n", p));
; 5671 : #ifdef SOAP_MEM_DEBUG
; 5672 :       soap_track_unlink(soap, p);
; 5673 : #endif
; 5674 :       return;
; 5675 :     }
; 5676 :   }
; 5677 :   for (cp = &soap->clist; *cp; cp = &(*cp)->next)

	cmp	DWORD PTR [esi+96], 0
	lea	eax, DWORD PTR [esi+96]
	je	SHORT $LN19@soap_unlin
	npad	3
$LL4@soap_unlin:

; 5678 :   { if (p == (*cp)->ptr)

	mov	ecx, DWORD PTR [eax]
	cmp	edx, DWORD PTR [ecx+4]
	je	SHORT $LN16@soap_unlin
	mov	eax, ecx
	cmp	DWORD PTR [eax], 0
	jne	SHORT $LL4@soap_unlin
	pop	edi

; 5683 :       return;
; 5684 :     }
; 5685 :   }
; 5686 : }

	ret	0
$LN15@soap_unlin:

; 5669 :     { *q = **(char***)q;

	mov	edx, DWORD PTR [ecx]
	mov	DWORD PTR [eax], edx
	pop	edi

; 5683 :       return;
; 5684 :     }
; 5685 :   }
; 5686 : }

	ret	0
$LN16@soap_unlin:

; 5679 :     { DBGLOG(TEST, SOAP_MESSAGE(fdebug, "Unlinked class instance %p\n", p));
; 5680 :       q = (char**)*cp;
; 5681 :       *cp = (*cp)->next;

	mov	edx, DWORD PTR [ecx]

; 5682 :       SOAP_FREE(soap, q);

	push	ecx
	mov	DWORD PTR [eax], edx
	call	_free
	add	esp, 4
$LN19@soap_unlin:
	pop	edi
$LN9@soap_unlin:

; 5683 :       return;
; 5684 :     }
; 5685 :   }
; 5686 : }

	ret	0
_soap_unlink ENDP
_TEXT	ENDS
PUBLIC	_soap_link
; Function compile flags: /Ogtpy
_TEXT	SEGMENT
_t$ = 8							; size = 4
_n$ = 12						; size = 4
_soap_link PROC
; _soap$ = esi

; 5645 :   if ((cp = (struct soap_clist*)SOAP_MALLOC(soap, sizeof(struct soap_clist))))

	push	20					; 00000014H
	call	_malloc
	add	esp, 4
	test	eax, eax
	je	SHORT $LN1@soap_link

; 5646 :   { cp->next = soap->clist;

	mov	ecx, DWORD PTR [esi+96]

; 5647 :     cp->type = t;

	mov	edx, DWORD PTR _t$[esp-4]
	mov	DWORD PTR [eax], ecx

; 5648 :     cp->size = n;

	mov	ecx, DWORD PTR _n$[esp-4]
	mov	DWORD PTR [eax+8], edx
	mov	DWORD PTR [eax+12], ecx

; 5649 :     cp->ptr = p;

	mov	DWORD PTR [eax+4], 0

; 5650 :     cp->fdelete = fdelete;

	mov	DWORD PTR [eax+16], OFFSET ?soap_fdelete@@YAHPAUsoap_clist@@@Z ; soap_fdelete

; 5651 :     soap->clist = cp;

	mov	DWORD PTR [esi+96], eax
$LN1@soap_link:

; 5652 :   }
; 5653 :   return cp;
; 5654 : }

	ret	0
_soap_link ENDP
_TEXT	ENDS
PUBLIC	_soap_delete
; Function compile flags: /Ogtpy
_TEXT	SEGMENT
_soap$ = 8						; size = 4
_soap_delete PROC
; _p$ = ecx

; 5598 : { register struct soap_clist **cp;

	push	ebx
	mov	ebx, DWORD PTR _soap$[esp]

; 5599 :   if (soap_check_state(soap))

	test	ebx, ebx
	je	SHORT $LN10@soap_delet
	movzx	eax, WORD PTR [ebx+4]
	cmp	ax, 1
	je	SHORT $LN11@soap_delet
	cmp	ax, 2
	jne	SHORT $LN10@soap_delet
$LN11@soap_delet:
	push	esi
	push	edi

; 5600 :     return;
; 5601 :   cp = &soap->clist;

	lea	esi, DWORD PTR [ebx+96]

; 5602 :   if (p)

	test	ecx, ecx
	je	SHORT $LN15@soap_delet

; 5603 :   { while (*cp)

	cmp	DWORD PTR [esi], 0
	je	SHORT $LN2@soap_delet
$LL8@soap_delet:

; 5604 :     { if (p == (*cp)->ptr)

	mov	eax, DWORD PTR [esi]
	cmp	ecx, DWORD PTR [eax+4]
	je	SHORT $LN16@soap_delet

; 5614 :         return;
; 5615 :       }
; 5616 :       cp = &(*cp)->next;

	mov	esi, eax
	cmp	DWORD PTR [esi], 0
	jne	SHORT $LL8@soap_delet

; 5604 :     { if (p == (*cp)->ptr)

	jmp	SHORT $LN2@soap_delet
$LN16@soap_delet:

; 5605 :       { register struct soap_clist *q = *cp;

	mov	edi, eax

; 5606 :         *cp = q->next;

	mov	eax, DWORD PTR [edi]
	mov	DWORD PTR [esi], eax

; 5607 :         if (q->fdelete(q))

	mov	ecx, DWORD PTR [edi+16]
	push	edi
	call	ecx

; 5608 :         { DBGLOG(TEST, SOAP_MESSAGE(fdebug, "Could not dealloc data %p: deletion callback failed for object type %d\n", q->ptr, q->type));
; 5609 : #ifdef SOAP_MEM_DEBUG
; 5610 :           fprintf(stderr, "new(object type = %d) = %p not freed: deletion callback failed\n", q->type, q->ptr);
; 5611 : #endif
; 5612 :         }
; 5613 :         SOAP_FREE(soap, q);

	push	edi
	call	_free
	add	esp, 8
	pop	edi
	pop	esi
	pop	ebx

; 5635 : }

	ret	0
$LN15@soap_delet:

; 5617 :     }
; 5618 :     DBGLOG(TEST, SOAP_MESSAGE(fdebug, "Could not dealloc data %p: address not in list\n", p));
; 5619 :   }
; 5620 :   else
; 5621 :   { while (*cp)

	cmp	DWORD PTR [esi], 0
	je	SHORT $LN2@soap_delet
$LL3@soap_delet:

; 5622 :     { register struct soap_clist *q = *cp;

	mov	edi, DWORD PTR [esi]

; 5623 :       *cp = q->next;

	mov	edx, DWORD PTR [edi]
	mov	DWORD PTR [esi], edx

; 5624 :       if (q->fdelete(q))

	mov	eax, DWORD PTR [edi+16]
	push	edi
	call	eax

; 5625 :       { DBGLOG(TEST, SOAP_MESSAGE(fdebug, "Could not dealloc data %p: deletion callback failed for object type %d\n", q->ptr, q->type));
; 5626 : #ifdef SOAP_MEM_DEBUG
; 5627 :         fprintf(stderr, "new(object type = %d) = %p not freed: deletion callback failed\n", q->type, q->ptr);
; 5628 : #endif
; 5629 :       }
; 5630 :       SOAP_FREE(soap, q);

	push	edi
	call	_free
	add	esp, 8
	cmp	DWORD PTR [esi], 0
	jne	SHORT $LL3@soap_delet
$LN2@soap_delet:
	pop	edi

; 5631 :     }
; 5632 :   }
; 5633 :   soap->fault = NULL; /* this was possibly deallocated */

	mov	DWORD PTR [ebx+12208], 0

; 5634 :   soap->header = NULL; /* this was possibly deallocated */

	mov	DWORD PTR [ebx+12204], 0
	pop	esi
$LN10@soap_delet:
	pop	ebx

; 5635 : }

	ret	0
_soap_delete ENDP
_TEXT	ENDS
PUBLIC	_soap_dealloc
; Function compile flags: /Ogtpy
_TEXT	SEGMENT
_soap_dealloc PROC
; _soap$ = esi

; 5531 : { if (soap_check_state(soap))

	push	edi
	xor	edi, edi
	cmp	esi, edi
	je	$LN11@soap_deall
	movzx	eax, WORD PTR [esi+4]
	cmp	ax, 1
	je	SHORT $LL9@soap_deall
	cmp	ax, 2
	jne	$LN11@soap_deall
	npad	1
$LL9@soap_deall:

; 5532 :     return;
; 5533 :   if (p)
; 5534 :   { register char **q;
; 5535 :     for (q = (char**)&soap->alist; *q; q = *(char***)q)
; 5536 :     {
; 5537 :       if (*(short*)(char*)(*q - sizeof(short)) != (short)SOAP_CANARY)
; 5538 :       {
; 5539 : #ifdef SOAP_MEM_DEBUG
; 5540 :         fprintf(stderr, "Data corruption in dynamic allocation (see logs)\n");
; 5541 : #endif
; 5542 :         DBGLOG(TEST, SOAP_MESSAGE(fdebug, "Data corruption:\n"));
; 5543 :         DBGHEX(TEST, *q - 200, 200);
; 5544 :         DBGLOG(TEST, SOAP_MESSAGE(fdebug, "\n"));
; 5545 :         soap->error = SOAP_MOE;
; 5546 :         return;
; 5547 :       }
; 5548 :       if (p == (void*)(*q - *(size_t*)(*q + sizeof(void*))))
; 5549 :       { *q = **(char***)q;
; 5550 :         DBGLOG(TEST, SOAP_MESSAGE(fdebug, "Freed data at %p\n", p));
; 5551 :         SOAP_FREE(soap, p);
; 5552 :         return;
; 5553 :       }
; 5554 :     }
; 5555 :     soap_delete(soap, p);
; 5556 :   }
; 5557 :   else
; 5558 :   { register char *q;
; 5559 :     DBGLOG(TEST, SOAP_MESSAGE(fdebug, "Free all soap_malloc() data\n"));
; 5560 :     while (soap->alist)

	cmp	DWORD PTR [esi+100], edi
	je	SHORT $LN2@soap_deall
	npad	11
$LL3@soap_deall:

; 5561 :     { q = (char*)soap->alist;

	mov	eax, DWORD PTR [esi+100]

; 5562 :       if (*(short*)(char*)(q - sizeof(short)) != (short)SOAP_CANARY)

	mov	ecx, -16162				; ffffc0deH
	cmp	WORD PTR [eax-2], cx
	jne	SHORT $LN21@soap_deall

; 5571 :         return;
; 5572 :       }
; 5573 :       soap->alist = *(void**)q;

	mov	edx, DWORD PTR [eax]

; 5574 :       q -= *(size_t*)(q + sizeof(void*));

	mov	ecx, eax
	mov	DWORD PTR [esi+100], edx
	sub	ecx, DWORD PTR [eax+4]

; 5575 :       SOAP_FREE(soap, q);

	push	ecx
	call	_free
	add	esp, 4
	cmp	DWORD PTR [esi+100], edi
	jne	SHORT $LL3@soap_deall
$LN2@soap_deall:

; 5576 :     }
; 5577 :     /* we must assume these were deallocated: */
; 5578 :     soap->action = NULL;
; 5579 :     soap->fault = NULL;
; 5580 :     soap->header = NULL;
; 5581 :     soap->userid = NULL;
; 5582 :     soap->passwd = NULL;
; 5583 :     soap->authrealm = NULL;
; 5584 :     soap->http_content = NULL;
; 5585 : #ifndef WITH_LEANER
; 5586 :     soap_clr_mime(soap);

	and	DWORD PTR [esi+16], -257		; fffffeffH
	mov	DWORD PTR [esi+90392], edi
	mov	DWORD PTR [esi+12208], edi
	mov	DWORD PTR [esi+12204], edi
	mov	DWORD PTR [esi+12224], edi
	mov	DWORD PTR [esi+12228], edi
	mov	DWORD PTR [esi+90396], edi
	mov	DWORD PTR [esi+36], edi
	mov	DWORD PTR [esi+90536], edi
	mov	DWORD PTR [esi+90540], edi
	mov	DWORD PTR [esi+90524], edi
	mov	DWORD PTR [esi+90528], edi
$LN11@soap_deall:
	pop	edi

; 5587 : #endif
; 5588 :   }
; 5589 : }

	ret	0
$LN21@soap_deall:

; 5563 :       {
; 5564 : #ifdef SOAP_MEM_DEBUG
; 5565 :         fprintf(stderr, "Data corruption in dynamic allocation (see logs)\n");
; 5566 : #endif
; 5567 :         DBGLOG(TEST, SOAP_MESSAGE(fdebug, "Data corruption:\n"));
; 5568 :         DBGHEX(TEST, q - 200, 200);
; 5569 :         DBGLOG(TEST, SOAP_MESSAGE(fdebug, "\n"));
; 5570 :         soap->error = SOAP_MOE;

	mov	DWORD PTR [esi+90460], 21		; 00000015H
	pop	edi

; 5587 : #endif
; 5588 :   }
; 5589 : }

	ret	0
_soap_dealloc ENDP
_TEXT	ENDS
PUBLIC	_soap_malloc
; Function compile flags: /Ogtpy
_TEXT	SEGMENT
_soap_malloc PROC
; _soap$ = edi
; _n$ = eax

; 5406 : { register char *p;

	push	esi
	mov	esi, eax

; 5407 :   if (!n)

	test	esi, esi
	jne	SHORT $LN5@soap_mallo

; 5408 :     return (void*)SOAP_NON_NULL;

	mov	eax, OFFSET _soap_padding
	pop	esi

; 5428 :   return p;
; 5429 : }

	ret	0
$LN5@soap_mallo:

; 5409 :   if (!soap)

	test	edi, edi
	jne	SHORT $LN4@soap_mallo

; 5410 :     return SOAP_MALLOC(soap, n);

	push	esi
	call	_malloc
	add	esp, 4
	pop	esi

; 5428 :   return p;
; 5429 : }

	ret	0
$LN4@soap_mallo:

; 5411 :   if (soap->fmalloc)

	mov	eax, DWORD PTR [edi+12336]
	test	eax, eax
	je	SHORT $LN3@soap_mallo

; 5412 :     p = (char*)soap->fmalloc(soap, n);

	push	esi
	push	edi
	call	eax
	add	esp, 8

; 5426 :   }
; 5427 :   soap->alloced = 1;

	mov	ecx, 1
	mov	WORD PTR [edi+87306], cx
	pop	esi

; 5428 :   return p;
; 5429 : }

	ret	0
$LN3@soap_mallo:

; 5413 :   else
; 5414 :   { n += sizeof(short);

	add	esi, 2

; 5415 :     n += (-(long)n) & (sizeof(void*)-1); /* align at 4-, 8- or 16-byte boundary */

	mov	eax, esi
	neg	eax
	and	eax, 3
	add	esi, eax

; 5416 :     if (!(p = (char*)SOAP_MALLOC(soap, n + sizeof(void*) + sizeof(size_t))))

	lea	ecx, DWORD PTR [esi+8]
	push	ecx
	call	_malloc
	add	esp, 4
	test	eax, eax
	jne	SHORT $LN1@soap_mallo

; 5417 :     { soap->error = SOAP_EOM;

	mov	DWORD PTR [edi+90460], 20		; 00000014H
	pop	esi

; 5428 :   return p;
; 5429 : }

	ret	0
$LN1@soap_mallo:

; 5418 :       return NULL;
; 5419 :     }
; 5420 :     /* set the canary to detect corruption */
; 5421 :     *(short*)(p + n - sizeof(short)) = (short)SOAP_CANARY;

	lea	ecx, DWORD PTR [eax+esi]
	mov	edx, -16162				; ffffc0deH
	mov	WORD PTR [ecx-2], dx

; 5422 :     /* keep chain of alloced cells for destruction */
; 5423 :     *(void**)(p + n) = soap->alist;

	mov	edx, DWORD PTR [edi+100]

; 5424 :     *(size_t*)(p + n + sizeof(void*)) = n;

	mov	DWORD PTR [ecx+4], esi
	mov	DWORD PTR [ecx], edx

; 5425 :     soap->alist = p + n;

	mov	DWORD PTR [edi+100], ecx

; 5426 :   }
; 5427 :   soap->alloced = 1;

	mov	ecx, 1
	mov	WORD PTR [edi+87306], cx
	pop	esi

; 5428 :   return p;
; 5429 : }

	ret	0
_soap_malloc ENDP
; Function compile flags: /Ogtpy
_soap$ = 8						; size = 4
_soap_free_iht PROC

; 5343 : { register int i;

	push	ebx

; 5344 :   register struct soap_ilist *ip = NULL, *p = NULL;
; 5345 :   register struct soap_flist *fp = NULL, *fq = NULL;
; 5346 :   DBGLOG(TEST, SOAP_MESSAGE(fdebug, "Free ID hashtable\n"));
; 5347 :   for (i = 0; i < SOAP_IDHASH; i++)

	mov	ebx, DWORD PTR _soap$[esp]
	push	ebp
	push	esi
	push	edi
	add	ebx, 104				; 00000068H
	mov	ebp, 1999				; 000007cfH
$LL9@soap_free_:

; 5348 :   { for (ip = soap->iht[i]; ip; ip = p)

	mov	edi, DWORD PTR [ebx]
	test	edi, edi
	je	SHORT $LN4@soap_free_
$LL18@soap_free_:

; 5349 :     { for (fp = ip->flist; fp; fp = fq)

	mov	eax, DWORD PTR [edi+20]
	test	eax, eax
	je	SHORT $LN1@soap_free_
	npad	3
$LL3@soap_free_:

; 5350 :       { fq = fp->next;

	mov	esi, DWORD PTR [eax]

; 5351 :         SOAP_FREE(soap, fp);

	push	eax
	call	_free
	add	esp, 4
	mov	eax, esi
	test	esi, esi
	jne	SHORT $LL3@soap_free_
$LN1@soap_free_:

; 5352 :       }
; 5353 :       p = ip->next;

	mov	esi, DWORD PTR [edi]

; 5354 :       SOAP_FREE(soap, ip);

	push	edi
	call	_free
	add	esp, 4
	mov	edi, esi
	test	esi, esi
	jne	SHORT $LL18@soap_free_
$LN4@soap_free_:

; 5355 :     }
; 5356 :     soap->iht[i] = NULL;

	mov	DWORD PTR [ebx], 0
	add	ebx, 4
	sub	ebp, 1
	jne	SHORT $LL9@soap_free_
	pop	edi
	pop	esi
	pop	ebp
	pop	ebx

; 5357 :   }
; 5358 : }

	ret	0
_soap_free_iht ENDP
; Function compile flags: /Ogtpy
_soap_init_iht PROC
; _soap$ = eax

; 5330 : { register int i;

	push	edi

; 5331 :   DBGLOG(TEST, SOAP_MESSAGE(fdebug, "Initializing ID hashtable\n"));
; 5332 :   for (i = 0; i < SOAP_IDHASH; i++)

	mov	edi, eax
	add	edi, 104				; 00000068H

; 5333 :     soap->iht[i] = NULL;

	mov	ecx, 1999				; 000007cfH
	xor	eax, eax
	rep stosd
	pop	edi

; 5334 : }

	ret	0
_soap_init_iht ENDP
_TEXT	ENDS
PUBLIC	_soap_set_embedded
; Function compile flags: /Ogtpy
_TEXT	SEGMENT
_soap_set_embedded PROC
; _soap$ = ecx
; _pp$ = eax

; 5237 : { if (!pp)

	test	eax, eax
	je	SHORT $LN1@soap_set_e@2

; 5238 :     return;
; 5239 :   if (soap->mode & SOAP_IO_LENGTH)

	test	BYTE PTR [ecx+8], 8
	je	SHORT $LN2@soap_set_e@2

; 5240 :     pp->mark1 = 1;

	mov	BYTE PTR [eax+20], 1

; 5243 : }

	ret	0
$LN2@soap_set_e@2:

; 5241 :   else
; 5242 :     pp->mark2 = 1;

	mov	BYTE PTR [eax+21], 1
$LN1@soap_set_e@2:

; 5243 : }

	ret	0
_soap_set_embedded ENDP
_TEXT	ENDS
PUBLIC	_soap_is_single
; Function compile flags: /Ogtpy
_TEXT	SEGMENT
_soap_is_single PROC
; _soap$ = ecx
; _pp$ = eax

; 5219 : { if (soap->part == SOAP_IN_HEADER)

	cmp	WORD PTR [ecx+87304], 3
	jne	SHORT $LN3@soap_is_si

; 5220 :     return 1;

	mov	eax, 1

; 5226 : }

	ret	0
$LN3@soap_is_si:

; 5221 :   if (!pp)

	test	eax, eax
	jne	SHORT $LN2@soap_is_si

; 5226 : }

	ret	0
$LN2@soap_is_si:

; 5222 :     return 0;
; 5223 :   if (soap->mode & SOAP_IO_LENGTH)

	test	BYTE PTR [ecx+8], 8
	je	SHORT $LN1@soap_is_si

; 5224 :     return pp->mark1 == 0;

	xor	ecx, ecx
	cmp	BYTE PTR [eax+20], cl
	sete	cl
	mov	eax, ecx

; 5226 : }

	ret	0
$LN1@soap_is_si:

; 5225 :   return pp->mark2 == 0;

	xor	edx, edx
	cmp	BYTE PTR [eax+21], dl
	sete	dl
	mov	eax, edx

; 5226 : }

	ret	0
_soap_is_single ENDP
_TEXT	ENDS
PUBLIC	_soap_is_embedded
; Function compile flags: /Ogtpy
_TEXT	SEGMENT
_soap_is_embedded PROC
; _soap$ = eax
; _pp$ = ecx

; 5197 : { if (!pp)

	test	ecx, ecx
	jne	SHORT $LN4@soap_is_em

; 5198 :     return 0;

	xor	eax, eax

; 5208 : }

	ret	0
$LN4@soap_is_em:

; 5199 :   DBGLOG(TEST, SOAP_MESSAGE(fdebug, "Is embedded? %d %d\n", (int)pp->mark1, (int)pp->mark2));
; 5200 :   if (soap->version == 1 && soap->encodingStyle && !(soap->mode & SOAP_XML_GRAPH) && soap->part != SOAP_IN_HEADER)

	cmp	WORD PTR [eax+6], 1
	jne	SHORT $LN3@soap_is_em
	cmp	DWORD PTR [eax+40], 0
	je	SHORT $LN3@soap_is_em
	mov	edx, DWORD PTR [eax+8]
	test	edx, 65536				; 00010000H
	jne	SHORT $LN3@soap_is_em
	cmp	WORD PTR [eax+87304], 3
	je	SHORT $LN3@soap_is_em

; 5201 :   { if (soap->mode & SOAP_IO_LENGTH)
; 5202 :       return pp->mark1 != 0;

	xor	eax, eax
	test	dl, 8
	je	SHORT $LN2@soap_is_em
	cmp	BYTE PTR [ecx+20], al
	setne	al

; 5208 : }

	ret	0
$LN2@soap_is_em:

; 5203 :     return pp->mark2 != 0;

	cmp	BYTE PTR [ecx+21], al
	setne	al

; 5208 : }

	ret	0
$LN3@soap_is_em:

; 5204 :   }
; 5205 :   if (soap->mode & SOAP_IO_LENGTH)

	test	BYTE PTR [eax+8], 8
	je	SHORT $LN1@soap_is_em

; 5206 :     return pp->mark1 == 1;

	xor	eax, eax
	cmp	BYTE PTR [ecx+20], 1

; 5207 :   return pp->mark2 == 1;

	sete	al

; 5208 : }

	ret	0
$LN1@soap_is_em:

; 5207 :   return pp->mark2 == 1;

	xor	eax, eax
	cmp	BYTE PTR [ecx+21], 1
	sete	al

; 5208 : }

	ret	0
_soap_is_embedded ENDP
_TEXT	ENDS
PUBLIC	_soap_end_count
; Function compile flags: /Ogtpy
_TEXT	SEGMENT
_soap_end_count PROC
; _soap$ = esi

; 4957 : #ifndef WITH_LEANER
; 4958 :   if (soap->fpreparefinal)

	mov	eax, DWORD PTR [esi+12352]
	test	eax, eax
	je	SHORT $LN1@soap_end_c

; 4959 :     return soap->error = soap->fpreparefinal(soap);

	push	esi
	call	eax
	add	esp, 4
	mov	DWORD PTR [esi+90460], eax

; 4963 : }

	ret	0
$LN1@soap_end_c:

; 4960 : #endif
; 4961 :   DBGLOG(TEST, SOAP_MESSAGE(fdebug, "End of count phase\n"));
; 4962 :   return SOAP_OK;

	xor	eax, eax

; 4963 : }

	ret	0
_soap_end_count ENDP
_TEXT	ENDS
PUBLIC	_soap_array_pointer_lookup
; Function compile flags: /Ogtpy
_TEXT	SEGMENT
_a$ = 8							; size = 4
_type$ = 12						; size = 4
_ppp$ = 16						; size = 4
_soap_array_pointer_lookup PROC
; _soap$ = edx
; _n$ = esi

; 4863 :   *ppp = NULL;
; 4864 :   if (!p || !a->__ptr)

	mov	eax, DWORD PTR _a$[esp-4]
	push	ebx
	mov	ebx, DWORD PTR [eax]
	test	ebx, ebx
	jne	SHORT $LN11@soap_array

; 4865 :     return 0;

	xor	eax, eax
	pop	ebx

; 4881 : }

	ret	0
$LN11@soap_array:

; 4866 :   for (pp = soap->pht[soap_hash_ptr(a->__ptr)]; pp; pp = pp->next)

	mov	ecx, ebx
	shr	ecx, 3
	push	ebp
	and	ecx, 1023				; 000003ffH
	push	edi
	mov	edi, DWORD PTR [edx+ecx*4+8100]
	test	edi, edi
	je	SHORT $LN7@soap_array
$LL24@soap_array:

; 4867 :   { if (pp->type == type && pp->array && pp->array->__ptr == a->__ptr)

	mov	eax, DWORD PTR [edi+12]
	cmp	eax, DWORD PTR _type$[esp+8]
	jne	SHORT $LN8@soap_array
	mov	ecx, DWORD PTR [edi+8]
	test	ecx, ecx
	je	SHORT $LN8@soap_array
	cmp	DWORD PTR [ecx], ebx
	jne	SHORT $LN8@soap_array

; 4868 :     { register int i;
; 4869 :       for (i = 0; i < n; i++)

	xor	eax, eax
	test	esi, esi
	jle	SHORT $LN23@soap_array
	mov	edx, DWORD PTR _a$[esp+8]
	add	edx, 4
	add	ecx, 4
	npad	5
$LL5@soap_array:

; 4870 :         if (((const int*)&pp->array->__size)[i] != ((const int*)&a->__size)[i])

	mov	ebp, DWORD PTR [ecx]
	cmp	ebp, DWORD PTR [edx]
	jne	SHORT $LN23@soap_array
	inc	eax
	add	ecx, 4
	add	edx, 4
	cmp	eax, esi
	jl	SHORT $LL5@soap_array
$LN23@soap_array:

; 4871 :           break;
; 4872 :       if (i == n)

	cmp	eax, esi
	je	SHORT $LN20@soap_array
$LN8@soap_array:

; 4866 :   for (pp = soap->pht[soap_hash_ptr(a->__ptr)]; pp; pp = pp->next)

	mov	edi, DWORD PTR [edi]
	test	edi, edi
	jne	SHORT $LL24@soap_array
$LN7@soap_array:
	pop	edi
	pop	ebp

; 4876 :       }
; 4877 :     }
; 4878 :   }
; 4879 :   DBGLOG(TEST, SOAP_MESSAGE(fdebug, "Array lookup location=%p type=%d: not found\n", a->__ptr, type));
; 4880 :   return 0;

	xor	eax, eax
	pop	ebx

; 4881 : }

	ret	0
$LN20@soap_array:

; 4873 :       { *ppp = pp;

	mov	ecx, DWORD PTR _ppp$[esp+8]

; 4874 :         DBGLOG(TEST, SOAP_MESSAGE(fdebug, "Array lookup location=%p type=%d id=%d\n", a->__ptr, type, pp->id));
; 4875 :         return pp->id;

	mov	eax, DWORD PTR [edi+16]
	mov	DWORD PTR [ecx], edi
	pop	edi
	pop	ebp
	pop	ebx

; 4881 : }

	ret	0
_soap_array_pointer_lookup ENDP
_TEXT	ENDS
PUBLIC	_soap_pointer_enter
; Function compile flags: /Ogtpy
_TEXT	SEGMENT
_p$ = 8							; size = 4
_type$ = 12						; size = 4
_ppp$ = 16						; size = 4
_soap_pointer_enter PROC
; _soap$ = esi
; _a$ = edi

; 4825 :   register struct soap_plist *pp;
; 4826 :   if (!soap->pblk || soap->pidx >= SOAP_PTRBLK)

	cmp	DWORD PTR [esi+12196], 0
	push	ebp
	mov	ebp, DWORD PTR _p$[esp]
	je	SHORT $LN4@soap_point
	cmp	WORD PTR [esi+12200], 32		; 00000020H
	jl	SHORT $LN5@soap_point
$LN4@soap_point:

; 4827 :   { register struct soap_pblk *pb = (struct soap_pblk*)SOAP_MALLOC(soap, sizeof(struct soap_pblk));

	push	772					; 00000304H
	call	_malloc
	add	esp, 4

; 4828 :     if (!pb)

	test	eax, eax
	jne	SHORT $LN3@soap_point

; 4829 :     { soap->error = SOAP_EOM;

	mov	DWORD PTR [esi+90460], 20		; 00000014H
	pop	ebp

; 4850 :   return pp->id;
; 4851 : }

	ret	0
$LN3@soap_point:

; 4830 :       return 0;
; 4831 :     }
; 4832 :     pb->next = soap->pblk;

	mov	ecx, DWORD PTR [esi+12196]
	mov	DWORD PTR [eax], ecx

; 4833 :     soap->pblk = pb;
; 4834 :     soap->pidx = 0;

	xor	edx, edx
	mov	DWORD PTR [esi+12196], eax
	mov	WORD PTR [esi+12200], dx
$LN5@soap_point:

; 4835 :   }
; 4836 :   *ppp = pp = &soap->pblk->plist[soap->pidx++];

	movzx	eax, WORD PTR [esi+12200]
	mov	edx, DWORD PTR [esi+12196]
	movsx	ecx, ax
	lea	ecx, DWORD PTR [ecx+ecx*2]
	lea	ecx, DWORD PTR [edx+ecx*8+4]
	mov	edx, DWORD PTR _ppp$[esp]
	inc	eax
	mov	DWORD PTR [edx], ecx
	mov	WORD PTR [esi+12200], ax

; 4837 :   if (a)

	test	edi, edi
	je	SHORT $LN2@soap_point

; 4838 :     h = soap_hash_ptr(a->__ptr);

	mov	eax, DWORD PTR [edi]

; 4839 :   else

	jmp	SHORT $LN8@soap_point
$LN2@soap_point:

; 4840 :     h = soap_hash_ptr(p);

	mov	eax, ebp
$LN8@soap_point:
	shr	eax, 3
	and	eax, 1023				; 000003ffH

; 4841 :   DBGLOG(TEST, SOAP_MESSAGE(fdebug, "Pointer enter location=%p array=%p size=%d dim=%d type=%d id=%d\n", p, a?a->__ptr:NULL, a?a->__size:0, n, type, soap->idnum+1));
; 4842 :   pp->next = soap->pht[h];

	mov	edx, DWORD PTR [esi+eax*4+8100]
	mov	DWORD PTR [ecx], edx

; 4843 :   pp->type = type;

	mov	edx, DWORD PTR _type$[esp]

; 4844 :   pp->mark1 = 0;
; 4845 :   pp->mark2 = 0;
; 4846 :   pp->ptr = p;

	mov	DWORD PTR [ecx+4], ebp
	mov	DWORD PTR [ecx+12], edx
	mov	BYTE PTR [ecx+20], 0
	mov	BYTE PTR [ecx+21], 0

; 4847 :   pp->array = a;

	mov	DWORD PTR [ecx+8], edi

; 4848 :   soap->pht[h] = pp;

	mov	DWORD PTR [esi+eax*4+8100], ecx

; 4849 :   pp->id = ++soap->idnum;

	inc	DWORD PTR [esi+12212]
	mov	eax, DWORD PTR [esi+12212]
	mov	DWORD PTR [ecx+16], eax
	pop	ebp

; 4850 :   return pp->id;
; 4851 : }

	ret	0
_soap_pointer_enter ENDP
_TEXT	ENDS
PUBLIC	_soap_pointer_lookup
; Function compile flags: /Ogtpy
_TEXT	SEGMENT
_soap_pointer_lookup PROC
; _soap$ = edi
; _p$ = ecx
; _type$ = esi
; _ppp$ = edx

; 4801 :   *ppp = NULL;

	mov	DWORD PTR [edx], 0

; 4802 :   if (p)

	test	ecx, ecx
	je	SHORT $LN2@soap_point@2

; 4803 :   { for (pp = soap->pht[soap_hash_ptr(p)]; pp; pp = pp->next)

	mov	eax, ecx
	shr	eax, 3
	and	eax, 1023				; 000003ffH
	mov	eax, DWORD PTR [edi+eax*4+8100]
	test	eax, eax
	je	SHORT $LN2@soap_point@2
	npad	1
$LL4@soap_point@2:

; 4804 :     { if (pp->ptr == p && pp->type == type)

	cmp	DWORD PTR [eax+4], ecx
	jne	SHORT $LN3@soap_point@2
	cmp	DWORD PTR [eax+12], esi
	je	SHORT $LN9@soap_point@2
$LN3@soap_point@2:

; 4803 :   { for (pp = soap->pht[soap_hash_ptr(p)]; pp; pp = pp->next)

	mov	eax, DWORD PTR [eax]
	test	eax, eax
	jne	SHORT $LL4@soap_point@2
$LN2@soap_point@2:

; 4808 :       }
; 4809 :     }
; 4810 :   }
; 4811 :   DBGLOG(TEST, SOAP_MESSAGE(fdebug, "Lookup location=%p type=%d: not found\n", p, type));
; 4812 :   return 0;

	xor	eax, eax

; 4813 : }

	ret	0
$LN9@soap_point@2:

; 4805 :       { *ppp = pp;

	mov	DWORD PTR [edx], eax

; 4806 :         DBGLOG(TEST, SOAP_MESSAGE(fdebug, "Lookup location=%p type=%d id=%d\n", p, type, pp->id));
; 4807 :         return pp->id;

	mov	eax, DWORD PTR [eax+16]

; 4813 : }

	ret	0
_soap_pointer_lookup ENDP
_TEXT	ENDS
PUBLIC	_soap_embed
; Function compile flags: /Ogtpy
_TEXT	SEGMENT
_soap$ = 8						; size = 4
_soap_embed PROC
; _p$ = eax
; _type$ = edx

; 4774 : { register int i;

	push	esi
	mov	esi, DWORD PTR _soap$[esp]

; 4775 :   struct soap_plist *pp;
; 4776 :   if (soap->version != 1)

	cmp	WORD PTR [esi+6], 1
	push	edi
	je	SHORT $LN5@soap_embed

; 4777 :     soap->encoding = 1;

	mov	ecx, 1
	mov	WORD PTR [esi+87296], cx
$LN5@soap_embed:

; 4778 :   if (a)
; 4779 :     i = soap_array_pointer_lookup(soap, p, a, n, type, &pp);
; 4780 :   else
; 4781 :     i = soap_pointer_lookup(soap, p, type, &pp);

	test	eax, eax
	je	SHORT $LN25@soap_embed
	mov	ecx, eax
	shr	ecx, 3
	and	ecx, 1023				; 000003ffH
	mov	ecx, DWORD PTR [esi+ecx*4+8100]
	test	ecx, ecx
	je	SHORT $LN25@soap_embed
$LL27@soap_embed:
	cmp	DWORD PTR [ecx+4], eax
	jne	SHORT $LN26@soap_embed
	cmp	DWORD PTR [ecx+12], edx
	je	SHORT $LN42@soap_embed
$LN26@soap_embed:
	mov	ecx, DWORD PTR [ecx]
	test	ecx, ecx
	jne	SHORT $LL27@soap_embed
$LN25@soap_embed:
	xor	edi, edi

; 4786 :     soap_set_embedded(soap, pp);

$LN36@soap_embed:

; 4787 :   }
; 4788 :   return i;

	mov	eax, edi
	pop	edi
	pop	esi

; 4789 : }

	ret	0
$LN42@soap_embed:

; 4778 :   if (a)
; 4779 :     i = soap_array_pointer_lookup(soap, p, a, n, type, &pp);
; 4780 :   else
; 4781 :     i = soap_pointer_lookup(soap, p, type, &pp);

	mov	edi, DWORD PTR [ecx+16]

; 4782 :   if (i)

	test	edi, edi
	je	SHORT $LN36@soap_embed

; 4783 :   { if (soap_is_embedded(soap, pp)
; 4784 :      || soap_is_single(soap, pp))

	mov	eax, esi
	call	_soap_is_embedded
	test	eax, eax
	jne	SHORT $LN1@soap_embed
	cmp	WORD PTR [esi+87304], 3
	je	SHORT $LN1@soap_embed
	mov	esi, DWORD PTR [esi+8]
	and	esi, 8
	je	SHORT $LN31@soap_embed
	cmp	BYTE PTR [ecx+20], al
	jmp	SHORT $LN44@soap_embed
$LN31@soap_embed:
	cmp	BYTE PTR [ecx+21], 0
$LN44@soap_embed:
	sete	al
	test	eax, eax
	jne	SHORT $LN1@soap_embed

; 4786 :     soap_set_embedded(soap, pp);

	test	esi, esi
	je	SHORT $LN37@soap_embed

; 4787 :   }
; 4788 :   return i;

	mov	eax, edi
	pop	edi
	mov	BYTE PTR [ecx+20], 1
	pop	esi

; 4789 : }

	ret	0

; 4786 :     soap_set_embedded(soap, pp);

$LN37@soap_embed:

; 4787 :   }
; 4788 :   return i;

	mov	eax, edi
	pop	edi
	mov	BYTE PTR [ecx+21], 1
	pop	esi

; 4789 : }

	ret	0
$LN1@soap_embed:
	pop	edi

; 4785 :       return 0;

	xor	eax, eax
	pop	esi

; 4789 : }

	ret	0
_soap_embed ENDP
; Function compile flags: /Ogtpy
_soap_free_pht PROC
; _soap$ = eax

; 4752 : { register struct soap_pblk *pb, *next;

	push	edi
	mov	edi, eax

; 4753 :   register int i;
; 4754 :   DBGLOG(TEST, SOAP_MESSAGE(fdebug, "Free pointer hashtable\n"));
; 4755 :   for (pb = soap->pblk; pb; pb = next)

	mov	eax, DWORD PTR [edi+12196]
	test	eax, eax
	je	SHORT $LN4@soap_free_@2
	push	esi
	npad	2
$LL6@soap_free_@2:

; 4756 :   { next = pb->next;

	mov	esi, DWORD PTR [eax]

; 4757 :     SOAP_FREE(soap, pb);

	push	eax
	call	_free
	add	esp, 4
	mov	eax, esi
	test	esi, esi
	jne	SHORT $LL6@soap_free_@2
	pop	esi
$LN4@soap_free_@2:

; 4758 :   }
; 4759 :   soap->pblk = NULL;
; 4760 :   soap->pidx = 0;

	xor	eax, eax
	mov	DWORD PTR [edi+12196], 0
	mov	WORD PTR [edi+12200], ax
	add	edi, 8100				; 00001fa4H

; 4761 :   for (i = 0; i < (int)SOAP_PTRHASH; i++)
; 4762 :     soap->pht[i] = NULL;

	mov	ecx, 1024				; 00000400H
	rep stosd
	pop	edi

; 4763 : }

	ret	0
_soap_free_pht ENDP
_TEXT	ENDS
PUBLIC	_soap_del
; Function compile flags: /Ogtpy
_TEXT	SEGMENT
_soap_del PROC
; _soap$ = eax

; 4743 : { free(soap);

	push	eax
	call	_free
	pop	ecx

; 4744 : }

	ret	0
_soap_del ENDP
; Function compile flags: /Ogtpy
_soap_init_pht PROC
; _soap$ = eax

; 4684 :   DBGLOG(TEST, SOAP_MESSAGE(fdebug, "Initializing pointer hashtable\n"));
; 4685 :   soap->pblk = NULL;
; 4686 :   soap->pidx = 0;

	xor	ecx, ecx
	push	edi
	mov	WORD PTR [eax+12200], cx
	mov	DWORD PTR [eax+12196], 0
	lea	edi, DWORD PTR [eax+8100]

; 4687 :   for (i = 0; i < (int)SOAP_PTRHASH; i++)
; 4688 :     soap->pht[i] = NULL;

	mov	ecx, 1024				; 00000400H
	xor	eax, eax
	rep stosd
	pop	edi

; 4689 : }

	ret	0
_soap_init_pht ENDP
_TEXT	ENDS
PUBLIC	_soap_hash
; Function compile flags: /Ogtpy
_TEXT	SEGMENT
_soap_hash PROC
; _s$ = edx

; 4671 :   while (*s)

	mov	al, BYTE PTR [edx]
	xor	ecx, ecx
	test	al, al
	je	SHORT $LN1@soap_hash
	npad	8
$LL2@soap_hash:

; 4672 :     h = 65599*h + *s++;

	imul	ecx, 65599				; 0001003fH
	movsx	eax, al
	inc	edx
	add	ecx, eax
	mov	al, BYTE PTR [edx]
	test	al, al
	jne	SHORT $LL2@soap_hash
$LN1@soap_hash:

; 4673 :   return h % SOAP_IDHASH;

	mov	eax, 105279339				; 06466f6bH
	mul	ecx
	mov	eax, ecx
	sub	eax, edx
	shr	eax, 1
	add	eax, edx
	shr	eax, 10					; 0000000aH
	mov	edx, eax
	imul	edx, 1999				; 000007cfH
	mov	eax, ecx
	sub	eax, edx

; 4674 : }

	ret	0
_soap_hash ENDP
_TEXT	ENDS
PUBLIC	_soap_closesock
; Function compile flags: /Ogtpy
_TEXT	SEGMENT
_soap_closesock PROC
; _soap$ = esi

; 4646 : { register int status = soap->error;

	push	edi
	mov	edi, DWORD PTR [esi+90460]

; 4647 :   if (status == SOAP_EOF || status == SOAP_TCP_ERROR || status == SOAP_SSL_ERROR || !soap->keep_alive)

	cmp	edi, -1
	je	SHORT $LN2@soap_close
	cmp	edi, 28					; 0000001cH
	je	SHORT $LN2@soap_close
	cmp	edi, 30					; 0000001eH
	je	SHORT $LN2@soap_close
	cmp	WORD PTR [esi+90412], 0
	jne	SHORT $LN3@soap_close
$LN2@soap_close:

; 4648 :   { if (soap->fclose && (soap->error = soap->fclose(soap)))

	mov	eax, DWORD PTR [esi+12304]
	test	eax, eax
	je	SHORT $LN1@soap_close
	push	esi
	call	eax
	add	esp, 4
	mov	DWORD PTR [esi+90460], eax
	test	eax, eax

; 4649 :       return soap->error;

	jne	SHORT $LN4@soap_close
$LN1@soap_close:

; 4650 :     soap->keep_alive = 0;

	xor	eax, eax
	mov	WORD PTR [esi+90412], ax
$LN3@soap_close:

; 4651 :   }
; 4652 : #ifdef WITH_ZLIB
; 4653 :   if (soap->zlib_state == SOAP_ZLIB_DEFLATE)
; 4654 :     deflateEnd(soap->d_stream);
; 4655 :   else if (soap->zlib_state == SOAP_ZLIB_INFLATE)
; 4656 :     inflateEnd(soap->d_stream);
; 4657 :   soap->zlib_state = SOAP_ZLIB_NONE;
; 4658 : #endif
; 4659 :   return soap->error = status;

	mov	DWORD PTR [esi+90460], edi
	mov	eax, edi
$LN4@soap_close:
	pop	edi

; 4660 : }

	ret	0
_soap_closesock ENDP
; Function compile flags: /Ogtpy
_soap$ = 8						; size = 4
_fd$ = 12						; size = 4
_how$ = 16						; size = 4
_tcp_shutdownsocket PROC

; 4635 :   return shutdown(fd, how);

	mov	eax, DWORD PTR _how$[esp-4]
	mov	ecx, DWORD PTR _fd$[esp-4]
	push	eax
	push	ecx
	call	_shutdown@8

; 4636 : }

	ret	0
_tcp_shutdownsocket ENDP
; Function compile flags: /Ogtpy
_soap$ = 8						; size = 4
_fd$ = 12						; size = 4
_tcp_closesocket PROC

; 4624 :   return soap_closesocket(fd);

	mov	eax, DWORD PTR _fd$[esp-4]
	push	eax
	call	_closesocket@4

; 4625 : }

	ret	0
_tcp_closesocket ENDP
; Function compile flags: /Ogtpy
_soap$ = 8						; size = 4
_tcp_disconnect PROC

; 4537 : {

	push	esi

; 4538 : #ifdef WITH_OPENSSL
; 4539 :   if (soap->ssl)
; 4540 :   { int r, s = 0;
; 4541 :     if (soap->session)
; 4542 :     { SSL_SESSION_free(soap->session);
; 4543 :       soap->session = NULL;
; 4544 :     }
; 4545 :     if (*soap->host)
; 4546 :     { soap->session = SSL_get1_session(soap->ssl);
; 4547 :       if (soap->session)
; 4548 :       { strcpy(soap->session_host, soap->host);
; 4549 :         soap->session_port = soap->port;
; 4550 :       }
; 4551 :     }
; 4552 :     r = SSL_shutdown(soap->ssl);
; 4553 :     if (r == 0)
; 4554 :     { if (soap_valid_socket(soap->socket))
; 4555 :       { struct timeval timeout;
; 4556 :         fd_set fd;
; 4557 :         if (soap->fshutdownsocket(soap, soap->socket, 1))
; 4558 :         { /*
; 4559 :           wait up to 10 seconds for close_notify to be sent by peer (if peer not
; 4560 :           present, this avoids calling SSL_shutdown() which has a lengthy return
; 4561 :           timeout)
; 4562 :           */
; 4563 : #ifndef WIN32
; 4564 :           if ((int)soap->socket < (int)FD_SETSIZE)
; 4565 :           {
; 4566 : #endif
; 4567 :             timeout.tv_sec = 10;
; 4568 :             timeout.tv_usec = 0;
; 4569 :             FD_ZERO(&fd);
; 4570 :             FD_SET(soap->socket, &fd);
; 4571 :             r = select((int)soap->socket + 1, &fd, NULL, &fd, &timeout);
; 4572 :             if (r <= 0 && soap_socket_errno(soap->socket) != SOAP_EINTR)
; 4573 :             { soap->errnum = 0;
; 4574 :               DBGLOG(TEST, SOAP_MESSAGE(fdebug, "Connection lost...\n"));
; 4575 :               soap->fclosesocket(soap, soap->socket);
; 4576 :               soap->socket = SOAP_INVALID_SOCKET;
; 4577 :               SSL_free(soap->ssl);
; 4578 :               soap->ssl = NULL;
; 4579 :               ERR_remove_state(0);
; 4580 :               return SOAP_OK;
; 4581 :             }
; 4582 : #ifndef WIN32
; 4583 :           }
; 4584 : #endif
; 4585 :         }
; 4586 :       }
; 4587 :       r = SSL_shutdown(soap->ssl);
; 4588 :     }
; 4589 :     if (r != 1)
; 4590 :     { s = ERR_get_error();
; 4591 :       if (s)
; 4592 :       { DBGLOG(TEST, SOAP_MESSAGE(fdebug, "Shutdown failed: %d\n", SSL_get_error(soap->ssl, r)));
; 4593 :         if (soap_valid_socket(soap->socket) && !(soap->omode & SOAP_IO_UDP))
; 4594 :         { soap->fclosesocket(soap, soap->socket);
; 4595 :           soap->socket = SOAP_INVALID_SOCKET;
; 4596 :         }
; 4597 :         SSL_free(soap->ssl);
; 4598 :         soap->ssl = NULL;
; 4599 :         ERR_remove_state(0);
; 4600 :         return SOAP_SSL_ERROR;
; 4601 :       }
; 4602 :     }
; 4603 :     SSL_free(soap->ssl);
; 4604 :     soap->ssl = NULL;
; 4605 :     ERR_remove_state(0);
; 4606 :   }
; 4607 : #endif
; 4608 :   if (soap_valid_socket(soap->socket) && !(soap->omode & SOAP_IO_UDP))

	mov	esi, DWORD PTR _soap$[esp]
	mov	eax, DWORD PTR [esi+12408]
	cmp	eax, -1
	je	SHORT $LN5@tcp_discon
	test	BYTE PTR [esi+16], 4
	jne	SHORT $LN5@tcp_discon

; 4609 :   { soap->fshutdownsocket(soap, soap->socket, 2);

	push	2
	push	eax
	mov	eax, DWORD PTR [esi+12292]
	push	esi
	call	eax

; 4610 :     soap->fclosesocket(soap, soap->socket);

	mov	ecx, DWORD PTR [esi+12408]
	mov	edx, DWORD PTR [esi+12288]
	push	ecx
	push	esi
	call	edx
	add	esp, 20					; 00000014H

; 4611 :     soap->socket = SOAP_INVALID_SOCKET;

	mov	DWORD PTR [esi+12408], -1
$LN5@tcp_discon:

; 4612 :   }
; 4613 :   return SOAP_OK;

	xor	eax, eax
	pop	esi

; 4614 : }

	ret	0
_tcp_disconnect ENDP
; Function compile flags: /Ogtpy
_soap$ = 8						; size = 4
_s$ = 12						; size = 4
_a$ = 16						; size = 4
_n$ = 20						; size = 4
_tcp_accept PROC

; 4358 :   fd = accept(s, a, (SOAP_SOCKLEN_T*)n);	/* portability note: see SOAP_SOCKLEN_T definition in stdsoap2.h */

	mov	eax, DWORD PTR _n$[esp-4]
	mov	ecx, DWORD PTR _a$[esp-4]
	mov	edx, DWORD PTR _s$[esp-4]
	push	eax
	push	ecx
	push	edx
	call	_accept@12

; 4359 : #ifdef SOCKET_CLOSE_ON_EXEC
; 4360 : #ifdef WIN32
; 4361 : #ifndef UNDER_CE
; 4362 :   SetHandleInformation((HANDLE)fd, HANDLE_FLAG_INHERIT, 0);
; 4363 : #endif
; 4364 : #else
; 4365 :   fcntl(fd, F_SETFD, FD_CLOEXEC);
; 4366 : #endif
; 4367 : #endif
; 4368 :   return fd;
; 4369 : }

	ret	0
_tcp_accept ENDP
; Function compile flags: /Ogtpy
_soap$ = 8						; size = 4
_addr$ = 12						; size = 4
_inaddr$ = 16						; size = 4
_tcp_gethost PROC

; 3487 : { soap_int32 iadd = -1;

	push	esi

; 3488 :   struct hostent hostent, *host = &hostent;
; 3489 : #ifdef VXWORKS
; 3490 :   int hostint;
; 3491 :   /* inet_addr(), and hostGetByName() expect "char *"; addr is a "const char *". */
; 3492 :   iadd = inet_addr((char*)addr);
; 3493 : #else
; 3494 : #if defined(_AIX43) || defined(TRU64)
; 3495 :   struct hostent_data ht_data;
; 3496 : #endif
; 3497 : #ifdef AS400
; 3498 :   iadd = inet_addr((void*)addr);
; 3499 : #else
; 3500 :   iadd = inet_addr(addr);

	mov	esi, DWORD PTR _addr$[esp]
	push	esi
	call	_inet_addr@4

; 3501 : #endif
; 3502 : #endif
; 3503 :   if (iadd != -1)

	cmp	eax, -1
	je	SHORT $LN3@tcp_gethos

; 3504 :   { memcpy(inaddr, &iadd, sizeof(iadd));

	mov	ecx, DWORD PTR _inaddr$[esp]
	mov	DWORD PTR [ecx], eax

; 3544 : #endif
; 3545 :   return SOAP_OK;

	xor	eax, eax
	pop	esi

; 3546 : }

	ret	0
$LN3@tcp_gethos:

; 3505 :     return SOAP_OK;
; 3506 :   }
; 3507 : #if defined(__GLIBC__) || (defined(HAVE_GETHOSTBYNAME_R) && (defined(FREEBSD) || defined(__FreeBSD__)))
; 3508 :   if (gethostbyname_r(addr, &hostent, soap->buf, SOAP_BUFLEN, &host, &soap->errnum) < 0)
; 3509 :     host = NULL;
; 3510 : #elif defined(_AIX43) || defined(TRU64)
; 3511 :   memset((void*)&ht_data, 0, sizeof(ht_data));
; 3512 :   if (gethostbyname_r(addr, &hostent, &ht_data) < 0)
; 3513 :   { host = NULL;
; 3514 :     soap->errnum = h_errno;
; 3515 :   }
; 3516 : #elif defined(HAVE_GETHOSTBYNAME_R)
; 3517 :   host = gethostbyname_r(addr, &hostent, soap->buf, SOAP_BUFLEN, &soap->errnum);
; 3518 : #elif defined(VXWORKS)
; 3519 :   /* If the DNS resolver library resolvLib has been configured in the vxWorks
; 3520 :    * image, a query for the host IP address is sent to the DNS server, if the
; 3521 :    * name was not found in the local host table. */
; 3522 :   hostint = hostGetByName((char*)addr);
; 3523 :   if (hostint == ERROR)
; 3524 :   { host = NULL;
; 3525 :     soap->errnum = soap_errno;
; 3526 :   }
; 3527 : #else
; 3528 : #ifdef AS400
; 3529 :   if (!(host = gethostbyname((void*)addr)))
; 3530 :     soap->errnum = h_errno;
; 3531 : #else
; 3532 :   if (!(host = gethostbyname(addr)))

	push	esi
	call	_gethostbyname@4
	test	eax, eax
	jne	SHORT $LN1@tcp_gethos

; 3533 :     soap->errnum = h_errno;

	call	_WSAGetLastError@0
	mov	edx, DWORD PTR _soap$[esp]
	mov	DWORD PTR [edx+90468], eax

; 3534 : #endif
; 3535 : #endif
; 3536 :   if (!host)
; 3537 :   { DBGLOG(TEST, SOAP_MESSAGE(fdebug, "Host name not found\n"));
; 3538 :     return SOAP_ERR;

	or	eax, -1
	pop	esi

; 3546 : }

	ret	0
$LN1@tcp_gethos:

; 3539 :   }
; 3540 : #ifdef VXWORKS
; 3541 :   inaddr->s_addr = hostint;
; 3542 : #else
; 3543 :   memcpy(inaddr, host->h_addr, host->h_length);

	movsx	ecx, WORD PTR [eax+10]
	mov	edx, DWORD PTR [eax+12]
	mov	eax, DWORD PTR [edx]
	push	ecx
	mov	ecx, DWORD PTR _inaddr$[esp+4]
	push	eax
	push	ecx
	call	_memcpy
	add	esp, 12					; 0000000cH

; 3544 : #endif
; 3545 :   return SOAP_OK;

	xor	eax, eax
	pop	esi

; 3546 : }

	ret	0
_tcp_gethost ENDP
_TEXT	ENDS
PUBLIC	__$ArrayPad$
EXTRN	___security_cookie:DWORD
; Function compile flags: /Ogtpy
_TEXT	SEGMENT
_w$79630 = -412						; size = 400
__$ArrayPad$ = -8					; size = 4
_tcp_init PROC

; 3282 : { soap->errmode = 1;

	sub	esp, 412				; 0000019cH
	mov	eax, DWORD PTR ___security_cookie
	xor	eax, esp
	mov	DWORD PTR __$ArrayPad$[esp+412], eax

; 3283 : #ifdef WIN32
; 3284 :   if (tcp_done)
; 3285 :     return 0;
; 3286 :   else
; 3287 :   { WSADATA w;
; 3288 :     if (WSAStartup(MAKEWORD(1, 1), &w))

	lea	eax, DWORD PTR _w$79630[esp+412]
	push	eax
	push	257					; 00000101H
	call	_WSAStartup@8
	test	eax, eax
	je	SHORT $LN1@tcp_init

; 3289 :       return -1;

	or	eax, -1

; 3290 :     tcp_done = 1;
; 3291 :   }
; 3292 : #endif
; 3293 :   return 0;
; 3294 : }

	mov	ecx, DWORD PTR __$ArrayPad$[esp+412]
	xor	ecx, esp
	call	@__security_check_cookie@4
	add	esp, 412				; 0000019cH
	ret	0
$LN1@tcp_init:
	mov	ecx, DWORD PTR __$ArrayPad$[esp+412]
	xor	ecx, esp
	mov	DWORD PTR _tcp_done, 1
	xor	eax, eax
	call	@__security_check_cookie@4
	add	esp, 412				; 0000019cH
	ret	0
_tcp_init ENDP
_TEXT	ENDS
PUBLIC	_soap_tag_cmp
; Function compile flags: /Ogtpy
_TEXT	SEGMENT
_s$ = 8							; size = 4
_t$ = 12						; size = 4
_soap_tag_cmp PROC

; 2809 : { for (;;)

	push	ebx
	push	esi

; 2810 :   { register int c1 = *s;

	mov	esi, DWORD PTR _s$[esp+4]
	movsx	eax, BYTE PTR [esi]
	push	edi

; 2811 :     register int c2 = *t;

	mov	edi, DWORD PTR _t$[esp+8]
	movsx	ecx, BYTE PTR [edi]

; 2812 :     if (!c1 || c1 == '"')

	test	eax, eax
	je	$LN4@soap_tag_c
	npad	7
$LL19@soap_tag_c:
	cmp	eax, 34					; 00000022H
	je	$LN4@soap_tag_c

; 2813 :       break;
; 2814 :     if (c2 != '-')

	cmp	ecx, 45					; 0000002dH
	je	SHORT $LN11@soap_tag_c

; 2815 :     { if (c1 != c2)

	cmp	eax, ecx
	je	SHORT $LN11@soap_tag_c

; 2816 :       { if (c1 >= 'A' && c1 <= 'Z')

	lea	edx, DWORD PTR [eax-65]
	cmp	edx, 25					; 00000019H
	ja	SHORT $LN13@soap_tag_c

; 2817 :           c1 += 'a' - 'A';

	add	eax, 32					; 00000020H
$LN13@soap_tag_c:

; 2818 :         if (c2 >= 'A' && c2 <= 'Z')

	lea	edx, DWORD PTR [ecx-65]
	cmp	edx, 25					; 00000019H
	ja	SHORT $LN12@soap_tag_c

; 2819 :           c2 += 'a' - 'A';

	add	ecx, 32					; 00000020H
$LN12@soap_tag_c:

; 2820 :       }
; 2821 :       if (c1 != c2)

	cmp	eax, ecx
	jne	SHORT $LN25@soap_tag_c
$LN11@soap_tag_c:

; 2810 :   { register int c1 = *s;

	movsx	eax, BYTE PTR [esi+1]

; 2811 :     register int c2 = *t;

	movsx	ecx, BYTE PTR [edi+1]

; 2838 :         }
; 2839 :         break;
; 2840 :       }
; 2841 :     }
; 2842 :     s++;

	inc	esi

; 2843 :     t++;

	inc	edi
	test	eax, eax
	jne	SHORT $LL19@soap_tag_c

; 2835 :           if (c1 == c2 && !soap_tag_cmp(s + 1, t + 1))

	jmp	SHORT $LN4@soap_tag_c
$LN25@soap_tag_c:

; 2822 :       { if (c2 != '*')

	cmp	ecx, 42					; 0000002aH
	je	SHORT $LN10@soap_tag_c
	pop	edi
	pop	esi

; 2823 :           return 1;

	mov	eax, 1
	pop	ebx

; 2848 : }

	ret	0
$LN10@soap_tag_c:

; 2824 :         c2 = *++t;

	movsx	ebx, BYTE PTR [edi+1]
	inc	edi

; 2825 :         if (!c2)

	test	ebx, ebx
	jne	SHORT $LN9@soap_tag_c
$LN27@soap_tag_c:
	pop	edi
	pop	esi

; 2826 :           return 0;

	xor	eax, eax
	pop	ebx

; 2848 : }

	ret	0
$LN9@soap_tag_c:

; 2827 :         if (c2 >= 'A' && c2 <= 'Z')

	lea	eax, DWORD PTR [ebx-65]
	cmp	eax, 25					; 00000019H
	ja	SHORT $LN23@soap_tag_c

; 2828 :           c2 += 'a' - 'A';

	add	ebx, 32					; 00000020H
$LN23@soap_tag_c:

; 2829 :         for (;;)
; 2830 :         { c1 = *s;

	movsx	eax, BYTE PTR [esi]

; 2831 :           if (!c1 || c1 == '"')

	test	eax, eax
	je	SHORT $LN4@soap_tag_c
	npad	5
$LL7@soap_tag_c:
	cmp	eax, 34					; 00000022H
	je	SHORT $LN4@soap_tag_c

; 2832 :             break;
; 2833 :           if (c1 >= 'A' && c1 <= 'Z')

	lea	ecx, DWORD PTR [eax-65]
	cmp	ecx, 25					; 00000019H
	ja	SHORT $LN3@soap_tag_c

; 2834 :             c1 += 'a' - 'A';

	add	eax, 32					; 00000020H
$LN3@soap_tag_c:

; 2835 :           if (c1 == c2 && !soap_tag_cmp(s + 1, t + 1))

	cmp	eax, ebx
	jne	SHORT $LN2@soap_tag_c
	lea	edx, DWORD PTR [edi+1]
	push	edx
	lea	eax, DWORD PTR [esi+1]
	push	eax
	call	_soap_tag_cmp
	add	esp, 8
	test	eax, eax
	je	SHORT $LN27@soap_tag_c
$LN2@soap_tag_c:

; 2829 :         for (;;)
; 2830 :         { c1 = *s;

	movsx	eax, BYTE PTR [esi+1]

; 2836 :             return 0;
; 2837 :           s++;

	inc	esi
	test	eax, eax
	jne	SHORT $LL7@soap_tag_c
$LN4@soap_tag_c:

; 2844 :   }
; 2845 :   if (*t == '*' && !t[1])

	mov	al, BYTE PTR [edi]
	cmp	al, 42					; 0000002aH
	jne	SHORT $LN1@soap_tag_c
	cmp	BYTE PTR [edi+1], 0

; 2846 :     return 0;

	je	SHORT $LN27@soap_tag_c
$LN1@soap_tag_c:
	pop	edi
	pop	esi

; 2847 :   return *t;

	movsx	eax, al
	pop	ebx

; 2848 : }

	ret	0
_soap_tag_cmp ENDP
_TEXT	ENDS
PUBLIC	_soap_match_namespace
; Function compile flags: /Ogtpy
_TEXT	SEGMENT
_soap$ = 8						; size = 4
_id1$ = 12						; size = 4
_id2$ = 16						; size = 4
_n2$ = 20						; size = 4
_soap_match_namespace PROC
; _n1$ = eax

; 2755 : { register struct soap_nlist *np = soap->nlist;

	push	ebx
	mov	ebx, DWORD PTR _id1$[esp]
	push	ebp
	mov	ebp, DWORD PTR _soap$[esp+4]
	push	esi
	mov	esi, DWORD PTR [ebp+88]
	push	edi
	mov	edi, eax

; 2756 :   while (np && (strncmp(np->id, id1, n1) || np->id[n1]))

	test	esi, esi
	je	SHORT $LN5@soap_match@2
$LL8@soap_match@2:
	push	edi
	lea	eax, DWORD PTR [esi+16]
	push	ebx
	push	eax
	call	_strncmp
	add	esp, 12					; 0000000cH
	test	eax, eax
	jne	SHORT $LN6@soap_match@2
	cmp	BYTE PTR [esi+edi+16], al
	je	SHORT $LN7@soap_match@2
$LN6@soap_match@2:

; 2757 :     np = np->next;

	mov	esi, DWORD PTR [esi]
	test	esi, esi
	jne	SHORT $LL8@soap_match@2
$LN5@soap_match@2:

; 2765 :   }
; 2766 :   if (n1 == 3 && n1 == n2 && !strncmp(id1, "xml", 3) && !strncmp(id1, id2, 3))

	cmp	edi, 3
	jne	SHORT $LN1@soap_match@2
	cmp	DWORD PTR _n2$[esp+12], edi
	jne	SHORT $LN1@soap_match@2
	push	edi
	push	OFFSET ??_C@_03PJHHNEEI@xml?$AA@
	push	ebx
	call	_strncmp
	add	esp, 12					; 0000000cH
	test	eax, eax
	jne	SHORT $LN1@soap_match@2
	mov	edx, DWORD PTR _id2$[esp+12]
	push	edi
	push	edx
	push	ebx
	call	_strncmp
	add	esp, 12					; 0000000cH
	test	eax, eax

; 2767 :     return SOAP_OK;

	je	SHORT $LN4@soap_match@2
$LN1@soap_match@2:
	pop	edi

; 2768 :   return soap->error = SOAP_SYNTAX_ERROR;

	mov	eax, 5
	pop	esi
	mov	DWORD PTR [ebp+90460], eax
	pop	ebp
	pop	ebx

; 2769 : }

	ret	0
$LN7@soap_match@2:

; 2758 :   if (np)

	test	esi, esi
	je	SHORT $LN5@soap_match@2

; 2759 :   { if (np->index < 0
; 2760 :      || (soap->local_namespaces[np->index].id
; 2761 :       && (strncmp(soap->local_namespaces[np->index].id, id2, n2)
; 2762 :        || soap->local_namespaces[np->index].id[n2])))

	movzx	eax, WORD PTR [esi+8]
	test	ax, ax
	jl	SHORT $LN2@soap_match@2
	mov	edx, DWORD PTR [ebp+84]
	movsx	ecx, ax
	shl	ecx, 4
	mov	eax, DWORD PTR [ecx+edx]
	test	eax, eax
	je	SHORT $LN4@soap_match@2
	mov	edi, DWORD PTR _n2$[esp+12]
	mov	ecx, DWORD PTR _id2$[esp+12]
	push	edi
	push	ecx
	push	eax
	call	_strncmp
	add	esp, 12					; 0000000cH
	test	eax, eax
	jne	SHORT $LN2@soap_match@2
	movsx	edx, WORD PTR [esi+8]
	mov	eax, DWORD PTR [ebp+84]
	shl	edx, 4
	mov	ecx, DWORD PTR [edx+eax]
	cmp	BYTE PTR [edi+ecx], 0
	jne	SHORT $LN2@soap_match@2
$LN4@soap_match@2:
	pop	edi
	pop	esi
	pop	ebp

; 2764 :     return SOAP_OK;

	xor	eax, eax
	pop	ebx

; 2769 : }

	ret	0
$LN2@soap_match@2:
	pop	edi
	pop	esi
	pop	ebp

; 2763 :       return SOAP_NAMESPACE;

	mov	eax, 9
	pop	ebx

; 2769 : }

	ret	0
_soap_match_namespace ENDP
_TEXT	ENDS
PUBLIC	_soap_pop_namespace
; Function compile flags: /Ogtpy
_TEXT	SEGMENT
_soap_pop_namespace PROC
; _soap$ = edi

; 2740 :   for (np = soap->nlist; np && np->level >= soap->level; np = nq)

	mov	eax, DWORD PTR [edi+88]
	test	eax, eax
	je	SHORT $LN8@soap_pop_n
	push	esi
	npad	8
$LL3@soap_pop_n:
	mov	ecx, DWORD PTR [eax+4]
	cmp	ecx, DWORD PTR [edi+12444]
	jb	SHORT $LN9@soap_pop_n

; 2741 :   { nq = np->next;

	mov	esi, DWORD PTR [eax]

; 2742 :     DBGLOG(TEST, SOAP_MESSAGE(fdebug, "Pop namespace binding (level=%u) '%s'\n", soap->level, np->id));
; 2743 :     SOAP_FREE(soap, np);

	push	eax
	call	_free
	add	esp, 4
	mov	eax, esi
	test	esi, esi
	jne	SHORT $LL3@soap_pop_n
$LN9@soap_pop_n:
	pop	esi
$LN8@soap_pop_n:

; 2744 :   }
; 2745 :   soap->nlist = np;

	mov	DWORD PTR [edi+88], eax

; 2746 : }

	ret	0
_soap_pop_namespace ENDP
_TEXT	ENDS
PUBLIC	_soap_push_namespace
; Function compile flags: /Ogtpy
_TEXT	SEGMENT
_i$ = -8						; size = 2
_n$ = -4						; size = 4
_soap$ = 8						; size = 4
_id$ = 12						; size = 4
_soap_push_namespace PROC
; _ns$ = edi

; 2678 : { register struct soap_nlist *np;

	sub	esp, 8

; 2679 :   register struct Namespace *p;
; 2680 :   register short i = -1;
; 2681 :   register size_t n, k;
; 2682 :   n = strlen(id);

	mov	eax, DWORD PTR _id$[esp+4]
	mov	DWORD PTR _i$[esp+8], -1
	lea	edx, DWORD PTR [eax+1]
$LL33@soap_push_:
	mov	cl, BYTE PTR [eax]
	inc	eax
	test	cl, cl
	jne	SHORT $LL33@soap_push_
	sub	eax, edx
	mov	DWORD PTR _n$[esp+8], eax

; 2683 :   k = strlen(ns) + 1;

	mov	eax, edi
	lea	edx, DWORD PTR [eax+1]
$LL34@soap_push_:
	mov	cl, BYTE PTR [eax]
	inc	eax
	test	cl, cl
	jne	SHORT $LL34@soap_push_
	sub	eax, edx
	push	ebp
	lea	ebp, DWORD PTR [eax+1]

; 2684 :   p = soap->local_namespaces;

	mov	eax, DWORD PTR _soap$[esp+8]
	push	esi
	mov	esi, DWORD PTR [eax+84]

; 2685 :   if (p)

	test	esi, esi
	je	$LN4@soap_push_

; 2686 :   { for (i = 0; p->id; p++, i++)

	cmp	DWORD PTR [esi], 0
	mov	DWORD PTR _i$[esp+16], 0
	je	$LN46@soap_push_
$LL17@soap_push_:

; 2687 :     { if (p->ns && !strcmp(ns, p->ns))

	mov	ecx, DWORD PTR [esi+4]
	test	ecx, ecx
	je	SHORT $LN14@soap_push_
	mov	eax, edi
	npad	6
$LL35@soap_push_:
	mov	dl, BYTE PTR [eax]
	cmp	dl, BYTE PTR [ecx]
	jne	SHORT $LN36@soap_push_
	test	dl, dl
	je	SHORT $LN37@soap_push_
	mov	dl, BYTE PTR [eax+1]
	cmp	dl, BYTE PTR [ecx+1]
	jne	SHORT $LN36@soap_push_
	add	eax, 2
	add	ecx, 2
	test	dl, dl
	jne	SHORT $LL35@soap_push_
$LN37@soap_push_:
	xor	eax, eax
	jmp	SHORT $LN38@soap_push_
$LN36@soap_push_:
	sbb	eax, eax
	sbb	eax, -1
$LN38@soap_push_:
	test	eax, eax
	je	SHORT $LN28@soap_push_
$LN14@soap_push_:

; 2693 :       }
; 2694 :       if (p->out)

	mov	ecx, DWORD PTR [esi+12]
	test	ecx, ecx
	je	SHORT $LN12@soap_push_

; 2695 :       { if (!strcmp(ns, p->out))

	mov	eax, edi
$LL39@soap_push_:
	mov	dl, BYTE PTR [eax]
	cmp	dl, BYTE PTR [ecx]
	jne	SHORT $LN40@soap_push_
	test	dl, dl
	je	SHORT $LN41@soap_push_
	mov	dl, BYTE PTR [eax+1]
	cmp	dl, BYTE PTR [ecx+1]
	jne	SHORT $LN40@soap_push_
	add	eax, 2
	add	ecx, 2
	test	dl, dl
	jne	SHORT $LL39@soap_push_
$LN41@soap_push_:
	xor	eax, eax
	jmp	SHORT $LN42@soap_push_
$LN40@soap_push_:
	sbb	eax, eax
	sbb	eax, -1
$LN42@soap_push_:
	test	eax, eax
	je	SHORT $LN43@soap_push_

; 2696 :           break;
; 2697 :       }

	jmp	SHORT $LN16@soap_push_
$LN12@soap_push_:

; 2698 :       else if (p->in)

	mov	eax, DWORD PTR [esi+8]
	test	eax, eax
	je	SHORT $LN16@soap_push_

; 2699 :       { if (!soap_tag_cmp(ns, p->in))

	push	eax
	push	edi
	call	_soap_tag_cmp
	add	esp, 8
	test	eax, eax
	je	SHORT $LN30@soap_push_
$LN16@soap_push_:

; 2686 :   { for (i = 0; p->id; p++, i++)

	inc	DWORD PTR _i$[esp+16]
	add	esi, 16					; 00000010H
	cmp	DWORD PTR [esi], 0
	jne	$LL17@soap_push_

; 2699 :       { if (!soap_tag_cmp(ns, p->in))

	jmp	SHORT $LN43@soap_push_
$LN28@soap_push_:

; 2688 :       { if (p->out)

	mov	eax, DWORD PTR [esi+12]
	test	eax, eax
	je	SHORT $LN43@soap_push_

; 2689 :         { SOAP_FREE(soap, p->out);

	push	eax
	call	_free
	add	esp, 4

; 2690 :           p->out = NULL;

	mov	DWORD PTR [esi+12], 0

; 2691 :         }
; 2692 :         break;

	jmp	SHORT $LN43@soap_push_
$LN30@soap_push_:

; 2700 :         { if ((p->out = (char*)SOAP_MALLOC(soap, k)))

	push	ebp
	call	_malloc
	add	esp, 4
	mov	DWORD PTR [esi+12], eax
	test	eax, eax
	je	SHORT $LN43@soap_push_

; 2701 :             strcpy(p->out, ns);

	mov	ecx, edi
	mov	edx, eax
$LL21@soap_push_:
