; Listing generated by Microsoft (R) Optimizing Compiler Version 15.00.30729.01 

	TITLE	c:\Users\CriuS\Documents\Visual Studio 2008\Projects\DRAMsimIIhg\src\System.cpp
	.686P
	.XMM
	include listing.inc
	.model	flat

INCLUDELIB OLDNAMES

PUBLIC	??_R4System@DRAMsimII@@6B@			; DRAMsimII::System::`RTTI Complete Object Locator'
PUBLIC	?nextTick@System@DRAMsimII@@UBE_JXZ		; DRAMsimII::System::nextTick
PUBLIC	?printStatistics@System@DRAMsimII@@MAEXXZ	; DRAMsimII::System::printStatistics
PUBLIC	?doPowerCalculation@System@DRAMsimII@@MAEXXZ	; DRAMsimII::System::doPowerCalculation
PUBLIC	?rfind@?$basic_string@DU?$char_traits@D@std@@V?$allocator@D@2@@std@@QBEIPBDII@Z ; std::basic_string<char,std::char_traits<char>,std::allocator<char> >::rfind
PUBLIC	?find_last_of@?$basic_string@DU?$char_traits@D@std@@V?$allocator@D@2@@std@@QBEIDI@Z ; std::basic_string<char,std::char_traits<char>,std::allocator<char> >::find_last_of
PUBLIC	??0?$basic_string@DU?$char_traits@D@std@@V?$allocator@D@2@@std@@QAE@ABV01@IIABV?$allocator@D@1@@Z ; std::basic_string<char,std::char_traits<char>,std::allocator<char> >::basic_string<char,std::char_traits<char>,std::allocator<char> >
PUBLIC	?get_allocator@?$basic_string@DU?$char_traits@D@std@@V?$allocator@D@2@@std@@QBE?AV?$allocator@D@2@XZ ; std::basic_string<char,std::char_traits<char>,std::allocator<char> >::get_allocator
PUBLIC	?substr@?$basic_string@DU?$char_traits@D@std@@V?$allocator@D@2@@std@@QBE?AV12@II@Z ; std::basic_string<char,std::char_traits<char>,std::allocator<char> >::substr
PUBLIC	?setChannelID@Channel@DRAMsimII@@QAEXI@Z	; DRAMsimII::Channel::setChannelID
PUBLIC	?_Checked_iterator_base@?$_Vector_const_iterator@V?$vector@U?$pair@II@std@@V?$allocator@U?$pair@II@std@@@2@@std@@V?$allocator@V?$vector@U?$pair@II@std@@V?$allocator@U?$pair@II@std@@@2@@std@@@2@@std@@QBEPBV?$vector@U?$pair@II@std@@V?$allocator@U?$pair@II@std@@@2@@2@XZ ; std::_Vector_const_iterator<std::vector<std::pair<unsigned int,unsigned int>,std::allocator<std::pair<unsigned int,unsigned int> > >,std::allocator<std::vector<std::pair<unsigned int,unsigned int>,std::allocator<std::pair<unsigned int,unsigned int> > > > >::_Checked_iterator_base
PUBLIC	??$_Checked_base@V?$_Vector_const_iterator@V?$vector@U?$pair@II@std@@V?$allocator@U?$pair@II@std@@@2@@std@@V?$allocator@V?$vector@U?$pair@II@std@@V?$allocator@U?$pair@II@std@@@2@@std@@@2@@std@@U_Different_checked_iterator_base_type_tag@2@@std@@YAPBV?$vector@U?$pair@II@std@@V?$allocator@U?$pair@II@std@@@2@@0@AAV?$_Vector_const_iterator@V?$vector@U?$pair@II@std@@V?$allocator@U?$pair@II@std@@@2@@std@@V?$allocator@V?$vector@U?$pair@II@std@@V?$allocator@U?$pair@II@std@@@2@@std@@@2@@0@U_Different_checked_iterator_base_type_tag@0@@Z ; std::_Checked_base<std::_Vector_const_iterator<std::vector<std::pair<unsigned int,unsigned int>,std::allocator<std::pair<unsigned int,unsigned int> > >,std::allocator<std::vector<std::pair<unsigned int,unsigned int>,std::allocator<std::pair<unsigned int,unsigned int> > > > >,std::_Different_checked_iterator_base_type_tag>
PUBLIC	??$_Checked_base@V?$_Vector_const_iterator@V?$vector@U?$pair@II@std@@V?$allocator@U?$pair@II@std@@@2@@std@@V?$allocator@V?$vector@U?$pair@II@std@@V?$allocator@U?$pair@II@std@@@2@@std@@@2@@std@@@std@@YAPBV?$vector@U?$pair@II@std@@V?$allocator@U?$pair@II@std@@@2@@0@AAV?$_Vector_const_iterator@V?$vector@U?$pair@II@std@@V?$allocator@U?$pair@II@std@@@2@@std@@V?$allocator@V?$vector@U?$pair@II@std@@V?$allocator@U?$pair@II@std@@@2@@std@@@2@@0@@Z ; std::_Checked_base<std::_Vector_const_iterator<std::vector<std::pair<unsigned int,unsigned int>,std::allocator<std::pair<unsigned int,unsigned int> > >,std::allocator<std::vector<std::pair<unsigned int,unsigned int>,std::allocator<std::pair<unsigned int,unsigned int> > > > > >
PUBLIC	??$_Ptr_cat@V?$_Vector_const_iterator@V?$vector@U?$pair@II@std@@V?$allocator@U?$pair@II@std@@@2@@std@@V?$allocator@V?$vector@U?$pair@II@std@@V?$allocator@U?$pair@II@std@@@2@@std@@@2@@std@@PAV?$vector@U?$pair@II@std@@V?$allocator@U?$pair@II@std@@@2@@2@@std@@YA?AU_Nonscalar_ptr_iterator_tag@0@AAV?$_Vector_const_iterator@V?$vector@U?$pair@II@std@@V?$allocator@U?$pair@II@std@@@2@@std@@V?$allocator@V?$vector@U?$pair@II@std@@V?$allocator@U?$pair@II@std@@@2@@std@@@2@@0@AAPAV?$vector@U?$pair@II@std@@V?$allocator@U?$pair@II@std@@@2@@0@@Z ; std::_Ptr_cat<std::_Vector_const_iterator<std::vector<std::pair<unsigned int,unsigned int>,std::allocator<std::pair<unsigned int,unsigned int> > >,std::allocator<std::vector<std::pair<unsigned int,unsigned int>,std::allocator<std::pair<unsigned int,unsigned int> > > > >,std::vector<std::pair<unsigned int,unsigned int>,std::allocator<std::pair<unsigned int,unsigned int> > > *>
PUBLIC	??$_Uninit_copy@PBV?$vector@U?$pair@II@std@@V?$allocator@U?$pair@II@std@@@2@@std@@PAV12@V?$allocator@V?$vector@U?$pair@II@std@@V?$allocator@U?$pair@II@std@@@2@@std@@@2@@std@@YAPAV?$vector@U?$pair@II@std@@V?$allocator@U?$pair@II@std@@@2@@0@PBV10@0PAV10@AAV?$allocator@V?$vector@U?$pair@II@std@@V?$allocator@U?$pair@II@std@@@2@@std@@@0@U_Nonscalar_ptr_iterator_tag@0@U_Range_checked_iterator_tag@0@@Z ; std::_Uninit_copy<std::vector<std::pair<unsigned int,unsigned int>,std::allocator<std::pair<unsigned int,unsigned int> > > const *,std::vector<std::pair<unsigned int,unsigned int>,std::allocator<std::pair<unsigned int,unsigned int> > > *,std::allocator<std::vector<std::pair<unsigned int,unsigned int>,std::allocator<std::pair<unsigned int,unsigned int> > > > >
PUBLIC	??$unchecked_uninitialized_copy@V?$_Vector_const_iterator@V?$vector@U?$pair@II@std@@V?$allocator@U?$pair@II@std@@@2@@std@@V?$allocator@V?$vector@U?$pair@II@std@@V?$allocator@U?$pair@II@std@@@2@@std@@@2@@std@@PAV?$vector@U?$pair@II@std@@V?$allocator@U?$pair@II@std@@@2@@2@V?$allocator@V?$vector@U?$pair@II@std@@V?$allocator@U?$pair@II@std@@@2@@std@@@2@@stdext@@YAPAV?$vector@U?$pair@II@std@@V?$allocator@U?$pair@II@std@@@2@@std@@V?$_Vector_const_iterator@V?$vector@U?$pair@II@std@@V?$allocator@U?$pair@II@std@@@2@@std@@V?$allocator@V?$vector@U?$pair@II@std@@V?$allocator@U?$pair@II@std@@@2@@std@@@2@@2@0PAV12@AAV?$allocator@V?$vector@U?$pair@II@std@@V?$allocator@U?$pair@II@std@@@2@@std@@@2@@Z ; stdext::unchecked_uninitialized_copy<std::_Vector_const_iterator<std::vector<std::pair<unsigned int,unsigned int>,std::allocator<std::pair<unsigned int,unsigned int> > >,std::allocator<std::vector<std::pair<unsigned int,unsigned int>,std::allocator<std::pair<unsigned int,unsigned int> > > > >,std::vector<std::pair<unsigned int,unsigned int>,std::allocator<std::pair<unsigned int,unsigned int> > > *,std::allocator<std::vector<std::pair<unsigned int,unsigned int>,std::allocator<std::pair<unsigned int,unsigned int> > > > >
PUBLIC	??$_Ucopy@V?$_Vector_const_iterator@V?$vector@U?$pair@II@std@@V?$allocator@U?$pair@II@std@@@2@@std@@V?$allocator@V?$vector@U?$pair@II@std@@V?$allocator@U?$pair@II@std@@@2@@std@@@2@@std@@@?$vector@V?$vector@U?$pair@II@std@@V?$allocator@U?$pair@II@std@@@2@@std@@V?$allocator@V?$vector@U?$pair@II@std@@V?$allocator@U?$pair@II@std@@@2@@std@@@2@@std@@IAEPAV?$vector@U?$pair@II@std@@V?$allocator@U?$pair@II@std@@@2@@1@V?$_Vector_const_iterator@V?$vector@U?$pair@II@std@@V?$allocator@U?$pair@II@std@@@2@@std@@V?$allocator@V?$vector@U?$pair@II@std@@V?$allocator@U?$pair@II@std@@@2@@std@@@2@@1@0PAV21@@Z ; std::vector<std::vector<std::pair<unsigned int,unsigned int>,std::allocator<std::pair<unsigned int,unsigned int> > >,std::allocator<std::vector<std::pair<unsigned int,unsigned int>,std::allocator<std::pair<unsigned int,unsigned int> > > > >::_Ucopy<std::_Vector_const_iterator<std::vector<std::pair<unsigned int,unsigned int>,std::allocator<std::pair<unsigned int,unsigned int> > >,std::allocator<std::vector<std::pair<unsigned int,unsigned int>,std::allocator<std::pair<unsigned int,unsigned int> > > > > >
PUBLIC	??0?$vector@V?$vector@U?$pair@II@std@@V?$allocator@U?$pair@II@std@@@2@@std@@V?$allocator@V?$vector@U?$pair@II@std@@V?$allocator@U?$pair@II@std@@@2@@std@@@2@@std@@QAE@ABV01@@Z ; std::vector<std::vector<std::pair<unsigned int,unsigned int>,std::allocator<std::pair<unsigned int,unsigned int> > >,std::allocator<std::vector<std::pair<unsigned int,unsigned int>,std::allocator<std::pair<unsigned int,unsigned int> > > > >::vector<std::vector<std::pair<unsigned int,unsigned int>,std::allocator<std::pair<unsigned int,unsigned int> > >,std::allocator<std::vector<std::pair<unsigned int,unsigned int>,std::allocator<std::pair<unsigned int,unsigned int> > > > >
PUBLIC	?begin@?$vector@V?$vector@IV?$allocator@I@std@@@std@@V?$allocator@V?$vector@IV?$allocator@I@std@@@std@@@2@@std@@QBE?AV?$_Vector_const_iterator@V?$vector@IV?$allocator@I@std@@@std@@V?$allocator@V?$vector@IV?$allocator@I@std@@@std@@@2@@2@XZ ; std::vector<std::vector<unsigned int,std::allocator<unsigned int> >,std::allocator<std::vector<unsigned int,std::allocator<unsigned int> > > >::begin
PUBLIC	?end@?$vector@V?$vector@IV?$allocator@I@std@@@std@@V?$allocator@V?$vector@IV?$allocator@I@std@@@std@@@2@@std@@QBE?AV?$_Vector_const_iterator@V?$vector@IV?$allocator@I@std@@@std@@V?$allocator@V?$vector@IV?$allocator@I@std@@@std@@@2@@2@XZ ; std::vector<std::vector<unsigned int,std::allocator<unsigned int> >,std::allocator<std::vector<unsigned int,std::allocator<unsigned int> > > >::end
PUBLIC	?_Checked_iterator_base@?$_Vector_const_iterator@V?$vector@IV?$allocator@I@std@@@std@@V?$allocator@V?$vector@IV?$allocator@I@std@@@std@@@2@@std@@QBEPBV?$vector@IV?$allocator@I@std@@@2@XZ ; std::_Vector_const_iterator<std::vector<unsigned int,std::allocator<unsigned int> >,std::allocator<std::vector<unsigned int,std::allocator<unsigned int> > > >::_Checked_iterator_base
PUBLIC	??$_Checked_base@V?$_Vector_const_iterator@V?$vector@IV?$allocator@I@std@@@std@@V?$allocator@V?$vector@IV?$allocator@I@std@@@std@@@2@@std@@U_Different_checked_iterator_base_type_tag@2@@std@@YAPBV?$vector@IV?$allocator@I@std@@@0@AAV?$_Vector_const_iterator@V?$vector@IV?$allocator@I@std@@@std@@V?$allocator@V?$vector@IV?$allocator@I@std@@@std@@@2@@0@U_Different_checked_iterator_base_type_tag@0@@Z ; std::_Checked_base<std::_Vector_const_iterator<std::vector<unsigned int,std::allocator<unsigned int> >,std::allocator<std::vector<unsigned int,std::allocator<unsigned int> > > >,std::_Different_checked_iterator_base_type_tag>
PUBLIC	??$_Checked_base@V?$_Vector_const_iterator@V?$vector@IV?$allocator@I@std@@@std@@V?$allocator@V?$vector@IV?$allocator@I@std@@@std@@@2@@std@@@std@@YAPBV?$vector@IV?$allocator@I@std@@@0@AAV?$_Vector_const_iterator@V?$vector@IV?$allocator@I@std@@@std@@V?$allocator@V?$vector@IV?$allocator@I@std@@@std@@@2@@0@@Z ; std::_Checked_base<std::_Vector_const_iterator<std::vector<unsigned int,std::allocator<unsigned int> >,std::allocator<std::vector<unsigned int,std::allocator<unsigned int> > > > >
PUBLIC	??$_Ptr_cat@V?$_Vector_const_iterator@V?$vector@IV?$allocator@I@std@@@std@@V?$allocator@V?$vector@IV?$allocator@I@std@@@std@@@2@@std@@PAV?$vector@IV?$allocator@I@std@@@2@@std@@YA?AU_Nonscalar_ptr_iterator_tag@0@AAV?$_Vector_const_iterator@V?$vector@IV?$allocator@I@std@@@std@@V?$allocator@V?$vector@IV?$allocator@I@std@@@std@@@2@@0@AAPAV?$vector@IV?$allocator@I@std@@@0@@Z ; std::_Ptr_cat<std::_Vector_const_iterator<std::vector<unsigned int,std::allocator<unsigned int> >,std::allocator<std::vector<unsigned int,std::allocator<unsigned int> > > >,std::vector<unsigned int,std::allocator<unsigned int> > *>
PUBLIC	??$_Uninit_copy@PBV?$vector@IV?$allocator@I@std@@@std@@PAV12@V?$allocator@V?$vector@IV?$allocator@I@std@@@std@@@2@@std@@YAPAV?$vector@IV?$allocator@I@std@@@0@PBV10@0PAV10@AAV?$allocator@V?$vector@IV?$allocator@I@std@@@std@@@0@U_Nonscalar_ptr_iterator_tag@0@U_Range_checked_iterator_tag@0@@Z ; std::_Uninit_copy<std::vector<unsigned int,std::allocator<unsigned int> > const *,std::vector<unsigned int,std::allocator<unsigned int> > *,std::allocator<std::vector<unsigned int,std::allocator<unsigned int> > > >
PUBLIC	??$unchecked_uninitialized_copy@V?$_Vector_const_iterator@V?$vector@IV?$allocator@I@std@@@std@@V?$allocator@V?$vector@IV?$allocator@I@std@@@std@@@2@@std@@PAV?$vector@IV?$allocator@I@std@@@2@V?$allocator@V?$vector@IV?$allocator@I@std@@@std@@@2@@stdext@@YAPAV?$vector@IV?$allocator@I@std@@@std@@V?$_Vector_const_iterator@V?$vector@IV?$allocator@I@std@@@std@@V?$allocator@V?$vector@IV?$allocator@I@std@@@std@@@2@@2@0PAV12@AAV?$allocator@V?$vector@IV?$allocator@I@std@@@std@@@2@@Z ; stdext::unchecked_uninitialized_copy<std::_Vector_const_iterator<std::vector<unsigned int,std::allocator<unsigned int> >,std::allocator<std::vector<unsigned int,std::allocator<unsigned int> > > >,std::vector<unsigned int,std::allocator<unsigned int> > *,std::allocator<std::vector<unsigned int,std::allocator<unsigned int> > > >
PUBLIC	??$_Ucopy@V?$_Vector_const_iterator@V?$vector@IV?$allocator@I@std@@@std@@V?$allocator@V?$vector@IV?$allocator@I@std@@@std@@@2@@std@@@?$vector@V?$vector@IV?$allocator@I@std@@@std@@V?$allocator@V?$vector@IV?$allocator@I@std@@@std@@@2@@std@@IAEPAV?$vector@IV?$allocator@I@std@@@1@V?$_Vector_const_iterator@V?$vector@IV?$allocator@I@std@@@std@@V?$allocator@V?$vector@IV?$allocator@I@std@@@std@@@2@@1@0PAV21@@Z ; std::vector<std::vector<unsigned int,std::allocator<unsigned int> >,std::allocator<std::vector<unsigned int,std::allocator<unsigned int> > > >::_Ucopy<std::_Vector_const_iterator<std::vector<unsigned int,std::allocator<unsigned int> >,std::allocator<std::vector<unsigned int,std::allocator<unsigned int> > > > >
PUBLIC	??0?$vector@V?$vector@IV?$allocator@I@std@@@std@@V?$allocator@V?$vector@IV?$allocator@I@std@@@std@@@2@@std@@QAE@ABV01@@Z ; std::vector<std::vector<unsigned int,std::allocator<unsigned int> >,std::allocator<std::vector<unsigned int,std::allocator<unsigned int> > > >::vector<std::vector<unsigned int,std::allocator<unsigned int> >,std::allocator<std::vector<unsigned int,std::allocator<unsigned int> > > >
PUBLIC	?get_allocator@?$list@U?$pair@$$CBII@std@@V?$allocator@U?$pair@$$CBII@std@@@2@@std@@QBE?AV?$allocator@U?$pair@$$CBII@std@@@2@XZ ; std::list<std::pair<unsigned int const ,unsigned int>,std::allocator<std::pair<unsigned int const ,unsigned int> > >::get_allocator
PUBLIC	?get_allocator@?$_Hash@V?$_Umap_traits@IIV?$_Hash_compare@IV?$hash@I@tr1@std@@U?$equal_to@I@3@@stdext@@V?$allocator@U?$pair@$$CBII@std@@@std@@$0A@@tr1@std@@@stdext@@QBE?AV?$allocator@U?$pair@$$CBII@std@@@std@@XZ ; stdext::_Hash<std::tr1::_Umap_traits<unsigned int,unsigned int,stdext::_Hash_compare<unsigned int,std::tr1::hash<unsigned int>,std::equal_to<unsigned int> >,std::allocator<std::pair<unsigned int const ,unsigned int> >,0> >::get_allocator
PUBLIC	?begin@?$_Hash@V?$_Umap_traits@IIV?$_Hash_compare@IV?$hash@I@tr1@std@@U?$equal_to@I@3@@stdext@@V?$allocator@U?$pair@$$CBII@std@@@std@@$0A@@tr1@std@@@stdext@@QAE?AV?$_Iterator@$00@?$list@U?$pair@$$CBII@std@@V?$allocator@U?$pair@$$CBII@std@@@2@@std@@XZ ; stdext::_Hash<std::tr1::_Umap_traits<unsigned int,unsigned int,stdext::_Hash_compare<unsigned int,std::tr1::hash<unsigned int>,std::equal_to<unsigned int> >,std::allocator<std::pair<unsigned int const ,unsigned int> >,0> >::begin
PUBLIC	??Y?$_Vector_const_iterator@U_List_position@?$_Hash@V?$_Umap_traits@IIV?$_Hash_compare@IV?$hash@I@tr1@std@@U?$equal_to@I@3@@stdext@@V?$allocator@U?$pair@$$CBII@std@@@std@@$0A@@tr1@std@@@stdext@@V?$allocator@U_List_position@?$_Hash@V?$_Umap_traits@IIV?$_Hash_compare@IV?$hash@I@tr1@std@@U?$equal_to@I@3@@stdext@@V?$allocator@U?$pair@$$CBII@std@@@std@@$0A@@tr1@std@@@stdext@@@std@@@std@@QAEAAV01@H@Z ; std::_Vector_const_iterator<stdext::_Hash<std::tr1::_Umap_traits<unsigned int,unsigned int,stdext::_Hash_compare<unsigned int,std::tr1::hash<unsigned int>,std::equal_to<unsigned int> >,std::allocator<std::pair<unsigned int const ,unsigned int> >,0> >::_List_position,std::allocator<stdext::_Hash<std::tr1::_Umap_traits<unsigned int,unsigned int,stdext::_Hash_compare<unsigned int,std::tr1::hash<unsigned int>,std::equal_to<unsigned int> >,std::allocator<std::pair<unsigned int const ,unsigned int> >,0> >::_List_position> >::operator+=
PUBLIC	??Y?$_Vector_iterator@U_List_position@?$_Hash@V?$_Umap_traits@IIV?$_Hash_compare@IV?$hash@I@tr1@std@@U?$equal_to@I@3@@stdext@@V?$allocator@U?$pair@$$CBII@std@@@std@@$0A@@tr1@std@@@stdext@@V?$allocator@U_List_position@?$_Hash@V?$_Umap_traits@IIV?$_Hash_compare@IV?$hash@I@tr1@std@@U?$equal_to@I@3@@stdext@@V?$allocator@U?$pair@$$CBII@std@@@std@@$0A@@tr1@std@@@stdext@@@std@@@std@@QAEAAV01@H@Z ; std::_Vector_iterator<stdext::_Hash<std::tr1::_Umap_traits<unsigned int,unsigned int,stdext::_Hash_compare<unsigned int,std::tr1::hash<unsigned int>,std::equal_to<unsigned int> >,std::allocator<std::pair<unsigned int const ,unsigned int> >,0> >::_List_position,std::allocator<stdext::_Hash<std::tr1::_Umap_traits<unsigned int,unsigned int,stdext::_Hash_compare<unsigned int,std::tr1::hash<unsigned int>,std::equal_to<unsigned int> >,std::allocator<std::pair<unsigned int const ,unsigned int> >,0> >::_List_position> >::operator+=
PUBLIC	??H?$_Vector_iterator@U_List_position@?$_Hash@V?$_Umap_traits@IIV?$_Hash_compare@IV?$hash@I@tr1@std@@U?$equal_to@I@3@@stdext@@V?$allocator@U?$pair@$$CBII@std@@@std@@$0A@@tr1@std@@@stdext@@V?$allocator@U_List_position@?$_Hash@V?$_Umap_traits@IIV?$_Hash_compare@IV?$hash@I@tr1@std@@U?$equal_to@I@3@@stdext@@V?$allocator@U?$pair@$$CBII@std@@@std@@$0A@@tr1@std@@@stdext@@@std@@@std@@QBE?AV01@H@Z ; std::_Vector_iterator<stdext::_Hash<std::tr1::_Umap_traits<unsigned int,unsigned int,stdext::_Hash_compare<unsigned int,std::tr1::hash<unsigned int>,std::equal_to<unsigned int> >,std::allocator<std::pair<unsigned int const ,unsigned int> >,0> >::_List_position,std::allocator<stdext::_Hash<std::tr1::_Umap_traits<unsigned int,unsigned int,stdext::_Hash_compare<unsigned int,std::tr1::hash<unsigned int>,std::equal_to<unsigned int> >,std::allocator<std::pair<unsigned int const ,unsigned int> >,0> >::_List_position> >::operator+
PUBLIC	?resize@?$vector@U_List_position@?$_Hash@V?$_Umap_traits@IIV?$_Hash_compare@IV?$hash@I@tr1@std@@U?$equal_to@I@3@@stdext@@V?$allocator@U?$pair@$$CBII@std@@@std@@$0A@@tr1@std@@@stdext@@V?$allocator@U_List_position@?$_Hash@V?$_Umap_traits@IIV?$_Hash_compare@IV?$hash@I@tr1@std@@U?$equal_to@I@3@@stdext@@V?$allocator@U?$pair@$$CBII@std@@@std@@$0A@@tr1@std@@@stdext@@@std@@@std@@QAEXIU_List_position@?$_Hash@V?$_Umap_traits@IIV?$_Hash_compare@IV?$hash@I@tr1@std@@U?$equal_to@I@3@@stdext@@V?$allocator@U?$pair@$$CBII@std@@@std@@$0A@@tr1@std@@@stdext@@@Z ; std::vector<stdext::_Hash<std::tr1::_Umap_traits<unsigned int,unsigned int,stdext::_Hash_compare<unsigned int,std::tr1::hash<unsigned int>,std::equal_to<unsigned int> >,std::allocator<std::pair<unsigned int const ,unsigned int> >,0> >::_List_position,std::allocator<stdext::_Hash<std::tr1::_Umap_traits<unsigned int,unsigned int,stdext::_Hash_compare<unsigned int,std::tr1::hash<unsigned int>,std::equal_to<unsigned int> >,std::allocator<std::pair<unsigned int const ,unsigned int> >,0> >::_List_position> >::resize
PUBLIC	?_Checked_iterator_base@?$_Vector_iterator@U_List_position@?$_Hash@V?$_Umap_traits@IIV?$_Hash_compare@IV?$hash@I@tr1@std@@U?$equal_to@I@3@@stdext@@V?$allocator@U?$pair@$$CBII@std@@@std@@$0A@@tr1@std@@@stdext@@V?$allocator@U_List_position@?$_Hash@V?$_Umap_traits@IIV?$_Hash_compare@IV?$hash@I@tr1@std@@U?$equal_to@I@3@@stdext@@V?$allocator@U?$pair@$$CBII@std@@@std@@$0A@@tr1@std@@@stdext@@@std@@@std@@QBEPAU_List_position@?$_Hash@V?$_Umap_traits@IIV?$_Hash_compare@IV?$hash@I@tr1@std@@U?$equal_to@I@3@@stdext@@V?$allocator@U?$pair@$$CBII@std@@@std@@$0A@@tr1@std@@@stdext@@XZ ; std::_Vector_iterator<stdext::_Hash<std::tr1::_Umap_traits<unsigned int,unsigned int,stdext::_Hash_compare<unsigned int,std::tr1::hash<unsigned int>,std::equal_to<unsigned int> >,std::allocator<std::pair<unsigned int const ,unsigned int> >,0> >::_List_position,std::allocator<stdext::_Hash<std::tr1::_Umap_traits<unsigned int,unsigned int,stdext::_Hash_compare<unsigned int,std::tr1::hash<unsigned int>,std::equal_to<unsigned int> >,std::allocator<std::pair<unsigned int const ,unsigned int> >,0> >::_List_position> >::_Checked_iterator_base
PUBLIC	??$_Checked_base@V?$_Vector_iterator@U_List_position@?$_Hash@V?$_Umap_traits@IIV?$_Hash_compare@IV?$hash@I@tr1@std@@U?$equal_to@I@3@@stdext@@V?$allocator@U?$pair@$$CBII@std@@@std@@$0A@@tr1@std@@@stdext@@V?$allocator@U_List_position@?$_Hash@V?$_Umap_traits@IIV?$_Hash_compare@IV?$hash@I@tr1@std@@U?$equal_to@I@3@@stdext@@V?$allocator@U?$pair@$$CBII@std@@@std@@$0A@@tr1@std@@@stdext@@@std@@@std@@U_Different_checked_iterator_base_type_tag@2@@std@@YAPAU_List_position@?$_Hash@V?$_Umap_traits@IIV?$_Hash_compare@IV?$hash@I@tr1@std@@U?$equal_to@I@3@@stdext@@V?$allocator@U?$pair@$$CBII@std@@@std@@$0A@@tr1@std@@@stdext@@AAV?$_Vector_iterator@U_List_position@?$_Hash@V?$_Umap_traits@IIV?$_Hash_compare@IV?$hash@I@tr1@std@@U?$equal_to@I@3@@stdext@@V?$allocator@U?$pair@$$CBII@std@@@std@@$0A@@tr1@std@@@stdext@@V?$allocator@U_List_position@?$_Hash@V?$_Umap_traits@IIV?$_Hash_compare@IV?$hash@I@tr1@std@@U?$equal_to@I@3@@stdext@@V?$allocator@U?$pair@$$CBII@std@@@std@@$0A@@tr1@std@@@stdext@@@std@@@0@U_Different_checked_iterator_base_type_tag@0@@Z ; std::_Checked_base<std::_Vector_iterator<stdext::_Hash<std::tr1::_Umap_traits<unsigned int,unsigned int,stdext::_Hash_compare<unsigned int,std::tr1::hash<unsigned int>,std::equal_to<unsigned int> >,std::allocator<std::pair<unsigned int const ,unsigned int> >,0> >::_List_position,std::allocator<stdext::_Hash<std::tr1::_Umap_traits<unsigned int,unsigned int,stdext::_Hash_compare<unsigned int,std::tr1::hash<unsigned int>,std::equal_to<unsigned int> >,std::allocator<std::pair<unsigned int const ,unsigned int> >,0> >::_List_position> >,std::_Different_checked_iterator_base_type_tag>
PUBLIC	??$_Checked_base@V?$_Vector_iterator@U_List_position@?$_Hash@V?$_Umap_traits@IIV?$_Hash_compare@IV?$hash@I@tr1@std@@U?$equal_to@I@3@@stdext@@V?$allocator@U?$pair@$$CBII@std@@@std@@$0A@@tr1@std@@@stdext@@V?$allocator@U_List_position@?$_Hash@V?$_Umap_traits@IIV?$_Hash_compare@IV?$hash@I@tr1@std@@U?$equal_to@I@3@@stdext@@V?$allocator@U?$pair@$$CBII@std@@@std@@$0A@@tr1@std@@@stdext@@@std@@@std@@@std@@YAPAU_List_position@?$_Hash@V?$_Umap_traits@IIV?$_Hash_compare@IV?$hash@I@tr1@std@@U?$equal_to@I@3@@stdext@@V?$allocator@U?$pair@$$CBII@std@@@std@@$0A@@tr1@std@@@stdext@@AAV?$_Vector_iterator@U_List_position@?$_Hash@V?$_Umap_traits@IIV?$_Hash_compare@IV?$hash@I@tr1@std@@U?$equal_to@I@3@@stdext@@V?$allocator@U?$pair@$$CBII@std@@@std@@$0A@@tr1@std@@@stdext@@V?$allocator@U_List_position@?$_Hash@V?$_Umap_traits@IIV?$_Hash_compare@IV?$hash@I@tr1@std@@U?$equal_to@I@3@@stdext@@V?$allocator@U?$pair@$$CBII@std@@@std@@$0A@@tr1@std@@@stdext@@@std@@@0@@Z ; std::_Checked_base<std::_Vector_iterator<stdext::_Hash<std::tr1::_Umap_traits<unsigned int,unsigned int,stdext::_Hash_compare<unsigned int,std::tr1::hash<unsigned int>,std::equal_to<unsigned int> >,std::allocator<std::pair<unsigned int const ,unsigned int> >,0> >::_List_position,std::allocator<stdext::_Hash<std::tr1::_Umap_traits<unsigned int,unsigned int,stdext::_Hash_compare<unsigned int,std::tr1::hash<unsigned int>,std::equal_to<unsigned int> >,std::allocator<std::pair<unsigned int const ,unsigned int> >,0> >::_List_position> > >
PUBLIC	??$_Fill@PAU_List_position@?$_Hash@V?$_Umap_traits@IIV?$_Hash_compare@IV?$hash@I@tr1@std@@U?$equal_to@I@3@@stdext@@V?$allocator@U?$pair@$$CBII@std@@@std@@$0A@@tr1@std@@@stdext@@V?$_Iterator@$00@?$list@U?$pair@$$CBII@std@@V?$allocator@U?$pair@$$CBII@std@@@2@@std@@@std@@YAXPAU_List_position@?$_Hash@V?$_Umap_traits@IIV?$_Hash_compare@IV?$hash@I@tr1@std@@U?$equal_to@I@3@@stdext@@V?$allocator@U?$pair@$$CBII@std@@@std@@$0A@@tr1@std@@@stdext@@0ABV?$_Iterator@$00@?$list@U?$pair@$$CBII@std@@V?$allocator@U?$pair@$$CBII@std@@@2@@0@@Z ; std::_Fill<stdext::_Hash<std::tr1::_Umap_traits<unsigned int,unsigned int,stdext::_Hash_compare<unsigned int,std::tr1::hash<unsigned int>,std::equal_to<unsigned int> >,std::allocator<std::pair<unsigned int const ,unsigned int> >,0> >::_List_position *,std::list<std::pair<unsigned int const ,unsigned int>,std::allocator<std::pair<unsigned int const ,unsigned int> > >::_Iterator<1> >
PUBLIC	??$fill@V?$_Vector_iterator@U_List_position@?$_Hash@V?$_Umap_traits@IIV?$_Hash_compare@IV?$hash@I@tr1@std@@U?$equal_to@I@3@@stdext@@V?$allocator@U?$pair@$$CBII@std@@@std@@$0A@@tr1@std@@@stdext@@V?$allocator@U_List_position@?$_Hash@V?$_Umap_traits@IIV?$_Hash_compare@IV?$hash@I@tr1@std@@U?$equal_to@I@3@@stdext@@V?$allocator@U?$pair@$$CBII@std@@@std@@$0A@@tr1@std@@@stdext@@@std@@@std@@V?$_Iterator@$00@?$list@U?$pair@$$CBII@std@@V?$allocator@U?$pair@$$CBII@std@@@2@@2@@std@@YAXV?$_Vector_iterator@U_List_position@?$_Hash@V?$_Umap_traits@IIV?$_Hash_compare@IV?$hash@I@tr1@std@@U?$equal_to@I@3@@stdext@@V?$allocator@U?$pair@$$CBII@std@@@std@@$0A@@tr1@std@@@stdext@@V?$allocator@U_List_position@?$_Hash@V?$_Umap_traits@IIV?$_Hash_compare@IV?$hash@I@tr1@std@@U?$equal_to@I@3@@stdext@@V?$allocator@U?$pair@$$CBII@std@@@std@@$0A@@tr1@std@@@stdext@@@std@@@0@0ABV?$_Iterator@$00@?$list@U?$pair@$$CBII@std@@V?$allocator@U?$pair@$$CBII@std@@@2@@0@@Z ; std::fill<std::_Vector_iterator<stdext::_Hash<std::tr1::_Umap_traits<unsigned int,unsigned int,stdext::_Hash_compare<unsigned int,std::tr1::hash<unsigned int>,std::equal_to<unsigned int> >,std::allocator<std::pair<unsigned int const ,unsigned int> >,0> >::_List_position,std::allocator<stdext::_Hash<std::tr1::_Umap_traits<unsigned int,unsigned int,stdext::_Hash_compare<unsigned int,std::tr1::hash<unsigned int>,std::equal_to<unsigned int> >,std::allocator<std::pair<unsigned int const ,unsigned int> >,0> >::_List_position> >,std::list<std::pair<unsigned int const ,unsigned int>,std::allocator<std::pair<unsigned int const ,unsigned int> > >::_Iterator<1> >
PUBLIC	?_Copy@?$_Hash@V?$_Umap_traits@IIV?$_Hash_compare@IV?$hash@I@tr1@std@@U?$equal_to@I@3@@stdext@@V?$allocator@U?$pair@$$CBII@std@@@std@@$0A@@tr1@std@@@stdext@@IAEXABV12@@Z ; stdext::_Hash<std::tr1::_Umap_traits<unsigned int,unsigned int,stdext::_Hash_compare<unsigned int,std::tr1::hash<unsigned int>,std::equal_to<unsigned int> >,std::allocator<std::pair<unsigned int const ,unsigned int> >,0> >::_Copy
PUBLIC	??0?$_Hash@V?$_Umap_traits@IIV?$_Hash_compare@IV?$hash@I@tr1@std@@U?$equal_to@I@3@@stdext@@V?$allocator@U?$pair@$$CBII@std@@@std@@$0A@@tr1@std@@@stdext@@QAE@ABV01@@Z ; stdext::_Hash<std::tr1::_Umap_traits<unsigned int,unsigned int,stdext::_Hash_compare<unsigned int,std::tr1::hash<unsigned int>,std::equal_to<unsigned int> >,std::allocator<std::pair<unsigned int const ,unsigned int> >,0> >::_Hash<std::tr1::_Umap_traits<unsigned int,unsigned int,stdext::_Hash_compare<unsigned int,std::tr1::hash<unsigned int>,std::equal_to<unsigned int> >,std::allocator<std::pair<unsigned int const ,unsigned int> >,0> >
PUBLIC	??0?$unordered_map@IIV?$hash@I@tr1@std@@U?$equal_to@I@3@V?$allocator@U?$pair@$$CBII@std@@@3@@tr1@std@@QAE@ABV012@@Z ; std::tr1::unordered_map<unsigned int,unsigned int,std::tr1::hash<unsigned int>,std::equal_to<unsigned int>,std::allocator<std::pair<unsigned int const ,unsigned int> > >::unordered_map<unsigned int,unsigned int,std::tr1::hash<unsigned int>,std::equal_to<unsigned int>,std::allocator<std::pair<unsigned int const ,unsigned int> > >
PUBLIC	?get_allocator@?$_Tree@V?$_Tmap_traits@_KVDelayCounter@Statistics@DRAMsimII@@U?$less@_K@std@@V?$allocator@U?$pair@$$CB_KVDelayCounter@Statistics@DRAMsimII@@@std@@@5@$0A@@std@@@std@@QBE?AV?$allocator@U?$pair@$$CB_KVDelayCounter@Statistics@DRAMsimII@@@std@@@2@XZ ; std::_Tree<std::_Tmap_traits<unsigned __int64,DRAMsimII::Statistics::DelayCounter,std::less<unsigned __int64>,std::allocator<std::pair<unsigned __int64 const ,DRAMsimII::Statistics::DelayCounter> >,0> >::get_allocator
PUBLIC	?key_comp@?$_Tree@V?$_Tmap_traits@_KVDelayCounter@Statistics@DRAMsimII@@U?$less@_K@std@@V?$allocator@U?$pair@$$CB_KVDelayCounter@Statistics@DRAMsimII@@@std@@@5@$0A@@std@@@std@@QBE?AU?$less@_K@2@XZ ; std::_Tree<std::_Tmap_traits<unsigned __int64,DRAMsimII::Statistics::DelayCounter,std::less<unsigned __int64>,std::allocator<std::pair<unsigned __int64 const ,DRAMsimII::Statistics::DelayCounter> >,0> >::key_comp
PUBLIC	?_Copy@?$_Tree@V?$_Tmap_traits@_KVDelayCounter@Statistics@DRAMsimII@@U?$less@_K@std@@V?$allocator@U?$pair@$$CB_KVDelayCounter@Statistics@DRAMsimII@@@std@@@5@$0A@@std@@@std@@IAEPAU_Node@?$_Tree_nod@V?$_Tmap_traits@_KVDelayCounter@Statistics@DRAMsimII@@U?$less@_K@std@@V?$allocator@U?$pair@$$CB_KVDelayCounter@Statistics@DRAMsimII@@@std@@@5@$0A@@std@@@2@PAU342@0@Z ; std::_Tree<std::_Tmap_traits<unsigned __int64,DRAMsimII::Statistics::DelayCounter,std::less<unsigned __int64>,std::allocator<std::pair<unsigned __int64 const ,DRAMsimII::Statistics::DelayCounter> >,0> >::_Copy
PUBLIC	?_Copy@?$_Tree@V?$_Tmap_traits@_KVDelayCounter@Statistics@DRAMsimII@@U?$less@_K@std@@V?$allocator@U?$pair@$$CB_KVDelayCounter@Statistics@DRAMsimII@@@std@@@5@$0A@@std@@@std@@IAEXABV12@@Z ; std::_Tree<std::_Tmap_traits<unsigned __int64,DRAMsimII::Statistics::DelayCounter,std::less<unsigned __int64>,std::allocator<std::pair<unsigned __int64 const ,DRAMsimII::Statistics::DelayCounter> >,0> >::_Copy
PUBLIC	??0?$_Tree@V?$_Tmap_traits@_KVDelayCounter@Statistics@DRAMsimII@@U?$less@_K@std@@V?$allocator@U?$pair@$$CB_KVDelayCounter@Statistics@DRAMsimII@@@std@@@5@$0A@@std@@@std@@QAE@ABV01@@Z ; std::_Tree<std::_Tmap_traits<unsigned __int64,DRAMsimII::Statistics::DelayCounter,std::less<unsigned __int64>,std::allocator<std::pair<unsigned __int64 const ,DRAMsimII::Statistics::DelayCounter> >,0> >::_Tree<std::_Tmap_traits<unsigned __int64,DRAMsimII::Statistics::DelayCounter,std::less<unsigned __int64>,std::allocator<std::pair<unsigned __int64 const ,DRAMsimII::Statistics::DelayCounter> >,0> >
PUBLIC	??0?$map@_KVDelayCounter@Statistics@DRAMsimII@@U?$less@_K@std@@V?$allocator@U?$pair@$$CB_KVDelayCounter@Statistics@DRAMsimII@@@std@@@5@@std@@QAE@ABV01@@Z ; std::map<unsigned __int64,DRAMsimII::Statistics::DelayCounter,std::less<unsigned __int64>,std::allocator<std::pair<unsigned __int64 const ,DRAMsimII::Statistics::DelayCounter> > >::map<unsigned __int64,DRAMsimII::Statistics::DelayCounter,std::less<unsigned __int64>,std::allocator<std::pair<unsigned __int64 const ,DRAMsimII::Statistics::DelayCounter> > >
PUBLIC	?get_allocator@?$_Tree@V?$_Tmap_traits@_KIU?$less@_K@std@@V?$allocator@U?$pair@$$CB_KI@std@@@2@$0A@@std@@@std@@QBE?AV?$allocator@U?$pair@$$CB_KI@std@@@2@XZ ; std::_Tree<std::_Tmap_traits<unsigned __int64,unsigned int,std::less<unsigned __int64>,std::allocator<std::pair<unsigned __int64 const ,unsigned int> >,0> >::get_allocator
PUBLIC	?key_comp@?$_Tree@V?$_Tmap_traits@_KIU?$less@_K@std@@V?$allocator@U?$pair@$$CB_KI@std@@@2@$0A@@std@@@std@@QBE?AU?$less@_K@2@XZ ; std::_Tree<std::_Tmap_traits<unsigned __int64,unsigned int,std::less<unsigned __int64>,std::allocator<std::pair<unsigned __int64 const ,unsigned int> >,0> >::key_comp
PUBLIC	?_Copy@?$_Tree@V?$_Tmap_traits@_KIU?$less@_K@std@@V?$allocator@U?$pair@$$CB_KI@std@@@2@$0A@@std@@@std@@IAEPAU_Node@?$_Tree_nod@V?$_Tmap_traits@_KIU?$less@_K@std@@V?$allocator@U?$pair@$$CB_KI@std@@@2@$0A@@std@@@2@PAU342@0@Z ; std::_Tree<std::_Tmap_traits<unsigned __int64,unsigned int,std::less<unsigned __int64>,std::allocator<std::pair<unsigned __int64 const ,unsigned int> >,0> >::_Copy
PUBLIC	?_Copy@?$_Tree@V?$_Tmap_traits@_KIU?$less@_K@std@@V?$allocator@U?$pair@$$CB_KI@std@@@2@$0A@@std@@@std@@IAEXABV12@@Z ; std::_Tree<std::_Tmap_traits<unsigned __int64,unsigned int,std::less<unsigned __int64>,std::allocator<std::pair<unsigned __int64 const ,unsigned int> >,0> >::_Copy
PUBLIC	??0?$_Tree@V?$_Tmap_traits@_KIU?$less@_K@std@@V?$allocator@U?$pair@$$CB_KI@std@@@2@$0A@@std@@@std@@QAE@ABV01@@Z ; std::_Tree<std::_Tmap_traits<unsigned __int64,unsigned int,std::less<unsigned __int64>,std::allocator<std::pair<unsigned __int64 const ,unsigned int> >,0> >::_Tree<std::_Tmap_traits<unsigned __int64,unsigned int,std::less<unsigned __int64>,std::allocator<std::pair<unsigned __int64 const ,unsigned int> >,0> >
PUBLIC	??0?$map@_KIU?$less@_K@std@@V?$allocator@U?$pair@$$CB_KI@std@@@2@@std@@QAE@ABV01@@Z ; std::map<unsigned __int64,unsigned int,std::less<unsigned __int64>,std::allocator<std::pair<unsigned __int64 const ,unsigned int> > >::map<unsigned __int64,unsigned int,std::less<unsigned __int64>,std::allocator<std::pair<unsigned __int64 const ,unsigned int> > >
PUBLIC	?_Checked_iterator_base@?$_Vector_const_iterator@V?$vector@U?$pair@U?$pair@_K_K@std@@U12@@std@@V?$allocator@U?$pair@U?$pair@_K_K@std@@U12@@std@@@2@@std@@V?$allocator@V?$vector@U?$pair@U?$pair@_K_K@std@@U12@@std@@V?$allocator@U?$pair@U?$pair@_K_K@std@@U12@@std@@@2@@std@@@2@@std@@QBEPBV?$vector@U?$pair@U?$pair@_K_K@std@@U12@@std@@V?$allocator@U?$pair@U?$pair@_K_K@std@@U12@@std@@@2@@2@XZ ; std::_Vector_const_iterator<std::vector<std::pair<std::pair<unsigned __int64,unsigned __int64>,std::pair<unsigned __int64,unsigned __int64> >,std::allocator<std::pair<std::pair<unsigned __int64,unsigned __int64>,std::pair<unsigned __int64,unsigned __int64> > > >,std::allocator<std::vector<std::pair<std::pair<unsigned __int64,unsigned __int64>,std::pair<unsigned __int64,unsigned __int64> >,std::allocator<std::pair<std::pair<unsigned __int64,unsigned __int64>,std::pair<unsigned __int64,unsigned __int64> > > > > >::_Checked_iterator_base
PUBLIC	??$_Checked_base@V?$_Vector_const_iterator@V?$vector@U?$pair@U?$pair@_K_K@std@@U12@@std@@V?$allocator@U?$pair@U?$pair@_K_K@std@@U12@@std@@@2@@std@@V?$allocator@V?$vector@U?$pair@U?$pair@_K_K@std@@U12@@std@@V?$allocator@U?$pair@U?$pair@_K_K@std@@U12@@std@@@2@@std@@@2@@std@@U_Different_checked_iterator_base_type_tag@2@@std@@YAPBV?$vector@U?$pair@U?$pair@_K_K@std@@U12@@std@@V?$allocator@U?$pair@U?$pair@_K_K@std@@U12@@std@@@2@@0@AAV?$_Vector_const_iterator@V?$vector@U?$pair@U?$pair@_K_K@std@@U12@@std@@V?$allocator@U?$pair@U?$pair@_K_K@std@@U12@@std@@@2@@std@@V?$allocator@V?$vector@U?$pair@U?$pair@_K_K@std@@U12@@std@@V?$allocator@U?$pair@U?$pair@_K_K@std@@U12@@std@@@2@@std@@@2@@0@U_Different_checked_iterator_base_type_tag@0@@Z ; std::_Checked_base<std::_Vector_const_iterator<std::vector<std::pair<std::pair<unsigned __int64,unsigned __int64>,std::pair<unsigned __int64,unsigned __int64> >,std::allocator<std::pair<std::pair<unsigned __int64,unsigned __int64>,std::pair<unsigned __int64,unsigned __int64> > > >,std::allocator<std::vector<std::pair<std::pair<unsigned __int64,unsigned __int64>,std::pair<unsigned __int64,unsigned __int64> >,std::allocator<std::pair<std::pair<unsigned __int64,unsigned __int64>,std::pair<unsigned __int64,unsigned __int64> > > > > >,std::_Different_checked_iterator_base_type_tag>
PUBLIC	??$_Checked_base@V?$_Vector_const_iterator@V?$vector@U?$pair@U?$pair@_K_K@std@@U12@@std@@V?$allocator@U?$pair@U?$pair@_K_K@std@@U12@@std@@@2@@std@@V?$allocator@V?$vector@U?$pair@U?$pair@_K_K@std@@U12@@std@@V?$allocator@U?$pair@U?$pair@_K_K@std@@U12@@std@@@2@@std@@@2@@std@@@std@@YAPBV?$vector@U?$pair@U?$pair@_K_K@std@@U12@@std@@V?$allocator@U?$pair@U?$pair@_K_K@std@@U12@@std@@@2@@0@AAV?$_Vector_const_iterator@V?$vector@U?$pair@U?$pair@_K_K@std@@U12@@std@@V?$allocator@U?$pair@U?$pair@_K_K@std@@U12@@std@@@2@@std@@V?$allocator@V?$vector@U?$pair@U?$pair@_K_K@std@@U12@@std@@V?$allocator@U?$pair@U?$pair@_K_K@std@@U12@@std@@@2@@std@@@2@@0@@Z ; std::_Checked_base<std::_Vector_const_iterator<std::vector<std::pair<std::pair<unsigned __int64,unsigned __int64>,std::pair<unsigned __int64,unsigned __int64> >,std::allocator<std::pair<std::pair<unsigned __int64,unsigned __int64>,std::pair<unsigned __int64,unsigned __int64> > > >,std::allocator<std::vector<std::pair<std::pair<unsigned __int64,unsigned __int64>,std::pair<unsigned __int64,unsigned __int64> >,std::allocator<std::pair<std::pair<unsigned __int64,unsigned __int64>,std::pair<unsigned __int64,unsigned __int64> > > > > > >
PUBLIC	??$_Ptr_cat@V?$_Vector_const_iterator@V?$vector@U?$pair@U?$pair@_K_K@std@@U12@@std@@V?$allocator@U?$pair@U?$pair@_K_K@std@@U12@@std@@@2@@std@@V?$allocator@V?$vector@U?$pair@U?$pair@_K_K@std@@U12@@std@@V?$allocator@U?$pair@U?$pair@_K_K@std@@U12@@std@@@2@@std@@@2@@std@@PAV?$vector@U?$pair@U?$pair@_K_K@std@@U12@@std@@V?$allocator@U?$pair@U?$pair@_K_K@std@@U12@@std@@@2@@2@@std@@YA?AU_Nonscalar_ptr_iterator_tag@0@AAV?$_Vector_const_iterator@V?$vector@U?$pair@U?$pair@_K_K@std@@U12@@std@@V?$allocator@U?$pair@U?$pair@_K_K@std@@U12@@std@@@2@@std@@V?$allocator@V?$vector@U?$pair@U?$pair@_K_K@std@@U12@@std@@V?$allocator@U?$pair@U?$pair@_K_K@std@@U12@@std@@@2@@std@@@2@@0@AAPAV?$vector@U?$pair@U?$pair@_K_K@std@@U12@@std@@V?$allocator@U?$pair@U?$pair@_K_K@std@@U12@@std@@@2@@0@@Z ; std::_Ptr_cat<std::_Vector_const_iterator<std::vector<std::pair<std::pair<unsigned __int64,unsigned __int64>,std::pair<unsigned __int64,unsigned __int64> >,std::allocator<std::pair<std::pair<unsigned __int64,unsigned __int64>,std::pair<unsigned __int64,unsigned __int64> > > >,std::allocator<std::vector<std::pair<std::pair<unsigned __int64,unsigned __int64>,std::pair<unsigned __int64,unsigned __int64> >,std::allocator<std::pair<std::pair<unsigned __int64,unsigned __int64>,std::pair<unsigned __int64,unsigned __int64> > > > > >,std::vector<std::pair<std::pair<unsigned __int64,unsigned __int64>,std::pair<unsigned __int64,unsigned __int64> >,std::allocator<std::pair<std::pair<unsigned __int64,unsigned __int64>,std::pair<unsigned __int64,unsigned __int64> > > > *>
PUBLIC	??$_Uninit_copy@PBV?$vector@U?$pair@U?$pair@_K_K@std@@U12@@std@@V?$allocator@U?$pair@U?$pair@_K_K@std@@U12@@std@@@2@@std@@PAV12@V?$allocator@V?$vector@U?$pair@U?$pair@_K_K@std@@U12@@std@@V?$allocator@U?$pair@U?$pair@_K_K@std@@U12@@std@@@2@@std@@@2@@std@@YAPAV?$vector@U?$pair@U?$pair@_K_K@std@@U12@@std@@V?$allocator@U?$pair@U?$pair@_K_K@std@@U12@@std@@@2@@0@PBV10@0PAV10@AAV?$allocator@V?$vector@U?$pair@U?$pair@_K_K@std@@U12@@std@@V?$allocator@U?$pair@U?$pair@_K_K@std@@U12@@std@@@2@@std@@@0@U_Nonscalar_ptr_iterator_tag@0@U_Range_checked_iterator_tag@0@@Z ; std::_Uninit_copy<std::vector<std::pair<std::pair<unsigned __int64,unsigned __int64>,std::pair<unsigned __int64,unsigned __int64> >,std::allocator<std::pair<std::pair<unsigned __int64,unsigned __int64>,std::pair<unsigned __int64,unsigned __int64> > > > const *,std::vector<std::pair<std::pair<unsigned __int64,unsigned __int64>,std::pair<unsigned __int64,unsigned __int64> >,std::allocator<std::pair<std::pair<unsigned __int64,unsigned __int64>,std::pair<unsigned __int64,unsigned __int64> > > > *,std::allocator<std::vector<std::pair<std::pair<unsigned __int64,unsigned __int64>,std::pair<unsigned __int64,unsigned __int64> >,std::allocator<std::pair<std::pair<unsigned __int64,unsigned __int64>,std::pair<unsigned __int64,unsigned __int64> > > > > >
PUBLIC	??$unchecked_uninitialized_copy@V?$_Vector_const_iterator@V?$vector@U?$pair@U?$pair@_K_K@std@@U12@@std@@V?$allocator@U?$pair@U?$pair@_K_K@std@@U12@@std@@@2@@std@@V?$allocator@V?$vector@U?$pair@U?$pair@_K_K@std@@U12@@std@@V?$allocator@U?$pair@U?$pair@_K_K@std@@U12@@std@@@2@@std@@@2@@std@@PAV?$vector@U?$pair@U?$pair@_K_K@std@@U12@@std@@V?$allocator@U?$pair@U?$pair@_K_K@std@@U12@@std@@@2@@2@V?$allocator@V?$vector@U?$pair@U?$pair@_K_K@std@@U12@@std@@V?$allocator@U?$pair@U?$pair@_K_K@std@@U12@@std@@@2@@std@@@2@@stdext@@YAPAV?$vector@U?$pair@U?$pair@_K_K@std@@U12@@std@@V?$allocator@U?$pair@U?$pair@_K_K@std@@U12@@std@@@2@@std@@V?$_Vector_const_iterator@V?$vector@U?$pair@U?$pair@_K_K@std@@U12@@std@@V?$allocator@U?$pair@U?$pair@_K_K@std@@U12@@std@@@2@@std@@V?$allocator@V?$vector@U?$pair@U?$pair@_K_K@std@@U12@@std@@V?$allocator@U?$pair@U?$pair@_K_K@std@@U12@@std@@@2@@std@@@2@@2@0PAV12@AAV?$allocator@V?$vector@U?$pair@U?$pair@_K_K@std@@U12@@std@@V?$allocator@U?$pair@U?$pair@_K_K@std@@U12@@std@@@2@@std@@@2@@Z ; stdext::unchecked_uninitialized_copy<std::_Vector_const_iterator<std::vector<std::pair<std::pair<unsigned __int64,unsigned __int64>,std::pair<unsigned __int64,unsigned __int64> >,std::allocator<std::pair<std::pair<unsigned __int64,unsigned __int64>,std::pair<unsigned __int64,unsigned __int64> > > >,std::allocator<std::vector<std::pair<std::pair<unsigned __int64,unsigned __int64>,std::pair<unsigned __int64,unsigned __int64> >,std::allocator<std::pair<std::pair<unsigned __int64,unsigned __int64>,std::pair<unsigned __int64,unsigned __int64> > > > > >,std::vector<std::pair<std::pair<unsigned __int64,unsigned __int64>,std::pair<unsigned __int64,unsigned __int64> >,std::allocator<std::pair<std::pair<unsigned __int64,unsigned __int64>,std::pair<unsigned __int64,unsigned __int64> > > > *,std::allocator<std::vector<std::pair<std::pair<unsigned __int64,unsigned __int64>,std::pair<unsigned __int64,unsigned __int64> >,std::allocator<std::pair<std::pair<unsigned __int64,unsigned __int64>,std::pair<unsigned __int64,unsigned __int64> > > > > >
PUBLIC	??$_Ucopy@V?$_Vector_const_iterator@V?$vector@U?$pair@U?$pair@_K_K@std@@U12@@std@@V?$allocator@U?$pair@U?$pair@_K_K@std@@U12@@std@@@2@@std@@V?$allocator@V?$vector@U?$pair@U?$pair@_K_K@std@@U12@@std@@V?$allocator@U?$pair@U?$pair@_K_K@std@@U12@@std@@@2@@std@@@2@@std@@@?$vector@V?$vector@U?$pair@U?$pair@_K_K@std@@U12@@std@@V?$allocator@U?$pair@U?$pair@_K_K@std@@U12@@std@@@2@@std@@V?$allocator@V?$vector@U?$pair@U?$pair@_K_K@std@@U12@@std@@V?$allocator@U?$pair@U?$pair@_K_K@std@@U12@@std@@@2@@std@@@2@@std@@IAEPAV?$vector@U?$pair@U?$pair@_K_K@std@@U12@@std@@V?$allocator@U?$pair@U?$pair@_K_K@std@@U12@@std@@@2@@1@V?$_Vector_const_iterator@V?$vector@U?$pair@U?$pair@_K_K@std@@U12@@std@@V?$allocator@U?$pair@U?$pair@_K_K@std@@U12@@std@@@2@@std@@V?$allocator@V?$vector@U?$pair@U?$pair@_K_K@std@@U12@@std@@V?$allocator@U?$pair@U?$pair@_K_K@std@@U12@@std@@@2@@std@@@2@@1@0PAV21@@Z ; std::vector<std::vector<std::pair<std::pair<unsigned __int64,unsigned __int64>,std::pair<unsigned __int64,unsigned __int64> >,std::allocator<std::pair<std::pair<unsigned __int64,unsigned __int64>,std::pair<unsigned __int64,unsigned __int64> > > >,std::allocator<std::vector<std::pair<std::pair<unsigned __int64,unsigned __int64>,std::pair<unsigned __int64,unsigned __int64> >,std::allocator<std::pair<std::pair<unsigned __int64,unsigned __int64>,std::pair<unsigned __int64,unsigned __int64> > > > > >::_Ucopy<std::_Vector_const_iterator<std::vector<std::pair<std::pair<unsigned __int64,unsigned __int64>,std::pair<unsigned __int64,unsigned __int64> >,std::allocator<std::pair<std::pair<unsigned __int64,unsigned __int64>,std::pair<unsigned __int64,unsigned __int64> > > >,std::allocator<std::vector<std::pair<std::pair<unsigned __int64,unsigned __int64>,std::pair<unsigned __int64,unsigned __int64> >,std::allocator<std::pair<std::pair<unsigned __int64,unsigned __int64>,std::pair<unsigned __int64,unsigned __int64> > > > > > >
PUBLIC	??0?$vector@V?$vector@U?$pair@U?$pair@_K_K@std@@U12@@std@@V?$allocator@U?$pair@U?$pair@_K_K@std@@U12@@std@@@2@@std@@V?$allocator@V?$vector@U?$pair@U?$pair@_K_K@std@@U12@@std@@V?$allocator@U?$pair@U?$pair@_K_K@std@@U12@@std@@@2@@std@@@2@@std@@QAE@ABV01@@Z ; std::vector<std::vector<std::pair<std::pair<unsigned __int64,unsigned __int64>,std::pair<unsigned __int64,unsigned __int64> >,std::allocator<std::pair<std::pair<unsigned __int64,unsigned __int64>,std::pair<unsigned __int64,unsigned __int64> > > >,std::allocator<std::vector<std::pair<std::pair<unsigned __int64,unsigned __int64>,std::pair<unsigned __int64,unsigned __int64> >,std::allocator<std::pair<std::pair<unsigned __int64,unsigned __int64>,std::pair<unsigned __int64,unsigned __int64> > > > > >::vector<std::vector<std::pair<std::pair<unsigned __int64,unsigned __int64>,std::pair<unsigned __int64,unsigned __int64> >,std::allocator<std::pair<std::pair<unsigned __int64,unsigned __int64>,std::pair<unsigned __int64,unsigned __int64> > > >,std::allocator<std::vector<std::pair<std::pair<unsigned __int64,unsigned __int64>,std::pair<unsigned __int64,unsigned __int64> >,std::allocator<std::pair<std::pair<unsigned __int64,unsigned __int64>,std::pair<unsigned __int64,unsigned __int64> > > > > >
PUBLIC	??0Statistics@DRAMsimII@@QAE@ABV01@@Z		; DRAMsimII::Statistics::Statistics
PUBLIC	??0?$allocator@VChannel@DRAMsimII@@@std@@QAE@XZ	; std::allocator<DRAMsimII::Channel>::allocator<DRAMsimII::Channel>
PUBLIC	??$?0VChannel@DRAMsimII@@@?$allocator@V_Aux_cont@std@@@std@@QAE@ABV?$allocator@VChannel@DRAMsimII@@@1@@Z ; std::allocator<std::_Aux_cont>::allocator<std::_Aux_cont><DRAMsimII::Channel>
PUBLIC	??0?$_Container_base_aux_alloc_real@V?$allocator@VChannel@DRAMsimII@@@std@@@std@@IAE@V?$allocator@VChannel@DRAMsimII@@@1@@Z ; std::_Container_base_aux_alloc_real<std::allocator<DRAMsimII::Channel> >::_Container_base_aux_alloc_real<std::allocator<DRAMsimII::Channel> >
PUBLIC	??0?$allocator@VChannel@DRAMsimII@@@std@@QAE@ABV01@@Z ; std::allocator<DRAMsimII::Channel>::allocator<DRAMsimII::Channel>
PUBLIC	??0?$_Vector_val@VChannel@DRAMsimII@@V?$allocator@VChannel@DRAMsimII@@@std@@@std@@IAE@V?$allocator@VChannel@DRAMsimII@@@1@@Z ; std::_Vector_val<DRAMsimII::Channel,std::allocator<DRAMsimII::Channel> >::_Vector_val<DRAMsimII::Channel,std::allocator<DRAMsimII::Channel> >
PUBLIC	??$_Uninit_fill_n@PAVChannel@DRAMsimII@@IV12@V?$allocator@VChannel@DRAMsimII@@@std@@@std@@YAXPAVChannel@DRAMsimII@@IABV12@AAV?$allocator@VChannel@DRAMsimII@@@0@U_Nonscalar_ptr_iterator_tag@0@U_Range_checked_iterator_tag@0@@Z ; std::_Uninit_fill_n<DRAMsimII::Channel *,unsigned int,DRAMsimII::Channel,std::allocator<DRAMsimII::Channel> >
PUBLIC	??$unchecked_uninitialized_fill_n@PAVChannel@DRAMsimII@@IV12@V?$allocator@VChannel@DRAMsimII@@@std@@@stdext@@YAXPAVChannel@DRAMsimII@@IABV12@AAV?$allocator@VChannel@DRAMsimII@@@std@@@Z ; stdext::unchecked_uninitialized_fill_n<DRAMsimII::Channel *,unsigned int,DRAMsimII::Channel,std::allocator<DRAMsimII::Channel> >
PUBLIC	?_Ufill@?$vector@VChannel@DRAMsimII@@V?$allocator@VChannel@DRAMsimII@@@std@@@std@@IAEPAVChannel@DRAMsimII@@PAV34@IABV34@@Z ; std::vector<DRAMsimII::Channel,std::allocator<DRAMsimII::Channel> >::_Ufill
PUBLIC	?_Construct_n@?$vector@VChannel@DRAMsimII@@V?$allocator@VChannel@DRAMsimII@@@std@@@std@@QAEXIABVChannel@DRAMsimII@@@Z ; std::vector<DRAMsimII::Channel,std::allocator<DRAMsimII::Channel> >::_Construct_n
PUBLIC	??0?$vector@VChannel@DRAMsimII@@V?$allocator@VChannel@DRAMsimII@@@std@@@std@@QAE@IABVChannel@DRAMsimII@@@Z ; std::vector<DRAMsimII::Channel,std::allocator<DRAMsimII::Channel> >::vector<DRAMsimII::Channel,std::allocator<DRAMsimII::Channel> >
PUBLIC	?capacity@?$vector@VChannel@DRAMsimII@@V?$allocator@VChannel@DRAMsimII@@@std@@@std@@QBEIXZ ; std::vector<DRAMsimII::Channel,std::allocator<DRAMsimII::Channel> >::capacity
PUBLIC	?_Make_iter@?$vector@VChannel@DRAMsimII@@V?$allocator@VChannel@DRAMsimII@@@std@@@std@@QBE?AV?$_Vector_iterator@VChannel@DRAMsimII@@V?$allocator@VChannel@DRAMsimII@@@std@@@2@V?$_Vector_const_iterator@VChannel@DRAMsimII@@V?$allocator@VChannel@DRAMsimII@@@std@@@2@@Z ; std::vector<DRAMsimII::Channel,std::allocator<DRAMsimII::Channel> >::_Make_iter
PUBLIC	?erase@?$vector@VChannel@DRAMsimII@@V?$allocator@VChannel@DRAMsimII@@@std@@@std@@QAE?AV?$_Vector_iterator@VChannel@DRAMsimII@@V?$allocator@VChannel@DRAMsimII@@@std@@@2@V?$_Vector_const_iterator@VChannel@DRAMsimII@@V?$allocator@VChannel@DRAMsimII@@@std@@@2@0@Z ; std::vector<DRAMsimII::Channel,std::allocator<DRAMsimII::Channel> >::erase
PUBLIC	?clear@?$vector@VChannel@DRAMsimII@@V?$allocator@VChannel@DRAMsimII@@@std@@@std@@QAEXXZ ; std::vector<DRAMsimII::Channel,std::allocator<DRAMsimII::Channel> >::clear
PUBLIC	??$_Allocate@VChannel@DRAMsimII@@@std@@YAPAVChannel@DRAMsimII@@IPAV12@@Z ; std::_Allocate<DRAMsimII::Channel>
PUBLIC	?allocate@?$allocator@VChannel@DRAMsimII@@@std@@QAEPAVChannel@DRAMsimII@@I@Z ; std::allocator<DRAMsimII::Channel>::allocate
PUBLIC	?max_size@?$allocator@VChannel@DRAMsimII@@@std@@QBEIXZ ; std::allocator<DRAMsimII::Channel>::max_size
PUBLIC	?max_size@?$vector@VChannel@DRAMsimII@@V?$allocator@VChannel@DRAMsimII@@@std@@@std@@QBEIXZ ; std::vector<DRAMsimII::Channel,std::allocator<DRAMsimII::Channel> >::max_size
PUBLIC	?_Xlen@?$vector@VChannel@DRAMsimII@@V?$allocator@VChannel@DRAMsimII@@@std@@@std@@KAXXZ ; std::vector<DRAMsimII::Channel,std::allocator<DRAMsimII::Channel> >::_Xlen
PUBLIC	?_Buy@?$vector@VChannel@DRAMsimII@@V?$allocator@VChannel@DRAMsimII@@@std@@@std@@IAE_NI@Z ; std::vector<DRAMsimII::Channel,std::allocator<DRAMsimII::Channel> >::_Buy
PUBLIC	??$_Iter_random@PAVChannel@DRAMsimII@@PAV12@@std@@YA?AUrandom_access_iterator_tag@0@ABQAVChannel@DRAMsimII@@0@Z ; std::_Iter_random<DRAMsimII::Channel *,DRAMsimII::Channel *>
PUBLIC	??$_Copy_opt@PAVChannel@DRAMsimII@@PAV12@Uforward_iterator_tag@std@@@std@@YAPAVChannel@DRAMsimII@@PAV12@00Uforward_iterator_tag@0@U_Nonscalar_ptr_iterator_tag@0@U_Range_checked_iterator_tag@0@@Z ; std::_Copy_opt<DRAMsimII::Channel *,DRAMsimII::Channel *,std::forward_iterator_tag>
PUBLIC	??$_Copy_opt@PAVChannel@DRAMsimII@@PAV12@@std@@YAPAVChannel@DRAMsimII@@PAV12@00Urandom_access_iterator_tag@0@U_Nonscalar_ptr_iterator_tag@0@U_Range_checked_iterator_tag@0@@Z ; std::_Copy_opt<DRAMsimII::Channel *,DRAMsimII::Channel *>
PUBLIC	??$unchecked_copy@PAVChannel@DRAMsimII@@PAV12@@stdext@@YAPAVChannel@DRAMsimII@@PAV12@00@Z ; stdext::unchecked_copy<DRAMsimII::Channel *,DRAMsimII::Channel *>
PUBLIC	??$_Checked_base@PAVChannel@DRAMsimII@@@std@@YAPAVChannel@DRAMsimII@@AAPAV12@U_Unchanged_checked_iterator_base_type_tag@0@@Z ; std::_Checked_base<DRAMsimII::Channel *>
PUBLIC	??$_Checked_base@PAVChannel@DRAMsimII@@@std@@YAPAVChannel@DRAMsimII@@AAPAV12@@Z ; std::_Checked_base<DRAMsimII::Channel *>
PUBLIC	??$_Construct@VChannel@DRAMsimII@@V12@@std@@YAXPAVChannel@DRAMsimII@@ABV12@@Z ; std::_Construct<DRAMsimII::Channel,DRAMsimII::Channel>
PUBLIC	?construct@?$allocator@VChannel@DRAMsimII@@@std@@QAEXPAVChannel@DRAMsimII@@ABV34@@Z ; std::allocator<DRAMsimII::Channel>::construct
PUBLIC	??$_Uninit_copy@PAVChannel@DRAMsimII@@PAV12@V?$allocator@VChannel@DRAMsimII@@@std@@@std@@YAPAVChannel@DRAMsimII@@PAV12@00AAV?$allocator@VChannel@DRAMsimII@@@0@U_Nonscalar_ptr_iterator_tag@0@U_Range_checked_iterator_tag@0@@Z ; std::_Uninit_copy<DRAMsimII::Channel *,DRAMsimII::Channel *,std::allocator<DRAMsimII::Channel> >
PUBLIC	??$unchecked_uninitialized_copy@PAVChannel@DRAMsimII@@PAV12@V?$allocator@VChannel@DRAMsimII@@@std@@@stdext@@YAPAVChannel@DRAMsimII@@PAV12@00AAV?$allocator@VChannel@DRAMsimII@@@std@@@Z ; stdext::unchecked_uninitialized_copy<DRAMsimII::Channel *,DRAMsimII::Channel *,std::allocator<DRAMsimII::Channel> >
PUBLIC	??$_Ucopy@PAVChannel@DRAMsimII@@@?$vector@VChannel@DRAMsimII@@V?$allocator@VChannel@DRAMsimII@@@std@@@std@@IAEPAVChannel@DRAMsimII@@PAV23@00@Z ; std::vector<DRAMsimII::Channel,std::allocator<DRAMsimII::Channel> >::_Ucopy<DRAMsimII::Channel *>
PUBLIC	??4?$vector@VChannel@DRAMsimII@@V?$allocator@VChannel@DRAMsimII@@@std@@@std@@QAEAAV01@ABV01@@Z ; std::vector<DRAMsimII::Channel,std::allocator<DRAMsimII::Channel> >::operator=
PUBLIC	??A?$vector@VChannel@DRAMsimII@@V?$allocator@VChannel@DRAMsimII@@@std@@@std@@QAEAAVChannel@DRAMsimII@@I@Z ; std::vector<DRAMsimII::Channel,std::allocator<DRAMsimII::Channel> >::operator[]
PUBLIC	??0?$pair@II@std@@QAE@ABI0@Z			; std::pair<unsigned int,unsigned int>::pair<unsigned int,unsigned int>
PUBLIC	?getReadWriteBytes@Statistics@DRAMsimII@@QBE?AU?$pair@II@std@@XZ ; DRAMsimII::Statistics::getReadWriteBytes
PUBLIC	??_9Channel@DRAMsimII@@$BBI@AE			; DRAMsimII::Channel::`vcall'{24}'
PUBLIC	??0?$mem_fun1_ref_t@XVChannel@DRAMsimII@@_J@boost@@QAE@P8Channel@DRAMsimII@@AEX_J@Z@Z ; boost::mem_fun1_ref_t<void,DRAMsimII::Channel,__int64>::mem_fun1_ref_t<void,DRAMsimII::Channel,__int64>
PUBLIC	??$mem_fun_ref@XVChannel@DRAMsimII@@_J@boost@@YA?AV?$mem_fun1_ref_t@XVChannel@DRAMsimII@@_J@0@P8Channel@DRAMsimII@@AEX_J@Z@Z ; boost::mem_fun_ref<void,DRAMsimII::Channel,__int64>
PUBLIC	??0?$binder2nd@V?$mem_fun1_ref_t@XVChannel@DRAMsimII@@_J@boost@@@boost@@QAE@ABV?$mem_fun1_ref_t@XVChannel@DRAMsimII@@_J@1@AB_J@Z ; boost::binder2nd<boost::mem_fun1_ref_t<void,DRAMsimII::Channel,__int64> >::binder2nd<boost::mem_fun1_ref_t<void,DRAMsimII::Channel,__int64> >
PUBLIC	??$bind2nd@V?$mem_fun1_ref_t@XVChannel@DRAMsimII@@_J@boost@@@boost@@YA?AV?$binder2nd@V?$mem_fun1_ref_t@XVChannel@DRAMsimII@@_J@boost@@@0@ABV?$mem_fun1_ref_t@XVChannel@DRAMsimII@@_J@0@AB_J@Z ; boost::bind2nd<boost::mem_fun1_ref_t<void,DRAMsimII::Channel,__int64> >
PUBLIC	??R?$mem_fun1_ref_t@XVChannel@DRAMsimII@@_J@boost@@QBEXAAVChannel@DRAMsimII@@AB_J@Z ; boost::mem_fun1_ref_t<void,DRAMsimII::Channel,__int64>::operator()
PUBLIC	??R?$binder2nd@V?$mem_fun1_ref_t@XVChannel@DRAMsimII@@_J@boost@@@boost@@QBEXAAVChannel@DRAMsimII@@@Z ; boost::binder2nd<boost::mem_fun1_ref_t<void,DRAMsimII::Channel,__int64> >::operator()
PUBLIC	?_Checked_iterator_base@?$_Vector_iterator@VChannel@DRAMsimII@@V?$allocator@VChannel@DRAMsimII@@@std@@@std@@QBEPAVChannel@DRAMsimII@@XZ ; std::_Vector_iterator<DRAMsimII::Channel,std::allocator<DRAMsimII::Channel> >::_Checked_iterator_base
PUBLIC	??$_Checked_base@V?$_Vector_iterator@VChannel@DRAMsimII@@V?$allocator@VChannel@DRAMsimII@@@std@@@std@@U_Different_checked_iterator_base_type_tag@2@@std@@YAPAVChannel@DRAMsimII@@AAV?$_Vector_iterator@VChannel@DRAMsimII@@V?$allocator@VChannel@DRAMsimII@@@std@@@0@U_Different_checked_iterator_base_type_tag@0@@Z ; std::_Checked_base<std::_Vector_iterator<DRAMsimII::Channel,std::allocator<DRAMsimII::Channel> >,std::_Different_checked_iterator_base_type_tag>
PUBLIC	??$_Checked_base@V?$_Vector_iterator@VChannel@DRAMsimII@@V?$allocator@VChannel@DRAMsimII@@@std@@@std@@@std@@YAPAVChannel@DRAMsimII@@AAV?$_Vector_iterator@VChannel@DRAMsimII@@V?$allocator@VChannel@DRAMsimII@@@std@@@0@@Z ; std::_Checked_base<std::_Vector_iterator<DRAMsimII::Channel,std::allocator<DRAMsimII::Channel> > >
PUBLIC	??$for_each@V?$_Vector_iterator@VChannel@DRAMsimII@@V?$allocator@VChannel@DRAMsimII@@@std@@@std@@V?$binder2nd@V?$mem_fun1_ref_t@XVChannel@DRAMsimII@@_J@boost@@@boost@@@std@@YA?AV?$binder2nd@V?$mem_fun1_ref_t@XVChannel@DRAMsimII@@_J@boost@@@boost@@V?$_Vector_iterator@VChannel@DRAMsimII@@V?$allocator@VChannel@DRAMsimII@@@std@@@0@0V12@@Z ; std::for_each<std::_Vector_iterator<DRAMsimII::Channel,std::allocator<DRAMsimII::Channel> >,boost::binder2nd<boost::mem_fun1_ref_t<void,DRAMsimII::Channel,__int64> > >
PUBLIC	?getTime@Channel@DRAMsimII@@QBE_JXZ		; DRAMsimII::Channel::getTime
PUBLIC	?pendingTransactionCount@Channel@DRAMsimII@@QBEIXZ ; DRAMsimII::Channel::pendingTransactionCount
PUBLIC	?begin@?$vector@VChannel@DRAMsimII@@V?$allocator@VChannel@DRAMsimII@@@std@@@std@@QAE?AV?$_Vector_iterator@VChannel@DRAMsimII@@V?$allocator@VChannel@DRAMsimII@@@std@@@2@XZ ; std::vector<DRAMsimII::Channel,std::allocator<DRAMsimII::Channel> >::begin
PUBLIC	??0?$_Vector_iterator@VChannel@DRAMsimII@@V?$allocator@VChannel@DRAMsimII@@@std@@@std@@QAE@PAVChannel@DRAMsimII@@PBV_Container_base_aux@1@@Z ; std::_Vector_iterator<DRAMsimII::Channel,std::allocator<DRAMsimII::Channel> >::_Vector_iterator<DRAMsimII::Channel,std::allocator<DRAMsimII::Channel> >
PUBLIC	?end@?$vector@VChannel@DRAMsimII@@V?$allocator@VChannel@DRAMsimII@@@std@@@std@@QAE?AV?$_Vector_iterator@VChannel@DRAMsimII@@V?$allocator@VChannel@DRAMsimII@@@std@@@2@XZ ; std::vector<DRAMsimII::Channel,std::allocator<DRAMsimII::Channel> >::end
PUBLIC	??D?$_Vector_iterator@VChannel@DRAMsimII@@V?$allocator@VChannel@DRAMsimII@@@std@@@std@@QBEAAVChannel@DRAMsimII@@XZ ; std::_Vector_iterator<DRAMsimII::Channel,std::allocator<DRAMsimII::Channel> >::operator*
PUBLIC	??C?$_Vector_iterator@VChannel@DRAMsimII@@V?$allocator@VChannel@DRAMsimII@@@std@@@std@@QBEPAVChannel@DRAMsimII@@XZ ; std::_Vector_iterator<DRAMsimII::Channel,std::allocator<DRAMsimII::Channel> >::operator->
PUBLIC	??E?$_Vector_iterator@VChannel@DRAMsimII@@V?$allocator@VChannel@DRAMsimII@@@std@@@std@@QAEAAV01@XZ ; std::_Vector_iterator<DRAMsimII::Channel,std::allocator<DRAMsimII::Channel> >::operator++
PUBLIC	??E?$_Vector_iterator@VChannel@DRAMsimII@@V?$allocator@VChannel@DRAMsimII@@@std@@@std@@QAE?AV01@H@Z ; std::_Vector_iterator<DRAMsimII::Channel,std::allocator<DRAMsimII::Channel> >::operator++
PUBLIC	?getRequestCount@SimulationParameters@DRAMsimII@@QAE_JXZ ; DRAMsimII::SimulationParameters::getRequestCount
PUBLIC	?empty@?$queue@U?$pair@I_J@std@@V?$deque@U?$pair@I_J@std@@V?$allocator@U?$pair@I_J@std@@@2@@2@@std@@QBE_NXZ ; std::queue<std::pair<unsigned int,__int64>,std::deque<std::pair<unsigned int,__int64>,std::allocator<std::pair<unsigned int,__int64> > > >::empty
PUBLIC	?isFull@Channel@DRAMsimII@@QBE_NXZ		; DRAMsimII::Channel::isFull
PUBLIC	?isFull@System@DRAMsimII@@QBE_NI@Z		; DRAMsimII::System::isFull
PUBLIC	?begin@?$_Hash@V?$_Umap_traits@IU?$pair@PAVTransaction@DRAMsimII@@PAV12@@std@@V?$_Hash_compare@IV?$hash@I@tr1@std@@U?$equal_to@I@3@@stdext@@V?$allocator@U?$pair@$$CBIU?$pair@PAVTransaction@DRAMsimII@@PAV12@@std@@@std@@@2@$0A@@tr1@std@@@stdext@@QAE?AV?$_Iterator@$00@?$list@U?$pair@$$CBIU?$pair@PAVTransaction@DRAMsimII@@PAV12@@std@@@std@@V?$allocator@U?$pair@$$CBIU?$pair@PAVTransaction@DRAMsimII@@PAV12@@std@@@std@@@2@@std@@XZ ; stdext::_Hash<std::tr1::_Umap_traits<unsigned int,std::pair<DRAMsimII::Transaction *,DRAMsimII::Transaction *>,stdext::_Hash_compare<unsigned int,std::tr1::hash<unsigned int>,std::equal_to<unsigned int> >,std::allocator<std::pair<unsigned int const ,std::pair<DRAMsimII::Transaction *,DRAMsimII::Transaction *> > >,0> >::begin
PUBLIC	?erase@?$_Hash@V?$_Umap_traits@IU?$pair@PAVTransaction@DRAMsimII@@PAV12@@std@@V?$_Hash_compare@IV?$hash@I@tr1@std@@U?$equal_to@I@3@@stdext@@V?$allocator@U?$pair@$$CBIU?$pair@PAVTransaction@DRAMsimII@@PAV12@@std@@@std@@@2@$0A@@tr1@std@@@stdext@@QAE?AV?$_Iterator@$00@?$list@U?$pair@$$CBIU?$pair@PAVTransaction@DRAMsimII@@PAV12@@std@@@std@@V?$allocator@U?$pair@$$CBIU?$pair@PAVTransaction@DRAMsimII@@PAV12@@std@@@std@@@2@@std@@V?$_Const_iterator@$00@45@@Z ; stdext::_Hash<std::tr1::_Umap_traits<unsigned int,std::pair<DRAMsimII::Transaction *,DRAMsimII::Transaction *>,stdext::_Hash_compare<unsigned int,std::tr1::hash<unsigned int>,std::equal_to<unsigned int> >,std::allocator<std::pair<unsigned int const ,std::pair<DRAMsimII::Transaction *,DRAMsimII::Transaction *> > >,0> >::erase
PUBLIC	?clear@?$_Hash@V?$_Umap_traits@IU?$pair@PAVTransaction@DRAMsimII@@PAV12@@std@@V?$_Hash_compare@IV?$hash@I@tr1@std@@U?$equal_to@I@3@@stdext@@V?$allocator@U?$pair@$$CBIU?$pair@PAVTransaction@DRAMsimII@@PAV12@@std@@@std@@@2@$0A@@tr1@std@@@stdext@@QAEXXZ ; stdext::_Hash<std::tr1::_Umap_traits<unsigned int,std::pair<DRAMsimII::Transaction *,DRAMsimII::Transaction *>,stdext::_Hash_compare<unsigned int,std::tr1::hash<unsigned int>,std::equal_to<unsigned int> >,std::allocator<std::pair<unsigned int const ,std::pair<DRAMsimII::Transaction *,DRAMsimII::Transaction *> > >,0> >::clear
PUBLIC	?erase@?$_Hash@V?$_Umap_traits@IU?$pair@PAVTransaction@DRAMsimII@@PAV12@@std@@V?$_Hash_compare@IV?$hash@I@tr1@std@@U?$equal_to@I@3@@stdext@@V?$allocator@U?$pair@$$CBIU?$pair@PAVTransaction@DRAMsimII@@PAV12@@std@@@std@@@2@$0A@@tr1@std@@@stdext@@QAE?AV?$_Iterator@$00@?$list@U?$pair@$$CBIU?$pair@PAVTransaction@DRAMsimII@@PAV12@@std@@@std@@V?$allocator@U?$pair@$$CBIU?$pair@PAVTransaction@DRAMsimII@@PAV12@@std@@@std@@@2@@std@@V?$_Const_iterator@$00@45@0@Z ; stdext::_Hash<std::tr1::_Umap_traits<unsigned int,std::pair<DRAMsimII::Transaction *,DRAMsimII::Transaction *>,stdext::_Hash_compare<unsigned int,std::tr1::hash<unsigned int>,std::equal_to<unsigned int> >,std::allocator<std::pair<unsigned int const ,std::pair<DRAMsimII::Transaction *,DRAMsimII::Transaction *> > >,0> >::erase
PUBLIC	??0?$pair@V?$_Iterator@$00@?$list@U?$pair@$$CBIU?$pair@PAVTransaction@DRAMsimII@@PAV12@@std@@@std@@V?$allocator@U?$pair@$$CBIU?$pair@PAVTransaction@DRAMsimII@@PAV12@@std@@@std@@@2@@std@@V123@@std@@QAE@ABV?$_Iterator@$00@?$list@U?$pair@$$CBIU?$pair@PAVTransaction@DRAMsimII@@PAV12@@std@@@std@@V?$allocator@U?$pair@$$CBIU?$pair@PAVTransaction@DRAMsimII@@PAV12@@std@@@std@@@2@@1@0@Z ; std::pair<std::list<std::pair<unsigned int const ,std::pair<DRAMsimII::Transaction *,DRAMsimII::Transaction *> >,std::allocator<std::pair<unsigned int const ,std::pair<DRAMsimII::Transaction *,DRAMsimII::Transaction *> > > >::_Iterator<1>,std::list<std::pair<unsigned int const ,std::pair<DRAMsimII::Transaction *,DRAMsimII::Transaction *> >,std::allocator<std::pair<unsigned int const ,std::pair<DRAMsimII::Transaction *,DRAMsimII::Transaction *> > > >::_Iterator<1> >::pair<std::list<std::pair<unsigned int const ,std::pair<DRAMsimII::Transaction *,DRAMsimII::Transaction *> >,std::allocator<std::pair<unsigned int const ,std::pair<DRAMsimII::Transaction *,DRAMsimII::Transaction *> > > >::_Iterator<1>,std::list<std::pair<unsigned int const ,std::pair<DRAMsimII::Transaction *,DRAMsimII::Transaction *> >,std::allocator<std::pair<unsigned int const ,std::pair<DRAMsimII::Transaction *,DRAMsimII::Transaction *> > > >::_Iterator<1> >
PUBLIC	?equal_range@?$_Hash@V?$_Umap_traits@IU?$pair@PAVTransaction@DRAMsimII@@PAV12@@std@@V?$_Hash_compare@IV?$hash@I@tr1@std@@U?$equal_to@I@3@@stdext@@V?$allocator@U?$pair@$$CBIU?$pair@PAVTransaction@DRAMsimII@@PAV12@@std@@@std@@@2@$0A@@tr1@std@@@stdext@@QAE?AU?$pair@V?$_Iterator@$00@?$list@U?$pair@$$CBIU?$pair@PAVTransaction@DRAMsimII@@PAV12@@std@@@std@@V?$allocator@U?$pair@$$CBIU?$pair@PAVTransaction@DRAMsimII@@PAV12@@std@@@std@@@2@@std@@V123@@std@@ABI@Z ; stdext::_Hash<std::tr1::_Umap_traits<unsigned int,std::pair<DRAMsimII::Transaction *,DRAMsimII::Transaction *>,stdext::_Hash_compare<unsigned int,std::tr1::hash<unsigned int>,std::equal_to<unsigned int> >,std::allocator<std::pair<unsigned int const ,std::pair<DRAMsimII::Transaction *,DRAMsimII::Transaction *> > >,0> >::equal_range
PUBLIC	??$_Iter_cat@V?$_Iterator@$00@?$list@U?$pair@$$CBIU?$pair@PAVTransaction@DRAMsimII@@PAV12@@std@@@std@@V?$allocator@U?$pair@$$CBIU?$pair@PAVTransaction@DRAMsimII@@PAV12@@std@@@std@@@2@@std@@@std@@YA?AUbidirectional_iterator_tag@0@ABV?$_Iterator@$00@?$list@U?$pair@$$CBIU?$pair@PAVTransaction@DRAMsimII@@PAV12@@std@@@std@@V?$allocator@U?$pair@$$CBIU?$pair@PAVTransaction@DRAMsimII@@PAV12@@std@@@std@@@2@@0@@Z ; std::_Iter_cat<std::list<std::pair<unsigned int const ,std::pair<DRAMsimII::Transaction *,DRAMsimII::Transaction *> >,std::allocator<std::pair<unsigned int const ,std::pair<DRAMsimII::Transaction *,DRAMsimII::Transaction *> > > >::_Iterator<1> >
PUBLIC	??$_Distance2@V?$_Iterator@$00@?$list@U?$pair@$$CBIU?$pair@PAVTransaction@DRAMsimII@@PAV12@@std@@@std@@V?$allocator@U?$pair@$$CBIU?$pair@PAVTransaction@DRAMsimII@@PAV12@@std@@@std@@@2@@std@@I@std@@YAXV?$_Iterator@$00@?$list@U?$pair@$$CBIU?$pair@PAVTransaction@DRAMsimII@@PAV12@@std@@@std@@V?$allocator@U?$pair@$$CBIU?$pair@PAVTransaction@DRAMsimII@@PAV12@@std@@@std@@@2@@0@0AAIUbidirectional_iterator_tag@0@@Z ; std::_Distance2<std::list<std::pair<unsigned int const ,std::pair<DRAMsimII::Transaction *,DRAMsimII::Transaction *> >,std::allocator<std::pair<unsigned int const ,std::pair<DRAMsimII::Transaction *,DRAMsimII::Transaction *> > > >::_Iterator<1>,unsigned int>
PUBLIC	??$_Distance@V?$_Iterator@$00@?$list@U?$pair@$$CBIU?$pair@PAVTransaction@DRAMsimII@@PAV12@@std@@@std@@V?$allocator@U?$pair@$$CBIU?$pair@PAVTransaction@DRAMsimII@@PAV12@@std@@@std@@@2@@std@@I@std@@YAXV?$_Iterator@$00@?$list@U?$pair@$$CBIU?$pair@PAVTransaction@DRAMsimII@@PAV12@@std@@@std@@V?$allocator@U?$pair@$$CBIU?$pair@PAVTransaction@DRAMsimII@@PAV12@@std@@@std@@@2@@0@0AAI@Z ; std::_Distance<std::list<std::pair<unsigned int const ,std::pair<DRAMsimII::Transaction *,DRAMsimII::Transaction *> >,std::allocator<std::pair<unsigned int const ,std::pair<DRAMsimII::Transaction *,DRAMsimII::Transaction *> > > >::_Iterator<1>,unsigned int>
PUBLIC	?erase@?$_Hash@V?$_Umap_traits@IU?$pair@PAVTransaction@DRAMsimII@@PAV12@@std@@V?$_Hash_compare@IV?$hash@I@tr1@std@@U?$equal_to@I@3@@stdext@@V?$allocator@U?$pair@$$CBIU?$pair@PAVTransaction@DRAMsimII@@PAV12@@std@@@std@@@2@$0A@@tr1@std@@@stdext@@QAEIABI@Z ; stdext::_Hash<std::tr1::_Umap_traits<unsigned int,std::pair<DRAMsimII::Transaction *,DRAMsimII::Transaction *>,stdext::_Hash_compare<unsigned int,std::tr1::hash<unsigned int>,std::equal_to<unsigned int> >,std::allocator<std::pair<unsigned int const ,std::pair<DRAMsimII::Transaction *,DRAMsimII::Transaction *> > >,0> >::erase
PUBLIC	?find@?$_Hash@V?$_Umap_traits@IU?$pair@PAVTransaction@DRAMsimII@@PAV12@@std@@V?$_Hash_compare@IV?$hash@I@tr1@std@@U?$equal_to@I@3@@stdext@@V?$allocator@U?$pair@$$CBIU?$pair@PAVTransaction@DRAMsimII@@PAV12@@std@@@std@@@2@$0A@@tr1@std@@@stdext@@QAE?AV?$_Iterator@$00@?$list@U?$pair@$$CBIU?$pair@PAVTransaction@DRAMsimII@@PAV12@@std@@@std@@V?$allocator@U?$pair@$$CBIU?$pair@PAVTransaction@DRAMsimII@@PAV12@@std@@@std@@@2@@std@@ABI@Z ; stdext::_Hash<std::tr1::_Umap_traits<unsigned int,std::pair<DRAMsimII::Transaction *,DRAMsimII::Transaction *>,stdext::_Hash_compare<unsigned int,std::tr1::hash<unsigned int>,std::equal_to<unsigned int> >,std::allocator<std::pair<unsigned int const ,std::pair<DRAMsimII::Transaction *,DRAMsimII::Transaction *> > >,0> >::find
PUBLIC	??0?$allocator@U?$pair@$$CBIU?$pair@PAVTransaction@DRAMsimII@@PAV12@@std@@@std@@@std@@QAE@XZ ; std::allocator<std::pair<unsigned int const ,std::pair<DRAMsimII::Transaction *,DRAMsimII::Transaction *> > >::allocator<std::pair<unsigned int const ,std::pair<DRAMsimII::Transaction *,DRAMsimII::Transaction *> > >
PUBLIC	??0?$_Umap_traits@IU?$pair@PAVTransaction@DRAMsimII@@PAV12@@std@@V?$_Hash_compare@IV?$hash@I@tr1@std@@U?$equal_to@I@3@@stdext@@V?$allocator@U?$pair@$$CBIU?$pair@PAVTransaction@DRAMsimII@@PAV12@@std@@@std@@@2@$0A@@tr1@std@@QAE@ABV?$_Hash_compare@IV?$hash@I@tr1@std@@U?$equal_to@I@3@@stdext@@@Z ; std::tr1::_Umap_traits<unsigned int,std::pair<DRAMsimII::Transaction *,DRAMsimII::Transaction *>,stdext::_Hash_compare<unsigned int,std::tr1::hash<unsigned int>,std::equal_to<unsigned int> >,std::allocator<std::pair<unsigned int const ,std::pair<DRAMsimII::Transaction *,DRAMsimII::Transaction *> > >,0>::_Umap_traits<unsigned int,std::pair<DRAMsimII::Transaction *,DRAMsimII::Transaction *>,stdext::_Hash_compare<unsigned int,std::tr1::hash<unsigned int>,std::equal_to<unsigned int> >,std::allocator<std::pair<unsigned int const ,std::pair<DRAMsimII::Transaction *,DRAMsimII::Transaction *> > >,0>
PUBLIC	??0?$allocator@U?$pair@$$CBIU?$pair@PAVTransaction@DRAMsimII@@PAV12@@std@@@std@@@std@@QAE@ABV01@@Z ; std::allocator<std::pair<unsigned int const ,std::pair<DRAMsimII::Transaction *,DRAMsimII::Transaction *> > >::allocator<std::pair<unsigned int const ,std::pair<DRAMsimII::Transaction *,DRAMsimII::Transaction *> > >
PUBLIC	??$?0U?$pair@$$CBIU?$pair@PAVTransaction@DRAMsimII@@PAV12@@std@@@std@@@?$allocator@V_Aux_cont@std@@@std@@QAE@ABV?$allocator@U?$pair@$$CBIU?$pair@PAVTransaction@DRAMsimII@@PAV12@@std@@@std@@@1@@Z ; std::allocator<std::_Aux_cont>::allocator<std::_Aux_cont><std::pair<unsigned int const ,std::pair<DRAMsimII::Transaction *,DRAMsimII::Transaction *> > >
PUBLIC	??0?$_Container_base_aux_alloc_real@V?$allocator@U?$pair@$$CBIU?$pair@PAVTransaction@DRAMsimII@@PAV12@@std@@@std@@@std@@@std@@IAE@V?$allocator@U?$pair@$$CBIU?$pair@PAVTransaction@DRAMsimII@@PAV12@@std@@@std@@@1@@Z ; std::_Container_base_aux_alloc_real<std::allocator<std::pair<unsigned int const ,std::pair<DRAMsimII::Transaction *,DRAMsimII::Transaction *> > > >::_Container_base_aux_alloc_real<std::allocator<std::pair<unsigned int const ,std::pair<DRAMsimII::Transaction *,DRAMsimII::Transaction *> > > >
PUBLIC	??$?0U?$pair@$$CBIU?$pair@PAVTransaction@DRAMsimII@@PAV12@@std@@@std@@@?$allocator@U_Node@?$_List_nod@U?$pair@$$CBIU?$pair@PAVTransaction@DRAMsimII@@PAV12@@std@@@std@@V?$allocator@U?$pair@$$CBIU?$pair@PAVTransaction@DRAMsimII@@PAV12@@std@@@std@@@2@@std@@@std@@QAE@ABV?$allocator@U?$pair@$$CBIU?$pair@PAVTransaction@DRAMsimII@@PAV12@@std@@@std@@@1@@Z ; std::allocator<std::_List_nod<std::pair<unsigned int const ,std::pair<DRAMsimII::Transaction *,DRAMsimII::Transaction *> >,std::allocator<std::pair<unsigned int const ,std::pair<DRAMsimII::Transaction *,DRAMsimII::Transaction *> > > >::_Node>::allocator<std::_List_nod<std::pair<unsigned int const ,std::pair<DRAMsimII::Transaction *,DRAMsimII::Transaction *> >,std::allocator<std::pair<unsigned int const ,std::pair<DRAMsimII::Transaction *,DRAMsimII::Transaction *> > > >::_Node><std::pair<unsigned int const ,std::pair<DRAMsimII::Transaction *,DRAMsimII::Transaction *> > >
PUBLIC	??0?$_List_nod@U?$pair@$$CBIU?$pair@PAVTransaction@DRAMsimII@@PAV12@@std@@@std@@V?$allocator@U?$pair@$$CBIU?$pair@PAVTransaction@DRAMsimII@@PAV12@@std@@@std@@@2@@std@@IAE@V?$allocator@U?$pair@$$CBIU?$pair@PAVTransaction@DRAMsimII@@PAV12@@std@@@std@@@1@@Z ; std::_List_nod<std::pair<unsigned int const ,std::pair<DRAMsimII::Transaction *,DRAMsimII::Transaction *> >,std::allocator<std::pair<unsigned int const ,std::pair<DRAMsimII::Transaction *,DRAMsimII::Transaction *> > > >::_List_nod<std::pair<unsigned int const ,std::pair<DRAMsimII::Transaction *,DRAMsimII::Transaction *> >,std::allocator<std::pair<unsigned int const ,std::pair<DRAMsimII::Transaction *,DRAMsimII::Transaction *> > > >
PUBLIC	??$?0U?$pair@$$CBIU?$pair@PAVTransaction@DRAMsimII@@PAV12@@std@@@std@@@?$allocator@PAU_Node@?$_List_nod@U?$pair@$$CBIU?$pair@PAVTransaction@DRAMsimII@@PAV12@@std@@@std@@V?$allocator@U?$pair@$$CBIU?$pair@PAVTransaction@DRAMsimII@@PAV12@@std@@@std@@@2@@std@@@std@@QAE@ABV?$allocator@U?$pair@$$CBIU?$pair@PAVTransaction@DRAMsimII@@PAV12@@std@@@std@@@1@@Z ; std::allocator<std::_List_nod<std::pair<unsigned int const ,std::pair<DRAMsimII::Transaction *,DRAMsimII::Transaction *> >,std::allocator<std::pair<unsigned int const ,std::pair<DRAMsimII::Transaction *,DRAMsimII::Transaction *> > > >::_Node *>::allocator<std::_List_nod<std::pair<unsigned int const ,std::pair<DRAMsimII::Transaction *,DRAMsimII::Transaction *> >,std::allocator<std::pair<unsigned int const ,std::pair<DRAMsimII::Transaction *,DRAMsimII::Transaction *> > > >::_Node *><std::pair<unsigned int const ,std::pair<DRAMsimII::Transaction *,DRAMsimII::Transaction *> > >
PUBLIC	??0?$_List_ptr@U?$pair@$$CBIU?$pair@PAVTransaction@DRAMsimII@@PAV12@@std@@@std@@V?$allocator@U?$pair@$$CBIU?$pair@PAVTransaction@DRAMsimII@@PAV12@@std@@@std@@@2@@std@@IAE@V?$allocator@U?$pair@$$CBIU?$pair@PAVTransaction@DRAMsimII@@PAV12@@std@@@std@@@1@@Z ; std::_List_ptr<std::pair<unsigned int const ,std::pair<DRAMsimII::Transaction *,DRAMsimII::Transaction *> >,std::allocator<std::pair<unsigned int const ,std::pair<DRAMsimII::Transaction *,DRAMsimII::Transaction *> > > >::_List_ptr<std::pair<unsigned int const ,std::pair<DRAMsimII::Transaction *,DRAMsimII::Transaction *> >,std::allocator<std::pair<unsigned int const ,std::pair<DRAMsimII::Transaction *,DRAMsimII::Transaction *> > > >
PUBLIC	??0?$_List_val@U?$pair@$$CBIU?$pair@PAVTransaction@DRAMsimII@@PAV12@@std@@@std@@V?$allocator@U?$pair@$$CBIU?$pair@PAVTransaction@DRAMsimII@@PAV12@@std@@@std@@@2@@std@@QAE@V?$allocator@U?$pair@$$CBIU?$pair@PAVTransaction@DRAMsimII@@PAV12@@std@@@std@@@1@@Z ; std::_List_val<std::pair<unsigned int const ,std::pair<DRAMsimII::Transaction *,DRAMsimII::Transaction *> >,std::allocator<std::pair<unsigned int const ,std::pair<DRAMsimII::Transaction *,DRAMsimII::Transaction *> > > >::_List_val<std::pair<unsigned int const ,std::pair<DRAMsimII::Transaction *,DRAMsimII::Transaction *> >,std::allocator<std::pair<unsigned int const ,std::pair<DRAMsimII::Transaction *,DRAMsimII::Transaction *> > > >
PUBLIC	?_Buynode@?$list@U?$pair@$$CBIU?$pair@PAVTransaction@DRAMsimII@@PAV12@@std@@@std@@V?$allocator@U?$pair@$$CBIU?$pair@PAVTransaction@DRAMsimII@@PAV12@@std@@@std@@@2@@std@@IAEPAU_Node@?$_List_nod@U?$pair@$$CBIU?$pair@PAVTransaction@DRAMsimII@@PAV12@@std@@@std@@V?$allocator@U?$pair@$$CBIU?$pair@PAVTransaction@DRAMsimII@@PAV12@@std@@@std@@@2@@2@XZ ; std::list<std::pair<unsigned int const ,std::pair<DRAMsimII::Transaction *,DRAMsimII::Transaction *> >,std::allocator<std::pair<unsigned int const ,std::pair<DRAMsimII::Transaction *,DRAMsimII::Transaction *> > > >::_Buynode
PUBLIC	??0?$list@U?$pair@$$CBIU?$pair@PAVTransaction@DRAMsimII@@PAV12@@std@@@std@@V?$allocator@U?$pair@$$CBIU?$pair@PAVTransaction@DRAMsimII@@PAV12@@std@@@std@@@2@@std@@QAE@ABV?$allocator@U?$pair@$$CBIU?$pair@PAVTransaction@DRAMsimII@@PAV12@@std@@@std@@@1@@Z ; std::list<std::pair<unsigned int const ,std::pair<DRAMsimII::Transaction *,DRAMsimII::Transaction *> >,std::allocator<std::pair<unsigned int const ,std::pair<DRAMsimII::Transaction *,DRAMsimII::Transaction *> > > >::list<std::pair<unsigned int const ,std::pair<DRAMsimII::Transaction *,DRAMsimII::Transaction *> >,std::allocator<std::pair<unsigned int const ,std::pair<DRAMsimII::Transaction *,DRAMsimII::Transaction *> > > >
PUBLIC	??$?0U_List_position@?$_Hash@V?$_Umap_traits@IU?$pair@PAVTransaction@DRAMsimII@@PAV12@@std@@V?$_Hash_compare@IV?$hash@I@tr1@std@@U?$equal_to@I@3@@stdext@@V?$allocator@U?$pair@$$CBIU?$pair@PAVTransaction@DRAMsimII@@PAV12@@std@@@std@@@2@$0A@@tr1@std@@@stdext@@@?$allocator@V_Aux_cont@std@@@std@@QAE@ABV?$allocator@U_List_position@?$_Hash@V?$_Umap_traits@IU?$pair@PAVTransaction@DRAMsimII@@PAV12@@std@@V?$_Hash_compare@IV?$hash@I@tr1@std@@U?$equal_to@I@3@@stdext@@V?$allocator@U?$pair@$$CBIU?$pair@PAVTransaction@DRAMsimII@@PAV12@@std@@@std@@@2@$0A@@tr1@std@@@stdext@@@1@@Z ; std::allocator<std::_Aux_cont>::allocator<std::_Aux_cont><stdext::_Hash<std::tr1::_Umap_traits<unsigned int,std::pair<DRAMsimII::Transaction *,DRAMsimII::Transaction *>,stdext::_Hash_compare<unsigned int,std::tr1::hash<unsigned int>,std::equal_to<unsigned int> >,std::allocator<std::pair<unsigned int const ,std::pair<DRAMsimII::Transaction *,DRAMsimII::Transaction *> > >,0> >::_List_position>
PUBLIC	??0?$_Container_base_aux_alloc_real@V?$allocator@U_List_position@?$_Hash@V?$_Umap_traits@IU?$pair@PAVTransaction@DRAMsimII@@PAV12@@std@@V?$_Hash_compare@IV?$hash@I@tr1@std@@U?$equal_to@I@3@@stdext@@V?$allocator@U?$pair@$$CBIU?$pair@PAVTransaction@DRAMsimII@@PAV12@@std@@@std@@@2@$0A@@tr1@std@@@stdext@@@std@@@std@@IAE@V?$allocator@U_List_position@?$_Hash@V?$_Umap_traits@IU?$pair@PAVTransaction@DRAMsimII@@PAV12@@std@@V?$_Hash_compare@IV?$hash@I@tr1@std@@U?$equal_to@I@3@@stdext@@V?$allocator@U?$pair@$$CBIU?$pair@PAVTransaction@DRAMsimII@@PAV12@@std@@@std@@@2@$0A@@tr1@std@@@stdext@@@1@@Z ; std::_Container_base_aux_alloc_real<std::allocator<stdext::_Hash<std::tr1::_Umap_traits<unsigned int,std::pair<DRAMsimII::Transaction *,DRAMsimII::Transaction *>,stdext::_Hash_compare<unsigned int,std::tr1::hash<unsigned int>,std::equal_to<unsigned int> >,std::allocator<std::pair<unsigned int const ,std::pair<DRAMsimII::Transaction *,DRAMsimII::Transaction *> > >,0> >::_List_position> >::_Container_base_aux_alloc_real<std::allocator<stdext::_Hash<std::tr1::_Umap_traits<unsigned int,std::pair<DRAMsimII::Transaction *,DRAMsimII::Transaction *>,stdext::_Hash_compare<unsigned int,std::tr1::hash<unsigned int>,std::equal_to<unsigned int> >,std::allocator<std::pair<unsigned int const ,std::pair<DRAMsimII::Transaction *,DRAMsimII::Transaction *> > >,0> >::_List_position> >
PUBLIC	??0?$allocator@U_List_position@?$_Hash@V?$_Umap_traits@IU?$pair@PAVTransaction@DRAMsimII@@PAV12@@std@@V?$_Hash_compare@IV?$hash@I@tr1@std@@U?$equal_to@I@3@@stdext@@V?$allocator@U?$pair@$$CBIU?$pair@PAVTransaction@DRAMsimII@@PAV12@@std@@@std@@@2@$0A@@tr1@std@@@stdext@@@std@@QAE@ABV01@@Z ; std::allocator<stdext::_Hash<std::tr1::_Umap_traits<unsigned int,std::pair<DRAMsimII::Transaction *,DRAMsimII::Transaction *>,stdext::_Hash_compare<unsigned int,std::tr1::hash<unsigned int>,std::equal_to<unsigned int> >,std::allocator<std::pair<unsigned int const ,std::pair<DRAMsimII::Transaction *,DRAMsimII::Transaction *> > >,0> >::_List_position>::allocator<stdext::_Hash<std::tr1::_Umap_traits<unsigned int,std::pair<DRAMsimII::Transaction *,DRAMsimII::Transaction *>,stdext::_Hash_compare<unsigned int,std::tr1::hash<unsigned int>,std::equal_to<unsigned int> >,std::allocator<std::pair<unsigned int const ,std::pair<DRAMsimII::Transaction *,DRAMsimII::Transaction *> > >,0> >::_List_position>
PUBLIC	??0?$_Vector_val@U_List_position@?$_Hash@V?$_Umap_traits@IU?$pair@PAVTransaction@DRAMsimII@@PAV12@@std@@V?$_Hash_compare@IV?$hash@I@tr1@std@@U?$equal_to@I@3@@stdext@@V?$allocator@U?$pair@$$CBIU?$pair@PAVTransaction@DRAMsimII@@PAV12@@std@@@std@@@2@$0A@@tr1@std@@@stdext@@V?$allocator@U_List_position@?$_Hash@V?$_Umap_traits@IU?$pair@PAVTransaction@DRAMsimII@@PAV12@@std@@V?$_Hash_compare@IV?$hash@I@tr1@std@@U?$equal_to@I@3@@stdext@@V?$allocator@U?$pair@$$CBIU?$pair@PAVTransaction@DRAMsimII@@PAV12@@std@@@std@@@2@$0A@@tr1@std@@@stdext@@@std@@@std@@IAE@V?$allocator@U_List_position@?$_Hash@V?$_Umap_traits@IU?$pair@PAVTransaction@DRAMsimII@@PAV12@@std@@V?$_Hash_compare@IV?$hash@I@tr1@std@@U?$equal_to@I@3@@stdext@@V?$allocator@U?$pair@$$CBIU?$pair@PAVTransaction@DRAMsimII@@PAV12@@std@@@std@@@2@$0A@@tr1@std@@@stdext@@@1@@Z ; std::_Vector_val<stdext::_Hash<std::tr1::_Umap_traits<unsigned int,std::pair<DRAMsimII::Transaction *,DRAMsimII::Transaction *>,stdext::_Hash_compare<unsigned int,std::tr1::hash<unsigned int>,std::equal_to<unsigned int> >,std::allocator<std::pair<unsigned int const ,std::pair<DRAMsimII::Transaction *,DRAMsimII::Transaction *> > >,0> >::_List_position,std::allocator<stdext::_Hash<std::tr1::_Umap_traits<unsigned int,std::pair<DRAMsimII::Transaction *,DRAMsimII::Transaction *>,stdext::_Hash_compare<unsigned int,std::tr1::hash<unsigned int>,std::equal_to<unsigned int> >,std::allocator<std::pair<unsigned int const ,std::pair<DRAMsimII::Transaction *,DRAMsimII::Transaction *> > >,0> >::_List_position> >::_Vector_val<stdext::_Hash<std::tr1::_Umap_traits<unsigned int,std::pair<DRAMsimII::Transaction *,DRAMsimII::Transaction *>,stdext::_Hash_compare<unsigned int,std::tr1::hash<unsigned int>,std::equal_to<unsigned int> >,std::allocator<std::pair<unsigned int const ,std::pair<DRAMsimII::Transaction *,DRAMsimII::Transaction *> > >,0> >::_List_position,std::allocator<stdext::_Hash<std::tr1::_Umap_traits<unsigned int,std::pair<DRAMsimII::Transaction *,DRAMsimII::Transaction *>,stdext::_Hash_compare<unsigned int,std::tr1::hash<unsigned int>,std::equal_to<unsigned int> >,std::allocator<std::pair<unsigned int const ,std::pair<DRAMsimII::Transaction *,DRAMsimII::Transaction *> > >,0> >::_List_position> >
PUBLIC	?_Buy@?$vector@U_List_position@?$_Hash@V?$_Umap_traits@IU?$pair@PAVTransaction@DRAMsimII@@PAV12@@std@@V?$_Hash_compare@IV?$hash@I@tr1@std@@U?$equal_to@I@3@@stdext@@V?$allocator@U?$pair@$$CBIU?$pair@PAVTransaction@DRAMsimII@@PAV12@@std@@@std@@@2@$0A@@tr1@std@@@stdext@@V?$allocator@U_List_position@?$_Hash@V?$_Umap_traits@IU?$pair@PAVTransaction@DRAMsimII@@PAV12@@std@@V?$_Hash_compare@IV?$hash@I@tr1@std@@U?$equal_to@I@3@@stdext@@V?$allocator@U?$pair@$$CBIU?$pair@PAVTransaction@DRAMsimII@@PAV12@@std@@@std@@@2@$0A@@tr1@std@@@stdext@@@std@@@std@@IAE_NI@Z ; std::vector<stdext::_Hash<std::tr1::_Umap_traits<unsigned int,std::pair<DRAMsimII::Transaction *,DRAMsimII::Transaction *>,stdext::_Hash_compare<unsigned int,std::tr1::hash<unsigned int>,std::equal_to<unsigned int> >,std::allocator<std::pair<unsigned int const ,std::pair<DRAMsimII::Transaction *,DRAMsimII::Transaction *> > >,0> >::_List_position,std::allocator<stdext::_Hash<std::tr1::_Umap_traits<unsigned int,std::pair<DRAMsimII::Transaction *,DRAMsimII::Transaction *>,stdext::_Hash_compare<unsigned int,std::tr1::hash<unsigned int>,std::equal_to<unsigned int> >,std::allocator<std::pair<unsigned int const ,std::pair<DRAMsimII::Transaction *,DRAMsimII::Transaction *> > >,0> >::_List_position> >::_Buy
PUBLIC	??0?$vector@U_List_position@?$_Hash@V?$_Umap_traits@IU?$pair@PAVTransaction@DRAMsimII@@PAV12@@std@@V?$_Hash_compare@IV?$hash@I@tr1@std@@U?$equal_to@I@3@@stdext@@V?$allocator@U?$pair@$$CBIU?$pair@PAVTransaction@DRAMsimII@@PAV12@@std@@@std@@@2@$0A@@tr1@std@@@stdext@@V?$allocator@U_List_position@?$_Hash@V?$_Umap_traits@IU?$pair@PAVTransaction@DRAMsimII@@PAV12@@std@@V?$_Hash_compare@IV?$hash@I@tr1@std@@U?$equal_to@I@3@@stdext@@V?$allocator@U?$pair@$$CBIU?$pair@PAVTransaction@DRAMsimII@@PAV12@@std@@@std@@@2@$0A@@tr1@std@@@stdext@@@std@@@std@@QAE@ABV?$allocator@U_List_position@?$_Hash@V?$_Umap_traits@IU?$pair@PAVTransaction@DRAMsimII@@PAV12@@std@@V?$_Hash_compare@IV?$hash@I@tr1@std@@U?$equal_to@I@3@@stdext@@V?$allocator@U?$pair@$$CBIU?$pair@PAVTransaction@DRAMsimII@@PAV12@@std@@@std@@@2@$0A@@tr1@std@@@stdext@@@1@@Z ; std::vector<stdext::_Hash<std::tr1::_Umap_traits<unsigned int,std::pair<DRAMsimII::Transaction *,DRAMsimII::Transaction *>,stdext::_Hash_compare<unsigned int,std::tr1::hash<unsigned int>,std::equal_to<unsigned int> >,std::allocator<std::pair<unsigned int const ,std::pair<DRAMsimII::Transaction *,DRAMsimII::Transaction *> > >,0> >::_List_position,std::allocator<stdext::_Hash<std::tr1::_Umap_traits<unsigned int,std::pair<DRAMsimII::Transaction *,DRAMsimII::Transaction *>,stdext::_Hash_compare<unsigned int,std::tr1::hash<unsigned int>,std::equal_to<unsigned int> >,std::allocator<std::pair<unsigned int const ,std::pair<DRAMsimII::Transaction *,DRAMsimII::Transaction *> > >,0> >::_List_position> >::vector<stdext::_Hash<std::tr1::_Umap_traits<unsigned int,std::pair<DRAMsimII::Transaction *,DRAMsimII::Transaction *>,stdext::_Hash_compare<unsigned int,std::tr1::hash<unsigned int>,std::equal_to<unsigned int> >,std::allocator<std::pair<unsigned int const ,std::pair<DRAMsimII::Transaction *,DRAMsimII::Transaction *> > >,0> >::_List_position,std::allocator<stdext::_Hash<std::tr1::_Umap_traits<unsigned int,std::pair<DRAMsimII::Transaction *,DRAMsimII::Transaction *>,stdext::_Hash_compare<unsigned int,std::tr1::hash<unsigned int>,std::equal_to<unsigned int> >,std::allocator<std::pair<unsigned int const ,std::pair<DRAMsimII::Transaction *,DRAMsimII::Transaction *> > >,0> >::_List_position> >
PUBLIC	??$?0U?$pair@$$CBIU?$pair@PAVTransaction@DRAMsimII@@PAV12@@std@@@std@@@?$allocator@U_List_position@?$_Hash@V?$_Umap_traits@IU?$pair@PAVTransaction@DRAMsimII@@PAV12@@std@@V?$_Hash_compare@IV?$hash@I@tr1@std@@U?$equal_to@I@3@@stdext@@V?$allocator@U?$pair@$$CBIU?$pair@PAVTransaction@DRAMsimII@@PAV12@@std@@@std@@@2@$0A@@tr1@std@@@stdext@@@std@@QAE@ABV?$allocator@U?$pair@$$CBIU?$pair@PAVTransaction@DRAMsimII@@PAV12@@std@@@std@@@1@@Z ; std::allocator<stdext::_Hash<std::tr1::_Umap_traits<unsigned int,std::pair<DRAMsimII::Transaction *,DRAMsimII::Transaction *>,stdext::_Hash_compare<unsigned int,std::tr1::hash<unsigned int>,std::equal_to<unsigned int> >,std::allocator<std::pair<unsigned int const ,std::pair<DRAMsimII::Transaction *,DRAMsimII::Transaction *> > >,0> >::_List_position>::allocator<stdext::_Hash<std::tr1::_Umap_traits<unsigned int,std::pair<DRAMsimII::Transaction *,DRAMsimII::Transaction *>,stdext::_Hash_compare<unsigned int,std::tr1::hash<unsigned int>,std::equal_to<unsigned int> >,std::allocator<std::pair<unsigned int const ,std::pair<DRAMsimII::Transaction *,DRAMsimII::Transaction *> > >,0> >::_List_position><std::pair<unsigned int const ,std::pair<DRAMsimII::Transaction *,DRAMsimII::Transaction *> > >
PUBLIC	??0?$_Hash@V?$_Umap_traits@IU?$pair@PAVTransaction@DRAMsimII@@PAV12@@std@@V?$_Hash_compare@IV?$hash@I@tr1@std@@U?$equal_to@I@3@@stdext@@V?$allocator@U?$pair@$$CBIU?$pair@PAVTransaction@DRAMsimII@@PAV12@@std@@@std@@@2@$0A@@tr1@std@@@stdext@@QAE@ABV?$_Hash_compare@IV?$hash@I@tr1@std@@U?$equal_to@I@3@@1@ABV?$allocator@U?$pair@$$CBIU?$pair@PAVTransaction@DRAMsimII@@PAV12@@std@@@std@@@std@@@Z ; stdext::_Hash<std::tr1::_Umap_traits<unsigned int,std::pair<DRAMsimII::Transaction *,DRAMsimII::Transaction *>,stdext::_Hash_compare<unsigned int,std::tr1::hash<unsigned int>,std::equal_to<unsigned int> >,std::allocator<std::pair<unsigned int const ,std::pair<DRAMsimII::Transaction *,DRAMsimII::Transaction *> > >,0> >::_Hash<std::tr1::_Umap_traits<unsigned int,std::pair<DRAMsimII::Transaction *,DRAMsimII::Transaction *>,stdext::_Hash_compare<unsigned int,std::tr1::hash<unsigned int>,std::equal_to<unsigned int> >,std::allocator<std::pair<unsigned int const ,std::pair<DRAMsimII::Transaction *,DRAMsimII::Transaction *> > >,0> >
PUBLIC	??0?$unordered_map@IU?$pair@PAVTransaction@DRAMsimII@@PAV12@@std@@V?$hash@I@tr1@2@U?$equal_to@I@2@V?$allocator@U?$pair@$$CBIU?$pair@PAVTransaction@DRAMsimII@@PAV12@@std@@@std@@@2@@tr1@std@@QAE@XZ ; std::tr1::unordered_map<unsigned int,std::pair<DRAMsimII::Transaction *,DRAMsimII::Transaction *>,std::tr1::hash<unsigned int>,std::equal_to<unsigned int>,std::allocator<std::pair<unsigned int const ,std::pair<DRAMsimII::Transaction *,DRAMsimII::Transaction *> > > >::unordered_map<unsigned int,std::pair<DRAMsimII::Transaction *,DRAMsimII::Transaction *>,std::tr1::hash<unsigned int>,std::equal_to<unsigned int>,std::allocator<std::pair<unsigned int const ,std::pair<DRAMsimII::Transaction *,DRAMsimII::Transaction *> > > >
PUBLIC	?insert@?$list@U?$pair@$$CBIU?$pair@PAVTransaction@DRAMsimII@@PAV12@@std@@@std@@V?$allocator@U?$pair@$$CBIU?$pair@PAVTransaction@DRAMsimII@@PAV12@@std@@@std@@@2@@std@@QAE?AV?$_Iterator@$00@12@V?$_Const_iterator@$00@12@ABU?$pair@$$CBIU?$pair@PAVTransaction@DRAMsimII@@PAV12@@std@@@2@@Z ; std::list<std::pair<unsigned int const ,std::pair<DRAMsimII::Transaction *,DRAMsimII::Transaction *> >,std::allocator<std::pair<unsigned int const ,std::pair<DRAMsimII::Transaction *,DRAMsimII::Transaction *> > > >::insert
PUBLIC	?erase@?$list@U?$pair@$$CBIU?$pair@PAVTransaction@DRAMsimII@@PAV12@@std@@@std@@V?$allocator@U?$pair@$$CBIU?$pair@PAVTransaction@DRAMsimII@@PAV12@@std@@@std@@@2@@std@@QAE?AV?$_Iterator@$00@12@V?$_Const_iterator@$00@12@0@Z ; std::list<std::pair<unsigned int const ,std::pair<DRAMsimII::Transaction *,DRAMsimII::Transaction *> >,std::allocator<std::pair<unsigned int const ,std::pair<DRAMsimII::Transaction *,DRAMsimII::Transaction *> > > >::erase
PUBLIC	??$?8U?$pair@$$CBIU?$pair@PAVTransaction@DRAMsimII@@PAV12@@std@@@std@@U01@@std@@YA_NABV?$allocator@U?$pair@$$CBIU?$pair@PAVTransaction@DRAMsimII@@PAV12@@std@@@std@@@0@0@Z ; std::operator==<std::pair<unsigned int const ,std::pair<DRAMsimII::Transaction *,DRAMsimII::Transaction *> >,std::pair<unsigned int const ,std::pair<DRAMsimII::Transaction *,DRAMsimII::Transaction *> > >
PUBLIC	??$_Iter_cat@V?$_Const_iterator@$00@?$list@U?$pair@$$CBIU?$pair@PAVTransaction@DRAMsimII@@PAV12@@std@@@std@@V?$allocator@U?$pair@$$CBIU?$pair@PAVTransaction@DRAMsimII@@PAV12@@std@@@std@@@2@@std@@@std@@YA?AUbidirectional_iterator_tag@0@ABV?$_Const_iterator@$00@?$list@U?$pair@$$CBIU?$pair@PAVTransaction@DRAMsimII@@PAV12@@std@@@std@@V?$allocator@U?$pair@$$CBIU?$pair@PAVTransaction@DRAMsimII@@PAV12@@std@@@std@@@2@@0@@Z ; std::_Iter_cat<std::list<std::pair<unsigned int const ,std::pair<DRAMsimII::Transaction *,DRAMsimII::Transaction *> >,std::allocator<std::pair<unsigned int const ,std::pair<DRAMsimII::Transaction *,DRAMsimII::Transaction *> > > >::_Const_iterator<1> >
PUBLIC	??$_Construct@U?$pair@$$CBIU?$pair@PAVTransaction@DRAMsimII@@PAV12@@std@@@std@@U12@@std@@YAXPAU?$pair@$$CBIU?$pair@PAVTransaction@DRAMsimII@@PAV12@@std@@@0@ABU10@@Z ; std::_Construct<std::pair<unsigned int const ,std::pair<DRAMsimII::Transaction *,DRAMsimII::Transaction *> >,std::pair<unsigned int const ,std::pair<DRAMsimII::Transaction *,DRAMsimII::Transaction *> > >
PUBLIC	?construct@?$allocator@U?$pair@$$CBIU?$pair@PAVTransaction@DRAMsimII@@PAV12@@std@@@std@@@std@@QAEXPAU?$pair@$$CBIU?$pair@PAVTransaction@DRAMsimII@@PAV12@@std@@@2@ABU32@@Z ; std::allocator<std::pair<unsigned int const ,std::pair<DRAMsimII::Transaction *,DRAMsimII::Transaction *> > >::construct
PUBLIC	??$_Allocate@U_Node@?$_List_nod@U?$pair@$$CBIU?$pair@PAVTransaction@DRAMsimII@@PAV12@@std@@@std@@V?$allocator@U?$pair@$$CBIU?$pair@PAVTransaction@DRAMsimII@@PAV12@@std@@@std@@@2@@std@@@std@@YAPAU_Node@?$_List_nod@U?$pair@$$CBIU?$pair@PAVTransaction@DRAMsimII@@PAV12@@std@@@std@@V?$allocator@U?$pair@$$CBIU?$pair@PAVTransaction@DRAMsimII@@PAV12@@std@@@std@@@2@@0@IPAU120@@Z ; std::_Allocate<std::_List_nod<std::pair<unsigned int const ,std::pair<DRAMsimII::Transaction *,DRAMsimII::Transaction *> >,std::allocator<std::pair<unsigned int const ,std::pair<DRAMsimII::Transaction *,DRAMsimII::Transaction *> > > >::_Node>
PUBLIC	?allocate@?$allocator@U_Node@?$_List_nod@U?$pair@$$CBIU?$pair@PAVTransaction@DRAMsimII@@PAV12@@std@@@std@@V?$allocator@U?$pair@$$CBIU?$pair@PAVTransaction@DRAMsimII@@PAV12@@std@@@std@@@2@@std@@@std@@QAEPAU_Node@?$_List_nod@U?$pair@$$CBIU?$pair@PAVTransaction@DRAMsimII@@PAV12@@std@@@std@@V?$allocator@U?$pair@$$CBIU?$pair@PAVTransaction@DRAMsimII@@PAV12@@std@@@std@@@2@@2@I@Z ; std::allocator<std::_List_nod<std::pair<unsigned int const ,std::pair<DRAMsimII::Transaction *,DRAMsimII::Transaction *> >,std::allocator<std::pair<unsigned int const ,std::pair<DRAMsimII::Transaction *,DRAMsimII::Transaction *> > > >::_Node>::allocate
PUBLIC	??$_Construct@PAU_Node@?$_List_nod@U?$pair@$$CBIU?$pair@PAVTransaction@DRAMsimII@@PAV12@@std@@@std@@V?$allocator@U?$pair@$$CBIU?$pair@PAVTransaction@DRAMsimII@@PAV12@@std@@@std@@@2@@std@@PAU123@@std@@YAXPAPAU_Node@?$_List_nod@U?$pair@$$CBIU?$pair@PAVTransaction@DRAMsimII@@PAV12@@std@@@std@@V?$allocator@U?$pair@$$CBIU?$pair@PAVTransaction@DRAMsimII@@PAV12@@std@@@std@@@2@@0@ABQAU120@@Z ; std::_Construct<std::_List_nod<std::pair<unsigned int const ,std::pair<DRAMsimII::Transaction *,DRAMsimII::Transaction *> >,std::allocator<std::pair<unsigned int const ,std::pair<DRAMsimII::Transaction *,DRAMsimII::Transaction *> > > >::_Node *,std::_List_nod<std::pair<unsigned int const ,std::pair<DRAMsimII::Transaction *,DRAMsimII::Transaction *> >,std::allocator<std::pair<unsigned int const ,std::pair<DRAMsimII::Transaction *,DRAMsimII::Transaction *> > > >::_Node *>
PUBLIC	?construct@?$allocator@PAU_Node@?$_List_nod@U?$pair@$$CBIU?$pair@PAVTransaction@DRAMsimII@@PAV12@@std@@@std@@V?$allocator@U?$pair@$$CBIU?$pair@PAVTransaction@DRAMsimII@@PAV12@@std@@@std@@@2@@std@@@std@@QAEXPAPAU_Node@?$_List_nod@U?$pair@$$CBIU?$pair@PAVTransaction@DRAMsimII@@PAV12@@std@@@std@@V?$allocator@U?$pair@$$CBIU?$pair@PAVTransaction@DRAMsimII@@PAV12@@std@@@std@@@2@@2@ABQAU342@@Z ; std::allocator<std::_List_nod<std::pair<unsigned int const ,std::pair<DRAMsimII::Transaction *,DRAMsimII::Transaction *> >,std::allocator<std::pair<unsigned int const ,std::pair<DRAMsimII::Transaction *,DRAMsimII::Transaction *> > > >::_Node *>::construct
PUBLIC	?_Buynode@?$list@U?$pair@$$CBIU?$pair@PAVTransaction@DRAMsimII@@PAV12@@std@@@std@@V?$allocator@U?$pair@$$CBIU?$pair@PAVTransaction@DRAMsimII@@PAV12@@std@@@std@@@2@@std@@IAEPAU_Node@?$_List_nod@U?$pair@$$CBIU?$pair@PAVTransaction@DRAMsimII@@PAV12@@std@@@std@@V?$allocator@U?$pair@$$CBIU?$pair@PAVTransaction@DRAMsimII@@PAV12@@std@@@std@@@2@@2@PAU342@0ABU?$pair@$$CBIU?$pair@PAVTransaction@DRAMsimII@@PAV12@@std@@@2@@Z ; std::list<std::pair<unsigned int const ,std::pair<DRAMsimII::Transaction *,DRAMsimII::Transaction *> >,std::allocator<std::pair<unsigned int const ,std::pair<DRAMsimII::Transaction *,DRAMsimII::Transaction *> > > >::_Buynode
PUBLIC	?max_size@?$allocator@U?$pair@$$CBIU?$pair@PAVTransaction@DRAMsimII@@PAV12@@std@@@std@@@std@@QBEIXZ ; std::allocator<std::pair<unsigned int const ,std::pair<DRAMsimII::Transaction *,DRAMsimII::Transaction *> > >::max_size
PUBLIC	?max_size@?$list@U?$pair@$$CBIU?$pair@PAVTransaction@DRAMsimII@@PAV12@@std@@@std@@V?$allocator@U?$pair@$$CBIU?$pair@PAVTransaction@DRAMsimII@@PAV12@@std@@@std@@@2@@std@@QBEIXZ ; std::list<std::pair<unsigned int const ,std::pair<DRAMsimII::Transaction *,DRAMsimII::Transaction *> >,std::allocator<std::pair<unsigned int const ,std::pair<DRAMsimII::Transaction *,DRAMsimII::Transaction *> > > >::max_size
PUBLIC	?_Incsize@?$list@U?$pair@$$CBIU?$pair@PAVTransaction@DRAMsimII@@PAV12@@std@@@std@@V?$allocator@U?$pair@$$CBIU?$pair@PAVTransaction@DRAMsimII@@PAV12@@std@@@std@@@2@@std@@IAEXI@Z ; std::list<std::pair<unsigned int const ,std::pair<DRAMsimII::Transaction *,DRAMsimII::Transaction *> >,std::allocator<std::pair<unsigned int const ,std::pair<DRAMsimII::Transaction *,DRAMsimII::Transaction *> > > >::_Incsize
PUBLIC	?_Insert@?$list@U?$pair@$$CBIU?$pair@PAVTransaction@DRAMsimII@@PAV12@@std@@@std@@V?$allocator@U?$pair@$$CBIU?$pair@PAVTransaction@DRAMsimII@@PAV12@@std@@@std@@@2@@std@@QAEXV?$_Const_iterator@$00@12@ABU?$pair@$$CBIU?$pair@PAVTransaction@DRAMsimII@@PAV12@@std@@@2@@Z ; std::list<std::pair<unsigned int const ,std::pair<DRAMsimII::Transaction *,DRAMsimII::Transaction *> >,std::allocator<std::pair<unsigned int const ,std::pair<DRAMsimII::Transaction *,DRAMsimII::Transaction *> > > >::_Insert
PUBLIC	?_Make_iter@?$list@U?$pair@$$CBIU?$pair@PAVTransaction@DRAMsimII@@PAV12@@std@@@std@@V?$allocator@U?$pair@$$CBIU?$pair@PAVTransaction@DRAMsimII@@PAV12@@std@@@std@@@2@@std@@QBE?AV?$_Iterator@$00@12@V?$_Const_iterator@$00@12@@Z ; std::list<std::pair<unsigned int const ,std::pair<DRAMsimII::Transaction *,DRAMsimII::Transaction *> >,std::allocator<std::pair<unsigned int const ,std::pair<DRAMsimII::Transaction *,DRAMsimII::Transaction *> > > >::_Make_iter
PUBLIC	?erase@?$list@U?$pair@$$CBIU?$pair@PAVTransaction@DRAMsimII@@PAV12@@std@@@std@@V?$allocator@U?$pair@$$CBIU?$pair@PAVTransaction@DRAMsimII@@PAV12@@std@@@std@@@2@@std@@QAE?AV?$_Iterator@$00@12@V?$_Const_iterator@$00@12@@Z ; std::list<std::pair<unsigned int const ,std::pair<DRAMsimII::Transaction *,DRAMsimII::Transaction *> >,std::allocator<std::pair<unsigned int const ,std::pair<DRAMsimII::Transaction *,DRAMsimII::Transaction *> > > >::erase
PUBLIC	??$_Insert@V?$_Const_iterator@$00@?$list@U?$pair@$$CBIU?$pair@PAVTransaction@DRAMsimII@@PAV12@@std@@@std@@V?$allocator@U?$pair@$$CBIU?$pair@PAVTransaction@DRAMsimII@@PAV12@@std@@@std@@@2@@std@@@?$list@U?$pair@$$CBIU?$pair@PAVTransaction@DRAMsimII@@PAV12@@std@@@std@@V?$allocator@U?$pair@$$CBIU?$pair@PAVTransaction@DRAMsimII@@PAV12@@std@@@std@@@2@@std@@QAEXV?$_Const_iterator@$00@01@00Uforward_iterator_tag@1@@Z ; std::list<std::pair<unsigned int const ,std::pair<DRAMsimII::Transaction *,DRAMsimII::Transaction *> >,std::allocator<std::pair<unsigned int const ,std::pair<DRAMsimII::Transaction *,DRAMsimII::Transaction *> > > >::_Insert<std::list<std::pair<unsigned int const ,std::pair<DRAMsimII::Transaction *,DRAMsimII::Transaction *> >,std::allocator<std::pair<unsigned int const ,std::pair<DRAMsimII::Transaction *,DRAMsimII::Transaction *> > > >::_Const_iterator<1> >
PUBLIC	??$insert@V?$_Const_iterator@$00@?$list@U?$pair@$$CBIU?$pair@PAVTransaction@DRAMsimII@@PAV12@@std@@@std@@V?$allocator@U?$pair@$$CBIU?$pair@PAVTransaction@DRAMsimII@@PAV12@@std@@@std@@@2@@std@@@?$list@U?$pair@$$CBIU?$pair@PAVTransaction@DRAMsimII@@PAV12@@std@@@std@@V?$allocator@U?$pair@$$CBIU?$pair@PAVTransaction@DRAMsimII@@PAV12@@std@@@std@@@2@@std@@QAEXV?$_Const_iterator@$00@01@00@Z ; std::list<std::pair<unsigned int const ,std::pair<DRAMsimII::Transaction *,DRAMsimII::Transaction *> >,std::allocator<std::pair<unsigned int const ,std::pair<DRAMsimII::Transaction *,DRAMsimII::Transaction *> > > >::insert<std::list<std::pair<unsigned int const ,std::pair<DRAMsimII::Transaction *,DRAMsimII::Transaction *> >,std::allocator<std::pair<unsigned int const ,std::pair<DRAMsimII::Transaction *,DRAMsimII::Transaction *> > > >::_Const_iterator<1> >
PUBLIC	?_Splice@?$list@U?$pair@$$CBIU?$pair@PAVTransaction@DRAMsimII@@PAV12@@std@@@std@@V?$allocator@U?$pair@$$CBIU?$pair@PAVTransaction@DRAMsimII@@PAV12@@std@@@std@@@2@@std@@QAEXV?$_Const_iterator@$00@12@AAV12@00I_N@Z ; std::list<std::pair<unsigned int const ,std::pair<DRAMsimII::Transaction *,DRAMsimII::Transaction *> >,std::allocator<std::pair<unsigned int const ,std::pair<DRAMsimII::Transaction *,DRAMsimII::Transaction *> > > >::_Splice
PUBLIC	?splice@?$list@U?$pair@$$CBIU?$pair@PAVTransaction@DRAMsimII@@PAV12@@std@@@std@@V?$allocator@U?$pair@$$CBIU?$pair@PAVTransaction@DRAMsimII@@PAV12@@std@@@std@@@2@@std@@QAEXV?$_Const_iterator@$00@12@AAV12@0@Z ; std::list<std::pair<unsigned int const ,std::pair<DRAMsimII::Transaction *,DRAMsimII::Transaction *> >,std::allocator<std::pair<unsigned int const ,std::pair<DRAMsimII::Transaction *,DRAMsimII::Transaction *> > > >::splice
PUBLIC	?size@?$list@U?$pair@$$CBIU?$pair@PAVTransaction@DRAMsimII@@PAV12@@std@@@std@@V?$allocator@U?$pair@$$CBIU?$pair@PAVTransaction@DRAMsimII@@PAV12@@std@@@std@@@2@@std@@QBEIXZ ; std::list<std::pair<unsigned int const ,std::pair<DRAMsimII::Transaction *,DRAMsimII::Transaction *> >,std::allocator<std::pair<unsigned int const ,std::pair<DRAMsimII::Transaction *,DRAMsimII::Transaction *> > > >::size
PUBLIC	?size@?$_Hash@V?$_Umap_traits@IU?$pair@PAVTransaction@DRAMsimII@@PAV12@@std@@V?$_Hash_compare@IV?$hash@I@tr1@std@@U?$equal_to@I@3@@stdext@@V?$allocator@U?$pair@$$CBIU?$pair@PAVTransaction@DRAMsimII@@PAV12@@std@@@std@@@2@$0A@@tr1@std@@@stdext@@QBEIXZ ; stdext::_Hash<std::tr1::_Umap_traits<unsigned int,std::pair<DRAMsimII::Transaction *,DRAMsimII::Transaction *>,stdext::_Hash_compare<unsigned int,std::tr1::hash<unsigned int>,std::equal_to<unsigned int> >,std::allocator<std::pair<unsigned int const ,std::pair<DRAMsimII::Transaction *,DRAMsimII::Transaction *> > >,0> >::size
PUBLIC	?bucket_count@?$_Hash@V?$_Umap_traits@IU?$pair@PAVTransaction@DRAMsimII@@PAV12@@std@@V?$_Hash_compare@IV?$hash@I@tr1@std@@U?$equal_to@I@3@@stdext@@V?$allocator@U?$pair@$$CBIU?$pair@PAVTransaction@DRAMsimII@@PAV12@@std@@@std@@@2@$0A@@tr1@std@@@stdext@@QBEIXZ ; stdext::_Hash<std::tr1::_Umap_traits<unsigned int,std::pair<DRAMsimII::Transaction *,DRAMsimII::Transaction *>,stdext::_Hash_compare<unsigned int,std::tr1::hash<unsigned int>,std::equal_to<unsigned int> >,std::allocator<std::pair<unsigned int const ,std::pair<DRAMsimII::Transaction *,DRAMsimII::Transaction *> > >,0> >::bucket_count
PUBLIC	?load_factor@?$_Hash@V?$_Umap_traits@IU?$pair@PAVTransaction@DRAMsimII@@PAV12@@std@@V?$_Hash_compare@IV?$hash@I@tr1@std@@U?$equal_to@I@3@@stdext@@V?$allocator@U?$pair@$$CBIU?$pair@PAVTransaction@DRAMsimII@@PAV12@@std@@@std@@@2@$0A@@tr1@std@@@stdext@@QBEMXZ ; stdext::_Hash<std::tr1::_Umap_traits<unsigned int,std::pair<DRAMsimII::Transaction *,DRAMsimII::Transaction *>,stdext::_Hash_compare<unsigned int,std::tr1::hash<unsigned int>,std::equal_to<unsigned int> >,std::allocator<std::pair<unsigned int const ,std::pair<DRAMsimII::Transaction *,DRAMsimII::Transaction *> > >,0> >::load_factor
PUBLIC	?max_load_factor@?$_Hash@V?$_Umap_traits@IU?$pair@PAVTransaction@DRAMsimII@@PAV12@@std@@V?$_Hash_compare@IV?$hash@I@tr1@std@@U?$equal_to@I@3@@stdext@@V?$allocator@U?$pair@$$CBIU?$pair@PAVTransaction@DRAMsimII@@PAV12@@std@@@std@@@2@$0A@@tr1@std@@@stdext@@QBEMXZ ; stdext::_Hash<std::tr1::_Umap_traits<unsigned int,std::pair<DRAMsimII::Transaction *,DRAMsimII::Transaction *>,stdext::_Hash_compare<unsigned int,std::tr1::hash<unsigned int>,std::equal_to<unsigned int> >,std::allocator<std::pair<unsigned int const ,std::pair<DRAMsimII::Transaction *,DRAMsimII::Transaction *> > >,0> >::max_load_factor
PUBLIC	?begin@?$vector@U_List_position@?$_Hash@V?$_Umap_traits@IU?$pair@PAVTransaction@DRAMsimII@@PAV12@@std@@V?$_Hash_compare@IV?$hash@I@tr1@std@@U?$equal_to@I@3@@stdext@@V?$allocator@U?$pair@$$CBIU?$pair@PAVTransaction@DRAMsimII@@PAV12@@std@@@std@@@2@$0A@@tr1@std@@@stdext@@V?$allocator@U_List_position@?$_Hash@V?$_Umap_traits@IU?$pair@PAVTransaction@DRAMsimII@@PAV12@@std@@V?$_Hash_compare@IV?$hash@I@tr1@std@@U?$equal_to@I@3@@stdext@@V?$allocator@U?$pair@$$CBIU?$pair@PAVTransaction@DRAMsimII@@PAV12@@std@@@std@@@2@$0A@@tr1@std@@@stdext@@@std@@@std@@QAE?AV?$_Vector_iterator@U_List_position@?$_Hash@V?$_Umap_traits@IU?$pair@PAVTransaction@DRAMsimII@@PAV12@@std@@V?$_Hash_compare@IV?$hash@I@tr1@std@@U?$equal_to@I@3@@stdext@@V?$allocator@U?$pair@$$CBIU?$pair@PAVTransaction@DRAMsimII@@PAV12@@std@@@std@@@2@$0A@@tr1@std@@@stdext@@V?$allocator@U_List_position@?$_Hash@V?$_Umap_traits@IU?$pair@PAVTransaction@DRAMsimII@@PAV12@@std@@V?$_Hash_compare@IV?$hash@I@tr1@std@@U?$equal_to@I@3@@stdext@@V?$allocator@U?$pair@$$CBIU?$pair@PAVTransaction@DRAMsimII@@PAV12@@std@@@std@@@2@$0A@@tr1@std@@@stdext@@@std@@@2@XZ ; std::vector<stdext::_Hash<std::tr1::_Umap_traits<unsigned int,std::pair<DRAMsimII::Transaction *,DRAMsimII::Transaction *>,stdext::_Hash_compare<unsigned int,std::tr1::hash<unsigned int>,std::equal_to<unsigned int> >,std::allocator<std::pair<unsigned int const ,std::pair<DRAMsimII::Transaction *,DRAMsimII::Transaction *> > >,0> >::_List_position,std::allocator<stdext::_Hash<std::tr1::_Umap_traits<unsigned int,std::pair<DRAMsimII::Transaction *,DRAMsimII::Transaction *>,stdext::_Hash_compare<unsigned int,std::tr1::hash<unsigned int>,std::equal_to<unsigned int> >,std::allocator<std::pair<unsigned int const ,std::pair<DRAMsimII::Transaction *,DRAMsimII::Transaction *> > >,0> >::_List_position> >::begin
PUBLIC	?end@?$vector@U_List_position@?$_Hash@V?$_Umap_traits@IU?$pair@PAVTransaction@DRAMsimII@@PAV12@@std@@V?$_Hash_compare@IV?$hash@I@tr1@std@@U?$equal_to@I@3@@stdext@@V?$allocator@U?$pair@$$CBIU?$pair@PAVTransaction@DRAMsimII@@PAV12@@std@@@std@@@2@$0A@@tr1@std@@@stdext@@V?$allocator@U_List_position@?$_Hash@V?$_Umap_traits@IU?$pair@PAVTransaction@DRAMsimII@@PAV12@@std@@V?$_Hash_compare@IV?$hash@I@tr1@std@@U?$equal_to@I@3@@stdext@@V?$allocator@U?$pair@$$CBIU?$pair@PAVTransaction@DRAMsimII@@PAV12@@std@@@std@@@2@$0A@@tr1@std@@@stdext@@@std@@@std@@QAE?AV?$_Vector_iterator@U_List_position@?$_Hash@V?$_Umap_traits@IU?$pair@PAVTransaction@DRAMsimII@@PAV12@@std@@V?$_Hash_compare@IV?$hash@I@tr1@std@@U?$equal_to@I@3@@stdext@@V?$allocator@U?$pair@$$CBIU?$pair@PAVTransaction@DRAMsimII@@PAV12@@std@@@std@@@2@$0A@@tr1@std@@@stdext@@V?$allocator@U_List_position@?$_Hash@V?$_Umap_traits@IU?$pair@PAVTransaction@DRAMsimII@@PAV12@@std@@V?$_Hash_compare@IV?$hash@I@tr1@std@@U?$equal_to@I@3@@stdext@@V?$allocator@U?$pair@$$CBIU?$pair@PAVTransaction@DRAMsimII@@PAV12@@std@@@std@@@2@$0A@@tr1@std@@@stdext@@@std@@@2@XZ ; std::vector<stdext::_Hash<std::tr1::_Umap_traits<unsigned int,std::pair<DRAMsimII::Transaction *,DRAMsimII::Transaction *>,stdext::_Hash_compare<unsigned int,std::tr1::hash<unsigned int>,std::equal_to<unsigned int> >,std::allocator<std::pair<unsigned int const ,std::pair<DRAMsimII::Transaction *,DRAMsimII::Transaction *> > >,0> >::_List_position,std::allocator<stdext::_Hash<std::tr1::_Umap_traits<unsigned int,std::pair<DRAMsimII::Transaction *,DRAMsimII::Transaction *>,stdext::_Hash_compare<unsigned int,std::tr1::hash<unsigned int>,std::equal_to<unsigned int> >,std::allocator<std::pair<unsigned int const ,std::pair<DRAMsimII::Transaction *,DRAMsimII::Transaction *> > >,0> >::_List_position> >::end
PUBLIC	??$_Allocate@U_List_position@?$_Hash@V?$_Umap_traits@IU?$pair@PAVTransaction@DRAMsimII@@PAV12@@std@@V?$_Hash_compare@IV?$hash@I@tr1@std@@U?$equal_to@I@3@@stdext@@V?$allocator@U?$pair@$$CBIU?$pair@PAVTransaction@DRAMsimII@@PAV12@@std@@@std@@@2@$0A@@tr1@std@@@stdext@@@std@@YAPAU_List_position@?$_Hash@V?$_Umap_traits@IU?$pair@PAVTransaction@DRAMsimII@@PAV12@@std@@V?$_Hash_compare@IV?$hash@I@tr1@std@@U?$equal_to@I@3@@stdext@@V?$allocator@U?$pair@$$CBIU?$pair@PAVTransaction@DRAMsimII@@PAV12@@std@@@std@@@2@$0A@@tr1@std@@@stdext@@IPAU123@@Z ; std::_Allocate<stdext::_Hash<std::tr1::_Umap_traits<unsigned int,std::pair<DRAMsimII::Transaction *,DRAMsimII::Transaction *>,stdext::_Hash_compare<unsigned int,std::tr1::hash<unsigned int>,std::equal_to<unsigned int> >,std::allocator<std::pair<unsigned int const ,std::pair<DRAMsimII::Transaction *,DRAMsimII::Transaction *> > >,0> >::_List_position>
PUBLIC	?allocate@?$allocator@U_List_position@?$_Hash@V?$_Umap_traits@IU?$pair@PAVTransaction@DRAMsimII@@PAV12@@std@@V?$_Hash_compare@IV?$hash@I@tr1@std@@U?$equal_to@I@3@@stdext@@V?$allocator@U?$pair@$$CBIU?$pair@PAVTransaction@DRAMsimII@@PAV12@@std@@@std@@@2@$0A@@tr1@std@@@stdext@@@std@@QAEPAU_List_position@?$_Hash@V?$_Umap_traits@IU?$pair@PAVTransaction@DRAMsimII@@PAV12@@std@@V?$_Hash_compare@IV?$hash@I@tr1@std@@U?$equal_to@I@3@@stdext@@V?$allocator@U?$pair@$$CBIU?$pair@PAVTransaction@DRAMsimII@@PAV12@@std@@@std@@@2@$0A@@tr1@std@@@stdext@@I@Z ; std::allocator<stdext::_Hash<std::tr1::_Umap_traits<unsigned int,std::pair<DRAMsimII::Transaction *,DRAMsimII::Transaction *>,stdext::_Hash_compare<unsigned int,std::tr1::hash<unsigned int>,std::equal_to<unsigned int> >,std::allocator<std::pair<unsigned int const ,std::pair<DRAMsimII::Transaction *,DRAMsimII::Transaction *> > >,0> >::_List_position>::allocate
PUBLIC	?capacity@?$vector@U_List_position@?$_Hash@V?$_Umap_traits@IU?$pair@PAVTransaction@DRAMsimII@@PAV12@@std@@V?$_Hash_compare@IV?$hash@I@tr1@std@@U?$equal_to@I@3@@stdext@@V?$allocator@U?$pair@$$CBIU?$pair@PAVTransaction@DRAMsimII@@PAV12@@std@@@std@@@2@$0A@@tr1@std@@@stdext@@V?$allocator@U_List_position@?$_Hash@V?$_Umap_traits@IU?$pair@PAVTransaction@DRAMsimII@@PAV12@@std@@V?$_Hash_compare@IV?$hash@I@tr1@std@@U?$equal_to@I@3@@stdext@@V?$allocator@U?$pair@$$CBIU?$pair@PAVTransaction@DRAMsimII@@PAV12@@std@@@std@@@2@$0A@@tr1@std@@@stdext@@@std@@@std@@QBEIXZ ; std::vector<stdext::_Hash<std::tr1::_Umap_traits<unsigned int,std::pair<DRAMsimII::Transaction *,DRAMsimII::Transaction *>,stdext::_Hash_compare<unsigned int,std::tr1::hash<unsigned int>,std::equal_to<unsigned int> >,std::allocator<std::pair<unsigned int const ,std::pair<DRAMsimII::Transaction *,DRAMsimII::Transaction *> > >,0> >::_List_position,std::allocator<stdext::_Hash<std::tr1::_Umap_traits<unsigned int,std::pair<DRAMsimII::Transaction *,DRAMsimII::Transaction *>,stdext::_Hash_compare<unsigned int,std::tr1::hash<unsigned int>,std::equal_to<unsigned int> >,std::allocator<std::pair<unsigned int const ,std::pair<DRAMsimII::Transaction *,DRAMsimII::Transaction *> > >,0> >::_List_position> >::capacity
PUBLIC	??$_Uninit_fill_n@PAU_List_position@?$_Hash@V?$_Umap_traits@IU?$pair@PAVTransaction@DRAMsimII@@PAV12@@std@@V?$_Hash_compare@IV?$hash@I@tr1@std@@U?$equal_to@I@3@@stdext@@V?$allocator@U?$pair@$$CBIU?$pair@PAVTransaction@DRAMsimII@@PAV12@@std@@@std@@@2@$0A@@tr1@std@@@stdext@@IU123@V?$allocator@U_List_position@?$_Hash@V?$_Umap_traits@IU?$pair@PAVTransaction@DRAMsimII@@PAV12@@std@@V?$_Hash_compare@IV?$hash@I@tr1@std@@U?$equal_to@I@3@@stdext@@V?$allocator@U?$pair@$$CBIU?$pair@PAVTransaction@DRAMsimII@@PAV12@@std@@@std@@@2@$0A@@tr1@std@@@stdext@@@std@@@std@@YAXPAU_List_position@?$_Hash@V?$_Umap_traits@IU?$pair@PAVTransaction@DRAMsimII@@PAV12@@std@@V?$_Hash_compare@IV?$hash@I@tr1@std@@U?$equal_to@I@3@@stdext@@V?$allocator@U?$pair@$$CBIU?$pair@PAVTransaction@DRAMsimII@@PAV12@@std@@@std@@@2@$0A@@tr1@std@@@stdext@@IABU123@AAV?$allocator@U_List_position@?$_Hash@V?$_Umap_traits@IU?$pair@PAVTransaction@DRAMsimII@@PAV12@@std@@V?$_Hash_compare@IV?$hash@I@tr1@std@@U?$equal_to@I@3@@stdext@@V?$allocator@U?$pair@$$CBIU?$pair@PAVTransaction@DRAMsimII@@PAV12@@std@@@std@@@2@$0A@@tr1@std@@@stdext@@@0@U_Nonscalar_ptr_iterator_tag@0@U_Range_checked_iterator_tag@0@@Z ; std::_Uninit_fill_n<stdext::_Hash<std::tr1::_Umap_traits<unsigned int,std::pair<DRAMsimII::Transaction *,DRAMsimII::Transaction *>,stdext::_Hash_compare<unsigned int,std::tr1::hash<unsigned int>,std::equal_to<unsigned int> >,std::allocator<std::pair<unsigned int const ,std::pair<DRAMsimII::Transaction *,DRAMsimII::Transaction *> > >,0> >::_List_position *,unsigned int,stdext::_Hash<std::tr1::_Umap_traits<unsigned int,std::pair<DRAMsimII::Transaction *,DRAMsimII::Transaction *>,stdext::_Hash_compare<unsigned int,std::tr1::hash<unsigned int>,std::equal_to<unsigned int> >,std::allocator<std::pair<unsigned int const ,std::pair<DRAMsimII::Transaction *,DRAMsimII::Transaction *> > >,0> >::_List_position,std::allocator<stdext::_Hash<std::tr1::_Umap_traits<unsigned int,std::pair<DRAMsimII::Transaction *,DRAMsimII::Transaction *>,stdext::_Hash_compare<unsigned int,std::tr1::hash<unsigned int>,std::equal_to<unsigned int> >,std::allocator<std::pair<unsigned int const ,std::pair<DRAMsimII::Transaction *,DRAMsimII::Transaction *> > >,0> >::_List_position> >
PUBLIC	??$unchecked_uninitialized_fill_n@PAU_List_position@?$_Hash@V?$_Umap_traits@IU?$pair@PAVTransaction@DRAMsimII@@PAV12@@std@@V?$_Hash_compare@IV?$hash@I@tr1@std@@U?$equal_to@I@3@@stdext@@V?$allocator@U?$pair@$$CBIU?$pair@PAVTransaction@DRAMsimII@@PAV12@@std@@@std@@@2@$0A@@tr1@std@@@stdext@@IU123@V?$allocator@U_List_position@?$_Hash@V?$_Umap_traits@IU?$pair@PAVTransaction@DRAMsimII@@PAV12@@std@@V?$_Hash_compare@IV?$hash@I@tr1@std@@U?$equal_to@I@3@@stdext@@V?$allocator@U?$pair@$$CBIU?$pair@PAVTransaction@DRAMsimII@@PAV12@@std@@@std@@@2@$0A@@tr1@std@@@stdext@@@std@@@stdext@@YAXPAU_List_position@?$_Hash@V?$_Umap_traits@IU?$pair@PAVTransaction@DRAMsimII@@PAV12@@std@@V?$_Hash_compare@IV?$hash@I@tr1@std@@U?$equal_to@I@3@@stdext@@V?$allocator@U?$pair@$$CBIU?$pair@PAVTransaction@DRAMsimII@@PAV12@@std@@@std@@@2@$0A@@tr1@std@@@0@IABU120@AAV?$allocator@U_List_position@?$_Hash@V?$_Umap_traits@IU?$pair@PAVTransaction@DRAMsimII@@PAV12@@std@@V?$_Hash_compare@IV?$hash@I@tr1@std@@U?$equal_to@I@3@@stdext@@V?$allocator@U?$pair@$$CBIU?$pair@PAVTransaction@DRAMsimII@@PAV12@@std@@@std@@@2@$0A@@tr1@std@@@stdext@@@std@@@Z ; stdext::unchecked_uninitialized_fill_n<stdext::_Hash<std::tr1::_Umap_traits<unsigned int,std::pair<DRAMsimII::Transaction *,DRAMsimII::Transaction *>,stdext::_Hash_compare<unsigned int,std::tr1::hash<unsigned int>,std::equal_to<unsigned int> >,std::allocator<std::pair<unsigned int const ,std::pair<DRAMsimII::Transaction *,DRAMsimII::Transaction *> > >,0> >::_List_position *,unsigned int,stdext::_Hash<std::tr1::_Umap_traits<unsigned int,std::pair<DRAMsimII::Transaction *,DRAMsimII::Transaction *>,stdext::_Hash_compare<unsigned int,std::tr1::hash<unsigned int>,std::equal_to<unsigned int> >,std::allocator<std::pair<unsigned int const ,std::pair<DRAMsimII::Transaction *,DRAMsimII::Transaction *> > >,0> >::_List_position,std::allocator<stdext::_Hash<std::tr1::_Umap_traits<unsigned int,std::pair<DRAMsimII::Transaction *,DRAMsimII::Transaction *>,stdext::_Hash_compare<unsigned int,std::tr1::hash<unsigned int>,std::equal_to<unsigned int> >,std::allocator<std::pair<unsigned int const ,std::pair<DRAMsimII::Transaction *,DRAMsimII::Transaction *> > >,0> >::_List_position> >
PUBLIC	?_Ufill@?$vector@U_List_position@?$_Hash@V?$_Umap_traits@IU?$pair@PAVTransaction@DRAMsimII@@PAV12@@std@@V?$_Hash_compare@IV?$hash@I@tr1@std@@U?$equal_to@I@3@@stdext@@V?$allocator@U?$pair@$$CBIU?$pair@PAVTransaction@DRAMsimII@@PAV12@@std@@@std@@@2@$0A@@tr1@std@@@stdext@@V?$allocator@U_List_position@?$_Hash@V?$_Umap_traits@IU?$pair@PAVTransaction@DRAMsimII@@PAV12@@std@@V?$_Hash_compare@IV?$hash@I@tr1@std@@U?$equal_to@I@3@@stdext@@V?$allocator@U?$pair@$$CBIU?$pair@PAVTransaction@DRAMsimII@@PAV12@@std@@@std@@@2@$0A@@tr1@std@@@stdext@@@std@@@std@@IAEPAU_List_position@?$_Hash@V?$_Umap_traits@IU?$pair@PAVTransaction@DRAMsimII@@PAV12@@std@@V?$_Hash_compare@IV?$hash@I@tr1@std@@U?$equal_to@I@3@@stdext@@V?$allocator@U?$pair@$$CBIU?$pair@PAVTransaction@DRAMsimII@@PAV12@@std@@@std@@@2@$0A@@tr1@std@@@stdext@@PAU345@IABU345@@Z ; std::vector<stdext::_Hash<std::tr1::_Umap_traits<unsigned int,std::pair<DRAMsimII::Transaction *,DRAMsimII::Transaction *>,stdext::_Hash_compare<unsigned int,std::tr1::hash<unsigned int>,std::equal_to<unsigned int> >,std::allocator<std::pair<unsigned int const ,std::pair<DRAMsimII::Transaction *,DRAMsimII::Transaction *> > >,0> >::_List_position,std::allocator<stdext::_Hash<std::tr1::_Umap_traits<unsigned int,std::pair<DRAMsimII::Transaction *,DRAMsimII::Transaction *>,stdext::_Hash_compare<unsigned int,std::tr1::hash<unsigned int>,std::equal_to<unsigned int> >,std::allocator<std::pair<unsigned int const ,std::pair<DRAMsimII::Transaction *,DRAMsimII::Transaction *> > >,0> >::_List_position> >::_Ufill
PUBLIC	?_Xlen@?$vector@U_List_position@?$_Hash@V?$_Umap_traits@IU?$pair@PAVTransaction@DRAMsimII@@PAV12@@std@@V?$_Hash_compare@IV?$hash@I@tr1@std@@U?$equal_to@I@3@@stdext@@V?$allocator@U?$pair@$$CBIU?$pair@PAVTransaction@DRAMsimII@@PAV12@@std@@@std@@@2@$0A@@tr1@std@@@stdext@@V?$allocator@U_List_position@?$_Hash@V?$_Umap_traits@IU?$pair@PAVTransaction@DRAMsimII@@PAV12@@std@@V?$_Hash_compare@IV?$hash@I@tr1@std@@U?$equal_to@I@3@@stdext@@V?$allocator@U?$pair@$$CBIU?$pair@PAVTransaction@DRAMsimII@@PAV12@@std@@@std@@@2@$0A@@tr1@std@@@stdext@@@std@@@std@@KAXXZ ; std::vector<stdext::_Hash<std::tr1::_Umap_traits<unsigned int,std::pair<DRAMsimII::Transaction *,DRAMsimII::Transaction *>,stdext::_Hash_compare<unsigned int,std::tr1::hash<unsigned int>,std::equal_to<unsigned int> >,std::allocator<std::pair<unsigned int const ,std::pair<DRAMsimII::Transaction *,DRAMsimII::Transaction *> > >,0> >::_List_position,std::allocator<stdext::_Hash<std::tr1::_Umap_traits<unsigned int,std::pair<DRAMsimII::Transaction *,DRAMsimII::Transaction *>,stdext::_Hash_compare<unsigned int,std::tr1::hash<unsigned int>,std::equal_to<unsigned int> >,std::allocator<std::pair<unsigned int const ,std::pair<DRAMsimII::Transaction *,DRAMsimII::Transaction *> > >,0> >::_List_position> >::_Xlen
PUBLIC	??$_Construct@U_List_position@?$_Hash@V?$_Umap_traits@IU?$pair@PAVTransaction@DRAMsimII@@PAV12@@std@@V?$_Hash_compare@IV?$hash@I@tr1@std@@U?$equal_to@I@3@@stdext@@V?$allocator@U?$pair@$$CBIU?$pair@PAVTransaction@DRAMsimII@@PAV12@@std@@@std@@@2@$0A@@tr1@std@@@stdext@@U123@@std@@YAXPAU_List_position@?$_Hash@V?$_Umap_traits@IU?$pair@PAVTransaction@DRAMsimII@@PAV12@@std@@V?$_Hash_compare@IV?$hash@I@tr1@std@@U?$equal_to@I@3@@stdext@@V?$allocator@U?$pair@$$CBIU?$pair@PAVTransaction@DRAMsimII@@PAV12@@std@@@std@@@2@$0A@@tr1@std@@@stdext@@ABU123@@Z ; std::_Construct<stdext::_Hash<std::tr1::_Umap_traits<unsigned int,std::pair<DRAMsimII::Transaction *,DRAMsimII::Transaction *>,stdext::_Hash_compare<unsigned int,std::tr1::hash<unsigned int>,std::equal_to<unsigned int> >,std::allocator<std::pair<unsigned int const ,std::pair<DRAMsimII::Transaction *,DRAMsimII::Transaction *> > >,0> >::_List_position,stdext::_Hash<std::tr1::_Umap_traits<unsigned int,std::pair<DRAMsimII::Transaction *,DRAMsimII::Transaction *>,stdext::_Hash_compare<unsigned int,std::tr1::hash<unsigned int>,std::equal_to<unsigned int> >,std::allocator<std::pair<unsigned int const ,std::pair<DRAMsimII::Transaction *,DRAMsimII::Transaction *> > >,0> >::_List_position>
PUBLIC	?construct@?$allocator@U_List_position@?$_Hash@V?$_Umap_traits@IU?$pair@PAVTransaction@DRAMsimII@@PAV12@@std@@V?$_Hash_compare@IV?$hash@I@tr1@std@@U?$equal_to@I@3@@stdext@@V?$allocator@U?$pair@$$CBIU?$pair@PAVTransaction@DRAMsimII@@PAV12@@std@@@std@@@2@$0A@@tr1@std@@@stdext@@@std@@QAEXPAU_List_position@?$_Hash@V?$_Umap_traits@IU?$pair@PAVTransaction@DRAMsimII@@PAV12@@std@@V?$_Hash_compare@IV?$hash@I@tr1@std@@U?$equal_to@I@3@@stdext@@V?$allocator@U?$pair@$$CBIU?$pair@PAVTransaction@DRAMsimII@@PAV12@@std@@@std@@@2@$0A@@tr1@std@@@stdext@@ABU345@@Z ; std::allocator<stdext::_Hash<std::tr1::_Umap_traits<unsigned int,std::pair<DRAMsimII::Transaction *,DRAMsimII::Transaction *>,stdext::_Hash_compare<unsigned int,std::tr1::hash<unsigned int>,std::equal_to<unsigned int> >,std::allocator<std::pair<unsigned int const ,std::pair<DRAMsimII::Transaction *,DRAMsimII::Transaction *> > >,0> >::_List_position>::construct
PUBLIC	??$_Uninit_copy@PAU_List_position@?$_Hash@V?$_Umap_traits@IU?$pair@PAVTransaction@DRAMsimII@@PAV12@@std@@V?$_Hash_compare@IV?$hash@I@tr1@std@@U?$equal_to@I@3@@stdext@@V?$allocator@U?$pair@$$CBIU?$pair@PAVTransaction@DRAMsimII@@PAV12@@std@@@std@@@2@$0A@@tr1@std@@@stdext@@PAU123@V?$allocator@U_List_position@?$_Hash@V?$_Umap_traits@IU?$pair@PAVTransaction@DRAMsimII@@PAV12@@std@@V?$_Hash_compare@IV?$hash@I@tr1@std@@U?$equal_to@I@3@@stdext@@V?$allocator@U?$pair@$$CBIU?$pair@PAVTransaction@DRAMsimII@@PAV12@@std@@@std@@@2@$0A@@tr1@std@@@stdext@@@std@@@std@@YAPAU_List_position@?$_Hash@V?$_Umap_traits@IU?$pair@PAVTransaction@DRAMsimII@@PAV12@@std@@V?$_Hash_compare@IV?$hash@I@tr1@std@@U?$equal_to@I@3@@stdext@@V?$allocator@U?$pair@$$CBIU?$pair@PAVTransaction@DRAMsimII@@PAV12@@std@@@std@@@2@$0A@@tr1@std@@@stdext@@PAU123@00AAV?$allocator@U_List_position@?$_Hash@V?$_Umap_traits@IU?$pair@PAVTransaction@DRAMsimII@@PAV12@@std@@V?$_Hash_compare@IV?$hash@I@tr1@std@@U?$equal_to@I@3@@stdext@@V?$allocator@U?$pair@$$CBIU?$pair@PAVTransaction@DRAMsimII@@PAV12@@std@@@std@@@2@$0A@@tr1@std@@@stdext@@@0@U_Nonscalar_ptr_iterator_tag@0@U_Range_checked_iterator_tag@0@@Z ; std::_Uninit_copy<stdext::_Hash<std::tr1::_Umap_traits<unsigned int,std::pair<DRAMsimII::Transaction *,DRAMsimII::Transaction *>,stdext::_Hash_compare<unsigned int,std::tr1::hash<unsigned int>,std::equal_to<unsigned int> >,std::allocator<std::pair<unsigned int const ,std::pair<DRAMsimII::Transaction *,DRAMsimII::Transaction *> > >,0> >::_List_position *,stdext::_Hash<std::tr1::_Umap_traits<unsigned int,std::pair<DRAMsimII::Transaction *,DRAMsimII::Transaction *>,stdext::_Hash_compare<unsigned int,std::tr1::hash<unsigned int>,std::equal_to<unsigned int> >,std::allocator<std::pair<unsigned int const ,std::pair<DRAMsimII::Transaction *,DRAMsimII::Transaction *> > >,0> >::_List_position *,std::allocator<stdext::_Hash<std::tr1::_Umap_traits<unsigned int,std::pair<DRAMsimII::Transaction *,DRAMsimII::Transaction *>,stdext::_Hash_compare<unsigned int,std::tr1::hash<unsigned int>,std::equal_to<unsigned int> >,std::allocator<std::pair<unsigned int const ,std::pair<DRAMsimII::Transaction *,DRAMsimII::Transaction *> > >,0> >::_List_position> >
PUBLIC	??$unchecked_uninitialized_copy@PAU_List_position@?$_Hash@V?$_Umap_traits@IU?$pair@PAVTransaction@DRAMsimII@@PAV12@@std@@V?$_Hash_compare@IV?$hash@I@tr1@std@@U?$equal_to@I@3@@stdext@@V?$allocator@U?$pair@$$CBIU?$pair@PAVTransaction@DRAMsimII@@PAV12@@std@@@std@@@2@$0A@@tr1@std@@@stdext@@PAU123@V?$allocator@U_List_position@?$_Hash@V?$_Umap_traits@IU?$pair@PAVTransaction@DRAMsimII@@PAV12@@std@@V?$_Hash_compare@IV?$hash@I@tr1@std@@U?$equal_to@I@3@@stdext@@V?$allocator@U?$pair@$$CBIU?$pair@PAVTransaction@DRAMsimII@@PAV12@@std@@@std@@@2@$0A@@tr1@std@@@stdext@@@std@@@stdext@@YAPAU_List_position@?$_Hash@V?$_Umap_traits@IU?$pair@PAVTransaction@DRAMsimII@@PAV12@@std@@V?$_Hash_compare@IV?$hash@I@tr1@std@@U?$equal_to@I@3@@stdext@@V?$allocator@U?$pair@$$CBIU?$pair@PAVTransaction@DRAMsimII@@PAV12@@std@@@std@@@2@$0A@@tr1@std@@@0@PAU120@00AAV?$allocator@U_List_position@?$_Hash@V?$_Umap_traits@IU?$pair@PAVTransaction@DRAMsimII@@PAV12@@std@@V?$_Hash_compare@IV?$hash@I@tr1@std@@U?$equal_to@I@3@@stdext@@V?$allocator@U?$pair@$$CBIU?$pair@PAVTransaction@DRAMsimII@@PAV12@@std@@@std@@@2@$0A@@tr1@std@@@stdext@@@std@@@Z ; stdext::unchecked_uninitialized_copy<stdext::_Hash<std::tr1::_Umap_traits<unsigned int,std::pair<DRAMsimII::Transaction *,DRAMsimII::Transaction *>,stdext::_Hash_compare<unsigned int,std::tr1::hash<unsigned int>,std::equal_to<unsigned int> >,std::allocator<std::pair<unsigned int const ,std::pair<DRAMsimII::Transaction *,DRAMsimII::Transaction *> > >,0> >::_List_position *,stdext::_Hash<std::tr1::_Umap_traits<unsigned int,std::pair<DRAMsimII::Transaction *,DRAMsimII::Transaction *>,stdext::_Hash_compare<unsigned int,std::tr1::hash<unsigned int>,std::equal_to<unsigned int> >,std::allocator<std::pair<unsigned int const ,std::pair<DRAMsimII::Transaction *,DRAMsimII::Transaction *> > >,0> >::_List_position *,std::allocator<stdext::_Hash<std::tr1::_Umap_traits<unsigned int,std::pair<DRAMsimII::Transaction *,DRAMsimII::Transaction *>,stdext::_Hash_compare<unsigned int,std::tr1::hash<unsigned int>,std::equal_to<unsigned int> >,std::allocator<std::pair<unsigned int const ,std::pair<DRAMsimII::Transaction *,DRAMsimII::Transaction *> > >,0> >::_List_position> >
PUBLIC	??$_Uninit_move@PAU_List_position@?$_Hash@V?$_Umap_traits@IU?$pair@PAVTransaction@DRAMsimII@@PAV12@@std@@V?$_Hash_compare@IV?$hash@I@tr1@std@@U?$equal_to@I@3@@stdext@@V?$allocator@U?$pair@$$CBIU?$pair@PAVTransaction@DRAMsimII@@PAV12@@std@@@std@@@2@$0A@@tr1@std@@@stdext@@PAU123@V?$allocator@U_List_position@?$_Hash@V?$_Umap_traits@IU?$pair@PAVTransaction@DRAMsimII@@PAV12@@std@@V?$_Hash_compare@IV?$hash@I@tr1@std@@U?$equal_to@I@3@@stdext@@V?$allocator@U?$pair@$$CBIU?$pair@PAVTransaction@DRAMsimII@@PAV12@@std@@@std@@@2@$0A@@tr1@std@@@stdext@@@std@@U_Undefined_move_tag@5@@std@@YAPAU_List_position@?$_Hash@V?$_Umap_traits@IU?$pair@PAVTransaction@DRAMsimII@@PAV12@@std@@V?$_Hash_compare@IV?$hash@I@tr1@std@@U?$equal_to@I@3@@stdext@@V?$allocator@U?$pair@$$CBIU?$pair@PAVTransaction@DRAMsimII@@PAV12@@std@@@std@@@2@$0A@@tr1@std@@@stdext@@PAU123@00AAV?$allocator@U_List_position@?$_Hash@V?$_Umap_traits@IU?$pair@PAVTransaction@DRAMsimII@@PAV12@@std@@V?$_Hash_compare@IV?$hash@I@tr1@std@@U?$equal_to@I@3@@stdext@@V?$allocator@U?$pair@$$CBIU?$pair@PAVTransaction@DRAMsimII@@PAV12@@std@@@std@@@2@$0A@@tr1@std@@@stdext@@@0@U_Undefined_move_tag@0@U_Range_checked_iterator_tag@0@@Z ; std::_Uninit_move<stdext::_Hash<std::tr1::_Umap_traits<unsigned int,std::pair<DRAMsimII::Transaction *,DRAMsimII::Transaction *>,stdext::_Hash_compare<unsigned int,std::tr1::hash<unsigned int>,std::equal_to<unsigned int> >,std::allocator<std::pair<unsigned int const ,std::pair<DRAMsimII::Transaction *,DRAMsimII::Transaction *> > >,0> >::_List_position *,stdext::_Hash<std::tr1::_Umap_traits<unsigned int,std::pair<DRAMsimII::Transaction *,DRAMsimII::Transaction *>,stdext::_Hash_compare<unsigned int,std::tr1::hash<unsigned int>,std::equal_to<unsigned int> >,std::allocator<std::pair<unsigned int const ,std::pair<DRAMsimII::Transaction *,DRAMsimII::Transaction *> > >,0> >::_List_position *,std::allocator<stdext::_Hash<std::tr1::_Umap_traits<unsigned int,std::pair<DRAMsimII::Transaction *,DRAMsimII::Transaction *>,stdext::_Hash_compare<unsigned int,std::tr1::hash<unsigned int>,std::equal_to<unsigned int> >,std::allocator<std::pair<unsigned int const ,std::pair<DRAMsimII::Transaction *,DRAMsimII::Transaction *> > >,0> >::_List_position>,std::_Undefined_move_tag>
PUBLIC	??$_Unchecked_uninitialized_move@PAU_List_position@?$_Hash@V?$_Umap_traits@IU?$pair@PAVTransaction@DRAMsimII@@PAV12@@std@@V?$_Hash_compare@IV?$hash@I@tr1@std@@U?$equal_to@I@3@@stdext@@V?$allocator@U?$pair@$$CBIU?$pair@PAVTransaction@DRAMsimII@@PAV12@@std@@@std@@@2@$0A@@tr1@std@@@stdext@@PAU123@V?$allocator@U_List_position@?$_Hash@V?$_Umap_traits@IU?$pair@PAVTransaction@DRAMsimII@@PAV12@@std@@V?$_Hash_compare@IV?$hash@I@tr1@std@@U?$equal_to@I@3@@stdext@@V?$allocator@U?$pair@$$CBIU?$pair@PAVTransaction@DRAMsimII@@PAV12@@std@@@std@@@2@$0A@@tr1@std@@@stdext@@@std@@@stdext@@YAPAU_List_position@?$_Hash@V?$_Umap_traits@IU?$pair@PAVTransaction@DRAMsimII@@PAV12@@std@@V?$_Hash_compare@IV?$hash@I@tr1@std@@U?$equal_to@I@3@@stdext@@V?$allocator@U?$pair@$$CBIU?$pair@PAVTransaction@DRAMsimII@@PAV12@@std@@@std@@@2@$0A@@tr1@std@@@0@PAU120@00AAV?$allocator@U_List_position@?$_Hash@V?$_Umap_traits@IU?$pair@PAVTransaction@DRAMsimII@@PAV12@@std@@V?$_Hash_compare@IV?$hash@I@tr1@std@@U?$equal_to@I@3@@stdext@@V?$allocator@U?$pair@$$CBIU?$pair@PAVTransaction@DRAMsimII@@PAV12@@std@@@std@@@2@$0A@@tr1@std@@@stdext@@@std@@@Z ; stdext::_Unchecked_uninitialized_move<stdext::_Hash<std::tr1::_Umap_traits<unsigned int,std::pair<DRAMsimII::Transaction *,DRAMsimII::Transaction *>,stdext::_Hash_compare<unsigned int,std::tr1::hash<unsigned int>,std::equal_to<unsigned int> >,std::allocator<std::pair<unsigned int const ,std::pair<DRAMsimII::Transaction *,DRAMsimII::Transaction *> > >,0> >::_List_position *,stdext::_Hash<std::tr1::_Umap_traits<unsigned int,std::pair<DRAMsimII::Transaction *,DRAMsimII::Transaction *>,stdext::_Hash_compare<unsigned int,std::tr1::hash<unsigned int>,std::equal_to<unsigned int> >,std::allocator<std::pair<unsigned int const ,std::pair<DRAMsimII::Transaction *,DRAMsimII::Transaction *> > >,0> >::_List_position *,std::allocator<stdext::_Hash<std::tr1::_Umap_traits<unsigned int,std::pair<DRAMsimII::Transaction *,DRAMsimII::Transaction *>,stdext::_Hash_compare<unsigned int,std::tr1::hash<unsigned int>,std::equal_to<unsigned int> >,std::allocator<std::pair<unsigned int const ,std::pair<DRAMsimII::Transaction *,DRAMsimII::Transaction *> > >,0> >::_List_position> >
PUBLIC	??$_Umove@PAU_List_position@?$_Hash@V?$_Umap_traits@IU?$pair@PAVTransaction@DRAMsimII@@PAV12@@std@@V?$_Hash_compare@IV?$hash@I@tr1@std@@U?$equal_to@I@3@@stdext@@V?$allocator@U?$pair@$$CBIU?$pair@PAVTransaction@DRAMsimII@@PAV12@@std@@@std@@@2@$0A@@tr1@std@@@stdext@@@?$vector@U_List_position@?$_Hash@V?$_Umap_traits@IU?$pair@PAVTransaction@DRAMsimII@@PAV12@@std@@V?$_Hash_compare@IV?$hash@I@tr1@std@@U?$equal_to@I@3@@stdext@@V?$allocator@U?$pair@$$CBIU?$pair@PAVTransaction@DRAMsimII@@PAV12@@std@@@std@@@2@$0A@@tr1@std@@@stdext@@V?$allocator@U_List_position@?$_Hash@V?$_Umap_traits@IU?$pair@PAVTransaction@DRAMsimII@@PAV12@@std@@V?$_Hash_compare@IV?$hash@I@tr1@std@@U?$equal_to@I@3@@stdext@@V?$allocator@U?$pair@$$CBIU?$pair@PAVTransaction@DRAMsimII@@PAV12@@std@@@std@@@2@$0A@@tr1@std@@@stdext@@@std@@@std@@IAEPAU_List_position@?$_Hash@V?$_Umap_traits@IU?$pair@PAVTransaction@DRAMsimII@@PAV12@@std@@V?$_Hash_compare@IV?$hash@I@tr1@std@@U?$equal_to@I@3@@stdext@@V?$allocator@U?$pair@$$CBIU?$pair@PAVTransaction@DRAMsimII@@PAV12@@std@@@std@@@2@$0A@@tr1@std@@@stdext@@PAU234@00@Z ; std::vector<stdext::_Hash<std::tr1::_Umap_traits<unsigned int,std::pair<DRAMsimII::Transaction *,DRAMsimII::Transaction *>,stdext::_Hash_compare<unsigned int,std::tr1::hash<unsigned int>,std::equal_to<unsigned int> >,std::allocator<std::pair<unsigned int const ,std::pair<DRAMsimII::Transaction *,DRAMsimII::Transaction *> > >,0> >::_List_position,std::allocator<stdext::_Hash<std::tr1::_Umap_traits<unsigned int,std::pair<DRAMsimII::Transaction *,DRAMsimII::Transaction *>,stdext::_Hash_compare<unsigned int,std::tr1::hash<unsigned int>,std::equal_to<unsigned int> >,std::allocator<std::pair<unsigned int const ,std::pair<DRAMsimII::Transaction *,DRAMsimII::Transaction *> > >,0> >::_List_position> >::_Umove<stdext::_Hash<std::tr1::_Umap_traits<unsigned int,std::pair<DRAMsimII::Transaction *,DRAMsimII::Transaction *>,stdext::_Hash_compare<unsigned int,std::tr1::hash<unsigned int>,std::equal_to<unsigned int> >,std::allocator<std::pair<unsigned int const ,std::pair<DRAMsimII::Transaction *,DRAMsimII::Transaction *> > >,0> >::_List_position *>
PUBLIC	??$_Fill@PAU_List_position@?$_Hash@V?$_Umap_traits@IU?$pair@PAVTransaction@DRAMsimII@@PAV12@@std@@V?$_Hash_compare@IV?$hash@I@tr1@std@@U?$equal_to@I@3@@stdext@@V?$allocator@U?$pair@$$CBIU?$pair@PAVTransaction@DRAMsimII@@PAV12@@std@@@std@@@2@$0A@@tr1@std@@@stdext@@U123@@std@@YAXPAU_List_position@?$_Hash@V?$_Umap_traits@IU?$pair@PAVTransaction@DRAMsimII@@PAV12@@std@@V?$_Hash_compare@IV?$hash@I@tr1@std@@U?$equal_to@I@3@@stdext@@V?$allocator@U?$pair@$$CBIU?$pair@PAVTransaction@DRAMsimII@@PAV12@@std@@@std@@@2@$0A@@tr1@std@@@stdext@@0ABU123@@Z ; std::_Fill<stdext::_Hash<std::tr1::_Umap_traits<unsigned int,std::pair<DRAMsimII::Transaction *,DRAMsimII::Transaction *>,stdext::_Hash_compare<unsigned int,std::tr1::hash<unsigned int>,std::equal_to<unsigned int> >,std::allocator<std::pair<unsigned int const ,std::pair<DRAMsimII::Transaction *,DRAMsimII::Transaction *> > >,0> >::_List_position *,stdext::_Hash<std::tr1::_Umap_traits<unsigned int,std::pair<DRAMsimII::Transaction *,DRAMsimII::Transaction *>,stdext::_Hash_compare<unsigned int,std::tr1::hash<unsigned int>,std::equal_to<unsigned int> >,std::allocator<std::pair<unsigned int const ,std::pair<DRAMsimII::Transaction *,DRAMsimII::Transaction *> > >,0> >::_List_position>
PUBLIC	??$fill@PAU_List_position@?$_Hash@V?$_Umap_traits@IU?$pair@PAVTransaction@DRAMsimII@@PAV12@@std@@V?$_Hash_compare@IV?$hash@I@tr1@std@@U?$equal_to@I@3@@stdext@@V?$allocator@U?$pair@$$CBIU?$pair@PAVTransaction@DRAMsimII@@PAV12@@std@@@std@@@2@$0A@@tr1@std@@@stdext@@U123@@std@@YAXPAU_List_position@?$_Hash@V?$_Umap_traits@IU?$pair@PAVTransaction@DRAMsimII@@PAV12@@std@@V?$_Hash_compare@IV?$hash@I@tr1@std@@U?$equal_to@I@3@@stdext@@V?$allocator@U?$pair@$$CBIU?$pair@PAVTransaction@DRAMsimII@@PAV12@@std@@@std@@@2@$0A@@tr1@std@@@stdext@@0ABU123@@Z ; std::fill<stdext::_Hash<std::tr1::_Umap_traits<unsigned int,std::pair<DRAMsimII::Transaction *,DRAMsimII::Transaction *>,stdext::_Hash_compare<unsigned int,std::tr1::hash<unsigned int>,std::equal_to<unsigned int> >,std::allocator<std::pair<unsigned int const ,std::pair<DRAMsimII::Transaction *,DRAMsimII::Transaction *> > >,0> >::_List_position *,stdext::_Hash<std::tr1::_Umap_traits<unsigned int,std::pair<DRAMsimII::Transaction *,DRAMsimII::Transaction *>,stdext::_Hash_compare<unsigned int,std::tr1::hash<unsigned int>,std::equal_to<unsigned int> >,std::allocator<std::pair<unsigned int const ,std::pair<DRAMsimII::Transaction *,DRAMsimII::Transaction *> > >,0> >::_List_position>
PUBLIC	??$_Move_cat@PAU_List_position@?$_Hash@V?$_Umap_traits@IU?$pair@PAVTransaction@DRAMsimII@@PAV12@@std@@V?$_Hash_compare@IV?$hash@I@tr1@std@@U?$equal_to@I@3@@stdext@@V?$allocator@U?$pair@$$CBIU?$pair@PAVTransaction@DRAMsimII@@PAV12@@std@@@std@@@2@$0A@@tr1@std@@@stdext@@@std@@YA?AU_Undefined_move_tag@0@ABQAU_List_position@?$_Hash@V?$_Umap_traits@IU?$pair@PAVTransaction@DRAMsimII@@PAV12@@std@@V?$_Hash_compare@IV?$hash@I@tr1@std@@U?$equal_to@I@3@@stdext@@V?$allocator@U?$pair@$$CBIU?$pair@PAVTransaction@DRAMsimII@@PAV12@@std@@@std@@@2@$0A@@tr1@std@@@stdext@@@Z ; std::_Move_cat<stdext::_Hash<std::tr1::_Umap_traits<unsigned int,std::pair<DRAMsimII::Transaction *,DRAMsimII::Transaction *>,stdext::_Hash_compare<unsigned int,std::tr1::hash<unsigned int>,std::equal_to<unsigned int> >,std::allocator<std::pair<unsigned int const ,std::pair<DRAMsimII::Transaction *,DRAMsimII::Transaction *> > >,0> >::_List_position *>
PUBLIC	??$_Copy_backward_opt@PAU_List_position@?$_Hash@V?$_Umap_traits@IU?$pair@PAVTransaction@DRAMsimII@@PAV12@@std@@V?$_Hash_compare@IV?$hash@I@tr1@std@@U?$equal_to@I@3@@stdext@@V?$allocator@U?$pair@$$CBIU?$pair@PAVTransaction@DRAMsimII@@PAV12@@std@@@std@@@2@$0A@@tr1@std@@@stdext@@PAU123@Uforward_iterator_tag@std@@@std@@YAPAU_List_position@?$_Hash@V?$_Umap_traits@IU?$pair@PAVTransaction@DRAMsimII@@PAV12@@std@@V?$_Hash_compare@IV?$hash@I@tr1@std@@U?$equal_to@I@3@@stdext@@V?$allocator@U?$pair@$$CBIU?$pair@PAVTransaction@DRAMsimII@@PAV12@@std@@@std@@@2@$0A@@tr1@std@@@stdext@@PAU123@00Uforward_iterator_tag@0@U_Nonscalar_ptr_iterator_tag@0@U_Range_checked_iterator_tag@0@@Z ; std::_Copy_backward_opt<stdext::_Hash<std::tr1::_Umap_traits<unsigned int,std::pair<DRAMsimII::Transaction *,DRAMsimII::Transaction *>,stdext::_Hash_compare<unsigned int,std::tr1::hash<unsigned int>,std::equal_to<unsigned int> >,std::allocator<std::pair<unsigned int const ,std::pair<DRAMsimII::Transaction *,DRAMsimII::Transaction *> > >,0> >::_List_position *,stdext::_Hash<std::tr1::_Umap_traits<unsigned int,std::pair<DRAMsimII::Transaction *,DRAMsimII::Transaction *>,stdext::_Hash_compare<unsigned int,std::tr1::hash<unsigned int>,std::equal_to<unsigned int> >,std::allocator<std::pair<unsigned int const ,std::pair<DRAMsimII::Transaction *,DRAMsimII::Transaction *> > >,0> >::_List_position *,std::forward_iterator_tag>
PUBLIC	??$_Copy_backward_opt@PAU_List_position@?$_Hash@V?$_Umap_traits@IU?$pair@PAVTransaction@DRAMsimII@@PAV12@@std@@V?$_Hash_compare@IV?$hash@I@tr1@std@@U?$equal_to@I@3@@stdext@@V?$allocator@U?$pair@$$CBIU?$pair@PAVTransaction@DRAMsimII@@PAV12@@std@@@std@@@2@$0A@@tr1@std@@@stdext@@PAU123@@std@@YAPAU_List_position@?$_Hash@V?$_Umap_traits@IU?$pair@PAVTransaction@DRAMsimII@@PAV12@@std@@V?$_Hash_compare@IV?$hash@I@tr1@std@@U?$equal_to@I@3@@stdext@@V?$allocator@U?$pair@$$CBIU?$pair@PAVTransaction@DRAMsimII@@PAV12@@std@@@std@@@2@$0A@@tr1@std@@@stdext@@PAU123@00Urandom_access_iterator_tag@0@U_Nonscalar_ptr_iterator_tag@0@U_Range_checked_iterator_tag@0@@Z ; std::_Copy_backward_opt<stdext::_Hash<std::tr1::_Umap_traits<unsigned int,std::pair<DRAMsimII::Transaction *,DRAMsimII::Transaction *>,stdext::_Hash_compare<unsigned int,std::tr1::hash<unsigned int>,std::equal_to<unsigned int> >,std::allocator<std::pair<unsigned int const ,std::pair<DRAMsimII::Transaction *,DRAMsimII::Transaction *> > >,0> >::_List_position *,stdext::_Hash<std::tr1::_Umap_traits<unsigned int,std::pair<DRAMsimII::Transaction *,DRAMsimII::Transaction *>,stdext::_Hash_compare<unsigned int,std::tr1::hash<unsigned int>,std::equal_to<unsigned int> >,std::allocator<std::pair<unsigned int const ,std::pair<DRAMsimII::Transaction *,DRAMsimII::Transaction *> > >,0> >::_List_position *>
PUBLIC	??$_Move_backward_opt@PAU_List_position@?$_Hash@V?$_Umap_traits@IU?$pair@PAVTransaction@DRAMsimII@@PAV12@@std@@V?$_Hash_compare@IV?$hash@I@tr1@std@@U?$equal_to@I@3@@stdext@@V?$allocator@U?$pair@$$CBIU?$pair@PAVTransaction@DRAMsimII@@PAV12@@std@@@std@@@2@$0A@@tr1@std@@@stdext@@PAU123@Urandom_access_iterator_tag@std@@U_Undefined_move_tag@5@@std@@YAPAU_List_position@?$_Hash@V?$_Umap_traits@IU?$pair@PAVTransaction@DRAMsimII@@PAV12@@std@@V?$_Hash_compare@IV?$hash@I@tr1@std@@U?$equal_to@I@3@@stdext@@V?$allocator@U?$pair@$$CBIU?$pair@PAVTransaction@DRAMsimII@@PAV12@@std@@@std@@@2@$0A@@tr1@std@@@stdext@@PAU123@00Urandom_access_iterator_tag@0@U_Undefined_move_tag@0@U_Range_checked_iterator_tag@0@@Z ; std::_Move_backward_opt<stdext::_Hash<std::tr1::_Umap_traits<unsigned int,std::pair<DRAMsimII::Transaction *,DRAMsimII::Transaction *>,stdext::_Hash_compare<unsigned int,std::tr1::hash<unsigned int>,std::equal_to<unsigned int> >,std::allocator<std::pair<unsigned int const ,std::pair<DRAMsimII::Transaction *,DRAMsimII::Transaction *> > >,0> >::_List_position *,stdext::_Hash<std::tr1::_Umap_traits<unsigned int,std::pair<DRAMsimII::Transaction *,DRAMsimII::Transaction *>,stdext::_Hash_compare<unsigned int,std::tr1::hash<unsigned int>,std::equal_to<unsigned int> >,std::allocator<std::pair<unsigned int const ,std::pair<DRAMsimII::Transaction *,DRAMsimII::Transaction *> > >,0> >::_List_position *,std::random_access_iterator_tag,std::_Undefined_move_tag>
PUBLIC	??$_Unchecked_move_backward@PAU_List_position@?$_Hash@V?$_Umap_traits@IU?$pair@PAVTransaction@DRAMsimII@@PAV12@@std@@V?$_Hash_compare@IV?$hash@I@tr1@std@@U?$equal_to@I@3@@stdext@@V?$allocator@U?$pair@$$CBIU?$pair@PAVTransaction@DRAMsimII@@PAV12@@std@@@std@@@2@$0A@@tr1@std@@@stdext@@PAU123@@stdext@@YAPAU_List_position@?$_Hash@V?$_Umap_traits@IU?$pair@PAVTransaction@DRAMsimII@@PAV12@@std@@V?$_Hash_compare@IV?$hash@I@tr1@std@@U?$equal_to@I@3@@stdext@@V?$allocator@U?$pair@$$CBIU?$pair@PAVTransaction@DRAMsimII@@PAV12@@std@@@std@@@2@$0A@@tr1@std@@@0@PAU120@00@Z ; stdext::_Unchecked_move_backward<stdext::_Hash<std::tr1::_Umap_traits<unsigned int,std::pair<DRAMsimII::Transaction *,DRAMsimII::Transaction *>,stdext::_Hash_compare<unsigned int,std::tr1::hash<unsigned int>,std::equal_to<unsigned int> >,std::allocator<std::pair<unsigned int const ,std::pair<DRAMsimII::Transaction *,DRAMsimII::Transaction *> > >,0> >::_List_position *,stdext::_Hash<std::tr1::_Umap_traits<unsigned int,std::pair<DRAMsimII::Transaction *,DRAMsimII::Transaction *>,stdext::_Hash_compare<unsigned int,std::tr1::hash<unsigned int>,std::equal_to<unsigned int> >,std::allocator<std::pair<unsigned int const ,std::pair<DRAMsimII::Transaction *,DRAMsimII::Transaction *> > >,0> >::_List_position *>
PUBLIC	?_Insert_n@?$vector@U_List_position@?$_Hash@V?$_Umap_traits@IU?$pair@PAVTransaction@DRAMsimII@@PAV12@@std@@V?$_Hash_compare@IV?$hash@I@tr1@std@@U?$equal_to@I@3@@stdext@@V?$allocator@U?$pair@$$CBIU?$pair@PAVTransaction@DRAMsimII@@PAV12@@std@@@std@@@2@$0A@@tr1@std@@@stdext@@V?$allocator@U_List_position@?$_Hash@V?$_Umap_traits@IU?$pair@PAVTransaction@DRAMsimII@@PAV12@@std@@V?$_Hash_compare@IV?$hash@I@tr1@std@@U?$equal_to@I@3@@stdext@@V?$allocator@U?$pair@$$CBIU?$pair@PAVTransaction@DRAMsimII@@PAV12@@std@@@std@@@2@$0A@@tr1@std@@@stdext@@@std@@@std@@IAEXV?$_Vector_const_iterator@U_List_position@?$_Hash@V?$_Umap_traits@IU?$pair@PAVTransaction@DRAMsimII@@PAV12@@std@@V?$_Hash_compare@IV?$hash@I@tr1@std@@U?$equal_to@I@3@@stdext@@V?$allocator@U?$pair@$$CBIU?$pair@PAVTransaction@DRAMsimII@@PAV12@@std@@@std@@@2@$0A@@tr1@std@@@stdext@@V?$allocator@U_List_position@?$_Hash@V?$_Umap_traits@IU?$pair@PAVTransaction@DRAMsimII@@PAV12@@std@@V?$_Hash_compare@IV?$hash@I@tr1@std@@U?$equal_to@I@3@@stdext@@V?$allocator@U?$pair@$$CBIU?$pair@PAVTransaction@DRAMsimII@@PAV12@@std@@@std@@@2@$0A@@tr1@std@@@stdext@@@std@@@2@IABU_List_position@?$_Hash@V?$_Umap_traits@IU?$pair@PAVTransaction@DRAMsimII@@PAV12@@std@@V?$_Hash_compare@IV?$hash@I@tr1@std@@U?$equal_to@I@3@@stdext@@V?$allocator@U?$pair@$$CBIU?$pair@PAVTransaction@DRAMsimII@@PAV12@@std@@@std@@@2@$0A@@tr1@std@@@stdext@@@Z ; std::vector<stdext::_Hash<std::tr1::_Umap_traits<unsigned int,std::pair<DRAMsimII::Transaction *,DRAMsimII::Transaction *>,stdext::_Hash_compare<unsigned int,std::tr1::hash<unsigned int>,std::equal_to<unsigned int> >,std::allocator<std::pair<unsigned int const ,std::pair<DRAMsimII::Transaction *,DRAMsimII::Transaction *> > >,0> >::_List_position,std::allocator<stdext::_Hash<std::tr1::_Umap_traits<unsigned int,std::pair<DRAMsimII::Transaction *,DRAMsimII::Transaction *>,stdext::_Hash_compare<unsigned int,std::tr1::hash<unsigned int>,std::equal_to<unsigned int> >,std::allocator<std::pair<unsigned int const ,std::pair<DRAMsimII::Transaction *,DRAMsimII::Transaction *> > >,0> >::_List_position> >::_Insert_n
PUBLIC	?insert@?$vector@U_List_position@?$_Hash@V?$_Umap_traits@IU?$pair@PAVTransaction@DRAMsimII@@PAV12@@std@@V?$_Hash_compare@IV?$hash@I@tr1@std@@U?$equal_to@I@3@@stdext@@V?$allocator@U?$pair@$$CBIU?$pair@PAVTransaction@DRAMsimII@@PAV12@@std@@@std@@@2@$0A@@tr1@std@@@stdext@@V?$allocator@U_List_position@?$_Hash@V?$_Umap_traits@IU?$pair@PAVTransaction@DRAMsimII@@PAV12@@std@@V?$_Hash_compare@IV?$hash@I@tr1@std@@U?$equal_to@I@3@@stdext@@V?$allocator@U?$pair@$$CBIU?$pair@PAVTransaction@DRAMsimII@@PAV12@@std@@@std@@@2@$0A@@tr1@std@@@stdext@@@std@@@std@@QAEXV?$_Vector_const_iterator@U_List_position@?$_Hash@V?$_Umap_traits@IU?$pair@PAVTransaction@DRAMsimII@@PAV12@@std@@V?$_Hash_compare@IV?$hash@I@tr1@std@@U?$equal_to@I@3@@stdext@@V?$allocator@U?$pair@$$CBIU?$pair@PAVTransaction@DRAMsimII@@PAV12@@std@@@std@@@2@$0A@@tr1@std@@@stdext@@V?$allocator@U_List_position@?$_Hash@V?$_Umap_traits@IU?$pair@PAVTransaction@DRAMsimII@@PAV12@@std@@V?$_Hash_compare@IV?$hash@I@tr1@std@@U?$equal_to@I@3@@stdext@@V?$allocator@U?$pair@$$CBIU?$pair@PAVTransaction@DRAMsimII@@PAV12@@std@@@std@@@2@$0A@@tr1@std@@@stdext@@@std@@@2@IABU_List_position@?$_Hash@V?$_Umap_traits@IU?$pair@PAVTransaction@DRAMsimII@@PAV12@@std@@V?$_Hash_compare@IV?$hash@I@tr1@std@@U?$equal_to@I@3@@stdext@@V?$allocator@U?$pair@$$CBIU?$pair@PAVTransaction@DRAMsimII@@PAV12@@std@@@std@@@2@$0A@@tr1@std@@@stdext@@@Z ; std::vector<stdext::_Hash<std::tr1::_Umap_traits<unsigned int,std::pair<DRAMsimII::Transaction *,DRAMsimII::Transaction *>,stdext::_Hash_compare<unsigned int,std::tr1::hash<unsigned int>,std::equal_to<unsigned int> >,std::allocator<std::pair<unsigned int const ,std::pair<DRAMsimII::Transaction *,DRAMsimII::Transaction *> > >,0> >::_List_position,std::allocator<stdext::_Hash<std::tr1::_Umap_traits<unsigned int,std::pair<DRAMsimII::Transaction *,DRAMsimII::Transaction *>,stdext::_Hash_compare<unsigned int,std::tr1::hash<unsigned int>,std::equal_to<unsigned int> >,std::allocator<std::pair<unsigned int const ,std::pair<DRAMsimII::Transaction *,DRAMsimII::Transaction *> > >,0> >::_List_position> >::insert
PUBLIC	??0?$_Iterator_with_base@Urandom_access_iterator_tag@std@@U_List_position@?$_Hash@V?$_Umap_traits@IU?$pair@PAVTransaction@DRAMsimII@@PAV12@@std@@V?$_Hash_compare@IV?$hash@I@tr1@std@@U?$equal_to@I@3@@stdext@@V?$allocator@U?$pair@$$CBIU?$pair@PAVTransaction@DRAMsimII@@PAV12@@std@@@std@@@2@$0A@@tr1@std@@@stdext@@HPBU345@ABU345@V_Iterator_base_aux@2@@std@@QAE@XZ ; std::_Iterator_with_base<std::random_access_iterator_tag,stdext::_Hash<std::tr1::_Umap_traits<unsigned int,std::pair<DRAMsimII::Transaction *,DRAMsimII::Transaction *>,stdext::_Hash_compare<unsigned int,std::tr1::hash<unsigned int>,std::equal_to<unsigned int> >,std::allocator<std::pair<unsigned int const ,std::pair<DRAMsimII::Transaction *,DRAMsimII::Transaction *> > >,0> >::_List_position,int,stdext::_Hash<std::tr1::_Umap_traits<unsigned int,std::pair<DRAMsimII::Transaction *,DRAMsimII::Transaction *>,stdext::_Hash_compare<unsigned int,std::tr1::hash<unsigned int>,std::equal_to<unsigned int> >,std::allocator<std::pair<unsigned int const ,std::pair<DRAMsimII::Transaction *,DRAMsimII::Transaction *> > >,0> >::_List_position const *,stdext::_Hash<std::tr1::_Umap_traits<unsigned int,std::pair<DRAMsimII::Transaction *,DRAMsimII::Transaction *>,stdext::_Hash_compare<unsigned int,std::tr1::hash<unsigned int>,std::equal_to<unsigned int> >,std::allocator<std::pair<unsigned int const ,std::pair<DRAMsimII::Transaction *,DRAMsimII::Transaction *> > >,0> >::_List_position const &,std::_Iterator_base_aux>::_Iterator_with_base<std::random_access_iterator_tag,stdext::_Hash<std::tr1::_Umap_traits<unsigned int,std::pair<DRAMsimII::Transaction *,DRAMsimII::Transaction *>,stdext::_Hash_compare<unsigned int,std::tr1::hash<unsigned int>,std::equal_to<unsigned int> >,std::allocator<std::pair<unsigned int const ,std::pair<DRAMsimII::Transaction *,DRAMsimII::Transaction *> > >,0> >::_List_position,int,stdext::_Hash<std::tr1::_Umap_traits<unsigned int,std::pair<DRAMsimII::Transaction *,DRAMsimII::Transaction *>,stdext::_Hash_compare<unsigned int,std::tr1::hash<unsigned int>,std::equal_to<unsigned int> >,std::allocator<std::pair<unsigned int const ,std::pair<DRAMsimII::Transaction *,DRAMsimII::Transaction *> > >,0> >::_List_position const *,stdext::_Hash<std::tr1::_Umap_traits<unsigned int,std::pair<DRAMsimII::Transaction *,DRAMsimII::Transaction *>,stdext::_Hash_compare<unsigned int,std::tr1::hash<unsigned int>,std::equal_to<unsigned int> >,std::allocator<std::pair<unsigned int const ,std::pair<DRAMsimII::Transaction *,DRAMsimII::Transaction *> > >,0> >::_List_position const &,std::_Iterator_base_aux>
PUBLIC	??0?$_Ranit@U_List_position@?$_Hash@V?$_Umap_traits@IU?$pair@PAVTransaction@DRAMsimII@@PAV12@@std@@V?$_Hash_compare@IV?$hash@I@tr1@std@@U?$equal_to@I@3@@stdext@@V?$allocator@U?$pair@$$CBIU?$pair@PAVTransaction@DRAMsimII@@PAV12@@std@@@std@@@2@$0A@@tr1@std@@@stdext@@HPBU123@ABU123@@std@@QAE@XZ ; std::_Ranit<stdext::_Hash<std::tr1::_Umap_traits<unsigned int,std::pair<DRAMsimII::Transaction *,DRAMsimII::Transaction *>,stdext::_Hash_compare<unsigned int,std::tr1::hash<unsigned int>,std::equal_to<unsigned int> >,std::allocator<std::pair<unsigned int const ,std::pair<DRAMsimII::Transaction *,DRAMsimII::Transaction *> > >,0> >::_List_position,int,stdext::_Hash<std::tr1::_Umap_traits<unsigned int,std::pair<DRAMsimII::Transaction *,DRAMsimII::Transaction *>,stdext::_Hash_compare<unsigned int,std::tr1::hash<unsigned int>,std::equal_to<unsigned int> >,std::allocator<std::pair<unsigned int const ,std::pair<DRAMsimII::Transaction *,DRAMsimII::Transaction *> > >,0> >::_List_position const *,stdext::_Hash<std::tr1::_Umap_traits<unsigned int,std::pair<DRAMsimII::Transaction *,DRAMsimII::Transaction *>,stdext::_Hash_compare<unsigned int,std::tr1::hash<unsigned int>,std::equal_to<unsigned int> >,std::allocator<std::pair<unsigned int const ,std::pair<DRAMsimII::Transaction *,DRAMsimII::Transaction *> > >,0> >::_List_position const &>::_Ranit<stdext::_Hash<std::tr1::_Umap_traits<unsigned int,std::pair<DRAMsimII::Transaction *,DRAMsimII::Transaction *>,stdext::_Hash_compare<unsigned int,std::tr1::hash<unsigned int>,std::equal_to<unsigned int> >,std::allocator<std::pair<unsigned int const ,std::pair<DRAMsimII::Transaction *,DRAMsimII::Transaction *> > >,0> >::_List_position,int,stdext::_Hash<std::tr1::_Umap_traits<unsigned int,std::pair<DRAMsimII::Transaction *,DRAMsimII::Transaction *>,stdext::_Hash_compare<unsigned int,std::tr1::hash<unsigned int>,std::equal_to<unsigned int> >,std::allocator<std::pair<unsigned int const ,std::pair<DRAMsimII::Transaction *,DRAMsimII::Transaction *> > >,0> >::_List_position const *,stdext::_Hash<std::tr1::_Umap_traits<unsigned int,std::pair<DRAMsimII::Transaction *,DRAMsimII::Transaction *>,stdext::_Hash_compare<unsigned int,std::tr1::hash<unsigned int>,std::equal_to<unsigned int> >,std::allocator<std::pair<unsigned int const ,std::pair<DRAMsimII::Transaction *,DRAMsimII::Transaction *> > >,0> >::_List_position const &>
PUBLIC	??0?$_Vector_const_iterator@U_List_position@?$_Hash@V?$_Umap_traits@IU?$pair@PAVTransaction@DRAMsimII@@PAV12@@std@@V?$_Hash_compare@IV?$hash@I@tr1@std@@U?$equal_to@I@3@@stdext@@V?$allocator@U?$pair@$$CBIU?$pair@PAVTransaction@DRAMsimII@@PAV12@@std@@@std@@@2@$0A@@tr1@std@@@stdext@@V?$allocator@U_List_position@?$_Hash@V?$_Umap_traits@IU?$pair@PAVTransaction@DRAMsimII@@PAV12@@std@@V?$_Hash_compare@IV?$hash@I@tr1@std@@U?$equal_to@I@3@@stdext@@V?$allocator@U?$pair@$$CBIU?$pair@PAVTransaction@DRAMsimII@@PAV12@@std@@@std@@@2@$0A@@tr1@std@@@stdext@@@std@@@std@@QAE@PAU_List_position@?$_Hash@V?$_Umap_traits@IU?$pair@PAVTransaction@DRAMsimII@@PAV12@@std@@V?$_Hash_compare@IV?$hash@I@tr1@std@@U?$equal_to@I@3@@stdext@@V?$allocator@U?$pair@$$CBIU?$pair@PAVTransaction@DRAMsimII@@PAV12@@std@@@std@@@2@$0A@@tr1@std@@@stdext@@PBV_Container_base_aux@1@@Z ; std::_Vector_const_iterator<stdext::_Hash<std::tr1::_Umap_traits<unsigned int,std::pair<DRAMsimII::Transaction *,DRAMsimII::Transaction *>,stdext::_Hash_compare<unsigned int,std::tr1::hash<unsigned int>,std::equal_to<unsigned int> >,std::allocator<std::pair<unsigned int const ,std::pair<DRAMsimII::Transaction *,DRAMsimII::Transaction *> > >,0> >::_List_position,std::allocator<stdext::_Hash<std::tr1::_Umap_traits<unsigned int,std::pair<DRAMsimII::Transaction *,DRAMsimII::Transaction *>,stdext::_Hash_compare<unsigned int,std::tr1::hash<unsigned int>,std::equal_to<unsigned int> >,std::allocator<std::pair<unsigned int const ,std::pair<DRAMsimII::Transaction *,DRAMsimII::Transaction *> > >,0> >::_List_position> >::_Vector_const_iterator<stdext::_Hash<std::tr1::_Umap_traits<unsigned int,std::pair<DRAMsimII::Transaction *,DRAMsimII::Transaction *>,stdext::_Hash_compare<unsigned int,std::tr1::hash<unsigned int>,std::equal_to<unsigned int> >,std::allocator<std::pair<unsigned int const ,std::pair<DRAMsimII::Transaction *,DRAMsimII::Transaction *> > >,0> >::_List_position,std::allocator<stdext::_Hash<std::tr1::_Umap_traits<unsigned int,std::pair<DRAMsimII::Transaction *,DRAMsimII::Transaction *>,stdext::_Hash_compare<unsigned int,std::tr1::hash<unsigned int>,std::equal_to<unsigned int> >,std::allocator<std::pair<unsigned int const ,std::pair<DRAMsimII::Transaction *,DRAMsimII::Transaction *> > >,0> >::_List_position> >
PUBLIC	??0?$_Vector_iterator@U_List_position@?$_Hash@V?$_Umap_traits@IU?$pair@PAVTransaction@DRAMsimII@@PAV12@@std@@V?$_Hash_compare@IV?$hash@I@tr1@std@@U?$equal_to@I@3@@stdext@@V?$allocator@U?$pair@$$CBIU?$pair@PAVTransaction@DRAMsimII@@PAV12@@std@@@std@@@2@$0A@@tr1@std@@@stdext@@V?$allocator@U_List_position@?$_Hash@V?$_Umap_traits@IU?$pair@PAVTransaction@DRAMsimII@@PAV12@@std@@V?$_Hash_compare@IV?$hash@I@tr1@std@@U?$equal_to@I@3@@stdext@@V?$allocator@U?$pair@$$CBIU?$pair@PAVTransaction@DRAMsimII@@PAV12@@std@@@std@@@2@$0A@@tr1@std@@@stdext@@@std@@@std@@QAE@PAU_List_position@?$_Hash@V?$_Umap_traits@IU?$pair@PAVTransaction@DRAMsimII@@PAV12@@std@@V?$_Hash_compare@IV?$hash@I@tr1@std@@U?$equal_to@I@3@@stdext@@V?$allocator@U?$pair@$$CBIU?$pair@PAVTransaction@DRAMsimII@@PAV12@@std@@@std@@@2@$0A@@tr1@std@@@stdext@@PBV_Container_base_aux@1@@Z ; std::_Vector_iterator<stdext::_Hash<std::tr1::_Umap_traits<unsigned int,std::pair<DRAMsimII::Transaction *,DRAMsimII::Transaction *>,stdext::_Hash_compare<unsigned int,std::tr1::hash<unsigned int>,std::equal_to<unsigned int> >,std::allocator<std::pair<unsigned int const ,std::pair<DRAMsimII::Transaction *,DRAMsimII::Transaction *> > >,0> >::_List_position,std::allocator<stdext::_Hash<std::tr1::_Umap_traits<unsigned int,std::pair<DRAMsimII::Transaction *,DRAMsimII::Transaction *>,stdext::_Hash_compare<unsigned int,std::tr1::hash<unsigned int>,std::equal_to<unsigned int> >,std::allocator<std::pair<unsigned int const ,std::pair<DRAMsimII::Transaction *,DRAMsimII::Transaction *> > >,0> >::_List_position> >::_Vector_iterator<stdext::_Hash<std::tr1::_Umap_traits<unsigned int,std::pair<DRAMsimII::Transaction *,DRAMsimII::Transaction *>,stdext::_Hash_compare<unsigned int,std::tr1::hash<unsigned int>,std::equal_to<unsigned int> >,std::allocator<std::pair<unsigned int const ,std::pair<DRAMsimII::Transaction *,DRAMsimII::Transaction *> > >,0> >::_List_position,std::allocator<stdext::_Hash<std::tr1::_Umap_traits<unsigned int,std::pair<DRAMsimII::Transaction *,DRAMsimII::Transaction *>,stdext::_Hash_compare<unsigned int,std::tr1::hash<unsigned int>,std::equal_to<unsigned int> >,std::allocator<std::pair<unsigned int const ,std::pair<DRAMsimII::Transaction *,DRAMsimII::Transaction *> > >,0> >::_List_position> >
PUBLIC	?_Make_iter@?$vector@U_List_position@?$_Hash@V?$_Umap_traits@IU?$pair@PAVTransaction@DRAMsimII@@PAV12@@std@@V?$_Hash_compare@IV?$hash@I@tr1@std@@U?$equal_to@I@3@@stdext@@V?$allocator@U?$pair@$$CBIU?$pair@PAVTransaction@DRAMsimII@@PAV12@@std@@@std@@@2@$0A@@tr1@std@@@stdext@@V?$allocator@U_List_position@?$_Hash@V?$_Umap_traits@IU?$pair@PAVTransaction@DRAMsimII@@PAV12@@std@@V?$_Hash_compare@IV?$hash@I@tr1@std@@U?$equal_to@I@3@@stdext@@V?$allocator@U?$pair@$$CBIU?$pair@PAVTransaction@DRAMsimII@@PAV12@@std@@@std@@@2@$0A@@tr1@std@@@stdext@@@std@@@std@@QBE?AV?$_Vector_iterator@U_List_position@?$_Hash@V?$_Umap_traits@IU?$pair@PAVTransaction@DRAMsimII@@PAV12@@std@@V?$_Hash_compare@IV?$hash@I@tr1@std@@U?$equal_to@I@3@@stdext@@V?$allocator@U?$pair@$$CBIU?$pair@PAVTransaction@DRAMsimII@@PAV12@@std@@@std@@@2@$0A@@tr1@std@@@stdext@@V?$allocator@U_List_position@?$_Hash@V?$_Umap_traits@IU?$pair@PAVTransaction@DRAMsimII@@PAV12@@std@@V?$_Hash_compare@IV?$hash@I@tr1@std@@U?$equal_to@I@3@@stdext@@V?$allocator@U?$pair@$$CBIU?$pair@PAVTransaction@DRAMsimII@@PAV12@@std@@@std@@@2@$0A@@tr1@std@@@stdext@@@std@@@2@V?$_Vector_const_iterator@U_List_position@?$_Hash@V?$_Umap_traits@IU?$pair@PAVTransaction@DRAMsimII@@PAV12@@std@@V?$_Hash_compare@IV?$hash@I@tr1@std@@U?$equal_to@I@3@@stdext@@V?$allocator@U?$pair@$$CBIU?$pair@PAVTransaction@DRAMsimII@@PAV12@@std@@@std@@@2@$0A@@tr1@std@@@stdext@@V?$allocator@U_List_position@?$_Hash@V?$_Umap_traits@IU?$pair@PAVTransaction@DRAMsimII@@PAV12@@std@@V?$_Hash_compare@IV?$hash@I@tr1@std@@U?$equal_to@I@3@@stdext@@V?$allocator@U?$pair@$$CBIU?$pair@PAVTransaction@DRAMsimII@@PAV12@@std@@@std@@@2@$0A@@tr1@std@@@stdext@@@std@@@2@@Z ; std::vector<stdext::_Hash<std::tr1::_Umap_traits<unsigned int,std::pair<DRAMsimII::Transaction *,DRAMsimII::Transaction *>,stdext::_Hash_compare<unsigned int,std::tr1::hash<unsigned int>,std::equal_to<unsigned int> >,std::allocator<std::pair<unsigned int const ,std::pair<DRAMsimII::Transaction *,DRAMsimII::Transaction *> > >,0> >::_List_position,std::allocator<stdext::_Hash<std::tr1::_Umap_traits<unsigned int,std::pair<DRAMsimII::Transaction *,DRAMsimII::Transaction *>,stdext::_Hash_compare<unsigned int,std::tr1::hash<unsigned int>,std::equal_to<unsigned int> >,std::allocator<std::pair<unsigned int const ,std::pair<DRAMsimII::Transaction *,DRAMsimII::Transaction *> > >,0> >::_List_position> >::_Make_iter
PUBLIC	??8?$_Vector_const_iterator@U_List_position@?$_Hash@V?$_Umap_traits@IU?$pair@PAVTransaction@DRAMsimII@@PAV12@@std@@V?$_Hash_compare@IV?$hash@I@tr1@std@@U?$equal_to@I@3@@stdext@@V?$allocator@U?$pair@$$CBIU?$pair@PAVTransaction@DRAMsimII@@PAV12@@std@@@std@@@2@$0A@@tr1@std@@@stdext@@V?$allocator@U_List_position@?$_Hash@V?$_Umap_traits@IU?$pair@PAVTransaction@DRAMsimII@@PAV12@@std@@V?$_Hash_compare@IV?$hash@I@tr1@std@@U?$equal_to@I@3@@stdext@@V?$allocator@U?$pair@$$CBIU?$pair@PAVTransaction@DRAMsimII@@PAV12@@std@@@std@@@2@$0A@@tr1@std@@@stdext@@@std@@@std@@QBE_NABV01@@Z ; std::_Vector_const_iterator<stdext::_Hash<std::tr1::_Umap_traits<unsigned int,std::pair<DRAMsimII::Transaction *,DRAMsimII::Transaction *>,stdext::_Hash_compare<unsigned int,std::tr1::hash<unsigned int>,std::equal_to<unsigned int> >,std::allocator<std::pair<unsigned int const ,std::pair<DRAMsimII::Transaction *,DRAMsimII::Transaction *> > >,0> >::_List_position,std::allocator<stdext::_Hash<std::tr1::_Umap_traits<unsigned int,std::pair<DRAMsimII::Transaction *,DRAMsimII::Transaction *>,stdext::_Hash_compare<unsigned int,std::tr1::hash<unsigned int>,std::equal_to<unsigned int> >,std::allocator<std::pair<unsigned int const ,std::pair<DRAMsimII::Transaction *,DRAMsimII::Transaction *> > >,0> >::_List_position> >::operator==
PUBLIC	??9?$_Vector_const_iterator@U_List_position@?$_Hash@V?$_Umap_traits@IU?$pair@PAVTransaction@DRAMsimII@@PAV12@@std@@V?$_Hash_compare@IV?$hash@I@tr1@std@@U?$equal_to@I@3@@stdext@@V?$allocator@U?$pair@$$CBIU?$pair@PAVTransaction@DRAMsimII@@PAV12@@std@@@std@@@2@$0A@@tr1@std@@@stdext@@V?$allocator@U_List_position@?$_Hash@V?$_Umap_traits@IU?$pair@PAVTransaction@DRAMsimII@@PAV12@@std@@V?$_Hash_compare@IV?$hash@I@tr1@std@@U?$equal_to@I@3@@stdext@@V?$allocator@U?$pair@$$CBIU?$pair@PAVTransaction@DRAMsimII@@PAV12@@std@@@std@@@2@$0A@@tr1@std@@@stdext@@@std@@@std@@QBE_NABV01@@Z ; std::_Vector_const_iterator<stdext::_Hash<std::tr1::_Umap_traits<unsigned int,std::pair<DRAMsimII::Transaction *,DRAMsimII::Transaction *>,stdext::_Hash_compare<unsigned int,std::tr1::hash<unsigned int>,std::equal_to<unsigned int> >,std::allocator<std::pair<unsigned int const ,std::pair<DRAMsimII::Transaction *,DRAMsimII::Transaction *> > >,0> >::_List_position,std::allocator<stdext::_Hash<std::tr1::_Umap_traits<unsigned int,std::pair<DRAMsimII::Transaction *,DRAMsimII::Transaction *>,stdext::_Hash_compare<unsigned int,std::tr1::hash<unsigned int>,std::equal_to<unsigned int> >,std::allocator<std::pair<unsigned int const ,std::pair<DRAMsimII::Transaction *,DRAMsimII::Transaction *> > >,0> >::_List_position> >::operator!=
PUBLIC	??$_Iter_random@PAU_List_position@?$_Hash@V?$_Umap_traits@IU?$pair@PAVTransaction@DRAMsimII@@PAV12@@std@@V?$_Hash_compare@IV?$hash@I@tr1@std@@U?$equal_to@I@3@@stdext@@V?$allocator@U?$pair@$$CBIU?$pair@PAVTransaction@DRAMsimII@@PAV12@@std@@@std@@@2@$0A@@tr1@std@@@stdext@@PAU123@@std@@YA?AUrandom_access_iterator_tag@0@ABQAU_List_position@?$_Hash@V?$_Umap_traits@IU?$pair@PAVTransaction@DRAMsimII@@PAV12@@std@@V?$_Hash_compare@IV?$hash@I@tr1@std@@U?$equal_to@I@3@@stdext@@V?$allocator@U?$pair@$$CBIU?$pair@PAVTransaction@DRAMsimII@@PAV12@@std@@@std@@@2@$0A@@tr1@std@@@stdext@@0@Z ; std::_Iter_random<stdext::_Hash<std::tr1::_Umap_traits<unsigned int,std::pair<DRAMsimII::Transaction *,DRAMsimII::Transaction *>,stdext::_Hash_compare<unsigned int,std::tr1::hash<unsigned int>,std::equal_to<unsigned int> >,std::allocator<std::pair<unsigned int const ,std::pair<DRAMsimII::Transaction *,DRAMsimII::Transaction *> > >,0> >::_List_position *,stdext::_Hash<std::tr1::_Umap_traits<unsigned int,std::pair<DRAMsimII::Transaction *,DRAMsimII::Transaction *>,stdext::_Hash_compare<unsigned int,std::tr1::hash<unsigned int>,std::equal_to<unsigned int> >,std::allocator<std::pair<unsigned int const ,std::pair<DRAMsimII::Transaction *,DRAMsimII::Transaction *> > >,0> >::_List_position *>
PUBLIC	??$_Checked_base@PAU_List_position@?$_Hash@V?$_Umap_traits@IU?$pair@PAVTransaction@DRAMsimII@@PAV12@@std@@V?$_Hash_compare@IV?$hash@I@tr1@std@@U?$equal_to@I@3@@stdext@@V?$allocator@U?$pair@$$CBIU?$pair@PAVTransaction@DRAMsimII@@PAV12@@std@@@std@@@2@$0A@@tr1@std@@@stdext@@@std@@YAPAU_List_position@?$_Hash@V?$_Umap_traits@IU?$pair@PAVTransaction@DRAMsimII@@PAV12@@std@@V?$_Hash_compare@IV?$hash@I@tr1@std@@U?$equal_to@I@3@@stdext@@V?$allocator@U?$pair@$$CBIU?$pair@PAVTransaction@DRAMsimII@@PAV12@@std@@@std@@@2@$0A@@tr1@std@@@stdext@@AAPAU123@U_Unchanged_checked_iterator_base_type_tag@0@@Z ; std::_Checked_base<stdext::_Hash<std::tr1::_Umap_traits<unsigned int,std::pair<DRAMsimII::Transaction *,DRAMsimII::Transaction *>,stdext::_Hash_compare<unsigned int,std::tr1::hash<unsigned int>,std::equal_to<unsigned int> >,std::allocator<std::pair<unsigned int const ,std::pair<DRAMsimII::Transaction *,DRAMsimII::Transaction *> > >,0> >::_List_position *>
PUBLIC	??$_Checked_base@PAU_List_position@?$_Hash@V?$_Umap_traits@IU?$pair@PAVTransaction@DRAMsimII@@PAV12@@std@@V?$_Hash_compare@IV?$hash@I@tr1@std@@U?$equal_to@I@3@@stdext@@V?$allocator@U?$pair@$$CBIU?$pair@PAVTransaction@DRAMsimII@@PAV12@@std@@@std@@@2@$0A@@tr1@std@@@stdext@@@std@@YAPAU_List_position@?$_Hash@V?$_Umap_traits@IU?$pair@PAVTransaction@DRAMsimII@@PAV12@@std@@V?$_Hash_compare@IV?$hash@I@tr1@std@@U?$equal_to@I@3@@stdext@@V?$allocator@U?$pair@$$CBIU?$pair@PAVTransaction@DRAMsimII@@PAV12@@std@@@std@@@2@$0A@@tr1@std@@@stdext@@AAPAU123@@Z ; std::_Checked_base<stdext::_Hash<std::tr1::_Umap_traits<unsigned int,std::pair<DRAMsimII::Transaction *,DRAMsimII::Transaction *>,stdext::_Hash_compare<unsigned int,std::tr1::hash<unsigned int>,std::equal_to<unsigned int> >,std::allocator<std::pair<unsigned int const ,std::pair<DRAMsimII::Transaction *,DRAMsimII::Transaction *> > >,0> >::_List_position *>
PUBLIC	??$_Copy_opt@PAU_List_position@?$_Hash@V?$_Umap_traits@IU?$pair@PAVTransaction@DRAMsimII@@PAV12@@std@@V?$_Hash_compare@IV?$hash@I@tr1@std@@U?$equal_to@I@3@@stdext@@V?$allocator@U?$pair@$$CBIU?$pair@PAVTransaction@DRAMsimII@@PAV12@@std@@@std@@@2@$0A@@tr1@std@@@stdext@@PAU123@Uforward_iterator_tag@std@@@std@@YAPAU_List_position@?$_Hash@V?$_Umap_traits@IU?$pair@PAVTransaction@DRAMsimII@@PAV12@@std@@V?$_Hash_compare@IV?$hash@I@tr1@std@@U?$equal_to@I@3@@stdext@@V?$allocator@U?$pair@$$CBIU?$pair@PAVTransaction@DRAMsimII@@PAV12@@std@@@std@@@2@$0A@@tr1@std@@@stdext@@PAU123@00Uforward_iterator_tag@0@U_Nonscalar_ptr_iterator_tag@0@U_Range_checked_iterator_tag@0@@Z ; std::_Copy_opt<stdext::_Hash<std::tr1::_Umap_traits<unsigned int,std::pair<DRAMsimII::Transaction *,DRAMsimII::Transaction *>,stdext::_Hash_compare<unsigned int,std::tr1::hash<unsigned int>,std::equal_to<unsigned int> >,std::allocator<std::pair<unsigned int const ,std::pair<DRAMsimII::Transaction *,DRAMsimII::Transaction *> > >,0> >::_List_position *,stdext::_Hash<std::tr1::_Umap_traits<unsigned int,std::pair<DRAMsimII::Transaction *,DRAMsimII::Transaction *>,stdext::_Hash_compare<unsigned int,std::tr1::hash<unsigned int>,std::equal_to<unsigned int> >,std::allocator<std::pair<unsigned int const ,std::pair<DRAMsimII::Transaction *,DRAMsimII::Transaction *> > >,0> >::_List_position *,std::forward_iterator_tag>
PUBLIC	??$_Copy_opt@PAU_List_position@?$_Hash@V?$_Umap_traits@IU?$pair@PAVTransaction@DRAMsimII@@PAV12@@std@@V?$_Hash_compare@IV?$hash@I@tr1@std@@U?$equal_to@I@3@@stdext@@V?$allocator@U?$pair@$$CBIU?$pair@PAVTransaction@DRAMsimII@@PAV12@@std@@@std@@@2@$0A@@tr1@std@@@stdext@@PAU123@@std@@YAPAU_List_position@?$_Hash@V?$_Umap_traits@IU?$pair@PAVTransaction@DRAMsimII@@PAV12@@std@@V?$_Hash_compare@IV?$hash@I@tr1@std@@U?$equal_to@I@3@@stdext@@V?$allocator@U?$pair@$$CBIU?$pair@PAVTransaction@DRAMsimII@@PAV12@@std@@@std@@@2@$0A@@tr1@std@@@stdext@@PAU123@00Urandom_access_iterator_tag@0@U_Nonscalar_ptr_iterator_tag@0@U_Range_checked_iterator_tag@0@@Z ; std::_Copy_opt<stdext::_Hash<std::tr1::_Umap_traits<unsigned int,std::pair<DRAMsimII::Transaction *,DRAMsimII::Transaction *>,stdext::_Hash_compare<unsigned int,std::tr1::hash<unsigned int>,std::equal_to<unsigned int> >,std::allocator<std::pair<unsigned int const ,std::pair<DRAMsimII::Transaction *,DRAMsimII::Transaction *> > >,0> >::_List_position *,stdext::_Hash<std::tr1::_Umap_traits<unsigned int,std::pair<DRAMsimII::Transaction *,DRAMsimII::Transaction *>,stdext::_Hash_compare<unsigned int,std::tr1::hash<unsigned int>,std::equal_to<unsigned int> >,std::allocator<std::pair<unsigned int const ,std::pair<DRAMsimII::Transaction *,DRAMsimII::Transaction *> > >,0> >::_List_position *>
PUBLIC	??$unchecked_copy@PAU_List_position@?$_Hash@V?$_Umap_traits@IU?$pair@PAVTransaction@DRAMsimII@@PAV12@@std@@V?$_Hash_compare@IV?$hash@I@tr1@std@@U?$equal_to@I@3@@stdext@@V?$allocator@U?$pair@$$CBIU?$pair@PAVTransaction@DRAMsimII@@PAV12@@std@@@std@@@2@$0A@@tr1@std@@@stdext@@PAU123@@stdext@@YAPAU_List_position@?$_Hash@V?$_Umap_traits@IU?$pair@PAVTransaction@DRAMsimII@@PAV12@@std@@V?$_Hash_compare@IV?$hash@I@tr1@std@@U?$equal_to@I@3@@stdext@@V?$allocator@U?$pair@$$CBIU?$pair@PAVTransaction@DRAMsimII@@PAV12@@std@@@std@@@2@$0A@@tr1@std@@@0@PAU120@00@Z ; stdext::unchecked_copy<stdext::_Hash<std::tr1::_Umap_traits<unsigned int,std::pair<DRAMsimII::Transaction *,DRAMsimII::Transaction *>,stdext::_Hash_compare<unsigned int,std::tr1::hash<unsigned int>,std::equal_to<unsigned int> >,std::allocator<std::pair<unsigned int const ,std::pair<DRAMsimII::Transaction *,DRAMsimII::Transaction *> > >,0> >::_List_position *,stdext::_Hash<std::tr1::_Umap_traits<unsigned int,std::pair<DRAMsimII::Transaction *,DRAMsimII::Transaction *>,stdext::_Hash_compare<unsigned int,std::tr1::hash<unsigned int>,std::equal_to<unsigned int> >,std::allocator<std::pair<unsigned int const ,std::pair<DRAMsimII::Transaction *,DRAMsimII::Transaction *> > >,0> >::_List_position *>
PUBLIC	?erase@?$vector@U_List_position@?$_Hash@V?$_Umap_traits@IU?$pair@PAVTransaction@DRAMsimII@@PAV12@@std@@V?$_Hash_compare@IV?$hash@I@tr1@std@@U?$equal_to@I@3@@stdext@@V?$allocator@U?$pair@$$CBIU?$pair@PAVTransaction@DRAMsimII@@PAV12@@std@@@std@@@2@$0A@@tr1@std@@@stdext@@V?$allocator@U_List_position@?$_Hash@V?$_Umap_traits@IU?$pair@PAVTransaction@DRAMsimII@@PAV12@@std@@V?$_Hash_compare@IV?$hash@I@tr1@std@@U?$equal_to@I@3@@stdext@@V?$allocator@U?$pair@$$CBIU?$pair@PAVTransaction@DRAMsimII@@PAV12@@std@@@std@@@2@$0A@@tr1@std@@@stdext@@@std@@@std@@QAE?AV?$_Vector_iterator@U_List_position@?$_Hash@V?$_Umap_traits@IU?$pair@PAVTransaction@DRAMsimII@@PAV12@@std@@V?$_Hash_compare@IV?$hash@I@tr1@std@@U?$equal_to@I@3@@stdext@@V?$allocator@U?$pair@$$CBIU?$pair@PAVTransaction@DRAMsimII@@PAV12@@std@@@std@@@2@$0A@@tr1@std@@@stdext@@V?$allocator@U_List_position@?$_Hash@V?$_Umap_traits@IU?$pair@PAVTransaction@DRAMsimII@@PAV12@@std@@V?$_Hash_compare@IV?$hash@I@tr1@std@@U?$equal_to@I@3@@stdext@@V?$allocator@U?$pair@$$CBIU?$pair@PAVTransaction@DRAMsimII@@PAV12@@std@@@std@@@2@$0A@@tr1@std@@@stdext@@@std@@@2@V?$_Vector_const_iterator@U_List_position@?$_Hash@V?$_Umap_traits@IU?$pair@PAVTransaction@DRAMsimII@@PAV12@@std@@V?$_Hash_compare@IV?$hash@I@tr1@std@@U?$equal_to@I@3@@stdext@@V?$allocator@U?$pair@$$CBIU?$pair@PAVTransaction@DRAMsimII@@PAV12@@std@@@std@@@2@$0A@@tr1@std@@@stdext@@V?$allocator@U_List_position@?$_Hash@V?$_Umap_traits@IU?$pair@PAVTransaction@DRAMsimII@@PAV12@@std@@V?$_Hash_compare@IV?$hash@I@tr1@std@@U?$equal_to@I@3@@stdext@@V?$allocator@U?$pair@$$CBIU?$pair@PAVTransaction@DRAMsimII@@PAV12@@std@@@std@@@2@$0A@@tr1@std@@@stdext@@@std@@@2@0@Z ; std::vector<stdext::_Hash<std::tr1::_Umap_traits<unsigned int,std::pair<DRAMsimII::Transaction *,DRAMsimII::Transaction *>,stdext::_Hash_compare<unsigned int,std::tr1::hash<unsigned int>,std::equal_to<unsigned int> >,std::allocator<std::pair<unsigned int const ,std::pair<DRAMsimII::Transaction *,DRAMsimII::Transaction *> > >,0> >::_List_position,std::allocator<stdext::_Hash<std::tr1::_Umap_traits<unsigned int,std::pair<DRAMsimII::Transaction *,DRAMsimII::Transaction *>,stdext::_Hash_compare<unsigned int,std::tr1::hash<unsigned int>,std::equal_to<unsigned int> >,std::allocator<std::pair<unsigned int const ,std::pair<DRAMsimII::Transaction *,DRAMsimII::Transaction *> > >,0> >::_List_position> >::erase
PUBLIC	?_Assign_n@?$vector@U_List_position@?$_Hash@V?$_Umap_traits@IU?$pair@PAVTransaction@DRAMsimII@@PAV12@@std@@V?$_Hash_compare@IV?$hash@I@tr1@std@@U?$equal_to@I@3@@stdext@@V?$allocator@U?$pair@$$CBIU?$pair@PAVTransaction@DRAMsimII@@PAV12@@std@@@std@@@2@$0A@@tr1@std@@@stdext@@V?$allocator@U_List_position@?$_Hash@V?$_Umap_traits@IU?$pair@PAVTransaction@DRAMsimII@@PAV12@@std@@V?$_Hash_compare@IV?$hash@I@tr1@std@@U?$equal_to@I@3@@stdext@@V?$allocator@U?$pair@$$CBIU?$pair@PAVTransaction@DRAMsimII@@PAV12@@std@@@std@@@2@$0A@@tr1@std@@@stdext@@@std@@@std@@IAEXIABU_List_position@?$_Hash@V?$_Umap_traits@IU?$pair@PAVTransaction@DRAMsimII@@PAV12@@std@@V?$_Hash_compare@IV?$hash@I@tr1@std@@U?$equal_to@I@3@@stdext@@V?$allocator@U?$pair@$$CBIU?$pair@PAVTransaction@DRAMsimII@@PAV12@@std@@@std@@@2@$0A@@tr1@std@@@stdext@@@Z ; std::vector<stdext::_Hash<std::tr1::_Umap_traits<unsigned int,std::pair<DRAMsimII::Transaction *,DRAMsimII::Transaction *>,stdext::_Hash_compare<unsigned int,std::tr1::hash<unsigned int>,std::equal_to<unsigned int> >,std::allocator<std::pair<unsigned int const ,std::pair<DRAMsimII::Transaction *,DRAMsimII::Transaction *> > >,0> >::_List_position,std::allocator<stdext::_Hash<std::tr1::_Umap_traits<unsigned int,std::pair<DRAMsimII::Transaction *,DRAMsimII::Transaction *>,stdext::_Hash_compare<unsigned int,std::tr1::hash<unsigned int>,std::equal_to<unsigned int> >,std::allocator<std::pair<unsigned int const ,std::pair<DRAMsimII::Transaction *,DRAMsimII::Transaction *> > >,0> >::_List_position> >::_Assign_n
PUBLIC	?assign@?$vector@U_List_position@?$_Hash@V?$_Umap_traits@IU?$pair@PAVTransaction@DRAMsimII@@PAV12@@std@@V?$_Hash_compare@IV?$hash@I@tr1@std@@U?$equal_to@I@3@@stdext@@V?$allocator@U?$pair@$$CBIU?$pair@PAVTransaction@DRAMsimII@@PAV12@@std@@@std@@@2@$0A@@tr1@std@@@stdext@@V?$allocator@U_List_position@?$_Hash@V?$_Umap_traits@IU?$pair@PAVTransaction@DRAMsimII@@PAV12@@std@@V?$_Hash_compare@IV?$hash@I@tr1@std@@U?$equal_to@I@3@@stdext@@V?$allocator@U?$pair@$$CBIU?$pair@PAVTransaction@DRAMsimII@@PAV12@@std@@@std@@@2@$0A@@tr1@std@@@stdext@@@std@@@std@@QAEXIABU_List_position@?$_Hash@V?$_Umap_traits@IU?$pair@PAVTransaction@DRAMsimII@@PAV12@@std@@V?$_Hash_compare@IV?$hash@I@tr1@std@@U?$equal_to@I@3@@stdext@@V?$allocator@U?$pair@$$CBIU?$pair@PAVTransaction@DRAMsimII@@PAV12@@std@@@std@@@2@$0A@@tr1@std@@@stdext@@@Z ; std::vector<stdext::_Hash<std::tr1::_Umap_traits<unsigned int,std::pair<DRAMsimII::Transaction *,DRAMsimII::Transaction *>,stdext::_Hash_compare<unsigned int,std::tr1::hash<unsigned int>,std::equal_to<unsigned int> >,std::allocator<std::pair<unsigned int const ,std::pair<DRAMsimII::Transaction *,DRAMsimII::Transaction *> > >,0> >::_List_position,std::allocator<stdext::_Hash<std::tr1::_Umap_traits<unsigned int,std::pair<DRAMsimII::Transaction *,DRAMsimII::Transaction *>,stdext::_Hash_compare<unsigned int,std::tr1::hash<unsigned int>,std::equal_to<unsigned int> >,std::allocator<std::pair<unsigned int const ,std::pair<DRAMsimII::Transaction *,DRAMsimII::Transaction *> > >,0> >::_List_position> >::assign
PUBLIC	?_Init@?$_Hash@V?$_Umap_traits@IU?$pair@PAVTransaction@DRAMsimII@@PAV12@@std@@V?$_Hash_compare@IV?$hash@I@tr1@std@@U?$equal_to@I@3@@stdext@@V?$allocator@U?$pair@$$CBIU?$pair@PAVTransaction@DRAMsimII@@PAV12@@std@@@std@@@2@$0A@@tr1@std@@@stdext@@IAEXI@Z ; stdext::_Hash<std::tr1::_Umap_traits<unsigned int,std::pair<DRAMsimII::Transaction *,DRAMsimII::Transaction *>,stdext::_Hash_compare<unsigned int,std::tr1::hash<unsigned int>,std::equal_to<unsigned int> >,std::allocator<std::pair<unsigned int const ,std::pair<DRAMsimII::Transaction *,DRAMsimII::Transaction *> > >,0> >::_Init
PUBLIC	?begin@?$list@U?$pair@$$CBIU?$pair@PAVTransaction@DRAMsimII@@PAV12@@std@@@std@@V?$allocator@U?$pair@$$CBIU?$pair@PAVTransaction@DRAMsimII@@PAV12@@std@@@std@@@2@@std@@QAE?AV?$_Iterator@$00@12@XZ ; std::list<std::pair<unsigned int const ,std::pair<DRAMsimII::Transaction *,DRAMsimII::Transaction *> >,std::allocator<std::pair<unsigned int const ,std::pair<DRAMsimII::Transaction *,DRAMsimII::Transaction *> > > >::begin
PUBLIC	?_Reinsert@?$_Hash@V?$_Umap_traits@IU?$pair@PAVTransaction@DRAMsimII@@PAV12@@std@@V?$_Hash_compare@IV?$hash@I@tr1@std@@U?$equal_to@I@3@@stdext@@V?$allocator@U?$pair@$$CBIU?$pair@PAVTransaction@DRAMsimII@@PAV12@@std@@@std@@@2@$0A@@tr1@std@@@stdext@@IAEXXZ ; stdext::_Hash<std::tr1::_Umap_traits<unsigned int,std::pair<DRAMsimII::Transaction *,DRAMsimII::Transaction *>,stdext::_Hash_compare<unsigned int,std::tr1::hash<unsigned int>,std::equal_to<unsigned int> >,std::allocator<std::pair<unsigned int const ,std::pair<DRAMsimII::Transaction *,DRAMsimII::Transaction *> > >,0> >::_Reinsert
PUBLIC	?max_size@?$allocator@U_List_position@?$_Hash@V?$_Umap_traits@IU?$pair@PAVTransaction@DRAMsimII@@PAV12@@std@@V?$_Hash_compare@IV?$hash@I@tr1@std@@U?$equal_to@I@3@@stdext@@V?$allocator@U?$pair@$$CBIU?$pair@PAVTransaction@DRAMsimII@@PAV12@@std@@@std@@@2@$0A@@tr1@std@@@stdext@@@std@@QBEIXZ ; std::allocator<stdext::_Hash<std::tr1::_Umap_traits<unsigned int,std::pair<DRAMsimII::Transaction *,DRAMsimII::Transaction *>,stdext::_Hash_compare<unsigned int,std::tr1::hash<unsigned int>,std::equal_to<unsigned int> >,std::allocator<std::pair<unsigned int const ,std::pair<DRAMsimII::Transaction *,DRAMsimII::Transaction *> > >,0> >::_List_position>::max_size
PUBLIC	?max_size@?$vector@U_List_position@?$_Hash@V?$_Umap_traits@IU?$pair@PAVTransaction@DRAMsimII@@PAV12@@std@@V?$_Hash_compare@IV?$hash@I@tr1@std@@U?$equal_to@I@3@@stdext@@V?$allocator@U?$pair@$$CBIU?$pair@PAVTransaction@DRAMsimII@@PAV12@@std@@@std@@@2@$0A@@tr1@std@@@stdext@@V?$allocator@U_List_position@?$_Hash@V?$_Umap_traits@IU?$pair@PAVTransaction@DRAMsimII@@PAV12@@std@@V?$_Hash_compare@IV?$hash@I@tr1@std@@U?$equal_to@I@3@@stdext@@V?$allocator@U?$pair@$$CBIU?$pair@PAVTransaction@DRAMsimII@@PAV12@@std@@@std@@@2@$0A@@tr1@std@@@stdext@@@std@@@std@@QBEIXZ ; std::vector<stdext::_Hash<std::tr1::_Umap_traits<unsigned int,std::pair<DRAMsimII::Transaction *,DRAMsimII::Transaction *>,stdext::_Hash_compare<unsigned int,std::tr1::hash<unsigned int>,std::equal_to<unsigned int> >,std::allocator<std::pair<unsigned int const ,std::pair<DRAMsimII::Transaction *,DRAMsimII::Transaction *> > >,0> >::_List_position,std::allocator<stdext::_Hash<std::tr1::_Umap_traits<unsigned int,std::pair<DRAMsimII::Transaction *,DRAMsimII::Transaction *>,stdext::_Hash_compare<unsigned int,std::tr1::hash<unsigned int>,std::equal_to<unsigned int> >,std::allocator<std::pair<unsigned int const ,std::pair<DRAMsimII::Transaction *,DRAMsimII::Transaction *> > >,0> >::_List_position> >::max_size
PUBLIC	??F?$_Const_iterator@$00@?$list@U?$pair@$$CBIU?$pair@PAVTransaction@DRAMsimII@@PAV12@@std@@@std@@V?$allocator@U?$pair@$$CBIU?$pair@PAVTransaction@DRAMsimII@@PAV12@@std@@@std@@@2@@std@@QAEAAV012@XZ ; std::list<std::pair<unsigned int const ,std::pair<DRAMsimII::Transaction *,DRAMsimII::Transaction *> >,std::allocator<std::pair<unsigned int const ,std::pair<DRAMsimII::Transaction *,DRAMsimII::Transaction *> > > >::_Const_iterator<1>::operator--
PUBLIC	??F?$_Iterator@$00@?$list@U?$pair@$$CBIU?$pair@PAVTransaction@DRAMsimII@@PAV12@@std@@@std@@V?$allocator@U?$pair@$$CBIU?$pair@PAVTransaction@DRAMsimII@@PAV12@@std@@@std@@@2@@std@@QAEAAV012@XZ ; std::list<std::pair<unsigned int const ,std::pair<DRAMsimII::Transaction *,DRAMsimII::Transaction *> >,std::allocator<std::pair<unsigned int const ,std::pair<DRAMsimII::Transaction *,DRAMsimII::Transaction *> > > >::_Iterator<1>::operator--
PUBLIC	??0?$pair@V?$_Iterator@$00@?$list@U?$pair@$$CBIU?$pair@PAVTransaction@DRAMsimII@@PAV12@@std@@@std@@V?$allocator@U?$pair@$$CBIU?$pair@PAVTransaction@DRAMsimII@@PAV12@@std@@@std@@@2@@std@@_N@std@@QAE@ABV?$_Iterator@$00@?$list@U?$pair@$$CBIU?$pair@PAVTransaction@DRAMsimII@@PAV12@@std@@@std@@V?$allocator@U?$pair@$$CBIU?$pair@PAVTransaction@DRAMsimII@@PAV12@@std@@@std@@@2@@1@AB_N@Z ; std::pair<std::list<std::pair<unsigned int const ,std::pair<DRAMsimII::Transaction *,DRAMsimII::Transaction *> >,std::allocator<std::pair<unsigned int const ,std::pair<DRAMsimII::Transaction *,DRAMsimII::Transaction *> > > >::_Iterator<1>,bool>::pair<std::list<std::pair<unsigned int const ,std::pair<DRAMsimII::Transaction *,DRAMsimII::Transaction *> >,std::allocator<std::pair<unsigned int const ,std::pair<DRAMsimII::Transaction *,DRAMsimII::Transaction *> > > >::_Iterator<1>,bool>
PUBLIC	??0?$_Const_iterator@$0A@@?$list@U?$pair@$$CBIU?$pair@PAVTransaction@DRAMsimII@@PAV12@@std@@@std@@V?$allocator@U?$pair@$$CBIU?$pair@PAVTransaction@DRAMsimII@@PAV12@@std@@@std@@@2@@std@@QAE@PAU_Node@?$_List_nod@U?$pair@$$CBIU?$pair@PAVTransaction@DRAMsimII@@PAV12@@std@@@std@@V?$allocator@U?$pair@$$CBIU?$pair@PAVTransaction@DRAMsimII@@PAV12@@std@@@std@@@2@@2@PBV12@@Z ; std::list<std::pair<unsigned int const ,std::pair<DRAMsimII::Transaction *,DRAMsimII::Transaction *> >,std::allocator<std::pair<unsigned int const ,std::pair<DRAMsimII::Transaction *,DRAMsimII::Transaction *> > > >::_Const_iterator<0>::_Const_iterator<0>
PUBLIC	??0?$_Iterator@$0A@@?$list@U?$pair@$$CBIU?$pair@PAVTransaction@DRAMsimII@@PAV12@@std@@@std@@V?$allocator@U?$pair@$$CBIU?$pair@PAVTransaction@DRAMsimII@@PAV12@@std@@@std@@@2@@std@@QAE@PAU_Node@?$_List_nod@U?$pair@$$CBIU?$pair@PAVTransaction@DRAMsimII@@PAV12@@std@@@std@@V?$allocator@U?$pair@$$CBIU?$pair@PAVTransaction@DRAMsimII@@PAV12@@std@@@std@@@2@@2@PBV12@@Z ; std::list<std::pair<unsigned int const ,std::pair<DRAMsimII::Transaction *,DRAMsimII::Transaction *> >,std::allocator<std::pair<unsigned int const ,std::pair<DRAMsimII::Transaction *,DRAMsimII::Transaction *> > > >::_Iterator<0>::_Iterator<0>
PUBLIC	??0_List_position@?$_Hash@V?$_Umap_traits@IU?$pair@PAVTransaction@DRAMsimII@@PAV12@@std@@V?$_Hash_compare@IV?$hash@I@tr1@std@@U?$equal_to@I@3@@stdext@@V?$allocator@U?$pair@$$CBIU?$pair@PAVTransaction@DRAMsimII@@PAV12@@std@@@std@@@2@$0A@@tr1@std@@@stdext@@QAE@V?$_Iterator@$00@?$list@U?$pair@$$CBIU?$pair@PAVTransaction@DRAMsimII@@PAV12@@std@@@std@@V?$allocator@U?$pair@$$CBIU?$pair@PAVTransaction@DRAMsimII@@PAV12@@std@@@std@@@2@@std@@@Z ; stdext::_Hash<std::tr1::_Umap_traits<unsigned int,std::pair<DRAMsimII::Transaction *,DRAMsimII::Transaction *>,stdext::_Hash_compare<unsigned int,std::tr1::hash<unsigned int>,std::equal_to<unsigned int> >,std::allocator<std::pair<unsigned int const ,std::pair<DRAMsimII::Transaction *,DRAMsimII::Transaction *> > >,0> >::_List_position::_List_position
PUBLIC	?_Insert@?$_Hash@V?$_Umap_traits@IU?$pair@PAVTransaction@DRAMsimII@@PAV12@@std@@V?$_Hash_compare@IV?$hash@I@tr1@std@@U?$equal_to@I@3@@stdext@@V?$allocator@U?$pair@$$CBIU?$pair@PAVTransaction@DRAMsimII@@PAV12@@std@@@std@@@2@$0A@@tr1@std@@@stdext@@IAE?AU?$pair@V?$_Iterator@$00@?$list@U?$pair@$$CBIU?$pair@PAVTransaction@DRAMsimII@@PAV12@@std@@@std@@V?$allocator@U?$pair@$$CBIU?$pair@PAVTransaction@DRAMsimII@@PAV12@@std@@@std@@@2@@std@@_N@std@@ABU?$pair@$$CBIU?$pair@PAVTransaction@DRAMsimII@@PAV12@@std@@@4@V?$_Iterator@$00@?$list@U?$pair@$$CBIU?$pair@PAVTransaction@DRAMsimII@@PAV12@@std@@@std@@V?$allocator@U?$pair@$$CBIU?$pair@PAVTransaction@DRAMsimII@@PAV12@@std@@@std@@@2@@4@@Z ; stdext::_Hash<std::tr1::_Umap_traits<unsigned int,std::pair<DRAMsimII::Transaction *,DRAMsimII::Transaction *>,stdext::_Hash_compare<unsigned int,std::tr1::hash<unsigned int>,std::equal_to<unsigned int> >,std::allocator<std::pair<unsigned int const ,std::pair<DRAMsimII::Transaction *,DRAMsimII::Transaction *> > >,0> >::_Insert
PUBLIC	?insert@?$_Hash@V?$_Umap_traits@IU?$pair@PAVTransaction@DRAMsimII@@PAV12@@std@@V?$_Hash_compare@IV?$hash@I@tr1@std@@U?$equal_to@I@3@@stdext@@V?$allocator@U?$pair@$$CBIU?$pair@PAVTransaction@DRAMsimII@@PAV12@@std@@@std@@@2@$0A@@tr1@std@@@stdext@@QAE?AU?$pair@V?$_Iterator@$00@?$list@U?$pair@$$CBIU?$pair@PAVTransaction@DRAMsimII@@PAV12@@std@@@std@@V?$allocator@U?$pair@$$CBIU?$pair@PAVTransaction@DRAMsimII@@PAV12@@std@@@std@@@2@@std@@_N@std@@ABU?$pair@$$CBIU?$pair@PAVTransaction@DRAMsimII@@PAV12@@std@@@4@@Z ; stdext::_Hash<std::tr1::_Umap_traits<unsigned int,std::pair<DRAMsimII::Transaction *,DRAMsimII::Transaction *>,stdext::_Hash_compare<unsigned int,std::tr1::hash<unsigned int>,std::equal_to<unsigned int> >,std::allocator<std::pair<unsigned int const ,std::pair<DRAMsimII::Transaction *,DRAMsimII::Transaction *> > >,0> >::insert
PUBLIC	?_Kfn@?$_Umap_traits@IU?$pair@PAVTransaction@DRAMsimII@@PAV12@@std@@V?$_Hash_compare@IV?$hash@I@tr1@std@@U?$equal_to@I@3@@stdext@@V?$allocator@U?$pair@$$CBIU?$pair@PAVTransaction@DRAMsimII@@PAV12@@std@@@std@@@2@$0A@@tr1@std@@SAABIABU?$pair@$$CBIU?$pair@PAVTransaction@DRAMsimII@@PAV12@@std@@@3@@Z ; std::tr1::_Umap_traits<unsigned int,std::pair<DRAMsimII::Transaction *,DRAMsimII::Transaction *>,stdext::_Hash_compare<unsigned int,std::tr1::hash<unsigned int>,std::equal_to<unsigned int> >,std::allocator<std::pair<unsigned int const ,std::pair<DRAMsimII::Transaction *,DRAMsimII::Transaction *> > >,0>::_Kfn
PUBLIC	?_Get_iter@_List_position@?$_Hash@V?$_Umap_traits@IU?$pair@PAVTransaction@DRAMsimII@@PAV12@@std@@V?$_Hash_compare@IV?$hash@I@tr1@std@@U?$equal_to@I@3@@stdext@@V?$allocator@U?$pair@$$CBIU?$pair@PAVTransaction@DRAMsimII@@PAV12@@std@@@std@@@2@$0A@@tr1@std@@@stdext@@QBE?AV?$_Iterator@$00@?$list@U?$pair@$$CBIU?$pair@PAVTransaction@DRAMsimII@@PAV12@@std@@@std@@V?$allocator@U?$pair@$$CBIU?$pair@PAVTransaction@DRAMsimII@@PAV12@@std@@@std@@@2@@std@@ABV56@@Z ; stdext::_Hash<std::tr1::_Umap_traits<unsigned int,std::pair<DRAMsimII::Transaction *,DRAMsimII::Transaction *>,stdext::_Hash_compare<unsigned int,std::tr1::hash<unsigned int>,std::equal_to<unsigned int> >,std::allocator<std::pair<unsigned int const ,std::pair<DRAMsimII::Transaction *,DRAMsimII::Transaction *> > >,0> >::_List_position::_Get_iter
PUBLIC	?_Get_iter_from_vec@?$_Hash@V?$_Umap_traits@IU?$pair@PAVTransaction@DRAMsimII@@PAV12@@std@@V?$_Hash_compare@IV?$hash@I@tr1@std@@U?$equal_to@I@3@@stdext@@V?$allocator@U?$pair@$$CBIU?$pair@PAVTransaction@DRAMsimII@@PAV12@@std@@@std@@@2@$0A@@tr1@std@@@stdext@@QBE?AV?$_Iterator@$00@?$list@U?$pair@$$CBIU?$pair@PAVTransaction@DRAMsimII@@PAV12@@std@@@std@@V?$allocator@U?$pair@$$CBIU?$pair@PAVTransaction@DRAMsimII@@PAV12@@std@@@std@@@2@@std@@ABU_List_position@12@@Z ; stdext::_Hash<std::tr1::_Umap_traits<unsigned int,std::pair<DRAMsimII::Transaction *,DRAMsimII::Transaction *>,stdext::_Hash_compare<unsigned int,std::tr1::hash<unsigned int>,std::equal_to<unsigned int> >,std::allocator<std::pair<unsigned int const ,std::pair<DRAMsimII::Transaction *,DRAMsimII::Transaction *> > >,0> >::_Get_iter_from_vec
PUBLIC	??0?$_Const_iterator@$00@?$list@U?$pair@$$CBIU?$pair@PAVTransaction@DRAMsimII@@PAV12@@std@@@std@@V?$allocator@U?$pair@$$CBIU?$pair@PAVTransaction@DRAMsimII@@PAV12@@std@@@std@@@2@@std@@QAE@PAU_Node@?$_List_nod@U?$pair@$$CBIU?$pair@PAVTransaction@DRAMsimII@@PAV12@@std@@@std@@V?$allocator@U?$pair@$$CBIU?$pair@PAVTransaction@DRAMsimII@@PAV12@@std@@@std@@@2@@2@PBV12@@Z ; std::list<std::pair<unsigned int const ,std::pair<DRAMsimII::Transaction *,DRAMsimII::Transaction *> >,std::allocator<std::pair<unsigned int const ,std::pair<DRAMsimII::Transaction *,DRAMsimII::Transaction *> > > >::_Const_iterator<1>::_Const_iterator<1>
PUBLIC	??0?$_Iterator@$00@?$list@U?$pair@$$CBIU?$pair@PAVTransaction@DRAMsimII@@PAV12@@std@@@std@@V?$allocator@U?$pair@$$CBIU?$pair@PAVTransaction@DRAMsimII@@PAV12@@std@@@std@@@2@@std@@QAE@PAU_Node@?$_List_nod@U?$pair@$$CBIU?$pair@PAVTransaction@DRAMsimII@@PAV12@@std@@@std@@V?$allocator@U?$pair@$$CBIU?$pair@PAVTransaction@DRAMsimII@@PAV12@@std@@@std@@@2@@2@PBV12@@Z ; std::list<std::pair<unsigned int const ,std::pair<DRAMsimII::Transaction *,DRAMsimII::Transaction *> >,std::allocator<std::pair<unsigned int const ,std::pair<DRAMsimII::Transaction *,DRAMsimII::Transaction *> > > >::_Iterator<1>::_Iterator<1>
PUBLIC	?end@?$list@U?$pair@$$CBIU?$pair@PAVTransaction@DRAMsimII@@PAV12@@std@@@std@@V?$allocator@U?$pair@$$CBIU?$pair@PAVTransaction@DRAMsimII@@PAV12@@std@@@std@@@2@@std@@QAE?AV?$_Iterator@$00@12@XZ ; std::list<std::pair<unsigned int const ,std::pair<DRAMsimII::Transaction *,DRAMsimII::Transaction *> >,std::allocator<std::pair<unsigned int const ,std::pair<DRAMsimII::Transaction *,DRAMsimII::Transaction *> > > >::end
PUBLIC	?end@?$_Hash@V?$_Umap_traits@IU?$pair@PAVTransaction@DRAMsimII@@PAV12@@std@@V?$_Hash_compare@IV?$hash@I@tr1@std@@U?$equal_to@I@3@@stdext@@V?$allocator@U?$pair@$$CBIU?$pair@PAVTransaction@DRAMsimII@@PAV12@@std@@@std@@@2@$0A@@tr1@std@@@stdext@@QAE?AV?$_Iterator@$00@?$list@U?$pair@$$CBIU?$pair@PAVTransaction@DRAMsimII@@PAV12@@std@@@std@@V?$allocator@U?$pair@$$CBIU?$pair@PAVTransaction@DRAMsimII@@PAV12@@std@@@std@@@2@@std@@XZ ; stdext::_Hash<std::tr1::_Umap_traits<unsigned int,std::pair<DRAMsimII::Transaction *,DRAMsimII::Transaction *>,stdext::_Hash_compare<unsigned int,std::tr1::hash<unsigned int>,std::equal_to<unsigned int> >,std::allocator<std::pair<unsigned int const ,std::pair<DRAMsimII::Transaction *,DRAMsimII::Transaction *> > >,0> >::end
PUBLIC	?_Hashval@?$_Hash@V?$_Umap_traits@IU?$pair@PAVTransaction@DRAMsimII@@PAV12@@std@@V?$_Hash_compare@IV?$hash@I@tr1@std@@U?$equal_to@I@3@@stdext@@V?$allocator@U?$pair@$$CBIU?$pair@PAVTransaction@DRAMsimII@@PAV12@@std@@@std@@@2@$0A@@tr1@std@@@stdext@@IBEIABI@Z ; stdext::_Hash<std::tr1::_Umap_traits<unsigned int,std::pair<DRAMsimII::Transaction *,DRAMsimII::Transaction *>,stdext::_Hash_compare<unsigned int,std::tr1::hash<unsigned int>,std::equal_to<unsigned int> >,std::allocator<std::pair<unsigned int const ,std::pair<DRAMsimII::Transaction *,DRAMsimII::Transaction *> > >,0> >::_Hashval
PUBLIC	?size@?$vector@U_List_position@?$_Hash@V?$_Umap_traits@IU?$pair@PAVTransaction@DRAMsimII@@PAV12@@std@@V?$_Hash_compare@IV?$hash@I@tr1@std@@U?$equal_to@I@3@@stdext@@V?$allocator@U?$pair@$$CBIU?$pair@PAVTransaction@DRAMsimII@@PAV12@@std@@@std@@@2@$0A@@tr1@std@@@stdext@@V?$allocator@U_List_position@?$_Hash@V?$_Umap_traits@IU?$pair@PAVTransaction@DRAMsimII@@PAV12@@std@@V?$_Hash_compare@IV?$hash@I@tr1@std@@U?$equal_to@I@3@@stdext@@V?$allocator@U?$pair@$$CBIU?$pair@PAVTransaction@DRAMsimII@@PAV12@@std@@@std@@@2@$0A@@tr1@std@@@stdext@@@std@@@std@@QBEIXZ ; std::vector<stdext::_Hash<std::tr1::_Umap_traits<unsigned int,std::pair<DRAMsimII::Transaction *,DRAMsimII::Transaction *>,stdext::_Hash_compare<unsigned int,std::tr1::hash<unsigned int>,std::equal_to<unsigned int> >,std::allocator<std::pair<unsigned int const ,std::pair<DRAMsimII::Transaction *,DRAMsimII::Transaction *> > >,0> >::_List_position,std::allocator<stdext::_Hash<std::tr1::_Umap_traits<unsigned int,std::pair<DRAMsimII::Transaction *,DRAMsimII::Transaction *>,stdext::_Hash_compare<unsigned int,std::tr1::hash<unsigned int>,std::equal_to<unsigned int> >,std::allocator<std::pair<unsigned int const ,std::pair<DRAMsimII::Transaction *,DRAMsimII::Transaction *> > >,0> >::_List_position> >::size
PUBLIC	??A?$vector@U_List_position@?$_Hash@V?$_Umap_traits@IU?$pair@PAVTransaction@DRAMsimII@@PAV12@@std@@V?$_Hash_compare@IV?$hash@I@tr1@std@@U?$equal_to@I@3@@stdext@@V?$allocator@U?$pair@$$CBIU?$pair@PAVTransaction@DRAMsimII@@PAV12@@std@@@std@@@2@$0A@@tr1@std@@@stdext@@V?$allocator@U_List_position@?$_Hash@V?$_Umap_traits@IU?$pair@PAVTransaction@DRAMsimII@@PAV12@@std@@V?$_Hash_compare@IV?$hash@I@tr1@std@@U?$equal_to@I@3@@stdext@@V?$allocator@U?$pair@$$CBIU?$pair@PAVTransaction@DRAMsimII@@PAV12@@std@@@std@@@2@$0A@@tr1@std@@@stdext@@@std@@@std@@QAEAAU_List_position@?$_Hash@V?$_Umap_traits@IU?$pair@PAVTransaction@DRAMsimII@@PAV12@@std@@V?$_Hash_compare@IV?$hash@I@tr1@std@@U?$equal_to@I@3@@stdext@@V?$allocator@U?$pair@$$CBIU?$pair@PAVTransaction@DRAMsimII@@PAV12@@std@@@std@@@2@$0A@@tr1@std@@@stdext@@I@Z ; std::vector<stdext::_Hash<std::tr1::_Umap_traits<unsigned int,std::pair<DRAMsimII::Transaction *,DRAMsimII::Transaction *>,stdext::_Hash_compare<unsigned int,std::tr1::hash<unsigned int>,std::equal_to<unsigned int> >,std::allocator<std::pair<unsigned int const ,std::pair<DRAMsimII::Transaction *,DRAMsimII::Transaction *> > >,0> >::_List_position,std::allocator<stdext::_Hash<std::tr1::_Umap_traits<unsigned int,std::pair<DRAMsimII::Transaction *,DRAMsimII::Transaction *>,stdext::_Hash_compare<unsigned int,std::tr1::hash<unsigned int>,std::equal_to<unsigned int> >,std::allocator<std::pair<unsigned int const ,std::pair<DRAMsimII::Transaction *,DRAMsimII::Transaction *> > >,0> >::_List_position> >::operator[]
PUBLIC	??0?$_Iterator_with_base@Ubidirectional_iterator_tag@std@@U?$pair@$$CBIU?$pair@PAVTransaction@DRAMsimII@@PAV12@@std@@@2@HPBU32@ABU32@V_Iterator_base_aux@2@@std@@QAE@XZ ; std::_Iterator_with_base<std::bidirectional_iterator_tag,std::pair<unsigned int const ,std::pair<DRAMsimII::Transaction *,DRAMsimII::Transaction *> >,int,std::pair<unsigned int const ,std::pair<DRAMsimII::Transaction *,DRAMsimII::Transaction *> > const *,std::pair<unsigned int const ,std::pair<DRAMsimII::Transaction *,DRAMsimII::Transaction *> > const &,std::_Iterator_base_aux>::_Iterator_with_base<std::bidirectional_iterator_tag,std::pair<unsigned int const ,std::pair<DRAMsimII::Transaction *,DRAMsimII::Transaction *> >,int,std::pair<unsigned int const ,std::pair<DRAMsimII::Transaction *,DRAMsimII::Transaction *> > const *,std::pair<unsigned int const ,std::pair<DRAMsimII::Transaction *,DRAMsimII::Transaction *> > const &,std::_Iterator_base_aux>
PUBLIC	??0?$_Bidit@U?$pair@$$CBIU?$pair@PAVTransaction@DRAMsimII@@PAV12@@std@@@std@@HPBU12@ABU12@@std@@QAE@XZ ; std::_Bidit<std::pair<unsigned int const ,std::pair<DRAMsimII::Transaction *,DRAMsimII::Transaction *> >,int,std::pair<unsigned int const ,std::pair<DRAMsimII::Transaction *,DRAMsimII::Transaction *> > const *,std::pair<unsigned int const ,std::pair<DRAMsimII::Transaction *,DRAMsimII::Transaction *> > const &>::_Bidit<std::pair<unsigned int const ,std::pair<DRAMsimII::Transaction *,DRAMsimII::Transaction *> >,int,std::pair<unsigned int const ,std::pair<DRAMsimII::Transaction *,DRAMsimII::Transaction *> > const *,std::pair<unsigned int const ,std::pair<DRAMsimII::Transaction *,DRAMsimII::Transaction *> > const &>
PUBLIC	??0?$_Const_iterator@$00@?$list@U?$pair@$$CBIU?$pair@PAVTransaction@DRAMsimII@@PAV12@@std@@@std@@V?$allocator@U?$pair@$$CBIU?$pair@PAVTransaction@DRAMsimII@@PAV12@@std@@@std@@@2@@std@@QAE@XZ ; std::list<std::pair<unsigned int const ,std::pair<DRAMsimII::Transaction *,DRAMsimII::Transaction *> >,std::allocator<std::pair<unsigned int const ,std::pair<DRAMsimII::Transaction *,DRAMsimII::Transaction *> > > >::_Const_iterator<1>::_Const_iterator<1>
PUBLIC	??0?$_Iterator@$00@?$list@U?$pair@$$CBIU?$pair@PAVTransaction@DRAMsimII@@PAV12@@std@@@std@@V?$allocator@U?$pair@$$CBIU?$pair@PAVTransaction@DRAMsimII@@PAV12@@std@@@std@@@2@@std@@QAE@XZ ; std::list<std::pair<unsigned int const ,std::pair<DRAMsimII::Transaction *,DRAMsimII::Transaction *> >,std::allocator<std::pair<unsigned int const ,std::pair<DRAMsimII::Transaction *,DRAMsimII::Transaction *> > > >::_Iterator<1>::_Iterator<1>
PUBLIC	?_Mynode@?$_Const_iterator@$00@?$list@U?$pair@$$CBIU?$pair@PAVTransaction@DRAMsimII@@PAV12@@std@@@std@@V?$allocator@U?$pair@$$CBIU?$pair@PAVTransaction@DRAMsimII@@PAV12@@std@@@std@@@2@@std@@QBEPAU_Node@?$_List_nod@U?$pair@$$CBIU?$pair@PAVTransaction@DRAMsimII@@PAV12@@std@@@std@@V?$allocator@U?$pair@$$CBIU?$pair@PAVTransaction@DRAMsimII@@PAV12@@std@@@std@@@2@@3@XZ ; std::list<std::pair<unsigned int const ,std::pair<DRAMsimII::Transaction *,DRAMsimII::Transaction *> >,std::allocator<std::pair<unsigned int const ,std::pair<DRAMsimII::Transaction *,DRAMsimII::Transaction *> > > >::_Const_iterator<1>::_Mynode
PUBLIC	?_Mynode@?$_Const_iterator@$0A@@?$list@U?$pair@$$CBIU?$pair@PAVTransaction@DRAMsimII@@PAV12@@std@@@std@@V?$allocator@U?$pair@$$CBIU?$pair@PAVTransaction@DRAMsimII@@PAV12@@std@@@std@@@2@@std@@QBEPAU_Node@?$_List_nod@U?$pair@$$CBIU?$pair@PAVTransaction@DRAMsimII@@PAV12@@std@@@std@@V?$allocator@U?$pair@$$CBIU?$pair@PAVTransaction@DRAMsimII@@PAV12@@std@@@std@@@2@@3@XZ ; std::list<std::pair<unsigned int const ,std::pair<DRAMsimII::Transaction *,DRAMsimII::Transaction *> >,std::allocator<std::pair<unsigned int const ,std::pair<DRAMsimII::Transaction *,DRAMsimII::Transaction *> > > >::_Const_iterator<0>::_Mynode
PUBLIC	??8_List_position@?$_Hash@V?$_Umap_traits@IU?$pair@PAVTransaction@DRAMsimII@@PAV12@@std@@V?$_Hash_compare@IV?$hash@I@tr1@std@@U?$equal_to@I@3@@stdext@@V?$allocator@U?$pair@$$CBIU?$pair@PAVTransaction@DRAMsimII@@PAV12@@std@@@std@@@2@$0A@@tr1@std@@@stdext@@QBE_NABV?$_Const_iterator@$00@?$list@U?$pair@$$CBIU?$pair@PAVTransaction@DRAMsimII@@PAV12@@std@@@std@@V?$allocator@U?$pair@$$CBIU?$pair@PAVTransaction@DRAMsimII@@PAV12@@std@@@std@@@2@@std@@@Z ; stdext::_Hash<std::tr1::_Umap_traits<unsigned int,std::pair<DRAMsimII::Transaction *,DRAMsimII::Transaction *>,stdext::_Hash_compare<unsigned int,std::tr1::hash<unsigned int>,std::equal_to<unsigned int> >,std::allocator<std::pair<unsigned int const ,std::pair<DRAMsimII::Transaction *,DRAMsimII::Transaction *> > >,0> >::_List_position::operator==
PUBLIC	??9_List_position@?$_Hash@V?$_Umap_traits@IU?$pair@PAVTransaction@DRAMsimII@@PAV12@@std@@V?$_Hash_compare@IV?$hash@I@tr1@std@@U?$equal_to@I@3@@stdext@@V?$allocator@U?$pair@$$CBIU?$pair@PAVTransaction@DRAMsimII@@PAV12@@std@@@std@@@2@$0A@@tr1@std@@@stdext@@QBE_NABV?$_Const_iterator@$00@?$list@U?$pair@$$CBIU?$pair@PAVTransaction@DRAMsimII@@PAV12@@std@@@std@@V?$allocator@U?$pair@$$CBIU?$pair@PAVTransaction@DRAMsimII@@PAV12@@std@@@std@@@2@@std@@@Z ; stdext::_Hash<std::tr1::_Umap_traits<unsigned int,std::pair<DRAMsimII::Transaction *,DRAMsimII::Transaction *>,stdext::_Hash_compare<unsigned int,std::tr1::hash<unsigned int>,std::equal_to<unsigned int> >,std::allocator<std::pair<unsigned int const ,std::pair<DRAMsimII::Transaction *,DRAMsimII::Transaction *> > >,0> >::_List_position::operator!=
PUBLIC	?lower_bound@?$_Hash@V?$_Umap_traits@IU?$pair@PAVTransaction@DRAMsimII@@PAV12@@std@@V?$_Hash_compare@IV?$hash@I@tr1@std@@U?$equal_to@I@3@@stdext@@V?$allocator@U?$pair@$$CBIU?$pair@PAVTransaction@DRAMsimII@@PAV12@@std@@@std@@@2@$0A@@tr1@std@@@stdext@@QAE?AV?$_Iterator@$00@?$list@U?$pair@$$CBIU?$pair@PAVTransaction@DRAMsimII@@PAV12@@std@@@std@@V?$allocator@U?$pair@$$CBIU?$pair@PAVTransaction@DRAMsimII@@PAV12@@std@@@std@@@2@@std@@ABI@Z ; stdext::_Hash<std::tr1::_Umap_traits<unsigned int,std::pair<DRAMsimII::Transaction *,DRAMsimII::Transaction *>,stdext::_Hash_compare<unsigned int,std::tr1::hash<unsigned int>,std::equal_to<unsigned int> >,std::allocator<std::pair<unsigned int const ,std::pair<DRAMsimII::Transaction *,DRAMsimII::Transaction *> > >,0> >::lower_bound
PUBLIC	??0?$pair@PAVTransaction@DRAMsimII@@PAV12@@std@@QAE@XZ ; std::pair<DRAMsimII::Transaction *,DRAMsimII::Transaction *>::pair<DRAMsimII::Transaction *,DRAMsimII::Transaction *>
PUBLIC	??0?$pair@$$CBIU?$pair@PAVTransaction@DRAMsimII@@PAV12@@std@@@std@@QAE@ABIABU?$pair@PAVTransaction@DRAMsimII@@PAV12@@1@@Z ; std::pair<unsigned int const ,std::pair<DRAMsimII::Transaction *,DRAMsimII::Transaction *> >::pair<unsigned int const ,std::pair<DRAMsimII::Transaction *,DRAMsimII::Transaction *> >
PUBLIC	??A?$unordered_map@IU?$pair@PAVTransaction@DRAMsimII@@PAV12@@std@@V?$hash@I@tr1@2@U?$equal_to@I@2@V?$allocator@U?$pair@$$CBIU?$pair@PAVTransaction@DRAMsimII@@PAV12@@std@@@std@@@2@@tr1@std@@QAEAAU?$pair@PAVTransaction@DRAMsimII@@PAV12@@2@ABI@Z ; std::tr1::unordered_map<unsigned int,std::pair<DRAMsimII::Transaction *,DRAMsimII::Transaction *>,std::tr1::hash<unsigned int>,std::equal_to<unsigned int>,std::allocator<std::pair<unsigned int const ,std::pair<DRAMsimII::Transaction *,DRAMsimII::Transaction *> > > >::operator[]
PUBLIC	??1?$_Umap_traits@IU?$pair@PAVTransaction@DRAMsimII@@PAV12@@std@@V?$_Hash_compare@IV?$hash@I@tr1@std@@U?$equal_to@I@3@@stdext@@V?$allocator@U?$pair@$$CBIU?$pair@PAVTransaction@DRAMsimII@@PAV12@@std@@@std@@@2@$0A@@tr1@std@@QAE@XZ ; std::tr1::_Umap_traits<unsigned int,std::pair<DRAMsimII::Transaction *,DRAMsimII::Transaction *>,stdext::_Hash_compare<unsigned int,std::tr1::hash<unsigned int>,std::equal_to<unsigned int> >,std::allocator<std::pair<unsigned int const ,std::pair<DRAMsimII::Transaction *,DRAMsimII::Transaction *> > >,0>::~_Umap_traits<unsigned int,std::pair<DRAMsimII::Transaction *,DRAMsimII::Transaction *>,stdext::_Hash_compare<unsigned int,std::tr1::hash<unsigned int>,std::equal_to<unsigned int> >,std::allocator<std::pair<unsigned int const ,std::pair<DRAMsimII::Transaction *,DRAMsimII::Transaction *> > >,0>
PUBLIC	??1?$_Container_base_aux_alloc_real@V?$allocator@U?$pair@$$CBIU?$pair@PAVTransaction@DRAMsimII@@PAV12@@std@@@std@@@std@@@std@@IAE@XZ ; std::_Container_base_aux_alloc_real<std::allocator<std::pair<unsigned int const ,std::pair<DRAMsimII::Transaction *,DRAMsimII::Transaction *> > > >::~_Container_base_aux_alloc_real<std::allocator<std::pair<unsigned int const ,std::pair<DRAMsimII::Transaction *,DRAMsimII::Transaction *> > > >
PUBLIC	??1?$_List_nod@U?$pair@$$CBIU?$pair@PAVTransaction@DRAMsimII@@PAV12@@std@@@std@@V?$allocator@U?$pair@$$CBIU?$pair@PAVTransaction@DRAMsimII@@PAV12@@std@@@std@@@2@@std@@QAE@XZ ; std::_List_nod<std::pair<unsigned int const ,std::pair<DRAMsimII::Transaction *,DRAMsimII::Transaction *> >,std::allocator<std::pair<unsigned int const ,std::pair<DRAMsimII::Transaction *,DRAMsimII::Transaction *> > > >::~_List_nod<std::pair<unsigned int const ,std::pair<DRAMsimII::Transaction *,DRAMsimII::Transaction *> >,std::allocator<std::pair<unsigned int const ,std::pair<DRAMsimII::Transaction *,DRAMsimII::Transaction *> > > >
PUBLIC	??1?$_List_ptr@U?$pair@$$CBIU?$pair@PAVTransaction@DRAMsimII@@PAV12@@std@@@std@@V?$allocator@U?$pair@$$CBIU?$pair@PAVTransaction@DRAMsimII@@PAV12@@std@@@std@@@2@@std@@QAE@XZ ; std::_List_ptr<std::pair<unsigned int const ,std::pair<DRAMsimII::Transaction *,DRAMsimII::Transaction *> >,std::allocator<std::pair<unsigned int const ,std::pair<DRAMsimII::Transaction *,DRAMsimII::Transaction *> > > >::~_List_ptr<std::pair<unsigned int const ,std::pair<DRAMsimII::Transaction *,DRAMsimII::Transaction *> >,std::allocator<std::pair<unsigned int const ,std::pair<DRAMsimII::Transaction *,DRAMsimII::Transaction *> > > >
PUBLIC	??1?$_List_val@U?$pair@$$CBIU?$pair@PAVTransaction@DRAMsimII@@PAV12@@std@@@std@@V?$allocator@U?$pair@$$CBIU?$pair@PAVTransaction@DRAMsimII@@PAV12@@std@@@std@@@2@@std@@QAE@XZ ; std::_List_val<std::pair<unsigned int const ,std::pair<DRAMsimII::Transaction *,DRAMsimII::Transaction *> >,std::allocator<std::pair<unsigned int const ,std::pair<DRAMsimII::Transaction *,DRAMsimII::Transaction *> > > >::~_List_val<std::pair<unsigned int const ,std::pair<DRAMsimII::Transaction *,DRAMsimII::Transaction *> >,std::allocator<std::pair<unsigned int const ,std::pair<DRAMsimII::Transaction *,DRAMsimII::Transaction *> > > >
PUBLIC	??$_Destroy@PAU_Node@?$_List_nod@U?$pair@$$CBIU?$pair@PAVTransaction@DRAMsimII@@PAV12@@std@@@std@@V?$allocator@U?$pair@$$CBIU?$pair@PAVTransaction@DRAMsimII@@PAV12@@std@@@std@@@2@@std@@@std@@YAXPAPAU_Node@?$_List_nod@U?$pair@$$CBIU?$pair@PAVTransaction@DRAMsimII@@PAV12@@std@@@std@@V?$allocator@U?$pair@$$CBIU?$pair@PAVTransaction@DRAMsimII@@PAV12@@std@@@std@@@2@@0@@Z ; std::_Destroy<std::_List_nod<std::pair<unsigned int const ,std::pair<DRAMsimII::Transaction *,DRAMsimII::Transaction *> >,std::allocator<std::pair<unsigned int const ,std::pair<DRAMsimII::Transaction *,DRAMsimII::Transaction *> > > >::_Node *>
PUBLIC	?destroy@?$allocator@PAU_Node@?$_List_nod@U?$pair@$$CBIU?$pair@PAVTransaction@DRAMsimII@@PAV12@@std@@@std@@V?$allocator@U?$pair@$$CBIU?$pair@PAVTransaction@DRAMsimII@@PAV12@@std@@@std@@@2@@std@@@std@@QAEXPAPAU_Node@?$_List_nod@U?$pair@$$CBIU?$pair@PAVTransaction@DRAMsimII@@PAV12@@std@@@std@@V?$allocator@U?$pair@$$CBIU?$pair@PAVTransaction@DRAMsimII@@PAV12@@std@@@std@@@2@@2@@Z ; std::allocator<std::_List_nod<std::pair<unsigned int const ,std::pair<DRAMsimII::Transaction *,DRAMsimII::Transaction *> >,std::allocator<std::pair<unsigned int const ,std::pair<DRAMsimII::Transaction *,DRAMsimII::Transaction *> > > >::_Node *>::destroy
PUBLIC	?deallocate@?$allocator@U_Node@?$_List_nod@U?$pair@$$CBIU?$pair@PAVTransaction@DRAMsimII@@PAV12@@std@@@std@@V?$allocator@U?$pair@$$CBIU?$pair@PAVTransaction@DRAMsimII@@PAV12@@std@@@std@@@2@@std@@@std@@QAEXPAU_Node@?$_List_nod@U?$pair@$$CBIU?$pair@PAVTransaction@DRAMsimII@@PAV12@@std@@@std@@V?$allocator@U?$pair@$$CBIU?$pair@PAVTransaction@DRAMsimII@@PAV12@@std@@@std@@@2@@2@I@Z ; std::allocator<std::_List_nod<std::pair<unsigned int const ,std::pair<DRAMsimII::Transaction *,DRAMsimII::Transaction *> >,std::allocator<std::pair<unsigned int const ,std::pair<DRAMsimII::Transaction *,DRAMsimII::Transaction *> > > >::_Node>::deallocate
PUBLIC	??$_Destroy@U_Node@?$_List_nod@U?$pair@$$CBIU?$pair@PAVTransaction@DRAMsimII@@PAV12@@std@@@std@@V?$allocator@U?$pair@$$CBIU?$pair@PAVTransaction@DRAMsimII@@PAV12@@std@@@std@@@2@@std@@@std@@YAXPAU_Node@?$_List_nod@U?$pair@$$CBIU?$pair@PAVTransaction@DRAMsimII@@PAV12@@std@@@std@@V?$allocator@U?$pair@$$CBIU?$pair@PAVTransaction@DRAMsimII@@PAV12@@std@@@std@@@2@@0@@Z ; std::_Destroy<std::_List_nod<std::pair<unsigned int const ,std::pair<DRAMsimII::Transaction *,DRAMsimII::Transaction *> >,std::allocator<std::pair<unsigned int const ,std::pair<DRAMsimII::Transaction *,DRAMsimII::Transaction *> > > >::_Node>
PUBLIC	?destroy@?$allocator@U_Node@?$_List_nod@U?$pair@$$CBIU?$pair@PAVTransaction@DRAMsimII@@PAV12@@std@@@std@@V?$allocator@U?$pair@$$CBIU?$pair@PAVTransaction@DRAMsimII@@PAV12@@std@@@std@@@2@@std@@@std@@QAEXPAU_Node@?$_List_nod@U?$pair@$$CBIU?$pair@PAVTransaction@DRAMsimII@@PAV12@@std@@@std@@V?$allocator@U?$pair@$$CBIU?$pair@PAVTransaction@DRAMsimII@@PAV12@@std@@@std@@@2@@2@@Z ; std::allocator<std::_List_nod<std::pair<unsigned int const ,std::pair<DRAMsimII::Transaction *,DRAMsimII::Transaction *> >,std::allocator<std::pair<unsigned int const ,std::pair<DRAMsimII::Transaction *,DRAMsimII::Transaction *> > > >::_Node>::destroy
PUBLIC	?_Prevnode@?$list@U?$pair@$$CBIU?$pair@PAVTransaction@DRAMsimII@@PAV12@@std@@@std@@V?$allocator@U?$pair@$$CBIU?$pair@PAVTransaction@DRAMsimII@@PAV12@@std@@@std@@@2@@std@@KAAAPAU_Node@?$_List_nod@U?$pair@$$CBIU?$pair@PAVTransaction@DRAMsimII@@PAV12@@std@@@std@@V?$allocator@U?$pair@$$CBIU?$pair@PAVTransaction@DRAMsimII@@PAV12@@std@@@std@@@2@@2@PAU342@@Z ; std::list<std::pair<unsigned int const ,std::pair<DRAMsimII::Transaction *,DRAMsimII::Transaction *> >,std::allocator<std::pair<unsigned int const ,std::pair<DRAMsimII::Transaction *,DRAMsimII::Transaction *> > > >::_Prevnode
PUBLIC	?clear@?$list@U?$pair@$$CBIU?$pair@PAVTransaction@DRAMsimII@@PAV12@@std@@@std@@V?$allocator@U?$pair@$$CBIU?$pair@PAVTransaction@DRAMsimII@@PAV12@@std@@@std@@@2@@std@@QAEXXZ ; std::list<std::pair<unsigned int const ,std::pair<DRAMsimII::Transaction *,DRAMsimII::Transaction *> >,std::allocator<std::pair<unsigned int const ,std::pair<DRAMsimII::Transaction *,DRAMsimII::Transaction *> > > >::clear
PUBLIC	?_Tidy@?$list@U?$pair@$$CBIU?$pair@PAVTransaction@DRAMsimII@@PAV12@@std@@@std@@V?$allocator@U?$pair@$$CBIU?$pair@PAVTransaction@DRAMsimII@@PAV12@@std@@@std@@@2@@std@@IAEXXZ ; std::list<std::pair<unsigned int const ,std::pair<DRAMsimII::Transaction *,DRAMsimII::Transaction *> >,std::allocator<std::pair<unsigned int const ,std::pair<DRAMsimII::Transaction *,DRAMsimII::Transaction *> > > >::_Tidy
PUBLIC	??1?$list@U?$pair@$$CBIU?$pair@PAVTransaction@DRAMsimII@@PAV12@@std@@@std@@V?$allocator@U?$pair@$$CBIU?$pair@PAVTransaction@DRAMsimII@@PAV12@@std@@@std@@@2@@std@@QAE@XZ ; std::list<std::pair<unsigned int const ,std::pair<DRAMsimII::Transaction *,DRAMsimII::Transaction *> >,std::allocator<std::pair<unsigned int const ,std::pair<DRAMsimII::Transaction *,DRAMsimII::Transaction *> > > >::~list<std::pair<unsigned int const ,std::pair<DRAMsimII::Transaction *,DRAMsimII::Transaction *> >,std::allocator<std::pair<unsigned int const ,std::pair<DRAMsimII::Transaction *,DRAMsimII::Transaction *> > > >
PUBLIC	??1?$_Container_base_aux_alloc_real@V?$allocator@U_List_position@?$_Hash@V?$_Umap_traits@IU?$pair@PAVTransaction@DRAMsimII@@PAV12@@std@@V?$_Hash_compare@IV?$hash@I@tr1@std@@U?$equal_to@I@3@@stdext@@V?$allocator@U?$pair@$$CBIU?$pair@PAVTransaction@DRAMsimII@@PAV12@@std@@@std@@@2@$0A@@tr1@std@@@stdext@@@std@@@std@@IAE@XZ ; std::_Container_base_aux_alloc_real<std::allocator<stdext::_Hash<std::tr1::_Umap_traits<unsigned int,std::pair<DRAMsimII::Transaction *,DRAMsimII::Transaction *>,stdext::_Hash_compare<unsigned int,std::tr1::hash<unsigned int>,std::equal_to<unsigned int> >,std::allocator<std::pair<unsigned int const ,std::pair<DRAMsimII::Transaction *,DRAMsimII::Transaction *> > >,0> >::_List_position> >::~_Container_base_aux_alloc_real<std::allocator<stdext::_Hash<std::tr1::_Umap_traits<unsigned int,std::pair<DRAMsimII::Transaction *,DRAMsimII::Transaction *>,stdext::_Hash_compare<unsigned int,std::tr1::hash<unsigned int>,std::equal_to<unsigned int> >,std::allocator<std::pair<unsigned int const ,std::pair<DRAMsimII::Transaction *,DRAMsimII::Transaction *> > >,0> >::_List_position> >
PUBLIC	??1?$_Vector_val@U_List_position@?$_Hash@V?$_Umap_traits@IU?$pair@PAVTransaction@DRAMsimII@@PAV12@@std@@V?$_Hash_compare@IV?$hash@I@tr1@std@@U?$equal_to@I@3@@stdext@@V?$allocator@U?$pair@$$CBIU?$pair@PAVTransaction@DRAMsimII@@PAV12@@std@@@std@@@2@$0A@@tr1@std@@@stdext@@V?$allocator@U_List_position@?$_Hash@V?$_Umap_traits@IU?$pair@PAVTransaction@DRAMsimII@@PAV12@@std@@V?$_Hash_compare@IV?$hash@I@tr1@std@@U?$equal_to@I@3@@stdext@@V?$allocator@U?$pair@$$CBIU?$pair@PAVTransaction@DRAMsimII@@PAV12@@std@@@std@@@2@$0A@@tr1@std@@@stdext@@@std@@@std@@QAE@XZ ; std::_Vector_val<stdext::_Hash<std::tr1::_Umap_traits<unsigned int,std::pair<DRAMsimII::Transaction *,DRAMsimII::Transaction *>,stdext::_Hash_compare<unsigned int,std::tr1::hash<unsigned int>,std::equal_to<unsigned int> >,std::allocator<std::pair<unsigned int const ,std::pair<DRAMsimII::Transaction *,DRAMsimII::Transaction *> > >,0> >::_List_position,std::allocator<stdext::_Hash<std::tr1::_Umap_traits<unsigned int,std::pair<DRAMsimII::Transaction *,DRAMsimII::Transaction *>,stdext::_Hash_compare<unsigned int,std::tr1::hash<unsigned int>,std::equal_to<unsigned int> >,std::allocator<std::pair<unsigned int const ,std::pair<DRAMsimII::Transaction *,DRAMsimII::Transaction *> > >,0> >::_List_position> >::~_Vector_val<stdext::_Hash<std::tr1::_Umap_traits<unsigned int,std::pair<DRAMsimII::Transaction *,DRAMsimII::Transaction *>,stdext::_Hash_compare<unsigned int,std::tr1::hash<unsigned int>,std::equal_to<unsigned int> >,std::allocator<std::pair<unsigned int const ,std::pair<DRAMsimII::Transaction *,DRAMsimII::Transaction *> > >,0> >::_List_position,std::allocator<stdext::_Hash<std::tr1::_Umap_traits<unsigned int,std::pair<DRAMsimII::Transaction *,DRAMsimII::Transaction *>,stdext::_Hash_compare<unsigned int,std::tr1::hash<unsigned int>,std::equal_to<unsigned int> >,std::allocator<std::pair<unsigned int const ,std::pair<DRAMsimII::Transaction *,DRAMsimII::Transaction *> > >,0> >::_List_position> >
PUBLIC	?deallocate@?$allocator@U_List_position@?$_Hash@V?$_Umap_traits@IU?$pair@PAVTransaction@DRAMsimII@@PAV12@@std@@V?$_Hash_compare@IV?$hash@I@tr1@std@@U?$equal_to@I@3@@stdext@@V?$allocator@U?$pair@$$CBIU?$pair@PAVTransaction@DRAMsimII@@PAV12@@std@@@std@@@2@$0A@@tr1@std@@@stdext@@@std@@QAEXPAU_List_position@?$_Hash@V?$_Umap_traits@IU?$pair@PAVTransaction@DRAMsimII@@PAV12@@std@@V?$_Hash_compare@IV?$hash@I@tr1@std@@U?$equal_to@I@3@@stdext@@V?$allocator@U?$pair@$$CBIU?$pair@PAVTransaction@DRAMsimII@@PAV12@@std@@@std@@@2@$0A@@tr1@std@@@stdext@@I@Z ; std::allocator<stdext::_Hash<std::tr1::_Umap_traits<unsigned int,std::pair<DRAMsimII::Transaction *,DRAMsimII::Transaction *>,stdext::_Hash_compare<unsigned int,std::tr1::hash<unsigned int>,std::equal_to<unsigned int> >,std::allocator<std::pair<unsigned int const ,std::pair<DRAMsimII::Transaction *,DRAMsimII::Transaction *> > >,0> >::_List_position>::deallocate
PUBLIC	??$_Ptr_cat@PAU_List_position@?$_Hash@V?$_Umap_traits@IU?$pair@PAVTransaction@DRAMsimII@@PAV12@@std@@V?$_Hash_compare@IV?$hash@I@tr1@std@@U?$equal_to@I@3@@stdext@@V?$allocator@U?$pair@$$CBIU?$pair@PAVTransaction@DRAMsimII@@PAV12@@std@@@std@@@2@$0A@@tr1@std@@@stdext@@PAU123@@std@@YA?AU_Nonscalar_ptr_iterator_tag@0@AAPAU_List_position@?$_Hash@V?$_Umap_traits@IU?$pair@PAVTransaction@DRAMsimII@@PAV12@@std@@V?$_Hash_compare@IV?$hash@I@tr1@std@@U?$equal_to@I@3@@stdext@@V?$allocator@U?$pair@$$CBIU?$pair@PAVTransaction@DRAMsimII@@PAV12@@std@@@std@@@2@$0A@@tr1@std@@@stdext@@0@Z ; std::_Ptr_cat<stdext::_Hash<std::tr1::_Umap_traits<unsigned int,std::pair<DRAMsimII::Transaction *,DRAMsimII::Transaction *>,stdext::_Hash_compare<unsigned int,std::tr1::hash<unsigned int>,std::equal_to<unsigned int> >,std::allocator<std::pair<unsigned int const ,std::pair<DRAMsimII::Transaction *,DRAMsimII::Transaction *> > >,0> >::_List_position *,stdext::_Hash<std::tr1::_Umap_traits<unsigned int,std::pair<DRAMsimII::Transaction *,DRAMsimII::Transaction *>,stdext::_Hash_compare<unsigned int,std::tr1::hash<unsigned int>,std::equal_to<unsigned int> >,std::allocator<std::pair<unsigned int const ,std::pair<DRAMsimII::Transaction *,DRAMsimII::Transaction *> > >,0> >::_List_position *>
PUBLIC	??$_Destroy@U_List_position@?$_Hash@V?$_Umap_traits@IU?$pair@PAVTransaction@DRAMsimII@@PAV12@@std@@V?$_Hash_compare@IV?$hash@I@tr1@std@@U?$equal_to@I@3@@stdext@@V?$allocator@U?$pair@$$CBIU?$pair@PAVTransaction@DRAMsimII@@PAV12@@std@@@std@@@2@$0A@@tr1@std@@@stdext@@@std@@YAXPAU_List_position@?$_Hash@V?$_Umap_traits@IU?$pair@PAVTransaction@DRAMsimII@@PAV12@@std@@V?$_Hash_compare@IV?$hash@I@tr1@std@@U?$equal_to@I@3@@stdext@@V?$allocator@U?$pair@$$CBIU?$pair@PAVTransaction@DRAMsimII@@PAV12@@std@@@std@@@2@$0A@@tr1@std@@@stdext@@@Z ; std::_Destroy<stdext::_Hash<std::tr1::_Umap_traits<unsigned int,std::pair<DRAMsimII::Transaction *,DRAMsimII::Transaction *>,stdext::_Hash_compare<unsigned int,std::tr1::hash<unsigned int>,std::equal_to<unsigned int> >,std::allocator<std::pair<unsigned int const ,std::pair<DRAMsimII::Transaction *,DRAMsimII::Transaction *> > >,0> >::_List_position>
PUBLIC	?destroy@?$allocator@U_List_position@?$_Hash@V?$_Umap_traits@IU?$pair@PAVTransaction@DRAMsimII@@PAV12@@std@@V?$_Hash_compare@IV?$hash@I@tr1@std@@U?$equal_to@I@3@@stdext@@V?$allocator@U?$pair@$$CBIU?$pair@PAVTransaction@DRAMsimII@@PAV12@@std@@@std@@@2@$0A@@tr1@std@@@stdext@@@std@@QAEXPAU_List_position@?$_Hash@V?$_Umap_traits@IU?$pair@PAVTransaction@DRAMsimII@@PAV12@@std@@V?$_Hash_compare@IV?$hash@I@tr1@std@@U?$equal_to@I@3@@stdext@@V?$allocator@U?$pair@$$CBIU?$pair@PAVTransaction@DRAMsimII@@PAV12@@std@@@std@@@2@$0A@@tr1@std@@@stdext@@@Z ; std::allocator<stdext::_Hash<std::tr1::_Umap_traits<unsigned int,std::pair<DRAMsimII::Transaction *,DRAMsimII::Transaction *>,stdext::_Hash_compare<unsigned int,std::tr1::hash<unsigned int>,std::equal_to<unsigned int> >,std::allocator<std::pair<unsigned int const ,std::pair<DRAMsimII::Transaction *,DRAMsimII::Transaction *> > >,0> >::_List_position>::destroy
PUBLIC	??$_Destroy_range@V?$allocator@U_List_position@?$_Hash@V?$_Umap_traits@IU?$pair@PAVTransaction@DRAMsimII@@PAV12@@std@@V?$_Hash_compare@IV?$hash@I@tr1@std@@U?$equal_to@I@3@@stdext@@V?$allocator@U?$pair@$$CBIU?$pair@PAVTransaction@DRAMsimII@@PAV12@@std@@@std@@@2@$0A@@tr1@std@@@stdext@@@std@@@std@@YAXPAU_List_position@?$_Hash@V?$_Umap_traits@IU?$pair@PAVTransaction@DRAMsimII@@PAV12@@std@@V?$_Hash_compare@IV?$hash@I@tr1@std@@U?$equal_to@I@3@@stdext@@V?$allocator@U?$pair@$$CBIU?$pair@PAVTransaction@DRAMsimII@@PAV12@@std@@@std@@@2@$0A@@tr1@std@@@stdext@@0AAV?$allocator@U_List_position@?$_Hash@V?$_Umap_traits@IU?$pair@PAVTransaction@DRAMsimII@@PAV12@@std@@V?$_Hash_compare@IV?$hash@I@tr1@std@@U?$equal_to@I@3@@stdext@@V?$allocator@U?$pair@$$CBIU?$pair@PAVTransaction@DRAMsimII@@PAV12@@std@@@std@@@2@$0A@@tr1@std@@@stdext@@@0@U_Nonscalar_ptr_iterator_tag@0@@Z ; std::_Destroy_range<std::allocator<stdext::_Hash<std::tr1::_Umap_traits<unsigned int,std::pair<DRAMsimII::Transaction *,DRAMsimII::Transaction *>,stdext::_Hash_compare<unsigned int,std::tr1::hash<unsigned int>,std::equal_to<unsigned int> >,std::allocator<std::pair<unsigned int const ,std::pair<DRAMsimII::Transaction *,DRAMsimII::Transaction *> > >,0> >::_List_position> >
PUBLIC	??$_Destroy_range@V?$allocator@U_List_position@?$_Hash@V?$_Umap_traits@IU?$pair@PAVTransaction@DRAMsimII@@PAV12@@std@@V?$_Hash_compare@IV?$hash@I@tr1@std@@U?$equal_to@I@3@@stdext@@V?$allocator@U?$pair@$$CBIU?$pair@PAVTransaction@DRAMsimII@@PAV12@@std@@@std@@@2@$0A@@tr1@std@@@stdext@@@std@@@std@@YAXPAU_List_position@?$_Hash@V?$_Umap_traits@IU?$pair@PAVTransaction@DRAMsimII@@PAV12@@std@@V?$_Hash_compare@IV?$hash@I@tr1@std@@U?$equal_to@I@3@@stdext@@V?$allocator@U?$pair@$$CBIU?$pair@PAVTransaction@DRAMsimII@@PAV12@@std@@@std@@@2@$0A@@tr1@std@@@stdext@@0AAV?$allocator@U_List_position@?$_Hash@V?$_Umap_traits@IU?$pair@PAVTransaction@DRAMsimII@@PAV12@@std@@V?$_Hash_compare@IV?$hash@I@tr1@std@@U?$equal_to@I@3@@stdext@@V?$allocator@U?$pair@$$CBIU?$pair@PAVTransaction@DRAMsimII@@PAV12@@std@@@std@@@2@$0A@@tr1@std@@@stdext@@@0@@Z ; std::_Destroy_range<std::allocator<stdext::_Hash<std::tr1::_Umap_traits<unsigned int,std::pair<DRAMsimII::Transaction *,DRAMsimII::Transaction *>,stdext::_Hash_compare<unsigned int,std::tr1::hash<unsigned int>,std::equal_to<unsigned int> >,std::allocator<std::pair<unsigned int const ,std::pair<DRAMsimII::Transaction *,DRAMsimII::Transaction *> > >,0> >::_List_position> >
PUBLIC	?_Destroy@?$vector@U_List_position@?$_Hash@V?$_Umap_traits@IU?$pair@PAVTransaction@DRAMsimII@@PAV12@@std@@V?$_Hash_compare@IV?$hash@I@tr1@std@@U?$equal_to@I@3@@stdext@@V?$allocator@U?$pair@$$CBIU?$pair@PAVTransaction@DRAMsimII@@PAV12@@std@@@std@@@2@$0A@@tr1@std@@@stdext@@V?$allocator@U_List_position@?$_Hash@V?$_Umap_traits@IU?$pair@PAVTransaction@DRAMsimII@@PAV12@@std@@V?$_Hash_compare@IV?$hash@I@tr1@std@@U?$equal_to@I@3@@stdext@@V?$allocator@U?$pair@$$CBIU?$pair@PAVTransaction@DRAMsimII@@PAV12@@std@@@std@@@2@$0A@@tr1@std@@@stdext@@@std@@@std@@IAEXPAU_List_position@?$_Hash@V?$_Umap_traits@IU?$pair@PAVTransaction@DRAMsimII@@PAV12@@std@@V?$_Hash_compare@IV?$hash@I@tr1@std@@U?$equal_to@I@3@@stdext@@V?$allocator@U?$pair@$$CBIU?$pair@PAVTransaction@DRAMsimII@@PAV12@@std@@@std@@@2@$0A@@tr1@std@@@stdext@@0@Z ; std::vector<stdext::_Hash<std::tr1::_Umap_traits<unsigned int,std::pair<DRAMsimII::Transaction *,DRAMsimII::Transaction *>,stdext::_Hash_compare<unsigned int,std::tr1::hash<unsigned int>,std::equal_to<unsigned int> >,std::allocator<std::pair<unsigned int const ,std::pair<DRAMsimII::Transaction *,DRAMsimII::Transaction *> > >,0> >::_List_position,std::allocator<stdext::_Hash<std::tr1::_Umap_traits<unsigned int,std::pair<DRAMsimII::Transaction *,DRAMsimII::Transaction *>,stdext::_Hash_compare<unsigned int,std::tr1::hash<unsigned int>,std::equal_to<unsigned int> >,std::allocator<std::pair<unsigned int const ,std::pair<DRAMsimII::Transaction *,DRAMsimII::Transaction *> > >,0> >::_List_position> >::_Destroy
PUBLIC	?_Tidy@?$vector@U_List_position@?$_Hash@V?$_Umap_traits@IU?$pair@PAVTransaction@DRAMsimII@@PAV12@@std@@V?$_Hash_compare@IV?$hash@I@tr1@std@@U?$equal_to@I@3@@stdext@@V?$allocator@U?$pair@$$CBIU?$pair@PAVTransaction@DRAMsimII@@PAV12@@std@@@std@@@2@$0A@@tr1@std@@@stdext@@V?$allocator@U_List_position@?$_Hash@V?$_Umap_traits@IU?$pair@PAVTransaction@DRAMsimII@@PAV12@@std@@V?$_Hash_compare@IV?$hash@I@tr1@std@@U?$equal_to@I@3@@stdext@@V?$allocator@U?$pair@$$CBIU?$pair@PAVTransaction@DRAMsimII@@PAV12@@std@@@std@@@2@$0A@@tr1@std@@@stdext@@@std@@@std@@IAEXXZ ; std::vector<stdext::_Hash<std::tr1::_Umap_traits<unsigned int,std::pair<DRAMsimII::Transaction *,DRAMsimII::Transaction *>,stdext::_Hash_compare<unsigned int,std::tr1::hash<unsigned int>,std::equal_to<unsigned int> >,std::allocator<std::pair<unsigned int const ,std::pair<DRAMsimII::Transaction *,DRAMsimII::Transaction *> > >,0> >::_List_position,std::allocator<stdext::_Hash<std::tr1::_Umap_traits<unsigned int,std::pair<DRAMsimII::Transaction *,DRAMsimII::Transaction *>,stdext::_Hash_compare<unsigned int,std::tr1::hash<unsigned int>,std::equal_to<unsigned int> >,std::allocator<std::pair<unsigned int const ,std::pair<DRAMsimII::Transaction *,DRAMsimII::Transaction *> > >,0> >::_List_position> >::_Tidy
PUBLIC	??1?$vector@U_List_position@?$_Hash@V?$_Umap_traits@IU?$pair@PAVTransaction@DRAMsimII@@PAV12@@std@@V?$_Hash_compare@IV?$hash@I@tr1@std@@U?$equal_to@I@3@@stdext@@V?$allocator@U?$pair@$$CBIU?$pair@PAVTransaction@DRAMsimII@@PAV12@@std@@@std@@@2@$0A@@tr1@std@@@stdext@@V?$allocator@U_List_position@?$_Hash@V?$_Umap_traits@IU?$pair@PAVTransaction@DRAMsimII@@PAV12@@std@@V?$_Hash_compare@IV?$hash@I@tr1@std@@U?$equal_to@I@3@@stdext@@V?$allocator@U?$pair@$$CBIU?$pair@PAVTransaction@DRAMsimII@@PAV12@@std@@@std@@@2@$0A@@tr1@std@@@stdext@@@std@@@std@@QAE@XZ ; std::vector<stdext::_Hash<std::tr1::_Umap_traits<unsigned int,std::pair<DRAMsimII::Transaction *,DRAMsimII::Transaction *>,stdext::_Hash_compare<unsigned int,std::tr1::hash<unsigned int>,std::equal_to<unsigned int> >,std::allocator<std::pair<unsigned int const ,std::pair<DRAMsimII::Transaction *,DRAMsimII::Transaction *> > >,0> >::_List_position,std::allocator<stdext::_Hash<std::tr1::_Umap_traits<unsigned int,std::pair<DRAMsimII::Transaction *,DRAMsimII::Transaction *>,stdext::_Hash_compare<unsigned int,std::tr1::hash<unsigned int>,std::equal_to<unsigned int> >,std::allocator<std::pair<unsigned int const ,std::pair<DRAMsimII::Transaction *,DRAMsimII::Transaction *> > >,0> >::_List_position> >::~vector<stdext::_Hash<std::tr1::_Umap_traits<unsigned int,std::pair<DRAMsimII::Transaction *,DRAMsimII::Transaction *>,stdext::_Hash_compare<unsigned int,std::tr1::hash<unsigned int>,std::equal_to<unsigned int> >,std::allocator<std::pair<unsigned int const ,std::pair<DRAMsimII::Transaction *,DRAMsimII::Transaction *> > >,0> >::_List_position,std::allocator<stdext::_Hash<std::tr1::_Umap_traits<unsigned int,std::pair<DRAMsimII::Transaction *,DRAMsimII::Transaction *>,stdext::_Hash_compare<unsigned int,std::tr1::hash<unsigned int>,std::equal_to<unsigned int> >,std::allocator<std::pair<unsigned int const ,std::pair<DRAMsimII::Transaction *,DRAMsimII::Transaction *> > >,0> >::_List_position> >
PUBLIC	??1?$_Hash@V?$_Umap_traits@IU?$pair@PAVTransaction@DRAMsimII@@PAV12@@std@@V?$_Hash_compare@IV?$hash@I@tr1@std@@U?$equal_to@I@3@@stdext@@V?$allocator@U?$pair@$$CBIU?$pair@PAVTransaction@DRAMsimII@@PAV12@@std@@@std@@@2@$0A@@tr1@std@@@stdext@@QAE@XZ ; stdext::_Hash<std::tr1::_Umap_traits<unsigned int,std::pair<DRAMsimII::Transaction *,DRAMsimII::Transaction *>,stdext::_Hash_compare<unsigned int,std::tr1::hash<unsigned int>,std::equal_to<unsigned int> >,std::allocator<std::pair<unsigned int const ,std::pair<DRAMsimII::Transaction *,DRAMsimII::Transaction *> > >,0> >::~_Hash<std::tr1::_Umap_traits<unsigned int,std::pair<DRAMsimII::Transaction *,DRAMsimII::Transaction *>,stdext::_Hash_compare<unsigned int,std::tr1::hash<unsigned int>,std::equal_to<unsigned int> >,std::allocator<std::pair<unsigned int const ,std::pair<DRAMsimII::Transaction *,DRAMsimII::Transaction *> > >,0> >
PUBLIC	??1?$unordered_map@IU?$pair@PAVTransaction@DRAMsimII@@PAV12@@std@@V?$hash@I@tr1@2@U?$equal_to@I@2@V?$allocator@U?$pair@$$CBIU?$pair@PAVTransaction@DRAMsimII@@PAV12@@std@@@std@@@2@@tr1@std@@QAE@XZ ; std::tr1::unordered_map<unsigned int,std::pair<DRAMsimII::Transaction *,DRAMsimII::Transaction *>,std::tr1::hash<unsigned int>,std::equal_to<unsigned int>,std::allocator<std::pair<unsigned int const ,std::pair<DRAMsimII::Transaction *,DRAMsimII::Transaction *> > > >::~unordered_map<unsigned int,std::pair<DRAMsimII::Transaction *,DRAMsimII::Transaction *>,std::tr1::hash<unsigned int>,std::equal_to<unsigned int>,std::allocator<std::pair<unsigned int const ,std::pair<DRAMsimII::Transaction *,DRAMsimII::Transaction *> > > >
PUBLIC	??C?$_Const_iterator@$00@?$list@U?$pair@$$CBIU?$pair@PAVTransaction@DRAMsimII@@PAV12@@std@@@std@@V?$allocator@U?$pair@$$CBIU?$pair@PAVTransaction@DRAMsimII@@PAV12@@std@@@std@@@2@@std@@QBEPBU?$pair@$$CBIU?$pair@PAVTransaction@DRAMsimII@@PAV12@@std@@@2@XZ ; std::list<std::pair<unsigned int const ,std::pair<DRAMsimII::Transaction *,DRAMsimII::Transaction *> >,std::allocator<std::pair<unsigned int const ,std::pair<DRAMsimII::Transaction *,DRAMsimII::Transaction *> > > >::_Const_iterator<1>::operator->
PUBLIC	??E?$_Const_iterator@$00@?$list@U?$pair@$$CBIU?$pair@PAVTransaction@DRAMsimII@@PAV12@@std@@@std@@V?$allocator@U?$pair@$$CBIU?$pair@PAVTransaction@DRAMsimII@@PAV12@@std@@@std@@@2@@std@@QAE?AV012@H@Z ; std::list<std::pair<unsigned int const ,std::pair<DRAMsimII::Transaction *,DRAMsimII::Transaction *> >,std::allocator<std::pair<unsigned int const ,std::pair<DRAMsimII::Transaction *,DRAMsimII::Transaction *> > > >::_Const_iterator<1>::operator++
PUBLIC	??8?$_Const_iterator@$00@?$list@U?$pair@$$CBIU?$pair@PAVTransaction@DRAMsimII@@PAV12@@std@@@std@@V?$allocator@U?$pair@$$CBIU?$pair@PAVTransaction@DRAMsimII@@PAV12@@std@@@std@@@2@@std@@QBE_NABV012@@Z ; std::list<std::pair<unsigned int const ,std::pair<DRAMsimII::Transaction *,DRAMsimII::Transaction *> >,std::allocator<std::pair<unsigned int const ,std::pair<DRAMsimII::Transaction *,DRAMsimII::Transaction *> > > >::_Const_iterator<1>::operator==
PUBLIC	??9?$_Const_iterator@$00@?$list@U?$pair@$$CBIU?$pair@PAVTransaction@DRAMsimII@@PAV12@@std@@@std@@V?$allocator@U?$pair@$$CBIU?$pair@PAVTransaction@DRAMsimII@@PAV12@@std@@@std@@@2@@std@@QBE_NABV012@@Z ; std::list<std::pair<unsigned int const ,std::pair<DRAMsimII::Transaction *,DRAMsimII::Transaction *> >,std::allocator<std::pair<unsigned int const ,std::pair<DRAMsimII::Transaction *,DRAMsimII::Transaction *> > > >::_Const_iterator<1>::operator!=
PUBLIC	?_Myval@?$list@U?$pair@$$CBIU?$pair@PAVTransaction@DRAMsimII@@PAV12@@std@@@std@@V?$allocator@U?$pair@$$CBIU?$pair@PAVTransaction@DRAMsimII@@PAV12@@std@@@std@@@2@@std@@KAAAU?$pair@$$CBIU?$pair@PAVTransaction@DRAMsimII@@PAV12@@std@@@2@PAU_Node@?$_List_nod@U?$pair@$$CBIU?$pair@PAVTransaction@DRAMsimII@@PAV12@@std@@@std@@V?$allocator@U?$pair@$$CBIU?$pair@PAVTransaction@DRAMsimII@@PAV12@@std@@@std@@@2@@2@@Z ; std::list<std::pair<unsigned int const ,std::pair<DRAMsimII::Transaction *,DRAMsimII::Transaction *> >,std::allocator<std::pair<unsigned int const ,std::pair<DRAMsimII::Transaction *,DRAMsimII::Transaction *> > > >::_Myval
PUBLIC	??D?$_Const_iterator@$00@?$list@U?$pair@$$CBIU?$pair@PAVTransaction@DRAMsimII@@PAV12@@std@@@std@@V?$allocator@U?$pair@$$CBIU?$pair@PAVTransaction@DRAMsimII@@PAV12@@std@@@std@@@2@@std@@QBEABU?$pair@$$CBIU?$pair@PAVTransaction@DRAMsimII@@PAV12@@std@@@2@XZ ; std::list<std::pair<unsigned int const ,std::pair<DRAMsimII::Transaction *,DRAMsimII::Transaction *> >,std::allocator<std::pair<unsigned int const ,std::pair<DRAMsimII::Transaction *,DRAMsimII::Transaction *> > > >::_Const_iterator<1>::operator*
PUBLIC	??D?$_Iterator@$00@?$list@U?$pair@$$CBIU?$pair@PAVTransaction@DRAMsimII@@PAV12@@std@@@std@@V?$allocator@U?$pair@$$CBIU?$pair@PAVTransaction@DRAMsimII@@PAV12@@std@@@std@@@2@@std@@QBEAAU?$pair@$$CBIU?$pair@PAVTransaction@DRAMsimII@@PAV12@@std@@@2@XZ ; std::list<std::pair<unsigned int const ,std::pair<DRAMsimII::Transaction *,DRAMsimII::Transaction *> >,std::allocator<std::pair<unsigned int const ,std::pair<DRAMsimII::Transaction *,DRAMsimII::Transaction *> > > >::_Iterator<1>::operator*
PUBLIC	??C?$_Iterator@$00@?$list@U?$pair@$$CBIU?$pair@PAVTransaction@DRAMsimII@@PAV12@@std@@@std@@V?$allocator@U?$pair@$$CBIU?$pair@PAVTransaction@DRAMsimII@@PAV12@@std@@@std@@@2@@std@@QBEPAU?$pair@$$CBIU?$pair@PAVTransaction@DRAMsimII@@PAV12@@std@@@2@XZ ; std::list<std::pair<unsigned int const ,std::pair<DRAMsimII::Transaction *,DRAMsimII::Transaction *> >,std::allocator<std::pair<unsigned int const ,std::pair<DRAMsimII::Transaction *,DRAMsimII::Transaction *> > > >::_Iterator<1>::operator->
PUBLIC	?_Nextnode@?$list@U?$pair@$$CBIU?$pair@PAVTransaction@DRAMsimII@@PAV12@@std@@@std@@V?$allocator@U?$pair@$$CBIU?$pair@PAVTransaction@DRAMsimII@@PAV12@@std@@@std@@@2@@std@@KAAAPAU_Node@?$_List_nod@U?$pair@$$CBIU?$pair@PAVTransaction@DRAMsimII@@PAV12@@std@@@std@@V?$allocator@U?$pair@$$CBIU?$pair@PAVTransaction@DRAMsimII@@PAV12@@std@@@std@@@2@@2@PAU342@@Z ; std::list<std::pair<unsigned int const ,std::pair<DRAMsimII::Transaction *,DRAMsimII::Transaction *> >,std::allocator<std::pair<unsigned int const ,std::pair<DRAMsimII::Transaction *,DRAMsimII::Transaction *> > > >::_Nextnode
PUBLIC	??E?$_Const_iterator@$00@?$list@U?$pair@$$CBIU?$pair@PAVTransaction@DRAMsimII@@PAV12@@std@@@std@@V?$allocator@U?$pair@$$CBIU?$pair@PAVTransaction@DRAMsimII@@PAV12@@std@@@std@@@2@@std@@QAEAAV012@XZ ; std::list<std::pair<unsigned int const ,std::pair<DRAMsimII::Transaction *,DRAMsimII::Transaction *> >,std::allocator<std::pair<unsigned int const ,std::pair<DRAMsimII::Transaction *,DRAMsimII::Transaction *> > > >::_Const_iterator<1>::operator++
PUBLIC	??E?$_Iterator@$00@?$list@U?$pair@$$CBIU?$pair@PAVTransaction@DRAMsimII@@PAV12@@std@@@std@@V?$allocator@U?$pair@$$CBIU?$pair@PAVTransaction@DRAMsimII@@PAV12@@std@@@std@@@2@@std@@QAEAAV012@XZ ; std::list<std::pair<unsigned int const ,std::pair<DRAMsimII::Transaction *,DRAMsimII::Transaction *> >,std::allocator<std::pair<unsigned int const ,std::pair<DRAMsimII::Transaction *,DRAMsimII::Transaction *> > > >::_Iterator<1>::operator++
PUBLIC	??E?$_Iterator@$00@?$list@U?$pair@$$CBIU?$pair@PAVTransaction@DRAMsimII@@PAV12@@std@@@std@@V?$allocator@U?$pair@$$CBIU?$pair@PAVTransaction@DRAMsimII@@PAV12@@std@@@std@@@2@@std@@QAE?AV012@H@Z ; std::list<std::pair<unsigned int const ,std::pair<DRAMsimII::Transaction *,DRAMsimII::Transaction *> >,std::allocator<std::pair<unsigned int const ,std::pair<DRAMsimII::Transaction *,DRAMsimII::Transaction *> > > >::_Iterator<1>::operator++
PUBLIC	??0?$pair@PAVTransaction@DRAMsimII@@PAV12@@std@@QAE@ABQAVTransaction@DRAMsimII@@0@Z ; std::pair<DRAMsimII::Transaction *,DRAMsimII::Transaction *>::pair<DRAMsimII::Transaction *,DRAMsimII::Transaction *>
PUBLIC	??C?$_Vector_const_iterator@VChannel@DRAMsimII@@V?$allocator@VChannel@DRAMsimII@@@std@@@std@@QBEPBVChannel@DRAMsimII@@XZ ; std::_Vector_const_iterator<DRAMsimII::Channel,std::allocator<DRAMsimII::Channel> >::operator->
PUBLIC	?getConfigType@SystemConfiguration@DRAMsimII@@QBE?AW4SystemConfigurationType@2@XZ ; DRAMsimII::SystemConfiguration::getConfigType
PUBLIC	?getShortBurstRatio@SystemConfiguration@DRAMsimII@@QBENXZ ; DRAMsimII::SystemConfiguration::getShortBurstRatio
PUBLIC	?getReadPercentage@SystemConfiguration@DRAMsimII@@QBENXZ ; DRAMsimII::SystemConfiguration::getReadPercentage
PUBLIC	??_C@_07KMICBNBC@?$FN?5sets?$FL?$AA@		; `string'
PUBLIC	??_C@_08NADJLLE@?$FN?5assoc?$FL?$AA@		; `string'
PUBLIC	??_C@_06DGPPDNGF@blkSz?$FL?$AA@			; `string'
PUBLIC	??_C@_04BHMCEHEJ@kB?$FN?5?$AA@			; `string'
PUBLIC	??_C@_06CMDGPFCD@cache?$FL?$AA@			; `string'
PUBLIC	??_C@_02PBFOLPKM@?$FN?5?$AA@			; `string'
PUBLIC	??_C@_0L@EIAHPKIN@?$FN?5t_?$HLFAW?$HN?$FL?$AA@	; `string'
PUBLIC	??_C@_07FANEOFIO@M?$FN?5PBQ?$FL?$AA@		; `string'
PUBLIC	??_C@_05BNONNLFK@?$FN?5DR?$FL?$AA@		; `string'
PUBLIC	??_C@_07KELLHHAH@?$FN?5RBMP?$FL?$AA@		; `string'
PUBLIC	??_C@_06NDAOKEFK@?$FN?5COA?$FL?$AA@		; `string'
PUBLIC	??_C@_06BOCDPGPG@?$FN?5AMP?$FL?$AA@		; `string'
PUBLIC	??_C@_09IABIPHAA@?$FN?5t_?$HLRC?$HN?$FL?$AA@	; `string'
PUBLIC	??_C@_0L@OICMBBBB@?$FN?5t_?$HLRCD?$HN?$FL?$AA@	; `string'
PUBLIC	??_C@_0L@JHKIPMGJ@?$FN?5t_?$HLCAS?$HN?$FL?$AA@	; `string'
PUBLIC	??_C@_0L@FPCCCNFH@?$FN?5t_?$HLRAS?$HN?$FL?$AA@	; `string'
PUBLIC	??_C@_04NOGDJOAJ@?$FN?5?$FLx?$AA@		; `string'
PUBLIC	??_C@_05LDAOPFKH@?$FN?5bk?$FL?$AA@		; `string'
PUBLIC	??_C@_05ODBHKCDI@?$FN?5rk?$FL?$AA@		; `string'
PUBLIC	??_C@_04MOAEGBAM@?5ch?$FL?$AA@			; `string'
PUBLIC	??_C@_0BD@NKGPPGBC@?9?9?9?9Command?5Line?3?5?$AA@ ; `string'
PUBLIC	??_C@_0L@IOLOEHIE@?9?9?9?9Epoch?5?$AA@		; `string'
PUBLIC	??_C@_0O@GPPBLPGF@?9?9?9?9Datarate?5?$AA@	; `string'
PUBLIC	??_C@_05CLDNIALB@?$FN?$CL?$CL?$CL?9?$AA@	; `string'
PUBLIC	??_C@_04CFKFMLNB@?$FNrk?$FL?$AA@		; `string'
PUBLIC	??_C@_07NIHGJHHN@?9?$CL?$CL?$CLch?$FL?$AA@	; `string'
PUBLIC	??_C@_03JLJHCGLP@?5?$EA?5?$AA@			; `string'
PUBLIC	??_C@_0BO@OCAALIAC@?9?9?9?9?9?9?9?9?9?9?9?9?9?9?9?9?9?9?9?9?9?9?9?9?9?9?9?9?9?$AA@ ; `string'
PUBLIC	??_C@_04MHNOOJKH@SYS?$FL?$AA@			; `string'
PUBLIC	??_C@_06FHJKBJEN@BASE?$FN?5?$AA@		; `string'
PUBLIC	??_C@_06IDCEFCJK@UNKN?$FN?5?$AA@		; `string'
PUBLIC	??_C@_03JECMFAMM@RC?$FL?$AA@			; `string'
PUBLIC	??_C@_03MEDFAHFD@BC?$FL?$AA@			; `string'
PUBLIC	??_C@_04KBBGIBEE@ALG?$FL?$AA@			; `string'
PUBLIC	??_C@_06PELADDJO@STR?5?$FN?5?$AA@		; `string'
PUBLIC	??_C@_06IEJONLDH@RRR?5?$FN?5?$AA@		; `string'
PUBLIC	??_C@_06ODEAEHPJ@BRR?5?$FN?5?$AA@		; `string'
PUBLIC	??_C@_06PGGNDCKK@CPRH?$FN?5?$AA@		; `string'
PUBLIC	??_C@_06EIOPOFGK@GRDY?$FN?5?$AA@		; `string'
PUBLIC	??_C@_03IKEMENOF@RP?$FL?$AA@			; `string'
PUBLIC	??_C@_04PMFLJKAP@BLR?$FL?$AA@			; `string'
PUBLIC	??_C@_08LCLEONAE@baseline?$AA@			; `string'
PUBLIC	??_C@_03IKDEDJNB@fbd?$AA@			; `string'
PUBLIC	??_C@_0P@KFFKBIKA@bankConcurrent?$AA@		; `string'
PUBLIC	??_C@_0BE@GGMPALAP@bankStaggeredHidden?$AA@	; `string'
PUBLIC	??_C@_0BN@EACCCNHH@refreshOneChanAllRankAllBank?$AA@ ; `string'
PUBLIC	??_7System@DRAMsimII@@6B@			; DRAMsimII::System::`vftable'
;	COMDAT ??_7System@DRAMsimII@@6B@
CONST	SEGMENT
??_7System@DRAMsimII@@6B@ DD FLAT:??_R4System@DRAMsimII@@6B@ ; DRAMsimII::System::`vftable'
	DD	FLAT:?doPowerCalculation@System@DRAMsimII@@MAEXXZ
	DD	FLAT:?printStatistics@System@DRAMsimII@@MAEXXZ
	DD	FLAT:?nextTick@System@DRAMsimII@@UBE_JXZ
CONST	ENDS
;	COMDAT ??_R4System@DRAMsimII@@6B@
rdata$r	SEGMENT
??_R4System@DRAMsimII@@6B@ DD 00H			; DRAMsimII::System::`RTTI Complete Object Locator'
	DD	00H
	DD	00H
	DD	FLAT:??_R0?AVSystem@DRAMsimII@@@8
	DD	FLAT:??_R3System@DRAMsimII@@8
rdata$r	ENDS
;	COMDAT ??_C@_0BN@EACCCNHH@refreshOneChanAllRankAllBank?$AA@
CONST	SEGMENT
??_C@_0BN@EACCCNHH@refreshOneChanAllRankAllBank?$AA@ DB 'refreshOneChanAl'
	DB	'lRankAllBank', 00H				; `string'
CONST	ENDS
;	COMDAT ??_C@_0BE@GGMPALAP@bankStaggeredHidden?$AA@
CONST	SEGMENT
??_C@_0BE@GGMPALAP@bankStaggeredHidden?$AA@ DB 'bankStaggeredHidden', 00H ; `string'
CONST	ENDS
;	COMDAT ??_C@_0P@KFFKBIKA@bankConcurrent?$AA@
CONST	SEGMENT
??_C@_0P@KFFKBIKA@bankConcurrent?$AA@ DB 'bankConcurrent', 00H ; `string'
CONST	ENDS
;	COMDAT ??_C@_03IKDEDJNB@fbd?$AA@
CONST	SEGMENT
??_C@_03IKDEDJNB@fbd?$AA@ DB 'fbd', 00H			; `string'
CONST	ENDS
;	COMDAT ??_C@_08LCLEONAE@baseline?$AA@
CONST	SEGMENT
??_C@_08LCLEONAE@baseline?$AA@ DB 'baseline', 00H	; `string'
CONST	ENDS
;	COMDAT ??_C@_04PMFLJKAP@BLR?$FL?$AA@
CONST	SEGMENT
??_C@_04PMFLJKAP@BLR?$FL?$AA@ DB 'BLR[', 00H		; `string'
CONST	ENDS
;	COMDAT ??_C@_03IKEMENOF@RP?$FL?$AA@
CONST	SEGMENT
??_C@_03IKEMENOF@RP?$FL?$AA@ DB 'RP[', 00H		; `string'
CONST	ENDS
;	COMDAT ??_C@_06EIOPOFGK@GRDY?$FN?5?$AA@
CONST	SEGMENT
??_C@_06EIOPOFGK@GRDY?$FN?5?$AA@ DB 'GRDY] ', 00H	; `string'
CONST	ENDS
;	COMDAT ??_C@_06PGGNDCKK@CPRH?$FN?5?$AA@
CONST	SEGMENT
??_C@_06PGGNDCKK@CPRH?$FN?5?$AA@ DB 'CPRH] ', 00H	; `string'
CONST	ENDS
;	COMDAT ??_C@_06ODEAEHPJ@BRR?5?$FN?5?$AA@
CONST	SEGMENT
??_C@_06ODEAEHPJ@BRR?5?$FN?5?$AA@ DB 'BRR ] ', 00H	; `string'
CONST	ENDS
;	COMDAT ??_C@_06IEJONLDH@RRR?5?$FN?5?$AA@
CONST	SEGMENT
??_C@_06IEJONLDH@RRR?5?$FN?5?$AA@ DB 'RRR ] ', 00H	; `string'
CONST	ENDS
;	COMDAT ??_C@_06PELADDJO@STR?5?$FN?5?$AA@
CONST	SEGMENT
??_C@_06PELADDJO@STR?5?$FN?5?$AA@ DB 'STR ] ', 00H	; `string'
CONST	ENDS
;	COMDAT ??_C@_04KBBGIBEE@ALG?$FL?$AA@
CONST	SEGMENT
??_C@_04KBBGIBEE@ALG?$FL?$AA@ DB 'ALG[', 00H		; `string'
CONST	ENDS
;	COMDAT ??_C@_03MEDFAHFD@BC?$FL?$AA@
CONST	SEGMENT
??_C@_03MEDFAHFD@BC?$FL?$AA@ DB 'BC[', 00H		; `string'
CONST	ENDS
;	COMDAT ??_C@_03JECMFAMM@RC?$FL?$AA@
CONST	SEGMENT
??_C@_03JECMFAMM@RC?$FL?$AA@ DB 'RC[', 00H		; `string'
CONST	ENDS
;	COMDAT ??_C@_06IDCEFCJK@UNKN?$FN?5?$AA@
CONST	SEGMENT
??_C@_06IDCEFCJK@UNKN?$FN?5?$AA@ DB 'UNKN] ', 00H	; `string'
CONST	ENDS
;	COMDAT ??_C@_06FHJKBJEN@BASE?$FN?5?$AA@
CONST	SEGMENT
??_C@_06FHJKBJEN@BASE?$FN?5?$AA@ DB 'BASE] ', 00H	; `string'
CONST	ENDS
;	COMDAT ??_C@_04MHNOOJKH@SYS?$FL?$AA@
CONST	SEGMENT
??_C@_04MHNOOJKH@SYS?$FL?$AA@ DB 'SYS[', 00H		; `string'
CONST	ENDS
;	COMDAT ??_C@_0BO@OCAALIAC@?9?9?9?9?9?9?9?9?9?9?9?9?9?9?9?9?9?9?9?9?9?9?9?9?9?9?9?9?9?$AA@
CONST	SEGMENT
??_C@_0BO@OCAALIAC@?9?9?9?9?9?9?9?9?9?9?9?9?9?9?9?9?9?9?9?9?9?9?9?9?9?9?9?9?9?$AA@ DB '-'
	DB	'----------------------------', 00H		; `string'
CONST	ENDS
;	COMDAT ??_C@_03JLJHCGLP@?5?$EA?5?$AA@
CONST	SEGMENT
??_C@_03JLJHCGLP@?5?$EA?5?$AA@ DB ' @ ', 00H		; `string'
CONST	ENDS
;	COMDAT ??_C@_07NIHGJHHN@?9?$CL?$CL?$CLch?$FL?$AA@
CONST	SEGMENT
??_C@_07NIHGJHHN@?9?$CL?$CL?$CLch?$FL?$AA@ DB '-+++ch[', 00H ; `string'
CONST	ENDS
;	COMDAT ??_C@_04CFKFMLNB@?$FNrk?$FL?$AA@
CONST	SEGMENT
??_C@_04CFKFMLNB@?$FNrk?$FL?$AA@ DB ']rk[', 00H		; `string'
CONST	ENDS
;	COMDAT ??_C@_05CLDNIALB@?$FN?$CL?$CL?$CL?9?$AA@
CONST	SEGMENT
??_C@_05CLDNIALB@?$FN?$CL?$CL?$CL?9?$AA@ DB ']+++-', 00H ; `string'
CONST	ENDS
;	COMDAT ??_C@_0O@GPPBLPGF@?9?9?9?9Datarate?5?$AA@
CONST	SEGMENT
??_C@_0O@GPPBLPGF@?9?9?9?9Datarate?5?$AA@ DB '----Datarate ', 00H ; `string'
CONST	ENDS
;	COMDAT ??_C@_0L@IOLOEHIE@?9?9?9?9Epoch?5?$AA@
CONST	SEGMENT
??_C@_0L@IOLOEHIE@?9?9?9?9Epoch?5?$AA@ DB '----Epoch ', 00H ; `string'
CONST	ENDS
;	COMDAT ??_C@_0BD@NKGPPGBC@?9?9?9?9Command?5Line?3?5?$AA@
CONST	SEGMENT
??_C@_0BD@NKGPPGBC@?9?9?9?9Command?5Line?3?5?$AA@ DB '----Command Line: ', 00H ; `string'
CONST	ENDS
;	COMDAT ??_C@_04MOAEGBAM@?5ch?$FL?$AA@
CONST	SEGMENT
??_C@_04MOAEGBAM@?5ch?$FL?$AA@ DB ' ch[', 00H		; `string'
CONST	ENDS
;	COMDAT ??_C@_05ODBHKCDI@?$FN?5rk?$FL?$AA@
CONST	SEGMENT
??_C@_05ODBHKCDI@?$FN?5rk?$FL?$AA@ DB '] rk[', 00H	; `string'
CONST	ENDS
;	COMDAT ??_C@_05LDAOPFKH@?$FN?5bk?$FL?$AA@
CONST	SEGMENT
??_C@_05LDAOPFKH@?$FN?5bk?$FL?$AA@ DB '] bk[', 00H	; `string'
CONST	ENDS
;	COMDAT ??_C@_04NOGDJOAJ@?$FN?5?$FLx?$AA@
CONST	SEGMENT
??_C@_04NOGDJOAJ@?$FN?5?$FLx?$AA@ DB '] [x', 00H	; `string'
CONST	ENDS
;	COMDAT ??_C@_0L@FPCCCNFH@?$FN?5t_?$HLRAS?$HN?$FL?$AA@
CONST	SEGMENT
??_C@_0L@FPCCCNFH@?$FN?5t_?$HLRAS?$HN?$FL?$AA@ DB '] t_{RAS}[', 00H ; `string'
CONST	ENDS
;	COMDAT ??_C@_0L@JHKIPMGJ@?$FN?5t_?$HLCAS?$HN?$FL?$AA@
CONST	SEGMENT
??_C@_0L@JHKIPMGJ@?$FN?5t_?$HLCAS?$HN?$FL?$AA@ DB '] t_{CAS}[', 00H ; `string'
CONST	ENDS
;	COMDAT ??_C@_0L@OICMBBBB@?$FN?5t_?$HLRCD?$HN?$FL?$AA@
CONST	SEGMENT
??_C@_0L@OICMBBBB@?$FN?5t_?$HLRCD?$HN?$FL?$AA@ DB '] t_{RCD}[', 00H ; `string'
CONST	ENDS
;	COMDAT ??_C@_09IABIPHAA@?$FN?5t_?$HLRC?$HN?$FL?$AA@
CONST	SEGMENT
??_C@_09IABIPHAA@?$FN?5t_?$HLRC?$HN?$FL?$AA@ DB '] t_{RC}[', 00H ; `string'
CONST	ENDS
;	COMDAT ??_C@_06BOCDPGPG@?$FN?5AMP?$FL?$AA@
CONST	SEGMENT
??_C@_06BOCDPGPG@?$FN?5AMP?$FL?$AA@ DB '] AMP[', 00H	; `string'
CONST	ENDS
;	COMDAT ??_C@_06NDAOKEFK@?$FN?5COA?$FL?$AA@
CONST	SEGMENT
??_C@_06NDAOKEFK@?$FN?5COA?$FL?$AA@ DB '] COA[', 00H	; `string'
CONST	ENDS
;	COMDAT ??_C@_07KELLHHAH@?$FN?5RBMP?$FL?$AA@
CONST	SEGMENT
??_C@_07KELLHHAH@?$FN?5RBMP?$FL?$AA@ DB '] RBMP[', 00H	; `string'
CONST	ENDS
;	COMDAT ??_C@_05BNONNLFK@?$FN?5DR?$FL?$AA@
CONST	SEGMENT
??_C@_05BNONNLFK@?$FN?5DR?$FL?$AA@ DB '] DR[', 00H	; `string'
CONST	ENDS
;	COMDAT ??_C@_07FANEOFIO@M?$FN?5PBQ?$FL?$AA@
CONST	SEGMENT
??_C@_07FANEOFIO@M?$FN?5PBQ?$FL?$AA@ DB 'M] PBQ[', 00H	; `string'
CONST	ENDS
;	COMDAT ??_C@_0L@EIAHPKIN@?$FN?5t_?$HLFAW?$HN?$FL?$AA@
CONST	SEGMENT
??_C@_0L@EIAHPKIN@?$FN?5t_?$HLFAW?$HN?$FL?$AA@ DB '] t_{FAW}[', 00H ; `string'
CONST	ENDS
;	COMDAT ??_C@_02PBFOLPKM@?$FN?5?$AA@
CONST	SEGMENT
??_C@_02PBFOLPKM@?$FN?5?$AA@ DB '] ', 00H		; `string'
CONST	ENDS
;	COMDAT ??_C@_06CMDGPFCD@cache?$FL?$AA@
CONST	SEGMENT
??_C@_06CMDGPFCD@cache?$FL?$AA@ DB 'cache[', 00H	; `string'
CONST	ENDS
;	COMDAT ??_C@_04BHMCEHEJ@kB?$FN?5?$AA@
CONST	SEGMENT
??_C@_04BHMCEHEJ@kB?$FN?5?$AA@ DB 'kB] ', 00H		; `string'
CONST	ENDS
;	COMDAT ??_C@_06DGPPDNGF@blkSz?$FL?$AA@
CONST	SEGMENT
??_C@_06DGPPDNGF@blkSz?$FL?$AA@ DB 'blkSz[', 00H	; `string'
CONST	ENDS
;	COMDAT ??_C@_08NADJLLE@?$FN?5assoc?$FL?$AA@
CONST	SEGMENT
??_C@_08NADJLLE@?$FN?5assoc?$FL?$AA@ DB '] assoc[', 00H	; `string'
CONST	ENDS
;	COMDAT ??_C@_07KMICBNBC@?$FN?5sets?$FL?$AA@
CONST	SEGMENT
??_C@_07KMICBNBC@?$FN?5sets?$FL?$AA@ DB '] sets[', 00H	; `string'
__bad_alloc_Message DD FLAT:??_C@_0P@GHFPNOJB@bad?5allocation?$AA@
; Function compile flags: /Odtpy
;	COMDAT ??_9Channel@DRAMsimII@@$BBI@AE
_TEXT	SEGMENT
??_9Channel@DRAMsimII@@$BBI@AE PROC			; DRAMsimII::Channel::`vcall'{24}', COMDAT
	mov	eax, DWORD PTR [ecx]
	jmp	DWORD PTR [eax+24]
??_9Channel@DRAMsimII@@$BBI@AE ENDP			; DRAMsimII::Channel::`vcall'{24}'
; Function compile flags: /Ogtpy
; File c:\program files\microsoft visual studio 9.0\vc\include\vector
_TEXT	ENDS
;	COMDAT ?_Checked_iterator_base@?$_Vector_const_iterator@V?$vector@U?$pair@U?$pair@_K_K@std@@U12@@std@@V?$allocator@U?$pair@U?$pair@_K_K@std@@U12@@std@@@2@@std@@V?$allocator@V?$vector@U?$pair@U?$pair@_K_K@std@@U12@@std@@V?$allocator@U?$pair@U?$pair@_K_K@std@@U12@@std@@@2@@std@@@2@@std@@QBEPBV?$vector@U?$pair@U?$pair@_K_K@std@@U12@@std@@V?$allocator@U?$pair@U?$pair@_K_K@std@@U12@@std@@@2@@2@XZ
_TEXT	SEGMENT
?_Checked_iterator_base@?$_Vector_const_iterator@V?$vector@U?$pair@U?$pair@_K_K@std@@U12@@std@@V?$allocator@U?$pair@U?$pair@_K_K@std@@U12@@std@@@2@@std@@V?$allocator@V?$vector@U?$pair@U?$pair@_K_K@std@@U12@@std@@V?$allocator@U?$pair@U?$pair@_K_K@std@@U12@@std@@@2@@std@@@2@@std@@QBEPBV?$vector@U?$pair@U?$pair@_K_K@std@@U12@@std@@V?$allocator@U?$pair@U?$pair@_K_K@std@@U12@@std@@@2@@2@XZ PROC ; std::_Vector_const_iterator<std::vector<std::pair<std::pair<unsigned __int64,unsigned __int64>,std::pair<unsigned __int64,unsigned __int64> >,std::allocator<std::pair<std::pair<unsigned __int64,unsigned __int64>,std::pair<unsigned __int64,unsigned __int64> > > >,std::allocator<std::vector<std::pair<std::pair<unsigned __int64,unsigned __int64>,std::pair<unsigned __int64,unsigned __int64> >,std::allocator<std::pair<std::pair<unsigned __int64,unsigned __int64>,std::pair<unsigned __int64,unsigned __int64> > > > > >::_Checked_iterator_base, COMDAT
; _this$ = eax

; 47   : 		return _Myptr;

	mov	eax, DWORD PTR [eax+4]

; 48   : 	}

	ret	0
?_Checked_iterator_base@?$_Vector_const_iterator@V?$vector@U?$pair@U?$pair@_K_K@std@@U12@@std@@V?$allocator@U?$pair@U?$pair@_K_K@std@@U12@@std@@@2@@std@@V?$allocator@V?$vector@U?$pair@U?$pair@_K_K@std@@U12@@std@@V?$allocator@U?$pair@U?$pair@_K_K@std@@U12@@std@@@2@@std@@@2@@std@@QBEPBV?$vector@U?$pair@U?$pair@_K_K@std@@U12@@std@@V?$allocator@U?$pair@U?$pair@_K_K@std@@U12@@std@@@2@@2@XZ ENDP ; std::_Vector_const_iterator<std::vector<std::pair<std::pair<unsigned __int64,unsigned __int64>,std::pair<unsigned __int64,unsigned __int64> >,std::allocator<std::pair<std::pair<unsigned __int64,unsigned __int64>,std::pair<unsigned __int64,unsigned __int64> > > >,std::allocator<std::vector<std::pair<std::pair<unsigned __int64,unsigned __int64>,std::pair<unsigned __int64,unsigned __int64> >,std::allocator<std::pair<std::pair<unsigned __int64,unsigned __int64>,std::pair<unsigned __int64,unsigned __int64> > > > > >::_Checked_iterator_base
; Function compile flags: /Ogtpy
_TEXT	ENDS
;	COMDAT ?_Checked_iterator_base@?$_Vector_const_iterator@V?$vector@IV?$allocator@I@std@@@std@@V?$allocator@V?$vector@IV?$allocator@I@std@@@std@@@2@@std@@QBEPBV?$vector@IV?$allocator@I@std@@@2@XZ
_TEXT	SEGMENT
?_Checked_iterator_base@?$_Vector_const_iterator@V?$vector@IV?$allocator@I@std@@@std@@V?$allocator@V?$vector@IV?$allocator@I@std@@@std@@@2@@std@@QBEPBV?$vector@IV?$allocator@I@std@@@2@XZ PROC ; std::_Vector_const_iterator<std::vector<unsigned int,std::allocator<unsigned int> >,std::allocator<std::vector<unsigned int,std::allocator<unsigned int> > > >::_Checked_iterator_base, COMDAT
; _this$ = eax

; 47   : 		return _Myptr;

	mov	eax, DWORD PTR [eax+4]

; 48   : 	}

	ret	0
?_Checked_iterator_base@?$_Vector_const_iterator@V?$vector@IV?$allocator@I@std@@@std@@V?$allocator@V?$vector@IV?$allocator@I@std@@@std@@@2@@std@@QBEPBV?$vector@IV?$allocator@I@std@@@2@XZ ENDP ; std::_Vector_const_iterator<std::vector<unsigned int,std::allocator<unsigned int> >,std::allocator<std::vector<unsigned int,std::allocator<unsigned int> > > >::_Checked_iterator_base
; Function compile flags: /Ogtpy
_TEXT	ENDS
;	COMDAT ?_Checked_iterator_base@?$_Vector_const_iterator@V?$vector@U?$pair@II@std@@V?$allocator@U?$pair@II@std@@@2@@std@@V?$allocator@V?$vector@U?$pair@II@std@@V?$allocator@U?$pair@II@std@@@2@@std@@@2@@std@@QBEPBV?$vector@U?$pair@II@std@@V?$allocator@U?$pair@II@std@@@2@@2@XZ
_TEXT	SEGMENT
?_Checked_iterator_base@?$_Vector_const_iterator@V?$vector@U?$pair@II@std@@V?$allocator@U?$pair@II@std@@@2@@std@@V?$allocator@V?$vector@U?$pair@II@std@@V?$allocator@U?$pair@II@std@@@2@@std@@@2@@std@@QBEPBV?$vector@U?$pair@II@std@@V?$allocator@U?$pair@II@std@@@2@@2@XZ PROC ; std::_Vector_const_iterator<std::vector<std::pair<unsigned int,unsigned int>,std::allocator<std::pair<unsigned int,unsigned int> > >,std::allocator<std::vector<std::pair<unsigned int,unsigned int>,std::allocator<std::pair<unsigned int,unsigned int> > > > >::_Checked_iterator_base, COMDAT
; _this$ = eax

; 47   : 		return _Myptr;

	mov	eax, DWORD PTR [eax+4]

; 48   : 	}

	ret	0
?_Checked_iterator_base@?$_Vector_const_iterator@V?$vector@U?$pair@II@std@@V?$allocator@U?$pair@II@std@@@2@@std@@V?$allocator@V?$vector@U?$pair@II@std@@V?$allocator@U?$pair@II@std@@@2@@std@@@2@@std@@QBEPBV?$vector@U?$pair@II@std@@V?$allocator@U?$pair@II@std@@@2@@2@XZ ENDP ; std::_Vector_const_iterator<std::vector<std::pair<unsigned int,unsigned int>,std::allocator<std::pair<unsigned int,unsigned int> > >,std::allocator<std::vector<std::pair<unsigned int,unsigned int>,std::allocator<std::pair<unsigned int,unsigned int> > > > >::_Checked_iterator_base
; Function compile flags: /Ogtpy
; File c:\program files\microsoft visual studio 9.0\vc\include\xutility
_TEXT	ENDS
;	COMDAT ??$_Copy_backward_opt@PAU_List_position@?$_Hash@V?$_Umap_traits@IU?$pair@PAVTransaction@DRAMsimII@@PAV12@@std@@V?$_Hash_compare@IV?$hash@I@tr1@std@@U?$equal_to@I@3@@stdext@@V?$allocator@U?$pair@$$CBIU?$pair@PAVTransaction@DRAMsimII@@PAV12@@std@@@std@@@2@$0A@@tr1@std@@@stdext@@PAU123@Uforward_iterator_tag@std@@@std@@YAPAU_List_position@?$_Hash@V?$_Umap_traits@IU?$pair@PAVTransaction@DRAMsimII@@PAV12@@std@@V?$_Hash_compare@IV?$hash@I@tr1@std@@U?$equal_to@I@3@@stdext@@V?$allocator@U?$pair@$$CBIU?$pair@PAVTransaction@DRAMsimII@@PAV12@@std@@@std@@@2@$0A@@tr1@std@@@stdext@@PAU123@00Uforward_iterator_tag@0@U_Nonscalar_ptr_iterator_tag@0@U_Range_checked_iterator_tag@0@@Z
_TEXT	SEGMENT
__First$ = 8						; size = 4
___formal$ = 12						; size = 1
___formal$ = 16						; size = 1
___formal$ = 20						; size = 1
??$_Copy_backward_opt@PAU_List_position@?$_Hash@V?$_Umap_traits@IU?$pair@PAVTransaction@DRAMsimII@@PAV12@@std@@V?$_Hash_compare@IV?$hash@I@tr1@std@@U?$equal_to@I@3@@stdext@@V?$allocator@U?$pair@$$CBIU?$pair@PAVTransaction@DRAMsimII@@PAV12@@std@@@std@@@2@$0A@@tr1@std@@@stdext@@PAU123@Uforward_iterator_tag@std@@@std@@YAPAU_List_position@?$_Hash@V?$_Umap_traits@IU?$pair@PAVTransaction@DRAMsimII@@PAV12@@std@@V?$_Hash_compare@IV?$hash@I@tr1@std@@U?$equal_to@I@3@@stdext@@V?$allocator@U?$pair@$$CBIU?$pair@PAVTransaction@DRAMsimII@@PAV12@@std@@@std@@@2@$0A@@tr1@std@@@stdext@@PAU123@00Uforward_iterator_tag@0@U_Nonscalar_ptr_iterator_tag@0@U_Range_checked_iterator_tag@0@@Z PROC ; std::_Copy_backward_opt<stdext::_Hash<std::tr1::_Umap_traits<unsigned int,std::pair<DRAMsimII::Transaction *,DRAMsimII::Transaction *>,stdext::_Hash_compare<unsigned int,std::tr1::hash<unsigned int>,std::equal_to<unsigned int> >,std::allocator<std::pair<unsigned int const ,std::pair<DRAMsimII::Transaction *,DRAMsimII::Transaction *> > >,0> >::_List_position *,stdext::_Hash<std::tr1::_Umap_traits<unsigned int,std::pair<DRAMsimII::Transaction *,DRAMsimII::Transaction *>,stdext::_Hash_compare<unsigned int,std::tr1::hash<unsigned int>,std::equal_to<unsigned int> >,std::allocator<std::pair<unsigned int const ,std::pair<DRAMsimII::Transaction *,DRAMsimII::Transaction *> > >,0> >::_List_position *,std::forward_iterator_tag>, COMDAT
; __Last$ = ecx
; __Dest$ = eax

; 2673 : 	{	// copy [_First, _Last) backwards to [..., _Dest), arbitrary iterators

	mov	edx, DWORD PTR __First$[esp-4]

; 2674 : 	_DEBUG_RANGE(_First, _Last);
; 2675 : 	while (_First != _Last)

	cmp	edx, ecx
	je	SHORT $LN1@Copy_backw
	push	esi
	npad	7
$LL2@Copy_backw:

; 2676 : 		*--_Dest = *--_Last;

	mov	esi, DWORD PTR [ecx-8]
	sub	ecx, 8
	sub	eax, 8
	mov	DWORD PTR [eax], esi
	mov	esi, DWORD PTR [ecx+4]
	mov	DWORD PTR [eax+4], esi
	cmp	ecx, edx
	jne	SHORT $LL2@Copy_backw
	pop	esi
$LN1@Copy_backw:

; 2677 : 	return (_Dest);
; 2678 : 	}

	ret	0
??$_Copy_backward_opt@PAU_List_position@?$_Hash@V?$_Umap_traits@IU?$pair@PAVTransaction@DRAMsimII@@PAV12@@std@@V?$_Hash_compare@IV?$hash@I@tr1@std@@U?$equal_to@I@3@@stdext@@V?$allocator@U?$pair@$$CBIU?$pair@PAVTransaction@DRAMsimII@@PAV12@@std@@@std@@@2@$0A@@tr1@std@@@stdext@@PAU123@Uforward_iterator_tag@std@@@std@@YAPAU_List_position@?$_Hash@V?$_Umap_traits@IU?$pair@PAVTransaction@DRAMsimII@@PAV12@@std@@V?$_Hash_compare@IV?$hash@I@tr1@std@@U?$equal_to@I@3@@stdext@@V?$allocator@U?$pair@$$CBIU?$pair@PAVTransaction@DRAMsimII@@PAV12@@std@@@std@@@2@$0A@@tr1@std@@@stdext@@PAU123@00Uforward_iterator_tag@0@U_Nonscalar_ptr_iterator_tag@0@U_Range_checked_iterator_tag@0@@Z ENDP ; std::_Copy_backward_opt<stdext::_Hash<std::tr1::_Umap_traits<unsigned int,std::pair<DRAMsimII::Transaction *,DRAMsimII::Transaction *>,stdext::_Hash_compare<unsigned int,std::tr1::hash<unsigned int>,std::equal_to<unsigned int> >,std::allocator<std::pair<unsigned int const ,std::pair<DRAMsimII::Transaction *,DRAMsimII::Transaction *> > >,0> >::_List_position *,stdext::_Hash<std::tr1::_Umap_traits<unsigned int,std::pair<DRAMsimII::Transaction *,DRAMsimII::Transaction *>,stdext::_Hash_compare<unsigned int,std::tr1::hash<unsigned int>,std::equal_to<unsigned int> >,std::allocator<std::pair<unsigned int const ,std::pair<DRAMsimII::Transaction *,DRAMsimII::Transaction *> > >,0> >::_List_position *,std::forward_iterator_tag>
; Function compile flags: /Ogtpy
_TEXT	ENDS
;	COMDAT ??$_Checked_base@V?$_Vector_const_iterator@V?$vector@U?$pair@U?$pair@_K_K@std@@U12@@std@@V?$allocator@U?$pair@U?$pair@_K_K@std@@U12@@std@@@2@@std@@V?$allocator@V?$vector@U?$pair@U?$pair@_K_K@std@@U12@@std@@V?$allocator@U?$pair@U?$pair@_K_K@std@@U12@@std@@@2@@std@@@2@@std@@U_Different_checked_iterator_base_type_tag@2@@std@@YAPBV?$vector@U?$pair@U?$pair@_K_K@std@@U12@@std@@V?$allocator@U?$pair@U?$pair@_K_K@std@@U12@@std@@@2@@0@AAV?$_Vector_const_iterator@V?$vector@U?$pair@U?$pair@_K_K@std@@U12@@std@@V?$allocator@U?$pair@U?$pair@_K_K@std@@U12@@std@@@2@@std@@V?$allocator@V?$vector@U?$pair@U?$pair@_K_K@std@@U12@@std@@V?$allocator@U?$pair@U?$pair@_K_K@std@@U12@@std@@@2@@std@@@2@@0@U_Different_checked_iterator_base_type_tag@0@@Z
_TEXT	SEGMENT
___formal$ = 8						; size = 1
??$_Checked_base@V?$_Vector_const_iterator@V?$vector@U?$pair@U?$pair@_K_K@std@@U12@@std@@V?$allocator@U?$pair@U?$pair@_K_K@std@@U12@@std@@@2@@std@@V?$allocator@V?$vector@U?$pair@U?$pair@_K_K@std@@U12@@std@@V?$allocator@U?$pair@U?$pair@_K_K@std@@U12@@std@@@2@@std@@@2@@std@@U_Different_checked_iterator_base_type_tag@2@@std@@YAPBV?$vector@U?$pair@U?$pair@_K_K@std@@U12@@std@@V?$allocator@U?$pair@U?$pair@_K_K@std@@U12@@std@@@2@@0@AAV?$_Vector_const_iterator@V?$vector@U?$pair@U?$pair@_K_K@std@@U12@@std@@V?$allocator@U?$pair@U?$pair@_K_K@std@@U12@@std@@@2@@std@@V?$allocator@V?$vector@U?$pair@U?$pair@_K_K@std@@U12@@std@@V?$allocator@U?$pair@U?$pair@_K_K@std@@U12@@std@@@2@@std@@@2@@0@U_Different_checked_iterator_base_type_tag@0@@Z PROC ; std::_Checked_base<std::_Vector_const_iterator<std::vector<std::pair<std::pair<unsigned __int64,unsigned __int64>,std::pair<unsigned __int64,unsigned __int64> >,std::allocator<std::pair<std::pair<unsigned __int64,unsigned __int64>,std::pair<unsigned __int64,unsigned __int64> > > >,std::allocator<std::vector<std::pair<std::pair<unsigned __int64,unsigned __int64>,std::pair<unsigned __int64,unsigned __int64> >,std::allocator<std::pair<std::pair<unsigned __int64,unsigned __int64>,std::pair<unsigned __int64,unsigned __int64> > > > > >,std::_Different_checked_iterator_base_type_tag>, COMDAT
; __It$ = eax

; 1139 : 		return _It._Checked_iterator_base();

	mov	eax, DWORD PTR [eax+4]

; 1140 : 	}

	ret	0
??$_Checked_base@V?$_Vector_const_iterator@V?$vector@U?$pair@U?$pair@_K_K@std@@U12@@std@@V?$allocator@U?$pair@U?$pair@_K_K@std@@U12@@std@@@2@@std@@V?$allocator@V?$vector@U?$pair@U?$pair@_K_K@std@@U12@@std@@V?$allocator@U?$pair@U?$pair@_K_K@std@@U12@@std@@@2@@std@@@2@@std@@U_Different_checked_iterator_base_type_tag@2@@std@@YAPBV?$vector@U?$pair@U?$pair@_K_K@std@@U12@@std@@V?$allocator@U?$pair@U?$pair@_K_K@std@@U12@@std@@@2@@0@AAV?$_Vector_const_iterator@V?$vector@U?$pair@U?$pair@_K_K@std@@U12@@std@@V?$allocator@U?$pair@U?$pair@_K_K@std@@U12@@std@@@2@@std@@V?$allocator@V?$vector@U?$pair@U?$pair@_K_K@std@@U12@@std@@V?$allocator@U?$pair@U?$pair@_K_K@std@@U12@@std@@@2@@std@@@2@@0@U_Different_checked_iterator_base_type_tag@0@@Z ENDP ; std::_Checked_base<std::_Vector_const_iterator<std::vector<std::pair<std::pair<unsigned __int64,unsigned __int64>,std::pair<unsigned __int64,unsigned __int64> >,std::allocator<std::pair<std::pair<unsigned __int64,unsigned __int64>,std::pair<unsigned __int64,unsigned __int64> > > >,std::allocator<std::vector<std::pair<std::pair<unsigned __int64,unsigned __int64>,std::pair<unsigned __int64,unsigned __int64> >,std::allocator<std::pair<std::pair<unsigned __int64,unsigned __int64>,std::pair<unsigned __int64,unsigned __int64> > > > > >,std::_Different_checked_iterator_base_type_tag>
; Function compile flags: /Ogtpy
_TEXT	ENDS
;	COMDAT ??$_Checked_base@V?$_Vector_const_iterator@V?$vector@IV?$allocator@I@std@@@std@@V?$allocator@V?$vector@IV?$allocator@I@std@@@std@@@2@@std@@U_Different_checked_iterator_base_type_tag@2@@std@@YAPBV?$vector@IV?$allocator@I@std@@@0@AAV?$_Vector_const_iterator@V?$vector@IV?$allocator@I@std@@@std@@V?$allocator@V?$vector@IV?$allocator@I@std@@@std@@@2@@0@U_Different_checked_iterator_base_type_tag@0@@Z
_TEXT	SEGMENT
___formal$ = 8						; size = 1
??$_Checked_base@V?$_Vector_const_iterator@V?$vector@IV?$allocator@I@std@@@std@@V?$allocator@V?$vector@IV?$allocator@I@std@@@std@@@2@@std@@U_Different_checked_iterator_base_type_tag@2@@std@@YAPBV?$vector@IV?$allocator@I@std@@@0@AAV?$_Vector_const_iterator@V?$vector@IV?$allocator@I@std@@@std@@V?$allocator@V?$vector@IV?$allocator@I@std@@@std@@@2@@0@U_Different_checked_iterator_base_type_tag@0@@Z PROC ; std::_Checked_base<std::_Vector_const_iterator<std::vector<unsigned int,std::allocator<unsigned int> >,std::allocator<std::vector<unsigned int,std::allocator<unsigned int> > > >,std::_Different_checked_iterator_base_type_tag>, COMDAT
; __It$ = eax

; 1139 : 		return _It._Checked_iterator_base();

	mov	eax, DWORD PTR [eax+4]

; 1140 : 	}

	ret	0
??$_Checked_base@V?$_Vector_const_iterator@V?$vector@IV?$allocator@I@std@@@std@@V?$allocator@V?$vector@IV?$allocator@I@std@@@std@@@2@@std@@U_Different_checked_iterator_base_type_tag@2@@std@@YAPBV?$vector@IV?$allocator@I@std@@@0@AAV?$_Vector_const_iterator@V?$vector@IV?$allocator@I@std@@@std@@V?$allocator@V?$vector@IV?$allocator@I@std@@@std@@@2@@0@U_Different_checked_iterator_base_type_tag@0@@Z ENDP ; std::_Checked_base<std::_Vector_const_iterator<std::vector<unsigned int,std::allocator<unsigned int> >,std::allocator<std::vector<unsigned int,std::allocator<unsigned int> > > >,std::_Different_checked_iterator_base_type_tag>
; Function compile flags: /Ogtpy
_TEXT	ENDS
;	COMDAT ??$_Checked_base@V?$_Vector_const_iterator@V?$vector@U?$pair@II@std@@V?$allocator@U?$pair@II@std@@@2@@std@@V?$allocator@V?$vector@U?$pair@II@std@@V?$allocator@U?$pair@II@std@@@2@@std@@@2@@std@@U_Different_checked_iterator_base_type_tag@2@@std@@YAPBV?$vector@U?$pair@II@std@@V?$allocator@U?$pair@II@std@@@2@@0@AAV?$_Vector_const_iterator@V?$vector@U?$pair@II@std@@V?$allocator@U?$pair@II@std@@@2@@std@@V?$allocator@V?$vector@U?$pair@II@std@@V?$allocator@U?$pair@II@std@@@2@@std@@@2@@0@U_Different_checked_iterator_base_type_tag@0@@Z
_TEXT	SEGMENT
___formal$ = 8						; size = 1
??$_Checked_base@V?$_Vector_const_iterator@V?$vector@U?$pair@II@std@@V?$allocator@U?$pair@II@std@@@2@@std@@V?$allocator@V?$vector@U?$pair@II@std@@V?$allocator@U?$pair@II@std@@@2@@std@@@2@@std@@U_Different_checked_iterator_base_type_tag@2@@std@@YAPBV?$vector@U?$pair@II@std@@V?$allocator@U?$pair@II@std@@@2@@0@AAV?$_Vector_const_iterator@V?$vector@U?$pair@II@std@@V?$allocator@U?$pair@II@std@@@2@@std@@V?$allocator@V?$vector@U?$pair@II@std@@V?$allocator@U?$pair@II@std@@@2@@std@@@2@@0@U_Different_checked_iterator_base_type_tag@0@@Z PROC ; std::_Checked_base<std::_Vector_const_iterator<std::vector<std::pair<unsigned int,unsigned int>,std::allocator<std::pair<unsigned int,unsigned int> > >,std::allocator<std::vector<std::pair<unsigned int,unsigned int>,std::allocator<std::pair<unsigned int,unsigned int> > > > >,std::_Different_checked_iterator_base_type_tag>, COMDAT
; __It$ = eax

; 1139 : 		return _It._Checked_iterator_base();

	mov	eax, DWORD PTR [eax+4]

; 1140 : 	}

	ret	0
??$_Checked_base@V?$_Vector_const_iterator@V?$vector@U?$pair@II@std@@V?$allocator@U?$pair@II@std@@@2@@std@@V?$allocator@V?$vector@U?$pair@II@std@@V?$allocator@U?$pair@II@std@@@2@@std@@@2@@std@@U_Different_checked_iterator_base_type_tag@2@@std@@YAPBV?$vector@U?$pair@II@std@@V?$allocator@U?$pair@II@std@@@2@@0@AAV?$_Vector_const_iterator@V?$vector@U?$pair@II@std@@V?$allocator@U?$pair@II@std@@@2@@std@@V?$allocator@V?$vector@U?$pair@II@std@@V?$allocator@U?$pair@II@std@@@2@@std@@@2@@0@U_Different_checked_iterator_base_type_tag@0@@Z ENDP ; std::_Checked_base<std::_Vector_const_iterator<std::vector<std::pair<unsigned int,unsigned int>,std::allocator<std::pair<unsigned int,unsigned int> > >,std::allocator<std::vector<std::pair<unsigned int,unsigned int>,std::allocator<std::pair<unsigned int,unsigned int> > > > >,std::_Different_checked_iterator_base_type_tag>
; Function compile flags: /Ogtpy
; File c:\program files\microsoft visual studio 9.0\vc\include\vector
_TEXT	ENDS
