; Listing generated by Microsoft (R) Optimizing Compiler Version 15.00.30729.01 

	TITLE	c:\Users\CriuS\Documents\Visual Studio 2008\Projects\DRAMsimIIhg\src\SystemConfiguration.cpp
	.686P
	.XMM
	include listing.inc
	.model	flat

INCLUDELIB OLDNAMES

PUBLIC	??_R4?$indirect_streambuf@U?$basic_file_sink@D@iostreams@boost@@U?$char_traits@D@std@@V?$allocator@D@5@Uoutput@23@@detail@iostreams@boost@@6B@ ; boost::iostreams::detail::indirect_streambuf<boost::iostreams::basic_file_sink<char>,std::char_traits<char>,std::allocator<char>,boost::iostreams::output>::`RTTI Complete Object Locator'
PUBLIC	??_R4?$stream_buffer@U?$basic_file_sink@D@iostreams@boost@@U?$char_traits@D@std@@V?$allocator@D@5@Uoutput@23@@iostreams@boost@@6B@ ; boost::iostreams::stream_buffer<boost::iostreams::basic_file_sink<char>,std::char_traits<char>,std::allocator<char>,boost::iostreams::output>::`RTTI Complete Object Locator'
PUBLIC	??_R3?$stream_buffer@U?$basic_file_sink@D@iostreams@boost@@U?$char_traits@D@std@@V?$allocator@D@5@Uoutput@23@@iostreams@boost@@8 ; boost::iostreams::stream_buffer<boost::iostreams::basic_file_sink<char>,std::char_traits<char>,std::allocator<char>,boost::iostreams::output>::`RTTI Class Hierarchy Descriptor'
PUBLIC	??_R2?$stream_buffer@U?$basic_file_sink@D@iostreams@boost@@U?$char_traits@D@std@@V?$allocator@D@5@Uoutput@23@@iostreams@boost@@8 ; boost::iostreams::stream_buffer<boost::iostreams::basic_file_sink<char>,std::char_traits<char>,std::allocator<char>,boost::iostreams::output>::`RTTI Base Class Array'
PUBLIC	??_R1A@?0A@EA@?$indirect_streambuf@U?$basic_file_sink@D@iostreams@boost@@U?$char_traits@D@std@@V?$allocator@D@5@Uoutput@23@@detail@iostreams@boost@@8 ; boost::iostreams::detail::indirect_streambuf<boost::iostreams::basic_file_sink<char>,std::char_traits<char>,std::allocator<char>,boost::iostreams::output>::`RTTI Base Class Descriptor at (0,-1,0,64)'
PUBLIC	??_R3?$indirect_streambuf@U?$basic_file_sink@D@iostreams@boost@@U?$char_traits@D@std@@V?$allocator@D@5@Uoutput@23@@detail@iostreams@boost@@8 ; boost::iostreams::detail::indirect_streambuf<boost::iostreams::basic_file_sink<char>,std::char_traits<char>,std::allocator<char>,boost::iostreams::output>::`RTTI Class Hierarchy Descriptor'
PUBLIC	??_R2?$indirect_streambuf@U?$basic_file_sink@D@iostreams@boost@@U?$char_traits@D@std@@V?$allocator@D@5@Uoutput@23@@detail@iostreams@boost@@8 ; boost::iostreams::detail::indirect_streambuf<boost::iostreams::basic_file_sink<char>,std::char_traits<char>,std::allocator<char>,boost::iostreams::output>::`RTTI Base Class Array'
PUBLIC	??_R0?AV?$indirect_streambuf@U?$basic_file_sink@D@iostreams@boost@@U?$char_traits@D@std@@V?$allocator@D@5@Uoutput@23@@detail@iostreams@boost@@@8 ; boost::iostreams::detail::indirect_streambuf<boost::iostreams::basic_file_sink<char>,std::char_traits<char>,std::allocator<char>,boost::iostreams::output> `RTTI Type Descriptor'
PUBLIC	??_R1A@?0A@EA@?$stream_buffer@U?$basic_file_sink@D@iostreams@boost@@U?$char_traits@D@std@@V?$allocator@D@5@Uoutput@23@@iostreams@boost@@8 ; boost::iostreams::stream_buffer<boost::iostreams::basic_file_sink<char>,std::char_traits<char>,std::allocator<char>,boost::iostreams::output>::`RTTI Base Class Descriptor at (0,-1,0,64)'
PUBLIC	??_R0?AV?$stream_buffer@U?$basic_file_sink@D@iostreams@boost@@U?$char_traits@D@std@@V?$allocator@D@5@Uoutput@23@@iostreams@boost@@@8 ; boost::iostreams::stream_buffer<boost::iostreams::basic_file_sink<char>,std::char_traits<char>,std::allocator<char>,boost::iostreams::output> `RTTI Type Descriptor'
PUBLIC	??_R4?$indirect_streambuf@U?$basic_null_sink@D@iostreams@boost@@U?$char_traits@D@std@@V?$allocator@D@5@Uoutput@23@@detail@iostreams@boost@@6B@ ; boost::iostreams::detail::indirect_streambuf<boost::iostreams::basic_null_sink<char>,std::char_traits<char>,std::allocator<char>,boost::iostreams::output>::`RTTI Complete Object Locator'
PUBLIC	??_R4?$stream_buffer@U?$basic_null_sink@D@iostreams@boost@@U?$char_traits@D@std@@V?$allocator@D@5@Uoutput@23@@iostreams@boost@@6B@ ; boost::iostreams::stream_buffer<boost::iostreams::basic_null_sink<char>,std::char_traits<char>,std::allocator<char>,boost::iostreams::output>::`RTTI Complete Object Locator'
PUBLIC	??_R3?$stream_buffer@U?$basic_null_sink@D@iostreams@boost@@U?$char_traits@D@std@@V?$allocator@D@5@Uoutput@23@@iostreams@boost@@8 ; boost::iostreams::stream_buffer<boost::iostreams::basic_null_sink<char>,std::char_traits<char>,std::allocator<char>,boost::iostreams::output>::`RTTI Class Hierarchy Descriptor'
PUBLIC	??_R2?$stream_buffer@U?$basic_null_sink@D@iostreams@boost@@U?$char_traits@D@std@@V?$allocator@D@5@Uoutput@23@@iostreams@boost@@8 ; boost::iostreams::stream_buffer<boost::iostreams::basic_null_sink<char>,std::char_traits<char>,std::allocator<char>,boost::iostreams::output>::`RTTI Base Class Array'
PUBLIC	??_R1A@?0A@EA@?$indirect_streambuf@U?$basic_null_sink@D@iostreams@boost@@U?$char_traits@D@std@@V?$allocator@D@5@Uoutput@23@@detail@iostreams@boost@@8 ; boost::iostreams::detail::indirect_streambuf<boost::iostreams::basic_null_sink<char>,std::char_traits<char>,std::allocator<char>,boost::iostreams::output>::`RTTI Base Class Descriptor at (0,-1,0,64)'
PUBLIC	??_R3?$indirect_streambuf@U?$basic_null_sink@D@iostreams@boost@@U?$char_traits@D@std@@V?$allocator@D@5@Uoutput@23@@detail@iostreams@boost@@8 ; boost::iostreams::detail::indirect_streambuf<boost::iostreams::basic_null_sink<char>,std::char_traits<char>,std::allocator<char>,boost::iostreams::output>::`RTTI Class Hierarchy Descriptor'
PUBLIC	??_R2?$indirect_streambuf@U?$basic_null_sink@D@iostreams@boost@@U?$char_traits@D@std@@V?$allocator@D@5@Uoutput@23@@detail@iostreams@boost@@8 ; boost::iostreams::detail::indirect_streambuf<boost::iostreams::basic_null_sink<char>,std::char_traits<char>,std::allocator<char>,boost::iostreams::output>::`RTTI Base Class Array'
PUBLIC	??_R0?AV?$indirect_streambuf@U?$basic_null_sink@D@iostreams@boost@@U?$char_traits@D@std@@V?$allocator@D@5@Uoutput@23@@detail@iostreams@boost@@@8 ; boost::iostreams::detail::indirect_streambuf<boost::iostreams::basic_null_sink<char>,std::char_traits<char>,std::allocator<char>,boost::iostreams::output> `RTTI Type Descriptor'
PUBLIC	??_R1A@?0A@EA@?$stream_buffer@U?$basic_null_sink@D@iostreams@boost@@U?$char_traits@D@std@@V?$allocator@D@5@Uoutput@23@@iostreams@boost@@8 ; boost::iostreams::stream_buffer<boost::iostreams::basic_null_sink<char>,std::char_traits<char>,std::allocator<char>,boost::iostreams::output>::`RTTI Base Class Descriptor at (0,-1,0,64)'
PUBLIC	??_R0?AV?$stream_buffer@U?$basic_null_sink@D@iostreams@boost@@U?$char_traits@D@std@@V?$allocator@D@5@Uoutput@23@@iostreams@boost@@@8 ; boost::iostreams::stream_buffer<boost::iostreams::basic_null_sink<char>,std::char_traits<char>,std::allocator<char>,boost::iostreams::output> `RTTI Type Descriptor'
PUBLIC	??_R4?$indirect_streambuf@V?$mode_adapter@Uoutput@iostreams@boost@@V?$basic_ostream@DU?$char_traits@D@std@@@std@@@detail@iostreams@boost@@U?$char_traits@D@std@@V?$allocator@D@6@Uoutput@34@@detail@iostreams@boost@@6B@ ; boost::iostreams::detail::indirect_streambuf<boost::iostreams::detail::mode_adapter<boost::iostreams::output,std::basic_ostream<char,std::char_traits<char> > >,std::char_traits<char>,std::allocator<char>,boost::iostreams::output>::`RTTI Complete Object Locator'
PUBLIC	??_R4?$stream_buffer@V?$mode_adapter@Uoutput@iostreams@boost@@V?$basic_ostream@DU?$char_traits@D@std@@@std@@@detail@iostreams@boost@@U?$char_traits@D@std@@V?$allocator@D@6@Uoutput@34@@iostreams@boost@@6B@ ; boost::iostreams::stream_buffer<boost::iostreams::detail::mode_adapter<boost::iostreams::output,std::basic_ostream<char,std::char_traits<char> > >,std::char_traits<char>,std::allocator<char>,boost::iostreams::output>::`RTTI Complete Object Locator'
PUBLIC	??_R3?$stream_buffer@V?$mode_adapter@Uoutput@iostreams@boost@@V?$basic_ostream@DU?$char_traits@D@std@@@std@@@detail@iostreams@boost@@U?$char_traits@D@std@@V?$allocator@D@6@Uoutput@34@@iostreams@boost@@8 ; boost::iostreams::stream_buffer<boost::iostreams::detail::mode_adapter<boost::iostreams::output,std::basic_ostream<char,std::char_traits<char> > >,std::char_traits<char>,std::allocator<char>,boost::iostreams::output>::`RTTI Class Hierarchy Descriptor'
PUBLIC	??_R2?$stream_buffer@V?$mode_adapter@Uoutput@iostreams@boost@@V?$basic_ostream@DU?$char_traits@D@std@@@std@@@detail@iostreams@boost@@U?$char_traits@D@std@@V?$allocator@D@6@Uoutput@34@@iostreams@boost@@8 ; boost::iostreams::stream_buffer<boost::iostreams::detail::mode_adapter<boost::iostreams::output,std::basic_ostream<char,std::char_traits<char> > >,std::char_traits<char>,std::allocator<char>,boost::iostreams::output>::`RTTI Base Class Array'
PUBLIC	??_R1A@?0A@EA@?$indirect_streambuf@V?$mode_adapter@Uoutput@iostreams@boost@@V?$basic_ostream@DU?$char_traits@D@std@@@std@@@detail@iostreams@boost@@U?$char_traits@D@std@@V?$allocator@D@6@Uoutput@34@@detail@iostreams@boost@@8 ; boost::iostreams::detail::indirect_streambuf<boost::iostreams::detail::mode_adapter<boost::iostreams::output,std::basic_ostream<char,std::char_traits<char> > >,std::char_traits<char>,std::allocator<char>,boost::iostreams::output>::`RTTI Base Class Descriptor at (0,-1,0,64)'
PUBLIC	??_R3?$indirect_streambuf@V?$mode_adapter@Uoutput@iostreams@boost@@V?$basic_ostream@DU?$char_traits@D@std@@@std@@@detail@iostreams@boost@@U?$char_traits@D@std@@V?$allocator@D@6@Uoutput@34@@detail@iostreams@boost@@8 ; boost::iostreams::detail::indirect_streambuf<boost::iostreams::detail::mode_adapter<boost::iostreams::output,std::basic_ostream<char,std::char_traits<char> > >,std::char_traits<char>,std::allocator<char>,boost::iostreams::output>::`RTTI Class Hierarchy Descriptor'
PUBLIC	??_R2?$indirect_streambuf@V?$mode_adapter@Uoutput@iostreams@boost@@V?$basic_ostream@DU?$char_traits@D@std@@@std@@@detail@iostreams@boost@@U?$char_traits@D@std@@V?$allocator@D@6@Uoutput@34@@detail@iostreams@boost@@8 ; boost::iostreams::detail::indirect_streambuf<boost::iostreams::detail::mode_adapter<boost::iostreams::output,std::basic_ostream<char,std::char_traits<char> > >,std::char_traits<char>,std::allocator<char>,boost::iostreams::output>::`RTTI Base Class Array'
PUBLIC	??_R0?AV?$indirect_streambuf@V?$mode_adapter@Uoutput@iostreams@boost@@V?$basic_ostream@DU?$char_traits@D@std@@@std@@@detail@iostreams@boost@@U?$char_traits@D@std@@V?$allocator@D@6@Uoutput@34@@detail@iostreams@boost@@@8 ; boost::iostreams::detail::indirect_streambuf<boost::iostreams::detail::mode_adapter<boost::iostreams::output,std::basic_ostream<char,std::char_traits<char> > >,std::char_traits<char>,std::allocator<char>,boost::iostreams::output> `RTTI Type Descriptor'
PUBLIC	??_R1A@?0A@EA@?$stream_buffer@V?$mode_adapter@Uoutput@iostreams@boost@@V?$basic_ostream@DU?$char_traits@D@std@@@std@@@detail@iostreams@boost@@U?$char_traits@D@std@@V?$allocator@D@6@Uoutput@34@@iostreams@boost@@8 ; boost::iostreams::stream_buffer<boost::iostreams::detail::mode_adapter<boost::iostreams::output,std::basic_ostream<char,std::char_traits<char> > >,std::char_traits<char>,std::allocator<char>,boost::iostreams::output>::`RTTI Base Class Descriptor at (0,-1,0,64)'
PUBLIC	??_R0?AV?$stream_buffer@V?$mode_adapter@Uoutput@iostreams@boost@@V?$basic_ostream@DU?$char_traits@D@std@@@std@@@detail@iostreams@boost@@U?$char_traits@D@std@@V?$allocator@D@6@Uoutput@34@@iostreams@boost@@@8 ; boost::iostreams::stream_buffer<boost::iostreams::detail::mode_adapter<boost::iostreams::output,std::basic_ostream<char,std::char_traits<char> > >,std::char_traits<char>,std::allocator<char>,boost::iostreams::output> `RTTI Type Descriptor'
PUBLIC	??_R4?$indirect_streambuf@V?$basic_null_device@DUoutput@iostreams@boost@@@iostreams@boost@@U?$char_traits@D@std@@V?$allocator@D@5@Uoutput@23@@detail@iostreams@boost@@6B@ ; boost::iostreams::detail::indirect_streambuf<boost::iostreams::basic_null_device<char,boost::iostreams::output>,std::char_traits<char>,std::allocator<char>,boost::iostreams::output>::`RTTI Complete Object Locator'
PUBLIC	??_R4?$stream_buffer@V?$basic_null_device@DUoutput@iostreams@boost@@@iostreams@boost@@U?$char_traits@D@std@@V?$allocator@D@5@Uoutput@23@@iostreams@boost@@6B@ ; boost::iostreams::stream_buffer<boost::iostreams::basic_null_device<char,boost::iostreams::output>,std::char_traits<char>,std::allocator<char>,boost::iostreams::output>::`RTTI Complete Object Locator'
PUBLIC	??_R3?$stream_buffer@V?$basic_null_device@DUoutput@iostreams@boost@@@iostreams@boost@@U?$char_traits@D@std@@V?$allocator@D@5@Uoutput@23@@iostreams@boost@@8 ; boost::iostreams::stream_buffer<boost::iostreams::basic_null_device<char,boost::iostreams::output>,std::char_traits<char>,std::allocator<char>,boost::iostreams::output>::`RTTI Class Hierarchy Descriptor'
PUBLIC	??_R2?$stream_buffer@V?$basic_null_device@DUoutput@iostreams@boost@@@iostreams@boost@@U?$char_traits@D@std@@V?$allocator@D@5@Uoutput@23@@iostreams@boost@@8 ; boost::iostreams::stream_buffer<boost::iostreams::basic_null_device<char,boost::iostreams::output>,std::char_traits<char>,std::allocator<char>,boost::iostreams::output>::`RTTI Base Class Array'
PUBLIC	??_R1A@?0A@EA@?$indirect_streambuf@V?$basic_null_device@DUoutput@iostreams@boost@@@iostreams@boost@@U?$char_traits@D@std@@V?$allocator@D@5@Uoutput@23@@detail@iostreams@boost@@8 ; boost::iostreams::detail::indirect_streambuf<boost::iostreams::basic_null_device<char,boost::iostreams::output>,std::char_traits<char>,std::allocator<char>,boost::iostreams::output>::`RTTI Base Class Descriptor at (0,-1,0,64)'
PUBLIC	??_R3?$indirect_streambuf@V?$basic_null_device@DUoutput@iostreams@boost@@@iostreams@boost@@U?$char_traits@D@std@@V?$allocator@D@5@Uoutput@23@@detail@iostreams@boost@@8 ; boost::iostreams::detail::indirect_streambuf<boost::iostreams::basic_null_device<char,boost::iostreams::output>,std::char_traits<char>,std::allocator<char>,boost::iostreams::output>::`RTTI Class Hierarchy Descriptor'
PUBLIC	??_R2?$indirect_streambuf@V?$basic_null_device@DUoutput@iostreams@boost@@@iostreams@boost@@U?$char_traits@D@std@@V?$allocator@D@5@Uoutput@23@@detail@iostreams@boost@@8 ; boost::iostreams::detail::indirect_streambuf<boost::iostreams::basic_null_device<char,boost::iostreams::output>,std::char_traits<char>,std::allocator<char>,boost::iostreams::output>::`RTTI Base Class Array'
PUBLIC	??_R0?AV?$indirect_streambuf@V?$basic_null_device@DUoutput@iostreams@boost@@@iostreams@boost@@U?$char_traits@D@std@@V?$allocator@D@5@Uoutput@23@@detail@iostreams@boost@@@8 ; boost::iostreams::detail::indirect_streambuf<boost::iostreams::basic_null_device<char,boost::iostreams::output>,std::char_traits<char>,std::allocator<char>,boost::iostreams::output> `RTTI Type Descriptor'
PUBLIC	??_R1A@?0A@EA@?$stream_buffer@V?$basic_null_device@DUoutput@iostreams@boost@@@iostreams@boost@@U?$char_traits@D@std@@V?$allocator@D@5@Uoutput@23@@iostreams@boost@@8 ; boost::iostreams::stream_buffer<boost::iostreams::basic_null_device<char,boost::iostreams::output>,std::char_traits<char>,std::allocator<char>,boost::iostreams::output>::`RTTI Base Class Descriptor at (0,-1,0,64)'
PUBLIC	??_R0?AV?$stream_buffer@V?$basic_null_device@DUoutput@iostreams@boost@@@iostreams@boost@@U?$char_traits@D@std@@V?$allocator@D@5@Uoutput@23@@iostreams@boost@@@8 ; boost::iostreams::stream_buffer<boost::iostreams::basic_null_device<char,boost::iostreams::output>,std::char_traits<char>,std::allocator<char>,boost::iostreams::output> `RTTI Type Descriptor'
PUBLIC	??_R4?$sp_counted_impl_p@Uchain_impl@?$chain_base@V?$chain@Uoutput@iostreams@boost@@DU?$char_traits@D@std@@V?$allocator@D@5@@iostreams@boost@@DU?$char_traits@D@std@@V?$allocator@D@5@Uoutput@23@@detail@iostreams@boost@@@detail@boost@@6B@ ; boost::detail::sp_counted_impl_p<boost::iostreams::detail::chain_base<boost::iostreams::chain<boost::iostreams::output,char,std::char_traits<char>,std::allocator<char> >,char,std::char_traits<char>,std::allocator<char>,boost::iostreams::output>::chain_impl>::`RTTI Complete Object Locator'
PUBLIC	??_R3?$sp_counted_impl_p@Uchain_impl@?$chain_base@V?$chain@Uoutput@iostreams@boost@@DU?$char_traits@D@std@@V?$allocator@D@5@@iostreams@boost@@DU?$char_traits@D@std@@V?$allocator@D@5@Uoutput@23@@detail@iostreams@boost@@@detail@boost@@8 ; boost::detail::sp_counted_impl_p<boost::iostreams::detail::chain_base<boost::iostreams::chain<boost::iostreams::output,char,std::char_traits<char>,std::allocator<char> >,char,std::char_traits<char>,std::allocator<char>,boost::iostreams::output>::chain_impl>::`RTTI Class Hierarchy Descriptor'
PUBLIC	??_R2?$sp_counted_impl_p@Uchain_impl@?$chain_base@V?$chain@Uoutput@iostreams@boost@@DU?$char_traits@D@std@@V?$allocator@D@5@@iostreams@boost@@DU?$char_traits@D@std@@V?$allocator@D@5@Uoutput@23@@detail@iostreams@boost@@@detail@boost@@8 ; boost::detail::sp_counted_impl_p<boost::iostreams::detail::chain_base<boost::iostreams::chain<boost::iostreams::output,char,std::char_traits<char>,std::allocator<char> >,char,std::char_traits<char>,std::allocator<char>,boost::iostreams::output>::chain_impl>::`RTTI Base Class Array'
PUBLIC	??_R1A@?0A@EA@?$sp_counted_impl_p@Uchain_impl@?$chain_base@V?$chain@Uoutput@iostreams@boost@@DU?$char_traits@D@std@@V?$allocator@D@5@@iostreams@boost@@DU?$char_traits@D@std@@V?$allocator@D@5@Uoutput@23@@detail@iostreams@boost@@@detail@boost@@8 ; boost::detail::sp_counted_impl_p<boost::iostreams::detail::chain_base<boost::iostreams::chain<boost::iostreams::output,char,std::char_traits<char>,std::allocator<char> >,char,std::char_traits<char>,std::allocator<char>,boost::iostreams::output>::chain_impl>::`RTTI Base Class Descriptor at (0,-1,0,64)'
PUBLIC	??_R0?AV?$sp_counted_impl_p@Uchain_impl@?$chain_base@V?$chain@Uoutput@iostreams@boost@@DU?$char_traits@D@std@@V?$allocator@D@5@@iostreams@boost@@DU?$char_traits@D@std@@V?$allocator@D@5@Uoutput@23@@detail@iostreams@boost@@@detail@boost@@@8 ; boost::detail::sp_counted_impl_p<boost::iostreams::detail::chain_base<boost::iostreams::chain<boost::iostreams::output,char,std::char_traits<char>,std::allocator<char> >,char,std::char_traits<char>,std::allocator<char>,boost::iostreams::output>::chain_impl> `RTTI Type Descriptor'
PUBLIC	??_R4?$access_control@V?$chain_client@V?$chain@Uoutput@iostreams@boost@@DU?$char_traits@D@std@@V?$allocator@D@5@@iostreams@boost@@@detail@iostreams@boost@@Upublic_@34@U?$pub_@V?$chain_client@V?$chain@Uoutput@iostreams@boost@@DU?$char_traits@D@std@@V?$allocator@D@5@@iostreams@boost@@@detail@iostreams@boost@@@234@@iostreams@boost@@6B@ ; boost::iostreams::access_control<boost::iostreams::detail::chain_client<boost::iostreams::chain<boost::iostreams::output,char,std::char_traits<char>,std::allocator<char> > >,boost::iostreams::public_,boost::iostreams::detail::pub_<boost::iostreams::detail::chain_client<boost::iostreams::chain<boost::iostreams::output,char,std::char_traits<char>,std::allocator<char> > > > >::`RTTI Complete Object Locator'
PUBLIC	??_R4?$pub_@V?$chain_client@V?$chain@Uoutput@iostreams@boost@@DU?$char_traits@D@std@@V?$allocator@D@5@@iostreams@boost@@@detail@iostreams@boost@@@detail@iostreams@boost@@6B@ ; boost::iostreams::detail::pub_<boost::iostreams::detail::chain_client<boost::iostreams::chain<boost::iostreams::output,char,std::char_traits<char>,std::allocator<char> > > >::`RTTI Complete Object Locator'
PUBLIC	??_R4?$chain_client@V?$chain@Uoutput@iostreams@boost@@DU?$char_traits@D@std@@V?$allocator@D@5@@iostreams@boost@@@detail@iostreams@boost@@6B@ ; boost::iostreams::detail::chain_client<boost::iostreams::chain<boost::iostreams::output,char,std::char_traits<char>,std::allocator<char> > >::`RTTI Complete Object Locator'
PUBLIC	??_R4?$filtering_stream_base@V?$chain@Uoutput@iostreams@boost@@DU?$char_traits@D@std@@V?$allocator@D@5@@iostreams@boost@@Upublic_@23@@detail@iostreams@boost@@6B?$basic_ostream@DU?$char_traits@D@std@@@std@@@ ; boost::iostreams::detail::filtering_stream_base<boost::iostreams::chain<boost::iostreams::output,char,std::char_traits<char>,std::allocator<char> >,boost::iostreams::public_>::`RTTI Complete Object Locator'
PUBLIC	??_R4?$filtering_stream_base@V?$chain@Uoutput@iostreams@boost@@DU?$char_traits@D@std@@V?$allocator@D@5@@iostreams@boost@@Upublic_@23@@detail@iostreams@boost@@6B?$access_control@V?$chain_client@V?$chain@Uoutput@iostreams@boost@@DU?$char_traits@D@std@@V?$allocator@D@5@@iostreams@boost@@@detail@iostreams@boost@@Upublic_@34@U?$pub_@V?$chain_client@V?$chain@Uoutput@iostreams@boost@@DU?$char_traits@D@std@@V?$allocator@D@5@@iostreams@boost@@@detail@iostreams@boost@@@234@@23@@ ; boost::iostreams::detail::filtering_stream_base<boost::iostreams::chain<boost::iostreams::output,char,std::char_traits<char>,std::allocator<char> >,boost::iostreams::public_>::`RTTI Complete Object Locator'
PUBLIC	??_R4?$filtering_stream@Uoutput@iostreams@boost@@DU?$char_traits@D@std@@V?$allocator@D@5@Upublic_@23@@iostreams@boost@@6B?$basic_ostream@DU?$char_traits@D@std@@@std@@@ ; boost::iostreams::filtering_stream<boost::iostreams::output,char,std::char_traits<char>,std::allocator<char>,boost::iostreams::public_>::`RTTI Complete Object Locator'
PUBLIC	??_R4?$filtering_stream@Uoutput@iostreams@boost@@DU?$char_traits@D@std@@V?$allocator@D@5@Upublic_@23@@iostreams@boost@@6B?$access_control@V?$chain_client@V?$chain@Uoutput@iostreams@boost@@DU?$char_traits@D@std@@V?$allocator@D@5@@iostreams@boost@@@detail@iostreams@boost@@Upublic_@34@U?$pub_@V?$chain_client@V?$chain@Uoutput@iostreams@boost@@DU?$char_traits@D@std@@V?$allocator@D@5@@iostreams@boost@@@detail@iostreams@boost@@@234@@12@@ ; boost::iostreams::filtering_stream<boost::iostreams::output,char,std::char_traits<char>,std::allocator<char>,boost::iostreams::public_>::`RTTI Complete Object Locator'
PUBLIC	??_R3?$filtering_stream@Uoutput@iostreams@boost@@DU?$char_traits@D@std@@V?$allocator@D@5@Upublic_@23@@iostreams@boost@@8 ; boost::iostreams::filtering_stream<boost::iostreams::output,char,std::char_traits<char>,std::allocator<char>,boost::iostreams::public_>::`RTTI Class Hierarchy Descriptor'
PUBLIC	??_R2?$filtering_stream@Uoutput@iostreams@boost@@DU?$char_traits@D@std@@V?$allocator@D@5@Upublic_@23@@iostreams@boost@@8 ; boost::iostreams::filtering_stream<boost::iostreams::output,char,std::char_traits<char>,std::allocator<char>,boost::iostreams::public_>::`RTTI Base Class Array'
PUBLIC	??_R1A@?0A@EA@?$filtering_stream_base@V?$chain@Uoutput@iostreams@boost@@DU?$char_traits@D@std@@V?$allocator@D@5@@iostreams@boost@@Upublic_@23@@detail@iostreams@boost@@8 ; boost::iostreams::detail::filtering_stream_base<boost::iostreams::chain<boost::iostreams::output,char,std::char_traits<char>,std::allocator<char> >,boost::iostreams::public_>::`RTTI Base Class Descriptor at (0,-1,0,64)'
PUBLIC	??_R3?$filtering_stream_base@V?$chain@Uoutput@iostreams@boost@@DU?$char_traits@D@std@@V?$allocator@D@5@@iostreams@boost@@Upublic_@23@@detail@iostreams@boost@@8 ; boost::iostreams::detail::filtering_stream_base<boost::iostreams::chain<boost::iostreams::output,char,std::char_traits<char>,std::allocator<char> >,boost::iostreams::public_>::`RTTI Class Hierarchy Descriptor'
PUBLIC	??_R2?$filtering_stream_base@V?$chain@Uoutput@iostreams@boost@@DU?$char_traits@D@std@@V?$allocator@D@5@@iostreams@boost@@Upublic_@23@@detail@iostreams@boost@@8 ; boost::iostreams::detail::filtering_stream_base<boost::iostreams::chain<boost::iostreams::output,char,std::char_traits<char>,std::allocator<char> >,boost::iostreams::public_>::`RTTI Base Class Array'
PUBLIC	??_R1A@?0A@EA@?$access_control@V?$chain_client@V?$chain@Uoutput@iostreams@boost@@DU?$char_traits@D@std@@V?$allocator@D@5@@iostreams@boost@@@detail@iostreams@boost@@Upublic_@34@U?$pub_@V?$chain_client@V?$chain@Uoutput@iostreams@boost@@DU?$char_traits@D@std@@V?$allocator@D@5@@iostreams@boost@@@detail@iostreams@boost@@@234@@iostreams@boost@@8 ; boost::iostreams::access_control<boost::iostreams::detail::chain_client<boost::iostreams::chain<boost::iostreams::output,char,std::char_traits<char>,std::allocator<char> > >,boost::iostreams::public_,boost::iostreams::detail::pub_<boost::iostreams::detail::chain_client<boost::iostreams::chain<boost::iostreams::output,char,std::char_traits<char>,std::allocator<char> > > > >::`RTTI Base Class Descriptor at (0,-1,0,64)'
PUBLIC	??_R3?$access_control@V?$chain_client@V?$chain@Uoutput@iostreams@boost@@DU?$char_traits@D@std@@V?$allocator@D@5@@iostreams@boost@@@detail@iostreams@boost@@Upublic_@34@U?$pub_@V?$chain_client@V?$chain@Uoutput@iostreams@boost@@DU?$char_traits@D@std@@V?$allocator@D@5@@iostreams@boost@@@detail@iostreams@boost@@@234@@iostreams@boost@@8 ; boost::iostreams::access_control<boost::iostreams::detail::chain_client<boost::iostreams::chain<boost::iostreams::output,char,std::char_traits<char>,std::allocator<char> > >,boost::iostreams::public_,boost::iostreams::detail::pub_<boost::iostreams::detail::chain_client<boost::iostreams::chain<boost::iostreams::output,char,std::char_traits<char>,std::allocator<char> > > > >::`RTTI Class Hierarchy Descriptor'
PUBLIC	??_R2?$access_control@V?$chain_client@V?$chain@Uoutput@iostreams@boost@@DU?$char_traits@D@std@@V?$allocator@D@5@@iostreams@boost@@@detail@iostreams@boost@@Upublic_@34@U?$pub_@V?$chain_client@V?$chain@Uoutput@iostreams@boost@@DU?$char_traits@D@std@@V?$allocator@D@5@@iostreams@boost@@@detail@iostreams@boost@@@234@@iostreams@boost@@8 ; boost::iostreams::access_control<boost::iostreams::detail::chain_client<boost::iostreams::chain<boost::iostreams::output,char,std::char_traits<char>,std::allocator<char> > >,boost::iostreams::public_,boost::iostreams::detail::pub_<boost::iostreams::detail::chain_client<boost::iostreams::chain<boost::iostreams::output,char,std::char_traits<char>,std::allocator<char> > > > >::`RTTI Base Class Array'
PUBLIC	??_R1A@?0A@EA@?$pub_@V?$chain_client@V?$chain@Uoutput@iostreams@boost@@DU?$char_traits@D@std@@V?$allocator@D@5@@iostreams@boost@@@detail@iostreams@boost@@@detail@iostreams@boost@@8 ; boost::iostreams::detail::pub_<boost::iostreams::detail::chain_client<boost::iostreams::chain<boost::iostreams::output,char,std::char_traits<char>,std::allocator<char> > > >::`RTTI Base Class Descriptor at (0,-1,0,64)'
PUBLIC	??_R3?$pub_@V?$chain_client@V?$chain@Uoutput@iostreams@boost@@DU?$char_traits@D@std@@V?$allocator@D@5@@iostreams@boost@@@detail@iostreams@boost@@@detail@iostreams@boost@@8 ; boost::iostreams::detail::pub_<boost::iostreams::detail::chain_client<boost::iostreams::chain<boost::iostreams::output,char,std::char_traits<char>,std::allocator<char> > > >::`RTTI Class Hierarchy Descriptor'
PUBLIC	??_R2?$pub_@V?$chain_client@V?$chain@Uoutput@iostreams@boost@@DU?$char_traits@D@std@@V?$allocator@D@5@@iostreams@boost@@@detail@iostreams@boost@@@detail@iostreams@boost@@8 ; boost::iostreams::detail::pub_<boost::iostreams::detail::chain_client<boost::iostreams::chain<boost::iostreams::output,char,std::char_traits<char>,std::allocator<char> > > >::`RTTI Base Class Array'
PUBLIC	??_R1A@?0A@EA@?$chain_client@V?$chain@Uoutput@iostreams@boost@@DU?$char_traits@D@std@@V?$allocator@D@5@@iostreams@boost@@@detail@iostreams@boost@@8 ; boost::iostreams::detail::chain_client<boost::iostreams::chain<boost::iostreams::output,char,std::char_traits<char>,std::allocator<char> > >::`RTTI Base Class Descriptor at (0,-1,0,64)'
PUBLIC	??_R3?$chain_client@V?$chain@Uoutput@iostreams@boost@@DU?$char_traits@D@std@@V?$allocator@D@5@@iostreams@boost@@@detail@iostreams@boost@@8 ; boost::iostreams::detail::chain_client<boost::iostreams::chain<boost::iostreams::output,char,std::char_traits<char>,std::allocator<char> > >::`RTTI Class Hierarchy Descriptor'
PUBLIC	??_R2?$chain_client@V?$chain@Uoutput@iostreams@boost@@DU?$char_traits@D@std@@V?$allocator@D@5@@iostreams@boost@@@detail@iostreams@boost@@8 ; boost::iostreams::detail::chain_client<boost::iostreams::chain<boost::iostreams::output,char,std::char_traits<char>,std::allocator<char> > >::`RTTI Base Class Array'
PUBLIC	??_R0?AV?$chain_client@V?$chain@Uoutput@iostreams@boost@@DU?$char_traits@D@std@@V?$allocator@D@5@@iostreams@boost@@@detail@iostreams@boost@@@8 ; boost::iostreams::detail::chain_client<boost::iostreams::chain<boost::iostreams::output,char,std::char_traits<char>,std::allocator<char> > > `RTTI Type Descriptor'
PUBLIC	??_R0?AU?$pub_@V?$chain_client@V?$chain@Uoutput@iostreams@boost@@DU?$char_traits@D@std@@V?$allocator@D@5@@iostreams@boost@@@detail@iostreams@boost@@@detail@iostreams@boost@@@8 ; boost::iostreams::detail::pub_<boost::iostreams::detail::chain_client<boost::iostreams::chain<boost::iostreams::output,char,std::char_traits<char>,std::allocator<char> > > > `RTTI Type Descriptor'
PUBLIC	??_R0?AU?$access_control@V?$chain_client@V?$chain@Uoutput@iostreams@boost@@DU?$char_traits@D@std@@V?$allocator@D@5@@iostreams@boost@@@detail@iostreams@boost@@Upublic_@34@U?$pub_@V?$chain_client@V?$chain@Uoutput@iostreams@boost@@DU?$char_traits@D@std@@V?$allocator@D@5@@iostreams@boost@@@detail@iostreams@boost@@@234@@iostreams@boost@@@8 ; boost::iostreams::access_control<boost::iostreams::detail::chain_client<boost::iostreams::chain<boost::iostreams::output,char,std::char_traits<char>,std::allocator<char> > >,boost::iostreams::public_,boost::iostreams::detail::pub_<boost::iostreams::detail::chain_client<boost::iostreams::chain<boost::iostreams::output,char,std::char_traits<char>,std::allocator<char> > > > > `RTTI Type Descriptor'
PUBLIC	??_R0?AV?$filtering_stream_base@V?$chain@Uoutput@iostreams@boost@@DU?$char_traits@D@std@@V?$allocator@D@5@@iostreams@boost@@Upublic_@23@@detail@iostreams@boost@@@8 ; boost::iostreams::detail::filtering_stream_base<boost::iostreams::chain<boost::iostreams::output,char,std::char_traits<char>,std::allocator<char> >,boost::iostreams::public_> `RTTI Type Descriptor'
PUBLIC	??_R1A@?0A@EA@?$filtering_stream@Uoutput@iostreams@boost@@DU?$char_traits@D@std@@V?$allocator@D@5@Upublic_@23@@iostreams@boost@@8 ; boost::iostreams::filtering_stream<boost::iostreams::output,char,std::char_traits<char>,std::allocator<char>,boost::iostreams::public_>::`RTTI Base Class Descriptor at (0,-1,0,64)'
PUBLIC	??_R0?AV?$filtering_stream@Uoutput@iostreams@boost@@DU?$char_traits@D@std@@V?$allocator@D@5@Upublic_@23@@iostreams@boost@@@8 ; boost::iostreams::filtering_stream<boost::iostreams::output,char,std::char_traits<char>,std::allocator<char>,boost::iostreams::public_> `RTTI Type Descriptor'
PUBLIC	?find@?$basic_string@DU?$char_traits@D@std@@V?$allocator@D@2@@std@@QBEIPBDI@Z ; std::basic_string<char,std::char_traits<char>,std::allocator<char> >::find
PUBLIC	??$filename_pos@V?$basic_string@DU?$char_traits@D@std@@V?$allocator@D@2@@std@@Upath_traits@filesystem@boost@@@detail@filesystem@boost@@YAIABV?$basic_string@DU?$char_traits@D@std@@V?$allocator@D@2@@std@@I@Z ; boost::filesystem::detail::filename_pos<std::basic_string<char,std::char_traits<char>,std::allocator<char> >,boost::filesystem::path_traits>
PUBLIC	??$is_non_root_slash@V?$basic_string@DU?$char_traits@D@std@@V?$allocator@D@2@@std@@Upath_traits@filesystem@boost@@@detail@filesystem@boost@@YA_NABV?$basic_string@DU?$char_traits@D@std@@V?$allocator@D@2@@std@@I@Z ; boost::filesystem::detail::is_non_root_slash<std::basic_string<char,std::char_traits<char>,std::allocator<char> >,boost::filesystem::path_traits>
PUBLIC	?filename@?$basic_path@V?$basic_string@DU?$char_traits@D@std@@V?$allocator@D@2@@std@@Upath_traits@filesystem@boost@@@filesystem@boost@@QBE?AV?$basic_string@DU?$char_traits@D@std@@V?$allocator@D@2@@std@@XZ ; boost::filesystem::basic_path<std::basic_string<char,std::char_traits<char>,std::allocator<char> >,boost::filesystem::path_traits>::filename
PUBLIC	?leaf@?$basic_path@V?$basic_string@DU?$char_traits@D@std@@V?$allocator@D@2@@std@@Upath_traits@filesystem@boost@@@filesystem@boost@@QBE?AV?$basic_string@DU?$char_traits@D@std@@V?$allocator@D@2@@std@@XZ ; boost::filesystem::basic_path<std::basic_string<char,std::char_traits<char>,std::allocator<char> >,boost::filesystem::path_traits>::leaf
PUBLIC	?native_directory_string@?$basic_path@V?$basic_string@DU?$char_traits@D@std@@V?$allocator@D@2@@std@@Upath_traits@filesystem@boost@@@filesystem@boost@@QBE?AV?$basic_string@DU?$char_traits@D@std@@V?$allocator@D@2@@std@@XZ ; boost::filesystem::basic_path<std::basic_string<char,std::char_traits<char>,std::allocator<char> >,boost::filesystem::path_traits>::native_directory_string
PUBLIC	?is_directory@filesystem@boost@@YA_NVfile_status@12@@Z ; boost::filesystem::is_directory
PUBLIC	??$is_directory@V?$basic_path@V?$basic_string@DU?$char_traits@D@std@@V?$allocator@D@2@@std@@Upath_traits@filesystem@boost@@@filesystem@boost@@@filesystem@boost@@YA_NABV?$basic_path@V?$basic_string@DU?$char_traits@D@std@@V?$allocator@D@2@@std@@Upath_traits@filesystem@boost@@@01@@Z ; boost::filesystem::is_directory<boost::filesystem::basic_path<std::basic_string<char,std::char_traits<char>,std::allocator<char> >,boost::filesystem::path_traits> >
PUBLIC	?is_directory@filesystem@boost@@YA_NABV?$basic_path@V?$basic_string@DU?$char_traits@D@std@@V?$allocator@D@2@@std@@Upath_traits@filesystem@boost@@@12@@Z ; boost::filesystem::is_directory
PUBLIC	?directory_string@?$basic_path@V?$basic_string@DU?$char_traits@D@std@@V?$allocator@D@2@@std@@Upath_traits@filesystem@boost@@@filesystem@boost@@QBE?BV?$basic_string@DU?$char_traits@D@std@@V?$allocator@D@2@@std@@XZ ; boost::filesystem::basic_path<std::basic_string<char,std::char_traits<char>,std::allocator<char> >,boost::filesystem::path_traits>::directory_string
PUBLIC	?external_directory_string@?$basic_path@V?$basic_string@DU?$char_traits@D@std@@V?$allocator@D@2@@std@@Upath_traits@filesystem@boost@@@filesystem@boost@@QBE?BV?$basic_string@DU?$char_traits@D@std@@V?$allocator@D@2@@std@@XZ ; boost::filesystem::basic_path<std::basic_string<char,std::char_traits<char>,std::allocator<char> >,boost::filesystem::path_traits>::external_directory_string
PUBLIC	??$create_directory@V?$basic_path@V?$basic_string@DU?$char_traits@D@std@@V?$allocator@D@2@@std@@Upath_traits@filesystem@boost@@@filesystem@boost@@@filesystem@boost@@YA_NABV?$basic_path@V?$basic_string@DU?$char_traits@D@std@@V?$allocator@D@2@@std@@Upath_traits@filesystem@boost@@@01@@Z ; boost::filesystem::create_directory<boost::filesystem::basic_path<std::basic_string<char,std::char_traits<char>,std::allocator<char> >,boost::filesystem::path_traits> >
PUBLIC	?create_directory@filesystem@boost@@YA_NABV?$basic_path@V?$basic_string@DU?$char_traits@D@std@@V?$allocator@D@2@@std@@Upath_traits@filesystem@boost@@@12@@Z ; boost::filesystem::create_directory
PUBLIC	??$isdigit@D@std@@YA_NDABVlocale@0@@Z		; std::isdigit<char>
PUBLIC	?str@?$basic_stringbuf@DU?$char_traits@D@std@@V?$allocator@D@2@@std@@QAEXABV?$basic_string@DU?$char_traits@D@std@@V?$allocator@D@2@@2@@Z ; std::basic_stringbuf<char,std::char_traits<char>,std::allocator<char> >::str
PUBLIC	?str@?$basic_stringstream@DU?$char_traits@D@std@@V?$allocator@D@2@@std@@QAEXABV?$basic_string@DU?$char_traits@D@std@@V?$allocator@D@2@@2@@Z ; std::basic_stringstream<char,std::char_traits<char>,std::allocator<char> >::str
PUBLIC	??0?$_Fillobj@D@std@@QAE@D@Z			; std::_Fillobj<char>::_Fillobj<char>
PUBLIC	??$setfill@D@std@@YA?AU?$_Fillobj@D@0@D@Z	; std::setfill<char>
PUBLIC	?fill@?$basic_ios@DU?$char_traits@D@std@@@std@@QAEDD@Z ; std::basic_ios<char,std::char_traits<char> >::fill
PUBLIC	??$?6DU?$char_traits@D@std@@@std@@YAAAV?$basic_ostream@DU?$char_traits@D@std@@@0@AAV10@ABU?$_Fillobj@D@0@@Z ; std::operator<<<char,std::char_traits<char> >
PUBLIC	??0chain_impl@?$chain_base@V?$chain@Uoutput@iostreams@boost@@DU?$char_traits@D@std@@V?$allocator@D@5@@iostreams@boost@@DU?$char_traits@D@std@@V?$allocator@D@5@Uoutput@23@@detail@iostreams@boost@@QAE@XZ ; boost::iostreams::detail::chain_base<boost::iostreams::chain<boost::iostreams::output,char,std::char_traits<char>,std::allocator<char> >,char,std::char_traits<char>,std::allocator<char>,boost::iostreams::output>::chain_impl::chain_impl
PUBLIC	?dispose@?$sp_counted_impl_p@Uchain_impl@?$chain_base@V?$chain@Uoutput@iostreams@boost@@DU?$char_traits@D@std@@V?$allocator@D@5@@iostreams@boost@@DU?$char_traits@D@std@@V?$allocator@D@5@Uoutput@23@@detail@iostreams@boost@@@detail@boost@@UAEXXZ ; boost::detail::sp_counted_impl_p<boost::iostreams::detail::chain_base<boost::iostreams::chain<boost::iostreams::output,char,std::char_traits<char>,std::allocator<char> >,char,std::char_traits<char>,std::allocator<char>,boost::iostreams::output>::chain_impl>::dispose
PUBLIC	?get_deleter@?$sp_counted_impl_p@Uchain_impl@?$chain_base@V?$chain@Uoutput@iostreams@boost@@DU?$char_traits@D@std@@V?$allocator@D@5@@iostreams@boost@@DU?$char_traits@D@std@@V?$allocator@D@5@Uoutput@23@@detail@iostreams@boost@@@detail@boost@@UAEPAXABVtype_info@@@Z ; boost::detail::sp_counted_impl_p<boost::iostreams::detail::chain_base<boost::iostreams::chain<boost::iostreams::output,char,std::char_traits<char>,std::allocator<char> >,char,std::char_traits<char>,std::allocator<char>,boost::iostreams::output>::chain_impl>::get_deleter
PUBLIC	??1?$sp_counted_impl_p@Uchain_impl@?$chain_base@V?$chain@Uoutput@iostreams@boost@@DU?$char_traits@D@std@@V?$allocator@D@5@@iostreams@boost@@DU?$char_traits@D@std@@V?$allocator@D@5@Uoutput@23@@detail@iostreams@boost@@@detail@boost@@UAE@XZ ; boost::detail::sp_counted_impl_p<boost::iostreams::detail::chain_base<boost::iostreams::chain<boost::iostreams::output,char,std::char_traits<char>,std::allocator<char> >,char,std::char_traits<char>,std::allocator<char>,boost::iostreams::output>::chain_impl>::~sp_counted_impl_p<boost::iostreams::detail::chain_base<boost::iostreams::chain<boost::iostreams::output,char,std::char_traits<char>,std::allocator<char> >,char,std::char_traits<char>,std::allocator<char>,boost::iostreams::output>::chain_impl>
PUBLIC	??_G?$sp_counted_impl_p@Uchain_impl@?$chain_base@V?$chain@Uoutput@iostreams@boost@@DU?$char_traits@D@std@@V?$allocator@D@5@@iostreams@boost@@DU?$char_traits@D@std@@V?$allocator@D@5@Uoutput@23@@detail@iostreams@boost@@@detail@boost@@UAEPAXI@Z ; boost::detail::sp_counted_impl_p<boost::iostreams::detail::chain_base<boost::iostreams::chain<boost::iostreams::output,char,std::char_traits<char>,std::allocator<char> >,char,std::char_traits<char>,std::allocator<char>,boost::iostreams::output>::chain_impl>::`scalar deleting destructor'
PUBLIC	??0?$sp_counted_impl_p@Uchain_impl@?$chain_base@V?$chain@Uoutput@iostreams@boost@@DU?$char_traits@D@std@@V?$allocator@D@5@@iostreams@boost@@DU?$char_traits@D@std@@V?$allocator@D@5@Uoutput@23@@detail@iostreams@boost@@@detail@boost@@QAE@PAUchain_impl@?$chain_base@V?$chain@Uoutput@iostreams@boost@@DU?$char_traits@D@std@@V?$allocator@D@5@@iostreams@boost@@DU?$char_traits@D@std@@V?$allocator@D@5@Uoutput@23@@1iostreams@2@@Z ; boost::detail::sp_counted_impl_p<boost::iostreams::detail::chain_base<boost::iostreams::chain<boost::iostreams::output,char,std::char_traits<char>,std::allocator<char> >,char,std::char_traits<char>,std::allocator<char>,boost::iostreams::output>::chain_impl>::sp_counted_impl_p<boost::iostreams::detail::chain_base<boost::iostreams::chain<boost::iostreams::output,char,std::char_traits<char>,std::allocator<char> >,char,std::char_traits<char>,std::allocator<char>,boost::iostreams::output>::chain_impl>
PUBLIC	?set_auto_close@?$chain_base@V?$chain@Uoutput@iostreams@boost@@DU?$char_traits@D@std@@V?$allocator@D@5@@iostreams@boost@@DU?$char_traits@D@std@@V?$allocator@D@5@Uoutput@23@@detail@iostreams@boost@@CAXPAV?$linked_streambuf@DU?$char_traits@D@std@@@234@_N@Z ; boost::iostreams::detail::chain_base<boost::iostreams::chain<boost::iostreams::output,char,std::char_traits<char>,std::allocator<char> >,char,std::char_traits<char>,std::allocator<char>,boost::iostreams::output>::set_auto_close
PUBLIC	?reset@chain_impl@?$chain_base@V?$chain@Uoutput@iostreams@boost@@DU?$char_traits@D@std@@V?$allocator@D@5@@iostreams@boost@@DU?$char_traits@D@std@@V?$allocator@D@5@Uoutput@23@@detail@iostreams@boost@@QAEXXZ ; boost::iostreams::detail::chain_base<boost::iostreams::chain<boost::iostreams::output,char,std::char_traits<char>,std::allocator<char> >,char,std::char_traits<char>,std::allocator<char>,boost::iostreams::output>::chain_impl::reset
PUBLIC	??1chain_impl@?$chain_base@V?$chain@Uoutput@iostreams@boost@@DU?$char_traits@D@std@@V?$allocator@D@5@@iostreams@boost@@DU?$char_traits@D@std@@V?$allocator@D@5@Uoutput@23@@detail@iostreams@boost@@QAE@XZ ; boost::iostreams::detail::chain_base<boost::iostreams::chain<boost::iostreams::output,char,std::char_traits<char>,std::allocator<char> >,char,std::char_traits<char>,std::allocator<char>,boost::iostreams::output>::chain_impl::~chain_impl
PUBLIC	??_Gchain_impl@?$chain_base@V?$chain@Uoutput@iostreams@boost@@DU?$char_traits@D@std@@V?$allocator@D@5@@iostreams@boost@@DU?$char_traits@D@std@@V?$allocator@D@5@Uoutput@23@@detail@iostreams@boost@@QAEPAXI@Z ; boost::iostreams::detail::chain_base<boost::iostreams::chain<boost::iostreams::output,char,std::char_traits<char>,std::allocator<char> >,char,std::char_traits<char>,std::allocator<char>,boost::iostreams::output>::chain_impl::`scalar deleting destructor'
PUBLIC	??$checked_delete@Uchain_impl@?$chain_base@V?$chain@Uoutput@iostreams@boost@@DU?$char_traits@D@std@@V?$allocator@D@5@@iostreams@boost@@DU?$char_traits@D@std@@V?$allocator@D@5@Uoutput@23@@detail@iostreams@boost@@@boost@@YAXPAUchain_impl@?$chain_base@V?$chain@Uoutput@iostreams@boost@@DU?$char_traits@D@std@@V?$allocator@D@5@@iostreams@boost@@DU?$char_traits@D@std@@V?$allocator@D@5@Uoutput@23@@detail@iostreams@0@@Z ; boost::checked_delete<boost::iostreams::detail::chain_base<boost::iostreams::chain<boost::iostreams::output,char,std::char_traits<char>,std::allocator<char> >,char,std::char_traits<char>,std::allocator<char>,boost::iostreams::output>::chain_impl>
PUBLIC	??$?0Uchain_impl@?$chain_base@V?$chain@Uoutput@iostreams@boost@@DU?$char_traits@D@std@@V?$allocator@D@5@@iostreams@boost@@DU?$char_traits@D@std@@V?$allocator@D@5@Uoutput@23@@detail@iostreams@boost@@@shared_count@detail@boost@@QAE@PAUchain_impl@?$chain_base@V?$chain@Uoutput@iostreams@boost@@DU?$char_traits@D@std@@V?$allocator@D@5@@iostreams@boost@@DU?$char_traits@D@std@@V?$allocator@D@5@Uoutput@23@@1iostreams@2@@Z ; boost::detail::shared_count::shared_count<boost::iostreams::detail::chain_base<boost::iostreams::chain<boost::iostreams::output,char,std::char_traits<char>,std::allocator<char> >,char,std::char_traits<char>,std::allocator<char>,boost::iostreams::output>::chain_impl>
PUBLIC	??$?0Uchain_impl@?$chain_base@V?$chain@Uoutput@iostreams@boost@@DU?$char_traits@D@std@@V?$allocator@D@5@@iostreams@boost@@DU?$char_traits@D@std@@V?$allocator@D@5@Uoutput@23@@detail@iostreams@boost@@@?$shared_ptr@Uchain_impl@?$chain_base@V?$chain@Uoutput@iostreams@boost@@DU?$char_traits@D@std@@V?$allocator@D@5@@iostreams@boost@@DU?$char_traits@D@std@@V?$allocator@D@5@Uoutput@23@@detail@iostreams@boost@@@boost@@QAE@PAUchain_impl@?$chain_base@V?$chain@Uoutput@iostreams@boost@@DU?$char_traits@D@std@@V?$allocator@D@5@@iostreams@boost@@DU?$char_traits@D@std@@V?$allocator@D@5@Uoutput@23@@detail@iostreams@1@@Z ; boost::shared_ptr<boost::iostreams::detail::chain_base<boost::iostreams::chain<boost::iostreams::output,char,std::char_traits<char>,std::allocator<char> >,char,std::char_traits<char>,std::allocator<char>,boost::iostreams::output>::chain_impl>::shared_ptr<boost::iostreams::detail::chain_base<boost::iostreams::chain<boost::iostreams::output,char,std::char_traits<char>,std::allocator<char> >,char,std::char_traits<char>,std::allocator<char>,boost::iostreams::output>::chain_impl><boost::iostreams::detail::chain_base<boost::iostreams::chain<boost::iostreams::output,char,std::char_traits<char>,std::allocator<char> >,char,std::char_traits<char>,std::allocator<char>,boost::iostreams::output>::chain_impl>
PUBLIC	??0?$chain_base@V?$chain@Uoutput@iostreams@boost@@DU?$char_traits@D@std@@V?$allocator@D@5@@iostreams@boost@@DU?$char_traits@D@std@@V?$allocator@D@5@Uoutput@23@@detail@iostreams@boost@@IAE@XZ ; boost::iostreams::detail::chain_base<boost::iostreams::chain<boost::iostreams::output,char,std::char_traits<char>,std::allocator<char> >,char,std::char_traits<char>,std::allocator<char>,boost::iostreams::output>::chain_base<boost::iostreams::chain<boost::iostreams::output,char,std::char_traits<char>,std::allocator<char> >,char,std::char_traits<char>,std::allocator<char>,boost::iostreams::output>
PUBLIC	??0?$chain@Uoutput@iostreams@boost@@DU?$char_traits@D@std@@V?$allocator@D@5@@iostreams@boost@@QAE@XZ ; boost::iostreams::chain<boost::iostreams::output,char,std::char_traits<char>,std::allocator<char> >::chain<boost::iostreams::output,char,std::char_traits<char>,std::allocator<char> >
PUBLIC	?register_client@?$chain_base@V?$chain@Uoutput@iostreams@boost@@DU?$char_traits@D@std@@V?$allocator@D@5@@iostreams@boost@@DU?$char_traits@D@std@@V?$allocator@D@5@Uoutput@23@@detail@iostreams@boost@@AAEXPAV?$chain_client@V?$chain@Uoutput@iostreams@boost@@DU?$char_traits@D@std@@V?$allocator@D@5@@iostreams@boost@@@234@@Z ; boost::iostreams::detail::chain_base<boost::iostreams::chain<boost::iostreams::output,char,std::char_traits<char>,std::allocator<char> >,char,std::char_traits<char>,std::allocator<char>,boost::iostreams::output>::register_client
PUBLIC	?set_chain@?$chain_client@V?$chain@Uoutput@iostreams@boost@@DU?$char_traits@D@std@@V?$allocator@D@5@@iostreams@boost@@@detail@iostreams@boost@@IAEXPAV?$chain@Uoutput@iostreams@boost@@DU?$char_traits@D@std@@V?$allocator@D@5@@34@@Z ; boost::iostreams::detail::chain_client<boost::iostreams::chain<boost::iostreams::output,char,std::char_traits<char>,std::allocator<char> > >::set_chain
PUBLIC	??0?$chain_client@V?$chain@Uoutput@iostreams@boost@@DU?$char_traits@D@std@@V?$allocator@D@5@@iostreams@boost@@@detail@iostreams@boost@@QAE@PAV?$chain@Uoutput@iostreams@boost@@DU?$char_traits@D@std@@V?$allocator@D@5@@23@@Z ; boost::iostreams::detail::chain_client<boost::iostreams::chain<boost::iostreams::output,char,std::char_traits<char>,std::allocator<char> > >::chain_client<boost::iostreams::chain<boost::iostreams::output,char,std::char_traits<char>,std::allocator<char> > >
PUBLIC	??_G?$pub_@V?$chain_client@V?$chain@Uoutput@iostreams@boost@@DU?$char_traits@D@std@@V?$allocator@D@5@@iostreams@boost@@@detail@iostreams@boost@@@detail@iostreams@boost@@UAEPAXI@Z ; boost::iostreams::detail::pub_<boost::iostreams::detail::chain_client<boost::iostreams::chain<boost::iostreams::output,char,std::char_traits<char>,std::allocator<char> > > >::`scalar deleting destructor'
PUBLIC	??0?$pub_@V?$chain_client@V?$chain@Uoutput@iostreams@boost@@DU?$char_traits@D@std@@V?$allocator@D@5@@iostreams@boost@@@detail@iostreams@boost@@@detail@iostreams@boost@@QAE@XZ ; boost::iostreams::detail::pub_<boost::iostreams::detail::chain_client<boost::iostreams::chain<boost::iostreams::output,char,std::char_traits<char>,std::allocator<char> > > >::pub_<boost::iostreams::detail::chain_client<boost::iostreams::chain<boost::iostreams::output,char,std::char_traits<char>,std::allocator<char> > > >
PUBLIC	??_G?$access_control@V?$chain_client@V?$chain@Uoutput@iostreams@boost@@DU?$char_traits@D@std@@V?$allocator@D@5@@iostreams@boost@@@detail@iostreams@boost@@Upublic_@34@U?$pub_@V?$chain_client@V?$chain@Uoutput@iostreams@boost@@DU?$char_traits@D@std@@V?$allocator@D@5@@iostreams@boost@@@detail@iostreams@boost@@@234@@iostreams@boost@@UAEPAXI@Z ; boost::iostreams::access_control<boost::iostreams::detail::chain_client<boost::iostreams::chain<boost::iostreams::output,char,std::char_traits<char>,std::allocator<char> > >,boost::iostreams::public_,boost::iostreams::detail::pub_<boost::iostreams::detail::chain_client<boost::iostreams::chain<boost::iostreams::output,char,std::char_traits<char>,std::allocator<char> > > > >::`scalar deleting destructor'
PUBLIC	??0?$access_control@V?$chain_client@V?$chain@Uoutput@iostreams@boost@@DU?$char_traits@D@std@@V?$allocator@D@5@@iostreams@boost@@@detail@iostreams@boost@@Upublic_@34@U?$pub_@V?$chain_client@V?$chain@Uoutput@iostreams@boost@@DU?$char_traits@D@std@@V?$allocator@D@5@@iostreams@boost@@@detail@iostreams@boost@@@234@@iostreams@boost@@QAE@XZ ; boost::iostreams::access_control<boost::iostreams::detail::chain_client<boost::iostreams::chain<boost::iostreams::output,char,std::char_traits<char>,std::allocator<char> > >,boost::iostreams::public_,boost::iostreams::detail::pub_<boost::iostreams::detail::chain_client<boost::iostreams::chain<boost::iostreams::output,char,std::char_traits<char>,std::allocator<char> > > > >::access_control<boost::iostreams::detail::chain_client<boost::iostreams::chain<boost::iostreams::output,char,std::char_traits<char>,std::allocator<char> > >,boost::iostreams::public_,boost::iostreams::detail::pub_<boost::iostreams::detail::chain_client<boost::iostreams::chain<boost::iostreams::output,char,std::char_traits<char>,std::allocator<char> > > > >
PUBLIC	??_D?$filtering_stream_base@V?$chain@Uoutput@iostreams@boost@@DU?$char_traits@D@std@@V?$allocator@D@5@@iostreams@boost@@Upublic_@23@@detail@iostreams@boost@@QAEXXZ ; boost::iostreams::detail::filtering_stream_base<boost::iostreams::chain<boost::iostreams::output,char,std::char_traits<char>,std::allocator<char> >,boost::iostreams::public_>::`vbase destructor'
PUBLIC	??_G?$filtering_stream_base@V?$chain@Uoutput@iostreams@boost@@DU?$char_traits@D@std@@V?$allocator@D@5@@iostreams@boost@@Upublic_@23@@detail@iostreams@boost@@UAEPAXI@Z ; boost::iostreams::detail::filtering_stream_base<boost::iostreams::chain<boost::iostreams::output,char,std::char_traits<char>,std::allocator<char> >,boost::iostreams::public_>::`scalar deleting destructor'
PUBLIC	??_E?$filtering_stream_base@V?$chain@Uoutput@iostreams@boost@@DU?$char_traits@D@std@@V?$allocator@D@5@@iostreams@boost@@Upublic_@23@@detail@iostreams@boost@@WBE@AEPAXI@Z ; [thunk]:boost::iostreams::detail::filtering_stream_base<boost::iostreams::chain<boost::iostreams::output,char,std::char_traits<char>,std::allocator<char> >,boost::iostreams::public_>::`vector deleting destructor'
PUBLIC	??0?$filtering_stream_base@V?$chain@Uoutput@iostreams@boost@@DU?$char_traits@D@std@@V?$allocator@D@5@@iostreams@boost@@Upublic_@23@@detail@iostreams@boost@@IAE@XZ ; boost::iostreams::detail::filtering_stream_base<boost::iostreams::chain<boost::iostreams::output,char,std::char_traits<char>,std::allocator<char> >,boost::iostreams::public_>::filtering_stream_base<boost::iostreams::chain<boost::iostreams::output,char,std::char_traits<char>,std::allocator<char> >,boost::iostreams::public_>
PUBLIC	??0?$filtering_stream@Uoutput@iostreams@boost@@DU?$char_traits@D@std@@V?$allocator@D@5@Upublic_@23@@iostreams@boost@@QAE@XZ ; boost::iostreams::filtering_stream<boost::iostreams::output,char,std::char_traits<char>,std::allocator<char>,boost::iostreams::public_>::filtering_stream<boost::iostreams::output,char,std::char_traits<char>,std::allocator<char>,boost::iostreams::public_>
PUBLIC	??1?$shared_ptr@Uchain_impl@?$chain_base@V?$chain@Uoutput@iostreams@boost@@DU?$char_traits@D@std@@V?$allocator@D@5@@iostreams@boost@@DU?$char_traits@D@std@@V?$allocator@D@5@Uoutput@23@@detail@iostreams@boost@@@boost@@QAE@XZ ; boost::shared_ptr<boost::iostreams::detail::chain_base<boost::iostreams::chain<boost::iostreams::output,char,std::char_traits<char>,std::allocator<char> >,char,std::char_traits<char>,std::allocator<char>,boost::iostreams::output>::chain_impl>::~shared_ptr<boost::iostreams::detail::chain_base<boost::iostreams::chain<boost::iostreams::output,char,std::char_traits<char>,std::allocator<char> >,char,std::char_traits<char>,std::allocator<char>,boost::iostreams::output>::chain_impl>
PUBLIC	??1?$chain_base@V?$chain@Uoutput@iostreams@boost@@DU?$char_traits@D@std@@V?$allocator@D@5@@iostreams@boost@@DU?$char_traits@D@std@@V?$allocator@D@5@Uoutput@23@@detail@iostreams@boost@@QAE@XZ ; boost::iostreams::detail::chain_base<boost::iostreams::chain<boost::iostreams::output,char,std::char_traits<char>,std::allocator<char> >,char,std::char_traits<char>,std::allocator<char>,boost::iostreams::output>::~chain_base<boost::iostreams::chain<boost::iostreams::output,char,std::char_traits<char>,std::allocator<char> >,char,std::char_traits<char>,std::allocator<char>,boost::iostreams::output>
PUBLIC	??1?$chain@Uoutput@iostreams@boost@@DU?$char_traits@D@std@@V?$allocator@D@5@@iostreams@boost@@QAE@XZ ; boost::iostreams::chain<boost::iostreams::output,char,std::char_traits<char>,std::allocator<char> >::~chain<boost::iostreams::output,char,std::char_traits<char>,std::allocator<char> >
PUBLIC	?notify@?$chain_client@V?$chain@Uoutput@iostreams@boost@@DU?$char_traits@D@std@@V?$allocator@D@5@@iostreams@boost@@@detail@iostreams@boost@@MAEXXZ ; boost::iostreams::detail::chain_client<boost::iostreams::chain<boost::iostreams::output,char,std::char_traits<char>,std::allocator<char> > >::notify
PUBLIC	??_G?$chain_client@V?$chain@Uoutput@iostreams@boost@@DU?$char_traits@D@std@@V?$allocator@D@5@@iostreams@boost@@@detail@iostreams@boost@@UAEPAXI@Z ; boost::iostreams::detail::chain_client<boost::iostreams::chain<boost::iostreams::output,char,std::char_traits<char>,std::allocator<char> > >::`scalar deleting destructor'
PUBLIC	??1?$chain_client@V?$chain@Uoutput@iostreams@boost@@DU?$char_traits@D@std@@V?$allocator@D@5@@iostreams@boost@@@detail@iostreams@boost@@UAE@XZ ; boost::iostreams::detail::chain_client<boost::iostreams::chain<boost::iostreams::output,char,std::char_traits<char>,std::allocator<char> > >::~chain_client<boost::iostreams::chain<boost::iostreams::output,char,std::char_traits<char>,std::allocator<char> > >
PUBLIC	??1?$pub_@V?$chain_client@V?$chain@Uoutput@iostreams@boost@@DU?$char_traits@D@std@@V?$allocator@D@5@@iostreams@boost@@@detail@iostreams@boost@@@detail@iostreams@boost@@UAE@XZ ; boost::iostreams::detail::pub_<boost::iostreams::detail::chain_client<boost::iostreams::chain<boost::iostreams::output,char,std::char_traits<char>,std::allocator<char> > > >::~pub_<boost::iostreams::detail::chain_client<boost::iostreams::chain<boost::iostreams::output,char,std::char_traits<char>,std::allocator<char> > > >
PUBLIC	??1?$access_control@V?$chain_client@V?$chain@Uoutput@iostreams@boost@@DU?$char_traits@D@std@@V?$allocator@D@5@@iostreams@boost@@@detail@iostreams@boost@@Upublic_@34@U?$pub_@V?$chain_client@V?$chain@Uoutput@iostreams@boost@@DU?$char_traits@D@std@@V?$allocator@D@5@@iostreams@boost@@@detail@iostreams@boost@@@234@@iostreams@boost@@UAE@XZ ; boost::iostreams::access_control<boost::iostreams::detail::chain_client<boost::iostreams::chain<boost::iostreams::output,char,std::char_traits<char>,std::allocator<char> > >,boost::iostreams::public_,boost::iostreams::detail::pub_<boost::iostreams::detail::chain_client<boost::iostreams::chain<boost::iostreams::output,char,std::char_traits<char>,std::allocator<char> > > > >::~access_control<boost::iostreams::detail::chain_client<boost::iostreams::chain<boost::iostreams::output,char,std::char_traits<char>,std::allocator<char> > >,boost::iostreams::public_,boost::iostreams::detail::pub_<boost::iostreams::detail::chain_client<boost::iostreams::chain<boost::iostreams::output,char,std::char_traits<char>,std::allocator<char> > > > >
PUBLIC	??1?$filtering_stream_base@V?$chain@Uoutput@iostreams@boost@@DU?$char_traits@D@std@@V?$allocator@D@5@@iostreams@boost@@Upublic_@23@@detail@iostreams@boost@@UAE@XZ ; boost::iostreams::detail::filtering_stream_base<boost::iostreams::chain<boost::iostreams::output,char,std::char_traits<char>,std::allocator<char> >,boost::iostreams::public_>::~filtering_stream_base<boost::iostreams::chain<boost::iostreams::output,char,std::char_traits<char>,std::allocator<char> >,boost::iostreams::public_>
PUBLIC	?front@?$chain_base@V?$chain@Uoutput@iostreams@boost@@DU?$char_traits@D@std@@V?$allocator@D@5@@iostreams@boost@@DU?$char_traits@D@std@@V?$allocator@D@5@Uoutput@23@@detail@iostreams@boost@@QAEAAV?$linked_streambuf@DU?$char_traits@D@std@@@234@XZ ; boost::iostreams::detail::chain_base<boost::iostreams::chain<boost::iostreams::output,char,std::char_traits<char>,std::allocator<char> >,char,std::char_traits<char>,std::allocator<char>,boost::iostreams::output>::front
PUBLIC	?notify@?$filtering_stream_base@V?$chain@Uoutput@iostreams@boost@@DU?$char_traits@D@std@@V?$allocator@D@5@@iostreams@boost@@Upublic_@23@@detail@iostreams@boost@@EAEXXZ ; boost::iostreams::detail::filtering_stream_base<boost::iostreams::chain<boost::iostreams::output,char,std::char_traits<char>,std::allocator<char> >,boost::iostreams::public_>::notify
PUBLIC	??_G?$filtering_stream@Uoutput@iostreams@boost@@DU?$char_traits@D@std@@V?$allocator@D@5@Upublic_@23@@iostreams@boost@@UAEPAXI@Z ; boost::iostreams::filtering_stream<boost::iostreams::output,char,std::char_traits<char>,std::allocator<char>,boost::iostreams::public_>::`scalar deleting destructor'
PUBLIC	??_E?$filtering_stream@Uoutput@iostreams@boost@@DU?$char_traits@D@std@@V?$allocator@D@5@Upublic_@23@@iostreams@boost@@WBE@AEPAXI@Z ; [thunk]:boost::iostreams::filtering_stream<boost::iostreams::output,char,std::char_traits<char>,std::allocator<char>,boost::iostreams::public_>::`vector deleting destructor'
PUBLIC	??1?$filtering_stream@Uoutput@iostreams@boost@@DU?$char_traits@D@std@@V?$allocator@D@5@Upublic_@23@@iostreams@boost@@UAE@XZ ; boost::iostreams::filtering_stream<boost::iostreams::output,char,std::char_traits<char>,std::allocator<char>,boost::iostreams::public_>::~filtering_stream<boost::iostreams::output,char,std::char_traits<char>,std::allocator<char>,boost::iostreams::public_>
PUBLIC	??_D?$filtering_stream@Uoutput@iostreams@boost@@DU?$char_traits@D@std@@V?$allocator@D@5@Upublic_@23@@iostreams@boost@@QAEXXZ ; boost::iostreams::filtering_stream<boost::iostreams::output,char,std::char_traits<char>,std::allocator<char>,boost::iostreams::public_>::`vbase destructor'
PUBLIC	??$close_all@V?$filtering_stream@Uoutput@iostreams@boost@@DU?$char_traits@D@std@@V?$allocator@D@5@Upublic_@23@@iostreams@boost@@@detail@iostreams@boost@@YAXAAV?$filtering_stream@Uoutput@iostreams@boost@@DU?$char_traits@D@std@@V?$allocator@D@5@Upublic_@23@@12@@Z ; boost::iostreams::detail::close_all<boost::iostreams::filtering_stream<boost::iostreams::output,char,std::char_traits<char>,std::allocator<char>,boost::iostreams::public_> >
PUBLIC	??$unwrap@V?$filtering_stream@Uoutput@iostreams@boost@@DU?$char_traits@D@std@@V?$allocator@D@5@Upublic_@23@@iostreams@boost@@@detail@iostreams@boost@@YAAAV?$filtering_stream@Uoutput@iostreams@boost@@DU?$char_traits@D@std@@V?$allocator@D@5@Upublic_@23@@12@AAV312@@Z ; boost::iostreams::detail::unwrap<boost::iostreams::filtering_stream<boost::iostreams::output,char,std::char_traits<char>,std::allocator<char>,boost::iostreams::public_> >
PUBLIC	?auto_close@?$chain_base@V?$chain@Uoutput@iostreams@boost@@DU?$char_traits@D@std@@V?$allocator@D@5@@iostreams@boost@@DU?$char_traits@D@std@@V?$allocator@D@5@Uoutput@23@@detail@iostreams@boost@@QBE_NXZ ; boost::iostreams::detail::chain_base<boost::iostreams::chain<boost::iostreams::output,char,std::char_traits<char>,std::allocator<char> >,char,std::char_traits<char>,std::allocator<char>,boost::iostreams::output>::auto_close
PUBLIC	?set_next@?$chain_base@V?$chain@Uoutput@iostreams@boost@@DU?$char_traits@D@std@@V?$allocator@D@5@@iostreams@boost@@DU?$char_traits@D@std@@V?$allocator@D@5@Uoutput@23@@detail@iostreams@boost@@CAXPAV?$linked_streambuf@DU?$char_traits@D@std@@@234@0@Z ; boost::iostreams::detail::chain_base<boost::iostreams::chain<boost::iostreams::output,char,std::char_traits<char>,std::allocator<char> >,char,std::char_traits<char>,std::allocator<char>,boost::iostreams::output>::set_next
PUBLIC	??0?$optional@V?$concept_adapter@V?$basic_null_device@DUoutput@iostreams@boost@@@iostreams@boost@@@detail@iostreams@boost@@@detail@iostreams@boost@@QAE@XZ ; boost::iostreams::detail::optional<boost::iostreams::detail::concept_adapter<boost::iostreams::basic_null_device<char,boost::iostreams::output> > >::optional<boost::iostreams::detail::concept_adapter<boost::iostreams::basic_null_device<char,boost::iostreams::output> > >
PUBLIC	??_G?$indirect_streambuf@V?$basic_null_device@DUoutput@iostreams@boost@@@iostreams@boost@@U?$char_traits@D@std@@V?$allocator@D@5@Uoutput@23@@detail@iostreams@boost@@UAEPAXI@Z ; boost::iostreams::detail::indirect_streambuf<boost::iostreams::basic_null_device<char,boost::iostreams::output>,std::char_traits<char>,std::allocator<char>,boost::iostreams::output>::`scalar deleting destructor'
PUBLIC	??0?$indirect_streambuf@V?$basic_null_device@DUoutput@iostreams@boost@@@iostreams@boost@@U?$char_traits@D@std@@V?$allocator@D@5@Uoutput@23@@detail@iostreams@boost@@QAE@XZ ; boost::iostreams::detail::indirect_streambuf<boost::iostreams::basic_null_device<char,boost::iostreams::output>,std::char_traits<char>,std::allocator<char>,boost::iostreams::output>::indirect_streambuf<boost::iostreams::basic_null_device<char,boost::iostreams::output>,std::char_traits<char>,std::allocator<char>,boost::iostreams::output>
PUBLIC	??0?$stream_buffer@V?$basic_null_device@DUoutput@iostreams@boost@@@iostreams@boost@@U?$char_traits@D@std@@V?$allocator@D@5@Uoutput@23@@iostreams@boost@@QAE@XZ ; boost::iostreams::stream_buffer<boost::iostreams::basic_null_device<char,boost::iostreams::output>,std::char_traits<char>,std::allocator<char>,boost::iostreams::output>::stream_buffer<boost::iostreams::basic_null_device<char,boost::iostreams::output>,std::char_traits<char>,std::allocator<char>,boost::iostreams::output>
PUBLIC	??0?$reset_operation@V?$optional@V?$concept_adapter@V?$basic_null_device@DUoutput@iostreams@boost@@@iostreams@boost@@@detail@iostreams@boost@@@detail@iostreams@boost@@@detail@iostreams@boost@@QAE@AAV?$optional@V?$concept_adapter@V?$basic_null_device@DUoutput@iostreams@boost@@@iostreams@boost@@@detail@iostreams@boost@@@123@@Z ; boost::iostreams::detail::reset_operation<boost::iostreams::detail::optional<boost::iostreams::detail::concept_adapter<boost::iostreams::basic_null_device<char,boost::iostreams::output> > > >::reset_operation<boost::iostreams::detail::optional<boost::iostreams::detail::concept_adapter<boost::iostreams::basic_null_device<char,boost::iostreams::output> > > >
PUBLIC	??$call_reset@V?$optional@V?$concept_adapter@V?$basic_null_device@DUoutput@iostreams@boost@@@iostreams@boost@@@detail@iostreams@boost@@@detail@iostreams@boost@@@detail@iostreams@boost@@YA?AV?$reset_operation@V?$optional@V?$concept_adapter@V?$basic_null_device@DUoutput@iostreams@boost@@@iostreams@boost@@@detail@iostreams@boost@@@detail@iostreams@boost@@@012@AAV?$optional@V?$concept_adapter@V?$basic_null_device@DUoutput@iostreams@boost@@@iostreams@boost@@@detail@iostreams@boost@@@012@@Z ; boost::iostreams::detail::call_reset<boost::iostreams::detail::optional<boost::iostreams::detail::concept_adapter<boost::iostreams::basic_null_device<char,boost::iostreams::output> > > >
PUBLIC	??R?$reset_operation@V?$optional@V?$concept_adapter@V?$basic_null_device@DUoutput@iostreams@boost@@@iostreams@boost@@@detail@iostreams@boost@@@detail@iostreams@boost@@@detail@iostreams@boost@@QBEXXZ ; boost::iostreams::detail::reset_operation<boost::iostreams::detail::optional<boost::iostreams::detail::concept_adapter<boost::iostreams::basic_null_device<char,boost::iostreams::output> > > >::operator()
PUBLIC	??$execute_all@V?$member_close_operation@V?$linked_streambuf@DU?$char_traits@D@std@@@detail@iostreams@boost@@@detail@iostreams@boost@@V1234@V?$reset_operation@V?$optional@V?$concept_adapter@V?$basic_null_device@DUoutput@iostreams@boost@@@iostreams@boost@@@detail@iostreams@boost@@@detail@iostreams@boost@@@234@@detail@iostreams@boost@@YAHV?$member_close_operation@V?$linked_streambuf@DU?$char_traits@D@std@@@detail@iostreams@boost@@@012@0V?$reset_operation@V?$optional@V?$concept_adapter@V?$basic_null_device@DUoutput@iostreams@boost@@@iostreams@boost@@@detail@iostreams@boost@@@detail@iostreams@boost@@@012@@Z ; boost::iostreams::detail::execute_all<boost::iostreams::detail::member_close_operation<boost::iostreams::detail::linked_streambuf<char,std::char_traits<char> > >,boost::iostreams::detail::member_close_operation<boost::iostreams::detail::linked_streambuf<char,std::char_traits<char> > >,boost::iostreams::detail::reset_operation<boost::iostreams::detail::optional<boost::iostreams::detail::concept_adapter<boost::iostreams::basic_null_device<char,boost::iostreams::output> > > > >
PUBLIC	??$execute_all@V?$member_close_operation@V?$linked_streambuf@DU?$char_traits@D@std@@@detail@iostreams@boost@@@detail@iostreams@boost@@V1234@V?$reset_operation@V?$optional@V?$concept_adapter@V?$basic_null_device@DUoutput@iostreams@boost@@@iostreams@boost@@@detail@iostreams@boost@@@detail@iostreams@boost@@@234@V?$clear_flags_operation@H@234@@detail@iostreams@boost@@YAHV?$member_close_operation@V?$linked_streambuf@DU?$char_traits@D@std@@@detail@iostreams@boost@@@012@0V?$reset_operation@V?$optional@V?$concept_adapter@V?$basic_null_device@DUoutput@iostreams@boost@@@iostreams@boost@@@detail@iostreams@boost@@@detail@iostreams@boost@@@012@V?$clear_flags_operation@H@012@@Z ; boost::iostreams::detail::execute_all<boost::iostreams::detail::member_close_operation<boost::iostreams::detail::linked_streambuf<char,std::char_traits<char> > >,boost::iostreams::detail::member_close_operation<boost::iostreams::detail::linked_streambuf<char,std::char_traits<char> > >,boost::iostreams::detail::reset_operation<boost::iostreams::detail::optional<boost::iostreams::detail::concept_adapter<boost::iostreams::basic_null_device<char,boost::iostreams::output> > > >,boost::iostreams::detail::clear_flags_operation<int> >
PUBLIC	?close@?$indirect_streambuf@V?$basic_null_device@DUoutput@iostreams@boost@@@iostreams@boost@@U?$char_traits@D@std@@V?$allocator@D@5@Uoutput@23@@detail@iostreams@boost@@QAEXXZ ; boost::iostreams::detail::indirect_streambuf<boost::iostreams::basic_null_device<char,boost::iostreams::output>,std::char_traits<char>,std::allocator<char>,boost::iostreams::output>::close
PUBLIC	??1?$optional@V?$concept_adapter@V?$basic_null_device@DUoutput@iostreams@boost@@@iostreams@boost@@@detail@iostreams@boost@@@detail@iostreams@boost@@QAE@XZ ; boost::iostreams::detail::optional<boost::iostreams::detail::concept_adapter<boost::iostreams::basic_null_device<char,boost::iostreams::output> > >::~optional<boost::iostreams::detail::concept_adapter<boost::iostreams::basic_null_device<char,boost::iostreams::output> > >
PUBLIC	??1?$indirect_streambuf@V?$basic_null_device@DUoutput@iostreams@boost@@@iostreams@boost@@U?$char_traits@D@std@@V?$allocator@D@5@Uoutput@23@@detail@iostreams@boost@@UAE@XZ ; boost::iostreams::detail::indirect_streambuf<boost::iostreams::basic_null_device<char,boost::iostreams::output>,std::char_traits<char>,std::allocator<char>,boost::iostreams::output>::~indirect_streambuf<boost::iostreams::basic_null_device<char,boost::iostreams::output>,std::char_traits<char>,std::allocator<char>,boost::iostreams::output>
PUBLIC	?auto_close@?$indirect_streambuf@V?$basic_null_device@DUoutput@iostreams@boost@@@iostreams@boost@@U?$char_traits@D@std@@V?$allocator@D@5@Uoutput@23@@detail@iostreams@boost@@UBE_NXZ ; boost::iostreams::detail::indirect_streambuf<boost::iostreams::basic_null_device<char,boost::iostreams::output>,std::char_traits<char>,std::allocator<char>,boost::iostreams::output>::auto_close
PUBLIC	?set_auto_close@?$indirect_streambuf@V?$basic_null_device@DUoutput@iostreams@boost@@@iostreams@boost@@U?$char_traits@D@std@@V?$allocator@D@5@Uoutput@23@@detail@iostreams@boost@@UAEX_N@Z ; boost::iostreams::detail::indirect_streambuf<boost::iostreams::basic_null_device<char,boost::iostreams::output>,std::char_traits<char>,std::allocator<char>,boost::iostreams::output>::set_auto_close
PUBLIC	?strict_sync@?$indirect_streambuf@V?$basic_null_device@DUoutput@iostreams@boost@@@iostreams@boost@@U?$char_traits@D@std@@V?$allocator@D@5@Uoutput@23@@detail@iostreams@boost@@UAE_NXZ ; boost::iostreams::detail::indirect_streambuf<boost::iostreams::basic_null_device<char,boost::iostreams::output>,std::char_traits<char>,std::allocator<char>,boost::iostreams::output>::strict_sync
PUBLIC	??$imbue@V?$basic_null_device@DUoutput@iostreams@boost@@@iostreams@boost@@Vlocale@std@@@?$imbue_impl@Uany_tag@iostreams@boost@@@detail@iostreams@boost@@SAXAAV?$basic_null_device@DUoutput@iostreams@boost@@@23@ABVlocale@std@@@Z ; boost::iostreams::detail::imbue_impl<boost::iostreams::any_tag>::imbue<boost::iostreams::basic_null_device<char,boost::iostreams::output>,std::locale>
PUBLIC	??$imbue@V?$basic_null_device@DUoutput@iostreams@boost@@@iostreams@boost@@Vlocale@std@@@iostreams@boost@@YAXAAV?$basic_null_device@DUoutput@iostreams@boost@@@01@ABVlocale@std@@@Z ; boost::iostreams::imbue<boost::iostreams::basic_null_device<char,boost::iostreams::output>,std::locale>
PUBLIC	??$imbue@Vlocale@std@@@?$concept_adapter@V?$basic_null_device@DUoutput@iostreams@boost@@@iostreams@boost@@@detail@iostreams@boost@@QAEXABVlocale@std@@@Z ; boost::iostreams::detail::concept_adapter<boost::iostreams::basic_null_device<char,boost::iostreams::output> >::imbue<std::locale>
PUBLIC	?imbue@?$indirect_streambuf@V?$basic_null_device@DUoutput@iostreams@boost@@@iostreams@boost@@U?$char_traits@D@std@@V?$allocator@D@5@Uoutput@23@@detail@iostreams@boost@@MAEXABVlocale@std@@@Z ; boost::iostreams::detail::indirect_streambuf<boost::iostreams::basic_null_device<char,boost::iostreams::output>,std::char_traits<char>,std::allocator<char>,boost::iostreams::output>::imbue
PUBLIC	??$read@V?$basic_null_device@DUoutput@iostreams@boost@@@iostreams@boost@@V?$linked_streambuf@DU?$char_traits@D@std@@@detail@23@@?$device_wrapper_impl@Uoutput@iostreams@boost@@@detail@iostreams@boost@@SAHAAV?$basic_null_device@DUoutput@iostreams@boost@@@23@PAV?$linked_streambuf@DU?$char_traits@D@std@@@123@PADH@Z ; boost::iostreams::detail::device_wrapper_impl<boost::iostreams::output>::read<boost::iostreams::basic_null_device<char,boost::iostreams::output>,boost::iostreams::detail::linked_streambuf<char,std::char_traits<char> > >
PUBLIC	??$read@V?$linked_streambuf@DU?$char_traits@D@std@@@detail@iostreams@boost@@@?$concept_adapter@V?$basic_null_device@DUoutput@iostreams@boost@@@iostreams@boost@@@detail@iostreams@boost@@QAEHPADHPAV?$linked_streambuf@DU?$char_traits@D@std@@@123@@Z ; boost::iostreams::detail::concept_adapter<boost::iostreams::basic_null_device<char,boost::iostreams::output> >::read<boost::iostreams::detail::linked_streambuf<char,std::char_traits<char> > >
PUBLIC	?underflow@?$indirect_streambuf@V?$basic_null_device@DUoutput@iostreams@boost@@@iostreams@boost@@U?$char_traits@D@std@@V?$allocator@D@5@Uoutput@23@@detail@iostreams@boost@@MAEHXZ ; boost::iostreams::detail::indirect_streambuf<boost::iostreams::basic_null_device<char,boost::iostreams::output>,std::char_traits<char>,std::allocator<char>,boost::iostreams::output>::underflow
PUBLIC	?pbackfail@?$indirect_streambuf@V?$basic_null_device@DUoutput@iostreams@boost@@@iostreams@boost@@U?$char_traits@D@std@@V?$allocator@D@5@Uoutput@23@@detail@iostreams@boost@@MAEHH@Z ; boost::iostreams::detail::indirect_streambuf<boost::iostreams::basic_null_device<char,boost::iostreams::output>,std::char_traits<char>,std::allocator<char>,boost::iostreams::output>::pbackfail
PUBLIC	?overflow@?$indirect_streambuf@V?$basic_null_device@DUoutput@iostreams@boost@@@iostreams@boost@@U?$char_traits@D@std@@V?$allocator@D@5@Uoutput@23@@detail@iostreams@boost@@MAEHH@Z ; boost::iostreams::detail::indirect_streambuf<boost::iostreams::basic_null_device<char,boost::iostreams::output>,std::char_traits<char>,std::allocator<char>,boost::iostreams::output>::overflow
PUBLIC	??$flush@V?$basic_null_device@DUoutput@iostreams@boost@@@iostreams@boost@@@?$flush_device_impl@Uany_tag@iostreams@boost@@@detail@iostreams@boost@@SA_NAAV?$basic_null_device@DUoutput@iostreams@boost@@@23@@Z ; boost::iostreams::detail::flush_device_impl<boost::iostreams::any_tag>::flush<boost::iostreams::basic_null_device<char,boost::iostreams::output> >
PUBLIC	??$flush@V?$basic_null_device@DUoutput@iostreams@boost@@@iostreams@boost@@@iostreams@boost@@YA_NAAV?$basic_null_device@DUoutput@iostreams@boost@@@01@@Z ; boost::iostreams::flush<boost::iostreams::basic_null_device<char,boost::iostreams::output> >
PUBLIC	??$flush@V?$basic_null_device@DUoutput@iostreams@boost@@@iostreams@boost@@V?$basic_streambuf@DU?$char_traits@D@std@@@std@@@?$device_wrapper_impl@Uany_tag@iostreams@boost@@@detail@iostreams@boost@@SA_NAAV?$basic_null_device@DUoutput@iostreams@boost@@@23@PAV?$basic_streambuf@DU?$char_traits@D@std@@@std@@@Z ; boost::iostreams::detail::device_wrapper_impl<boost::iostreams::any_tag>::flush<boost::iostreams::basic_null_device<char,boost::iostreams::output>,std::basic_streambuf<char,std::char_traits<char> > >
PUBLIC	?flush@?$concept_adapter@V?$basic_null_device@DUoutput@iostreams@boost@@@iostreams@boost@@@detail@iostreams@boost@@QAE_NPAV?$basic_streambuf@DU?$char_traits@D@std@@@std@@@Z ; boost::iostreams::detail::concept_adapter<boost::iostreams::basic_null_device<char,boost::iostreams::output> >::flush
PUBLIC	?sync@?$indirect_streambuf@V?$basic_null_device@DUoutput@iostreams@boost@@@iostreams@boost@@U?$char_traits@D@std@@V?$allocator@D@5@Uoutput@23@@detail@iostreams@boost@@MAEHXZ ; boost::iostreams::detail::indirect_streambuf<boost::iostreams::basic_null_device<char,boost::iostreams::output>,std::char_traits<char>,std::allocator<char>,boost::iostreams::output>::sync
PUBLIC	?seekoff@?$indirect_streambuf@V?$basic_null_device@DUoutput@iostreams@boost@@@iostreams@boost@@U?$char_traits@D@std@@V?$allocator@D@5@Uoutput@23@@detail@iostreams@boost@@MAE?AV?$fpos@H@std@@JHH@Z ; boost::iostreams::detail::indirect_streambuf<boost::iostreams::basic_null_device<char,boost::iostreams::output>,std::char_traits<char>,std::allocator<char>,boost::iostreams::output>::seekoff
PUBLIC	??0category@?$basic_null_device@DUoutput@iostreams@boost@@@iostreams@boost@@QAE@XZ ; boost::iostreams::basic_null_device<char,boost::iostreams::output>::category::category
PUBLIC	??$seek@V?$basic_null_device@DUoutput@iostreams@boost@@@iostreams@boost@@@?$device_wrapper_impl@Uany_tag@iostreams@boost@@@detail@iostreams@boost@@SA?AV?$fpos@H@std@@AAV?$basic_null_device@DUoutput@iostreams@boost@@@23@_JHHUany_tag@23@@Z ; boost::iostreams::detail::device_wrapper_impl<boost::iostreams::any_tag>::seek<boost::iostreams::basic_null_device<char,boost::iostreams::output> >
PUBLIC	??$seek@V?$basic_null_device@DUoutput@iostreams@boost@@@iostreams@boost@@V?$linked_streambuf@DU?$char_traits@D@std@@@detail@23@@?$device_wrapper_impl@Uany_tag@iostreams@boost@@@detail@iostreams@boost@@SA?AV?$fpos@H@std@@AAV?$basic_null_device@DUoutput@iostreams@boost@@@23@PAV?$linked_streambuf@DU?$char_traits@D@std@@@123@_JHH@Z ; boost::iostreams::detail::device_wrapper_impl<boost::iostreams::any_tag>::seek<boost::iostreams::basic_null_device<char,boost::iostreams::output>,boost::iostreams::detail::linked_streambuf<char,std::char_traits<char> > >
PUBLIC	??$seek@V?$linked_streambuf@DU?$char_traits@D@std@@@detail@iostreams@boost@@@?$concept_adapter@V?$basic_null_device@DUoutput@iostreams@boost@@@iostreams@boost@@@detail@iostreams@boost@@QAE?AV?$fpos@H@std@@_JHHPAV?$linked_streambuf@DU?$char_traits@D@std@@@123@@Z ; boost::iostreams::detail::concept_adapter<boost::iostreams::basic_null_device<char,boost::iostreams::output> >::seek<boost::iostreams::detail::linked_streambuf<char,std::char_traits<char> > >
PUBLIC	?seek_impl@?$indirect_streambuf@V?$basic_null_device@DUoutput@iostreams@boost@@@iostreams@boost@@U?$char_traits@D@std@@V?$allocator@D@5@Uoutput@23@@detail@iostreams@boost@@AAE?AV?$fpos@H@std@@_JHH@Z ; boost::iostreams::detail::indirect_streambuf<boost::iostreams::basic_null_device<char,boost::iostreams::output>,std::char_traits<char>,std::allocator<char>,boost::iostreams::output>::seek_impl
PUBLIC	?seekpos@?$indirect_streambuf@V?$basic_null_device@DUoutput@iostreams@boost@@@iostreams@boost@@U?$char_traits@D@std@@V?$allocator@D@5@Uoutput@23@@detail@iostreams@boost@@MAE?AV?$fpos@H@std@@V56@H@Z ; boost::iostreams::detail::indirect_streambuf<boost::iostreams::basic_null_device<char,boost::iostreams::output>,std::char_traits<char>,std::allocator<char>,boost::iostreams::output>::seekpos
PUBLIC	?set_next@?$indirect_streambuf@V?$basic_null_device@DUoutput@iostreams@boost@@@iostreams@boost@@U?$char_traits@D@std@@V?$allocator@D@5@Uoutput@23@@detail@iostreams@boost@@MAEXPAV?$linked_streambuf@DU?$char_traits@D@std@@@234@@Z ; boost::iostreams::detail::indirect_streambuf<boost::iostreams::basic_null_device<char,boost::iostreams::output>,std::char_traits<char>,std::allocator<char>,boost::iostreams::output>::set_next
PUBLIC	??$close_all@V?$basic_null_device@DUoutput@iostreams@boost@@@iostreams@boost@@@detail@iostreams@boost@@YAXAAV?$basic_null_device@DUoutput@iostreams@boost@@@12@@Z ; boost::iostreams::detail::close_all<boost::iostreams::basic_null_device<char,boost::iostreams::output> >
PUBLIC	?close@?$basic_null_device@DUoutput@iostreams@boost@@@iostreams@boost@@QAEXXZ ; boost::iostreams::basic_null_device<char,boost::iostreams::output>::close
PUBLIC	??$close@V?$basic_null_device@DUoutput@iostreams@boost@@@iostreams@boost@@@?$close_impl@Uclosable_tag@iostreams@boost@@@detail@iostreams@boost@@SAXAAV?$basic_null_device@DUoutput@iostreams@boost@@@23@H@Z ; boost::iostreams::detail::close_impl<boost::iostreams::closable_tag>::close<boost::iostreams::basic_null_device<char,boost::iostreams::output> >
PUBLIC	??$close@V?$basic_null_device@DUoutput@iostreams@boost@@@iostreams@boost@@@iostreams@boost@@YAXAAV?$basic_null_device@DUoutput@iostreams@boost@@@01@H@Z ; boost::iostreams::close<boost::iostreams::basic_null_device<char,boost::iostreams::output> >
PUBLIC	??$close@V?$basic_null_device@DUoutput@iostreams@boost@@@iostreams@boost@@V?$linked_streambuf@DU?$char_traits@D@std@@@detail@23@@?$device_wrapper_impl@Uany_tag@iostreams@boost@@@detail@iostreams@boost@@SAXAAV?$basic_null_device@DUoutput@iostreams@boost@@@23@PAV?$linked_streambuf@DU?$char_traits@D@std@@@123@H@Z ; boost::iostreams::detail::device_wrapper_impl<boost::iostreams::any_tag>::close<boost::iostreams::basic_null_device<char,boost::iostreams::output>,boost::iostreams::detail::linked_streambuf<char,std::char_traits<char> > >
PUBLIC	??$close@V?$linked_streambuf@DU?$char_traits@D@std@@@detail@iostreams@boost@@@?$concept_adapter@V?$basic_null_device@DUoutput@iostreams@boost@@@iostreams@boost@@@detail@iostreams@boost@@QAEXHPAV?$linked_streambuf@DU?$char_traits@D@std@@@123@@Z ; boost::iostreams::detail::concept_adapter<boost::iostreams::basic_null_device<char,boost::iostreams::output> >::close<boost::iostreams::detail::linked_streambuf<char,std::char_traits<char> > >
PUBLIC	?close_impl@?$indirect_streambuf@V?$basic_null_device@DUoutput@iostreams@boost@@@iostreams@boost@@U?$char_traits@D@std@@V?$allocator@D@5@Uoutput@23@@detail@iostreams@boost@@MAEXH@Z ; boost::iostreams::detail::indirect_streambuf<boost::iostreams::basic_null_device<char,boost::iostreams::output>,std::char_traits<char>,std::allocator<char>,boost::iostreams::output>::close_impl
PUBLIC	?component_type@?$indirect_streambuf@V?$basic_null_device@DUoutput@iostreams@boost@@@iostreams@boost@@U?$char_traits@D@std@@V?$allocator@D@5@Uoutput@23@@detail@iostreams@boost@@MBEABVtype_info@@XZ ; boost::iostreams::detail::indirect_streambuf<boost::iostreams::basic_null_device<char,boost::iostreams::output>,std::char_traits<char>,std::allocator<char>,boost::iostreams::output>::component_type
PUBLIC	??D?$concept_adapter@V?$basic_null_device@DUoutput@iostreams@boost@@@iostreams@boost@@@detail@iostreams@boost@@QAEAAV?$basic_null_device@DUoutput@iostreams@boost@@@23@XZ ; boost::iostreams::detail::concept_adapter<boost::iostreams::basic_null_device<char,boost::iostreams::output> >::operator*
PUBLIC	?component@?$indirect_streambuf@V?$basic_null_device@DUoutput@iostreams@boost@@@iostreams@boost@@U?$char_traits@D@std@@V?$allocator@D@5@Uoutput@23@@detail@iostreams@boost@@QAEPAV?$basic_null_device@DUoutput@iostreams@boost@@@34@XZ ; boost::iostreams::detail::indirect_streambuf<boost::iostreams::basic_null_device<char,boost::iostreams::output>,std::char_traits<char>,std::allocator<char>,boost::iostreams::output>::component
PUBLIC	?component_impl@?$indirect_streambuf@V?$basic_null_device@DUoutput@iostreams@boost@@@iostreams@boost@@U?$char_traits@D@std@@V?$allocator@D@5@Uoutput@23@@detail@iostreams@boost@@MAEPAXXZ ; boost::iostreams::detail::indirect_streambuf<boost::iostreams::basic_null_device<char,boost::iostreams::output>,std::char_traits<char>,std::allocator<char>,boost::iostreams::output>::component_impl
PUBLIC	??D?$optional@V?$concept_adapter@V?$basic_null_device@DUoutput@iostreams@boost@@@iostreams@boost@@@detail@iostreams@boost@@@detail@iostreams@boost@@QAEAAV?$concept_adapter@V?$basic_null_device@DUoutput@iostreams@boost@@@iostreams@boost@@@123@XZ ; boost::iostreams::detail::optional<boost::iostreams::detail::concept_adapter<boost::iostreams::basic_null_device<char,boost::iostreams::output> > >::operator*
PUBLIC	?obj@?$indirect_streambuf@V?$basic_null_device@DUoutput@iostreams@boost@@@iostreams@boost@@U?$char_traits@D@std@@V?$allocator@D@5@Uoutput@23@@detail@iostreams@boost@@AAEAAV?$concept_adapter@V?$basic_null_device@DUoutput@iostreams@boost@@@iostreams@boost@@@234@XZ ; boost::iostreams::detail::indirect_streambuf<boost::iostreams::basic_null_device<char,boost::iostreams::output>,std::char_traits<char>,std::allocator<char>,boost::iostreams::output>::obj
PUBLIC	?next@?$indirect_streambuf@V?$basic_null_device@DUoutput@iostreams@boost@@@iostreams@boost@@U?$char_traits@D@std@@V?$allocator@D@5@Uoutput@23@@detail@iostreams@boost@@ABEPAV?$linked_streambuf@DU?$char_traits@D@std@@@234@XZ ; boost::iostreams::detail::indirect_streambuf<boost::iostreams::basic_null_device<char,boost::iostreams::output>,std::char_traits<char>,std::allocator<char>,boost::iostreams::output>::next
PUBLIC	??$unwrap@V?$basic_null_device@DUoutput@iostreams@boost@@@iostreams@boost@@@detail@iostreams@boost@@YAAAV?$basic_null_device@DUoutput@iostreams@boost@@@12@AAV312@@Z ; boost::iostreams::detail::unwrap<boost::iostreams::basic_null_device<char,boost::iostreams::output> >
PUBLIC	??$write@V?$basic_null_device@DUoutput@iostreams@boost@@@iostreams@boost@@@?$write_device_impl@Uoutput@iostreams@boost@@@detail@iostreams@boost@@SAHAAV?$basic_null_device@DUoutput@iostreams@boost@@@23@PBDH@Z ; boost::iostreams::detail::write_device_impl<boost::iostreams::output>::write<boost::iostreams::basic_null_device<char,boost::iostreams::output> >
PUBLIC	??$write@V?$basic_null_device@DUoutput@iostreams@boost@@@iostreams@boost@@@iostreams@boost@@YAHAAV?$basic_null_device@DUoutput@iostreams@boost@@@01@PBDH@Z ; boost::iostreams::write<boost::iostreams::basic_null_device<char,boost::iostreams::output> >
PUBLIC	??$write@V?$basic_null_device@DUoutput@iostreams@boost@@@iostreams@boost@@V?$linked_streambuf@DU?$char_traits@D@std@@@detail@23@@?$device_wrapper_impl@Uoutput@iostreams@boost@@@detail@iostreams@boost@@SAHAAV?$basic_null_device@DUoutput@iostreams@boost@@@23@PAV?$linked_streambuf@DU?$char_traits@D@std@@@123@PBDH@Z ; boost::iostreams::detail::device_wrapper_impl<boost::iostreams::output>::write<boost::iostreams::basic_null_device<char,boost::iostreams::output>,boost::iostreams::detail::linked_streambuf<char,std::char_traits<char> > >
PUBLIC	??$write@V?$linked_streambuf@DU?$char_traits@D@std@@@detail@iostreams@boost@@@?$concept_adapter@V?$basic_null_device@DUoutput@iostreams@boost@@@iostreams@boost@@@detail@iostreams@boost@@QAEHPBDHPAV?$linked_streambuf@DU?$char_traits@D@std@@@123@@Z ; boost::iostreams::detail::concept_adapter<boost::iostreams::basic_null_device<char,boost::iostreams::output> >::write<boost::iostreams::detail::linked_streambuf<char,std::char_traits<char> > >
PUBLIC	?sync_impl@?$indirect_streambuf@V?$basic_null_device@DUoutput@iostreams@boost@@@iostreams@boost@@U?$char_traits@D@std@@V?$allocator@D@5@Uoutput@23@@detail@iostreams@boost@@AAEXXZ ; boost::iostreams::detail::indirect_streambuf<boost::iostreams::basic_null_device<char,boost::iostreams::output>,std::char_traits<char>,std::allocator<char>,boost::iostreams::output>::sync_impl
PUBLIC	?init_get_area@?$indirect_streambuf@V?$basic_null_device@DUoutput@iostreams@boost@@@iostreams@boost@@U?$char_traits@D@std@@V?$allocator@D@5@Uoutput@23@@detail@iostreams@boost@@EAEXXZ ; boost::iostreams::detail::indirect_streambuf<boost::iostreams::basic_null_device<char,boost::iostreams::output>,std::char_traits<char>,std::allocator<char>,boost::iostreams::output>::init_get_area
PUBLIC	?output_buffered@?$indirect_streambuf@V?$basic_null_device@DUoutput@iostreams@boost@@@iostreams@boost@@U?$char_traits@D@std@@V?$allocator@D@5@Uoutput@23@@detail@iostreams@boost@@ABE_NXZ ; boost::iostreams::detail::indirect_streambuf<boost::iostreams::basic_null_device<char,boost::iostreams::output>,std::char_traits<char>,std::allocator<char>,boost::iostreams::output>::output_buffered
PUBLIC	?init_put_area@?$indirect_streambuf@V?$basic_null_device@DUoutput@iostreams@boost@@@iostreams@boost@@U?$char_traits@D@std@@V?$allocator@D@5@Uoutput@23@@detail@iostreams@boost@@EAEXXZ ; boost::iostreams::detail::indirect_streambuf<boost::iostreams::basic_null_device<char,boost::iostreams::output>,std::char_traits<char>,std::allocator<char>,boost::iostreams::output>::init_put_area
PUBLIC	??_G?$stream_buffer@V?$basic_null_device@DUoutput@iostreams@boost@@@iostreams@boost@@U?$char_traits@D@std@@V?$allocator@D@5@Uoutput@23@@iostreams@boost@@UAEPAXI@Z ; boost::iostreams::stream_buffer<boost::iostreams::basic_null_device<char,boost::iostreams::output>,std::char_traits<char>,std::allocator<char>,boost::iostreams::output>::`scalar deleting destructor'
PUBLIC	??1?$stream_buffer@V?$basic_null_device@DUoutput@iostreams@boost@@@iostreams@boost@@U?$char_traits@D@std@@V?$allocator@D@5@Uoutput@23@@iostreams@boost@@UAE@XZ ; boost::iostreams::stream_buffer<boost::iostreams::basic_null_device<char,boost::iostreams::output>,std::char_traits<char>,std::allocator<char>,boost::iostreams::output>::~stream_buffer<boost::iostreams::basic_null_device<char,boost::iostreams::output>,std::char_traits<char>,std::allocator<char>,boost::iostreams::output>
PUBLIC	?in@?$indirect_streambuf@V?$basic_null_device@DUoutput@iostreams@boost@@@iostreams@boost@@U?$char_traits@D@std@@V?$allocator@D@5@Uoutput@23@@detail@iostreams@boost@@AAEAAV?$basic_buffer@DV?$allocator@D@std@@@234@XZ ; boost::iostreams::detail::indirect_streambuf<boost::iostreams::basic_null_device<char,boost::iostreams::output>,std::char_traits<char>,std::allocator<char>,boost::iostreams::output>::in
PUBLIC	?out@?$indirect_streambuf@V?$basic_null_device@DUoutput@iostreams@boost@@@iostreams@boost@@U?$char_traits@D@std@@V?$allocator@D@5@Uoutput@23@@detail@iostreams@boost@@AAEAAV?$basic_buffer@DV?$allocator@D@std@@@234@XZ ; boost::iostreams::detail::indirect_streambuf<boost::iostreams::basic_null_device<char,boost::iostreams::output>,std::char_traits<char>,std::allocator<char>,boost::iostreams::output>::out
PUBLIC	?can_read@?$indirect_streambuf@V?$basic_null_device@DUoutput@iostreams@boost@@@iostreams@boost@@U?$char_traits@D@std@@V?$allocator@D@5@Uoutput@23@@detail@iostreams@boost@@ABE_NXZ ; boost::iostreams::detail::indirect_streambuf<boost::iostreams::basic_null_device<char,boost::iostreams::output>,std::char_traits<char>,std::allocator<char>,boost::iostreams::output>::can_read
PUBLIC	?can_write@?$indirect_streambuf@V?$basic_null_device@DUoutput@iostreams@boost@@@iostreams@boost@@U?$char_traits@D@std@@V?$allocator@D@5@Uoutput@23@@detail@iostreams@boost@@ABE_NXZ ; boost::iostreams::detail::indirect_streambuf<boost::iostreams::basic_null_device<char,boost::iostreams::output>,std::char_traits<char>,std::allocator<char>,boost::iostreams::output>::can_write
PUBLIC	?shared_buffer@?$indirect_streambuf@V?$basic_null_device@DUoutput@iostreams@boost@@@iostreams@boost@@U?$char_traits@D@std@@V?$allocator@D@5@Uoutput@23@@detail@iostreams@boost@@ABE_NXZ ; boost::iostreams::detail::indirect_streambuf<boost::iostreams::basic_null_device<char,boost::iostreams::output>,std::char_traits<char>,std::allocator<char>,boost::iostreams::output>::shared_buffer
PUBLIC	?reset@?$optional@V?$concept_adapter@V?$basic_null_device@DUoutput@iostreams@boost@@@iostreams@boost@@@detail@iostreams@boost@@@detail@iostreams@boost@@QAEXXZ ; boost::iostreams::detail::optional<boost::iostreams::detail::concept_adapter<boost::iostreams::basic_null_device<char,boost::iostreams::output> > >::reset
PUBLIC	?address@?$optional@V?$concept_adapter@V?$basic_null_device@DUoutput@iostreams@boost@@@iostreams@boost@@@detail@iostreams@boost@@@detail@iostreams@boost@@AAEPAXXZ ; boost::iostreams::detail::optional<boost::iostreams::detail::concept_adapter<boost::iostreams::basic_null_device<char,boost::iostreams::output> > >::address
PUBLIC	?reset@?$optional@V?$concept_adapter@V?$basic_null_device@DUoutput@iostreams@boost@@@iostreams@boost@@@detail@iostreams@boost@@@detail@iostreams@boost@@QAEXABV?$concept_adapter@V?$basic_null_device@DUoutput@iostreams@boost@@@iostreams@boost@@@234@@Z ; boost::iostreams::detail::optional<boost::iostreams::detail::concept_adapter<boost::iostreams::basic_null_device<char,boost::iostreams::output> > >::reset
PUBLIC	??0?$concept_adapter@V?$basic_null_device@DUoutput@iostreams@boost@@@iostreams@boost@@@detail@iostreams@boost@@QAE@ABV?$basic_null_device@DUoutput@iostreams@boost@@@23@@Z ; boost::iostreams::detail::concept_adapter<boost::iostreams::basic_null_device<char,boost::iostreams::output> >::concept_adapter<boost::iostreams::basic_null_device<char,boost::iostreams::output> >
PUBLIC	??$unwrap@V?$basic_null_device@DUoutput@iostreams@boost@@@iostreams@boost@@@detail@iostreams@boost@@YAABV?$basic_null_device@DUoutput@iostreams@boost@@@12@ABV312@@Z ; boost::iostreams::detail::unwrap<boost::iostreams::basic_null_device<char,boost::iostreams::output> >
PUBLIC	??$optimal_buffer_size@V?$basic_null_device@DUoutput@iostreams@boost@@@iostreams@boost@@@?$optimal_buffer_size_impl@Udevice_tag@iostreams@boost@@@detail@iostreams@boost@@SAHABV?$basic_null_device@DUoutput@iostreams@boost@@@23@@Z ; boost::iostreams::detail::optimal_buffer_size_impl<boost::iostreams::device_tag>::optimal_buffer_size<boost::iostreams::basic_null_device<char,boost::iostreams::output> >
PUBLIC	??$optimal_buffer_size@V?$basic_null_device@DUoutput@iostreams@boost@@@iostreams@boost@@@iostreams@boost@@YAHABV?$basic_null_device@DUoutput@iostreams@boost@@@01@@Z ; boost::iostreams::optimal_buffer_size<boost::iostreams::basic_null_device<char,boost::iostreams::output> >
PUBLIC	?open@?$indirect_streambuf@V?$basic_null_device@DUoutput@iostreams@boost@@@iostreams@boost@@U?$char_traits@D@std@@V?$allocator@D@5@Uoutput@23@@detail@iostreams@boost@@QAEXABV?$basic_null_device@DUoutput@iostreams@boost@@@34@HH@Z ; boost::iostreams::detail::indirect_streambuf<boost::iostreams::basic_null_device<char,boost::iostreams::output>,std::char_traits<char>,std::allocator<char>,boost::iostreams::output>::open
PUBLIC	?is_open@?$indirect_streambuf@V?$basic_null_device@DUoutput@iostreams@boost@@@iostreams@boost@@U?$char_traits@D@std@@V?$allocator@D@5@Uoutput@23@@detail@iostreams@boost@@QBE_NXZ ; boost::iostreams::detail::indirect_streambuf<boost::iostreams::basic_null_device<char,boost::iostreams::output>,std::char_traits<char>,std::allocator<char>,boost::iostreams::output>::is_open
PUBLIC	?open_impl@?$stream_buffer@V?$basic_null_device@DUoutput@iostreams@boost@@@iostreams@boost@@U?$char_traits@D@std@@V?$allocator@D@5@Uoutput@23@@iostreams@boost@@AAEXABV?$basic_null_device@DUoutput@iostreams@boost@@@23@HH@Z ; boost::iostreams::stream_buffer<boost::iostreams::basic_null_device<char,boost::iostreams::output>,std::char_traits<char>,std::allocator<char>,boost::iostreams::output>::open_impl
PUBLIC	??$wrap@V?$basic_null_device@DUoutput@iostreams@boost@@@iostreams@boost@@@detail@iostreams@boost@@YA?AV?$basic_null_device@DUoutput@iostreams@boost@@@12@ABV312@PAX@Z ; boost::iostreams::detail::wrap<boost::iostreams::basic_null_device<char,boost::iostreams::output> >
PUBLIC	?open@?$stream_buffer@V?$basic_null_device@DUoutput@iostreams@boost@@@iostreams@boost@@U?$char_traits@D@std@@V?$allocator@D@5@Uoutput@23@@iostreams@boost@@QAEXABV?$basic_null_device@DUoutput@iostreams@boost@@@23@HH@Z ; boost::iostreams::stream_buffer<boost::iostreams::basic_null_device<char,boost::iostreams::output>,std::char_traits<char>,std::allocator<char>,boost::iostreams::output>::open
PUBLIC	??0closer@?$chain_base@V?$chain@Uoutput@iostreams@boost@@DU?$char_traits@D@std@@V?$allocator@D@5@@iostreams@boost@@DU?$char_traits@D@std@@V?$allocator@D@5@Uoutput@23@@detail@iostreams@boost@@QAE@H@Z ; boost::iostreams::detail::chain_base<boost::iostreams::chain<boost::iostreams::output,char,std::char_traits<char>,std::allocator<char> >,char,std::char_traits<char>,std::allocator<char>,boost::iostreams::output>::closer::closer
PUBLIC	??$execute_foreach@V?$reverse_iterator@V?$_Iterator@$00@?$list@PAV?$linked_streambuf@DU?$char_traits@D@std@@@detail@iostreams@boost@@V?$allocator@PAV?$linked_streambuf@DU?$char_traits@D@std@@@detail@iostreams@boost@@@std@@@std@@@std@@Ucloser@?$chain_base@V?$chain@Uoutput@iostreams@boost@@DU?$char_traits@D@std@@V?$allocator@D@5@@iostreams@boost@@DU?$char_traits@D@std@@V?$allocator@D@5@Uoutput@23@@detail@iostreams@boost@@@detail@iostreams@boost@@YA?AUcloser@?$chain_base@V?$chain@Uoutput@iostreams@boost@@DU?$char_traits@D@std@@V?$allocator@D@5@@iostreams@boost@@DU?$char_traits@D@std@@V?$allocator@D@5@Uoutput@23@@012@V?$reverse_iterator@V?$_Iterator@$00@?$list@PAV?$linked_streambuf@DU?$char_traits@D@std@@@detail@iostreams@boost@@V?$allocator@PAV?$linked_streambuf@DU?$char_traits@D@std@@@detail@iostreams@boost@@@std@@@std@@@std@@0U34012@@Z ; boost::iostreams::detail::execute_foreach<std::reverse_iterator<std::list<boost::iostreams::detail::linked_streambuf<char,std::char_traits<char> > *,std::allocator<boost::iostreams::detail::linked_streambuf<char,std::char_traits<char> > *> >::_Iterator<1> >,boost::iostreams::detail::chain_base<boost::iostreams::chain<boost::iostreams::output,char,std::char_traits<char>,std::allocator<char> >,char,std::char_traits<char>,std::allocator<char>,boost::iostreams::output>::closer>
PUBLIC	?close@?$chain_base@V?$chain@Uoutput@iostreams@boost@@DU?$char_traits@D@std@@V?$allocator@D@5@@iostreams@boost@@DU?$char_traits@D@std@@V?$allocator@D@5@Uoutput@23@@detail@iostreams@boost@@CAXPAV?$linked_streambuf@DU?$char_traits@D@std@@@234@H@Z ; boost::iostreams::detail::chain_base<boost::iostreams::chain<boost::iostreams::output,char,std::char_traits<char>,std::allocator<char> >,char,std::char_traits<char>,std::allocator<char>,boost::iostreams::output>::close
PUBLIC	??Rcloser@?$chain_base@V?$chain@Uoutput@iostreams@boost@@DU?$char_traits@D@std@@V?$allocator@D@5@@iostreams@boost@@DU?$char_traits@D@std@@V?$allocator@D@5@Uoutput@23@@detail@iostreams@boost@@QAEXPAV?$linked_streambuf@DU?$char_traits@D@std@@@234@@Z ; boost::iostreams::detail::chain_base<boost::iostreams::chain<boost::iostreams::output,char,std::char_traits<char>,std::allocator<char> >,char,std::char_traits<char>,std::allocator<char>,boost::iostreams::output>::closer::operator()
PUBLIC	??$execute_foreach@V?$_Iterator@$00@?$list@PAV?$linked_streambuf@DU?$char_traits@D@std@@@detail@iostreams@boost@@V?$allocator@PAV?$linked_streambuf@DU?$char_traits@D@std@@@detail@iostreams@boost@@@std@@@std@@Ucloser@?$chain_base@V?$chain@Uoutput@iostreams@boost@@DU?$char_traits@D@std@@V?$allocator@D@5@@iostreams@boost@@DU?$char_traits@D@std@@V?$allocator@D@5@Uoutput@23@@detail@iostreams@boost@@@detail@iostreams@boost@@YA?AUcloser@?$chain_base@V?$chain@Uoutput@iostreams@boost@@DU?$char_traits@D@std@@V?$allocator@D@5@@iostreams@boost@@DU?$char_traits@D@std@@V?$allocator@D@5@Uoutput@23@@012@V?$_Iterator@$00@?$list@PAV?$linked_streambuf@DU?$char_traits@D@std@@@detail@iostreams@boost@@V?$allocator@PAV?$linked_streambuf@DU?$char_traits@D@std@@@detail@iostreams@boost@@@std@@@std@@0U34012@@Z ; boost::iostreams::detail::execute_foreach<std::list<boost::iostreams::detail::linked_streambuf<char,std::char_traits<char> > *,std::allocator<boost::iostreams::detail::linked_streambuf<char,std::char_traits<char> > *> >::_Iterator<1>,boost::iostreams::detail::chain_base<boost::iostreams::chain<boost::iostreams::output,char,std::char_traits<char>,std::allocator<char> >,char,std::char_traits<char>,std::allocator<char>,boost::iostreams::output>::closer>
PUBLIC	?close@chain_impl@?$chain_base@V?$chain@Uoutput@iostreams@boost@@DU?$char_traits@D@std@@V?$allocator@D@5@@iostreams@boost@@DU?$char_traits@D@std@@V?$allocator@D@5@Uoutput@23@@detail@iostreams@boost@@QAEXXZ ; boost::iostreams::detail::chain_base<boost::iostreams::chain<boost::iostreams::output,char,std::char_traits<char>,std::allocator<char> >,char,std::char_traits<char>,std::allocator<char>,boost::iostreams::output>::chain_impl::close
PUBLIC	?pop@?$chain_base@V?$chain@Uoutput@iostreams@boost@@DU?$char_traits@D@std@@V?$allocator@D@5@@iostreams@boost@@DU?$char_traits@D@std@@V?$allocator@D@5@Uoutput@23@@detail@iostreams@boost@@QAEXXZ ; boost::iostreams::detail::chain_base<boost::iostreams::chain<boost::iostreams::output,char,std::char_traits<char>,std::allocator<char> >,char,std::char_traits<char>,std::allocator<char>,boost::iostreams::output>::pop
PUBLIC	?pop@?$chain_client@V?$chain@Uoutput@iostreams@boost@@DU?$char_traits@D@std@@V?$allocator@D@5@@iostreams@boost@@@detail@iostreams@boost@@QAEXXZ ; boost::iostreams::detail::chain_client<boost::iostreams::chain<boost::iostreams::output,char,std::char_traits<char>,std::allocator<char> > >::pop
PUBLIC	??$close@V?$filtering_stream@Uoutput@iostreams@boost@@DU?$char_traits@D@std@@V?$allocator@D@5@Upublic_@23@@iostreams@boost@@@?$close_impl@Uclose_filtering_stream@detail@iostreams@boost@@@detail@iostreams@boost@@SAXAAV?$filtering_stream@Uoutput@iostreams@boost@@DU?$char_traits@D@std@@V?$allocator@D@5@Upublic_@23@@23@H@Z ; boost::iostreams::detail::close_impl<boost::iostreams::detail::close_filtering_stream>::close<boost::iostreams::filtering_stream<boost::iostreams::output,char,std::char_traits<char>,std::allocator<char>,boost::iostreams::public_> >
PUBLIC	??$close@V?$filtering_stream@Uoutput@iostreams@boost@@DU?$char_traits@D@std@@V?$allocator@D@5@Upublic_@23@@iostreams@boost@@@iostreams@boost@@YAXAAV?$filtering_stream@Uoutput@iostreams@boost@@DU?$char_traits@D@std@@V?$allocator@D@5@Upublic_@23@@01@H@Z ; boost::iostreams::close<boost::iostreams::filtering_stream<boost::iostreams::output,char,std::char_traits<char>,std::allocator<char>,boost::iostreams::public_> >
PUBLIC	??$?8DU?$char_traits@D@std@@V?$allocator@D@1@@std@@YA_NABV?$basic_string@DU?$char_traits@D@std@@V?$allocator@D@2@@0@0@Z ; std::operator==<char,std::char_traits<char>,std::allocator<char> >
PUBLIC	?is_complete@?$chain_client@V?$chain@Uoutput@iostreams@boost@@DU?$char_traits@D@std@@V?$allocator@D@5@@iostreams@boost@@@detail@iostreams@boost@@QBE_NXZ ; boost::iostreams::detail::chain_client<boost::iostreams::chain<boost::iostreams::output,char,std::char_traits<char>,std::allocator<char> > >::is_complete
PUBLIC	??0?$mode_adapter@Uoutput@iostreams@boost@@V?$basic_ostream@DU?$char_traits@D@std@@@std@@@detail@iostreams@boost@@QAE@ABV?$reference_wrapper@V?$basic_ostream@DU?$char_traits@D@std@@@std@@@3@@Z ; boost::iostreams::detail::mode_adapter<boost::iostreams::output,std::basic_ostream<char,std::char_traits<char> > >::mode_adapter<boost::iostreams::output,std::basic_ostream<char,std::char_traits<char> > >
PUBLIC	?f@?$addressof_impl@V?$basic_ostream@DU?$char_traits@D@std@@@std@@@detail@boost@@SAPAV?$basic_ostream@DU?$char_traits@D@std@@@std@@AAV45@J@Z ; boost::detail::addressof_impl<std::basic_ostream<char,std::char_traits<char> > >::f
PUBLIC	??0?$addr_impl_ref@V?$basic_ostream@DU?$char_traits@D@std@@@std@@@detail@boost@@QAE@AAV?$basic_ostream@DU?$char_traits@D@std@@@std@@@Z ; boost::detail::addr_impl_ref<std::basic_ostream<char,std::char_traits<char> > >::addr_impl_ref<std::basic_ostream<char,std::char_traits<char> > >
PUBLIC	??B?$addr_impl_ref@V?$basic_ostream@DU?$char_traits@D@std@@@std@@@detail@boost@@QBEAAV?$basic_ostream@DU?$char_traits@D@std@@@std@@XZ ; boost::detail::addr_impl_ref<std::basic_ostream<char,std::char_traits<char> > >::operator std::basic_ostream<char,std::char_traits<char> > &
PUBLIC	??$addressof@V?$basic_ostream@DU?$char_traits@D@std@@@std@@@boost@@YAPAV?$basic_ostream@DU?$char_traits@D@std@@@std@@AAV12@@Z ; boost::addressof<std::basic_ostream<char,std::char_traits<char> > >
PUBLIC	??0?$reference_wrapper@V?$basic_ostream@DU?$char_traits@D@std@@@std@@@boost@@QAE@AAV?$basic_ostream@DU?$char_traits@D@std@@@std@@@Z ; boost::reference_wrapper<std::basic_ostream<char,std::char_traits<char> > >::reference_wrapper<std::basic_ostream<char,std::char_traits<char> > >
PUBLIC	??$ref@V?$basic_ostream@DU?$char_traits@D@std@@@std@@@boost@@YA?BV?$reference_wrapper@V?$basic_ostream@DU?$char_traits@D@std@@@std@@@0@AAV?$basic_ostream@DU?$char_traits@D@std@@@std@@@Z ; boost::ref<std::basic_ostream<char,std::char_traits<char> > >
PUBLIC	??$wrap@V?$basic_ostream@DU?$char_traits@D@std@@@std@@@detail@iostreams@boost@@YA?AV?$reference_wrapper@V?$basic_ostream@DU?$char_traits@D@std@@@std@@@2@AAV?$basic_ostream@DU?$char_traits@D@std@@@std@@PAX@Z ; boost::iostreams::detail::wrap<std::basic_ostream<char,std::char_traits<char> > >
PUBLIC	??$resolve@Uoutput@iostreams@boost@@DU?$char_traits@D@std@@@detail@iostreams@boost@@YA?AV?$mode_adapter@Uoutput@iostreams@boost@@V?$basic_ostream@DU?$char_traits@D@std@@@std@@@012@AAV?$basic_ostream@DU?$char_traits@D@std@@@std@@@Z ; boost::iostreams::detail::resolve<boost::iostreams::output,char,std::char_traits<char> >
PUBLIC	??$resolve@Uoutput@iostreams@boost@@DV?$mode_adapter@Uoutput@iostreams@boost@@V?$basic_ostream@DU?$char_traits@D@std@@@std@@@detail@23@@detail@iostreams@boost@@YAABV?$mode_adapter@Uoutput@iostreams@boost@@V?$basic_ostream@DU?$char_traits@D@std@@@std@@@012@ABV3012@PAX@Z ; boost::iostreams::detail::resolve<boost::iostreams::output,char,boost::iostreams::detail::mode_adapter<boost::iostreams::output,std::basic_ostream<char,std::char_traits<char> > > >
PUBLIC	??0?$optional@V?$concept_adapter@V?$mode_adapter@Uoutput@iostreams@boost@@V?$basic_ostream@DU?$char_traits@D@std@@@std@@@detail@iostreams@boost@@@detail@iostreams@boost@@@detail@iostreams@boost@@QAE@XZ ; boost::iostreams::detail::optional<boost::iostreams::detail::concept_adapter<boost::iostreams::detail::mode_adapter<boost::iostreams::output,std::basic_ostream<char,std::char_traits<char> > > > >::optional<boost::iostreams::detail::concept_adapter<boost::iostreams::detail::mode_adapter<boost::iostreams::output,std::basic_ostream<char,std::char_traits<char> > > > >
PUBLIC	??_G?$indirect_streambuf@V?$mode_adapter@Uoutput@iostreams@boost@@V?$basic_ostream@DU?$char_traits@D@std@@@std@@@detail@iostreams@boost@@U?$char_traits@D@std@@V?$allocator@D@6@Uoutput@34@@detail@iostreams@boost@@UAEPAXI@Z ; boost::iostreams::detail::indirect_streambuf<boost::iostreams::detail::mode_adapter<boost::iostreams::output,std::basic_ostream<char,std::char_traits<char> > >,std::char_traits<char>,std::allocator<char>,boost::iostreams::output>::`scalar deleting destructor'
PUBLIC	??0?$indirect_streambuf@V?$mode_adapter@Uoutput@iostreams@boost@@V?$basic_ostream@DU?$char_traits@D@std@@@std@@@detail@iostreams@boost@@U?$char_traits@D@std@@V?$allocator@D@6@Uoutput@34@@detail@iostreams@boost@@QAE@XZ ; boost::iostreams::detail::indirect_streambuf<boost::iostreams::detail::mode_adapter<boost::iostreams::output,std::basic_ostream<char,std::char_traits<char> > >,std::char_traits<char>,std::allocator<char>,boost::iostreams::output>::indirect_streambuf<boost::iostreams::detail::mode_adapter<boost::iostreams::output,std::basic_ostream<char,std::char_traits<char> > >,std::char_traits<char>,std::allocator<char>,boost::iostreams::output>
PUBLIC	??$unwrap@V?$mode_adapter@Uoutput@iostreams@boost@@V?$basic_ostream@DU?$char_traits@D@std@@@std@@@detail@iostreams@boost@@@detail@iostreams@boost@@YAABV?$mode_adapter@Uoutput@iostreams@boost@@V?$basic_ostream@DU?$char_traits@D@std@@@std@@@012@ABV3012@@Z ; boost::iostreams::detail::unwrap<boost::iostreams::detail::mode_adapter<boost::iostreams::output,std::basic_ostream<char,std::char_traits<char> > > >
PUBLIC	??$optimal_buffer_size@V?$mode_adapter@Uoutput@iostreams@boost@@V?$basic_ostream@DU?$char_traits@D@std@@@std@@@detail@iostreams@boost@@@?$optimal_buffer_size_impl@Udevice_tag@iostreams@boost@@@detail@iostreams@boost@@SAHABV?$mode_adapter@Uoutput@iostreams@boost@@V?$basic_ostream@DU?$char_traits@D@std@@@std@@@123@@Z ; boost::iostreams::detail::optimal_buffer_size_impl<boost::iostreams::device_tag>::optimal_buffer_size<boost::iostreams::detail::mode_adapter<boost::iostreams::output,std::basic_ostream<char,std::char_traits<char> > > >
PUBLIC	??$optimal_buffer_size@V?$mode_adapter@Uoutput@iostreams@boost@@V?$basic_ostream@DU?$char_traits@D@std@@@std@@@detail@iostreams@boost@@@iostreams@boost@@YAHABV?$mode_adapter@Uoutput@iostreams@boost@@V?$basic_ostream@DU?$char_traits@D@std@@@std@@@detail@01@@Z ; boost::iostreams::optimal_buffer_size<boost::iostreams::detail::mode_adapter<boost::iostreams::output,std::basic_ostream<char,std::char_traits<char> > > >
PUBLIC	?can_read@?$indirect_streambuf@V?$mode_adapter@Uoutput@iostreams@boost@@V?$basic_ostream@DU?$char_traits@D@std@@@std@@@detail@iostreams@boost@@U?$char_traits@D@std@@V?$allocator@D@6@Uoutput@34@@detail@iostreams@boost@@ABE_NXZ ; boost::iostreams::detail::indirect_streambuf<boost::iostreams::detail::mode_adapter<boost::iostreams::output,std::basic_ostream<char,std::char_traits<char> > >,std::char_traits<char>,std::allocator<char>,boost::iostreams::output>::can_read
PUBLIC	?can_write@?$indirect_streambuf@V?$mode_adapter@Uoutput@iostreams@boost@@V?$basic_ostream@DU?$char_traits@D@std@@@std@@@detail@iostreams@boost@@U?$char_traits@D@std@@V?$allocator@D@6@Uoutput@34@@detail@iostreams@boost@@ABE_NXZ ; boost::iostreams::detail::indirect_streambuf<boost::iostreams::detail::mode_adapter<boost::iostreams::output,std::basic_ostream<char,std::char_traits<char> > >,std::char_traits<char>,std::allocator<char>,boost::iostreams::output>::can_write
PUBLIC	?reset@?$optional@V?$concept_adapter@V?$mode_adapter@Uoutput@iostreams@boost@@V?$basic_ostream@DU?$char_traits@D@std@@@std@@@detail@iostreams@boost@@@detail@iostreams@boost@@@detail@iostreams@boost@@QAEXABV?$concept_adapter@V?$mode_adapter@Uoutput@iostreams@boost@@V?$basic_ostream@DU?$char_traits@D@std@@@std@@@detail@iostreams@boost@@@234@@Z ; boost::iostreams::detail::optional<boost::iostreams::detail::concept_adapter<boost::iostreams::detail::mode_adapter<boost::iostreams::output,std::basic_ostream<char,std::char_traits<char> > > > >::reset
PUBLIC	??0?$concept_adapter@V?$mode_adapter@Uoutput@iostreams@boost@@V?$basic_ostream@DU?$char_traits@D@std@@@std@@@detail@iostreams@boost@@@detail@iostreams@boost@@QAE@ABV?$mode_adapter@Uoutput@iostreams@boost@@V?$basic_ostream@DU?$char_traits@D@std@@@std@@@123@@Z ; boost::iostreams::detail::concept_adapter<boost::iostreams::detail::mode_adapter<boost::iostreams::output,std::basic_ostream<char,std::char_traits<char> > > >::concept_adapter<boost::iostreams::detail::mode_adapter<boost::iostreams::output,std::basic_ostream<char,std::char_traits<char> > > >
PUBLIC	?open@?$indirect_streambuf@V?$mode_adapter@Uoutput@iostreams@boost@@V?$basic_ostream@DU?$char_traits@D@std@@@std@@@detail@iostreams@boost@@U?$char_traits@D@std@@V?$allocator@D@6@Uoutput@34@@detail@iostreams@boost@@QAEXABV?$mode_adapter@Uoutput@iostreams@boost@@V?$basic_ostream@DU?$char_traits@D@std@@@std@@@234@HH@Z ; boost::iostreams::detail::indirect_streambuf<boost::iostreams::detail::mode_adapter<boost::iostreams::output,std::basic_ostream<char,std::char_traits<char> > >,std::char_traits<char>,std::allocator<char>,boost::iostreams::output>::open
PUBLIC	?open_impl@?$stream_buffer@V?$mode_adapter@Uoutput@iostreams@boost@@V?$basic_ostream@DU?$char_traits@D@std@@@std@@@detail@iostreams@boost@@U?$char_traits@D@std@@V?$allocator@D@6@Uoutput@34@@iostreams@boost@@AAEXABV?$mode_adapter@Uoutput@iostreams@boost@@V?$basic_ostream@DU?$char_traits@D@std@@@std@@@detail@23@HH@Z ; boost::iostreams::stream_buffer<boost::iostreams::detail::mode_adapter<boost::iostreams::output,std::basic_ostream<char,std::char_traits<char> > >,std::char_traits<char>,std::allocator<char>,boost::iostreams::output>::open_impl
PUBLIC	?set_auto_close@?$indirect_streambuf@V?$mode_adapter@Uoutput@iostreams@boost@@V?$basic_ostream@DU?$char_traits@D@std@@@std@@@detail@iostreams@boost@@U?$char_traits@D@std@@V?$allocator@D@6@Uoutput@34@@detail@iostreams@boost@@UAEX_N@Z ; boost::iostreams::detail::indirect_streambuf<boost::iostreams::detail::mode_adapter<boost::iostreams::output,std::basic_ostream<char,std::char_traits<char> > >,std::char_traits<char>,std::allocator<char>,boost::iostreams::output>::set_auto_close
PUBLIC	?strict_sync@?$indirect_streambuf@V?$mode_adapter@Uoutput@iostreams@boost@@V?$basic_ostream@DU?$char_traits@D@std@@@std@@@detail@iostreams@boost@@U?$char_traits@D@std@@V?$allocator@D@6@Uoutput@34@@detail@iostreams@boost@@UAE_NXZ ; boost::iostreams::detail::indirect_streambuf<boost::iostreams::detail::mode_adapter<boost::iostreams::output,std::basic_ostream<char,std::char_traits<char> > >,std::char_traits<char>,std::allocator<char>,boost::iostreams::output>::strict_sync
PUBLIC	?_Callfns@ios_base@std@@AAEXW4event@12@@Z	; std::ios_base::_Callfns
PUBLIC	?imbue@ios_base@std@@QAE?AVlocale@2@ABV32@@Z	; std::ios_base::imbue
PUBLIC	?imbue@?$basic_ios@DU?$char_traits@D@std@@@std@@QAE?AVlocale@2@ABV32@@Z ; std::basic_ios<char,std::char_traits<char> >::imbue
PUBLIC	??$imbue@V?$basic_ostream@DU?$char_traits@D@std@@@std@@Vlocale@2@@?$imbue_impl@Ulocalizable_tag@iostreams@boost@@@detail@iostreams@boost@@SAXAAV?$basic_ostream@DU?$char_traits@D@std@@@std@@ABVlocale@5@@Z ; boost::iostreams::detail::imbue_impl<boost::iostreams::localizable_tag>::imbue<std::basic_ostream<char,std::char_traits<char> >,std::locale>
PUBLIC	??$imbue@V?$reference_wrapper@V?$basic_ostream@DU?$char_traits@D@std@@@std@@@boost@@Vlocale@std@@@iostreams@boost@@YAXAAV?$reference_wrapper@V?$basic_ostream@DU?$char_traits@D@std@@@std@@@1@ABVlocale@std@@@Z ; boost::iostreams::imbue<boost::reference_wrapper<std::basic_ostream<char,std::char_traits<char> > >,std::locale>
PUBLIC	??$imbue@Vlocale@std@@@?$mode_adapter@Uoutput@iostreams@boost@@V?$basic_ostream@DU?$char_traits@D@std@@@std@@@detail@iostreams@boost@@QAEXABVlocale@std@@@Z ; boost::iostreams::detail::mode_adapter<boost::iostreams::output,std::basic_ostream<char,std::char_traits<char> > >::imbue<std::locale>
PUBLIC	??$imbue@V?$mode_adapter@Uoutput@iostreams@boost@@V?$basic_ostream@DU?$char_traits@D@std@@@std@@@detail@iostreams@boost@@Vlocale@std@@@?$imbue_impl@Ulocalizable_tag@iostreams@boost@@@detail@iostreams@boost@@SAXAAV?$mode_adapter@Uoutput@iostreams@boost@@V?$basic_ostream@DU?$char_traits@D@std@@@std@@@123@ABVlocale@std@@@Z ; boost::iostreams::detail::imbue_impl<boost::iostreams::localizable_tag>::imbue<boost::iostreams::detail::mode_adapter<boost::iostreams::output,std::basic_ostream<char,std::char_traits<char> > >,std::locale>
PUBLIC	??$imbue@V?$mode_adapter@Uoutput@iostreams@boost@@V?$basic_ostream@DU?$char_traits@D@std@@@std@@@detail@iostreams@boost@@Vlocale@std@@@iostreams@boost@@YAXAAV?$mode_adapter@Uoutput@iostreams@boost@@V?$basic_ostream@DU?$char_traits@D@std@@@std@@@detail@01@ABVlocale@std@@@Z ; boost::iostreams::imbue<boost::iostreams::detail::mode_adapter<boost::iostreams::output,std::basic_ostream<char,std::char_traits<char> > >,std::locale>
PUBLIC	??$imbue@Vlocale@std@@@?$concept_adapter@V?$mode_adapter@Uoutput@iostreams@boost@@V?$basic_ostream@DU?$char_traits@D@std@@@std@@@detail@iostreams@boost@@@detail@iostreams@boost@@QAEXABVlocale@std@@@Z ; boost::iostreams::detail::concept_adapter<boost::iostreams::detail::mode_adapter<boost::iostreams::output,std::basic_ostream<char,std::char_traits<char> > > >::imbue<std::locale>
PUBLIC	?imbue@?$indirect_streambuf@V?$mode_adapter@Uoutput@iostreams@boost@@V?$basic_ostream@DU?$char_traits@D@std@@@std@@@detail@iostreams@boost@@U?$char_traits@D@std@@V?$allocator@D@6@Uoutput@34@@detail@iostreams@boost@@MAEXABVlocale@std@@@Z ; boost::iostreams::detail::indirect_streambuf<boost::iostreams::detail::mode_adapter<boost::iostreams::output,std::basic_ostream<char,std::char_traits<char> > >,std::char_traits<char>,std::allocator<char>,boost::iostreams::output>::imbue
PUBLIC	??$read@V?$mode_adapter@Uoutput@iostreams@boost@@V?$basic_ostream@DU?$char_traits@D@std@@@std@@@detail@iostreams@boost@@V?$linked_streambuf@DU?$char_traits@D@std@@@234@@?$device_wrapper_impl@Uoutput@iostreams@boost@@@detail@iostreams@boost@@SAHAAV?$mode_adapter@Uoutput@iostreams@boost@@V?$basic_ostream@DU?$char_traits@D@std@@@std@@@123@PAV?$linked_streambuf@DU?$char_traits@D@std@@@123@PADH@Z ; boost::iostreams::detail::device_wrapper_impl<boost::iostreams::output>::read<boost::iostreams::detail::mode_adapter<boost::iostreams::output,std::basic_ostream<char,std::char_traits<char> > >,boost::iostreams::detail::linked_streambuf<char,std::char_traits<char> > >
PUBLIC	??$read@V?$linked_streambuf@DU?$char_traits@D@std@@@detail@iostreams@boost@@@?$concept_adapter@V?$mode_adapter@Uoutput@iostreams@boost@@V?$basic_ostream@DU?$char_traits@D@std@@@std@@@detail@iostreams@boost@@@detail@iostreams@boost@@QAEHPADHPAV?$linked_streambuf@DU?$char_traits@D@std@@@123@@Z ; boost::iostreams::detail::concept_adapter<boost::iostreams::detail::mode_adapter<boost::iostreams::output,std::basic_ostream<char,std::char_traits<char> > > >::read<boost::iostreams::detail::linked_streambuf<char,std::char_traits<char> > >
PUBLIC	?underflow@?$indirect_streambuf@V?$mode_adapter@Uoutput@iostreams@boost@@V?$basic_ostream@DU?$char_traits@D@std@@@std@@@detail@iostreams@boost@@U?$char_traits@D@std@@V?$allocator@D@6@Uoutput@34@@detail@iostreams@boost@@MAEHXZ ; boost::iostreams::detail::indirect_streambuf<boost::iostreams::detail::mode_adapter<boost::iostreams::output,std::basic_ostream<char,std::char_traits<char> > >,std::char_traits<char>,std::allocator<char>,boost::iostreams::output>::underflow
PUBLIC	?pbackfail@?$indirect_streambuf@V?$mode_adapter@Uoutput@iostreams@boost@@V?$basic_ostream@DU?$char_traits@D@std@@@std@@@detail@iostreams@boost@@U?$char_traits@D@std@@V?$allocator@D@6@Uoutput@34@@detail@iostreams@boost@@MAEHH@Z ; boost::iostreams::detail::indirect_streambuf<boost::iostreams::detail::mode_adapter<boost::iostreams::output,std::basic_ostream<char,std::char_traits<char> > >,std::char_traits<char>,std::allocator<char>,boost::iostreams::output>::pbackfail
PUBLIC	?overflow@?$indirect_streambuf@V?$mode_adapter@Uoutput@iostreams@boost@@V?$basic_ostream@DU?$char_traits@D@std@@@std@@@detail@iostreams@boost@@U?$char_traits@D@std@@V?$allocator@D@6@Uoutput@34@@detail@iostreams@boost@@MAEHH@Z ; boost::iostreams::detail::indirect_streambuf<boost::iostreams::detail::mode_adapter<boost::iostreams::output,std::basic_ostream<char,std::char_traits<char> > >,std::char_traits<char>,std::allocator<char>,boost::iostreams::output>::overflow
PUBLIC	??$flush@V?$mode_adapter@Uoutput@iostreams@boost@@V?$basic_ostream@DU?$char_traits@D@std@@@std@@@detail@iostreams@boost@@@?$flush_device_impl@Uany_tag@iostreams@boost@@@detail@iostreams@boost@@SA_NAAV?$mode_adapter@Uoutput@iostreams@boost@@V?$basic_ostream@DU?$char_traits@D@std@@@std@@@123@@Z ; boost::iostreams::detail::flush_device_impl<boost::iostreams::any_tag>::flush<boost::iostreams::detail::mode_adapter<boost::iostreams::output,std::basic_ostream<char,std::char_traits<char> > > >
PUBLIC	??$flush@V?$mode_adapter@Uoutput@iostreams@boost@@V?$basic_ostream@DU?$char_traits@D@std@@@std@@@detail@iostreams@boost@@@iostreams@boost@@YA_NAAV?$mode_adapter@Uoutput@iostreams@boost@@V?$basic_ostream@DU?$char_traits@D@std@@@std@@@detail@01@@Z ; boost::iostreams::flush<boost::iostreams::detail::mode_adapter<boost::iostreams::output,std::basic_ostream<char,std::char_traits<char> > > >
PUBLIC	??$flush@V?$mode_adapter@Uoutput@iostreams@boost@@V?$basic_ostream@DU?$char_traits@D@std@@@std@@@detail@iostreams@boost@@V?$basic_streambuf@DU?$char_traits@D@std@@@std@@@?$device_wrapper_impl@Uany_tag@iostreams@boost@@@detail@iostreams@boost@@SA_NAAV?$mode_adapter@Uoutput@iostreams@boost@@V?$basic_ostream@DU?$char_traits@D@std@@@std@@@123@PAV?$basic_streambuf@DU?$char_traits@D@std@@@std@@@Z ; boost::iostreams::detail::device_wrapper_impl<boost::iostreams::any_tag>::flush<boost::iostreams::detail::mode_adapter<boost::iostreams::output,std::basic_ostream<char,std::char_traits<char> > >,std::basic_streambuf<char,std::char_traits<char> > >
PUBLIC	?flush@?$concept_adapter@V?$mode_adapter@Uoutput@iostreams@boost@@V?$basic_ostream@DU?$char_traits@D@std@@@std@@@detail@iostreams@boost@@@detail@iostreams@boost@@QAE_NPAV?$basic_streambuf@DU?$char_traits@D@std@@@std@@@Z ; boost::iostreams::detail::concept_adapter<boost::iostreams::detail::mode_adapter<boost::iostreams::output,std::basic_ostream<char,std::char_traits<char> > > >::flush
PUBLIC	?sync@?$indirect_streambuf@V?$mode_adapter@Uoutput@iostreams@boost@@V?$basic_ostream@DU?$char_traits@D@std@@@std@@@detail@iostreams@boost@@U?$char_traits@D@std@@V?$allocator@D@6@Uoutput@34@@detail@iostreams@boost@@MAEHXZ ; boost::iostreams::detail::indirect_streambuf<boost::iostreams::detail::mode_adapter<boost::iostreams::output,std::basic_ostream<char,std::char_traits<char> > >,std::char_traits<char>,std::allocator<char>,boost::iostreams::output>::sync
PUBLIC	?seekoff@?$indirect_streambuf@V?$mode_adapter@Uoutput@iostreams@boost@@V?$basic_ostream@DU?$char_traits@D@std@@@std@@@detail@iostreams@boost@@U?$char_traits@D@std@@V?$allocator@D@6@Uoutput@34@@detail@iostreams@boost@@MAE?AV?$fpos@H@std@@JHH@Z ; boost::iostreams::detail::indirect_streambuf<boost::iostreams::detail::mode_adapter<boost::iostreams::output,std::basic_ostream<char,std::char_traits<char> > >,std::char_traits<char>,std::allocator<char>,boost::iostreams::output>::seekoff
PUBLIC	??0localizable_tag@iostreams@boost@@QAE@XZ	; boost::iostreams::localizable_tag::localizable_tag
PUBLIC	??0category@?$mode_adapter@Uoutput@iostreams@boost@@V?$basic_ostream@DU?$char_traits@D@std@@@std@@@detail@iostreams@boost@@QAE@XZ ; boost::iostreams::detail::mode_adapter<boost::iostreams::output,std::basic_ostream<char,std::char_traits<char> > >::category::category
PUBLIC	??$seek@V?$mode_adapter@Uoutput@iostreams@boost@@V?$basic_ostream@DU?$char_traits@D@std@@@std@@@detail@iostreams@boost@@@?$device_wrapper_impl@Uany_tag@iostreams@boost@@@detail@iostreams@boost@@SA?AV?$fpos@H@std@@AAV?$mode_adapter@Uoutput@iostreams@boost@@V?$basic_ostream@DU?$char_traits@D@std@@@std@@@123@_JHHUany_tag@23@@Z ; boost::iostreams::detail::device_wrapper_impl<boost::iostreams::any_tag>::seek<boost::iostreams::detail::mode_adapter<boost::iostreams::output,std::basic_ostream<char,std::char_traits<char> > > >
PUBLIC	??$seek@V?$mode_adapter@Uoutput@iostreams@boost@@V?$basic_ostream@DU?$char_traits@D@std@@@std@@@detail@iostreams@boost@@V?$linked_streambuf@DU?$char_traits@D@std@@@234@@?$device_wrapper_impl@Uany_tag@iostreams@boost@@@detail@iostreams@boost@@SA?AV?$fpos@H@std@@AAV?$mode_adapter@Uoutput@iostreams@boost@@V?$basic_ostream@DU?$char_traits@D@std@@@std@@@123@PAV?$linked_streambuf@DU?$char_traits@D@std@@@123@_JHH@Z ; boost::iostreams::detail::device_wrapper_impl<boost::iostreams::any_tag>::seek<boost::iostreams::detail::mode_adapter<boost::iostreams::output,std::basic_ostream<char,std::char_traits<char> > >,boost::iostreams::detail::linked_streambuf<char,std::char_traits<char> > >
PUBLIC	??$seek@V?$linked_streambuf@DU?$char_traits@D@std@@@detail@iostreams@boost@@@?$concept_adapter@V?$mode_adapter@Uoutput@iostreams@boost@@V?$basic_ostream@DU?$char_traits@D@std@@@std@@@detail@iostreams@boost@@@detail@iostreams@boost@@QAE?AV?$fpos@H@std@@_JHHPAV?$linked_streambuf@DU?$char_traits@D@std@@@123@@Z ; boost::iostreams::detail::concept_adapter<boost::iostreams::detail::mode_adapter<boost::iostreams::output,std::basic_ostream<char,std::char_traits<char> > > >::seek<boost::iostreams::detail::linked_streambuf<char,std::char_traits<char> > >
PUBLIC	?seek_impl@?$indirect_streambuf@V?$mode_adapter@Uoutput@iostreams@boost@@V?$basic_ostream@DU?$char_traits@D@std@@@std@@@detail@iostreams@boost@@U?$char_traits@D@std@@V?$allocator@D@6@Uoutput@34@@detail@iostreams@boost@@AAE?AV?$fpos@H@std@@_JHH@Z ; boost::iostreams::detail::indirect_streambuf<boost::iostreams::detail::mode_adapter<boost::iostreams::output,std::basic_ostream<char,std::char_traits<char> > >,std::char_traits<char>,std::allocator<char>,boost::iostreams::output>::seek_impl
PUBLIC	?seekpos@?$indirect_streambuf@V?$mode_adapter@Uoutput@iostreams@boost@@V?$basic_ostream@DU?$char_traits@D@std@@@std@@@detail@iostreams@boost@@U?$char_traits@D@std@@V?$allocator@D@6@Uoutput@34@@detail@iostreams@boost@@MAE?AV?$fpos@H@std@@V56@H@Z ; boost::iostreams::detail::indirect_streambuf<boost::iostreams::detail::mode_adapter<boost::iostreams::output,std::basic_ostream<char,std::char_traits<char> > >,std::char_traits<char>,std::allocator<char>,boost::iostreams::output>::seekpos
PUBLIC	?set_next@?$indirect_streambuf@V?$mode_adapter@Uoutput@iostreams@boost@@V?$basic_ostream@DU?$char_traits@D@std@@@std@@@detail@iostreams@boost@@U?$char_traits@D@std@@V?$allocator@D@6@Uoutput@34@@detail@iostreams@boost@@MAEXPAV?$linked_streambuf@DU?$char_traits@D@std@@@234@@Z ; boost::iostreams::detail::indirect_streambuf<boost::iostreams::detail::mode_adapter<boost::iostreams::output,std::basic_ostream<char,std::char_traits<char> > >,std::char_traits<char>,std::allocator<char>,boost::iostreams::output>::set_next
PUBLIC	??$close_all@V?$mode_adapter@Uoutput@iostreams@boost@@V?$basic_ostream@DU?$char_traits@D@std@@@std@@@detail@iostreams@boost@@@detail@iostreams@boost@@YAXAAV?$mode_adapter@Uoutput@iostreams@boost@@V?$basic_ostream@DU?$char_traits@D@std@@@std@@@012@@Z ; boost::iostreams::detail::close_all<boost::iostreams::detail::mode_adapter<boost::iostreams::output,std::basic_ostream<char,std::char_traits<char> > > >
PUBLIC	??$unwrap@V?$basic_ostream@DU?$char_traits@D@std@@@std@@@detail@iostreams@boost@@YAAAV?$basic_ostream@DU?$char_traits@D@std@@@std@@AAV34@@Z ; boost::iostreams::detail::unwrap<std::basic_ostream<char,std::char_traits<char> > >
PUBLIC	??$flush@V?$basic_ostream@DU?$char_traits@D@std@@@std@@@?$flush_device_impl@Uostream_tag@iostreams@boost@@@detail@iostreams@boost@@SA_NAAV?$basic_ostream@DU?$char_traits@D@std@@@std@@@Z ; boost::iostreams::detail::flush_device_impl<boost::iostreams::ostream_tag>::flush<std::basic_ostream<char,std::char_traits<char> > >
PUBLIC	??$flush@V?$basic_ostream@DU?$char_traits@D@std@@@std@@@iostreams@boost@@YA_NAAV?$basic_ostream@DU?$char_traits@D@std@@@std@@@Z ; boost::iostreams::flush<std::basic_ostream<char,std::char_traits<char> > >
PUBLIC	??$close@V?$basic_ostream@DU?$char_traits@D@std@@@std@@@?$close_impl@Uany_tag@iostreams@boost@@@detail@iostreams@boost@@SAXAAV?$basic_ostream@DU?$char_traits@D@std@@@std@@H@Z ; boost::iostreams::detail::close_impl<boost::iostreams::any_tag>::close<std::basic_ostream<char,std::char_traits<char> > >
PUBLIC	??$close@V?$reference_wrapper@V?$basic_ostream@DU?$char_traits@D@std@@@std@@@boost@@@iostreams@boost@@YAXAAV?$reference_wrapper@V?$basic_ostream@DU?$char_traits@D@std@@@std@@@1@H@Z ; boost::iostreams::close<boost::reference_wrapper<std::basic_ostream<char,std::char_traits<char> > > >
PUBLIC	??$close_all@V?$reference_wrapper@V?$basic_ostream@DU?$char_traits@D@std@@@std@@@boost@@@detail@iostreams@boost@@YAXAAV?$reference_wrapper@V?$basic_ostream@DU?$char_traits@D@std@@@std@@@2@@Z ; boost::iostreams::detail::close_all<boost::reference_wrapper<std::basic_ostream<char,std::char_traits<char> > > >
PUBLIC	?close@?$mode_adapter@Uoutput@iostreams@boost@@V?$basic_ostream@DU?$char_traits@D@std@@@std@@@detail@iostreams@boost@@QAEXXZ ; boost::iostreams::detail::mode_adapter<boost::iostreams::output,std::basic_ostream<char,std::char_traits<char> > >::close
PUBLIC	??$close@V?$mode_adapter@Uoutput@iostreams@boost@@V?$basic_ostream@DU?$char_traits@D@std@@@std@@@detail@iostreams@boost@@@?$close_impl@Uclosable_tag@iostreams@boost@@@detail@iostreams@boost@@SAXAAV?$mode_adapter@Uoutput@iostreams@boost@@V?$basic_ostream@DU?$char_traits@D@std@@@std@@@123@H@Z ; boost::iostreams::detail::close_impl<boost::iostreams::closable_tag>::close<boost::iostreams::detail::mode_adapter<boost::iostreams::output,std::basic_ostream<char,std::char_traits<char> > > >
PUBLIC	??$close@V?$mode_adapter@Uoutput@iostreams@boost@@V?$basic_ostream@DU?$char_traits@D@std@@@std@@@detail@iostreams@boost@@@iostreams@boost@@YAXAAV?$mode_adapter@Uoutput@iostreams@boost@@V?$basic_ostream@DU?$char_traits@D@std@@@std@@@detail@01@H@Z ; boost::iostreams::close<boost::iostreams::detail::mode_adapter<boost::iostreams::output,std::basic_ostream<char,std::char_traits<char> > > >
PUBLIC	??$close@V?$mode_adapter@Uoutput@iostreams@boost@@V?$basic_ostream@DU?$char_traits@D@std@@@std@@@detail@iostreams@boost@@V?$linked_streambuf@DU?$char_traits@D@std@@@234@@?$device_wrapper_impl@Uany_tag@iostreams@boost@@@detail@iostreams@boost@@SAXAAV?$mode_adapter@Uoutput@iostreams@boost@@V?$basic_ostream@DU?$char_traits@D@std@@@std@@@123@PAV?$linked_streambuf@DU?$char_traits@D@std@@@123@H@Z ; boost::iostreams::detail::device_wrapper_impl<boost::iostreams::any_tag>::close<boost::iostreams::detail::mode_adapter<boost::iostreams::output,std::basic_ostream<char,std::char_traits<char> > >,boost::iostreams::detail::linked_streambuf<char,std::char_traits<char> > >
PUBLIC	??$close@V?$linked_streambuf@DU?$char_traits@D@std@@@detail@iostreams@boost@@@?$concept_adapter@V?$mode_adapter@Uoutput@iostreams@boost@@V?$basic_ostream@DU?$char_traits@D@std@@@std@@@detail@iostreams@boost@@@detail@iostreams@boost@@QAEXHPAV?$linked_streambuf@DU?$char_traits@D@std@@@123@@Z ; boost::iostreams::detail::concept_adapter<boost::iostreams::detail::mode_adapter<boost::iostreams::output,std::basic_ostream<char,std::char_traits<char> > > >::close<boost::iostreams::detail::linked_streambuf<char,std::char_traits<char> > >
PUBLIC	?close_impl@?$indirect_streambuf@V?$mode_adapter@Uoutput@iostreams@boost@@V?$basic_ostream@DU?$char_traits@D@std@@@std@@@detail@iostreams@boost@@U?$char_traits@D@std@@V?$allocator@D@6@Uoutput@34@@detail@iostreams@boost@@MAEXH@Z ; boost::iostreams::detail::indirect_streambuf<boost::iostreams::detail::mode_adapter<boost::iostreams::output,std::basic_ostream<char,std::char_traits<char> > >,std::char_traits<char>,std::allocator<char>,boost::iostreams::output>::close_impl
PUBLIC	?component_type@?$indirect_streambuf@V?$mode_adapter@Uoutput@iostreams@boost@@V?$basic_ostream@DU?$char_traits@D@std@@@std@@@detail@iostreams@boost@@U?$char_traits@D@std@@V?$allocator@D@6@Uoutput@34@@detail@iostreams@boost@@MBEABVtype_info@@XZ ; boost::iostreams::detail::indirect_streambuf<boost::iostreams::detail::mode_adapter<boost::iostreams::output,std::basic_ostream<char,std::char_traits<char> > >,std::char_traits<char>,std::allocator<char>,boost::iostreams::output>::component_type
PUBLIC	??D?$concept_adapter@V?$mode_adapter@Uoutput@iostreams@boost@@V?$basic_ostream@DU?$char_traits@D@std@@@std@@@detail@iostreams@boost@@@detail@iostreams@boost@@QAEAAV?$mode_adapter@Uoutput@iostreams@boost@@V?$basic_ostream@DU?$char_traits@D@std@@@std@@@123@XZ ; boost::iostreams::detail::concept_adapter<boost::iostreams::detail::mode_adapter<boost::iostreams::output,std::basic_ostream<char,std::char_traits<char> > > >::operator*
PUBLIC	?component@?$indirect_streambuf@V?$mode_adapter@Uoutput@iostreams@boost@@V?$basic_ostream@DU?$char_traits@D@std@@@std@@@detail@iostreams@boost@@U?$char_traits@D@std@@V?$allocator@D@6@Uoutput@34@@detail@iostreams@boost@@QAEPAV?$mode_adapter@Uoutput@iostreams@boost@@V?$basic_ostream@DU?$char_traits@D@std@@@std@@@234@XZ ; boost::iostreams::detail::indirect_streambuf<boost::iostreams::detail::mode_adapter<boost::iostreams::output,std::basic_ostream<char,std::char_traits<char> > >,std::char_traits<char>,std::allocator<char>,boost::iostreams::output>::component
PUBLIC	?component_impl@?$indirect_streambuf@V?$mode_adapter@Uoutput@iostreams@boost@@V?$basic_ostream@DU?$char_traits@D@std@@@std@@@detail@iostreams@boost@@U?$char_traits@D@std@@V?$allocator@D@6@Uoutput@34@@detail@iostreams@boost@@MAEPAXXZ ; boost::iostreams::detail::indirect_streambuf<boost::iostreams::detail::mode_adapter<boost::iostreams::output,std::basic_ostream<char,std::char_traits<char> > >,std::char_traits<char>,std::allocator<char>,boost::iostreams::output>::component_impl
PUBLIC	?in@?$indirect_streambuf@V?$mode_adapter@Uoutput@iostreams@boost@@V?$basic_ostream@DU?$char_traits@D@std@@@std@@@detail@iostreams@boost@@U?$char_traits@D@std@@V?$allocator@D@6@Uoutput@34@@detail@iostreams@boost@@AAEAAV?$basic_buffer@DV?$allocator@D@std@@@234@XZ ; boost::iostreams::detail::indirect_streambuf<boost::iostreams::detail::mode_adapter<boost::iostreams::output,std::basic_ostream<char,std::char_traits<char> > >,std::char_traits<char>,std::allocator<char>,boost::iostreams::output>::in
PUBLIC	??D?$optional@V?$concept_adapter@V?$mode_adapter@Uoutput@iostreams@boost@@V?$basic_ostream@DU?$char_traits@D@std@@@std@@@detail@iostreams@boost@@@detail@iostreams@boost@@@detail@iostreams@boost@@QAEAAV?$concept_adapter@V?$mode_adapter@Uoutput@iostreams@boost@@V?$basic_ostream@DU?$char_traits@D@std@@@std@@@detail@iostreams@boost@@@123@XZ ; boost::iostreams::detail::optional<boost::iostreams::detail::concept_adapter<boost::iostreams::detail::mode_adapter<boost::iostreams::output,std::basic_ostream<char,std::char_traits<char> > > > >::operator*
PUBLIC	?obj@?$indirect_streambuf@V?$mode_adapter@Uoutput@iostreams@boost@@V?$basic_ostream@DU?$char_traits@D@std@@@std@@@detail@iostreams@boost@@U?$char_traits@D@std@@V?$allocator@D@6@Uoutput@34@@detail@iostreams@boost@@AAEAAV?$concept_adapter@V?$mode_adapter@Uoutput@iostreams@boost@@V?$basic_ostream@DU?$char_traits@D@std@@@std@@@detail@iostreams@boost@@@234@XZ ; boost::iostreams::detail::indirect_streambuf<boost::iostreams::detail::mode_adapter<boost::iostreams::output,std::basic_ostream<char,std::char_traits<char> > >,std::char_traits<char>,std::allocator<char>,boost::iostreams::output>::obj
PUBLIC	?next@?$indirect_streambuf@V?$mode_adapter@Uoutput@iostreams@boost@@V?$basic_ostream@DU?$char_traits@D@std@@@std@@@detail@iostreams@boost@@U?$char_traits@D@std@@V?$allocator@D@6@Uoutput@34@@detail@iostreams@boost@@ABEPAV?$linked_streambuf@DU?$char_traits@D@std@@@234@XZ ; boost::iostreams::detail::indirect_streambuf<boost::iostreams::detail::mode_adapter<boost::iostreams::output,std::basic_ostream<char,std::char_traits<char> > >,std::char_traits<char>,std::allocator<char>,boost::iostreams::output>::next
PUBLIC	??$unwrap@V?$mode_adapter@Uoutput@iostreams@boost@@V?$basic_ostream@DU?$char_traits@D@std@@@std@@@detail@iostreams@boost@@@detail@iostreams@boost@@YAAAV?$mode_adapter@Uoutput@iostreams@boost@@V?$basic_ostream@DU?$char_traits@D@std@@@std@@@012@AAV3012@@Z ; boost::iostreams::detail::unwrap<boost::iostreams::detail::mode_adapter<boost::iostreams::output,std::basic_ostream<char,std::char_traits<char> > > >
PUBLIC	??B?$reference_wrapper@V?$basic_ostream@DU?$char_traits@D@std@@@std@@@boost@@QBEAAV?$basic_ostream@DU?$char_traits@D@std@@@std@@XZ ; boost::reference_wrapper<std::basic_ostream<char,std::char_traits<char> > >::operator std::basic_ostream<char,std::char_traits<char> > &
PUBLIC	??$unwrap@V?$reference_wrapper@V?$basic_ostream@DU?$char_traits@D@std@@@std@@@boost@@@detail@iostreams@boost@@YAAAV?$basic_ostream@DU?$char_traits@D@std@@@std@@AAV?$reference_wrapper@V?$basic_ostream@DU?$char_traits@D@std@@@std@@@2@@Z ; boost::iostreams::detail::unwrap<boost::reference_wrapper<std::basic_ostream<char,std::char_traits<char> > > >
PUBLIC	??$write@V?$basic_ostream@DU?$char_traits@D@std@@@std@@@?$write_device_impl@Uostream_tag@iostreams@boost@@@detail@iostreams@boost@@SAHAAV?$basic_ostream@DU?$char_traits@D@std@@@std@@PBDH@Z ; boost::iostreams::detail::write_device_impl<boost::iostreams::ostream_tag>::write<std::basic_ostream<char,std::char_traits<char> > >
PUBLIC	??$write@V?$reference_wrapper@V?$basic_ostream@DU?$char_traits@D@std@@@std@@@boost@@@iostreams@boost@@YAHAAV?$reference_wrapper@V?$basic_ostream@DU?$char_traits@D@std@@@std@@@1@PBDH@Z ; boost::iostreams::write<boost::reference_wrapper<std::basic_ostream<char,std::char_traits<char> > > >
PUBLIC	?write@?$mode_adapter@Uoutput@iostreams@boost@@V?$basic_ostream@DU?$char_traits@D@std@@@std@@@detail@iostreams@boost@@QAEHPBDH@Z ; boost::iostreams::detail::mode_adapter<boost::iostreams::output,std::basic_ostream<char,std::char_traits<char> > >::write
PUBLIC	??$write@V?$mode_adapter@Uoutput@iostreams@boost@@V?$basic_ostream@DU?$char_traits@D@std@@@std@@@detail@iostreams@boost@@@?$write_device_impl@Uoutput@iostreams@boost@@@detail@iostreams@boost@@SAHAAV?$mode_adapter@Uoutput@iostreams@boost@@V?$basic_ostream@DU?$char_traits@D@std@@@std@@@123@PBDH@Z ; boost::iostreams::detail::write_device_impl<boost::iostreams::output>::write<boost::iostreams::detail::mode_adapter<boost::iostreams::output,std::basic_ostream<char,std::char_traits<char> > > >
PUBLIC	??$write@V?$mode_adapter@Uoutput@iostreams@boost@@V?$basic_ostream@DU?$char_traits@D@std@@@std@@@detail@iostreams@boost@@@iostreams@boost@@YAHAAV?$mode_adapter@Uoutput@iostreams@boost@@V?$basic_ostream@DU?$char_traits@D@std@@@std@@@detail@01@PBDH@Z ; boost::iostreams::write<boost::iostreams::detail::mode_adapter<boost::iostreams::output,std::basic_ostream<char,std::char_traits<char> > > >
PUBLIC	??$write@V?$mode_adapter@Uoutput@iostreams@boost@@V?$basic_ostream@DU?$char_traits@D@std@@@std@@@detail@iostreams@boost@@V?$linked_streambuf@DU?$char_traits@D@std@@@234@@?$device_wrapper_impl@Uoutput@iostreams@boost@@@detail@iostreams@boost@@SAHAAV?$mode_adapter@Uoutput@iostreams@boost@@V?$basic_ostream@DU?$char_traits@D@std@@@std@@@123@PAV?$linked_streambuf@DU?$char_traits@D@std@@@123@PBDH@Z ; boost::iostreams::detail::device_wrapper_impl<boost::iostreams::output>::write<boost::iostreams::detail::mode_adapter<boost::iostreams::output,std::basic_ostream<char,std::char_traits<char> > >,boost::iostreams::detail::linked_streambuf<char,std::char_traits<char> > >
PUBLIC	??$write@V?$linked_streambuf@DU?$char_traits@D@std@@@detail@iostreams@boost@@@?$concept_adapter@V?$mode_adapter@Uoutput@iostreams@boost@@V?$basic_ostream@DU?$char_traits@D@std@@@std@@@detail@iostreams@boost@@@detail@iostreams@boost@@QAEHPBDHPAV?$linked_streambuf@DU?$char_traits@D@std@@@123@@Z ; boost::iostreams::detail::concept_adapter<boost::iostreams::detail::mode_adapter<boost::iostreams::output,std::basic_ostream<char,std::char_traits<char> > > >::write<boost::iostreams::detail::linked_streambuf<char,std::char_traits<char> > >
PUBLIC	?sync_impl@?$indirect_streambuf@V?$mode_adapter@Uoutput@iostreams@boost@@V?$basic_ostream@DU?$char_traits@D@std@@@std@@@detail@iostreams@boost@@U?$char_traits@D@std@@V?$allocator@D@6@Uoutput@34@@detail@iostreams@boost@@AAEXXZ ; boost::iostreams::detail::indirect_streambuf<boost::iostreams::detail::mode_adapter<boost::iostreams::output,std::basic_ostream<char,std::char_traits<char> > >,std::char_traits<char>,std::allocator<char>,boost::iostreams::output>::sync_impl
PUBLIC	?init_get_area@?$indirect_streambuf@V?$mode_adapter@Uoutput@iostreams@boost@@V?$basic_ostream@DU?$char_traits@D@std@@@std@@@detail@iostreams@boost@@U?$char_traits@D@std@@V?$allocator@D@6@Uoutput@34@@detail@iostreams@boost@@EAEXXZ ; boost::iostreams::detail::indirect_streambuf<boost::iostreams::detail::mode_adapter<boost::iostreams::output,std::basic_ostream<char,std::char_traits<char> > >,std::char_traits<char>,std::allocator<char>,boost::iostreams::output>::init_get_area
PUBLIC	?out@?$indirect_streambuf@V?$mode_adapter@Uoutput@iostreams@boost@@V?$basic_ostream@DU?$char_traits@D@std@@@std@@@detail@iostreams@boost@@U?$char_traits@D@std@@V?$allocator@D@6@Uoutput@34@@detail@iostreams@boost@@AAEAAV?$basic_buffer@DV?$allocator@D@std@@@234@XZ ; boost::iostreams::detail::indirect_streambuf<boost::iostreams::detail::mode_adapter<boost::iostreams::output,std::basic_ostream<char,std::char_traits<char> > >,std::char_traits<char>,std::allocator<char>,boost::iostreams::output>::out
PUBLIC	?output_buffered@?$indirect_streambuf@V?$mode_adapter@Uoutput@iostreams@boost@@V?$basic_ostream@DU?$char_traits@D@std@@@std@@@detail@iostreams@boost@@U?$char_traits@D@std@@V?$allocator@D@6@Uoutput@34@@detail@iostreams@boost@@ABE_NXZ ; boost::iostreams::detail::indirect_streambuf<boost::iostreams::detail::mode_adapter<boost::iostreams::output,std::basic_ostream<char,std::char_traits<char> > >,std::char_traits<char>,std::allocator<char>,boost::iostreams::output>::output_buffered
PUBLIC	?shared_buffer@?$indirect_streambuf@V?$mode_adapter@Uoutput@iostreams@boost@@V?$basic_ostream@DU?$char_traits@D@std@@@std@@@detail@iostreams@boost@@U?$char_traits@D@std@@V?$allocator@D@6@Uoutput@34@@detail@iostreams@boost@@ABE_NXZ ; boost::iostreams::detail::indirect_streambuf<boost::iostreams::detail::mode_adapter<boost::iostreams::output,std::basic_ostream<char,std::char_traits<char> > >,std::char_traits<char>,std::allocator<char>,boost::iostreams::output>::shared_buffer
PUBLIC	?init_put_area@?$indirect_streambuf@V?$mode_adapter@Uoutput@iostreams@boost@@V?$basic_ostream@DU?$char_traits@D@std@@@std@@@detail@iostreams@boost@@U?$char_traits@D@std@@V?$allocator@D@6@Uoutput@34@@detail@iostreams@boost@@EAEXXZ ; boost::iostreams::detail::indirect_streambuf<boost::iostreams::detail::mode_adapter<boost::iostreams::output,std::basic_ostream<char,std::char_traits<char> > >,std::char_traits<char>,std::allocator<char>,boost::iostreams::output>::init_put_area
PUBLIC	?is_open@?$indirect_streambuf@V?$mode_adapter@Uoutput@iostreams@boost@@V?$basic_ostream@DU?$char_traits@D@std@@@std@@@detail@iostreams@boost@@U?$char_traits@D@std@@V?$allocator@D@6@Uoutput@34@@detail@iostreams@boost@@QBE_NXZ ; boost::iostreams::detail::indirect_streambuf<boost::iostreams::detail::mode_adapter<boost::iostreams::output,std::basic_ostream<char,std::char_traits<char> > >,std::char_traits<char>,std::allocator<char>,boost::iostreams::output>::is_open
PUBLIC	??0?$reset_operation@V?$optional@V?$concept_adapter@V?$mode_adapter@Uoutput@iostreams@boost@@V?$basic_ostream@DU?$char_traits@D@std@@@std@@@detail@iostreams@boost@@@detail@iostreams@boost@@@detail@iostreams@boost@@@detail@iostreams@boost@@QAE@AAV?$optional@V?$concept_adapter@V?$mode_adapter@Uoutput@iostreams@boost@@V?$basic_ostream@DU?$char_traits@D@std@@@std@@@detail@iostreams@boost@@@detail@iostreams@boost@@@123@@Z ; boost::iostreams::detail::reset_operation<boost::iostreams::detail::optional<boost::iostreams::detail::concept_adapter<boost::iostreams::detail::mode_adapter<boost::iostreams::output,std::basic_ostream<char,std::char_traits<char> > > > > >::reset_operation<boost::iostreams::detail::optional<boost::iostreams::detail::concept_adapter<boost::iostreams::detail::mode_adapter<boost::iostreams::output,std::basic_ostream<char,std::char_traits<char> > > > > >
PUBLIC	??$call_reset@V?$optional@V?$concept_adapter@V?$mode_adapter@Uoutput@iostreams@boost@@V?$basic_ostream@DU?$char_traits@D@std@@@std@@@detail@iostreams@boost@@@detail@iostreams@boost@@@detail@iostreams@boost@@@detail@iostreams@boost@@YA?AV?$reset_operation@V?$optional@V?$concept_adapter@V?$mode_adapter@Uoutput@iostreams@boost@@V?$basic_ostream@DU?$char_traits@D@std@@@std@@@detail@iostreams@boost@@@detail@iostreams@boost@@@detail@iostreams@boost@@@012@AAV?$optional@V?$concept_adapter@V?$mode_adapter@Uoutput@iostreams@boost@@V?$basic_ostream@DU?$char_traits@D@std@@@std@@@detail@iostreams@boost@@@detail@iostreams@boost@@@012@@Z ; boost::iostreams::detail::call_reset<boost::iostreams::detail::optional<boost::iostreams::detail::concept_adapter<boost::iostreams::detail::mode_adapter<boost::iostreams::output,std::basic_ostream<char,std::char_traits<char> > > > > >
PUBLIC	??R?$reset_operation@V?$optional@V?$concept_adapter@V?$mode_adapter@Uoutput@iostreams@boost@@V?$basic_ostream@DU?$char_traits@D@std@@@std@@@detail@iostreams@boost@@@detail@iostreams@boost@@@detail@iostreams@boost@@@detail@iostreams@boost@@QBEXXZ ; boost::iostreams::detail::reset_operation<boost::iostreams::detail::optional<boost::iostreams::detail::concept_adapter<boost::iostreams::detail::mode_adapter<boost::iostreams::output,std::basic_ostream<char,std::char_traits<char> > > > > >::operator()
PUBLIC	??$execute_all@V?$member_close_operation@V?$linked_streambuf@DU?$char_traits@D@std@@@detail@iostreams@boost@@@detail@iostreams@boost@@V1234@V?$reset_operation@V?$optional@V?$concept_adapter@V?$mode_adapter@Uoutput@iostreams@boost@@V?$basic_ostream@DU?$char_traits@D@std@@@std@@@detail@iostreams@boost@@@detail@iostreams@boost@@@detail@iostreams@boost@@@234@@detail@iostreams@boost@@YAHV?$member_close_operation@V?$linked_streambuf@DU?$char_traits@D@std@@@detail@iostreams@boost@@@012@0V?$reset_operation@V?$optional@V?$concept_adapter@V?$mode_adapter@Uoutput@iostreams@boost@@V?$basic_ostream@DU?$char_traits@D@std@@@std@@@detail@iostreams@boost@@@detail@iostreams@boost@@@detail@iostreams@boost@@@012@@Z ; boost::iostreams::detail::execute_all<boost::iostreams::detail::member_close_operation<boost::iostreams::detail::linked_streambuf<char,std::char_traits<char> > >,boost::iostreams::detail::member_close_operation<boost::iostreams::detail::linked_streambuf<char,std::char_traits<char> > >,boost::iostreams::detail::reset_operation<boost::iostreams::detail::optional<boost::iostreams::detail::concept_adapter<boost::iostreams::detail::mode_adapter<boost::iostreams::output,std::basic_ostream<char,std::char_traits<char> > > > > > >
PUBLIC	??$execute_all@V?$member_close_operation@V?$linked_streambuf@DU?$char_traits@D@std@@@detail@iostreams@boost@@@detail@iostreams@boost@@V1234@V?$reset_operation@V?$optional@V?$concept_adapter@V?$mode_adapter@Uoutput@iostreams@boost@@V?$basic_ostream@DU?$char_traits@D@std@@@std@@@detail@iostreams@boost@@@detail@iostreams@boost@@@detail@iostreams@boost@@@234@V?$clear_flags_operation@H@234@@detail@iostreams@boost@@YAHV?$member_close_operation@V?$linked_streambuf@DU?$char_traits@D@std@@@detail@iostreams@boost@@@012@0V?$reset_operation@V?$optional@V?$concept_adapter@V?$mode_adapter@Uoutput@iostreams@boost@@V?$basic_ostream@DU?$char_traits@D@std@@@std@@@detail@iostreams@boost@@@detail@iostreams@boost@@@detail@iostreams@boost@@@012@V?$clear_flags_operation@H@012@@Z ; boost::iostreams::detail::execute_all<boost::iostreams::detail::member_close_operation<boost::iostreams::detail::linked_streambuf<char,std::char_traits<char> > >,boost::iostreams::detail::member_close_operation<boost::iostreams::detail::linked_streambuf<char,std::char_traits<char> > >,boost::iostreams::detail::reset_operation<boost::iostreams::detail::optional<boost::iostreams::detail::concept_adapter<boost::iostreams::detail::mode_adapter<boost::iostreams::output,std::basic_ostream<char,std::char_traits<char> > > > > >,boost::iostreams::detail::clear_flags_operation<int> >
PUBLIC	?close@?$indirect_streambuf@V?$mode_adapter@Uoutput@iostreams@boost@@V?$basic_ostream@DU?$char_traits@D@std@@@std@@@detail@iostreams@boost@@U?$char_traits@D@std@@V?$allocator@D@6@Uoutput@34@@detail@iostreams@boost@@QAEXXZ ; boost::iostreams::detail::indirect_streambuf<boost::iostreams::detail::mode_adapter<boost::iostreams::output,std::basic_ostream<char,std::char_traits<char> > >,std::char_traits<char>,std::allocator<char>,boost::iostreams::output>::close
PUBLIC	?auto_close@?$indirect_streambuf@V?$mode_adapter@Uoutput@iostreams@boost@@V?$basic_ostream@DU?$char_traits@D@std@@@std@@@detail@iostreams@boost@@U?$char_traits@D@std@@V?$allocator@D@6@Uoutput@34@@detail@iostreams@boost@@UBE_NXZ ; boost::iostreams::detail::indirect_streambuf<boost::iostreams::detail::mode_adapter<boost::iostreams::output,std::basic_ostream<char,std::char_traits<char> > >,std::char_traits<char>,std::allocator<char>,boost::iostreams::output>::auto_close
PUBLIC	?address@?$optional@V?$concept_adapter@V?$mode_adapter@Uoutput@iostreams@boost@@V?$basic_ostream@DU?$char_traits@D@std@@@std@@@detail@iostreams@boost@@@detail@iostreams@boost@@@detail@iostreams@boost@@AAEPAXXZ ; boost::iostreams::detail::optional<boost::iostreams::detail::concept_adapter<boost::iostreams::detail::mode_adapter<boost::iostreams::output,std::basic_ostream<char,std::char_traits<char> > > > >::address
PUBLIC	?reset@?$optional@V?$concept_adapter@V?$mode_adapter@Uoutput@iostreams@boost@@V?$basic_ostream@DU?$char_traits@D@std@@@std@@@detail@iostreams@boost@@@detail@iostreams@boost@@@detail@iostreams@boost@@QAEXXZ ; boost::iostreams::detail::optional<boost::iostreams::detail::concept_adapter<boost::iostreams::detail::mode_adapter<boost::iostreams::output,std::basic_ostream<char,std::char_traits<char> > > > >::reset
PUBLIC	??1?$optional@V?$concept_adapter@V?$mode_adapter@Uoutput@iostreams@boost@@V?$basic_ostream@DU?$char_traits@D@std@@@std@@@detail@iostreams@boost@@@detail@iostreams@boost@@@detail@iostreams@boost@@QAE@XZ ; boost::iostreams::detail::optional<boost::iostreams::detail::concept_adapter<boost::iostreams::detail::mode_adapter<boost::iostreams::output,std::basic_ostream<char,std::char_traits<char> > > > >::~optional<boost::iostreams::detail::concept_adapter<boost::iostreams::detail::mode_adapter<boost::iostreams::output,std::basic_ostream<char,std::char_traits<char> > > > >
PUBLIC	??1?$indirect_streambuf@V?$mode_adapter@Uoutput@iostreams@boost@@V?$basic_ostream@DU?$char_traits@D@std@@@std@@@detail@iostreams@boost@@U?$char_traits@D@std@@V?$allocator@D@6@Uoutput@34@@detail@iostreams@boost@@UAE@XZ ; boost::iostreams::detail::indirect_streambuf<boost::iostreams::detail::mode_adapter<boost::iostreams::output,std::basic_ostream<char,std::char_traits<char> > >,std::char_traits<char>,std::allocator<char>,boost::iostreams::output>::~indirect_streambuf<boost::iostreams::detail::mode_adapter<boost::iostreams::output,std::basic_ostream<char,std::char_traits<char> > >,std::char_traits<char>,std::allocator<char>,boost::iostreams::output>
PUBLIC	??1?$stream_buffer@V?$mode_adapter@Uoutput@iostreams@boost@@V?$basic_ostream@DU?$char_traits@D@std@@@std@@@detail@iostreams@boost@@U?$char_traits@D@std@@V?$allocator@D@6@Uoutput@34@@iostreams@boost@@UAE@XZ ; boost::iostreams::stream_buffer<boost::iostreams::detail::mode_adapter<boost::iostreams::output,std::basic_ostream<char,std::char_traits<char> > >,std::char_traits<char>,std::allocator<char>,boost::iostreams::output>::~stream_buffer<boost::iostreams::detail::mode_adapter<boost::iostreams::output,std::basic_ostream<char,std::char_traits<char> > >,std::char_traits<char>,std::allocator<char>,boost::iostreams::output>
PUBLIC	??_G?$stream_buffer@V?$mode_adapter@Uoutput@iostreams@boost@@V?$basic_ostream@DU?$char_traits@D@std@@@std@@@detail@iostreams@boost@@U?$char_traits@D@std@@V?$allocator@D@6@Uoutput@34@@iostreams@boost@@UAEPAXI@Z ; boost::iostreams::stream_buffer<boost::iostreams::detail::mode_adapter<boost::iostreams::output,std::basic_ostream<char,std::char_traits<char> > >,std::char_traits<char>,std::allocator<char>,boost::iostreams::output>::`scalar deleting destructor'
PUBLIC	??$wrap@V?$mode_adapter@Uoutput@iostreams@boost@@V?$basic_ostream@DU?$char_traits@D@std@@@std@@@detail@iostreams@boost@@@detail@iostreams@boost@@YA?AV?$mode_adapter@Uoutput@iostreams@boost@@V?$basic_ostream@DU?$char_traits@D@std@@@std@@@012@ABV3012@PAX@Z ; boost::iostreams::detail::wrap<boost::iostreams::detail::mode_adapter<boost::iostreams::output,std::basic_ostream<char,std::char_traits<char> > > >
PUBLIC	??0?$stream_buffer@V?$mode_adapter@Uoutput@iostreams@boost@@V?$basic_ostream@DU?$char_traits@D@std@@@std@@@detail@iostreams@boost@@U?$char_traits@D@std@@V?$allocator@D@6@Uoutput@34@@iostreams@boost@@QAE@ABV?$mode_adapter@Uoutput@iostreams@boost@@V?$basic_ostream@DU?$char_traits@D@std@@@std@@@detail@12@HH@Z ; boost::iostreams::stream_buffer<boost::iostreams::detail::mode_adapter<boost::iostreams::output,std::basic_ostream<char,std::char_traits<char> > >,std::char_traits<char>,std::allocator<char>,boost::iostreams::output>::stream_buffer<boost::iostreams::detail::mode_adapter<boost::iostreams::output,std::basic_ostream<char,std::char_traits<char> > >,std::char_traits<char>,std::allocator<char>,boost::iostreams::output>
PUBLIC	??0?$auto_ptr@V?$stream_buffer@V?$mode_adapter@Uoutput@iostreams@boost@@V?$basic_ostream@DU?$char_traits@D@std@@@std@@@detail@iostreams@boost@@U?$char_traits@D@std@@V?$allocator@D@6@Uoutput@34@@iostreams@boost@@@std@@QAE@PAV?$stream_buffer@V?$mode_adapter@Uoutput@iostreams@boost@@V?$basic_ostream@DU?$char_traits@D@std@@@std@@@detail@iostreams@boost@@U?$char_traits@D@std@@V?$allocator@D@6@Uoutput@34@@iostreams@boost@@@Z ; std::auto_ptr<boost::iostreams::stream_buffer<boost::iostreams::detail::mode_adapter<boost::iostreams::output,std::basic_ostream<char,std::char_traits<char> > >,std::char_traits<char>,std::allocator<char>,boost::iostreams::output> >::auto_ptr<boost::iostreams::stream_buffer<boost::iostreams::detail::mode_adapter<boost::iostreams::output,std::basic_ostream<char,std::char_traits<char> > >,std::char_traits<char>,std::allocator<char>,boost::iostreams::output> >
PUBLIC	??1?$auto_ptr@V?$stream_buffer@V?$mode_adapter@Uoutput@iostreams@boost@@V?$basic_ostream@DU?$char_traits@D@std@@@std@@@detail@iostreams@boost@@U?$char_traits@D@std@@V?$allocator@D@6@Uoutput@34@@iostreams@boost@@@std@@QAE@XZ ; std::auto_ptr<boost::iostreams::stream_buffer<boost::iostreams::detail::mode_adapter<boost::iostreams::output,std::basic_ostream<char,std::char_traits<char> > >,std::char_traits<char>,std::allocator<char>,boost::iostreams::output> >::~auto_ptr<boost::iostreams::stream_buffer<boost::iostreams::detail::mode_adapter<boost::iostreams::output,std::basic_ostream<char,std::char_traits<char> > >,std::char_traits<char>,std::allocator<char>,boost::iostreams::output> >
PUBLIC	?get@?$auto_ptr@V?$stream_buffer@V?$mode_adapter@Uoutput@iostreams@boost@@V?$basic_ostream@DU?$char_traits@D@std@@@std@@@detail@iostreams@boost@@U?$char_traits@D@std@@V?$allocator@D@6@Uoutput@34@@iostreams@boost@@@std@@QBEPAV?$stream_buffer@V?$mode_adapter@Uoutput@iostreams@boost@@V?$basic_ostream@DU?$char_traits@D@std@@@std@@@detail@iostreams@boost@@U?$char_traits@D@std@@V?$allocator@D@6@Uoutput@34@@iostreams@boost@@XZ ; std::auto_ptr<boost::iostreams::stream_buffer<boost::iostreams::detail::mode_adapter<boost::iostreams::output,std::basic_ostream<char,std::char_traits<char> > >,std::char_traits<char>,std::allocator<char>,boost::iostreams::output> >::get
PUBLIC	?release@?$auto_ptr@V?$stream_buffer@V?$mode_adapter@Uoutput@iostreams@boost@@V?$basic_ostream@DU?$char_traits@D@std@@@std@@@detail@iostreams@boost@@U?$char_traits@D@std@@V?$allocator@D@6@Uoutput@34@@iostreams@boost@@@std@@QAEPAV?$stream_buffer@V?$mode_adapter@Uoutput@iostreams@boost@@V?$basic_ostream@DU?$char_traits@D@std@@@std@@@detail@iostreams@boost@@U?$char_traits@D@std@@V?$allocator@D@6@Uoutput@34@@iostreams@boost@@XZ ; std::auto_ptr<boost::iostreams::stream_buffer<boost::iostreams::detail::mode_adapter<boost::iostreams::output,std::basic_ostream<char,std::char_traits<char> > >,std::char_traits<char>,std::allocator<char>,boost::iostreams::output> >::release
PUBLIC	??$push_impl@V?$mode_adapter@Uoutput@iostreams@boost@@V?$basic_ostream@DU?$char_traits@D@std@@@std@@@detail@iostreams@boost@@@?$chain_base@V?$chain@Uoutput@iostreams@boost@@DU?$char_traits@D@std@@V?$allocator@D@5@@iostreams@boost@@DU?$char_traits@D@std@@V?$allocator@D@5@Uoutput@23@@detail@iostreams@boost@@AAEXABV?$mode_adapter@Uoutput@iostreams@boost@@V?$basic_ostream@DU?$char_traits@D@std@@@std@@@123@HH@Z ; boost::iostreams::detail::chain_base<boost::iostreams::chain<boost::iostreams::output,char,std::char_traits<char>,std::allocator<char> >,char,std::char_traits<char>,std::allocator<char>,boost::iostreams::output>::push_impl<boost::iostreams::detail::mode_adapter<boost::iostreams::output,std::basic_ostream<char,std::char_traits<char> > > >
PUBLIC	??$push@V?$mode_adapter@Uoutput@iostreams@boost@@V?$basic_ostream@DU?$char_traits@D@std@@@std@@@detail@iostreams@boost@@@?$chain_base@V?$chain@Uoutput@iostreams@boost@@DU?$char_traits@D@std@@V?$allocator@D@5@@iostreams@boost@@DU?$char_traits@D@std@@V?$allocator@D@5@Uoutput@23@@detail@iostreams@boost@@QAEXABV?$mode_adapter@Uoutput@iostreams@boost@@V?$basic_ostream@DU?$char_traits@D@std@@@std@@@123@HHPAX@Z ; boost::iostreams::detail::chain_base<boost::iostreams::chain<boost::iostreams::output,char,std::char_traits<char>,std::allocator<char> >,char,std::char_traits<char>,std::allocator<char>,boost::iostreams::output>::push<boost::iostreams::detail::mode_adapter<boost::iostreams::output,std::basic_ostream<char,std::char_traits<char> > > >
PUBLIC	??$push_impl@V?$mode_adapter@Uoutput@iostreams@boost@@V?$basic_ostream@DU?$char_traits@D@std@@@std@@@detail@iostreams@boost@@@?$chain_client@V?$chain@Uoutput@iostreams@boost@@DU?$char_traits@D@std@@V?$allocator@D@5@@iostreams@boost@@@detail@iostreams@boost@@IAEXABV?$mode_adapter@Uoutput@iostreams@boost@@V?$basic_ostream@DU?$char_traits@D@std@@@std@@@123@HH@Z ; boost::iostreams::detail::chain_client<boost::iostreams::chain<boost::iostreams::output,char,std::char_traits<char>,std::allocator<char> > >::push_impl<boost::iostreams::detail::mode_adapter<boost::iostreams::output,std::basic_ostream<char,std::char_traits<char> > > >
PUBLIC	??$push@DU?$char_traits@D@std@@@?$chain_client@V?$chain@Uoutput@iostreams@boost@@DU?$char_traits@D@std@@V?$allocator@D@5@@iostreams@boost@@@detail@iostreams@boost@@QAEXAAV?$basic_ostream@DU?$char_traits@D@std@@@std@@HH@Z ; boost::iostreams::detail::chain_client<boost::iostreams::chain<boost::iostreams::output,char,std::char_traits<char>,std::allocator<char> > >::push<char,std::char_traits<char> >
PUBLIC	??$resolve@Uoutput@iostreams@boost@@DU?$basic_null_sink@D@23@@detail@iostreams@boost@@YAABU?$basic_null_sink@D@12@ABU312@PAX@Z ; boost::iostreams::detail::resolve<boost::iostreams::output,char,boost::iostreams::basic_null_sink<char> >
PUBLIC	??0?$optional@V?$concept_adapter@U?$basic_null_sink@D@iostreams@boost@@@detail@iostreams@boost@@@detail@iostreams@boost@@QAE@XZ ; boost::iostreams::detail::optional<boost::iostreams::detail::concept_adapter<boost::iostreams::basic_null_sink<char> > >::optional<boost::iostreams::detail::concept_adapter<boost::iostreams::basic_null_sink<char> > >
PUBLIC	??_G?$indirect_streambuf@U?$basic_null_sink@D@iostreams@boost@@U?$char_traits@D@std@@V?$allocator@D@5@Uoutput@23@@detail@iostreams@boost@@UAEPAXI@Z ; boost::iostreams::detail::indirect_streambuf<boost::iostreams::basic_null_sink<char>,std::char_traits<char>,std::allocator<char>,boost::iostreams::output>::`scalar deleting destructor'
PUBLIC	??0?$indirect_streambuf@U?$basic_null_sink@D@iostreams@boost@@U?$char_traits@D@std@@V?$allocator@D@5@Uoutput@23@@detail@iostreams@boost@@QAE@XZ ; boost::iostreams::detail::indirect_streambuf<boost::iostreams::basic_null_sink<char>,std::char_traits<char>,std::allocator<char>,boost::iostreams::output>::indirect_streambuf<boost::iostreams::basic_null_sink<char>,std::char_traits<char>,std::allocator<char>,boost::iostreams::output>
PUBLIC	??$unwrap@U?$basic_null_sink@D@iostreams@boost@@@detail@iostreams@boost@@YAABU?$basic_null_sink@D@12@ABU312@@Z ; boost::iostreams::detail::unwrap<boost::iostreams::basic_null_sink<char> >
PUBLIC	??$optimal_buffer_size@U?$basic_null_sink@D@iostreams@boost@@@?$optimal_buffer_size_impl@Udevice_tag@iostreams@boost@@@detail@iostreams@boost@@SAHABU?$basic_null_sink@D@23@@Z ; boost::iostreams::detail::optimal_buffer_size_impl<boost::iostreams::device_tag>::optimal_buffer_size<boost::iostreams::basic_null_sink<char> >
PUBLIC	??$optimal_buffer_size@U?$basic_null_sink@D@iostreams@boost@@@iostreams@boost@@YAHABU?$basic_null_sink@D@01@@Z ; boost::iostreams::optimal_buffer_size<boost::iostreams::basic_null_sink<char> >
PUBLIC	?can_read@?$indirect_streambuf@U?$basic_null_sink@D@iostreams@boost@@U?$char_traits@D@std@@V?$allocator@D@5@Uoutput@23@@detail@iostreams@boost@@ABE_NXZ ; boost::iostreams::detail::indirect_streambuf<boost::iostreams::basic_null_sink<char>,std::char_traits<char>,std::allocator<char>,boost::iostreams::output>::can_read
PUBLIC	?can_write@?$indirect_streambuf@U?$basic_null_sink@D@iostreams@boost@@U?$char_traits@D@std@@V?$allocator@D@5@Uoutput@23@@detail@iostreams@boost@@ABE_NXZ ; boost::iostreams::detail::indirect_streambuf<boost::iostreams::basic_null_sink<char>,std::char_traits<char>,std::allocator<char>,boost::iostreams::output>::can_write
PUBLIC	?reset@?$optional@V?$concept_adapter@U?$basic_null_sink@D@iostreams@boost@@@detail@iostreams@boost@@@detail@iostreams@boost@@QAEXABV?$concept_adapter@U?$basic_null_sink@D@iostreams@boost@@@234@@Z ; boost::iostreams::detail::optional<boost::iostreams::detail::concept_adapter<boost::iostreams::basic_null_sink<char> > >::reset
PUBLIC	??0?$concept_adapter@U?$basic_null_sink@D@iostreams@boost@@@detail@iostreams@boost@@QAE@ABU?$basic_null_sink@D@23@@Z ; boost::iostreams::detail::concept_adapter<boost::iostreams::basic_null_sink<char> >::concept_adapter<boost::iostreams::basic_null_sink<char> >
PUBLIC	?open@?$indirect_streambuf@U?$basic_null_sink@D@iostreams@boost@@U?$char_traits@D@std@@V?$allocator@D@5@Uoutput@23@@detail@iostreams@boost@@QAEXABU?$basic_null_sink@D@34@HH@Z ; boost::iostreams::detail::indirect_streambuf<boost::iostreams::basic_null_sink<char>,std::char_traits<char>,std::allocator<char>,boost::iostreams::output>::open
PUBLIC	?open_impl@?$stream_buffer@U?$basic_null_sink@D@iostreams@boost@@U?$char_traits@D@std@@V?$allocator@D@5@Uoutput@23@@iostreams@boost@@AAEXABU?$basic_null_sink@D@23@HH@Z ; boost::iostreams::stream_buffer<boost::iostreams::basic_null_sink<char>,std::char_traits<char>,std::allocator<char>,boost::iostreams::output>::open_impl
PUBLIC	?set_auto_close@?$indirect_streambuf@U?$basic_null_sink@D@iostreams@boost@@U?$char_traits@D@std@@V?$allocator@D@5@Uoutput@23@@detail@iostreams@boost@@UAEX_N@Z ; boost::iostreams::detail::indirect_streambuf<boost::iostreams::basic_null_sink<char>,std::char_traits<char>,std::allocator<char>,boost::iostreams::output>::set_auto_close
PUBLIC	?strict_sync@?$indirect_streambuf@U?$basic_null_sink@D@iostreams@boost@@U?$char_traits@D@std@@V?$allocator@D@5@Uoutput@23@@detail@iostreams@boost@@UAE_NXZ ; boost::iostreams::detail::indirect_streambuf<boost::iostreams::basic_null_sink<char>,std::char_traits<char>,std::allocator<char>,boost::iostreams::output>::strict_sync
PUBLIC	??$imbue@U?$basic_null_sink@D@iostreams@boost@@Vlocale@std@@@?$imbue_impl@Uany_tag@iostreams@boost@@@detail@iostreams@boost@@SAXAAU?$basic_null_sink@D@23@ABVlocale@std@@@Z ; boost::iostreams::detail::imbue_impl<boost::iostreams::any_tag>::imbue<boost::iostreams::basic_null_sink<char>,std::locale>
PUBLIC	??$imbue@U?$basic_null_sink@D@iostreams@boost@@Vlocale@std@@@iostreams@boost@@YAXAAU?$basic_null_sink@D@01@ABVlocale@std@@@Z ; boost::iostreams::imbue<boost::iostreams::basic_null_sink<char>,std::locale>
PUBLIC	??$imbue@Vlocale@std@@@?$concept_adapter@U?$basic_null_sink@D@iostreams@boost@@@detail@iostreams@boost@@QAEXABVlocale@std@@@Z ; boost::iostreams::detail::concept_adapter<boost::iostreams::basic_null_sink<char> >::imbue<std::locale>
PUBLIC	?imbue@?$indirect_streambuf@U?$basic_null_sink@D@iostreams@boost@@U?$char_traits@D@std@@V?$allocator@D@5@Uoutput@23@@detail@iostreams@boost@@MAEXABVlocale@std@@@Z ; boost::iostreams::detail::indirect_streambuf<boost::iostreams::basic_null_sink<char>,std::char_traits<char>,std::allocator<char>,boost::iostreams::output>::imbue
PUBLIC	??$read@U?$basic_null_sink@D@iostreams@boost@@V?$linked_streambuf@DU?$char_traits@D@std@@@detail@23@@?$device_wrapper_impl@Uoutput@iostreams@boost@@@detail@iostreams@boost@@SAHAAU?$basic_null_sink@D@23@PAV?$linked_streambuf@DU?$char_traits@D@std@@@123@PADH@Z ; boost::iostreams::detail::device_wrapper_impl<boost::iostreams::output>::read<boost::iostreams::basic_null_sink<char>,boost::iostreams::detail::linked_streambuf<char,std::char_traits<char> > >
PUBLIC	??$read@V?$linked_streambuf@DU?$char_traits@D@std@@@detail@iostreams@boost@@@?$concept_adapter@U?$basic_null_sink@D@iostreams@boost@@@detail@iostreams@boost@@QAEHPADHPAV?$linked_streambuf@DU?$char_traits@D@std@@@123@@Z ; boost::iostreams::detail::concept_adapter<boost::iostreams::basic_null_sink<char> >::read<boost::iostreams::detail::linked_streambuf<char,std::char_traits<char> > >
PUBLIC	?underflow@?$indirect_streambuf@U?$basic_null_sink@D@iostreams@boost@@U?$char_traits@D@std@@V?$allocator@D@5@Uoutput@23@@detail@iostreams@boost@@MAEHXZ ; boost::iostreams::detail::indirect_streambuf<boost::iostreams::basic_null_sink<char>,std::char_traits<char>,std::allocator<char>,boost::iostreams::output>::underflow
PUBLIC	?pbackfail@?$indirect_streambuf@U?$basic_null_sink@D@iostreams@boost@@U?$char_traits@D@std@@V?$allocator@D@5@Uoutput@23@@detail@iostreams@boost@@MAEHH@Z ; boost::iostreams::detail::indirect_streambuf<boost::iostreams::basic_null_sink<char>,std::char_traits<char>,std::allocator<char>,boost::iostreams::output>::pbackfail
PUBLIC	?overflow@?$indirect_streambuf@U?$basic_null_sink@D@iostreams@boost@@U?$char_traits@D@std@@V?$allocator@D@5@Uoutput@23@@detail@iostreams@boost@@MAEHH@Z ; boost::iostreams::detail::indirect_streambuf<boost::iostreams::basic_null_sink<char>,std::char_traits<char>,std::allocator<char>,boost::iostreams::output>::overflow
PUBLIC	??$flush@U?$basic_null_sink@D@iostreams@boost@@V?$basic_streambuf@DU?$char_traits@D@std@@@std@@@?$device_wrapper_impl@Uany_tag@iostreams@boost@@@detail@iostreams@boost@@SA_NAAU?$basic_null_sink@D@23@PAV?$basic_streambuf@DU?$char_traits@D@std@@@std@@@Z ; boost::iostreams::detail::device_wrapper_impl<boost::iostreams::any_tag>::flush<boost::iostreams::basic_null_sink<char>,std::basic_streambuf<char,std::char_traits<char> > >
PUBLIC	?flush@?$concept_adapter@U?$basic_null_sink@D@iostreams@boost@@@detail@iostreams@boost@@QAE_NPAV?$basic_streambuf@DU?$char_traits@D@std@@@std@@@Z ; boost::iostreams::detail::concept_adapter<boost::iostreams::basic_null_sink<char> >::flush
PUBLIC	?sync@?$indirect_streambuf@U?$basic_null_sink@D@iostreams@boost@@U?$char_traits@D@std@@V?$allocator@D@5@Uoutput@23@@detail@iostreams@boost@@MAEHXZ ; boost::iostreams::detail::indirect_streambuf<boost::iostreams::basic_null_sink<char>,std::char_traits<char>,std::allocator<char>,boost::iostreams::output>::sync
PUBLIC	?seekoff@?$indirect_streambuf@U?$basic_null_sink@D@iostreams@boost@@U?$char_traits@D@std@@V?$allocator@D@5@Uoutput@23@@detail@iostreams@boost@@MAE?AV?$fpos@H@std@@JHH@Z ; boost::iostreams::detail::indirect_streambuf<boost::iostreams::basic_null_sink<char>,std::char_traits<char>,std::allocator<char>,boost::iostreams::output>::seekoff
PUBLIC	??0sink_tag@iostreams@boost@@QAE@XZ		; boost::iostreams::sink_tag::sink_tag
PUBLIC	??$seek@U?$basic_null_sink@D@iostreams@boost@@@?$device_wrapper_impl@Uany_tag@iostreams@boost@@@detail@iostreams@boost@@SA?AV?$fpos@H@std@@AAU?$basic_null_sink@D@23@_JHHUany_tag@23@@Z ; boost::iostreams::detail::device_wrapper_impl<boost::iostreams::any_tag>::seek<boost::iostreams::basic_null_sink<char> >
PUBLIC	??$seek@U?$basic_null_sink@D@iostreams@boost@@V?$linked_streambuf@DU?$char_traits@D@std@@@detail@23@@?$device_wrapper_impl@Uany_tag@iostreams@boost@@@detail@iostreams@boost@@SA?AV?$fpos@H@std@@AAU?$basic_null_sink@D@23@PAV?$linked_streambuf@DU?$char_traits@D@std@@@123@_JHH@Z ; boost::iostreams::detail::device_wrapper_impl<boost::iostreams::any_tag>::seek<boost::iostreams::basic_null_sink<char>,boost::iostreams::detail::linked_streambuf<char,std::char_traits<char> > >
PUBLIC	??$seek@V?$linked_streambuf@DU?$char_traits@D@std@@@detail@iostreams@boost@@@?$concept_adapter@U?$basic_null_sink@D@iostreams@boost@@@detail@iostreams@boost@@QAE?AV?$fpos@H@std@@_JHHPAV?$linked_streambuf@DU?$char_traits@D@std@@@123@@Z ; boost::iostreams::detail::concept_adapter<boost::iostreams::basic_null_sink<char> >::seek<boost::iostreams::detail::linked_streambuf<char,std::char_traits<char> > >
PUBLIC	?seek_impl@?$indirect_streambuf@U?$basic_null_sink@D@iostreams@boost@@U?$char_traits@D@std@@V?$allocator@D@5@Uoutput@23@@detail@iostreams@boost@@AAE?AV?$fpos@H@std@@_JHH@Z ; boost::iostreams::detail::indirect_streambuf<boost::iostreams::basic_null_sink<char>,std::char_traits<char>,std::allocator<char>,boost::iostreams::output>::seek_impl
PUBLIC	?seekpos@?$indirect_streambuf@U?$basic_null_sink@D@iostreams@boost@@U?$char_traits@D@std@@V?$allocator@D@5@Uoutput@23@@detail@iostreams@boost@@MAE?AV?$fpos@H@std@@V56@H@Z ; boost::iostreams::detail::indirect_streambuf<boost::iostreams::basic_null_sink<char>,std::char_traits<char>,std::allocator<char>,boost::iostreams::output>::seekpos
PUBLIC	?set_next@?$indirect_streambuf@U?$basic_null_sink@D@iostreams@boost@@U?$char_traits@D@std@@V?$allocator@D@5@Uoutput@23@@detail@iostreams@boost@@MAEXPAV?$linked_streambuf@DU?$char_traits@D@std@@@234@@Z ; boost::iostreams::detail::indirect_streambuf<boost::iostreams::basic_null_sink<char>,std::char_traits<char>,std::allocator<char>,boost::iostreams::output>::set_next
PUBLIC	??$close_all@U?$basic_null_sink@D@iostreams@boost@@@detail@iostreams@boost@@YAXAAU?$basic_null_sink@D@12@@Z ; boost::iostreams::detail::close_all<boost::iostreams::basic_null_sink<char> >
PUBLIC	??$flush@U?$basic_null_sink@D@iostreams@boost@@@?$flush_device_impl@Uany_tag@iostreams@boost@@@detail@iostreams@boost@@SA_NAAU?$basic_null_sink@D@23@@Z ; boost::iostreams::detail::flush_device_impl<boost::iostreams::any_tag>::flush<boost::iostreams::basic_null_sink<char> >
PUBLIC	??$flush@U?$basic_null_sink@D@iostreams@boost@@@iostreams@boost@@YA_NAAU?$basic_null_sink@D@01@@Z ; boost::iostreams::flush<boost::iostreams::basic_null_sink<char> >
PUBLIC	??$close@U?$basic_null_sink@D@iostreams@boost@@@?$close_impl@Uany_tag@iostreams@boost@@@detail@iostreams@boost@@SAXAAU?$basic_null_sink@D@23@H@Z ; boost::iostreams::detail::close_impl<boost::iostreams::any_tag>::close<boost::iostreams::basic_null_sink<char> >
PUBLIC	??$close@U?$basic_null_sink@D@iostreams@boost@@@iostreams@boost@@YAXAAU?$basic_null_sink@D@01@H@Z ; boost::iostreams::close<boost::iostreams::basic_null_sink<char> >
PUBLIC	??$close@U?$basic_null_sink@D@iostreams@boost@@V?$linked_streambuf@DU?$char_traits@D@std@@@detail@23@@?$device_wrapper_impl@Uany_tag@iostreams@boost@@@detail@iostreams@boost@@SAXAAU?$basic_null_sink@D@23@PAV?$linked_streambuf@DU?$char_traits@D@std@@@123@H@Z ; boost::iostreams::detail::device_wrapper_impl<boost::iostreams::any_tag>::close<boost::iostreams::basic_null_sink<char>,boost::iostreams::detail::linked_streambuf<char,std::char_traits<char> > >
PUBLIC	??$close@V?$linked_streambuf@DU?$char_traits@D@std@@@detail@iostreams@boost@@@?$concept_adapter@U?$basic_null_sink@D@iostreams@boost@@@detail@iostreams@boost@@QAEXHPAV?$linked_streambuf@DU?$char_traits@D@std@@@123@@Z ; boost::iostreams::detail::concept_adapter<boost::iostreams::basic_null_sink<char> >::close<boost::iostreams::detail::linked_streambuf<char,std::char_traits<char> > >
PUBLIC	?close_impl@?$indirect_streambuf@U?$basic_null_sink@D@iostreams@boost@@U?$char_traits@D@std@@V?$allocator@D@5@Uoutput@23@@detail@iostreams@boost@@MAEXH@Z ; boost::iostreams::detail::indirect_streambuf<boost::iostreams::basic_null_sink<char>,std::char_traits<char>,std::allocator<char>,boost::iostreams::output>::close_impl
PUBLIC	?component_type@?$indirect_streambuf@U?$basic_null_sink@D@iostreams@boost@@U?$char_traits@D@std@@V?$allocator@D@5@Uoutput@23@@detail@iostreams@boost@@MBEABVtype_info@@XZ ; boost::iostreams::detail::indirect_streambuf<boost::iostreams::basic_null_sink<char>,std::char_traits<char>,std::allocator<char>,boost::iostreams::output>::component_type
PUBLIC	??D?$concept_adapter@U?$basic_null_sink@D@iostreams@boost@@@detail@iostreams@boost@@QAEAAU?$basic_null_sink@D@23@XZ ; boost::iostreams::detail::concept_adapter<boost::iostreams::basic_null_sink<char> >::operator*
PUBLIC	?component@?$indirect_streambuf@U?$basic_null_sink@D@iostreams@boost@@U?$char_traits@D@std@@V?$allocator@D@5@Uoutput@23@@detail@iostreams@boost@@QAEPAU?$basic_null_sink@D@34@XZ ; boost::iostreams::detail::indirect_streambuf<boost::iostreams::basic_null_sink<char>,std::char_traits<char>,std::allocator<char>,boost::iostreams::output>::component
PUBLIC	?component_impl@?$indirect_streambuf@U?$basic_null_sink@D@iostreams@boost@@U?$char_traits@D@std@@V?$allocator@D@5@Uoutput@23@@detail@iostreams@boost@@MAEPAXXZ ; boost::iostreams::detail::indirect_streambuf<boost::iostreams::basic_null_sink<char>,std::char_traits<char>,std::allocator<char>,boost::iostreams::output>::component_impl
PUBLIC	?in@?$indirect_streambuf@U?$basic_null_sink@D@iostreams@boost@@U?$char_traits@D@std@@V?$allocator@D@5@Uoutput@23@@detail@iostreams@boost@@AAEAAV?$basic_buffer@DV?$allocator@D@std@@@234@XZ ; boost::iostreams::detail::indirect_streambuf<boost::iostreams::basic_null_sink<char>,std::char_traits<char>,std::allocator<char>,boost::iostreams::output>::in
PUBLIC	??D?$optional@V?$concept_adapter@U?$basic_null_sink@D@iostreams@boost@@@detail@iostreams@boost@@@detail@iostreams@boost@@QAEAAV?$concept_adapter@U?$basic_null_sink@D@iostreams@boost@@@123@XZ ; boost::iostreams::detail::optional<boost::iostreams::detail::concept_adapter<boost::iostreams::basic_null_sink<char> > >::operator*
PUBLIC	?obj@?$indirect_streambuf@U?$basic_null_sink@D@iostreams@boost@@U?$char_traits@D@std@@V?$allocator@D@5@Uoutput@23@@detail@iostreams@boost@@AAEAAV?$concept_adapter@U?$basic_null_sink@D@iostreams@boost@@@234@XZ ; boost::iostreams::detail::indirect_streambuf<boost::iostreams::basic_null_sink<char>,std::char_traits<char>,std::allocator<char>,boost::iostreams::output>::obj
PUBLIC	?next@?$indirect_streambuf@U?$basic_null_sink@D@iostreams@boost@@U?$char_traits@D@std@@V?$allocator@D@5@Uoutput@23@@detail@iostreams@boost@@ABEPAV?$linked_streambuf@DU?$char_traits@D@std@@@234@XZ ; boost::iostreams::detail::indirect_streambuf<boost::iostreams::basic_null_sink<char>,std::char_traits<char>,std::allocator<char>,boost::iostreams::output>::next
PUBLIC	??$unwrap@U?$basic_null_sink@D@iostreams@boost@@@detail@iostreams@boost@@YAAAU?$basic_null_sink@D@12@AAU312@@Z ; boost::iostreams::detail::unwrap<boost::iostreams::basic_null_sink<char> >
PUBLIC	?write@?$basic_null_device@DUoutput@iostreams@boost@@@iostreams@boost@@QAEHPBDH@Z ; boost::iostreams::basic_null_device<char,boost::iostreams::output>::write
PUBLIC	??$write@U?$basic_null_sink@D@iostreams@boost@@@?$write_device_impl@Uoutput@iostreams@boost@@@detail@iostreams@boost@@SAHAAU?$basic_null_sink@D@23@PBDH@Z ; boost::iostreams::detail::write_device_impl<boost::iostreams::output>::write<boost::iostreams::basic_null_sink<char> >
PUBLIC	??$write@U?$basic_null_sink@D@iostreams@boost@@@iostreams@boost@@YAHAAU?$basic_null_sink@D@01@PBDH@Z ; boost::iostreams::write<boost::iostreams::basic_null_sink<char> >
PUBLIC	??$write@U?$basic_null_sink@D@iostreams@boost@@V?$linked_streambuf@DU?$char_traits@D@std@@@detail@23@@?$device_wrapper_impl@Uoutput@iostreams@boost@@@detail@iostreams@boost@@SAHAAU?$basic_null_sink@D@23@PAV?$linked_streambuf@DU?$char_traits@D@std@@@123@PBDH@Z ; boost::iostreams::detail::device_wrapper_impl<boost::iostreams::output>::write<boost::iostreams::basic_null_sink<char>,boost::iostreams::detail::linked_streambuf<char,std::char_traits<char> > >
PUBLIC	??$write@V?$linked_streambuf@DU?$char_traits@D@std@@@detail@iostreams@boost@@@?$concept_adapter@U?$basic_null_sink@D@iostreams@boost@@@detail@iostreams@boost@@QAEHPBDHPAV?$linked_streambuf@DU?$char_traits@D@std@@@123@@Z ; boost::iostreams::detail::concept_adapter<boost::iostreams::basic_null_sink<char> >::write<boost::iostreams::detail::linked_streambuf<char,std::char_traits<char> > >
PUBLIC	?sync_impl@?$indirect_streambuf@U?$basic_null_sink@D@iostreams@boost@@U?$char_traits@D@std@@V?$allocator@D@5@Uoutput@23@@detail@iostreams@boost@@AAEXXZ ; boost::iostreams::detail::indirect_streambuf<boost::iostreams::basic_null_sink<char>,std::char_traits<char>,std::allocator<char>,boost::iostreams::output>::sync_impl
PUBLIC	?init_get_area@?$indirect_streambuf@U?$basic_null_sink@D@iostreams@boost@@U?$char_traits@D@std@@V?$allocator@D@5@Uoutput@23@@detail@iostreams@boost@@EAEXXZ ; boost::iostreams::detail::indirect_streambuf<boost::iostreams::basic_null_sink<char>,std::char_traits<char>,std::allocator<char>,boost::iostreams::output>::init_get_area
PUBLIC	?out@?$indirect_streambuf@U?$basic_null_sink@D@iostreams@boost@@U?$char_traits@D@std@@V?$allocator@D@5@Uoutput@23@@detail@iostreams@boost@@AAEAAV?$basic_buffer@DV?$allocator@D@std@@@234@XZ ; boost::iostreams::detail::indirect_streambuf<boost::iostreams::basic_null_sink<char>,std::char_traits<char>,std::allocator<char>,boost::iostreams::output>::out
PUBLIC	?output_buffered@?$indirect_streambuf@U?$basic_null_sink@D@iostreams@boost@@U?$char_traits@D@std@@V?$allocator@D@5@Uoutput@23@@detail@iostreams@boost@@ABE_NXZ ; boost::iostreams::detail::indirect_streambuf<boost::iostreams::basic_null_sink<char>,std::char_traits<char>,std::allocator<char>,boost::iostreams::output>::output_buffered
PUBLIC	?shared_buffer@?$indirect_streambuf@U?$basic_null_sink@D@iostreams@boost@@U?$char_traits@D@std@@V?$allocator@D@5@Uoutput@23@@detail@iostreams@boost@@ABE_NXZ ; boost::iostreams::detail::indirect_streambuf<boost::iostreams::basic_null_sink<char>,std::char_traits<char>,std::allocator<char>,boost::iostreams::output>::shared_buffer
PUBLIC	?init_put_area@?$indirect_streambuf@U?$basic_null_sink@D@iostreams@boost@@U?$char_traits@D@std@@V?$allocator@D@5@Uoutput@23@@detail@iostreams@boost@@EAEXXZ ; boost::iostreams::detail::indirect_streambuf<boost::iostreams::basic_null_sink<char>,std::char_traits<char>,std::allocator<char>,boost::iostreams::output>::init_put_area
PUBLIC	?is_open@?$indirect_streambuf@U?$basic_null_sink@D@iostreams@boost@@U?$char_traits@D@std@@V?$allocator@D@5@Uoutput@23@@detail@iostreams@boost@@QBE_NXZ ; boost::iostreams::detail::indirect_streambuf<boost::iostreams::basic_null_sink<char>,std::char_traits<char>,std::allocator<char>,boost::iostreams::output>::is_open
PUBLIC	??0?$reset_operation@V?$optional@V?$concept_adapter@U?$basic_null_sink@D@iostreams@boost@@@detail@iostreams@boost@@@detail@iostreams@boost@@@detail@iostreams@boost@@QAE@AAV?$optional@V?$concept_adapter@U?$basic_null_sink@D@iostreams@boost@@@detail@iostreams@boost@@@123@@Z ; boost::iostreams::detail::reset_operation<boost::iostreams::detail::optional<boost::iostreams::detail::concept_adapter<boost::iostreams::basic_null_sink<char> > > >::reset_operation<boost::iostreams::detail::optional<boost::iostreams::detail::concept_adapter<boost::iostreams::basic_null_sink<char> > > >
PUBLIC	??$call_reset@V?$optional@V?$concept_adapter@U?$basic_null_sink@D@iostreams@boost@@@detail@iostreams@boost@@@detail@iostreams@boost@@@detail@iostreams@boost@@YA?AV?$reset_operation@V?$optional@V?$concept_adapter@U?$basic_null_sink@D@iostreams@boost@@@detail@iostreams@boost@@@detail@iostreams@boost@@@012@AAV?$optional@V?$concept_adapter@U?$basic_null_sink@D@iostreams@boost@@@detail@iostreams@boost@@@012@@Z ; boost::iostreams::detail::call_reset<boost::iostreams::detail::optional<boost::iostreams::detail::concept_adapter<boost::iostreams::basic_null_sink<char> > > >
PUBLIC	??R?$reset_operation@V?$optional@V?$concept_adapter@U?$basic_null_sink@D@iostreams@boost@@@detail@iostreams@boost@@@detail@iostreams@boost@@@detail@iostreams@boost@@QBEXXZ ; boost::iostreams::detail::reset_operation<boost::iostreams::detail::optional<boost::iostreams::detail::concept_adapter<boost::iostreams::basic_null_sink<char> > > >::operator()
PUBLIC	??$execute_all@V?$member_close_operation@V?$linked_streambuf@DU?$char_traits@D@std@@@detail@iostreams@boost@@@detail@iostreams@boost@@V1234@V?$reset_operation@V?$optional@V?$concept_adapter@U?$basic_null_sink@D@iostreams@boost@@@detail@iostreams@boost@@@detail@iostreams@boost@@@234@@detail@iostreams@boost@@YAHV?$member_close_operation@V?$linked_streambuf@DU?$char_traits@D@std@@@detail@iostreams@boost@@@012@0V?$reset_operation@V?$optional@V?$concept_adapter@U?$basic_null_sink@D@iostreams@boost@@@detail@iostreams@boost@@@detail@iostreams@boost@@@012@@Z ; boost::iostreams::detail::execute_all<boost::iostreams::detail::member_close_operation<boost::iostreams::detail::linked_streambuf<char,std::char_traits<char> > >,boost::iostreams::detail::member_close_operation<boost::iostreams::detail::linked_streambuf<char,std::char_traits<char> > >,boost::iostreams::detail::reset_operation<boost::iostreams::detail::optional<boost::iostreams::detail::concept_adapter<boost::iostreams::basic_null_sink<char> > > > >
PUBLIC	??$execute_all@V?$member_close_operation@V?$linked_streambuf@DU?$char_traits@D@std@@@detail@iostreams@boost@@@detail@iostreams@boost@@V1234@V?$reset_operation@V?$optional@V?$concept_adapter@U?$basic_null_sink@D@iostreams@boost@@@detail@iostreams@boost@@@detail@iostreams@boost@@@234@V?$clear_flags_operation@H@234@@detail@iostreams@boost@@YAHV?$member_close_operation@V?$linked_streambuf@DU?$char_traits@D@std@@@detail@iostreams@boost@@@012@0V?$reset_operation@V?$optional@V?$concept_adapter@U?$basic_null_sink@D@iostreams@boost@@@detail@iostreams@boost@@@detail@iostreams@boost@@@012@V?$clear_flags_operation@H@012@@Z ; boost::iostreams::detail::execute_all<boost::iostreams::detail::member_close_operation<boost::iostreams::detail::linked_streambuf<char,std::char_traits<char> > >,boost::iostreams::detail::member_close_operation<boost::iostreams::detail::linked_streambuf<char,std::char_traits<char> > >,boost::iostreams::detail::reset_operation<boost::iostreams::detail::optional<boost::iostreams::detail::concept_adapter<boost::iostreams::basic_null_sink<char> > > >,boost::iostreams::detail::clear_flags_operation<int> >
PUBLIC	?close@?$indirect_streambuf@U?$basic_null_sink@D@iostreams@boost@@U?$char_traits@D@std@@V?$allocator@D@5@Uoutput@23@@detail@iostreams@boost@@QAEXXZ ; boost::iostreams::detail::indirect_streambuf<boost::iostreams::basic_null_sink<char>,std::char_traits<char>,std::allocator<char>,boost::iostreams::output>::close
PUBLIC	?auto_close@?$indirect_streambuf@U?$basic_null_sink@D@iostreams@boost@@U?$char_traits@D@std@@V?$allocator@D@5@Uoutput@23@@detail@iostreams@boost@@UBE_NXZ ; boost::iostreams::detail::indirect_streambuf<boost::iostreams::basic_null_sink<char>,std::char_traits<char>,std::allocator<char>,boost::iostreams::output>::auto_close
PUBLIC	?address@?$optional@V?$concept_adapter@U?$basic_null_sink@D@iostreams@boost@@@detail@iostreams@boost@@@detail@iostreams@boost@@AAEPAXXZ ; boost::iostreams::detail::optional<boost::iostreams::detail::concept_adapter<boost::iostreams::basic_null_sink<char> > >::address
PUBLIC	?reset@?$optional@V?$concept_adapter@U?$basic_null_sink@D@iostreams@boost@@@detail@iostreams@boost@@@detail@iostreams@boost@@QAEXXZ ; boost::iostreams::detail::optional<boost::iostreams::detail::concept_adapter<boost::iostreams::basic_null_sink<char> > >::reset
PUBLIC	??1?$optional@V?$concept_adapter@U?$basic_null_sink@D@iostreams@boost@@@detail@iostreams@boost@@@detail@iostreams@boost@@QAE@XZ ; boost::iostreams::detail::optional<boost::iostreams::detail::concept_adapter<boost::iostreams::basic_null_sink<char> > >::~optional<boost::iostreams::detail::concept_adapter<boost::iostreams::basic_null_sink<char> > >
PUBLIC	??1?$indirect_streambuf@U?$basic_null_sink@D@iostreams@boost@@U?$char_traits@D@std@@V?$allocator@D@5@Uoutput@23@@detail@iostreams@boost@@UAE@XZ ; boost::iostreams::detail::indirect_streambuf<boost::iostreams::basic_null_sink<char>,std::char_traits<char>,std::allocator<char>,boost::iostreams::output>::~indirect_streambuf<boost::iostreams::basic_null_sink<char>,std::char_traits<char>,std::allocator<char>,boost::iostreams::output>
PUBLIC	??1?$stream_buffer@U?$basic_null_sink@D@iostreams@boost@@U?$char_traits@D@std@@V?$allocator@D@5@Uoutput@23@@iostreams@boost@@UAE@XZ ; boost::iostreams::stream_buffer<boost::iostreams::basic_null_sink<char>,std::char_traits<char>,std::allocator<char>,boost::iostreams::output>::~stream_buffer<boost::iostreams::basic_null_sink<char>,std::char_traits<char>,std::allocator<char>,boost::iostreams::output>
PUBLIC	??_G?$stream_buffer@U?$basic_null_sink@D@iostreams@boost@@U?$char_traits@D@std@@V?$allocator@D@5@Uoutput@23@@iostreams@boost@@UAEPAXI@Z ; boost::iostreams::stream_buffer<boost::iostreams::basic_null_sink<char>,std::char_traits<char>,std::allocator<char>,boost::iostreams::output>::`scalar deleting destructor'
PUBLIC	??$wrap@U?$basic_null_sink@D@iostreams@boost@@@detail@iostreams@boost@@YA?AU?$basic_null_sink@D@12@ABU312@PAX@Z ; boost::iostreams::detail::wrap<boost::iostreams::basic_null_sink<char> >
PUBLIC	??0?$stream_buffer@U?$basic_null_sink@D@iostreams@boost@@U?$char_traits@D@std@@V?$allocator@D@5@Uoutput@23@@iostreams@boost@@QAE@ABU?$basic_null_sink@D@12@HH@Z ; boost::iostreams::stream_buffer<boost::iostreams::basic_null_sink<char>,std::char_traits<char>,std::allocator<char>,boost::iostreams::output>::stream_buffer<boost::iostreams::basic_null_sink<char>,std::char_traits<char>,std::allocator<char>,boost::iostreams::output>
PUBLIC	??0?$auto_ptr@V?$stream_buffer@U?$basic_null_sink@D@iostreams@boost@@U?$char_traits@D@std@@V?$allocator@D@5@Uoutput@23@@iostreams@boost@@@std@@QAE@PAV?$stream_buffer@U?$basic_null_sink@D@iostreams@boost@@U?$char_traits@D@std@@V?$allocator@D@5@Uoutput@23@@iostreams@boost@@@Z ; std::auto_ptr<boost::iostreams::stream_buffer<boost::iostreams::basic_null_sink<char>,std::char_traits<char>,std::allocator<char>,boost::iostreams::output> >::auto_ptr<boost::iostreams::stream_buffer<boost::iostreams::basic_null_sink<char>,std::char_traits<char>,std::allocator<char>,boost::iostreams::output> >
PUBLIC	??1?$auto_ptr@V?$stream_buffer@U?$basic_null_sink@D@iostreams@boost@@U?$char_traits@D@std@@V?$allocator@D@5@Uoutput@23@@iostreams@boost@@@std@@QAE@XZ ; std::auto_ptr<boost::iostreams::stream_buffer<boost::iostreams::basic_null_sink<char>,std::char_traits<char>,std::allocator<char>,boost::iostreams::output> >::~auto_ptr<boost::iostreams::stream_buffer<boost::iostreams::basic_null_sink<char>,std::char_traits<char>,std::allocator<char>,boost::iostreams::output> >
PUBLIC	?get@?$auto_ptr@V?$stream_buffer@U?$basic_null_sink@D@iostreams@boost@@U?$char_traits@D@std@@V?$allocator@D@5@Uoutput@23@@iostreams@boost@@@std@@QBEPAV?$stream_buffer@U?$basic_null_sink@D@iostreams@boost@@U?$char_traits@D@std@@V?$allocator@D@5@Uoutput@23@@iostreams@boost@@XZ ; std::auto_ptr<boost::iostreams::stream_buffer<boost::iostreams::basic_null_sink<char>,std::char_traits<char>,std::allocator<char>,boost::iostreams::output> >::get
PUBLIC	?release@?$auto_ptr@V?$stream_buffer@U?$basic_null_sink@D@iostreams@boost@@U?$char_traits@D@std@@V?$allocator@D@5@Uoutput@23@@iostreams@boost@@@std@@QAEPAV?$stream_buffer@U?$basic_null_sink@D@iostreams@boost@@U?$char_traits@D@std@@V?$allocator@D@5@Uoutput@23@@iostreams@boost@@XZ ; std::auto_ptr<boost::iostreams::stream_buffer<boost::iostreams::basic_null_sink<char>,std::char_traits<char>,std::allocator<char>,boost::iostreams::output> >::release
PUBLIC	??$push_impl@U?$basic_null_sink@D@iostreams@boost@@@?$chain_base@V?$chain@Uoutput@iostreams@boost@@DU?$char_traits@D@std@@V?$allocator@D@5@@iostreams@boost@@DU?$char_traits@D@std@@V?$allocator@D@5@Uoutput@23@@detail@iostreams@boost@@AAEXABU?$basic_null_sink@D@23@HH@Z ; boost::iostreams::detail::chain_base<boost::iostreams::chain<boost::iostreams::output,char,std::char_traits<char>,std::allocator<char> >,char,std::char_traits<char>,std::allocator<char>,boost::iostreams::output>::push_impl<boost::iostreams::basic_null_sink<char> >
PUBLIC	??$push@U?$basic_null_sink@D@iostreams@boost@@@?$chain_base@V?$chain@Uoutput@iostreams@boost@@DU?$char_traits@D@std@@V?$allocator@D@5@@iostreams@boost@@DU?$char_traits@D@std@@V?$allocator@D@5@Uoutput@23@@detail@iostreams@boost@@QAEXABU?$basic_null_sink@D@23@HHPAX@Z ; boost::iostreams::detail::chain_base<boost::iostreams::chain<boost::iostreams::output,char,std::char_traits<char>,std::allocator<char> >,char,std::char_traits<char>,std::allocator<char>,boost::iostreams::output>::push<boost::iostreams::basic_null_sink<char> >
PUBLIC	??$push_impl@U?$basic_null_sink@D@iostreams@boost@@@?$chain_client@V?$chain@Uoutput@iostreams@boost@@DU?$char_traits@D@std@@V?$allocator@D@5@@iostreams@boost@@@detail@iostreams@boost@@IAEXABU?$basic_null_sink@D@23@HH@Z ; boost::iostreams::detail::chain_client<boost::iostreams::chain<boost::iostreams::output,char,std::char_traits<char>,std::allocator<char> > >::push_impl<boost::iostreams::basic_null_sink<char> >
PUBLIC	??$push@U?$basic_null_sink@D@iostreams@boost@@@?$chain_client@V?$chain@Uoutput@iostreams@boost@@DU?$char_traits@D@std@@V?$allocator@D@5@@iostreams@boost@@@detail@iostreams@boost@@QAEXABU?$basic_null_sink@D@23@HHPAX@Z ; boost::iostreams::detail::chain_client<boost::iostreams::chain<boost::iostreams::output,char,std::char_traits<char>,std::allocator<char> > >::push<boost::iostreams::basic_null_sink<char> >
PUBLIC	??0?$basic_file_sink@D@iostreams@boost@@QAE@ABV?$basic_string@DU?$char_traits@D@std@@V?$allocator@D@2@@std@@H@Z ; boost::iostreams::basic_file_sink<char>::basic_file_sink<char>
PUBLIC	??$resolve@Uoutput@iostreams@boost@@DU?$basic_file_sink@D@23@@detail@iostreams@boost@@YAABU?$basic_file_sink@D@12@ABU312@PAX@Z ; boost::iostreams::detail::resolve<boost::iostreams::output,char,boost::iostreams::basic_file_sink<char> >
PUBLIC	?list@?$chain_base@V?$chain@Uoutput@iostreams@boost@@DU?$char_traits@D@std@@V?$allocator@D@5@@iostreams@boost@@DU?$char_traits@D@std@@V?$allocator@D@5@Uoutput@23@@detail@iostreams@boost@@ABEABV?$list@PAV?$linked_streambuf@DU?$char_traits@D@std@@@detail@iostreams@boost@@V?$allocator@PAV?$linked_streambuf@DU?$char_traits@D@std@@@detail@iostreams@boost@@@std@@@std@@XZ ; boost::iostreams::detail::chain_base<boost::iostreams::chain<boost::iostreams::output,char,std::char_traits<char>,std::allocator<char> >,char,std::char_traits<char>,std::allocator<char>,boost::iostreams::output>::list
PUBLIC	?empty@?$chain_base@V?$chain@Uoutput@iostreams@boost@@DU?$char_traits@D@std@@V?$allocator@D@5@@iostreams@boost@@DU?$char_traits@D@std@@V?$allocator@D@5@Uoutput@23@@detail@iostreams@boost@@QBE_NXZ ; boost::iostreams::detail::chain_base<boost::iostreams::chain<boost::iostreams::output,char,std::char_traits<char>,std::allocator<char> >,char,std::char_traits<char>,std::allocator<char>,boost::iostreams::output>::empty
PUBLIC	?is_complete@?$chain_base@V?$chain@Uoutput@iostreams@boost@@DU?$char_traits@D@std@@V?$allocator@D@5@@iostreams@boost@@DU?$char_traits@D@std@@V?$allocator@D@5@Uoutput@23@@detail@iostreams@boost@@QBE_NXZ ; boost::iostreams::detail::chain_base<boost::iostreams::chain<boost::iostreams::output,char,std::char_traits<char>,std::allocator<char> >,char,std::char_traits<char>,std::allocator<char>,boost::iostreams::output>::is_complete
PUBLIC	?list@?$chain_base@V?$chain@Uoutput@iostreams@boost@@DU?$char_traits@D@std@@V?$allocator@D@5@@iostreams@boost@@DU?$char_traits@D@std@@V?$allocator@D@5@Uoutput@23@@detail@iostreams@boost@@AAEAAV?$list@PAV?$linked_streambuf@DU?$char_traits@D@std@@@detail@iostreams@boost@@V?$allocator@PAV?$linked_streambuf@DU?$char_traits@D@std@@@detail@iostreams@boost@@@std@@@std@@XZ ; boost::iostreams::detail::chain_base<boost::iostreams::chain<boost::iostreams::output,char,std::char_traits<char>,std::allocator<char> >,char,std::char_traits<char>,std::allocator<char>,boost::iostreams::output>::list
PUBLIC	?notify@?$chain_base@V?$chain@Uoutput@iostreams@boost@@DU?$char_traits@D@std@@V?$allocator@D@5@@iostreams@boost@@DU?$char_traits@D@std@@V?$allocator@D@5@Uoutput@23@@detail@iostreams@boost@@AAEXXZ ; boost::iostreams::detail::chain_base<boost::iostreams::chain<boost::iostreams::output,char,std::char_traits<char>,std::allocator<char> >,char,std::char_traits<char>,std::allocator<char>,boost::iostreams::output>::notify
PUBLIC	??C?$shared_ptr@Uchain_impl@?$chain_base@V?$chain@Uoutput@iostreams@boost@@DU?$char_traits@D@std@@V?$allocator@D@5@@iostreams@boost@@DU?$char_traits@D@std@@V?$allocator@D@5@Uoutput@23@@detail@iostreams@boost@@@boost@@QBEPAUchain_impl@?$chain_base@V?$chain@Uoutput@iostreams@boost@@DU?$char_traits@D@std@@V?$allocator@D@5@@iostreams@boost@@DU?$char_traits@D@std@@V?$allocator@D@5@Uoutput@23@@detail@iostreams@1@XZ ; boost::shared_ptr<boost::iostreams::detail::chain_base<boost::iostreams::chain<boost::iostreams::output,char,std::char_traits<char>,std::allocator<char> >,char,std::char_traits<char>,std::allocator<char>,boost::iostreams::output>::chain_impl>::operator->
PUBLIC	??0?$double_object@V?$basic_buffer@DV?$allocator@D@std@@@detail@iostreams@boost@@U?$is_convertible@Uoutput@iostreams@boost@@Utwo_sequence@detail@23@@4@@detail@iostreams@boost@@QAE@XZ ; boost::iostreams::detail::double_object<boost::iostreams::detail::basic_buffer<char,std::allocator<char> >,boost::is_convertible<boost::iostreams::output,boost::iostreams::detail::two_sequence> >::double_object<boost::iostreams::detail::basic_buffer<char,std::allocator<char> >,boost::is_convertible<boost::iostreams::output,boost::iostreams::detail::two_sequence> >
PUBLIC	??0?$optional@V?$concept_adapter@U?$basic_file_sink@D@iostreams@boost@@@detail@iostreams@boost@@@detail@iostreams@boost@@QAE@XZ ; boost::iostreams::detail::optional<boost::iostreams::detail::concept_adapter<boost::iostreams::basic_file_sink<char> > >::optional<boost::iostreams::detail::concept_adapter<boost::iostreams::basic_file_sink<char> > >
PUBLIC	??_G?$indirect_streambuf@U?$basic_file_sink@D@iostreams@boost@@U?$char_traits@D@std@@V?$allocator@D@5@Uoutput@23@@detail@iostreams@boost@@UAEPAXI@Z ; boost::iostreams::detail::indirect_streambuf<boost::iostreams::basic_file_sink<char>,std::char_traits<char>,std::allocator<char>,boost::iostreams::output>::`scalar deleting destructor'
PUBLIC	??0?$indirect_streambuf@U?$basic_file_sink@D@iostreams@boost@@U?$char_traits@D@std@@V?$allocator@D@5@Uoutput@23@@detail@iostreams@boost@@QAE@XZ ; boost::iostreams::detail::indirect_streambuf<boost::iostreams::basic_file_sink<char>,std::char_traits<char>,std::allocator<char>,boost::iostreams::output>::indirect_streambuf<boost::iostreams::basic_file_sink<char>,std::char_traits<char>,std::allocator<char>,boost::iostreams::output>
PUBLIC	??$unwrap@U?$basic_file_sink@D@iostreams@boost@@@detail@iostreams@boost@@YAABU?$basic_file_sink@D@12@ABU312@@Z ; boost::iostreams::detail::unwrap<boost::iostreams::basic_file_sink<char> >
PUBLIC	??$optimal_buffer_size@U?$basic_file_sink@D@iostreams@boost@@@?$optimal_buffer_size_impl@Udevice_tag@iostreams@boost@@@detail@iostreams@boost@@SAHABU?$basic_file_sink@D@23@@Z ; boost::iostreams::detail::optimal_buffer_size_impl<boost::iostreams::device_tag>::optimal_buffer_size<boost::iostreams::basic_file_sink<char> >
PUBLIC	??$optimal_buffer_size@U?$basic_file_sink@D@iostreams@boost@@@iostreams@boost@@YAHABU?$basic_file_sink@D@01@@Z ; boost::iostreams::optimal_buffer_size<boost::iostreams::basic_file_sink<char> >
PUBLIC	?can_read@?$indirect_streambuf@U?$basic_file_sink@D@iostreams@boost@@U?$char_traits@D@std@@V?$allocator@D@5@Uoutput@23@@detail@iostreams@boost@@ABE_NXZ ; boost::iostreams::detail::indirect_streambuf<boost::iostreams::basic_file_sink<char>,std::char_traits<char>,std::allocator<char>,boost::iostreams::output>::can_read
PUBLIC	?can_write@?$indirect_streambuf@U?$basic_file_sink@D@iostreams@boost@@U?$char_traits@D@std@@V?$allocator@D@5@Uoutput@23@@detail@iostreams@boost@@ABE_NXZ ; boost::iostreams::detail::indirect_streambuf<boost::iostreams::basic_file_sink<char>,std::char_traits<char>,std::allocator<char>,boost::iostreams::output>::can_write
PUBLIC	??0?$concept_adapter@U?$basic_file_sink@D@iostreams@boost@@@detail@iostreams@boost@@QAE@ABV0123@@Z ; boost::iostreams::detail::concept_adapter<boost::iostreams::basic_file_sink<char> >::concept_adapter<boost::iostreams::basic_file_sink<char> >
PUBLIC	?reset@?$optional@V?$concept_adapter@U?$basic_file_sink@D@iostreams@boost@@@detail@iostreams@boost@@@detail@iostreams@boost@@QAEXABV?$concept_adapter@U?$basic_file_sink@D@iostreams@boost@@@234@@Z ; boost::iostreams::detail::optional<boost::iostreams::detail::concept_adapter<boost::iostreams::basic_file_sink<char> > >::reset
PUBLIC	??0?$concept_adapter@U?$basic_file_sink@D@iostreams@boost@@@detail@iostreams@boost@@QAE@ABU?$basic_file_sink@D@23@@Z ; boost::iostreams::detail::concept_adapter<boost::iostreams::basic_file_sink<char> >::concept_adapter<boost::iostreams::basic_file_sink<char> >
PUBLIC	?open@?$indirect_streambuf@U?$basic_file_sink@D@iostreams@boost@@U?$char_traits@D@std@@V?$allocator@D@5@Uoutput@23@@detail@iostreams@boost@@QAEXABU?$basic_file_sink@D@34@HH@Z ; boost::iostreams::detail::indirect_streambuf<boost::iostreams::basic_file_sink<char>,std::char_traits<char>,std::allocator<char>,boost::iostreams::output>::open
PUBLIC	?open_impl@?$stream_buffer@U?$basic_file_sink@D@iostreams@boost@@U?$char_traits@D@std@@V?$allocator@D@5@Uoutput@23@@iostreams@boost@@AAEXABU?$basic_file_sink@D@23@HH@Z ; boost::iostreams::stream_buffer<boost::iostreams::basic_file_sink<char>,std::char_traits<char>,std::allocator<char>,boost::iostreams::output>::open_impl
PUBLIC	?set_auto_close@?$indirect_streambuf@U?$basic_file_sink@D@iostreams@boost@@U?$char_traits@D@std@@V?$allocator@D@5@Uoutput@23@@detail@iostreams@boost@@UAEX_N@Z ; boost::iostreams::detail::indirect_streambuf<boost::iostreams::basic_file_sink<char>,std::char_traits<char>,std::allocator<char>,boost::iostreams::output>::set_auto_close
PUBLIC	?strict_sync@?$indirect_streambuf@U?$basic_file_sink@D@iostreams@boost@@U?$char_traits@D@std@@V?$allocator@D@5@Uoutput@23@@detail@iostreams@boost@@UAE_NXZ ; boost::iostreams::detail::indirect_streambuf<boost::iostreams::basic_file_sink<char>,std::char_traits<char>,std::allocator<char>,boost::iostreams::output>::strict_sync
PUBLIC	??$imbue@U?$basic_file_sink@D@iostreams@boost@@Vlocale@std@@@?$imbue_impl@Uany_tag@iostreams@boost@@@detail@iostreams@boost@@SAXAAU?$basic_file_sink@D@23@ABVlocale@std@@@Z ; boost::iostreams::detail::imbue_impl<boost::iostreams::any_tag>::imbue<boost::iostreams::basic_file_sink<char>,std::locale>
PUBLIC	??$imbue@U?$basic_file_sink@D@iostreams@boost@@Vlocale@std@@@iostreams@boost@@YAXAAU?$basic_file_sink@D@01@ABVlocale@std@@@Z ; boost::iostreams::imbue<boost::iostreams::basic_file_sink<char>,std::locale>
PUBLIC	??$imbue@Vlocale@std@@@?$concept_adapter@U?$basic_file_sink@D@iostreams@boost@@@detail@iostreams@boost@@QAEXABVlocale@std@@@Z ; boost::iostreams::detail::concept_adapter<boost::iostreams::basic_file_sink<char> >::imbue<std::locale>
PUBLIC	?imbue@?$indirect_streambuf@U?$basic_file_sink@D@iostreams@boost@@U?$char_traits@D@std@@V?$allocator@D@5@Uoutput@23@@detail@iostreams@boost@@MAEXABVlocale@std@@@Z ; boost::iostreams::detail::indirect_streambuf<boost::iostreams::basic_file_sink<char>,std::char_traits<char>,std::allocator<char>,boost::iostreams::output>::imbue
PUBLIC	?cant_read@detail@iostreams@boost@@YA?AVfailure@ios_base@std@@XZ ; boost::iostreams::detail::cant_read
PUBLIC	??$read@U?$basic_file_sink@D@iostreams@boost@@V?$linked_streambuf@DU?$char_traits@D@std@@@detail@23@@?$device_wrapper_impl@Uoutput@iostreams@boost@@@detail@iostreams@boost@@SAHAAU?$basic_file_sink@D@23@PAV?$linked_streambuf@DU?$char_traits@D@std@@@123@PADH@Z ; boost::iostreams::detail::device_wrapper_impl<boost::iostreams::output>::read<boost::iostreams::basic_file_sink<char>,boost::iostreams::detail::linked_streambuf<char,std::char_traits<char> > >
PUBLIC	??$read@V?$linked_streambuf@DU?$char_traits@D@std@@@detail@iostreams@boost@@@?$concept_adapter@U?$basic_file_sink@D@iostreams@boost@@@detail@iostreams@boost@@QAEHPADHPAV?$linked_streambuf@DU?$char_traits@D@std@@@123@@Z ; boost::iostreams::detail::concept_adapter<boost::iostreams::basic_file_sink<char> >::read<boost::iostreams::detail::linked_streambuf<char,std::char_traits<char> > >
PUBLIC	?underflow@?$indirect_streambuf@U?$basic_file_sink@D@iostreams@boost@@U?$char_traits@D@std@@V?$allocator@D@5@Uoutput@23@@detail@iostreams@boost@@MAEHXZ ; boost::iostreams::detail::indirect_streambuf<boost::iostreams::basic_file_sink<char>,std::char_traits<char>,std::allocator<char>,boost::iostreams::output>::underflow
PUBLIC	?pbackfail@?$indirect_streambuf@U?$basic_file_sink@D@iostreams@boost@@U?$char_traits@D@std@@V?$allocator@D@5@Uoutput@23@@detail@iostreams@boost@@MAEHH@Z ; boost::iostreams::detail::indirect_streambuf<boost::iostreams::basic_file_sink<char>,std::char_traits<char>,std::allocator<char>,boost::iostreams::output>::pbackfail
PUBLIC	?overflow@?$indirect_streambuf@U?$basic_file_sink@D@iostreams@boost@@U?$char_traits@D@std@@V?$allocator@D@5@Uoutput@23@@detail@iostreams@boost@@MAEHH@Z ; boost::iostreams::detail::indirect_streambuf<boost::iostreams::basic_file_sink<char>,std::char_traits<char>,std::allocator<char>,boost::iostreams::output>::overflow
PUBLIC	??$flush@U?$basic_file_sink@D@iostreams@boost@@@?$flush_device_impl@Uany_tag@iostreams@boost@@@detail@iostreams@boost@@SA_NAAU?$basic_file_sink@D@23@@Z ; boost::iostreams::detail::flush_device_impl<boost::iostreams::any_tag>::flush<boost::iostreams::basic_file_sink<char> >
PUBLIC	??$flush@U?$basic_file_sink@D@iostreams@boost@@@iostreams@boost@@YA_NAAU?$basic_file_sink@D@01@@Z ; boost::iostreams::flush<boost::iostreams::basic_file_sink<char> >
PUBLIC	??$flush@U?$basic_file_sink@D@iostreams@boost@@V?$basic_streambuf@DU?$char_traits@D@std@@@std@@@?$device_wrapper_impl@Uany_tag@iostreams@boost@@@detail@iostreams@boost@@SA_NAAU?$basic_file_sink@D@23@PAV?$basic_streambuf@DU?$char_traits@D@std@@@std@@@Z ; boost::iostreams::detail::device_wrapper_impl<boost::iostreams::any_tag>::flush<boost::iostreams::basic_file_sink<char>,std::basic_streambuf<char,std::char_traits<char> > >
PUBLIC	?flush@?$concept_adapter@U?$basic_file_sink@D@iostreams@boost@@@detail@iostreams@boost@@QAE_NPAV?$basic_streambuf@DU?$char_traits@D@std@@@std@@@Z ; boost::iostreams::detail::concept_adapter<boost::iostreams::basic_file_sink<char> >::flush
PUBLIC	?sync@?$indirect_streambuf@U?$basic_file_sink@D@iostreams@boost@@U?$char_traits@D@std@@V?$allocator@D@5@Uoutput@23@@detail@iostreams@boost@@MAEHXZ ; boost::iostreams::detail::indirect_streambuf<boost::iostreams::basic_file_sink<char>,std::char_traits<char>,std::allocator<char>,boost::iostreams::output>::sync
PUBLIC	?seekoff@?$indirect_streambuf@U?$basic_file_sink@D@iostreams@boost@@U?$char_traits@D@std@@V?$allocator@D@5@Uoutput@23@@detail@iostreams@boost@@MAE?AV?$fpos@H@std@@JHH@Z ; boost::iostreams::detail::indirect_streambuf<boost::iostreams::basic_file_sink<char>,std::char_traits<char>,std::allocator<char>,boost::iostreams::output>::seekoff
PUBLIC	??0output@iostreams@boost@@QAE@XZ		; boost::iostreams::output::output
PUBLIC	??0output_seekable@iostreams@boost@@QAE@XZ	; boost::iostreams::output_seekable::output_seekable
PUBLIC	??0category@?$basic_file_sink@D@iostreams@boost@@QAE@XZ ; boost::iostreams::basic_file_sink<char>::category::category
PUBLIC	??$seek@U?$basic_file_sink@D@iostreams@boost@@@?$seek_device_impl@Uany_tag@iostreams@boost@@@detail@iostreams@boost@@SA?AV?$fpos@H@std@@AAU?$basic_file_sink@D@23@_JHH@Z ; boost::iostreams::detail::seek_device_impl<boost::iostreams::any_tag>::seek<boost::iostreams::basic_file_sink<char> >
PUBLIC	??$seek@U?$basic_file_sink@D@iostreams@boost@@@iostreams@boost@@YA?AV?$fpos@H@std@@AAU?$basic_file_sink@D@01@_JHH@Z ; boost::iostreams::seek<boost::iostreams::basic_file_sink<char> >
PUBLIC	??$seek@U?$basic_file_sink@D@iostreams@boost@@@?$device_wrapper_impl@Uany_tag@iostreams@boost@@@detail@iostreams@boost@@SA?AV?$fpos@H@std@@AAU?$basic_file_sink@D@23@_JHHUrandom_access@123@@Z ; boost::iostreams::detail::device_wrapper_impl<boost::iostreams::any_tag>::seek<boost::iostreams::basic_file_sink<char> >
PUBLIC	??$seek@U?$basic_file_sink@D@iostreams@boost@@V?$linked_streambuf@DU?$char_traits@D@std@@@detail@23@@?$device_wrapper_impl@Uany_tag@iostreams@boost@@@detail@iostreams@boost@@SA?AV?$fpos@H@std@@AAU?$basic_file_sink@D@23@PAV?$linked_streambuf@DU?$char_traits@D@std@@@123@_JHH@Z ; boost::iostreams::detail::device_wrapper_impl<boost::iostreams::any_tag>::seek<boost::iostreams::basic_file_sink<char>,boost::iostreams::detail::linked_streambuf<char,std::char_traits<char> > >
PUBLIC	??$seek@V?$linked_streambuf@DU?$char_traits@D@std@@@detail@iostreams@boost@@@?$concept_adapter@U?$basic_file_sink@D@iostreams@boost@@@detail@iostreams@boost@@QAE?AV?$fpos@H@std@@_JHHPAV?$linked_streambuf@DU?$char_traits@D@std@@@123@@Z ; boost::iostreams::detail::concept_adapter<boost::iostreams::basic_file_sink<char> >::seek<boost::iostreams::detail::linked_streambuf<char,std::char_traits<char> > >
PUBLIC	?seek_impl@?$indirect_streambuf@U?$basic_file_sink@D@iostreams@boost@@U?$char_traits@D@std@@V?$allocator@D@5@Uoutput@23@@detail@iostreams@boost@@AAE?AV?$fpos@H@std@@_JHH@Z ; boost::iostreams::detail::indirect_streambuf<boost::iostreams::basic_file_sink<char>,std::char_traits<char>,std::allocator<char>,boost::iostreams::output>::seek_impl
PUBLIC	?seekpos@?$indirect_streambuf@U?$basic_file_sink@D@iostreams@boost@@U?$char_traits@D@std@@V?$allocator@D@5@Uoutput@23@@detail@iostreams@boost@@MAE?AV?$fpos@H@std@@V56@H@Z ; boost::iostreams::detail::indirect_streambuf<boost::iostreams::basic_file_sink<char>,std::char_traits<char>,std::allocator<char>,boost::iostreams::output>::seekpos
PUBLIC	?set_next@?$indirect_streambuf@U?$basic_file_sink@D@iostreams@boost@@U?$char_traits@D@std@@V?$allocator@D@5@Uoutput@23@@detail@iostreams@boost@@MAEXPAV?$linked_streambuf@DU?$char_traits@D@std@@@234@@Z ; boost::iostreams::detail::indirect_streambuf<boost::iostreams::basic_file_sink<char>,std::char_traits<char>,std::allocator<char>,boost::iostreams::output>::set_next
PUBLIC	??$close_all@U?$basic_file_sink@D@iostreams@boost@@@detail@iostreams@boost@@YAXAAU?$basic_file_sink@D@12@@Z ; boost::iostreams::detail::close_all<boost::iostreams::basic_file_sink<char> >
PUBLIC	??$close@U?$basic_file_sink@D@iostreams@boost@@@?$close_impl@Uclosable_tag@iostreams@boost@@@detail@iostreams@boost@@SAXAAU?$basic_file_sink@D@23@H@Z ; boost::iostreams::detail::close_impl<boost::iostreams::closable_tag>::close<boost::iostreams::basic_file_sink<char> >
PUBLIC	??$close@U?$basic_file_sink@D@iostreams@boost@@@iostreams@boost@@YAXAAU?$basic_file_sink@D@01@H@Z ; boost::iostreams::close<boost::iostreams::basic_file_sink<char> >
PUBLIC	??$close@U?$basic_file_sink@D@iostreams@boost@@V?$linked_streambuf@DU?$char_traits@D@std@@@detail@23@@?$device_wrapper_impl@Uany_tag@iostreams@boost@@@detail@iostreams@boost@@SAXAAU?$basic_file_sink@D@23@PAV?$linked_streambuf@DU?$char_traits@D@std@@@123@H@Z ; boost::iostreams::detail::device_wrapper_impl<boost::iostreams::any_tag>::close<boost::iostreams::basic_file_sink<char>,boost::iostreams::detail::linked_streambuf<char,std::char_traits<char> > >
PUBLIC	??$close@V?$linked_streambuf@DU?$char_traits@D@std@@@detail@iostreams@boost@@@?$concept_adapter@U?$basic_file_sink@D@iostreams@boost@@@detail@iostreams@boost@@QAEXHPAV?$linked_streambuf@DU?$char_traits@D@std@@@123@@Z ; boost::iostreams::detail::concept_adapter<boost::iostreams::basic_file_sink<char> >::close<boost::iostreams::detail::linked_streambuf<char,std::char_traits<char> > >
PUBLIC	?close_impl@?$indirect_streambuf@U?$basic_file_sink@D@iostreams@boost@@U?$char_traits@D@std@@V?$allocator@D@5@Uoutput@23@@detail@iostreams@boost@@MAEXH@Z ; boost::iostreams::detail::indirect_streambuf<boost::iostreams::basic_file_sink<char>,std::char_traits<char>,std::allocator<char>,boost::iostreams::output>::close_impl
PUBLIC	?component_type@?$indirect_streambuf@U?$basic_file_sink@D@iostreams@boost@@U?$char_traits@D@std@@V?$allocator@D@5@Uoutput@23@@detail@iostreams@boost@@MBEABVtype_info@@XZ ; boost::iostreams::detail::indirect_streambuf<boost::iostreams::basic_file_sink<char>,std::char_traits<char>,std::allocator<char>,boost::iostreams::output>::component_type
PUBLIC	??D?$concept_adapter@U?$basic_file_sink@D@iostreams@boost@@@detail@iostreams@boost@@QAEAAU?$basic_file_sink@D@23@XZ ; boost::iostreams::detail::concept_adapter<boost::iostreams::basic_file_sink<char> >::operator*
PUBLIC	?component@?$indirect_streambuf@U?$basic_file_sink@D@iostreams@boost@@U?$char_traits@D@std@@V?$allocator@D@5@Uoutput@23@@detail@iostreams@boost@@QAEPAU?$basic_file_sink@D@34@XZ ; boost::iostreams::detail::indirect_streambuf<boost::iostreams::basic_file_sink<char>,std::char_traits<char>,std::allocator<char>,boost::iostreams::output>::component
PUBLIC	?component_impl@?$indirect_streambuf@U?$basic_file_sink@D@iostreams@boost@@U?$char_traits@D@std@@V?$allocator@D@5@Uoutput@23@@detail@iostreams@boost@@MAEPAXXZ ; boost::iostreams::detail::indirect_streambuf<boost::iostreams::basic_file_sink<char>,std::char_traits<char>,std::allocator<char>,boost::iostreams::output>::component_impl
PUBLIC	?in@?$indirect_streambuf@U?$basic_file_sink@D@iostreams@boost@@U?$char_traits@D@std@@V?$allocator@D@5@Uoutput@23@@detail@iostreams@boost@@AAEAAV?$basic_buffer@DV?$allocator@D@std@@@234@XZ ; boost::iostreams::detail::indirect_streambuf<boost::iostreams::basic_file_sink<char>,std::char_traits<char>,std::allocator<char>,boost::iostreams::output>::in
PUBLIC	??D?$optional@V?$concept_adapter@U?$basic_file_sink@D@iostreams@boost@@@detail@iostreams@boost@@@detail@iostreams@boost@@QAEAAV?$concept_adapter@U?$basic_file_sink@D@iostreams@boost@@@123@XZ ; boost::iostreams::detail::optional<boost::iostreams::detail::concept_adapter<boost::iostreams::basic_file_sink<char> > >::operator*
PUBLIC	?obj@?$indirect_streambuf@U?$basic_file_sink@D@iostreams@boost@@U?$char_traits@D@std@@V?$allocator@D@5@Uoutput@23@@detail@iostreams@boost@@AAEAAV?$concept_adapter@U?$basic_file_sink@D@iostreams@boost@@@234@XZ ; boost::iostreams::detail::indirect_streambuf<boost::iostreams::basic_file_sink<char>,std::char_traits<char>,std::allocator<char>,boost::iostreams::output>::obj
PUBLIC	?next@?$indirect_streambuf@U?$basic_file_sink@D@iostreams@boost@@U?$char_traits@D@std@@V?$allocator@D@5@Uoutput@23@@detail@iostreams@boost@@ABEPAV?$linked_streambuf@DU?$char_traits@D@std@@@234@XZ ; boost::iostreams::detail::indirect_streambuf<boost::iostreams::basic_file_sink<char>,std::char_traits<char>,std::allocator<char>,boost::iostreams::output>::next
PUBLIC	??$unwrap@U?$basic_file_sink@D@iostreams@boost@@@detail@iostreams@boost@@YAAAU?$basic_file_sink@D@12@AAU312@@Z ; boost::iostreams::detail::unwrap<boost::iostreams::basic_file_sink<char> >
PUBLIC	?write@?$basic_file@D@iostreams@boost@@QAEHPBDH@Z ; boost::iostreams::basic_file<char>::write
PUBLIC	??$write@U?$basic_file_sink@D@iostreams@boost@@@?$write_device_impl@Uoutput@iostreams@boost@@@detail@iostreams@boost@@SAHAAU?$basic_file_sink@D@23@PBDH@Z ; boost::iostreams::detail::write_device_impl<boost::iostreams::output>::write<boost::iostreams::basic_file_sink<char> >
PUBLIC	??$write@U?$basic_file_sink@D@iostreams@boost@@@iostreams@boost@@YAHAAU?$basic_file_sink@D@01@PBDH@Z ; boost::iostreams::write<boost::iostreams::basic_file_sink<char> >
PUBLIC	??$write@U?$basic_file_sink@D@iostreams@boost@@V?$linked_streambuf@DU?$char_traits@D@std@@@detail@23@@?$device_wrapper_impl@Uoutput@iostreams@boost@@@detail@iostreams@boost@@SAHAAU?$basic_file_sink@D@23@PAV?$linked_streambuf@DU?$char_traits@D@std@@@123@PBDH@Z ; boost::iostreams::detail::device_wrapper_impl<boost::iostreams::output>::write<boost::iostreams::basic_file_sink<char>,boost::iostreams::detail::linked_streambuf<char,std::char_traits<char> > >
PUBLIC	??$write@V?$linked_streambuf@DU?$char_traits@D@std@@@detail@iostreams@boost@@@?$concept_adapter@U?$basic_file_sink@D@iostreams@boost@@@detail@iostreams@boost@@QAEHPBDHPAV?$linked_streambuf@DU?$char_traits@D@std@@@123@@Z ; boost::iostreams::detail::concept_adapter<boost::iostreams::basic_file_sink<char> >::write<boost::iostreams::detail::linked_streambuf<char,std::char_traits<char> > >
PUBLIC	?sync_impl@?$indirect_streambuf@U?$basic_file_sink@D@iostreams@boost@@U?$char_traits@D@std@@V?$allocator@D@5@Uoutput@23@@detail@iostreams@boost@@AAEXXZ ; boost::iostreams::detail::indirect_streambuf<boost::iostreams::basic_file_sink<char>,std::char_traits<char>,std::allocator<char>,boost::iostreams::output>::sync_impl
PUBLIC	?init_get_area@?$indirect_streambuf@U?$basic_file_sink@D@iostreams@boost@@U?$char_traits@D@std@@V?$allocator@D@5@Uoutput@23@@detail@iostreams@boost@@EAEXXZ ; boost::iostreams::detail::indirect_streambuf<boost::iostreams::basic_file_sink<char>,std::char_traits<char>,std::allocator<char>,boost::iostreams::output>::init_get_area
PUBLIC	?out@?$indirect_streambuf@U?$basic_file_sink@D@iostreams@boost@@U?$char_traits@D@std@@V?$allocator@D@5@Uoutput@23@@detail@iostreams@boost@@AAEAAV?$basic_buffer@DV?$allocator@D@std@@@234@XZ ; boost::iostreams::detail::indirect_streambuf<boost::iostreams::basic_file_sink<char>,std::char_traits<char>,std::allocator<char>,boost::iostreams::output>::out
PUBLIC	?output_buffered@?$indirect_streambuf@U?$basic_file_sink@D@iostreams@boost@@U?$char_traits@D@std@@V?$allocator@D@5@Uoutput@23@@detail@iostreams@boost@@ABE_NXZ ; boost::iostreams::detail::indirect_streambuf<boost::iostreams::basic_file_sink<char>,std::char_traits<char>,std::allocator<char>,boost::iostreams::output>::output_buffered
PUBLIC	?shared_buffer@?$indirect_streambuf@U?$basic_file_sink@D@iostreams@boost@@U?$char_traits@D@std@@V?$allocator@D@5@Uoutput@23@@detail@iostreams@boost@@ABE_NXZ ; boost::iostreams::detail::indirect_streambuf<boost::iostreams::basic_file_sink<char>,std::char_traits<char>,std::allocator<char>,boost::iostreams::output>::shared_buffer
PUBLIC	?init_put_area@?$indirect_streambuf@U?$basic_file_sink@D@iostreams@boost@@U?$char_traits@D@std@@V?$allocator@D@5@Uoutput@23@@detail@iostreams@boost@@EAEXXZ ; boost::iostreams::detail::indirect_streambuf<boost::iostreams::basic_file_sink<char>,std::char_traits<char>,std::allocator<char>,boost::iostreams::output>::init_put_area
PUBLIC	?is_open@?$indirect_streambuf@U?$basic_file_sink@D@iostreams@boost@@U?$char_traits@D@std@@V?$allocator@D@5@Uoutput@23@@detail@iostreams@boost@@QBE_NXZ ; boost::iostreams::detail::indirect_streambuf<boost::iostreams::basic_file_sink<char>,std::char_traits<char>,std::allocator<char>,boost::iostreams::output>::is_open
PUBLIC	??0?$reset_operation@V?$optional@V?$concept_adapter@U?$basic_file_sink@D@iostreams@boost@@@detail@iostreams@boost@@@detail@iostreams@boost@@@detail@iostreams@boost@@QAE@AAV?$optional@V?$concept_adapter@U?$basic_file_sink@D@iostreams@boost@@@detail@iostreams@boost@@@123@@Z ; boost::iostreams::detail::reset_operation<boost::iostreams::detail::optional<boost::iostreams::detail::concept_adapter<boost::iostreams::basic_file_sink<char> > > >::reset_operation<boost::iostreams::detail::optional<boost::iostreams::detail::concept_adapter<boost::iostreams::basic_file_sink<char> > > >
PUBLIC	??$call_reset@V?$optional@V?$concept_adapter@U?$basic_file_sink@D@iostreams@boost@@@detail@iostreams@boost@@@detail@iostreams@boost@@@detail@iostreams@boost@@YA?AV?$reset_operation@V?$optional@V?$concept_adapter@U?$basic_file_sink@D@iostreams@boost@@@detail@iostreams@boost@@@detail@iostreams@boost@@@012@AAV?$optional@V?$concept_adapter@U?$basic_file_sink@D@iostreams@boost@@@detail@iostreams@boost@@@012@@Z ; boost::iostreams::detail::call_reset<boost::iostreams::detail::optional<boost::iostreams::detail::concept_adapter<boost::iostreams::basic_file_sink<char> > > >
PUBLIC	??R?$reset_operation@V?$optional@V?$concept_adapter@U?$basic_file_sink@D@iostreams@boost@@@detail@iostreams@boost@@@detail@iostreams@boost@@@detail@iostreams@boost@@QBEXXZ ; boost::iostreams::detail::reset_operation<boost::iostreams::detail::optional<boost::iostreams::detail::concept_adapter<boost::iostreams::basic_file_sink<char> > > >::operator()
PUBLIC	??$execute_all@V?$member_close_operation@V?$linked_streambuf@DU?$char_traits@D@std@@@detail@iostreams@boost@@@detail@iostreams@boost@@V1234@V?$reset_operation@V?$optional@V?$concept_adapter@U?$basic_file_sink@D@iostreams@boost@@@detail@iostreams@boost@@@detail@iostreams@boost@@@234@@detail@iostreams@boost@@YAHV?$member_close_operation@V?$linked_streambuf@DU?$char_traits@D@std@@@detail@iostreams@boost@@@012@0V?$reset_operation@V?$optional@V?$concept_adapter@U?$basic_file_sink@D@iostreams@boost@@@detail@iostreams@boost@@@detail@iostreams@boost@@@012@@Z ; boost::iostreams::detail::execute_all<boost::iostreams::detail::member_close_operation<boost::iostreams::detail::linked_streambuf<char,std::char_traits<char> > >,boost::iostreams::detail::member_close_operation<boost::iostreams::detail::linked_streambuf<char,std::char_traits<char> > >,boost::iostreams::detail::reset_operation<boost::iostreams::detail::optional<boost::iostreams::detail::concept_adapter<boost::iostreams::basic_file_sink<char> > > > >
PUBLIC	??$execute_all@V?$member_close_operation@V?$linked_streambuf@DU?$char_traits@D@std@@@detail@iostreams@boost@@@detail@iostreams@boost@@V1234@V?$reset_operation@V?$optional@V?$concept_adapter@U?$basic_file_sink@D@iostreams@boost@@@detail@iostreams@boost@@@detail@iostreams@boost@@@234@V?$clear_flags_operation@H@234@@detail@iostreams@boost@@YAHV?$member_close_operation@V?$linked_streambuf@DU?$char_traits@D@std@@@detail@iostreams@boost@@@012@0V?$reset_operation@V?$optional@V?$concept_adapter@U?$basic_file_sink@D@iostreams@boost@@@detail@iostreams@boost@@@detail@iostreams@boost@@@012@V?$clear_flags_operation@H@012@@Z ; boost::iostreams::detail::execute_all<boost::iostreams::detail::member_close_operation<boost::iostreams::detail::linked_streambuf<char,std::char_traits<char> > >,boost::iostreams::detail::member_close_operation<boost::iostreams::detail::linked_streambuf<char,std::char_traits<char> > >,boost::iostreams::detail::reset_operation<boost::iostreams::detail::optional<boost::iostreams::detail::concept_adapter<boost::iostreams::basic_file_sink<char> > > >,boost::iostreams::detail::clear_flags_operation<int> >
PUBLIC	?close@?$indirect_streambuf@U?$basic_file_sink@D@iostreams@boost@@U?$char_traits@D@std@@V?$allocator@D@5@Uoutput@23@@detail@iostreams@boost@@QAEXXZ ; boost::iostreams::detail::indirect_streambuf<boost::iostreams::basic_file_sink<char>,std::char_traits<char>,std::allocator<char>,boost::iostreams::output>::close
PUBLIC	?auto_close@?$indirect_streambuf@U?$basic_file_sink@D@iostreams@boost@@U?$char_traits@D@std@@V?$allocator@D@5@Uoutput@23@@detail@iostreams@boost@@UBE_NXZ ; boost::iostreams::detail::indirect_streambuf<boost::iostreams::basic_file_sink<char>,std::char_traits<char>,std::allocator<char>,boost::iostreams::output>::auto_close
PUBLIC	??1?$double_object@V?$basic_buffer@DV?$allocator@D@std@@@detail@iostreams@boost@@U?$is_convertible@Uoutput@iostreams@boost@@Utwo_sequence@detail@23@@4@@detail@iostreams@boost@@QAE@XZ ; boost::iostreams::detail::double_object<boost::iostreams::detail::basic_buffer<char,std::allocator<char> >,boost::is_convertible<boost::iostreams::output,boost::iostreams::detail::two_sequence> >::~double_object<boost::iostreams::detail::basic_buffer<char,std::allocator<char> >,boost::is_convertible<boost::iostreams::output,boost::iostreams::detail::two_sequence> >
PUBLIC	?address@?$optional@V?$concept_adapter@U?$basic_file_sink@D@iostreams@boost@@@detail@iostreams@boost@@@detail@iostreams@boost@@AAEPAXXZ ; boost::iostreams::detail::optional<boost::iostreams::detail::concept_adapter<boost::iostreams::basic_file_sink<char> > >::address
PUBLIC	??1?$concept_adapter@U?$basic_file_sink@D@iostreams@boost@@@detail@iostreams@boost@@QAE@XZ ; boost::iostreams::detail::concept_adapter<boost::iostreams::basic_file_sink<char> >::~concept_adapter<boost::iostreams::basic_file_sink<char> >
PUBLIC	?reset@?$optional@V?$concept_adapter@U?$basic_file_sink@D@iostreams@boost@@@detail@iostreams@boost@@@detail@iostreams@boost@@QAEXXZ ; boost::iostreams::detail::optional<boost::iostreams::detail::concept_adapter<boost::iostreams::basic_file_sink<char> > >::reset
PUBLIC	??1?$optional@V?$concept_adapter@U?$basic_file_sink@D@iostreams@boost@@@detail@iostreams@boost@@@detail@iostreams@boost@@QAE@XZ ; boost::iostreams::detail::optional<boost::iostreams::detail::concept_adapter<boost::iostreams::basic_file_sink<char> > >::~optional<boost::iostreams::detail::concept_adapter<boost::iostreams::basic_file_sink<char> > >
PUBLIC	??1?$indirect_streambuf@U?$basic_file_sink@D@iostreams@boost@@U?$char_traits@D@std@@V?$allocator@D@5@Uoutput@23@@detail@iostreams@boost@@UAE@XZ ; boost::iostreams::detail::indirect_streambuf<boost::iostreams::basic_file_sink<char>,std::char_traits<char>,std::allocator<char>,boost::iostreams::output>::~indirect_streambuf<boost::iostreams::basic_file_sink<char>,std::char_traits<char>,std::allocator<char>,boost::iostreams::output>
PUBLIC	??1?$stream_buffer@U?$basic_file_sink@D@iostreams@boost@@U?$char_traits@D@std@@V?$allocator@D@5@Uoutput@23@@iostreams@boost@@UAE@XZ ; boost::iostreams::stream_buffer<boost::iostreams::basic_file_sink<char>,std::char_traits<char>,std::allocator<char>,boost::iostreams::output>::~stream_buffer<boost::iostreams::basic_file_sink<char>,std::char_traits<char>,std::allocator<char>,boost::iostreams::output>
PUBLIC	??_G?$stream_buffer@U?$basic_file_sink@D@iostreams@boost@@U?$char_traits@D@std@@V?$allocator@D@5@Uoutput@23@@iostreams@boost@@UAEPAXI@Z ; boost::iostreams::stream_buffer<boost::iostreams::basic_file_sink<char>,std::char_traits<char>,std::allocator<char>,boost::iostreams::output>::`scalar deleting destructor'
PUBLIC	??1?$basic_file_sink@D@iostreams@boost@@QAE@XZ	; boost::iostreams::basic_file_sink<char>::~basic_file_sink<char>
PUBLIC	??0?$basic_file_sink@D@iostreams@boost@@QAE@ABU012@@Z ; boost::iostreams::basic_file_sink<char>::basic_file_sink<char>
PUBLIC	??$wrap@U?$basic_file_sink@D@iostreams@boost@@@detail@iostreams@boost@@YA?AU?$basic_file_sink@D@12@ABU312@PAX@Z ; boost::iostreams::detail::wrap<boost::iostreams::basic_file_sink<char> >
PUBLIC	??0?$stream_buffer@U?$basic_file_sink@D@iostreams@boost@@U?$char_traits@D@std@@V?$allocator@D@5@Uoutput@23@@iostreams@boost@@QAE@ABU?$basic_file_sink@D@12@HH@Z ; boost::iostreams::stream_buffer<boost::iostreams::basic_file_sink<char>,std::char_traits<char>,std::allocator<char>,boost::iostreams::output>::stream_buffer<boost::iostreams::basic_file_sink<char>,std::char_traits<char>,std::allocator<char>,boost::iostreams::output>
PUBLIC	??0?$auto_ptr@V?$stream_buffer@U?$basic_file_sink@D@iostreams@boost@@U?$char_traits@D@std@@V?$allocator@D@5@Uoutput@23@@iostreams@boost@@@std@@QAE@PAV?$stream_buffer@U?$basic_file_sink@D@iostreams@boost@@U?$char_traits@D@std@@V?$allocator@D@5@Uoutput@23@@iostreams@boost@@@Z ; std::auto_ptr<boost::iostreams::stream_buffer<boost::iostreams::basic_file_sink<char>,std::char_traits<char>,std::allocator<char>,boost::iostreams::output> >::auto_ptr<boost::iostreams::stream_buffer<boost::iostreams::basic_file_sink<char>,std::char_traits<char>,std::allocator<char>,boost::iostreams::output> >
PUBLIC	??1?$auto_ptr@V?$stream_buffer@U?$basic_file_sink@D@iostreams@boost@@U?$char_traits@D@std@@V?$allocator@D@5@Uoutput@23@@iostreams@boost@@@std@@QAE@XZ ; std::auto_ptr<boost::iostreams::stream_buffer<boost::iostreams::basic_file_sink<char>,std::char_traits<char>,std::allocator<char>,boost::iostreams::output> >::~auto_ptr<boost::iostreams::stream_buffer<boost::iostreams::basic_file_sink<char>,std::char_traits<char>,std::allocator<char>,boost::iostreams::output> >
PUBLIC	?get@?$auto_ptr@V?$stream_buffer@U?$basic_file_sink@D@iostreams@boost@@U?$char_traits@D@std@@V?$allocator@D@5@Uoutput@23@@iostreams@boost@@@std@@QBEPAV?$stream_buffer@U?$basic_file_sink@D@iostreams@boost@@U?$char_traits@D@std@@V?$allocator@D@5@Uoutput@23@@iostreams@boost@@XZ ; std::auto_ptr<boost::iostreams::stream_buffer<boost::iostreams::basic_file_sink<char>,std::char_traits<char>,std::allocator<char>,boost::iostreams::output> >::get
PUBLIC	?release@?$auto_ptr@V?$stream_buffer@U?$basic_file_sink@D@iostreams@boost@@U?$char_traits@D@std@@V?$allocator@D@5@Uoutput@23@@iostreams@boost@@@std@@QAEPAV?$stream_buffer@U?$basic_file_sink@D@iostreams@boost@@U?$char_traits@D@std@@V?$allocator@D@5@Uoutput@23@@iostreams@boost@@XZ ; std::auto_ptr<boost::iostreams::stream_buffer<boost::iostreams::basic_file_sink<char>,std::char_traits<char>,std::allocator<char>,boost::iostreams::output> >::release
PUBLIC	??$push_impl@U?$basic_file_sink@D@iostreams@boost@@@?$chain_base@V?$chain@Uoutput@iostreams@boost@@DU?$char_traits@D@std@@V?$allocator@D@5@@iostreams@boost@@DU?$char_traits@D@std@@V?$allocator@D@5@Uoutput@23@@detail@iostreams@boost@@AAEXABU?$basic_file_sink@D@23@HH@Z ; boost::iostreams::detail::chain_base<boost::iostreams::chain<boost::iostreams::output,char,std::char_traits<char>,std::allocator<char> >,char,std::char_traits<char>,std::allocator<char>,boost::iostreams::output>::push_impl<boost::iostreams::basic_file_sink<char> >
PUBLIC	??$push@U?$basic_file_sink@D@iostreams@boost@@@?$chain_base@V?$chain@Uoutput@iostreams@boost@@DU?$char_traits@D@std@@V?$allocator@D@5@@iostreams@boost@@DU?$char_traits@D@std@@V?$allocator@D@5@Uoutput@23@@detail@iostreams@boost@@QAEXABU?$basic_file_sink@D@23@HHPAX@Z ; boost::iostreams::detail::chain_base<boost::iostreams::chain<boost::iostreams::output,char,std::char_traits<char>,std::allocator<char> >,char,std::char_traits<char>,std::allocator<char>,boost::iostreams::output>::push<boost::iostreams::basic_file_sink<char> >
PUBLIC	??$push_impl@U?$basic_file_sink@D@iostreams@boost@@@?$chain_client@V?$chain@Uoutput@iostreams@boost@@DU?$char_traits@D@std@@V?$allocator@D@5@@iostreams@boost@@@detail@iostreams@boost@@IAEXABU?$basic_file_sink@D@23@HH@Z ; boost::iostreams::detail::chain_client<boost::iostreams::chain<boost::iostreams::output,char,std::char_traits<char>,std::allocator<char> > >::push_impl<boost::iostreams::basic_file_sink<char> >
PUBLIC	??$push@U?$basic_file_sink@D@iostreams@boost@@@?$chain_client@V?$chain@Uoutput@iostreams@boost@@DU?$char_traits@D@std@@V?$allocator@D@5@@iostreams@boost@@@detail@iostreams@boost@@QAEXABU?$basic_file_sink@D@23@HHPAX@Z ; boost::iostreams::detail::chain_client<boost::iostreams::chain<boost::iostreams::output,char,std::char_traits<char>,std::allocator<char> > >::push<boost::iostreams::basic_file_sink<char> >
PUBLIC	??_C@_0P@OCBGOFDA@no?5read?5access?$AA@		; `string'
PUBLIC	?value@?$impl@V?$basic_ostream@DU?$char_traits@D@std@@@std@@@is_istream_impl_@iostreams@boost@@2_NB ; boost::iostreams::is_istream_impl_::impl<std::basic_ostream<char,std::char_traits<char> > >::value
PUBLIC	?value@?$impl@V?$basic_ostream@DU?$char_traits@D@std@@@std@@@is_ostream_impl_@iostreams@boost@@2_NB ; boost::iostreams::is_ostream_impl_::impl<std::basic_ostream<char,std::char_traits<char> > >::value
PUBLIC	?value@?$impl@U?$basic_null_sink@D@iostreams@boost@@@is_istream_impl_@iostreams@boost@@2_NB ; boost::iostreams::is_istream_impl_::impl<boost::iostreams::basic_null_sink<char> >::value
PUBLIC	?value@?$impl@U?$basic_null_sink@D@iostreams@boost@@@is_ostream_impl_@iostreams@boost@@2_NB ; boost::iostreams::is_ostream_impl_::impl<boost::iostreams::basic_null_sink<char> >::value
PUBLIC	?value@?$impl@U?$basic_null_sink@D@iostreams@boost@@@is_streambuf_impl_@iostreams@boost@@2_NB ; boost::iostreams::is_streambuf_impl_::impl<boost::iostreams::basic_null_sink<char> >::value
PUBLIC	??_C@_0BJ@LLIEGMDM@?5and?5dir?5does?5not?5exist?4?$AA@ ; `string'
PUBLIC	??_C@_0BG@PCNIIGCJ@Could?5not?5create?5dir?5?$AA@ ; `string'
PUBLIC	??_C@_0CB@PBCDNLLL@?5exists?0?5but?5is?5not?5a?5directory?4@ ; `string'
PUBLIC	??_C@_0L@KHFIKIBB@Directory?5?$AA@		; `string'
PUBLIC	??_C@_03GBOLEDH@?4gz?$AA@			; `string'
PUBLIC	??_C@_04GCBFBPPI@?4bz2?$AA@			; `string'
PUBLIC	??_C@_07IAALONIE@?9timing?$AA@			; `string'
PUBLIC	??_C@_01KMDKNFGN@?1?$AA@			; `string'
PUBLIC	??_C@_06HJEEBPBK@?9power?$AA@			; `string'
PUBLIC	??_C@_06JJGNDLGC@?9stats?$AA@			; `string'
PUBLIC	??_C@_08BDPGPFMA@?9verilog?$AA@			; `string'
PUBLIC	??_C@_0O@PNHHGMMG@?9settings?4xml?$AA@		; `string'
PUBLIC	?value@?$impl@U?$basic_file_sink@D@iostreams@boost@@@is_istream_impl_@iostreams@boost@@2_NB ; boost::iostreams::is_istream_impl_::impl<boost::iostreams::basic_file_sink<char> >::value
PUBLIC	?value@?$impl@U?$basic_file_sink@D@iostreams@boost@@@is_ostream_impl_@iostreams@boost@@2_NB ; boost::iostreams::is_ostream_impl_::impl<boost::iostreams::basic_file_sink<char> >::value
PUBLIC	?value@?$impl@U?$basic_file_sink@D@iostreams@boost@@@is_streambuf_impl_@iostreams@boost@@2_NB ; boost::iostreams::is_streambuf_impl_::impl<boost::iostreams::basic_file_sink<char> >::value
PUBLIC	??_C@_03HANMIPNH@CH?$FL?$AA@			; `string'
PUBLIC	??_C@_03JKDPABHE@RK?$FL?$AA@			; `string'
PUBLIC	??_C@_03MKCGFGOL@BK?$FL?$AA@			; `string'
PUBLIC	??_C@_0O@BFCOOPHN@?$CC?5for?5writing?$AA@	; `string'
PUBLIC	??_C@_0BF@HLLBHIPH@Error?5opening?5file?5?$CC?$AA@ ; `string'
PUBLIC	??_C@_0CA@HECELCKD@boost?3?3filesystem?3?3is_directory?$AA@ ; `string'
PUBLIC	??_C@_0CE@FDODCDPI@boost?3?3filesystem?3?3create_direct@ ; `string'
PUBLIC	?is_const@?$cv_traits_imp@PAV?$basic_ostream@DU?$char_traits@D@std@@@std@@@detail@boost@@2_NB ; boost::detail::cv_traits_imp<std::basic_ostream<char,std::char_traits<char> > *>::is_const
PUBLIC	?is_volatile@?$cv_traits_imp@PAV?$basic_ostream@DU?$char_traits@D@std@@@std@@@detail@boost@@2_NB ; boost::detail::cv_traits_imp<std::basic_ostream<char,std::char_traits<char> > *>::is_volatile
PUBLIC	?value@?$impl@V?$basic_ostream@DU?$char_traits@D@std@@@std@@@is_incrementable_@detail@boost@@2_NB ; boost::detail::is_incrementable_::impl<std::basic_ostream<char,std::char_traits<char> > >::value
PUBLIC	?is_const@?$cv_traits_imp@PAU?$basic_null_sink@D@iostreams@boost@@@detail@boost@@2_NB ; boost::detail::cv_traits_imp<boost::iostreams::basic_null_sink<char> *>::is_const
PUBLIC	?is_volatile@?$cv_traits_imp@PAU?$basic_null_sink@D@iostreams@boost@@@detail@boost@@2_NB ; boost::detail::cv_traits_imp<boost::iostreams::basic_null_sink<char> *>::is_volatile
PUBLIC	?value@?$impl@U?$basic_null_sink@D@iostreams@boost@@@is_incrementable_@detail@boost@@2_NB ; boost::detail::is_incrementable_::impl<boost::iostreams::basic_null_sink<char> >::value
PUBLIC	?is_const@?$cv_traits_imp@PAU?$basic_file_sink@D@iostreams@boost@@@detail@boost@@2_NB ; boost::detail::cv_traits_imp<boost::iostreams::basic_file_sink<char> *>::is_const
PUBLIC	?is_volatile@?$cv_traits_imp@PAU?$basic_file_sink@D@iostreams@boost@@@detail@boost@@2_NB ; boost::detail::cv_traits_imp<boost::iostreams::basic_file_sink<char> *>::is_volatile
PUBLIC	?value@?$impl@U?$basic_file_sink@D@iostreams@boost@@@is_incrementable_@detail@boost@@2_NB ; boost::detail::is_incrementable_::impl<boost::iostreams::basic_file_sink<char> >::value
PUBLIC	?value@?$impl@V?$filtering_stream@Uoutput@iostreams@boost@@DU?$char_traits@D@std@@V?$allocator@D@5@Upublic_@23@@iostreams@boost@@@is_istream_impl_@iostreams@boost@@2_NB ; boost::iostreams::is_istream_impl_::impl<boost::iostreams::filtering_stream<boost::iostreams::output,char,std::char_traits<char>,std::allocator<char>,boost::iostreams::public_> >::value
PUBLIC	?value@?$impl@V?$filtering_stream@Uoutput@iostreams@boost@@DU?$char_traits@D@std@@V?$allocator@D@5@Upublic_@23@@iostreams@boost@@@is_ostream_impl_@iostreams@boost@@2_NB ; boost::iostreams::is_ostream_impl_::impl<boost::iostreams::filtering_stream<boost::iostreams::output,char,std::char_traits<char>,std::allocator<char>,boost::iostreams::public_> >::value
PUBLIC	?value@?$impl@V?$filtering_stream@Uoutput@iostreams@boost@@DU?$char_traits@D@std@@V?$allocator@D@5@Upublic_@23@@iostreams@boost@@@is_boost_stream_impl_@detail@iostreams@boost@@2_NB ; boost::iostreams::detail::is_boost_stream_impl_::impl<boost::iostreams::filtering_stream<boost::iostreams::output,char,std::char_traits<char>,std::allocator<char>,boost::iostreams::public_> >::value
PUBLIC	?value@?$impl@V?$filtering_stream@Uoutput@iostreams@boost@@DU?$char_traits@D@std@@V?$allocator@D@5@Upublic_@23@@iostreams@boost@@@is_boost_stream_buffer_impl_@detail@iostreams@boost@@2_NB ; boost::iostreams::detail::is_boost_stream_buffer_impl_::impl<boost::iostreams::filtering_stream<boost::iostreams::output,char,std::char_traits<char>,std::allocator<char>,boost::iostreams::public_> >::value
PUBLIC	?value@?$impl@V?$filtering_stream@Uoutput@iostreams@boost@@DU?$char_traits@D@std@@V?$allocator@D@5@Upublic_@23@@iostreams@boost@@@is_filtering_stream_impl_impl_@detail@iostreams@boost@@2_NB ; boost::iostreams::detail::is_filtering_stream_impl_impl_::impl<boost::iostreams::filtering_stream<boost::iostreams::output,char,std::char_traits<char>,std::allocator<char>,boost::iostreams::public_> >::value
PUBLIC	?value@?$is_arithmetic_impl@Ucategory@?$filtering_stream@Uoutput@iostreams@boost@@DU?$char_traits@D@std@@V?$allocator@D@5@Upublic_@23@@iostreams@boost@@@detail@boost@@2_NB ; boost::detail::is_arithmetic_impl<boost::iostreams::filtering_stream<boost::iostreams::output,char,std::char_traits<char>,std::allocator<char>,boost::iostreams::public_>::category>::value
PUBLIC	?value@?$is_convertible_basic_impl@AAUcategory@?$filtering_stream@Uoutput@iostreams@boost@@DU?$char_traits@D@std@@V?$allocator@D@5@Upublic_@23@@iostreams@boost@@Uclosable_tag@34@@detail@boost@@2_NB ; boost::detail::is_convertible_basic_impl<boost::iostreams::filtering_stream<boost::iostreams::output,char,std::char_traits<char>,std::allocator<char>,boost::iostreams::public_>::category &,boost::iostreams::closable_tag>::value
PUBLIC	?value@?$is_convertible_impl@Ucategory@?$filtering_stream@Uoutput@iostreams@boost@@DU?$char_traits@D@std@@V?$allocator@D@5@Upublic_@23@@iostreams@boost@@Uclosable_tag@34@@detail@boost@@2_NB ; boost::detail::is_convertible_impl<boost::iostreams::filtering_stream<boost::iostreams::output,char,std::char_traits<char>,std::allocator<char>,boost::iostreams::public_>::category,boost::iostreams::closable_tag>::value
PUBLIC	?value@?$is_base_and_derived_impl@Ucustom_tag@detail@iostreams@boost@@U?$operations@V?$filtering_stream@Uoutput@iostreams@boost@@DU?$char_traits@D@std@@V?$allocator@D@5@Upublic_@23@@iostreams@boost@@@34@@detail@boost@@2_NB ; boost::detail::is_base_and_derived_impl<boost::iostreams::detail::custom_tag,boost::iostreams::operations<boost::iostreams::filtering_stream<boost::iostreams::output,char,std::char_traits<char>,std::allocator<char>,boost::iostreams::public_> > >::value
PUBLIC	?value@?$impl@V?$mode_adapter@Uoutput@iostreams@boost@@V?$basic_ostream@DU?$char_traits@D@std@@@std@@@detail@iostreams@boost@@@is_istream_impl_@iostreams@boost@@2_NB ; boost::iostreams::is_istream_impl_::impl<boost::iostreams::detail::mode_adapter<boost::iostreams::output,std::basic_ostream<char,std::char_traits<char> > > >::value
PUBLIC	?value@?$impl@V?$mode_adapter@Uoutput@iostreams@boost@@V?$basic_ostream@DU?$char_traits@D@std@@@std@@@detail@iostreams@boost@@@is_ostream_impl_@iostreams@boost@@2_NB ; boost::iostreams::is_ostream_impl_::impl<boost::iostreams::detail::mode_adapter<boost::iostreams::output,std::basic_ostream<char,std::char_traits<char> > > >::value
PUBLIC	?value@?$impl@V?$mode_adapter@Uoutput@iostreams@boost@@V?$basic_ostream@DU?$char_traits@D@std@@@std@@@detail@iostreams@boost@@@is_streambuf_impl_@iostreams@boost@@2_NB ; boost::iostreams::is_streambuf_impl_::impl<boost::iostreams::detail::mode_adapter<boost::iostreams::output,std::basic_ostream<char,std::char_traits<char> > > >::value
PUBLIC	?value@?$is_convertible_impl@Ucategory@?$filtering_stream@Uoutput@iostreams@boost@@DU?$char_traits@D@std@@V?$allocator@D@5@Upublic_@23@@iostreams@boost@@Uoutput@34@@detail@boost@@2_NB ; boost::detail::is_convertible_impl<boost::iostreams::filtering_stream<boost::iostreams::output,char,std::char_traits<char>,std::allocator<char>,boost::iostreams::public_>::category,boost::iostreams::output>::value
PUBLIC	?value@?$is_convertible_basic_impl@AAUcategory@?$filtering_stream@Uoutput@iostreams@boost@@DU?$char_traits@D@std@@V?$allocator@D@5@Upublic_@23@@iostreams@boost@@Uoutput@34@@detail@boost@@2_NB ; boost::detail::is_convertible_basic_impl<boost::iostreams::filtering_stream<boost::iostreams::output,char,std::char_traits<char>,std::allocator<char>,boost::iostreams::public_>::category &,boost::iostreams::output>::value
PUBLIC	?value@?$is_convertible_impl@Ucategory@?$filtering_stream@Uoutput@iostreams@boost@@DU?$char_traits@D@std@@V?$allocator@D@5@Upublic_@23@@iostreams@boost@@Uinput@34@@detail@boost@@2_NB ; boost::detail::is_convertible_impl<boost::iostreams::filtering_stream<boost::iostreams::output,char,std::char_traits<char>,std::allocator<char>,boost::iostreams::public_>::category,boost::iostreams::input>::value
PUBLIC	?value@?$is_convertible_basic_impl@AAUcategory@?$filtering_stream@Uoutput@iostreams@boost@@DU?$char_traits@D@std@@V?$allocator@D@5@Upublic_@23@@iostreams@boost@@Uinput@34@@detail@boost@@2_NB ; boost::detail::is_convertible_basic_impl<boost::iostreams::filtering_stream<boost::iostreams::output,char,std::char_traits<char>,std::allocator<char>,boost::iostreams::public_>::category &,boost::iostreams::input>::value
PUBLIC	?is_const@?$cv_traits_imp@PAV?$mode_adapter@Uoutput@iostreams@boost@@V?$basic_ostream@DU?$char_traits@D@std@@@std@@@detail@iostreams@boost@@@detail@boost@@2_NB ; boost::detail::cv_traits_imp<boost::iostreams::detail::mode_adapter<boost::iostreams::output,std::basic_ostream<char,std::char_traits<char> > > *>::is_const
PUBLIC	?is_volatile@?$cv_traits_imp@PAV?$mode_adapter@Uoutput@iostreams@boost@@V?$basic_ostream@DU?$char_traits@D@std@@@std@@@detail@iostreams@boost@@@detail@boost@@2_NB ; boost::detail::cv_traits_imp<boost::iostreams::detail::mode_adapter<boost::iostreams::output,std::basic_ostream<char,std::char_traits<char> > > *>::is_volatile
PUBLIC	?value@?$impl@V?$mode_adapter@Uoutput@iostreams@boost@@V?$basic_ostream@DU?$char_traits@D@std@@@std@@@detail@iostreams@boost@@@is_incrementable_@detail@boost@@2_NB ; boost::detail::is_incrementable_::impl<boost::iostreams::detail::mode_adapter<boost::iostreams::output,std::basic_ostream<char,std::char_traits<char> > > >::value
PUBLIC	?value@?$impl@V?$basic_null_device@DUoutput@iostreams@boost@@@iostreams@boost@@@is_istream_impl_@iostreams@boost@@2_NB ; boost::iostreams::is_istream_impl_::impl<boost::iostreams::basic_null_device<char,boost::iostreams::output> >::value
PUBLIC	?value@?$impl@V?$basic_null_device@DUoutput@iostreams@boost@@@iostreams@boost@@@is_ostream_impl_@iostreams@boost@@2_NB ; boost::iostreams::is_ostream_impl_::impl<boost::iostreams::basic_null_device<char,boost::iostreams::output> >::value
PUBLIC	?value@?$impl@V?$basic_null_device@DUoutput@iostreams@boost@@@iostreams@boost@@@is_streambuf_impl_@iostreams@boost@@2_NB ; boost::iostreams::is_streambuf_impl_::impl<boost::iostreams::basic_null_device<char,boost::iostreams::output> >::value
PUBLIC	?boost_select_by_size_temp_value@?$io_mode_id@V?$basic_null_device@DUoutput@iostreams@boost@@@iostreams@boost@@@detail@iostreams@boost@@2IB ; boost::iostreams::detail::io_mode_id<boost::iostreams::basic_null_device<char,boost::iostreams::output> >::boost_select_by_size_temp_value
PUBLIC	?value@?$io_mode_id@V?$basic_null_device@DUoutput@iostreams@boost@@@iostreams@boost@@@detail@iostreams@boost@@2HB ; boost::iostreams::detail::io_mode_id<boost::iostreams::basic_null_device<char,boost::iostreams::output> >::value
PUBLIC	?value@?$is_arithmetic_impl@Ucategory@?$basic_null_device@DUoutput@iostreams@boost@@@iostreams@boost@@@detail@boost@@2_NB ; boost::detail::is_arithmetic_impl<boost::iostreams::basic_null_device<char,boost::iostreams::output>::category>::value
PUBLIC	?value@?$is_convertible_basic_impl@AAUcategory@?$basic_null_device@DUoutput@iostreams@boost@@@iostreams@boost@@Udirect_tag@34@@detail@boost@@2_NB ; boost::detail::is_convertible_basic_impl<boost::iostreams::basic_null_device<char,boost::iostreams::output>::category &,boost::iostreams::direct_tag>::value
PUBLIC	?value@?$is_convertible_impl@Ucategory@?$basic_null_device@DUoutput@iostreams@boost@@@iostreams@boost@@Udirect_tag@34@@detail@boost@@2_NB ; boost::detail::is_convertible_impl<boost::iostreams::basic_null_device<char,boost::iostreams::output>::category,boost::iostreams::direct_tag>::value
PUBLIC	?value@?$is_convertible_basic_impl@AAUcategory@?$basic_null_device@DUoutput@iostreams@boost@@@iostreams@boost@@Uinput@34@@detail@boost@@2_NB ; boost::detail::is_convertible_basic_impl<boost::iostreams::basic_null_device<char,boost::iostreams::output>::category &,boost::iostreams::input>::value
PUBLIC	?value@?$is_convertible_impl@Ucategory@?$basic_null_device@DUoutput@iostreams@boost@@@iostreams@boost@@Uinput@34@@detail@boost@@2_NB ; boost::detail::is_convertible_impl<boost::iostreams::basic_null_device<char,boost::iostreams::output>::category,boost::iostreams::input>::value
PUBLIC	?value@?$is_convertible_basic_impl@AAUcategory@?$basic_null_device@DUoutput@iostreams@boost@@@iostreams@boost@@Uoutput@34@@detail@boost@@2_NB ; boost::detail::is_convertible_basic_impl<boost::iostreams::basic_null_device<char,boost::iostreams::output>::category &,boost::iostreams::output>::value
PUBLIC	?value@?$is_convertible_impl@Ucategory@?$basic_null_device@DUoutput@iostreams@boost@@@iostreams@boost@@Uoutput@34@@detail@boost@@2_NB ; boost::detail::is_convertible_impl<boost::iostreams::basic_null_device<char,boost::iostreams::output>::category,boost::iostreams::output>::value
PUBLIC	?value@?$is_convertible_basic_impl@AAUcategory@?$basic_null_device@DUoutput@iostreams@boost@@@iostreams@boost@@Udevice_tag@34@@detail@boost@@2_NB ; boost::detail::is_convertible_basic_impl<boost::iostreams::basic_null_device<char,boost::iostreams::output>::category &,boost::iostreams::device_tag>::value
PUBLIC	?value@?$is_convertible_impl@Ucategory@?$basic_null_device@DUoutput@iostreams@boost@@@iostreams@boost@@Udevice_tag@34@@detail@boost@@2_NB ; boost::detail::is_convertible_impl<boost::iostreams::basic_null_device<char,boost::iostreams::output>::category,boost::iostreams::device_tag>::value
PUBLIC	?value@?$has_trait_impl@V?$basic_null_device@DUoutput@iostreams@boost@@@iostreams@boost@@Udevice_tag@23@@detail@iostreams@boost@@2_NB ; boost::iostreams::detail::has_trait_impl<boost::iostreams::basic_null_device<char,boost::iostreams::output>,boost::iostreams::device_tag>::value
PUBLIC	?value@?$alignment_of_impl@V?$concept_adapter@V?$basic_null_device@DUoutput@iostreams@boost@@@iostreams@boost@@@detail@iostreams@boost@@@detail@boost@@2IB ; boost::detail::alignment_of_impl<boost::iostreams::detail::concept_adapter<boost::iostreams::basic_null_device<char,boost::iostreams::output> > >::value
PUBLIC	?value@?$is_convertible_basic_impl@AAUoutput@iostreams@boost@@Utwo_sequence@detail@23@@detail@boost@@2_NB ; boost::detail::is_convertible_basic_impl<boost::iostreams::output &,boost::iostreams::detail::two_sequence>::value
PUBLIC	?value@?$is_convertible_impl@Uoutput@iostreams@boost@@Utwo_sequence@detail@23@@detail@boost@@2_NB ; boost::detail::is_convertible_impl<boost::iostreams::output,boost::iostreams::detail::two_sequence>::value
PUBLIC	?value@?$impl@$$CBV?$basic_null_device@DUoutput@iostreams@boost@@@iostreams@boost@@@is_istream_impl_@iostreams@boost@@2_NB ; boost::iostreams::is_istream_impl_::impl<boost::iostreams::basic_null_device<char,boost::iostreams::output> const >::value
PUBLIC	?value@?$impl@$$CBV?$basic_null_device@DUoutput@iostreams@boost@@@iostreams@boost@@@is_ostream_impl_@iostreams@boost@@2_NB ; boost::iostreams::is_ostream_impl_::impl<boost::iostreams::basic_null_device<char,boost::iostreams::output> const >::value
PUBLIC	?value@?$impl@$$CBV?$basic_null_device@DUoutput@iostreams@boost@@@iostreams@boost@@@is_streambuf_impl_@iostreams@boost@@2_NB ; boost::iostreams::is_streambuf_impl_::impl<boost::iostreams::basic_null_device<char,boost::iostreams::output> const >::value
PUBLIC	??_R0?AV?$basic_null_device@DUoutput@iostreams@boost@@@iostreams@boost@@@8 ; boost::iostreams::basic_null_device<char,boost::iostreams::output> `RTTI Type Descriptor'
PUBLIC	?value@?$is_arithmetic_impl@Ucategory@?$mode_adapter@Uoutput@iostreams@boost@@V?$basic_ostream@DU?$char_traits@D@std@@@std@@@detail@iostreams@boost@@@detail@boost@@2_NB ; boost::detail::is_arithmetic_impl<boost::iostreams::detail::mode_adapter<boost::iostreams::output,std::basic_ostream<char,std::char_traits<char> > >::category>::value
PUBLIC	?value@?$impl@V?$basic_ostream@DU?$char_traits@D@std@@@std@@@is_boost_stream_impl_@detail@iostreams@boost@@2_NB ; boost::iostreams::detail::is_boost_stream_impl_::impl<std::basic_ostream<char,std::char_traits<char> > >::value
PUBLIC	?value@?$impl@V?$basic_ostream@DU?$char_traits@D@std@@@std@@@is_boost_stream_buffer_impl_@detail@iostreams@boost@@2_NB ; boost::iostreams::detail::is_boost_stream_buffer_impl_::impl<std::basic_ostream<char,std::char_traits<char> > >::value
PUBLIC	?value@?$impl@V?$basic_ostream@DU?$char_traits@D@std@@@std@@@is_filtering_stream_impl_impl_@detail@iostreams@boost@@2_NB ; boost::iostreams::detail::is_filtering_stream_impl_impl_::impl<std::basic_ostream<char,std::char_traits<char> > >::value
PUBLIC	?value@?$impl@V?$basic_ostream@DU?$char_traits@D@std@@@std@@@is_filtering_wstream_impl_impl_@detail@iostreams@boost@@2_NB ; boost::iostreams::detail::is_filtering_wstream_impl_impl_::impl<std::basic_ostream<char,std::char_traits<char> > >::value
PUBLIC	?value@?$impl@V?$basic_ostream@DU?$char_traits@D@std@@@std@@@is_filtering_streambuf_impl_impl_@detail@iostreams@boost@@2_NB ; boost::iostreams::detail::is_filtering_streambuf_impl_impl_::impl<std::basic_ostream<char,std::char_traits<char> > >::value
PUBLIC	?value@?$impl@V?$basic_ostream@DU?$char_traits@D@std@@@std@@@is_filtering_wstreambuf_impl_impl_@detail@iostreams@boost@@2_NB ; boost::iostreams::detail::is_filtering_wstreambuf_impl_impl_::impl<std::basic_ostream<char,std::char_traits<char> > >::value
PUBLIC	?value@?$impl@V?$basic_ostream@DU?$char_traits@D@std@@@std@@@is_filebuf_impl_@iostreams@boost@@2_NB ; boost::iostreams::is_filebuf_impl_::impl<std::basic_ostream<char,std::char_traits<char> > >::value
PUBLIC	?value@?$impl@V?$basic_ostream@DU?$char_traits@D@std@@@std@@@is_ifstream_impl_@iostreams@boost@@2_NB ; boost::iostreams::is_ifstream_impl_::impl<std::basic_ostream<char,std::char_traits<char> > >::value
PUBLIC	?value@?$impl@V?$basic_ostream@DU?$char_traits@D@std@@@std@@@is_ofstream_impl_@iostreams@boost@@2_NB ; boost::iostreams::is_ofstream_impl_::impl<std::basic_ostream<char,std::char_traits<char> > >::value
PUBLIC	?value@?$impl@V?$basic_ostream@DU?$char_traits@D@std@@@std@@@is_fstream_impl_@iostreams@boost@@2_NB ; boost::iostreams::is_fstream_impl_::impl<std::basic_ostream<char,std::char_traits<char> > >::value
PUBLIC	?value@?$impl@V?$basic_ostream@DU?$char_traits@D@std@@@std@@@is_stringbuf_impl_@iostreams@boost@@2_NB ; boost::iostreams::is_stringbuf_impl_::impl<std::basic_ostream<char,std::char_traits<char> > >::value
PUBLIC	?value@?$impl@V?$basic_ostream@DU?$char_traits@D@std@@@std@@@is_istringstream_impl_@iostreams@boost@@2_NB ; boost::iostreams::is_istringstream_impl_::impl<std::basic_ostream<char,std::char_traits<char> > >::value
PUBLIC	?value@?$impl@V?$basic_ostream@DU?$char_traits@D@std@@@std@@@is_ostringstream_impl_@iostreams@boost@@2_NB ; boost::iostreams::is_ostringstream_impl_::impl<std::basic_ostream<char,std::char_traits<char> > >::value
PUBLIC	?value@?$impl@V?$basic_ostream@DU?$char_traits@D@std@@@std@@@is_stringstream_impl_@iostreams@boost@@2_NB ; boost::iostreams::is_stringstream_impl_::impl<std::basic_ostream<char,std::char_traits<char> > >::value
PUBLIC	?value@?$impl@V?$basic_ostream@DU?$char_traits@D@std@@@std@@@is_streambuf_impl_@iostreams@boost@@2_NB ; boost::iostreams::is_streambuf_impl_::impl<std::basic_ostream<char,std::char_traits<char> > >::value
PUBLIC	?value@?$impl@V?$basic_ostream@DU?$char_traits@D@std@@@std@@@is_iostream_impl_@iostreams@boost@@2_NB ; boost::iostreams::is_iostream_impl_::impl<std::basic_ostream<char,std::char_traits<char> > >::value
PUBLIC	?value@?$is_arithmetic_impl@Ugeneric_ostream_tag@iostreams@boost@@@detail@boost@@2_NB ; boost::detail::is_arithmetic_impl<boost::iostreams::generic_ostream_tag>::value
PUBLIC	?value@?$is_arithmetic_impl@Ufilter_tag@iostreams@boost@@@detail@boost@@2_NB ; boost::detail::is_arithmetic_impl<boost::iostreams::filter_tag>::value
PUBLIC	?value@?$is_abstract_imp@Ufilter_tag@iostreams@boost@@@detail@boost@@2_NB ; boost::detail::is_abstract_imp<boost::iostreams::filter_tag>::value
PUBLIC	?value@?$is_convertible_basic_impl@AAUgeneric_ostream_tag@iostreams@boost@@Ufilter_tag@23@@detail@boost@@2_NB ; boost::detail::is_convertible_basic_impl<boost::iostreams::generic_ostream_tag &,boost::iostreams::filter_tag>::value
PUBLIC	?value@?$is_convertible_impl@Ugeneric_ostream_tag@iostreams@boost@@Ufilter_tag@23@@detail@boost@@2_NB ; boost::detail::is_convertible_impl<boost::iostreams::generic_ostream_tag,boost::iostreams::filter_tag>::value
PUBLIC	?value@?$has_trait_impl@V?$basic_ostream@DU?$char_traits@D@std@@@std@@Ufilter_tag@iostreams@boost@@@detail@iostreams@boost@@2_NB ; boost::iostreams::detail::has_trait_impl<std::basic_ostream<char,std::char_traits<char> >,boost::iostreams::filter_tag>::value
PUBLIC	?value@?$is_convertible_basic_impl@AAUcategory@?$mode_adapter@Uoutput@iostreams@boost@@V?$basic_ostream@DU?$char_traits@D@std@@@std@@@detail@iostreams@boost@@Uoutput@45@@detail@boost@@2_NB ; boost::detail::is_convertible_basic_impl<boost::iostreams::detail::mode_adapter<boost::iostreams::output,std::basic_ostream<char,std::char_traits<char> > >::category &,boost::iostreams::output>::value
PUBLIC	?value@?$is_convertible_impl@Ucategory@?$mode_adapter@Uoutput@iostreams@boost@@V?$basic_ostream@DU?$char_traits@D@std@@@std@@@detail@iostreams@boost@@Uoutput@45@@detail@boost@@2_NB ; boost::detail::is_convertible_impl<boost::iostreams::detail::mode_adapter<boost::iostreams::output,std::basic_ostream<char,std::char_traits<char> > >::category,boost::iostreams::output>::value
PUBLIC	?value@?$is_convertible_basic_impl@AAUcategory@?$mode_adapter@Uoutput@iostreams@boost@@V?$basic_ostream@DU?$char_traits@D@std@@@std@@@detail@iostreams@boost@@Udirect_tag@45@@detail@boost@@2_NB ; boost::detail::is_convertible_basic_impl<boost::iostreams::detail::mode_adapter<boost::iostreams::output,std::basic_ostream<char,std::char_traits<char> > >::category &,boost::iostreams::direct_tag>::value
PUBLIC	?value@?$is_convertible_impl@Ucategory@?$mode_adapter@Uoutput@iostreams@boost@@V?$basic_ostream@DU?$char_traits@D@std@@@std@@@detail@iostreams@boost@@Udirect_tag@45@@detail@boost@@2_NB ; boost::detail::is_convertible_impl<boost::iostreams::detail::mode_adapter<boost::iostreams::output,std::basic_ostream<char,std::char_traits<char> > >::category,boost::iostreams::direct_tag>::value
PUBLIC	?value@?$is_convertible_basic_impl@AAUcategory@?$mode_adapter@Uoutput@iostreams@boost@@V?$basic_ostream@DU?$char_traits@D@std@@@std@@@detail@iostreams@boost@@Uinput@45@@detail@boost@@2_NB ; boost::detail::is_convertible_basic_impl<boost::iostreams::detail::mode_adapter<boost::iostreams::output,std::basic_ostream<char,std::char_traits<char> > >::category &,boost::iostreams::input>::value
PUBLIC	?value@?$is_convertible_impl@Ucategory@?$mode_adapter@Uoutput@iostreams@boost@@V?$basic_ostream@DU?$char_traits@D@std@@@std@@@detail@iostreams@boost@@Uinput@45@@detail@boost@@2_NB ; boost::detail::is_convertible_impl<boost::iostreams::detail::mode_adapter<boost::iostreams::output,std::basic_ostream<char,std::char_traits<char> > >::category,boost::iostreams::input>::value
PUBLIC	?value@?$is_convertible_basic_impl@AAUcategory@?$mode_adapter@Uoutput@iostreams@boost@@V?$basic_ostream@DU?$char_traits@D@std@@@std@@@detail@iostreams@boost@@Udevice_tag@45@@detail@boost@@2_NB ; boost::detail::is_convertible_basic_impl<boost::iostreams::detail::mode_adapter<boost::iostreams::output,std::basic_ostream<char,std::char_traits<char> > >::category &,boost::iostreams::device_tag>::value
PUBLIC	?value@?$is_convertible_impl@Ucategory@?$mode_adapter@Uoutput@iostreams@boost@@V?$basic_ostream@DU?$char_traits@D@std@@@std@@@detail@iostreams@boost@@Udevice_tag@45@@detail@boost@@2_NB ; boost::detail::is_convertible_impl<boost::iostreams::detail::mode_adapter<boost::iostreams::output,std::basic_ostream<char,std::char_traits<char> > >::category,boost::iostreams::device_tag>::value
PUBLIC	?value@?$has_trait_impl@V?$mode_adapter@Uoutput@iostreams@boost@@V?$basic_ostream@DU?$char_traits@D@std@@@std@@@detail@iostreams@boost@@Udevice_tag@34@@detail@iostreams@boost@@2_NB ; boost::iostreams::detail::has_trait_impl<boost::iostreams::detail::mode_adapter<boost::iostreams::output,std::basic_ostream<char,std::char_traits<char> > >,boost::iostreams::device_tag>::value
PUBLIC	?value@?$alignment_of_impl@V?$concept_adapter@V?$mode_adapter@Uoutput@iostreams@boost@@V?$basic_ostream@DU?$char_traits@D@std@@@std@@@detail@iostreams@boost@@@detail@iostreams@boost@@@detail@boost@@2IB ; boost::detail::alignment_of_impl<boost::iostreams::detail::concept_adapter<boost::iostreams::detail::mode_adapter<boost::iostreams::output,std::basic_ostream<char,std::char_traits<char> > > > >::value
PUBLIC	?value@?$is_arithmetic_impl@Usink_tag@iostreams@boost@@@detail@boost@@2_NB ; boost::detail::is_arithmetic_impl<boost::iostreams::sink_tag>::value
PUBLIC	?value@?$is_convertible_basic_impl@AAUsink_tag@iostreams@boost@@Uoutput@23@@detail@boost@@2_NB ; boost::detail::is_convertible_basic_impl<boost::iostreams::sink_tag &,boost::iostreams::output>::value
PUBLIC	?value@?$is_convertible_impl@Usink_tag@iostreams@boost@@Uoutput@23@@detail@boost@@2_NB ; boost::detail::is_convertible_impl<boost::iostreams::sink_tag,boost::iostreams::output>::value
