; Listing generated by Microsoft (R) Optimizing Compiler Version 15.00.30729.01 

	TITLE	c:\Users\CriuS\Documents\Visual Studio 2008\Projects\DRAMsimIIhg\src\Bank.cpp
	.686P
	.XMM
	include listing.inc
	.model	flat

INCLUDELIB MSVCRTD
INCLUDELIB OLDNAMES

PUBLIC	??_C@_0P@GHFPNOJB@bad?5allocation?$AA@		; `string'
PUBLIC	?_Value@?$_Is_swap_move@U_Swap_move_tag@std@@@std@@2_NB ; std::_Is_swap_move<std::_Swap_move_tag>::_Value
PUBLIC	?value@integral_c_tag@mpl@boost@@2HB		; boost::mpl::integral_c_tag::value
PUBLIC	?value@?$bool_@$00@mpl@boost@@2_NB		; boost::mpl::bool_<1>::value
PUBLIC	?value@?$bool_@$0A@@mpl@boost@@2_NB		; boost::mpl::bool_<0>::value
PUBLIC	?collate@?$_Locbase@H@std@@2HB			; std::_Locbase<int>::collate
PUBLIC	?ctype@?$_Locbase@H@std@@2HB			; std::_Locbase<int>::ctype
PUBLIC	?monetary@?$_Locbase@H@std@@2HB			; std::_Locbase<int>::monetary
PUBLIC	?numeric@?$_Locbase@H@std@@2HB			; std::_Locbase<int>::numeric
PUBLIC	?time@?$_Locbase@H@std@@2HB			; std::_Locbase<int>::time
PUBLIC	?messages@?$_Locbase@H@std@@2HB			; std::_Locbase<int>::messages
PUBLIC	?all@?$_Locbase@H@std@@2HB			; std::_Locbase<int>::all
PUBLIC	?none@?$_Locbase@H@std@@2HB			; std::_Locbase<int>::none
PUBLIC	?skipws@?$_Iosb@H@std@@2W4_Fmtflags@12@B	; std::_Iosb<int>::skipws
PUBLIC	?unitbuf@?$_Iosb@H@std@@2W4_Fmtflags@12@B	; std::_Iosb<int>::unitbuf
PUBLIC	?uppercase@?$_Iosb@H@std@@2W4_Fmtflags@12@B	; std::_Iosb<int>::uppercase
PUBLIC	?showbase@?$_Iosb@H@std@@2W4_Fmtflags@12@B	; std::_Iosb<int>::showbase
PUBLIC	?showpoint@?$_Iosb@H@std@@2W4_Fmtflags@12@B	; std::_Iosb<int>::showpoint
PUBLIC	?showpos@?$_Iosb@H@std@@2W4_Fmtflags@12@B	; std::_Iosb<int>::showpos
PUBLIC	?left@?$_Iosb@H@std@@2W4_Fmtflags@12@B		; std::_Iosb<int>::left
PUBLIC	?right@?$_Iosb@H@std@@2W4_Fmtflags@12@B		; std::_Iosb<int>::right
PUBLIC	?internal@?$_Iosb@H@std@@2W4_Fmtflags@12@B	; std::_Iosb<int>::internal
PUBLIC	?dec@?$_Iosb@H@std@@2W4_Fmtflags@12@B		; std::_Iosb<int>::dec
PUBLIC	?oct@?$_Iosb@H@std@@2W4_Fmtflags@12@B		; std::_Iosb<int>::oct
PUBLIC	?hex@?$_Iosb@H@std@@2W4_Fmtflags@12@B		; std::_Iosb<int>::hex
PUBLIC	?scientific@?$_Iosb@H@std@@2W4_Fmtflags@12@B	; std::_Iosb<int>::scientific
PUBLIC	?fixed@?$_Iosb@H@std@@2W4_Fmtflags@12@B		; std::_Iosb<int>::fixed
PUBLIC	?hexfloat@?$_Iosb@H@std@@2W4_Fmtflags@12@B	; std::_Iosb<int>::hexfloat
PUBLIC	?boolalpha@?$_Iosb@H@std@@2W4_Fmtflags@12@B	; std::_Iosb<int>::boolalpha
PUBLIC	?_Stdio@?$_Iosb@H@std@@2W4_Fmtflags@12@B	; std::_Iosb<int>::_Stdio
PUBLIC	?adjustfield@?$_Iosb@H@std@@2W4_Fmtflags@12@B	; std::_Iosb<int>::adjustfield
PUBLIC	?basefield@?$_Iosb@H@std@@2W4_Fmtflags@12@B	; std::_Iosb<int>::basefield
PUBLIC	?floatfield@?$_Iosb@H@std@@2W4_Fmtflags@12@B	; std::_Iosb<int>::floatfield
PUBLIC	?goodbit@?$_Iosb@H@std@@2W4_Iostate@12@B	; std::_Iosb<int>::goodbit
PUBLIC	?eofbit@?$_Iosb@H@std@@2W4_Iostate@12@B		; std::_Iosb<int>::eofbit
PUBLIC	?failbit@?$_Iosb@H@std@@2W4_Iostate@12@B	; std::_Iosb<int>::failbit
PUBLIC	?badbit@?$_Iosb@H@std@@2W4_Iostate@12@B		; std::_Iosb<int>::badbit
PUBLIC	?_Hardfail@?$_Iosb@H@std@@2W4_Iostate@12@B	; std::_Iosb<int>::_Hardfail
PUBLIC	?in@?$_Iosb@H@std@@2W4_Openmode@12@B		; std::_Iosb<int>::in
PUBLIC	?out@?$_Iosb@H@std@@2W4_Openmode@12@B		; std::_Iosb<int>::out
PUBLIC	?ate@?$_Iosb@H@std@@2W4_Openmode@12@B		; std::_Iosb<int>::ate
PUBLIC	?app@?$_Iosb@H@std@@2W4_Openmode@12@B		; std::_Iosb<int>::app
PUBLIC	?trunc@?$_Iosb@H@std@@2W4_Openmode@12@B		; std::_Iosb<int>::trunc
PUBLIC	?_Nocreate@?$_Iosb@H@std@@2W4_Openmode@12@B	; std::_Iosb<int>::_Nocreate
PUBLIC	?_Noreplace@?$_Iosb@H@std@@2W4_Openmode@12@B	; std::_Iosb<int>::_Noreplace
PUBLIC	?binary@?$_Iosb@H@std@@2W4_Openmode@12@B	; std::_Iosb<int>::binary
PUBLIC	?beg@?$_Iosb@H@std@@2W4_Seekdir@12@B		; std::_Iosb<int>::beg
PUBLIC	?cur@?$_Iosb@H@std@@2W4_Seekdir@12@B		; std::_Iosb<int>::cur
PUBLIC	?end@?$_Iosb@H@std@@2W4_Seekdir@12@B		; std::_Iosb<int>::end
PUBLIC	?is_integral@?$integer_traits_base@_N$0A@$00@detail@boost@@2_NB ; boost::detail::integer_traits_base<bool,0,1>::is_integral
PUBLIC	?const_min@?$integer_traits_base@_N$0A@$00@detail@boost@@2_NB ; boost::detail::integer_traits_base<bool,0,1>::const_min
PUBLIC	?const_max@?$integer_traits_base@_N$0A@$00@detail@boost@@2_NB ; boost::detail::integer_traits_base<bool,0,1>::const_max
PUBLIC	?is_integral@?$integer_traits_base@D$0?IA@$0HP@@detail@boost@@2_NB ; boost::detail::integer_traits_base<char,-128,127>::is_integral
PUBLIC	?const_min@?$integer_traits_base@D$0?IA@$0HP@@detail@boost@@2DB ; boost::detail::integer_traits_base<char,-128,127>::const_min
PUBLIC	?const_max@?$integer_traits_base@D$0?IA@$0HP@@detail@boost@@2DB ; boost::detail::integer_traits_base<char,-128,127>::const_max
PUBLIC	?is_integral@?$integer_traits_base@C$0?IA@$0HP@@detail@boost@@2_NB ; boost::detail::integer_traits_base<signed char,-128,127>::is_integral
PUBLIC	?const_min@?$integer_traits_base@C$0?IA@$0HP@@detail@boost@@2CB ; boost::detail::integer_traits_base<signed char,-128,127>::const_min
PUBLIC	?const_max@?$integer_traits_base@C$0?IA@$0HP@@detail@boost@@2CB ; boost::detail::integer_traits_base<signed char,-128,127>::const_max
PUBLIC	?is_integral@?$integer_traits_base@E$0A@$0PP@@detail@boost@@2_NB ; boost::detail::integer_traits_base<unsigned char,0,255>::is_integral
PUBLIC	?const_min@?$integer_traits_base@E$0A@$0PP@@detail@boost@@2EB ; boost::detail::integer_traits_base<unsigned char,0,255>::const_min
PUBLIC	?const_max@?$integer_traits_base@E$0A@$0PP@@detail@boost@@2EB ; boost::detail::integer_traits_base<unsigned char,0,255>::const_max
PUBLIC	?is_integral@?$integer_traits_base@_W$0A@$0PPPP@@detail@boost@@2_NB ; boost::detail::integer_traits_base<wchar_t,0,65535>::is_integral
PUBLIC	?const_min@?$integer_traits_base@_W$0A@$0PPPP@@detail@boost@@2_WB ; boost::detail::integer_traits_base<wchar_t,0,65535>::const_min
PUBLIC	?const_max@?$integer_traits_base@_W$0A@$0PPPP@@detail@boost@@2_WB ; boost::detail::integer_traits_base<wchar_t,0,65535>::const_max
PUBLIC	?is_integral@?$integer_traits_base@F$0?IAAA@$0HPPP@@detail@boost@@2_NB ; boost::detail::integer_traits_base<short,-32768,32767>::is_integral
PUBLIC	?const_min@?$integer_traits_base@F$0?IAAA@$0HPPP@@detail@boost@@2FB ; boost::detail::integer_traits_base<short,-32768,32767>::const_min
PUBLIC	?const_max@?$integer_traits_base@F$0?IAAA@$0HPPP@@detail@boost@@2FB ; boost::detail::integer_traits_base<short,-32768,32767>::const_max
PUBLIC	?is_integral@?$integer_traits_base@G$0A@$0PPPP@@detail@boost@@2_NB ; boost::detail::integer_traits_base<unsigned short,0,65535>::is_integral
PUBLIC	?const_min@?$integer_traits_base@G$0A@$0PPPP@@detail@boost@@2GB ; boost::detail::integer_traits_base<unsigned short,0,65535>::const_min
PUBLIC	?const_max@?$integer_traits_base@G$0A@$0PPPP@@detail@boost@@2GB ; boost::detail::integer_traits_base<unsigned short,0,65535>::const_max
PUBLIC	?is_integral@?$integer_traits_base@H$0?IAAAAAAA@$0HPPPPPPP@@detail@boost@@2_NB ; boost::detail::integer_traits_base<int,-2147483648,2147483647>::is_integral
PUBLIC	?const_min@?$integer_traits_base@H$0?IAAAAAAA@$0HPPPPPPP@@detail@boost@@2HB ; boost::detail::integer_traits_base<int,-2147483648,2147483647>::const_min
PUBLIC	?const_max@?$integer_traits_base@H$0?IAAAAAAA@$0HPPPPPPP@@detail@boost@@2HB ; boost::detail::integer_traits_base<int,-2147483648,2147483647>::const_max
PUBLIC	?is_integral@?$integer_traits_base@I$0A@$0PPPPPPPP@@detail@boost@@2_NB ; boost::detail::integer_traits_base<unsigned int,0,4294967295>::is_integral
PUBLIC	?const_min@?$integer_traits_base@I$0A@$0PPPPPPPP@@detail@boost@@2IB ; boost::detail::integer_traits_base<unsigned int,0,4294967295>::const_min
PUBLIC	?const_max@?$integer_traits_base@I$0A@$0PPPPPPPP@@detail@boost@@2IB ; boost::detail::integer_traits_base<unsigned int,0,4294967295>::const_max
PUBLIC	?is_integral@?$integer_traits_base@J$0?IAAAAAAA@$0HPPPPPPP@@detail@boost@@2_NB ; boost::detail::integer_traits_base<long,-2147483648,2147483647>::is_integral
PUBLIC	?const_min@?$integer_traits_base@J$0?IAAAAAAA@$0HPPPPPPP@@detail@boost@@2JB ; boost::detail::integer_traits_base<long,-2147483648,2147483647>::const_min
PUBLIC	?const_max@?$integer_traits_base@J$0?IAAAAAAA@$0HPPPPPPP@@detail@boost@@2JB ; boost::detail::integer_traits_base<long,-2147483648,2147483647>::const_max
PUBLIC	?is_integral@?$integer_traits_base@K$0A@$0PPPPPPPP@@detail@boost@@2_NB ; boost::detail::integer_traits_base<unsigned long,0,4294967295>::is_integral
PUBLIC	?const_min@?$integer_traits_base@K$0A@$0PPPPPPPP@@detail@boost@@2KB ; boost::detail::integer_traits_base<unsigned long,0,4294967295>::const_min
PUBLIC	?const_max@?$integer_traits_base@K$0A@$0PPPPPPPP@@detail@boost@@2KB ; boost::detail::integer_traits_base<unsigned long,0,4294967295>::const_max
PUBLIC	?is_integral@?$integer_traits_base@_J$0?IAAAAAAAAAAAAAAA@$0HPPPPPPPPPPPPPPP@@detail@boost@@2_NB ; boost::detail::integer_traits_base<__int64,-9223372036854775808,9223372036854775807>::is_integral
PUBLIC	?const_min@?$integer_traits_base@_J$0?IAAAAAAAAAAAAAAA@$0HPPPPPPPPPPPPPPP@@detail@boost@@2_JB ; boost::detail::integer_traits_base<__int64,-9223372036854775808,9223372036854775807>::const_min
PUBLIC	?const_max@?$integer_traits_base@_J$0?IAAAAAAAAAAAAAAA@$0HPPPPPPPPPPPPPPP@@detail@boost@@2_JB ; boost::detail::integer_traits_base<__int64,-9223372036854775808,9223372036854775807>::const_max
PUBLIC	?is_integral@?$integer_traits_base@_K$0A@$0?0@detail@boost@@2_NB ; boost::detail::integer_traits_base<unsigned __int64,0,-1>::is_integral
PUBLIC	?const_min@?$integer_traits_base@_K$0A@$0?0@detail@boost@@2_KB ; boost::detail::integer_traits_base<unsigned __int64,0,-1>::const_min
PUBLIC	?const_max@?$integer_traits_base@_K$0A@$0?0@detail@boost@@2_KB ; boost::detail::integer_traits_base<unsigned __int64,0,-1>::const_max
PUBLIC	?value@?$ice_or@$0A@$0A@$0A@$0A@$0A@$0A@$0A@@type_traits@boost@@2_NB ; boost::type_traits::ice_or<0,0,0,0,0,0,0>::value
PUBLIC	?value@?$ice_and@$00$00$00$00$00$00$00@type_traits@boost@@2_NB ; boost::type_traits::ice_and<1,1,1,1,1,1,1>::value
PUBLIC	?value@?$ice_not@$00@type_traits@boost@@2_NB	; boost::type_traits::ice_not<1>::value
PUBLIC	?value@?$is_convertible_impl@XX@detail@boost@@2_NB ; boost::detail::is_convertible_impl<void,void>::value
PUBLIC	?value@?$is_convertible_impl@X$$CBX@detail@boost@@2_NB ; boost::detail::is_convertible_impl<void,void const >::value
PUBLIC	?value@?$is_convertible_impl@X$$CCX@detail@boost@@2_NB ; boost::detail::is_convertible_impl<void,void volatile >::value
PUBLIC	?value@?$is_convertible_impl@X$$CDX@detail@boost@@2_NB ; boost::detail::is_convertible_impl<void,void const volatile >::value
PUBLIC	?value@?$is_convertible_impl@$$CBXX@detail@boost@@2_NB ; boost::detail::is_convertible_impl<void const ,void>::value
PUBLIC	?value@?$is_convertible_impl@$$CBX$$CBX@detail@boost@@2_NB ; boost::detail::is_convertible_impl<void const ,void const >::value
PUBLIC	?value@?$is_convertible_impl@$$CBX$$CCX@detail@boost@@2_NB ; boost::detail::is_convertible_impl<void const ,void volatile >::value
PUBLIC	?value@?$is_convertible_impl@$$CBX$$CDX@detail@boost@@2_NB ; boost::detail::is_convertible_impl<void const ,void const volatile >::value
PUBLIC	?value@?$is_convertible_impl@$$CCXX@detail@boost@@2_NB ; boost::detail::is_convertible_impl<void volatile ,void>::value
PUBLIC	?value@?$is_convertible_impl@$$CCX$$CBX@detail@boost@@2_NB ; boost::detail::is_convertible_impl<void volatile ,void const >::value
PUBLIC	?value@?$is_convertible_impl@$$CCX$$CCX@detail@boost@@2_NB ; boost::detail::is_convertible_impl<void volatile ,void volatile >::value
PUBLIC	?value@?$is_convertible_impl@$$CCX$$CDX@detail@boost@@2_NB ; boost::detail::is_convertible_impl<void volatile ,void const volatile >::value
PUBLIC	?value@?$is_convertible_impl@$$CDXX@detail@boost@@2_NB ; boost::detail::is_convertible_impl<void const volatile ,void>::value
PUBLIC	?value@?$is_convertible_impl@$$CDX$$CBX@detail@boost@@2_NB ; boost::detail::is_convertible_impl<void const volatile ,void const >::value
PUBLIC	?value@?$is_convertible_impl@$$CDX$$CCX@detail@boost@@2_NB ; boost::detail::is_convertible_impl<void const volatile ,void volatile >::value
PUBLIC	?value@?$is_convertible_impl@$$CDX$$CDX@detail@boost@@2_NB ; boost::detail::is_convertible_impl<void const volatile ,void const volatile >::value
PUBLIC	?value@type@?$select_by_size@$00@detail@iostreams@boost@@2HB ; boost::iostreams::detail::select_by_size<1>::type::value
PUBLIC	?value@?$select_by_size@$00@detail@iostreams@boost@@2HB ; boost::iostreams::detail::select_by_size<1>::value
PUBLIC	?value@type@?$select_by_size@$01@detail@iostreams@boost@@2HB ; boost::iostreams::detail::select_by_size<2>::type::value
PUBLIC	?value@?$select_by_size@$01@detail@iostreams@boost@@2HB ; boost::iostreams::detail::select_by_size<2>::value
PUBLIC	?value@type@?$select_by_size@$02@detail@iostreams@boost@@2HB ; boost::iostreams::detail::select_by_size<3>::type::value
PUBLIC	?value@?$select_by_size@$02@detail@iostreams@boost@@2HB ; boost::iostreams::detail::select_by_size<3>::value
PUBLIC	?value@type@?$select_by_size@$03@detail@iostreams@boost@@2HB ; boost::iostreams::detail::select_by_size<4>::type::value
PUBLIC	?value@?$select_by_size@$03@detail@iostreams@boost@@2HB ; boost::iostreams::detail::select_by_size<4>::value
PUBLIC	?value@type@?$select_by_size@$04@detail@iostreams@boost@@2HB ; boost::iostreams::detail::select_by_size<5>::type::value
PUBLIC	?value@?$select_by_size@$04@detail@iostreams@boost@@2HB ; boost::iostreams::detail::select_by_size<5>::value
PUBLIC	?value@type@?$select_by_size@$05@detail@iostreams@boost@@2HB ; boost::iostreams::detail::select_by_size<6>::type::value
PUBLIC	?value@?$select_by_size@$05@detail@iostreams@boost@@2HB ; boost::iostreams::detail::select_by_size<6>::value
PUBLIC	?value@type@?$select_by_size@$06@detail@iostreams@boost@@2HB ; boost::iostreams::detail::select_by_size<7>::type::value
PUBLIC	?value@?$select_by_size@$06@detail@iostreams@boost@@2HB ; boost::iostreams::detail::select_by_size<7>::value
PUBLIC	?value@type@?$select_by_size@$07@detail@iostreams@boost@@2HB ; boost::iostreams::detail::select_by_size<8>::type::value
PUBLIC	?value@?$select_by_size@$07@detail@iostreams@boost@@2HB ; boost::iostreams::detail::select_by_size<8>::value
PUBLIC	?value@type@?$select_by_size@$08@detail@iostreams@boost@@2HB ; boost::iostreams::detail::select_by_size<9>::type::value
PUBLIC	?value@?$select_by_size@$08@detail@iostreams@boost@@2HB ; boost::iostreams::detail::select_by_size<9>::value
PUBLIC	?value@type@?$select_by_size@$09@detail@iostreams@boost@@2HB ; boost::iostreams::detail::select_by_size<10>::type::value
PUBLIC	?value@?$select_by_size@$09@detail@iostreams@boost@@2HB ; boost::iostreams::detail::select_by_size<10>::value
PUBLIC	?value@type@?$select_by_size@$0L@@detail@iostreams@boost@@2HB ; boost::iostreams::detail::select_by_size<11>::type::value
PUBLIC	?value@?$select_by_size@$0L@@detail@iostreams@boost@@2HB ; boost::iostreams::detail::select_by_size<11>::value
PUBLIC	?value@type@?$select_by_size@$0M@@detail@iostreams@boost@@2HB ; boost::iostreams::detail::select_by_size<12>::type::value
PUBLIC	?value@?$select_by_size@$0M@@detail@iostreams@boost@@2HB ; boost::iostreams::detail::select_by_size<12>::value
PUBLIC	?value@type@?$select_by_size@$0N@@detail@iostreams@boost@@2HB ; boost::iostreams::detail::select_by_size<13>::type::value
PUBLIC	?value@?$select_by_size@$0N@@detail@iostreams@boost@@2HB ; boost::iostreams::detail::select_by_size<13>::value
PUBLIC	?value@type@?$select_by_size@$0O@@detail@iostreams@boost@@2HB ; boost::iostreams::detail::select_by_size<14>::type::value
PUBLIC	?value@?$select_by_size@$0O@@detail@iostreams@boost@@2HB ; boost::iostreams::detail::select_by_size<14>::value
PUBLIC	?value@type@?$select_by_size@$0P@@detail@iostreams@boost@@2HB ; boost::iostreams::detail::select_by_size<15>::type::value
PUBLIC	?value@?$select_by_size@$0P@@detail@iostreams@boost@@2HB ; boost::iostreams::detail::select_by_size<15>::value
PUBLIC	?value@type@?$select_by_size@$0BA@@detail@iostreams@boost@@2HB ; boost::iostreams::detail::select_by_size<16>::type::value
PUBLIC	?value@?$select_by_size@$0BA@@detail@iostreams@boost@@2HB ; boost::iostreams::detail::select_by_size<16>::value
PUBLIC	?value@type@?$select_by_size@$0BB@@detail@iostreams@boost@@2HB ; boost::iostreams::detail::select_by_size<17>::type::value
PUBLIC	?value@?$select_by_size@$0BB@@detail@iostreams@boost@@2HB ; boost::iostreams::detail::select_by_size<17>::value
PUBLIC	?value@type@?$select_by_size@$0BC@@detail@iostreams@boost@@2HB ; boost::iostreams::detail::select_by_size<18>::type::value
PUBLIC	?value@?$select_by_size@$0BC@@detail@iostreams@boost@@2HB ; boost::iostreams::detail::select_by_size<18>::value
PUBLIC	?value@type@?$select_by_size@$0BD@@detail@iostreams@boost@@2HB ; boost::iostreams::detail::select_by_size<19>::type::value
PUBLIC	?value@?$select_by_size@$0BD@@detail@iostreams@boost@@2HB ; boost::iostreams::detail::select_by_size<19>::value
PUBLIC	?value@type@?$select_by_size@$0BE@@detail@iostreams@boost@@2HB ; boost::iostreams::detail::select_by_size<20>::type::value
PUBLIC	?value@?$select_by_size@$0BE@@detail@iostreams@boost@@2HB ; boost::iostreams::detail::select_by_size<20>::value
PUBLIC	?value@type@?$select_by_size@$0BF@@detail@iostreams@boost@@2HB ; boost::iostreams::detail::select_by_size<21>::type::value
PUBLIC	?value@?$select_by_size@$0BF@@detail@iostreams@boost@@2HB ; boost::iostreams::detail::select_by_size<21>::value
PUBLIC	?value@?$int_@$00@mpl@boost@@2HB		; boost::mpl::int_<1>::value
PUBLIC	?value@?$int_@$01@mpl@boost@@2HB		; boost::mpl::int_<2>::value
PUBLIC	?value@?$int_@$02@mpl@boost@@2HB		; boost::mpl::int_<3>::value
PUBLIC	?value@?$int_@$03@mpl@boost@@2HB		; boost::mpl::int_<4>::value
PUBLIC	?value@?$int_@$04@mpl@boost@@2HB		; boost::mpl::int_<5>::value
PUBLIC	?value@?$int_@$05@mpl@boost@@2HB		; boost::mpl::int_<6>::value
PUBLIC	?value@?$int_@$06@mpl@boost@@2HB		; boost::mpl::int_<7>::value
PUBLIC	?value@?$int_@$07@mpl@boost@@2HB		; boost::mpl::int_<8>::value
PUBLIC	?value@?$int_@$08@mpl@boost@@2HB		; boost::mpl::int_<9>::value
PUBLIC	?value@?$int_@$09@mpl@boost@@2HB		; boost::mpl::int_<10>::value
PUBLIC	?value@?$int_@$0L@@mpl@boost@@2HB		; boost::mpl::int_<11>::value
PUBLIC	?value@?$int_@$0M@@mpl@boost@@2HB		; boost::mpl::int_<12>::value
PUBLIC	?value@?$arg@$0?0@mpl@boost@@2HB		; boost::mpl::arg<-1>::value
PUBLIC	?value@?$arg@$00@mpl@boost@@2HB			; boost::mpl::arg<1>::value
PUBLIC	?value@?$arg@$01@mpl@boost@@2HB			; boost::mpl::arg<2>::value
PUBLIC	?value@?$arg@$02@mpl@boost@@2HB			; boost::mpl::arg<3>::value
PUBLIC	?value@?$arg@$03@mpl@boost@@2HB			; boost::mpl::arg<4>::value
PUBLIC	?value@?$arg@$04@mpl@boost@@2HB			; boost::mpl::arg<5>::value
PUBLIC	?value@?$is_member_function_pointer_impl@X@detail@boost@@2_NB ; boost::detail::is_member_function_pointer_impl<void>::value
PUBLIC	?value@?$is_member_function_pointer_impl@$$CBX@detail@boost@@2_NB ; boost::detail::is_member_function_pointer_impl<void const >::value
PUBLIC	?value@?$is_member_function_pointer_impl@$$CCX@detail@boost@@2_NB ; boost::detail::is_member_function_pointer_impl<void volatile >::value
PUBLIC	?value@?$is_member_function_pointer_impl@$$CDX@detail@boost@@2_NB ; boost::detail::is_member_function_pointer_impl<void const volatile >::value
PUBLIC	?value@?$is_scalar_impl@X@detail@boost@@2_NB	; boost::detail::is_scalar_impl<void>::value
PUBLIC	?value@?$is_scalar_impl@$$CBX@detail@boost@@2_NB ; boost::detail::is_scalar_impl<void const >::value
PUBLIC	?value@?$is_scalar_impl@$$CCX@detail@boost@@2_NB ; boost::detail::is_scalar_impl<void volatile >::value
PUBLIC	?value@?$is_scalar_impl@$$CDX@detail@boost@@2_NB ; boost::detail::is_scalar_impl<void const volatile >::value
PUBLIC	?value@?$is_pod_impl@X@detail@boost@@2_NB	; boost::detail::is_pod_impl<void>::value
PUBLIC	?value@?$is_pod_impl@$$CBX@detail@boost@@2_NB	; boost::detail::is_pod_impl<void const >::value
PUBLIC	?value@?$is_pod_impl@$$CCX@detail@boost@@2_NB	; boost::detail::is_pod_impl<void volatile >::value
PUBLIC	?value@?$is_pod_impl@$$CDX@detail@boost@@2_NB	; boost::detail::is_pod_impl<void const volatile >::value
PUBLIC	?value@?$integral_constant@_N$0A@@tr1@std@@2_NB	; std::tr1::integral_constant<bool,0>::value
PUBLIC	?value@?$integral_constant@_N$00@tr1@std@@2_NB	; std::tr1::integral_constant<bool,1>::value
PUBLIC	?value@?$integral_c@I$0A@@mpl@boost@@2IB	; boost::mpl::integral_c<unsigned int,0>::value
PUBLIC	?value@?$alignment_logic@$07$07@detail@boost@@2IB ; boost::detail::alignment_logic<8,8>::value
PUBLIC	?value@?$alignment_of_impl@Tmax_align@detail@boost@@@detail@boost@@2IB ; boost::detail::alignment_of_impl<boost::detail::max_align>::value
PUBLIC	?value@?$integral_c@I$07@mpl@boost@@2IB		; boost::mpl::integral_c<unsigned int,8>::value
PUBLIC	?value@?$alignment_logic@$00$00@detail@boost@@2IB ; boost::detail::alignment_logic<1,1>::value
PUBLIC	?value@?$alignment_of_impl@D@detail@boost@@2IB	; boost::detail::alignment_of_impl<char>::value
PUBLIC	?value@?$integral_c@I$00@mpl@boost@@2IB		; boost::mpl::integral_c<unsigned int,1>::value
PUBLIC	?value@?$alignment_logic@$01$01@detail@boost@@2IB ; boost::detail::alignment_logic<2,2>::value
PUBLIC	?value@?$alignment_of_impl@F@detail@boost@@2IB	; boost::detail::alignment_of_impl<short>::value
PUBLIC	?value@?$integral_c@I$01@mpl@boost@@2IB		; boost::mpl::integral_c<unsigned int,2>::value
PUBLIC	?value@?$alignment_logic@$03$03@detail@boost@@2IB ; boost::detail::alignment_logic<4,4>::value
PUBLIC	?value@?$alignment_of_impl@H@detail@boost@@2IB	; boost::detail::alignment_of_impl<int>::value
PUBLIC	?value@?$integral_c@I$03@mpl@boost@@2IB		; boost::mpl::integral_c<unsigned int,4>::value
PUBLIC	?value@?$alignment_of_impl@J@detail@boost@@2IB	; boost::detail::alignment_of_impl<long>::value
PUBLIC	?value@?$alignment_of_impl@_J@detail@boost@@2IB	; boost::detail::alignment_of_impl<__int64>::value
PUBLIC	?value@?$alignment_of_impl@T?$lower_alignment@$07@detail@boost@@@detail@boost@@2IB ; boost::detail::alignment_of_impl<boost::detail::lower_alignment<8> >::value
PUBLIC	?value@?$is_aligned@$07$07@detail@boost@@2_NB	; boost::detail::is_aligned<8,8>::value
PUBLIC	?found@?$type_with_alignment_imp@$07@detail@boost@@0IB ; boost::detail::type_with_alignment_imp<8>::found
PUBLIC	?value@?$is_pod_impl@Ua8@align@boost@@@detail@boost@@2_NB ; boost::detail::is_pod_impl<boost::align::a8>::value
PUBLIC	?value@?$is_pod_impl@Ua16@align@boost@@@detail@boost@@2_NB ; boost::detail::is_pod_impl<boost::align::a16>::value
PUBLIC	?value@?$is_pod_impl@Ua32@align@boost@@@detail@boost@@2_NB ; boost::detail::is_pod_impl<boost::align::a32>::value
PUBLIC	?value@?$is_pod_impl@Ua64@align@boost@@@detail@boost@@2_NB ; boost::detail::is_pod_impl<boost::align::a64>::value
PUBLIC	?value@?$is_pod_impl@Ua128@align@boost@@@detail@boost@@2_NB ; boost::detail::is_pod_impl<boost::align::a128>::value
PUBLIC	?value@?$implementation_level@Ucollection_size_type@serialization@boost@@@serialization@boost@@2HB ; boost::serialization::implementation_level<boost::serialization::collection_size_type>::value
PUBLIC	?value@?$implementation_level@V?$vector@_NV?$allocator@_N@std@@@std@@@serialization@boost@@2HB ; boost::serialization::implementation_level<std::vector<bool,std::allocator<bool> > >::value
PUBLIC	?value@?$implementation_level@V?$vector@DV?$allocator@D@std@@@std@@@serialization@boost@@2HB ; boost::serialization::implementation_level<std::vector<char,std::allocator<char> > >::value
PUBLIC	?value@?$implementation_level@V?$vector@CV?$allocator@C@std@@@std@@@serialization@boost@@2HB ; boost::serialization::implementation_level<std::vector<signed char,std::allocator<signed char> > >::value
PUBLIC	?value@?$implementation_level@V?$vector@EV?$allocator@E@std@@@std@@@serialization@boost@@2HB ; boost::serialization::implementation_level<std::vector<unsigned char,std::allocator<unsigned char> > >::value
PUBLIC	?value@?$implementation_level@V?$vector@HV?$allocator@H@std@@@std@@@serialization@boost@@2HB ; boost::serialization::implementation_level<std::vector<int,std::allocator<int> > >::value
PUBLIC	?value@?$implementation_level@V?$vector@IV?$allocator@I@std@@@std@@@serialization@boost@@2HB ; boost::serialization::implementation_level<std::vector<unsigned int,std::allocator<unsigned int> > >::value
PUBLIC	?value@?$implementation_level@V?$vector@JV?$allocator@J@std@@@std@@@serialization@boost@@2HB ; boost::serialization::implementation_level<std::vector<long,std::allocator<long> > >::value
PUBLIC	?value@?$implementation_level@V?$vector@KV?$allocator@K@std@@@std@@@serialization@boost@@2HB ; boost::serialization::implementation_level<std::vector<unsigned long,std::allocator<unsigned long> > >::value
PUBLIC	?value@?$implementation_level@V?$vector@MV?$allocator@M@std@@@std@@@serialization@boost@@2HB ; boost::serialization::implementation_level<std::vector<float,std::allocator<float> > >::value
PUBLIC	?value@?$implementation_level@V?$vector@NV?$allocator@N@std@@@std@@@serialization@boost@@2HB ; boost::serialization::implementation_level<std::vector<double,std::allocator<double> > >::value
PUBLIC	?value@?$implementation_level@V?$vector@GV?$allocator@G@std@@@std@@@serialization@boost@@2HB ; boost::serialization::implementation_level<std::vector<unsigned short,std::allocator<unsigned short> > >::value
PUBLIC	?value@?$implementation_level@V?$vector@FV?$allocator@F@std@@@std@@@serialization@boost@@2HB ; boost::serialization::implementation_level<std::vector<short,std::allocator<short> > >::value
PUBLIC	?value@?$implementation_level@V?$vector@_JV?$allocator@_J@std@@@std@@@serialization@boost@@2HB ; boost::serialization::implementation_level<std::vector<__int64,std::allocator<__int64> > >::value
PUBLIC	?value@?$implementation_level@V?$vector@_KV?$allocator@_K@std@@@std@@@serialization@boost@@2HB ; boost::serialization::implementation_level<std::vector<unsigned __int64,std::allocator<unsigned __int64> > >::value
PUBLIC	?value@?$implementation_level@V?$vector@_WV?$allocator@_W@std@@@std@@@serialization@boost@@2HB ; boost::serialization::implementation_level<std::vector<wchar_t,std::allocator<wchar_t> > >::value
PUBLIC	?has_fixed_range@rand48@boost@@2_NB		; boost::rand48::has_fixed_range
PUBLIC	?min_value@rand48@boost@@2JB			; boost::rand48::min_value
PUBLIC	?max_value@rand48@boost@@2JB			; boost::rand48::max_value
PUBLIC	?has_fixed_range@?$linear_congruential@_K$0FNOOMOGGN@$0L@$0BAAAAAAAAAAAA@$0A@@random@boost@@2_NB ; boost::random::linear_congruential<unsigned __int64,25214903917,11,281474976710656,0>::has_fixed_range
PUBLIC	?min_value@?$linear_congruential@_K$0FNOOMOGGN@$0L@$0BAAAAAAAAAAAA@$0A@@random@boost@@2_KB ; boost::random::linear_congruential<unsigned __int64,25214903917,11,281474976710656,0>::min_value
PUBLIC	?max_value@?$linear_congruential@_K$0FNOOMOGGN@$0L@$0BAAAAAAAAAAAA@$0A@@random@boost@@2_KB ; boost::random::linear_congruential<unsigned __int64,25214903917,11,281474976710656,0>::max_value
PUBLIC	?multiplier@?$linear_congruential@_K$0FNOOMOGGN@$0L@$0BAAAAAAAAAAAA@$0A@@random@boost@@2_KB ; boost::random::linear_congruential<unsigned __int64,25214903917,11,281474976710656,0>::multiplier
PUBLIC	?increment@?$linear_congruential@_K$0FNOOMOGGN@$0L@$0BAAAAAAAAAAAA@$0A@@random@boost@@2_KB ; boost::random::linear_congruential<unsigned __int64,25214903917,11,281474976710656,0>::increment
PUBLIC	?modulus@?$linear_congruential@_K$0FNOOMOGGN@$0L@$0BAAAAAAAAAAAA@$0A@@random@boost@@2_KB ; boost::random::linear_congruential<unsigned __int64,25214903917,11,281474976710656,0>::modulus
PUBLIC	?has_fixed_range@?$linear_congruential@J$0JMEO@$0A@$0HPPPPPKL@$0A@@random@boost@@2_NB ; boost::random::linear_congruential<long,40014,0,2147483563,0>::has_fixed_range
PUBLIC	?min_value@?$linear_congruential@J$0JMEO@$0A@$0HPPPPPKL@$0A@@random@boost@@2JB ; boost::random::linear_congruential<long,40014,0,2147483563,0>::min_value
PUBLIC	?max_value@?$linear_congruential@J$0JMEO@$0A@$0HPPPPPKL@$0A@@random@boost@@2JB ; boost::random::linear_congruential<long,40014,0,2147483563,0>::max_value
PUBLIC	?multiplier@?$linear_congruential@J$0JMEO@$0A@$0HPPPPPKL@$0A@@random@boost@@2JB ; boost::random::linear_congruential<long,40014,0,2147483563,0>::multiplier
PUBLIC	?increment@?$linear_congruential@J$0JMEO@$0A@$0HPPPPPKL@$0A@@random@boost@@2JB ; boost::random::linear_congruential<long,40014,0,2147483563,0>::increment
PUBLIC	?modulus@?$linear_congruential@J$0JMEO@$0A@$0HPPPPPKL@$0A@@random@boost@@2JB ; boost::random::linear_congruential<long,40014,0,2147483563,0>::modulus
PUBLIC	?has_fixed_range@?$linear_congruential@K$0FFG@$0CENGJ@$0KOFCJ@$0A@@random@boost@@2_NB ; boost::random::linear_congruential<unsigned long,1366,150889,714025,0>::has_fixed_range
PUBLIC	?min_value@?$linear_congruential@K$0FFG@$0CENGJ@$0KOFCJ@$0A@@random@boost@@2KB ; boost::random::linear_congruential<unsigned long,1366,150889,714025,0>::min_value
PUBLIC	?max_value@?$linear_congruential@K$0FFG@$0CENGJ@$0KOFCJ@$0A@@random@boost@@2KB ; boost::random::linear_congruential<unsigned long,1366,150889,714025,0>::max_value
PUBLIC	?multiplier@?$linear_congruential@K$0FFG@$0CENGJ@$0KOFCJ@$0A@@random@boost@@2KB ; boost::random::linear_congruential<unsigned long,1366,150889,714025,0>::multiplier
PUBLIC	?increment@?$linear_congruential@K$0FFG@$0CENGJ@$0KOFCJ@$0A@@random@boost@@2KB ; boost::random::linear_congruential<unsigned long,1366,150889,714025,0>::increment
PUBLIC	?modulus@?$linear_congruential@K$0FFG@$0CENGJ@$0KOFCJ@$0A@@random@boost@@2KB ; boost::random::linear_congruential<unsigned long,1366,150889,714025,0>::modulus
PUBLIC	?is_specialized@?$fibonacci_validation@N$0CFP@$0BBB@@random@boost@@2_NB ; boost::random::fibonacci_validation<double,607,273>::is_specialized
PUBLIC	?is_specialized@?$fibonacci_validation@N$0EPP@$0BKC@@random@boost@@2_NB ; boost::random::fibonacci_validation<double,1279,418>::is_specialized
PUBLIC	?is_specialized@?$fibonacci_validation@N$0IOJ@$0EOE@@random@boost@@2_NB ; boost::random::fibonacci_validation<double,2281,1252>::is_specialized
PUBLIC	?is_specialized@?$fibonacci_validation@N$0MJB@$0CEA@@random@boost@@2_NB ; boost::random::fibonacci_validation<double,3217,576>::is_specialized
PUBLIC	?is_specialized@?$fibonacci_validation@N$0BBEH@$0IDC@@random@boost@@2_NB ; boost::random::fibonacci_validation<double,4423,2098>::is_specialized
PUBLIC	?is_specialized@?$fibonacci_validation@N$0CFNJ@$0BFHO@@random@boost@@2_NB ; boost::random::fibonacci_validation<double,9689,5502>::is_specialized
PUBLIC	?is_specialized@?$fibonacci_validation@N$0ENOB@$0CGHC@@random@boost@@2_NB ; boost::random::fibonacci_validation<double,19937,9842>::is_specialized
PUBLIC	?is_specialized@?$fibonacci_validation@N$0FKKJ@$0DEJO@@random@boost@@2_NB ; boost::random::fibonacci_validation<double,23209,13470>::is_specialized
PUBLIC	?is_specialized@?$fibonacci_validation@N$0KNNB@$0FCCK@@random@boost@@2_NB ; boost::random::fibonacci_validation<double,44497,21034>::is_specialized
PUBLIC	?has_fixed_range@?$linear_feedback_shift@K$0CA@$0BP@$0N@$0M@$0A@@random@boost@@2_NB ; boost::random::linear_feedback_shift<unsigned long,32,31,13,12,0>::has_fixed_range
PUBLIC	?word_size@?$linear_feedback_shift@K$0CA@$0BP@$0N@$0M@$0A@@random@boost@@2HB ; boost::random::linear_feedback_shift<unsigned long,32,31,13,12,0>::word_size
PUBLIC	?exponent1@?$linear_feedback_shift@K$0CA@$0BP@$0N@$0M@$0A@@random@boost@@2HB ; boost::random::linear_feedback_shift<unsigned long,32,31,13,12,0>::exponent1
PUBLIC	?exponent2@?$linear_feedback_shift@K$0CA@$0BP@$0N@$0M@$0A@@random@boost@@2HB ; boost::random::linear_feedback_shift<unsigned long,32,31,13,12,0>::exponent2
PUBLIC	?step_size@?$linear_feedback_shift@K$0CA@$0BP@$0N@$0M@$0A@@random@boost@@2HB ; boost::random::linear_feedback_shift<unsigned long,32,31,13,12,0>::step_size
PUBLIC	?has_fixed_range@?$xor_combine@V?$linear_feedback_shift@K$0CA@$0BP@$0N@$0M@$0A@@random@boost@@$0A@V?$linear_feedback_shift@K$0CA@$0BN@$01$03$0A@@23@$0A@$0A@@random@boost@@2_NB ; boost::random::xor_combine<boost::random::linear_feedback_shift<unsigned long,32,31,13,12,0>,0,boost::random::linear_feedback_shift<unsigned long,32,29,2,4,0>,0,0>::has_fixed_range
PUBLIC	?shift1@?$xor_combine@V?$linear_feedback_shift@K$0CA@$0BP@$0N@$0M@$0A@@random@boost@@$0A@V?$linear_feedback_shift@K$0CA@$0BN@$01$03$0A@@23@$0A@$0A@@random@boost@@2HB ; boost::random::xor_combine<boost::random::linear_feedback_shift<unsigned long,32,31,13,12,0>,0,boost::random::linear_feedback_shift<unsigned long,32,29,2,4,0>,0,0>::shift1
PUBLIC	?shift2@?$xor_combine@V?$linear_feedback_shift@K$0CA@$0BP@$0N@$0M@$0A@@random@boost@@$0A@V?$linear_feedback_shift@K$0CA@$0BN@$01$03$0A@@23@$0A@$0A@@random@boost@@2HB ; boost::random::xor_combine<boost::random::linear_feedback_shift<unsigned long,32,31,13,12,0>,0,boost::random::linear_feedback_shift<unsigned long,32,29,2,4,0>,0,0>::shift2
PUBLIC	?has_fixed_range@?$linear_feedback_shift@K$0CA@$0BN@$01$03$0A@@random@boost@@2_NB ; boost::random::linear_feedback_shift<unsigned long,32,29,2,4,0>::has_fixed_range
PUBLIC	?word_size@?$linear_feedback_shift@K$0CA@$0BN@$01$03$0A@@random@boost@@2HB ; boost::random::linear_feedback_shift<unsigned long,32,29,2,4,0>::word_size
PUBLIC	?exponent1@?$linear_feedback_shift@K$0CA@$0BN@$01$03$0A@@random@boost@@2HB ; boost::random::linear_feedback_shift<unsigned long,32,29,2,4,0>::exponent1
PUBLIC	?exponent2@?$linear_feedback_shift@K$0CA@$0BN@$01$03$0A@@random@boost@@2HB ; boost::random::linear_feedback_shift<unsigned long,32,29,2,4,0>::exponent2
PUBLIC	?step_size@?$linear_feedback_shift@K$0CA@$0BN@$01$03$0A@@random@boost@@2HB ; boost::random::linear_feedback_shift<unsigned long,32,29,2,4,0>::step_size
PUBLIC	?value@?$is_arithmetic_impl@Uinput@iostreams@boost@@@detail@boost@@2_NB ; boost::detail::is_arithmetic_impl<boost::iostreams::input>::value
PUBLIC	?value@?$is_abstract_imp@Uinput@iostreams@boost@@@detail@boost@@2_NB ; boost::detail::is_abstract_imp<boost::iostreams::input>::value
PUBLIC	?value@?$is_convertible_basic_impl@AAUinput@iostreams@boost@@U123@@detail@boost@@2_NB ; boost::detail::is_convertible_basic_impl<boost::iostreams::input &,boost::iostreams::input>::value
PUBLIC	?value@?$ice_or@$00$0A@$0A@$0A@$0A@$0A@$0A@@type_traits@boost@@2_NB ; boost::type_traits::ice_or<1,0,0,0,0,0,0>::value
PUBLIC	?value@?$ice_not@$0A@@type_traits@boost@@2_NB	; boost::type_traits::ice_not<0>::value
PUBLIC	?value@?$is_convertible_impl@Uinput@iostreams@boost@@U123@@detail@boost@@2_NB ; boost::detail::is_convertible_impl<boost::iostreams::input,boost::iostreams::input>::value
PUBLIC	?value@?$is_arithmetic_impl@Uoutput@iostreams@boost@@@detail@boost@@2_NB ; boost::detail::is_arithmetic_impl<boost::iostreams::output>::value
PUBLIC	?value@?$is_abstract_imp@Uoutput@iostreams@boost@@@detail@boost@@2_NB ; boost::detail::is_abstract_imp<boost::iostreams::output>::value
PUBLIC	?value@?$is_convertible_basic_impl@AAUinput@iostreams@boost@@Uoutput@23@@detail@boost@@2_NB ; boost::detail::is_convertible_basic_impl<boost::iostreams::input &,boost::iostreams::output>::value
PUBLIC	?value@?$ice_and@$0A@$00$00$00$00$00$00@type_traits@boost@@2_NB ; boost::type_traits::ice_and<0,1,1,1,1,1,1>::value
PUBLIC	?value@?$is_convertible_impl@Uinput@iostreams@boost@@Uoutput@23@@detail@boost@@2_NB ; boost::detail::is_convertible_impl<boost::iostreams::input,boost::iostreams::output>::value
PUBLIC	?word_size@?$mersenne_twister@K$0CA@$0CHA@$0BIN@$0BP@$0JJAILANP@$0L@$06$0JNCMFGIA@$0P@$0OPMGAAAA@$0BC@$0MHHGGGNO@@random@boost@@2HB ; boost::random::mersenne_twister<unsigned long,32,624,397,31,2567483615,11,7,2636928640,15,4022730752,18,3346425566>::word_size
PUBLIC	?state_size@?$mersenne_twister@K$0CA@$0CHA@$0BIN@$0BP@$0JJAILANP@$0L@$06$0JNCMFGIA@$0P@$0OPMGAAAA@$0BC@$0MHHGGGNO@@random@boost@@2HB ; boost::random::mersenne_twister<unsigned long,32,624,397,31,2567483615,11,7,2636928640,15,4022730752,18,3346425566>::state_size
PUBLIC	?shift_size@?$mersenne_twister@K$0CA@$0CHA@$0BIN@$0BP@$0JJAILANP@$0L@$06$0JNCMFGIA@$0P@$0OPMGAAAA@$0BC@$0MHHGGGNO@@random@boost@@2HB ; boost::random::mersenne_twister<unsigned long,32,624,397,31,2567483615,11,7,2636928640,15,4022730752,18,3346425566>::shift_size
PUBLIC	?mask_bits@?$mersenne_twister@K$0CA@$0CHA@$0BIN@$0BP@$0JJAILANP@$0L@$06$0JNCMFGIA@$0P@$0OPMGAAAA@$0BC@$0MHHGGGNO@@random@boost@@2HB ; boost::random::mersenne_twister<unsigned long,32,624,397,31,2567483615,11,7,2636928640,15,4022730752,18,3346425566>::mask_bits
PUBLIC	?parameter_a@?$mersenne_twister@K$0CA@$0CHA@$0BIN@$0BP@$0JJAILANP@$0L@$06$0JNCMFGIA@$0P@$0OPMGAAAA@$0BC@$0MHHGGGNO@@random@boost@@2KB ; boost::random::mersenne_twister<unsigned long,32,624,397,31,2567483615,11,7,2636928640,15,4022730752,18,3346425566>::parameter_a
PUBLIC	?output_u@?$mersenne_twister@K$0CA@$0CHA@$0BIN@$0BP@$0JJAILANP@$0L@$06$0JNCMFGIA@$0P@$0OPMGAAAA@$0BC@$0MHHGGGNO@@random@boost@@2HB ; boost::random::mersenne_twister<unsigned long,32,624,397,31,2567483615,11,7,2636928640,15,4022730752,18,3346425566>::output_u
PUBLIC	?output_s@?$mersenne_twister@K$0CA@$0CHA@$0BIN@$0BP@$0JJAILANP@$0L@$06$0JNCMFGIA@$0P@$0OPMGAAAA@$0BC@$0MHHGGGNO@@random@boost@@2HB ; boost::random::mersenne_twister<unsigned long,32,624,397,31,2567483615,11,7,2636928640,15,4022730752,18,3346425566>::output_s
PUBLIC	?output_b@?$mersenne_twister@K$0CA@$0CHA@$0BIN@$0BP@$0JJAILANP@$0L@$06$0JNCMFGIA@$0P@$0OPMGAAAA@$0BC@$0MHHGGGNO@@random@boost@@2KB ; boost::random::mersenne_twister<unsigned long,32,624,397,31,2567483615,11,7,2636928640,15,4022730752,18,3346425566>::output_b
PUBLIC	?output_t@?$mersenne_twister@K$0CA@$0CHA@$0BIN@$0BP@$0JJAILANP@$0L@$06$0JNCMFGIA@$0P@$0OPMGAAAA@$0BC@$0MHHGGGNO@@random@boost@@2HB ; boost::random::mersenne_twister<unsigned long,32,624,397,31,2567483615,11,7,2636928640,15,4022730752,18,3346425566>::output_t
PUBLIC	?output_c@?$mersenne_twister@K$0CA@$0CHA@$0BIN@$0BP@$0JJAILANP@$0L@$06$0JNCMFGIA@$0P@$0OPMGAAAA@$0BC@$0MHHGGGNO@@random@boost@@2KB ; boost::random::mersenne_twister<unsigned long,32,624,397,31,2567483615,11,7,2636928640,15,4022730752,18,3346425566>::output_c
PUBLIC	?output_l@?$mersenne_twister@K$0CA@$0CHA@$0BIN@$0BP@$0JJAILANP@$0L@$06$0JNCMFGIA@$0P@$0OPMGAAAA@$0BC@$0MHHGGGNO@@random@boost@@2HB ; boost::random::mersenne_twister<unsigned long,32,624,397,31,2567483615,11,7,2636928640,15,4022730752,18,3346425566>::output_l
PUBLIC	?has_fixed_range@?$mersenne_twister@K$0CA@$0CHA@$0BIN@$0BP@$0JJAILANP@$0L@$06$0JNCMFGIA@$0P@$0OPMGAAAA@$0BC@$0MHHGGGNO@@random@boost@@2_NB ; boost::random::mersenne_twister<unsigned long,32,624,397,31,2567483615,11,7,2636928640,15,4022730752,18,3346425566>::has_fixed_range
PUBLIC	?is_const@?$cv_traits_imp@PAH@detail@boost@@2_NB ; boost::detail::cv_traits_imp<int *>::is_const
PUBLIC	?is_volatile@?$cv_traits_imp@PAH@detail@boost@@2_NB ; boost::detail::cv_traits_imp<int *>::is_volatile
PUBLIC	?value@?$is_ununsigned_helper@H@detail@boost@@2_NB ; boost::detail::is_ununsigned_helper<int>::value
PUBLIC	?value@?$is_unsigned_imp@H@detail@boost@@2_NB	; boost::detail::is_unsigned_imp<int>::value
PUBLIC	?has_fixed_range@?$backward_compatible_uniform_01@V?$pass_through_engine@AAV?$mersenne_twister@K$0CA@$0CHA@$0BIN@$0BP@$0JJAILANP@$0L@$06$0JNCMFGIA@$0P@$0OPMGAAAA@$0BC@$0MHHGGGNO@@random@boost@@@detail@random@boost@@N@detail@boost@@2_NB ; boost::detail::backward_compatible_uniform_01<boost::random::detail::pass_through_engine<boost::random::mersenne_twister<unsigned long,32,624,397,31,2567483615,11,7,2636928640,15,4022730752,18,3346425566> &>,double>::has_fixed_range
PUBLIC	?has_fixed_range@?$backward_compatible_uniform_01@V?$pass_through_engine@V?$mersenne_twister@K$0CA@$0CHA@$0BIN@$0BP@$0JJAILANP@$0L@$06$0JNCMFGIA@$0P@$0OPMGAAAA@$0BC@$0MHHGGGNO@@random@boost@@@detail@random@boost@@N@detail@boost@@2_NB ; boost::detail::backward_compatible_uniform_01<boost::random::detail::pass_through_engine<boost::random::mersenne_twister<unsigned long,32,624,397,31,2567483615,11,7,2636928640,15,4022730752,18,3346425566> >,double>::has_fixed_range
PUBLIC	?value@?$implementation_level@V?$list@_NV?$allocator@_N@std@@@std@@@serialization@boost@@2HB ; boost::serialization::implementation_level<std::list<bool,std::allocator<bool> > >::value
PUBLIC	?value@?$implementation_level@V?$list@DV?$allocator@D@std@@@std@@@serialization@boost@@2HB ; boost::serialization::implementation_level<std::list<char,std::allocator<char> > >::value
PUBLIC	?value@?$implementation_level@V?$list@CV?$allocator@C@std@@@std@@@serialization@boost@@2HB ; boost::serialization::implementation_level<std::list<signed char,std::allocator<signed char> > >::value
PUBLIC	?value@?$implementation_level@V?$list@EV?$allocator@E@std@@@std@@@serialization@boost@@2HB ; boost::serialization::implementation_level<std::list<unsigned char,std::allocator<unsigned char> > >::value
PUBLIC	?value@?$implementation_level@V?$list@HV?$allocator@H@std@@@std@@@serialization@boost@@2HB ; boost::serialization::implementation_level<std::list<int,std::allocator<int> > >::value
PUBLIC	?value@?$implementation_level@V?$list@IV?$allocator@I@std@@@std@@@serialization@boost@@2HB ; boost::serialization::implementation_level<std::list<unsigned int,std::allocator<unsigned int> > >::value
PUBLIC	?value@?$implementation_level@V?$list@JV?$allocator@J@std@@@std@@@serialization@boost@@2HB ; boost::serialization::implementation_level<std::list<long,std::allocator<long> > >::value
PUBLIC	?value@?$implementation_level@V?$list@KV?$allocator@K@std@@@std@@@serialization@boost@@2HB ; boost::serialization::implementation_level<std::list<unsigned long,std::allocator<unsigned long> > >::value
PUBLIC	?value@?$implementation_level@V?$list@MV?$allocator@M@std@@@std@@@serialization@boost@@2HB ; boost::serialization::implementation_level<std::list<float,std::allocator<float> > >::value
PUBLIC	?value@?$implementation_level@V?$list@NV?$allocator@N@std@@@std@@@serialization@boost@@2HB ; boost::serialization::implementation_level<std::list<double,std::allocator<double> > >::value
PUBLIC	?value@?$implementation_level@V?$list@GV?$allocator@G@std@@@std@@@serialization@boost@@2HB ; boost::serialization::implementation_level<std::list<unsigned short,std::allocator<unsigned short> > >::value
PUBLIC	?value@?$implementation_level@V?$list@FV?$allocator@F@std@@@std@@@serialization@boost@@2HB ; boost::serialization::implementation_level<std::list<short,std::allocator<short> > >::value
PUBLIC	?value@?$implementation_level@V?$list@_JV?$allocator@_J@std@@@std@@@serialization@boost@@2HB ; boost::serialization::implementation_level<std::list<__int64,std::allocator<__int64> > >::value
PUBLIC	?value@?$implementation_level@V?$list@_KV?$allocator@_K@std@@@std@@@serialization@boost@@2HB ; boost::serialization::implementation_level<std::list<unsigned __int64,std::allocator<unsigned __int64> > >::value
PUBLIC	?value@?$implementation_level@V?$list@_WV?$allocator@_W@std@@@std@@@serialization@boost@@2HB ; boost::serialization::implementation_level<std::list<wchar_t,std::allocator<wchar_t> > >::value
PUBLIC	?value@?$implementation_level@Uversion_type@archive@boost@@@serialization@boost@@2HB ; boost::serialization::implementation_level<boost::archive::version_type>::value
PUBLIC	?value@?$implementation_level@Uclass_id_type@archive@boost@@@serialization@boost@@2HB ; boost::serialization::implementation_level<boost::archive::class_id_type>::value
PUBLIC	?value@?$implementation_level@Uclass_id_reference_type@archive@boost@@@serialization@boost@@2HB ; boost::serialization::implementation_level<boost::archive::class_id_reference_type>::value
PUBLIC	?value@?$implementation_level@Uclass_id_optional_type@archive@boost@@@serialization@boost@@2HB ; boost::serialization::implementation_level<boost::archive::class_id_optional_type>::value
PUBLIC	?value@?$implementation_level@Uclass_name_type@archive@boost@@@serialization@boost@@2HB ; boost::serialization::implementation_level<boost::archive::class_name_type>::value
PUBLIC	?value@?$implementation_level@Uobject_id_type@archive@boost@@@serialization@boost@@2HB ; boost::serialization::implementation_level<boost::archive::object_id_type>::value
PUBLIC	?value@?$implementation_level@Uobject_reference_type@archive@boost@@@serialization@boost@@2HB ; boost::serialization::implementation_level<boost::archive::object_reference_type>::value
PUBLIC	?value@?$implementation_level@Utracking_type@archive@boost@@@serialization@boost@@2HB ; boost::serialization::implementation_level<boost::archive::tracking_type>::value
PUBLIC	?value@?$implementation_level@V?$basic_string@DU?$char_traits@D@std@@V?$allocator@D@2@@std@@@serialization@boost@@2HB ; boost::serialization::implementation_level<std::basic_string<char,std::char_traits<char>,std::allocator<char> > >::value
PUBLIC	?value@?$implementation_level@V?$basic_string@_WU?$char_traits@_W@std@@V?$allocator@_W@2@@std@@@serialization@boost@@2HB ; boost::serialization::implementation_level<std::basic_string<wchar_t,std::char_traits<wchar_t>,std::allocator<wchar_t> > >::value
PUBLIC	?value@?$int_@$0A@@mpl@boost@@2HB		; boost::mpl::int_<0>::value
PUBLIC	?value@?$is_convertible_basic_impl@AAUoutput@iostreams@boost@@Uinput@23@@detail@boost@@2_NB ; boost::detail::is_convertible_basic_impl<boost::iostreams::output &,boost::iostreams::input>::value
PUBLIC	?value@?$is_convertible_impl@Uoutput@iostreams@boost@@Uinput@23@@detail@boost@@2_NB ; boost::detail::is_convertible_impl<boost::iostreams::output,boost::iostreams::input>::value
PUBLIC	?is_const@?$cv_traits_imp@PBV?$basic_string@DU?$char_traits@D@std@@V?$allocator@D@2@@std@@@detail@boost@@2_NB ; boost::detail::cv_traits_imp<std::basic_string<char,std::char_traits<char>,std::allocator<char> > const *>::is_const
PUBLIC	?is_volatile@?$cv_traits_imp@PBV?$basic_string@DU?$char_traits@D@std@@V?$allocator@D@2@@std@@@detail@boost@@2_NB ; boost::detail::cv_traits_imp<std::basic_string<char,std::char_traits<char>,std::allocator<char> > const *>::is_volatile
PUBLIC	?is_const@?$cv_traits_imp@PAV?$basic_string@DU?$char_traits@D@std@@V?$allocator@D@2@@std@@@detail@boost@@2_NB ; boost::detail::cv_traits_imp<std::basic_string<char,std::char_traits<char>,std::allocator<char> > *>::is_const
PUBLIC	?is_volatile@?$cv_traits_imp@PAV?$basic_string@DU?$char_traits@D@std@@V?$allocator@D@2@@std@@@detail@boost@@2_NB ; boost::detail::cv_traits_imp<std::basic_string<char,std::char_traits<char>,std::allocator<char> > *>::is_volatile
PUBLIC	?value@?$is_abstract_imp@D@detail@boost@@2_NB	; boost::detail::is_abstract_imp<char>::value
PUBLIC	?is_const@?$cv_traits_imp@PBV?$iterator_range@V?$_String_iterator@DU?$char_traits@D@std@@V?$allocator@D@2@@std@@@boost@@@detail@boost@@2_NB ; boost::detail::cv_traits_imp<boost::iterator_range<std::_String_iterator<char,std::char_traits<char>,std::allocator<char> > > const *>::is_const
PUBLIC	?is_volatile@?$cv_traits_imp@PBV?$iterator_range@V?$_String_iterator@DU?$char_traits@D@std@@V?$allocator@D@2@@std@@@boost@@@detail@boost@@2_NB ; boost::detail::cv_traits_imp<boost::iterator_range<std::_String_iterator<char,std::char_traits<char>,std::allocator<char> > > const *>::is_volatile
PUBLIC	?is_const@?$cv_traits_imp@PAUtracking_type@archive@boost@@@detail@boost@@2_NB ; boost::detail::cv_traits_imp<boost::archive::tracking_type *>::is_const
PUBLIC	?is_volatile@?$cv_traits_imp@PAUtracking_type@archive@boost@@@detail@boost@@2_NB ; boost::detail::cv_traits_imp<boost::archive::tracking_type *>::is_volatile
PUBLIC	?value@?$is_pointer_helper@Utracking_type@archive@boost@@@detail@boost@@2_NB ; boost::detail::is_pointer_helper<boost::archive::tracking_type>::value
PUBLIC	?value@?$result_@Utracking_type@archive@boost@@@?$is_mem_fun_pointer_select@$0A@@detail@boost@@2_NB ; boost::detail::is_mem_fun_pointer_select<0>::result_<boost::archive::tracking_type>::value
PUBLIC	?value@?$is_pointer_impl@Utracking_type@archive@boost@@@detail@boost@@2_NB ; boost::detail::is_pointer_impl<boost::archive::tracking_type>::value
PUBLIC	?is_const@?$cv_traits_imp@PAUversion_type@archive@boost@@@detail@boost@@2_NB ; boost::detail::cv_traits_imp<boost::archive::version_type *>::is_const
PUBLIC	?is_volatile@?$cv_traits_imp@PAUversion_type@archive@boost@@@detail@boost@@2_NB ; boost::detail::cv_traits_imp<boost::archive::version_type *>::is_volatile
PUBLIC	?value@?$is_pointer_helper@Uversion_type@archive@boost@@@detail@boost@@2_NB ; boost::detail::is_pointer_helper<boost::archive::version_type>::value
PUBLIC	?value@?$result_@Uversion_type@archive@boost@@@?$is_mem_fun_pointer_select@$0A@@detail@boost@@2_NB ; boost::detail::is_mem_fun_pointer_select<0>::result_<boost::archive::version_type>::value
PUBLIC	?value@?$is_pointer_impl@Uversion_type@archive@boost@@@detail@boost@@2_NB ; boost::detail::is_pointer_impl<boost::archive::version_type>::value
PUBLIC	?is_const@?$cv_traits_imp@PAUobject_id_type@archive@boost@@@detail@boost@@2_NB ; boost::detail::cv_traits_imp<boost::archive::object_id_type *>::is_const
PUBLIC	?is_volatile@?$cv_traits_imp@PAUobject_id_type@archive@boost@@@detail@boost@@2_NB ; boost::detail::cv_traits_imp<boost::archive::object_id_type *>::is_volatile
PUBLIC	?value@?$is_pointer_helper@Uobject_id_type@archive@boost@@@detail@boost@@2_NB ; boost::detail::is_pointer_helper<boost::archive::object_id_type>::value
PUBLIC	?value@?$result_@Uobject_id_type@archive@boost@@@?$is_mem_fun_pointer_select@$0A@@detail@boost@@2_NB ; boost::detail::is_mem_fun_pointer_select<0>::result_<boost::archive::object_id_type>::value
PUBLIC	?value@?$is_pointer_impl@Uobject_id_type@archive@boost@@@detail@boost@@2_NB ; boost::detail::is_pointer_impl<boost::archive::object_id_type>::value
PUBLIC	?is_const@?$cv_traits_imp@PAUclass_id_type@archive@boost@@@detail@boost@@2_NB ; boost::detail::cv_traits_imp<boost::archive::class_id_type *>::is_const
PUBLIC	?is_volatile@?$cv_traits_imp@PAUclass_id_type@archive@boost@@@detail@boost@@2_NB ; boost::detail::cv_traits_imp<boost::archive::class_id_type *>::is_volatile
PUBLIC	?value@?$is_pointer_helper@Uclass_id_type@archive@boost@@@detail@boost@@2_NB ; boost::detail::is_pointer_helper<boost::archive::class_id_type>::value
PUBLIC	?value@?$result_@Uclass_id_type@archive@boost@@@?$is_mem_fun_pointer_select@$0A@@detail@boost@@2_NB ; boost::detail::is_mem_fun_pointer_select<0>::result_<boost::archive::class_id_type>::value
PUBLIC	?value@?$is_pointer_impl@Uclass_id_type@archive@boost@@@detail@boost@@2_NB ; boost::detail::is_pointer_impl<boost::archive::class_id_type>::value
PUBLIC	?is_const@?$cv_traits_imp@PAI@detail@boost@@2_NB ; boost::detail::cv_traits_imp<unsigned int *>::is_const
PUBLIC	?is_volatile@?$cv_traits_imp@PAI@detail@boost@@2_NB ; boost::detail::cv_traits_imp<unsigned int *>::is_volatile
PUBLIC	?value@?$is_pointer_helper@I@detail@boost@@2_NB	; boost::detail::is_pointer_helper<unsigned int>::value
PUBLIC	?value@?$result_@I@?$is_mem_fun_pointer_select@$0A@@detail@boost@@2_NB ; boost::detail::is_mem_fun_pointer_select<0>::result_<unsigned int>::value
PUBLIC	?value@?$is_pointer_impl@I@detail@boost@@2_NB	; boost::detail::is_pointer_impl<unsigned int>::value
PUBLIC	?value@?$is_base_and_derived_impl@Ubasic_traits@serialization@boost@@I@detail@boost@@2_NB ; boost::detail::is_base_and_derived_impl<boost::serialization::basic_traits,unsigned int>::value
PUBLIC	?value@?$is_arithmetic_impl@I@detail@boost@@2_NB ; boost::detail::is_arithmetic_impl<unsigned int>::value
PUBLIC	?value@?$implementation_level@I@serialization@boost@@2HB ; boost::serialization::implementation_level<unsigned int>::value
PUBLIC	?value@?$is_pointer_helper@H@detail@boost@@2_NB	; boost::detail::is_pointer_helper<int>::value
PUBLIC	?value@?$result_@H@?$is_mem_fun_pointer_select@$0A@@detail@boost@@2_NB ; boost::detail::is_mem_fun_pointer_select<0>::result_<int>::value
PUBLIC	?value@?$is_pointer_impl@H@detail@boost@@2_NB	; boost::detail::is_pointer_impl<int>::value
PUBLIC	?value@?$is_base_and_derived_impl@Ubasic_traits@serialization@boost@@H@detail@boost@@2_NB ; boost::detail::is_base_and_derived_impl<boost::serialization::basic_traits,int>::value
PUBLIC	?value@?$is_arithmetic_impl@H@detail@boost@@2_NB ; boost::detail::is_arithmetic_impl<int>::value
PUBLIC	?value@?$implementation_level@H@serialization@boost@@2HB ; boost::serialization::implementation_level<int>::value
PUBLIC	?value@?$is_pointer_helper@V?$basic_string@DU?$char_traits@D@std@@V?$allocator@D@2@@std@@@detail@boost@@2_NB ; boost::detail::is_pointer_helper<std::basic_string<char,std::char_traits<char>,std::allocator<char> > >::value
PUBLIC	?value@?$result_@V?$basic_string@DU?$char_traits@D@std@@V?$allocator@D@2@@std@@@?$is_mem_fun_pointer_select@$0A@@detail@boost@@2_NB ; boost::detail::is_mem_fun_pointer_select<0>::result_<std::basic_string<char,std::char_traits<char>,std::allocator<char> > >::value
PUBLIC	?value@?$is_pointer_impl@V?$basic_string@DU?$char_traits@D@std@@V?$allocator@D@2@@std@@@detail@boost@@2_NB ; boost::detail::is_pointer_impl<std::basic_string<char,std::char_traits<char>,std::allocator<char> > >::value
;	COMDAT ?value@?$is_pointer_impl@V?$basic_string@DU?$char_traits@D@std@@V?$allocator@D@2@@std@@@detail@boost@@2_NB
CONST	SEGMENT
?value@?$is_pointer_impl@V?$basic_string@DU?$char_traits@D@std@@V?$allocator@D@2@@std@@@detail@boost@@2_NB DB 00H ; boost::detail::is_pointer_impl<std::basic_string<char,std::char_traits<char>,std::allocator<char> > >::value
CONST	ENDS
;	COMDAT ?value@?$result_@V?$basic_string@DU?$char_traits@D@std@@V?$allocator@D@2@@std@@@?$is_mem_fun_pointer_select@$0A@@detail@boost@@2_NB
CONST	SEGMENT
?value@?$result_@V?$basic_string@DU?$char_traits@D@std@@V?$allocator@D@2@@std@@@?$is_mem_fun_pointer_select@$0A@@detail@boost@@2_NB DB 00H ; boost::detail::is_mem_fun_pointer_select<0>::result_<std::basic_string<char,std::char_traits<char>,std::allocator<char> > >::value
CONST	ENDS
;	COMDAT ?value@?$is_pointer_helper@V?$basic_string@DU?$char_traits@D@std@@V?$allocator@D@2@@std@@@detail@boost@@2_NB
CONST	SEGMENT
?value@?$is_pointer_helper@V?$basic_string@DU?$char_traits@D@std@@V?$allocator@D@2@@std@@@detail@boost@@2_NB DB 00H ; boost::detail::is_pointer_helper<std::basic_string<char,std::char_traits<char>,std::allocator<char> > >::value
CONST	ENDS
;	COMDAT ?value@?$implementation_level@H@serialization@boost@@2HB
CONST	SEGMENT
?value@?$implementation_level@H@serialization@boost@@2HB DD 01H ; boost::serialization::implementation_level<int>::value
CONST	ENDS
;	COMDAT ?value@?$is_arithmetic_impl@H@detail@boost@@2_NB
CONST	SEGMENT
?value@?$is_arithmetic_impl@H@detail@boost@@2_NB DB 01H	; boost::detail::is_arithmetic_impl<int>::value
CONST	ENDS
;	COMDAT ?value@?$is_base_and_derived_impl@Ubasic_traits@serialization@boost@@H@detail@boost@@2_NB
CONST	SEGMENT
?value@?$is_base_and_derived_impl@Ubasic_traits@serialization@boost@@H@detail@boost@@2_NB DB 00H ; boost::detail::is_base_and_derived_impl<boost::serialization::basic_traits,int>::value
CONST	ENDS
;	COMDAT ?value@?$is_pointer_impl@H@detail@boost@@2_NB
CONST	SEGMENT
?value@?$is_pointer_impl@H@detail@boost@@2_NB DB 00H	; boost::detail::is_pointer_impl<int>::value
CONST	ENDS
;	COMDAT ?value@?$result_@H@?$is_mem_fun_pointer_select@$0A@@detail@boost@@2_NB
CONST	SEGMENT
?value@?$result_@H@?$is_mem_fun_pointer_select@$0A@@detail@boost@@2_NB DB 00H ; boost::detail::is_mem_fun_pointer_select<0>::result_<int>::value
CONST	ENDS
;	COMDAT ?value@?$is_pointer_helper@H@detail@boost@@2_NB
CONST	SEGMENT
?value@?$is_pointer_helper@H@detail@boost@@2_NB DB 00H	; boost::detail::is_pointer_helper<int>::value
CONST	ENDS
;	COMDAT ?value@?$implementation_level@I@serialization@boost@@2HB
CONST	SEGMENT
?value@?$implementation_level@I@serialization@boost@@2HB DD 01H ; boost::serialization::implementation_level<unsigned int>::value
CONST	ENDS
;	COMDAT ?value@?$is_arithmetic_impl@I@detail@boost@@2_NB
CONST	SEGMENT
?value@?$is_arithmetic_impl@I@detail@boost@@2_NB DB 01H	; boost::detail::is_arithmetic_impl<unsigned int>::value
CONST	ENDS
;	COMDAT ?value@?$is_base_and_derived_impl@Ubasic_traits@serialization@boost@@I@detail@boost@@2_NB
CONST	SEGMENT
?value@?$is_base_and_derived_impl@Ubasic_traits@serialization@boost@@I@detail@boost@@2_NB DB 00H ; boost::detail::is_base_and_derived_impl<boost::serialization::basic_traits,unsigned int>::value
CONST	ENDS
;	COMDAT ?value@?$is_pointer_impl@I@detail@boost@@2_NB
CONST	SEGMENT
?value@?$is_pointer_impl@I@detail@boost@@2_NB DB 00H	; boost::detail::is_pointer_impl<unsigned int>::value
CONST	ENDS
;	COMDAT ?value@?$result_@I@?$is_mem_fun_pointer_select@$0A@@detail@boost@@2_NB
CONST	SEGMENT
?value@?$result_@I@?$is_mem_fun_pointer_select@$0A@@detail@boost@@2_NB DB 00H ; boost::detail::is_mem_fun_pointer_select<0>::result_<unsigned int>::value
CONST	ENDS
;	COMDAT ?value@?$is_pointer_helper@I@detail@boost@@2_NB
CONST	SEGMENT
?value@?$is_pointer_helper@I@detail@boost@@2_NB DB 00H	; boost::detail::is_pointer_helper<unsigned int>::value
CONST	ENDS
;	COMDAT ?is_volatile@?$cv_traits_imp@PAI@detail@boost@@2_NB
CONST	SEGMENT
?is_volatile@?$cv_traits_imp@PAI@detail@boost@@2_NB DB 00H ; boost::detail::cv_traits_imp<unsigned int *>::is_volatile
CONST	ENDS
;	COMDAT ?is_const@?$cv_traits_imp@PAI@detail@boost@@2_NB
CONST	SEGMENT
?is_const@?$cv_traits_imp@PAI@detail@boost@@2_NB DB 00H	; boost::detail::cv_traits_imp<unsigned int *>::is_const
CONST	ENDS
;	COMDAT ?value@?$is_pointer_impl@Uclass_id_type@archive@boost@@@detail@boost@@2_NB
CONST	SEGMENT
?value@?$is_pointer_impl@Uclass_id_type@archive@boost@@@detail@boost@@2_NB DB 00H ; boost::detail::is_pointer_impl<boost::archive::class_id_type>::value
CONST	ENDS
;	COMDAT ?value@?$result_@Uclass_id_type@archive@boost@@@?$is_mem_fun_pointer_select@$0A@@detail@boost@@2_NB
CONST	SEGMENT
?value@?$result_@Uclass_id_type@archive@boost@@@?$is_mem_fun_pointer_select@$0A@@detail@boost@@2_NB DB 00H ; boost::detail::is_mem_fun_pointer_select<0>::result_<boost::archive::class_id_type>::value
CONST	ENDS
;	COMDAT ?value@?$is_pointer_helper@Uclass_id_type@archive@boost@@@detail@boost@@2_NB
CONST	SEGMENT
?value@?$is_pointer_helper@Uclass_id_type@archive@boost@@@detail@boost@@2_NB DB 00H ; boost::detail::is_pointer_helper<boost::archive::class_id_type>::value
CONST	ENDS
;	COMDAT ?is_volatile@?$cv_traits_imp@PAUclass_id_type@archive@boost@@@detail@boost@@2_NB
CONST	SEGMENT
?is_volatile@?$cv_traits_imp@PAUclass_id_type@archive@boost@@@detail@boost@@2_NB DB 00H ; boost::detail::cv_traits_imp<boost::archive::class_id_type *>::is_volatile
CONST	ENDS
;	COMDAT ?is_const@?$cv_traits_imp@PAUclass_id_type@archive@boost@@@detail@boost@@2_NB
CONST	SEGMENT
?is_const@?$cv_traits_imp@PAUclass_id_type@archive@boost@@@detail@boost@@2_NB DB 00H ; boost::detail::cv_traits_imp<boost::archive::class_id_type *>::is_const
CONST	ENDS
;	COMDAT ?value@?$is_pointer_impl@Uobject_id_type@archive@boost@@@detail@boost@@2_NB
CONST	SEGMENT
?value@?$is_pointer_impl@Uobject_id_type@archive@boost@@@detail@boost@@2_NB DB 00H ; boost::detail::is_pointer_impl<boost::archive::object_id_type>::value
CONST	ENDS
;	COMDAT ?value@?$result_@Uobject_id_type@archive@boost@@@?$is_mem_fun_pointer_select@$0A@@detail@boost@@2_NB
CONST	SEGMENT
?value@?$result_@Uobject_id_type@archive@boost@@@?$is_mem_fun_pointer_select@$0A@@detail@boost@@2_NB DB 00H ; boost::detail::is_mem_fun_pointer_select<0>::result_<boost::archive::object_id_type>::value
CONST	ENDS
;	COMDAT ?value@?$is_pointer_helper@Uobject_id_type@archive@boost@@@detail@boost@@2_NB
CONST	SEGMENT
?value@?$is_pointer_helper@Uobject_id_type@archive@boost@@@detail@boost@@2_NB DB 00H ; boost::detail::is_pointer_helper<boost::archive::object_id_type>::value
CONST	ENDS
;	COMDAT ?is_volatile@?$cv_traits_imp@PAUobject_id_type@archive@boost@@@detail@boost@@2_NB
CONST	SEGMENT
?is_volatile@?$cv_traits_imp@PAUobject_id_type@archive@boost@@@detail@boost@@2_NB DB 00H ; boost::detail::cv_traits_imp<boost::archive::object_id_type *>::is_volatile
CONST	ENDS
;	COMDAT ?is_const@?$cv_traits_imp@PAUobject_id_type@archive@boost@@@detail@boost@@2_NB
CONST	SEGMENT
?is_const@?$cv_traits_imp@PAUobject_id_type@archive@boost@@@detail@boost@@2_NB DB 00H ; boost::detail::cv_traits_imp<boost::archive::object_id_type *>::is_const
CONST	ENDS
;	COMDAT ?value@?$is_pointer_impl@Uversion_type@archive@boost@@@detail@boost@@2_NB
CONST	SEGMENT
?value@?$is_pointer_impl@Uversion_type@archive@boost@@@detail@boost@@2_NB DB 00H ; boost::detail::is_pointer_impl<boost::archive::version_type>::value
CONST	ENDS
;	COMDAT ?value@?$result_@Uversion_type@archive@boost@@@?$is_mem_fun_pointer_select@$0A@@detail@boost@@2_NB
CONST	SEGMENT
?value@?$result_@Uversion_type@archive@boost@@@?$is_mem_fun_pointer_select@$0A@@detail@boost@@2_NB DB 00H ; boost::detail::is_mem_fun_pointer_select<0>::result_<boost::archive::version_type>::value
CONST	ENDS
;	COMDAT ?value@?$is_pointer_helper@Uversion_type@archive@boost@@@detail@boost@@2_NB
CONST	SEGMENT
?value@?$is_pointer_helper@Uversion_type@archive@boost@@@detail@boost@@2_NB DB 00H ; boost::detail::is_pointer_helper<boost::archive::version_type>::value
CONST	ENDS
;	COMDAT ?is_volatile@?$cv_traits_imp@PAUversion_type@archive@boost@@@detail@boost@@2_NB
CONST	SEGMENT
?is_volatile@?$cv_traits_imp@PAUversion_type@archive@boost@@@detail@boost@@2_NB DB 00H ; boost::detail::cv_traits_imp<boost::archive::version_type *>::is_volatile
CONST	ENDS
;	COMDAT ?is_const@?$cv_traits_imp@PAUversion_type@archive@boost@@@detail@boost@@2_NB
CONST	SEGMENT
?is_const@?$cv_traits_imp@PAUversion_type@archive@boost@@@detail@boost@@2_NB DB 00H ; boost::detail::cv_traits_imp<boost::archive::version_type *>::is_const
CONST	ENDS
;	COMDAT ?value@?$is_pointer_impl@Utracking_type@archive@boost@@@detail@boost@@2_NB
CONST	SEGMENT
?value@?$is_pointer_impl@Utracking_type@archive@boost@@@detail@boost@@2_NB DB 00H ; boost::detail::is_pointer_impl<boost::archive::tracking_type>::value
CONST	ENDS
;	COMDAT ?value@?$result_@Utracking_type@archive@boost@@@?$is_mem_fun_pointer_select@$0A@@detail@boost@@2_NB
CONST	SEGMENT
?value@?$result_@Utracking_type@archive@boost@@@?$is_mem_fun_pointer_select@$0A@@detail@boost@@2_NB DB 00H ; boost::detail::is_mem_fun_pointer_select<0>::result_<boost::archive::tracking_type>::value
CONST	ENDS
;	COMDAT ?value@?$is_pointer_helper@Utracking_type@archive@boost@@@detail@boost@@2_NB
CONST	SEGMENT
?value@?$is_pointer_helper@Utracking_type@archive@boost@@@detail@boost@@2_NB DB 00H ; boost::detail::is_pointer_helper<boost::archive::tracking_type>::value
CONST	ENDS
;	COMDAT ?is_volatile@?$cv_traits_imp@PAUtracking_type@archive@boost@@@detail@boost@@2_NB
CONST	SEGMENT
?is_volatile@?$cv_traits_imp@PAUtracking_type@archive@boost@@@detail@boost@@2_NB DB 00H ; boost::detail::cv_traits_imp<boost::archive::tracking_type *>::is_volatile
CONST	ENDS
;	COMDAT ?is_const@?$cv_traits_imp@PAUtracking_type@archive@boost@@@detail@boost@@2_NB
CONST	SEGMENT
?is_const@?$cv_traits_imp@PAUtracking_type@archive@boost@@@detail@boost@@2_NB DB 00H ; boost::detail::cv_traits_imp<boost::archive::tracking_type *>::is_const
CONST	ENDS
;	COMDAT ?is_volatile@?$cv_traits_imp@PBV?$iterator_range@V?$_String_iterator@DU?$char_traits@D@std@@V?$allocator@D@2@@std@@@boost@@@detail@boost@@2_NB
CONST	SEGMENT
?is_volatile@?$cv_traits_imp@PBV?$iterator_range@V?$_String_iterator@DU?$char_traits@D@std@@V?$allocator@D@2@@std@@@boost@@@detail@boost@@2_NB DB 00H ; boost::detail::cv_traits_imp<boost::iterator_range<std::_String_iterator<char,std::char_traits<char>,std::allocator<char> > > const *>::is_volatile
CONST	ENDS
;	COMDAT ?is_const@?$cv_traits_imp@PBV?$iterator_range@V?$_String_iterator@DU?$char_traits@D@std@@V?$allocator@D@2@@std@@@boost@@@detail@boost@@2_NB
CONST	SEGMENT
?is_const@?$cv_traits_imp@PBV?$iterator_range@V?$_String_iterator@DU?$char_traits@D@std@@V?$allocator@D@2@@std@@@boost@@@detail@boost@@2_NB DB 01H ; boost::detail::cv_traits_imp<boost::iterator_range<std::_String_iterator<char,std::char_traits<char>,std::allocator<char> > > const *>::is_const
CONST	ENDS
;	COMDAT ?value@?$is_abstract_imp@D@detail@boost@@2_NB
CONST	SEGMENT
?value@?$is_abstract_imp@D@detail@boost@@2_NB DB 00H	; boost::detail::is_abstract_imp<char>::value
CONST	ENDS
;	COMDAT ?is_volatile@?$cv_traits_imp@PAV?$basic_string@DU?$char_traits@D@std@@V?$allocator@D@2@@std@@@detail@boost@@2_NB
CONST	SEGMENT
?is_volatile@?$cv_traits_imp@PAV?$basic_string@DU?$char_traits@D@std@@V?$allocator@D@2@@std@@@detail@boost@@2_NB DB 00H ; boost::detail::cv_traits_imp<std::basic_string<char,std::char_traits<char>,std::allocator<char> > *>::is_volatile
CONST	ENDS
;	COMDAT ?is_const@?$cv_traits_imp@PAV?$basic_string@DU?$char_traits@D@std@@V?$allocator@D@2@@std@@@detail@boost@@2_NB
CONST	SEGMENT
?is_const@?$cv_traits_imp@PAV?$basic_string@DU?$char_traits@D@std@@V?$allocator@D@2@@std@@@detail@boost@@2_NB DB 00H ; boost::detail::cv_traits_imp<std::basic_string<char,std::char_traits<char>,std::allocator<char> > *>::is_const
CONST	ENDS
;	COMDAT ?is_volatile@?$cv_traits_imp@PBV?$basic_string@DU?$char_traits@D@std@@V?$allocator@D@2@@std@@@detail@boost@@2_NB
CONST	SEGMENT
?is_volatile@?$cv_traits_imp@PBV?$basic_string@DU?$char_traits@D@std@@V?$allocator@D@2@@std@@@detail@boost@@2_NB DB 00H ; boost::detail::cv_traits_imp<std::basic_string<char,std::char_traits<char>,std::allocator<char> > const *>::is_volatile
CONST	ENDS
;	COMDAT ?is_const@?$cv_traits_imp@PBV?$basic_string@DU?$char_traits@D@std@@V?$allocator@D@2@@std@@@detail@boost@@2_NB
CONST	SEGMENT
?is_const@?$cv_traits_imp@PBV?$basic_string@DU?$char_traits@D@std@@V?$allocator@D@2@@std@@@detail@boost@@2_NB DB 01H ; boost::detail::cv_traits_imp<std::basic_string<char,std::char_traits<char>,std::allocator<char> > const *>::is_const
CONST	ENDS
;	COMDAT ?value@?$is_convertible_impl@Uoutput@iostreams@boost@@Uinput@23@@detail@boost@@2_NB
CONST	SEGMENT
?value@?$is_convertible_impl@Uoutput@iostreams@boost@@Uinput@23@@detail@boost@@2_NB DB 00H ; boost::detail::is_convertible_impl<boost::iostreams::output,boost::iostreams::input>::value
CONST	ENDS
;	COMDAT ?value@?$is_convertible_basic_impl@AAUoutput@iostreams@boost@@Uinput@23@@detail@boost@@2_NB
CONST	SEGMENT
?value@?$is_convertible_basic_impl@AAUoutput@iostreams@boost@@Uinput@23@@detail@boost@@2_NB DB 00H ; boost::detail::is_convertible_basic_impl<boost::iostreams::output &,boost::iostreams::input>::value
CONST	ENDS
;	COMDAT ?value@?$int_@$0A@@mpl@boost@@2HB
CONST	SEGMENT
?value@?$int_@$0A@@mpl@boost@@2HB DD 00H		; boost::mpl::int_<0>::value
CONST	ENDS
;	COMDAT ?value@?$implementation_level@V?$basic_string@_WU?$char_traits@_W@std@@V?$allocator@_W@2@@std@@@serialization@boost@@2HB
CONST	SEGMENT
?value@?$implementation_level@V?$basic_string@_WU?$char_traits@_W@std@@V?$allocator@_W@2@@std@@@serialization@boost@@2HB DD 01H ; boost::serialization::implementation_level<std::basic_string<wchar_t,std::char_traits<wchar_t>,std::allocator<wchar_t> > >::value
CONST	ENDS
;	COMDAT ?value@?$implementation_level@V?$basic_string@DU?$char_traits@D@std@@V?$allocator@D@2@@std@@@serialization@boost@@2HB
CONST	SEGMENT
?value@?$implementation_level@V?$basic_string@DU?$char_traits@D@std@@V?$allocator@D@2@@std@@@serialization@boost@@2HB DD 01H ; boost::serialization::implementation_level<std::basic_string<char,std::char_traits<char>,std::allocator<char> > >::value
CONST	ENDS
;	COMDAT ?value@?$implementation_level@Utracking_type@archive@boost@@@serialization@boost@@2HB
CONST	SEGMENT
?value@?$implementation_level@Utracking_type@archive@boost@@@serialization@boost@@2HB DD 01H ; boost::serialization::implementation_level<boost::archive::tracking_type>::value
CONST	ENDS
;	COMDAT ?value@?$implementation_level@Uobject_reference_type@archive@boost@@@serialization@boost@@2HB
CONST	SEGMENT
?value@?$implementation_level@Uobject_reference_type@archive@boost@@@serialization@boost@@2HB DD 01H ; boost::serialization::implementation_level<boost::archive::object_reference_type>::value
CONST	ENDS
;	COMDAT ?value@?$implementation_level@Uobject_id_type@archive@boost@@@serialization@boost@@2HB
CONST	SEGMENT
?value@?$implementation_level@Uobject_id_type@archive@boost@@@serialization@boost@@2HB DD 01H ; boost::serialization::implementation_level<boost::archive::object_id_type>::value
CONST	ENDS
;	COMDAT ?value@?$implementation_level@Uclass_name_type@archive@boost@@@serialization@boost@@2HB
CONST	SEGMENT
?value@?$implementation_level@Uclass_name_type@archive@boost@@@serialization@boost@@2HB DD 01H ; boost::serialization::implementation_level<boost::archive::class_name_type>::value
CONST	ENDS
;	COMDAT ?value@?$implementation_level@Uclass_id_optional_type@archive@boost@@@serialization@boost@@2HB
CONST	SEGMENT
?value@?$implementation_level@Uclass_id_optional_type@archive@boost@@@serialization@boost@@2HB DD 01H ; boost::serialization::implementation_level<boost::archive::class_id_optional_type>::value
CONST	ENDS
;	COMDAT ?value@?$implementation_level@Uclass_id_reference_type@archive@boost@@@serialization@boost@@2HB
CONST	SEGMENT
?value@?$implementation_level@Uclass_id_reference_type@archive@boost@@@serialization@boost@@2HB DD 01H ; boost::serialization::implementation_level<boost::archive::class_id_reference_type>::value
CONST	ENDS
;	COMDAT ?value@?$implementation_level@Uclass_id_type@archive@boost@@@serialization@boost@@2HB
CONST	SEGMENT
?value@?$implementation_level@Uclass_id_type@archive@boost@@@serialization@boost@@2HB DD 01H ; boost::serialization::implementation_level<boost::archive::class_id_type>::value
CONST	ENDS
;	COMDAT ?value@?$implementation_level@Uversion_type@archive@boost@@@serialization@boost@@2HB
CONST	SEGMENT
?value@?$implementation_level@Uversion_type@archive@boost@@@serialization@boost@@2HB DD 01H ; boost::serialization::implementation_level<boost::archive::version_type>::value
CONST	ENDS
;	COMDAT ?value@?$implementation_level@V?$list@_WV?$allocator@_W@std@@@std@@@serialization@boost@@2HB
CONST	SEGMENT
?value@?$implementation_level@V?$list@_WV?$allocator@_W@std@@@std@@@serialization@boost@@2HB DD 02H ; boost::serialization::implementation_level<std::list<wchar_t,std::allocator<wchar_t> > >::value
CONST	ENDS
;	COMDAT ?value@?$implementation_level@V?$list@_KV?$allocator@_K@std@@@std@@@serialization@boost@@2HB
CONST	SEGMENT
?value@?$implementation_level@V?$list@_KV?$allocator@_K@std@@@std@@@serialization@boost@@2HB DD 02H ; boost::serialization::implementation_level<std::list<unsigned __int64,std::allocator<unsigned __int64> > >::value
CONST	ENDS
;	COMDAT ?value@?$implementation_level@V?$list@_JV?$allocator@_J@std@@@std@@@serialization@boost@@2HB
CONST	SEGMENT
?value@?$implementation_level@V?$list@_JV?$allocator@_J@std@@@std@@@serialization@boost@@2HB DD 02H ; boost::serialization::implementation_level<std::list<__int64,std::allocator<__int64> > >::value
CONST	ENDS
;	COMDAT ?value@?$implementation_level@V?$list@FV?$allocator@F@std@@@std@@@serialization@boost@@2HB
CONST	SEGMENT
?value@?$implementation_level@V?$list@FV?$allocator@F@std@@@std@@@serialization@boost@@2HB DD 02H ; boost::serialization::implementation_level<std::list<short,std::allocator<short> > >::value
CONST	ENDS
;	COMDAT ?value@?$implementation_level@V?$list@GV?$allocator@G@std@@@std@@@serialization@boost@@2HB
CONST	SEGMENT
?value@?$implementation_level@V?$list@GV?$allocator@G@std@@@std@@@serialization@boost@@2HB DD 02H ; boost::serialization::implementation_level<std::list<unsigned short,std::allocator<unsigned short> > >::value
CONST	ENDS
;	COMDAT ?value@?$implementation_level@V?$list@NV?$allocator@N@std@@@std@@@serialization@boost@@2HB
CONST	SEGMENT
?value@?$implementation_level@V?$list@NV?$allocator@N@std@@@std@@@serialization@boost@@2HB DD 02H ; boost::serialization::implementation_level<std::list<double,std::allocator<double> > >::value
CONST	ENDS
;	COMDAT ?value@?$implementation_level@V?$list@MV?$allocator@M@std@@@std@@@serialization@boost@@2HB
CONST	SEGMENT
?value@?$implementation_level@V?$list@MV?$allocator@M@std@@@std@@@serialization@boost@@2HB DD 02H ; boost::serialization::implementation_level<std::list<float,std::allocator<float> > >::value
CONST	ENDS
;	COMDAT ?value@?$implementation_level@V?$list@KV?$allocator@K@std@@@std@@@serialization@boost@@2HB
CONST	SEGMENT
?value@?$implementation_level@V?$list@KV?$allocator@K@std@@@std@@@serialization@boost@@2HB DD 02H ; boost::serialization::implementation_level<std::list<unsigned long,std::allocator<unsigned long> > >::value
CONST	ENDS
;	COMDAT ?value@?$implementation_level@V?$list@JV?$allocator@J@std@@@std@@@serialization@boost@@2HB
CONST	SEGMENT
?value@?$implementation_level@V?$list@JV?$allocator@J@std@@@std@@@serialization@boost@@2HB DD 02H ; boost::serialization::implementation_level<std::list<long,std::allocator<long> > >::value
CONST	ENDS
;	COMDAT ?value@?$implementation_level@V?$list@IV?$allocator@I@std@@@std@@@serialization@boost@@2HB
CONST	SEGMENT
?value@?$implementation_level@V?$list@IV?$allocator@I@std@@@std@@@serialization@boost@@2HB DD 02H ; boost::serialization::implementation_level<std::list<unsigned int,std::allocator<unsigned int> > >::value
CONST	ENDS
;	COMDAT ?value@?$implementation_level@V?$list@HV?$allocator@H@std@@@std@@@serialization@boost@@2HB
CONST	SEGMENT
?value@?$implementation_level@V?$list@HV?$allocator@H@std@@@std@@@serialization@boost@@2HB DD 02H ; boost::serialization::implementation_level<std::list<int,std::allocator<int> > >::value
CONST	ENDS
;	COMDAT ?value@?$implementation_level@V?$list@EV?$allocator@E@std@@@std@@@serialization@boost@@2HB
CONST	SEGMENT
?value@?$implementation_level@V?$list@EV?$allocator@E@std@@@std@@@serialization@boost@@2HB DD 02H ; boost::serialization::implementation_level<std::list<unsigned char,std::allocator<unsigned char> > >::value
CONST	ENDS
;	COMDAT ?value@?$implementation_level@V?$list@CV?$allocator@C@std@@@std@@@serialization@boost@@2HB
CONST	SEGMENT
?value@?$implementation_level@V?$list@CV?$allocator@C@std@@@std@@@serialization@boost@@2HB DD 02H ; boost::serialization::implementation_level<std::list<signed char,std::allocator<signed char> > >::value
CONST	ENDS
;	COMDAT ?value@?$implementation_level@V?$list@DV?$allocator@D@std@@@std@@@serialization@boost@@2HB
CONST	SEGMENT
?value@?$implementation_level@V?$list@DV?$allocator@D@std@@@std@@@serialization@boost@@2HB DD 02H ; boost::serialization::implementation_level<std::list<char,std::allocator<char> > >::value
CONST	ENDS
;	COMDAT ?value@?$implementation_level@V?$list@_NV?$allocator@_N@std@@@std@@@serialization@boost@@2HB
CONST	SEGMENT
?value@?$implementation_level@V?$list@_NV?$allocator@_N@std@@@std@@@serialization@boost@@2HB DD 02H ; boost::serialization::implementation_level<std::list<bool,std::allocator<bool> > >::value
CONST	ENDS
;	COMDAT ?has_fixed_range@?$backward_compatible_uniform_01@V?$pass_through_engine@V?$mersenne_twister@K$0CA@$0CHA@$0BIN@$0BP@$0JJAILANP@$0L@$06$0JNCMFGIA@$0P@$0OPMGAAAA@$0BC@$0MHHGGGNO@@random@boost@@@detail@random@boost@@N@detail@boost@@2_NB
CONST	SEGMENT
?has_fixed_range@?$backward_compatible_uniform_01@V?$pass_through_engine@V?$mersenne_twister@K$0CA@$0CHA@$0BIN@$0BP@$0JJAILANP@$0L@$06$0JNCMFGIA@$0P@$0OPMGAAAA@$0BC@$0MHHGGGNO@@random@boost@@@detail@random@boost@@N@detail@boost@@2_NB DB 00H ; boost::detail::backward_compatible_uniform_01<boost::random::detail::pass_through_engine<boost::random::mersenne_twister<unsigned long,32,624,397,31,2567483615,11,7,2636928640,15,4022730752,18,3346425566> >,double>::has_fixed_range
CONST	ENDS
;	COMDAT ?has_fixed_range@?$backward_compatible_uniform_01@V?$pass_through_engine@AAV?$mersenne_twister@K$0CA@$0CHA@$0BIN@$0BP@$0JJAILANP@$0L@$06$0JNCMFGIA@$0P@$0OPMGAAAA@$0BC@$0MHHGGGNO@@random@boost@@@detail@random@boost@@N@detail@boost@@2_NB
CONST	SEGMENT
?has_fixed_range@?$backward_compatible_uniform_01@V?$pass_through_engine@AAV?$mersenne_twister@K$0CA@$0CHA@$0BIN@$0BP@$0JJAILANP@$0L@$06$0JNCMFGIA@$0P@$0OPMGAAAA@$0BC@$0MHHGGGNO@@random@boost@@@detail@random@boost@@N@detail@boost@@2_NB DB 00H ; boost::detail::backward_compatible_uniform_01<boost::random::detail::pass_through_engine<boost::random::mersenne_twister<unsigned long,32,624,397,31,2567483615,11,7,2636928640,15,4022730752,18,3346425566> &>,double>::has_fixed_range
CONST	ENDS
;	COMDAT ?value@?$is_unsigned_imp@H@detail@boost@@2_NB
CONST	SEGMENT
?value@?$is_unsigned_imp@H@detail@boost@@2_NB DB 00H	; boost::detail::is_unsigned_imp<int>::value
CONST	ENDS
;	COMDAT ?value@?$is_ununsigned_helper@H@detail@boost@@2_NB
CONST	SEGMENT
?value@?$is_ununsigned_helper@H@detail@boost@@2_NB DB 00H ; boost::detail::is_ununsigned_helper<int>::value
CONST	ENDS
;	COMDAT ?is_volatile@?$cv_traits_imp@PAH@detail@boost@@2_NB
CONST	SEGMENT
?is_volatile@?$cv_traits_imp@PAH@detail@boost@@2_NB DB 00H ; boost::detail::cv_traits_imp<int *>::is_volatile
CONST	ENDS
;	COMDAT ?is_const@?$cv_traits_imp@PAH@detail@boost@@2_NB
CONST	SEGMENT
?is_const@?$cv_traits_imp@PAH@detail@boost@@2_NB DB 00H	; boost::detail::cv_traits_imp<int *>::is_const
CONST	ENDS
;	COMDAT ?has_fixed_range@?$mersenne_twister@K$0CA@$0CHA@$0BIN@$0BP@$0JJAILANP@$0L@$06$0JNCMFGIA@$0P@$0OPMGAAAA@$0BC@$0MHHGGGNO@@random@boost@@2_NB
CONST	SEGMENT
?has_fixed_range@?$mersenne_twister@K$0CA@$0CHA@$0BIN@$0BP@$0JJAILANP@$0L@$06$0JNCMFGIA@$0P@$0OPMGAAAA@$0BC@$0MHHGGGNO@@random@boost@@2_NB DB 00H ; boost::random::mersenne_twister<unsigned long,32,624,397,31,2567483615,11,7,2636928640,15,4022730752,18,3346425566>::has_fixed_range
CONST	ENDS
;	COMDAT ?output_l@?$mersenne_twister@K$0CA@$0CHA@$0BIN@$0BP@$0JJAILANP@$0L@$06$0JNCMFGIA@$0P@$0OPMGAAAA@$0BC@$0MHHGGGNO@@random@boost@@2HB
CONST	SEGMENT
?output_l@?$mersenne_twister@K$0CA@$0CHA@$0BIN@$0BP@$0JJAILANP@$0L@$06$0JNCMFGIA@$0P@$0OPMGAAAA@$0BC@$0MHHGGGNO@@random@boost@@2HB DD 012H ; boost::random::mersenne_twister<unsigned long,32,624,397,31,2567483615,11,7,2636928640,15,4022730752,18,3346425566>::output_l
CONST	ENDS
;	COMDAT ?output_c@?$mersenne_twister@K$0CA@$0CHA@$0BIN@$0BP@$0JJAILANP@$0L@$06$0JNCMFGIA@$0P@$0OPMGAAAA@$0BC@$0MHHGGGNO@@random@boost@@2KB
CONST	SEGMENT
?output_c@?$mersenne_twister@K$0CA@$0CHA@$0BIN@$0BP@$0JJAILANP@$0L@$06$0JNCMFGIA@$0P@$0OPMGAAAA@$0BC@$0MHHGGGNO@@random@boost@@2KB DD 0efc60000H ; boost::random::mersenne_twister<unsigned long,32,624,397,31,2567483615,11,7,2636928640,15,4022730752,18,3346425566>::output_c
CONST	ENDS
;	COMDAT ?output_t@?$mersenne_twister@K$0CA@$0CHA@$0BIN@$0BP@$0JJAILANP@$0L@$06$0JNCMFGIA@$0P@$0OPMGAAAA@$0BC@$0MHHGGGNO@@random@boost@@2HB
CONST	SEGMENT
?output_t@?$mersenne_twister@K$0CA@$0CHA@$0BIN@$0BP@$0JJAILANP@$0L@$06$0JNCMFGIA@$0P@$0OPMGAAAA@$0BC@$0MHHGGGNO@@random@boost@@2HB DD 0fH ; boost::random::mersenne_twister<unsigned long,32,624,397,31,2567483615,11,7,2636928640,15,4022730752,18,3346425566>::output_t
CONST	ENDS
;	COMDAT ?output_b@?$mersenne_twister@K$0CA@$0CHA@$0BIN@$0BP@$0JJAILANP@$0L@$06$0JNCMFGIA@$0P@$0OPMGAAAA@$0BC@$0MHHGGGNO@@random@boost@@2KB
CONST	SEGMENT
?output_b@?$mersenne_twister@K$0CA@$0CHA@$0BIN@$0BP@$0JJAILANP@$0L@$06$0JNCMFGIA@$0P@$0OPMGAAAA@$0BC@$0MHHGGGNO@@random@boost@@2KB DD 09d2c5680H ; boost::random::mersenne_twister<unsigned long,32,624,397,31,2567483615,11,7,2636928640,15,4022730752,18,3346425566>::output_b
CONST	ENDS
;	COMDAT ?output_s@?$mersenne_twister@K$0CA@$0CHA@$0BIN@$0BP@$0JJAILANP@$0L@$06$0JNCMFGIA@$0P@$0OPMGAAAA@$0BC@$0MHHGGGNO@@random@boost@@2HB
CONST	SEGMENT
?output_s@?$mersenne_twister@K$0CA@$0CHA@$0BIN@$0BP@$0JJAILANP@$0L@$06$0JNCMFGIA@$0P@$0OPMGAAAA@$0BC@$0MHHGGGNO@@random@boost@@2HB DD 07H ; boost::random::mersenne_twister<unsigned long,32,624,397,31,2567483615,11,7,2636928640,15,4022730752,18,3346425566>::output_s
CONST	ENDS
;	COMDAT ?output_u@?$mersenne_twister@K$0CA@$0CHA@$0BIN@$0BP@$0JJAILANP@$0L@$06$0JNCMFGIA@$0P@$0OPMGAAAA@$0BC@$0MHHGGGNO@@random@boost@@2HB
CONST	SEGMENT
?output_u@?$mersenne_twister@K$0CA@$0CHA@$0BIN@$0BP@$0JJAILANP@$0L@$06$0JNCMFGIA@$0P@$0OPMGAAAA@$0BC@$0MHHGGGNO@@random@boost@@2HB DD 0bH ; boost::random::mersenne_twister<unsigned long,32,624,397,31,2567483615,11,7,2636928640,15,4022730752,18,3346425566>::output_u
CONST	ENDS
;	COMDAT ?parameter_a@?$mersenne_twister@K$0CA@$0CHA@$0BIN@$0BP@$0JJAILANP@$0L@$06$0JNCMFGIA@$0P@$0OPMGAAAA@$0BC@$0MHHGGGNO@@random@boost@@2KB
CONST	SEGMENT
?parameter_a@?$mersenne_twister@K$0CA@$0CHA@$0BIN@$0BP@$0JJAILANP@$0L@$06$0JNCMFGIA@$0P@$0OPMGAAAA@$0BC@$0MHHGGGNO@@random@boost@@2KB DD 09908b0dfH ; boost::random::mersenne_twister<unsigned long,32,624,397,31,2567483615,11,7,2636928640,15,4022730752,18,3346425566>::parameter_a
CONST	ENDS
;	COMDAT ?mask_bits@?$mersenne_twister@K$0CA@$0CHA@$0BIN@$0BP@$0JJAILANP@$0L@$06$0JNCMFGIA@$0P@$0OPMGAAAA@$0BC@$0MHHGGGNO@@random@boost@@2HB
CONST	SEGMENT
?mask_bits@?$mersenne_twister@K$0CA@$0CHA@$0BIN@$0BP@$0JJAILANP@$0L@$06$0JNCMFGIA@$0P@$0OPMGAAAA@$0BC@$0MHHGGGNO@@random@boost@@2HB DD 01fH ; boost::random::mersenne_twister<unsigned long,32,624,397,31,2567483615,11,7,2636928640,15,4022730752,18,3346425566>::mask_bits
CONST	ENDS
;	COMDAT ?shift_size@?$mersenne_twister@K$0CA@$0CHA@$0BIN@$0BP@$0JJAILANP@$0L@$06$0JNCMFGIA@$0P@$0OPMGAAAA@$0BC@$0MHHGGGNO@@random@boost@@2HB
CONST	SEGMENT
?shift_size@?$mersenne_twister@K$0CA@$0CHA@$0BIN@$0BP@$0JJAILANP@$0L@$06$0JNCMFGIA@$0P@$0OPMGAAAA@$0BC@$0MHHGGGNO@@random@boost@@2HB DD 018dH ; boost::random::mersenne_twister<unsigned long,32,624,397,31,2567483615,11,7,2636928640,15,4022730752,18,3346425566>::shift_size
CONST	ENDS
;	COMDAT ?state_size@?$mersenne_twister@K$0CA@$0CHA@$0BIN@$0BP@$0JJAILANP@$0L@$06$0JNCMFGIA@$0P@$0OPMGAAAA@$0BC@$0MHHGGGNO@@random@boost@@2HB
CONST	SEGMENT
?state_size@?$mersenne_twister@K$0CA@$0CHA@$0BIN@$0BP@$0JJAILANP@$0L@$06$0JNCMFGIA@$0P@$0OPMGAAAA@$0BC@$0MHHGGGNO@@random@boost@@2HB DD 0270H ; boost::random::mersenne_twister<unsigned long,32,624,397,31,2567483615,11,7,2636928640,15,4022730752,18,3346425566>::state_size
CONST	ENDS
;	COMDAT ?word_size@?$mersenne_twister@K$0CA@$0CHA@$0BIN@$0BP@$0JJAILANP@$0L@$06$0JNCMFGIA@$0P@$0OPMGAAAA@$0BC@$0MHHGGGNO@@random@boost@@2HB
CONST	SEGMENT
?word_size@?$mersenne_twister@K$0CA@$0CHA@$0BIN@$0BP@$0JJAILANP@$0L@$06$0JNCMFGIA@$0P@$0OPMGAAAA@$0BC@$0MHHGGGNO@@random@boost@@2HB DD 020H ; boost::random::mersenne_twister<unsigned long,32,624,397,31,2567483615,11,7,2636928640,15,4022730752,18,3346425566>::word_size
CONST	ENDS
;	COMDAT ?value@?$is_convertible_impl@Uinput@iostreams@boost@@Uoutput@23@@detail@boost@@2_NB
CONST	SEGMENT
?value@?$is_convertible_impl@Uinput@iostreams@boost@@Uoutput@23@@detail@boost@@2_NB DB 00H ; boost::detail::is_convertible_impl<boost::iostreams::input,boost::iostreams::output>::value
CONST	ENDS
;	COMDAT ?value@?$ice_and@$0A@$00$00$00$00$00$00@type_traits@boost@@2_NB
CONST	SEGMENT
?value@?$ice_and@$0A@$00$00$00$00$00$00@type_traits@boost@@2_NB DB 00H ; boost::type_traits::ice_and<0,1,1,1,1,1,1>::value
CONST	ENDS
;	COMDAT ?value@?$is_convertible_basic_impl@AAUinput@iostreams@boost@@Uoutput@23@@detail@boost@@2_NB
CONST	SEGMENT
?value@?$is_convertible_basic_impl@AAUinput@iostreams@boost@@Uoutput@23@@detail@boost@@2_NB DB 00H ; boost::detail::is_convertible_basic_impl<boost::iostreams::input &,boost::iostreams::output>::value
CONST	ENDS
;	COMDAT ?value@?$is_abstract_imp@Uoutput@iostreams@boost@@@detail@boost@@2_NB
CONST	SEGMENT
?value@?$is_abstract_imp@Uoutput@iostreams@boost@@@detail@boost@@2_NB DB 00H ; boost::detail::is_abstract_imp<boost::iostreams::output>::value
CONST	ENDS
;	COMDAT ?value@?$is_arithmetic_impl@Uoutput@iostreams@boost@@@detail@boost@@2_NB
CONST	SEGMENT
?value@?$is_arithmetic_impl@Uoutput@iostreams@boost@@@detail@boost@@2_NB DB 00H ; boost::detail::is_arithmetic_impl<boost::iostreams::output>::value
CONST	ENDS
;	COMDAT ?value@?$is_convertible_impl@Uinput@iostreams@boost@@U123@@detail@boost@@2_NB
CONST	SEGMENT
?value@?$is_convertible_impl@Uinput@iostreams@boost@@U123@@detail@boost@@2_NB DB 01H ; boost::detail::is_convertible_impl<boost::iostreams::input,boost::iostreams::input>::value
CONST	ENDS
;	COMDAT ?value@?$ice_not@$0A@@type_traits@boost@@2_NB
CONST	SEGMENT
?value@?$ice_not@$0A@@type_traits@boost@@2_NB DB 01H	; boost::type_traits::ice_not<0>::value
CONST	ENDS
;	COMDAT ?value@?$ice_or@$00$0A@$0A@$0A@$0A@$0A@$0A@@type_traits@boost@@2_NB
CONST	SEGMENT
?value@?$ice_or@$00$0A@$0A@$0A@$0A@$0A@$0A@@type_traits@boost@@2_NB DB 01H ; boost::type_traits::ice_or<1,0,0,0,0,0,0>::value
CONST	ENDS
;	COMDAT ?value@?$is_convertible_basic_impl@AAUinput@iostreams@boost@@U123@@detail@boost@@2_NB
CONST	SEGMENT
?value@?$is_convertible_basic_impl@AAUinput@iostreams@boost@@U123@@detail@boost@@2_NB DB 01H ; boost::detail::is_convertible_basic_impl<boost::iostreams::input &,boost::iostreams::input>::value
CONST	ENDS
;	COMDAT ?value@?$is_abstract_imp@Uinput@iostreams@boost@@@detail@boost@@2_NB
CONST	SEGMENT
?value@?$is_abstract_imp@Uinput@iostreams@boost@@@detail@boost@@2_NB DB 00H ; boost::detail::is_abstract_imp<boost::iostreams::input>::value
CONST	ENDS
;	COMDAT ?value@?$is_arithmetic_impl@Uinput@iostreams@boost@@@detail@boost@@2_NB
CONST	SEGMENT
?value@?$is_arithmetic_impl@Uinput@iostreams@boost@@@detail@boost@@2_NB DB 00H ; boost::detail::is_arithmetic_impl<boost::iostreams::input>::value
CONST	ENDS
;	COMDAT ?step_size@?$linear_feedback_shift@K$0CA@$0BN@$01$03$0A@@random@boost@@2HB
CONST	SEGMENT
?step_size@?$linear_feedback_shift@K$0CA@$0BN@$01$03$0A@@random@boost@@2HB DD 04H ; boost::random::linear_feedback_shift<unsigned long,32,29,2,4,0>::step_size
CONST	ENDS
;	COMDAT ?exponent2@?$linear_feedback_shift@K$0CA@$0BN@$01$03$0A@@random@boost@@2HB
CONST	SEGMENT
?exponent2@?$linear_feedback_shift@K$0CA@$0BN@$01$03$0A@@random@boost@@2HB DD 02H ; boost::random::linear_feedback_shift<unsigned long,32,29,2,4,0>::exponent2
CONST	ENDS
;	COMDAT ?exponent1@?$linear_feedback_shift@K$0CA@$0BN@$01$03$0A@@random@boost@@2HB
CONST	SEGMENT
?exponent1@?$linear_feedback_shift@K$0CA@$0BN@$01$03$0A@@random@boost@@2HB DD 01dH ; boost::random::linear_feedback_shift<unsigned long,32,29,2,4,0>::exponent1
CONST	ENDS
;	COMDAT ?word_size@?$linear_feedback_shift@K$0CA@$0BN@$01$03$0A@@random@boost@@2HB
CONST	SEGMENT
?word_size@?$linear_feedback_shift@K$0CA@$0BN@$01$03$0A@@random@boost@@2HB DD 020H ; boost::random::linear_feedback_shift<unsigned long,32,29,2,4,0>::word_size
CONST	ENDS
;	COMDAT ?has_fixed_range@?$linear_feedback_shift@K$0CA@$0BN@$01$03$0A@@random@boost@@2_NB
CONST	SEGMENT
?has_fixed_range@?$linear_feedback_shift@K$0CA@$0BN@$01$03$0A@@random@boost@@2_NB DB 00H ; boost::random::linear_feedback_shift<unsigned long,32,29,2,4,0>::has_fixed_range
CONST	ENDS
;	COMDAT ?shift2@?$xor_combine@V?$linear_feedback_shift@K$0CA@$0BP@$0N@$0M@$0A@@random@boost@@$0A@V?$linear_feedback_shift@K$0CA@$0BN@$01$03$0A@@23@$0A@$0A@@random@boost@@2HB
CONST	SEGMENT
?shift2@?$xor_combine@V?$linear_feedback_shift@K$0CA@$0BP@$0N@$0M@$0A@@random@boost@@$0A@V?$linear_feedback_shift@K$0CA@$0BN@$01$03$0A@@23@$0A@$0A@@random@boost@@2HB DD 00H ; boost::random::xor_combine<boost::random::linear_feedback_shift<unsigned long,32,31,13,12,0>,0,boost::random::linear_feedback_shift<unsigned long,32,29,2,4,0>,0,0>::shift2
CONST	ENDS
;	COMDAT ?shift1@?$xor_combine@V?$linear_feedback_shift@K$0CA@$0BP@$0N@$0M@$0A@@random@boost@@$0A@V?$linear_feedback_shift@K$0CA@$0BN@$01$03$0A@@23@$0A@$0A@@random@boost@@2HB
CONST	SEGMENT
?shift1@?$xor_combine@V?$linear_feedback_shift@K$0CA@$0BP@$0N@$0M@$0A@@random@boost@@$0A@V?$linear_feedback_shift@K$0CA@$0BN@$01$03$0A@@23@$0A@$0A@@random@boost@@2HB DD 00H ; boost::random::xor_combine<boost::random::linear_feedback_shift<unsigned long,32,31,13,12,0>,0,boost::random::linear_feedback_shift<unsigned long,32,29,2,4,0>,0,0>::shift1
CONST	ENDS
;	COMDAT ?has_fixed_range@?$xor_combine@V?$linear_feedback_shift@K$0CA@$0BP@$0N@$0M@$0A@@random@boost@@$0A@V?$linear_feedback_shift@K$0CA@$0BN@$01$03$0A@@23@$0A@$0A@@random@boost@@2_NB
CONST	SEGMENT
?has_fixed_range@?$xor_combine@V?$linear_feedback_shift@K$0CA@$0BP@$0N@$0M@$0A@@random@boost@@$0A@V?$linear_feedback_shift@K$0CA@$0BN@$01$03$0A@@23@$0A@$0A@@random@boost@@2_NB DB 00H ; boost::random::xor_combine<boost::random::linear_feedback_shift<unsigned long,32,31,13,12,0>,0,boost::random::linear_feedback_shift<unsigned long,32,29,2,4,0>,0,0>::has_fixed_range
CONST	ENDS
;	COMDAT ?step_size@?$linear_feedback_shift@K$0CA@$0BP@$0N@$0M@$0A@@random@boost@@2HB
CONST	SEGMENT
?step_size@?$linear_feedback_shift@K$0CA@$0BP@$0N@$0M@$0A@@random@boost@@2HB DD 0cH ; boost::random::linear_feedback_shift<unsigned long,32,31,13,12,0>::step_size
CONST	ENDS
;	COMDAT ?exponent2@?$linear_feedback_shift@K$0CA@$0BP@$0N@$0M@$0A@@random@boost@@2HB
CONST	SEGMENT
?exponent2@?$linear_feedback_shift@K$0CA@$0BP@$0N@$0M@$0A@@random@boost@@2HB DD 0dH ; boost::random::linear_feedback_shift<unsigned long,32,31,13,12,0>::exponent2
CONST	ENDS
;	COMDAT ?exponent1@?$linear_feedback_shift@K$0CA@$0BP@$0N@$0M@$0A@@random@boost@@2HB
CONST	SEGMENT
?exponent1@?$linear_feedback_shift@K$0CA@$0BP@$0N@$0M@$0A@@random@boost@@2HB DD 01fH ; boost::random::linear_feedback_shift<unsigned long,32,31,13,12,0>::exponent1
CONST	ENDS
;	COMDAT ?word_size@?$linear_feedback_shift@K$0CA@$0BP@$0N@$0M@$0A@@random@boost@@2HB
CONST	SEGMENT
?word_size@?$linear_feedback_shift@K$0CA@$0BP@$0N@$0M@$0A@@random@boost@@2HB DD 020H ; boost::random::linear_feedback_shift<unsigned long,32,31,13,12,0>::word_size
CONST	ENDS
;	COMDAT ?has_fixed_range@?$linear_feedback_shift@K$0CA@$0BP@$0N@$0M@$0A@@random@boost@@2_NB
CONST	SEGMENT
?has_fixed_range@?$linear_feedback_shift@K$0CA@$0BP@$0N@$0M@$0A@@random@boost@@2_NB DB 00H ; boost::random::linear_feedback_shift<unsigned long,32,31,13,12,0>::has_fixed_range
CONST	ENDS
;	COMDAT ?is_specialized@?$fibonacci_validation@N$0KNNB@$0FCCK@@random@boost@@2_NB
CONST	SEGMENT
?is_specialized@?$fibonacci_validation@N$0KNNB@$0FCCK@@random@boost@@2_NB DB 01H ; boost::random::fibonacci_validation<double,44497,21034>::is_specialized
CONST	ENDS
;	COMDAT ?is_specialized@?$fibonacci_validation@N$0FKKJ@$0DEJO@@random@boost@@2_NB
CONST	SEGMENT
?is_specialized@?$fibonacci_validation@N$0FKKJ@$0DEJO@@random@boost@@2_NB DB 01H ; boost::random::fibonacci_validation<double,23209,13470>::is_specialized
CONST	ENDS
;	COMDAT ?is_specialized@?$fibonacci_validation@N$0ENOB@$0CGHC@@random@boost@@2_NB
CONST	SEGMENT
?is_specialized@?$fibonacci_validation@N$0ENOB@$0CGHC@@random@boost@@2_NB DB 01H ; boost::random::fibonacci_validation<double,19937,9842>::is_specialized
CONST	ENDS
;	COMDAT ?is_specialized@?$fibonacci_validation@N$0CFNJ@$0BFHO@@random@boost@@2_NB
CONST	SEGMENT
?is_specialized@?$fibonacci_validation@N$0CFNJ@$0BFHO@@random@boost@@2_NB DB 01H ; boost::random::fibonacci_validation<double,9689,5502>::is_specialized
CONST	ENDS
;	COMDAT ?is_specialized@?$fibonacci_validation@N$0BBEH@$0IDC@@random@boost@@2_NB
CONST	SEGMENT
?is_specialized@?$fibonacci_validation@N$0BBEH@$0IDC@@random@boost@@2_NB DB 01H ; boost::random::fibonacci_validation<double,4423,2098>::is_specialized
CONST	ENDS
;	COMDAT ?is_specialized@?$fibonacci_validation@N$0MJB@$0CEA@@random@boost@@2_NB
CONST	SEGMENT
?is_specialized@?$fibonacci_validation@N$0MJB@$0CEA@@random@boost@@2_NB DB 01H ; boost::random::fibonacci_validation<double,3217,576>::is_specialized
CONST	ENDS
;	COMDAT ?is_specialized@?$fibonacci_validation@N$0IOJ@$0EOE@@random@boost@@2_NB
CONST	SEGMENT
?is_specialized@?$fibonacci_validation@N$0IOJ@$0EOE@@random@boost@@2_NB DB 01H ; boost::random::fibonacci_validation<double,2281,1252>::is_specialized
CONST	ENDS
;	COMDAT ?is_specialized@?$fibonacci_validation@N$0EPP@$0BKC@@random@boost@@2_NB
CONST	SEGMENT
?is_specialized@?$fibonacci_validation@N$0EPP@$0BKC@@random@boost@@2_NB DB 01H ; boost::random::fibonacci_validation<double,1279,418>::is_specialized
CONST	ENDS
;	COMDAT ?is_specialized@?$fibonacci_validation@N$0CFP@$0BBB@@random@boost@@2_NB
CONST	SEGMENT
?is_specialized@?$fibonacci_validation@N$0CFP@$0BBB@@random@boost@@2_NB DB 01H ; boost::random::fibonacci_validation<double,607,273>::is_specialized
CONST	ENDS
;	COMDAT ?modulus@?$linear_congruential@K$0FFG@$0CENGJ@$0KOFCJ@$0A@@random@boost@@2KB
CONST	SEGMENT
?modulus@?$linear_congruential@K$0FFG@$0CENGJ@$0KOFCJ@$0A@@random@boost@@2KB DD 0ae529H ; boost::random::linear_congruential<unsigned long,1366,150889,714025,0>::modulus
CONST	ENDS
;	COMDAT ?increment@?$linear_congruential@K$0FFG@$0CENGJ@$0KOFCJ@$0A@@random@boost@@2KB
CONST	SEGMENT
?increment@?$linear_congruential@K$0FFG@$0CENGJ@$0KOFCJ@$0A@@random@boost@@2KB DD 024d69H ; boost::random::linear_congruential<unsigned long,1366,150889,714025,0>::increment
CONST	ENDS
;	COMDAT ?multiplier@?$linear_congruential@K$0FFG@$0CENGJ@$0KOFCJ@$0A@@random@boost@@2KB
CONST	SEGMENT
?multiplier@?$linear_congruential@K$0FFG@$0CENGJ@$0KOFCJ@$0A@@random@boost@@2KB DD 0556H ; boost::random::linear_congruential<unsigned long,1366,150889,714025,0>::multiplier
CONST	ENDS
;	COMDAT ?max_value@?$linear_congruential@K$0FFG@$0CENGJ@$0KOFCJ@$0A@@random@boost@@2KB
CONST	SEGMENT
?max_value@?$linear_congruential@K$0FFG@$0CENGJ@$0KOFCJ@$0A@@random@boost@@2KB DD 0ae528H ; boost::random::linear_congruential<unsigned long,1366,150889,714025,0>::max_value
CONST	ENDS
;	COMDAT ?min_value@?$linear_congruential@K$0FFG@$0CENGJ@$0KOFCJ@$0A@@random@boost@@2KB
CONST	SEGMENT
?min_value@?$linear_congruential@K$0FFG@$0CENGJ@$0KOFCJ@$0A@@random@boost@@2KB DD 00H ; boost::random::linear_congruential<unsigned long,1366,150889,714025,0>::min_value
CONST	ENDS
;	COMDAT ?has_fixed_range@?$linear_congruential@K$0FFG@$0CENGJ@$0KOFCJ@$0A@@random@boost@@2_NB
CONST	SEGMENT
?has_fixed_range@?$linear_congruential@K$0FFG@$0CENGJ@$0KOFCJ@$0A@@random@boost@@2_NB DB 01H ; boost::random::linear_congruential<unsigned long,1366,150889,714025,0>::has_fixed_range
CONST	ENDS
;	COMDAT ?modulus@?$linear_congruential@J$0JMEO@$0A@$0HPPPPPKL@$0A@@random@boost@@2JB
CONST	SEGMENT
?modulus@?$linear_congruential@J$0JMEO@$0A@$0HPPPPPKL@$0A@@random@boost@@2JB DD 07fffffabH ; boost::random::linear_congruential<long,40014,0,2147483563,0>::modulus
CONST	ENDS
;	COMDAT ?increment@?$linear_congruential@J$0JMEO@$0A@$0HPPPPPKL@$0A@@random@boost@@2JB
CONST	SEGMENT
?increment@?$linear_congruential@J$0JMEO@$0A@$0HPPPPPKL@$0A@@random@boost@@2JB DD 00H ; boost::random::linear_congruential<long,40014,0,2147483563,0>::increment
CONST	ENDS
;	COMDAT ?multiplier@?$linear_congruential@J$0JMEO@$0A@$0HPPPPPKL@$0A@@random@boost@@2JB
CONST	SEGMENT
?multiplier@?$linear_congruential@J$0JMEO@$0A@$0HPPPPPKL@$0A@@random@boost@@2JB DD 09c4eH ; boost::random::linear_congruential<long,40014,0,2147483563,0>::multiplier
CONST	ENDS
;	COMDAT ?max_value@?$linear_congruential@J$0JMEO@$0A@$0HPPPPPKL@$0A@@random@boost@@2JB
CONST	SEGMENT
?max_value@?$linear_congruential@J$0JMEO@$0A@$0HPPPPPKL@$0A@@random@boost@@2JB DD 07fffffaaH ; boost::random::linear_congruential<long,40014,0,2147483563,0>::max_value
CONST	ENDS
;	COMDAT ?min_value@?$linear_congruential@J$0JMEO@$0A@$0HPPPPPKL@$0A@@random@boost@@2JB
CONST	SEGMENT
?min_value@?$linear_congruential@J$0JMEO@$0A@$0HPPPPPKL@$0A@@random@boost@@2JB DD 01H ; boost::random::linear_congruential<long,40014,0,2147483563,0>::min_value
CONST	ENDS
;	COMDAT ?has_fixed_range@?$linear_congruential@J$0JMEO@$0A@$0HPPPPPKL@$0A@@random@boost@@2_NB
CONST	SEGMENT
?has_fixed_range@?$linear_congruential@J$0JMEO@$0A@$0HPPPPPKL@$0A@@random@boost@@2_NB DB 01H ; boost::random::linear_congruential<long,40014,0,2147483563,0>::has_fixed_range
CONST	ENDS
;	COMDAT ?modulus@?$linear_congruential@_K$0FNOOMOGGN@$0L@$0BAAAAAAAAAAAA@$0A@@random@boost@@2_KB
CONST	SEGMENT
?modulus@?$linear_congruential@_K$0FNOOMOGGN@$0L@$0BAAAAAAAAAAAA@$0A@@random@boost@@2_KB DQ 0001000000000000H ; boost::random::linear_congruential<unsigned __int64,25214903917,11,281474976710656,0>::modulus
CONST	ENDS
;	COMDAT ?increment@?$linear_congruential@_K$0FNOOMOGGN@$0L@$0BAAAAAAAAAAAA@$0A@@random@boost@@2_KB
CONST	SEGMENT
?increment@?$linear_congruential@_K$0FNOOMOGGN@$0L@$0BAAAAAAAAAAAA@$0A@@random@boost@@2_KB DQ 000000000000000bH ; boost::random::linear_congruential<unsigned __int64,25214903917,11,281474976710656,0>::increment
CONST	ENDS
;	COMDAT ?multiplier@?$linear_congruential@_K$0FNOOMOGGN@$0L@$0BAAAAAAAAAAAA@$0A@@random@boost@@2_KB
CONST	SEGMENT
?multiplier@?$linear_congruential@_K$0FNOOMOGGN@$0L@$0BAAAAAAAAAAAA@$0A@@random@boost@@2_KB DQ 00000005deece66dH ; boost::random::linear_congruential<unsigned __int64,25214903917,11,281474976710656,0>::multiplier
CONST	ENDS
;	COMDAT ?max_value@?$linear_congruential@_K$0FNOOMOGGN@$0L@$0BAAAAAAAAAAAA@$0A@@random@boost@@2_KB
CONST	SEGMENT
?max_value@?$linear_congruential@_K$0FNOOMOGGN@$0L@$0BAAAAAAAAAAAA@$0A@@random@boost@@2_KB DQ 0000ffffffffffffH ; boost::random::linear_congruential<unsigned __int64,25214903917,11,281474976710656,0>::max_value
CONST	ENDS
;	COMDAT ?min_value@?$linear_congruential@_K$0FNOOMOGGN@$0L@$0BAAAAAAAAAAAA@$0A@@random@boost@@2_KB
CONST	SEGMENT
?min_value@?$linear_congruential@_K$0FNOOMOGGN@$0L@$0BAAAAAAAAAAAA@$0A@@random@boost@@2_KB DQ 0000000000000000H ; boost::random::linear_congruential<unsigned __int64,25214903917,11,281474976710656,0>::min_value
CONST	ENDS
;	COMDAT ?has_fixed_range@?$linear_congruential@_K$0FNOOMOGGN@$0L@$0BAAAAAAAAAAAA@$0A@@random@boost@@2_NB
CONST	SEGMENT
?has_fixed_range@?$linear_congruential@_K$0FNOOMOGGN@$0L@$0BAAAAAAAAAAAA@$0A@@random@boost@@2_NB DB 01H ; boost::random::linear_congruential<unsigned __int64,25214903917,11,281474976710656,0>::has_fixed_range
CONST	ENDS
;	COMDAT ?max_value@rand48@boost@@2JB
CONST	SEGMENT
?max_value@rand48@boost@@2JB DD 07fffffffH		; boost::rand48::max_value
CONST	ENDS
;	COMDAT ?min_value@rand48@boost@@2JB
CONST	SEGMENT
?min_value@rand48@boost@@2JB DD 00H			; boost::rand48::min_value
CONST	ENDS
;	COMDAT ?has_fixed_range@rand48@boost@@2_NB
CONST	SEGMENT
?has_fixed_range@rand48@boost@@2_NB DB 01H		; boost::rand48::has_fixed_range
CONST	ENDS
;	COMDAT ?value@?$implementation_level@V?$vector@_WV?$allocator@_W@std@@@std@@@serialization@boost@@2HB
CONST	SEGMENT
?value@?$implementation_level@V?$vector@_WV?$allocator@_W@std@@@std@@@serialization@boost@@2HB DD 02H ; boost::serialization::implementation_level<std::vector<wchar_t,std::allocator<wchar_t> > >::value
CONST	ENDS
;	COMDAT ?value@?$implementation_level@V?$vector@_KV?$allocator@_K@std@@@std@@@serialization@boost@@2HB
CONST	SEGMENT
?value@?$implementation_level@V?$vector@_KV?$allocator@_K@std@@@std@@@serialization@boost@@2HB DD 02H ; boost::serialization::implementation_level<std::vector<unsigned __int64,std::allocator<unsigned __int64> > >::value
CONST	ENDS
;	COMDAT ?value@?$implementation_level@V?$vector@_JV?$allocator@_J@std@@@std@@@serialization@boost@@2HB
CONST	SEGMENT
?value@?$implementation_level@V?$vector@_JV?$allocator@_J@std@@@std@@@serialization@boost@@2HB DD 02H ; boost::serialization::implementation_level<std::vector<__int64,std::allocator<__int64> > >::value
CONST	ENDS
;	COMDAT ?value@?$implementation_level@V?$vector@FV?$allocator@F@std@@@std@@@serialization@boost@@2HB
CONST	SEGMENT
?value@?$implementation_level@V?$vector@FV?$allocator@F@std@@@std@@@serialization@boost@@2HB DD 02H ; boost::serialization::implementation_level<std::vector<short,std::allocator<short> > >::value
CONST	ENDS
;	COMDAT ?value@?$implementation_level@V?$vector@GV?$allocator@G@std@@@std@@@serialization@boost@@2HB
CONST	SEGMENT
?value@?$implementation_level@V?$vector@GV?$allocator@G@std@@@std@@@serialization@boost@@2HB DD 02H ; boost::serialization::implementation_level<std::vector<unsigned short,std::allocator<unsigned short> > >::value
CONST	ENDS
;	COMDAT ?value@?$implementation_level@V?$vector@NV?$allocator@N@std@@@std@@@serialization@boost@@2HB
CONST	SEGMENT
?value@?$implementation_level@V?$vector@NV?$allocator@N@std@@@std@@@serialization@boost@@2HB DD 02H ; boost::serialization::implementation_level<std::vector<double,std::allocator<double> > >::value
CONST	ENDS
;	COMDAT ?value@?$implementation_level@V?$vector@MV?$allocator@M@std@@@std@@@serialization@boost@@2HB
CONST	SEGMENT
?value@?$implementation_level@V?$vector@MV?$allocator@M@std@@@std@@@serialization@boost@@2HB DD 02H ; boost::serialization::implementation_level<std::vector<float,std::allocator<float> > >::value
CONST	ENDS
;	COMDAT ?value@?$implementation_level@V?$vector@KV?$allocator@K@std@@@std@@@serialization@boost@@2HB
CONST	SEGMENT
?value@?$implementation_level@V?$vector@KV?$allocator@K@std@@@std@@@serialization@boost@@2HB DD 02H ; boost::serialization::implementation_level<std::vector<unsigned long,std::allocator<unsigned long> > >::value
CONST	ENDS
;	COMDAT ?value@?$implementation_level@V?$vector@JV?$allocator@J@std@@@std@@@serialization@boost@@2HB
CONST	SEGMENT
?value@?$implementation_level@V?$vector@JV?$allocator@J@std@@@std@@@serialization@boost@@2HB DD 02H ; boost::serialization::implementation_level<std::vector<long,std::allocator<long> > >::value
CONST	ENDS
;	COMDAT ?value@?$implementation_level@V?$vector@IV?$allocator@I@std@@@std@@@serialization@boost@@2HB
CONST	SEGMENT
?value@?$implementation_level@V?$vector@IV?$allocator@I@std@@@std@@@serialization@boost@@2HB DD 02H ; boost::serialization::implementation_level<std::vector<unsigned int,std::allocator<unsigned int> > >::value
CONST	ENDS
;	COMDAT ?value@?$implementation_level@V?$vector@HV?$allocator@H@std@@@std@@@serialization@boost@@2HB
CONST	SEGMENT
?value@?$implementation_level@V?$vector@HV?$allocator@H@std@@@std@@@serialization@boost@@2HB DD 02H ; boost::serialization::implementation_level<std::vector<int,std::allocator<int> > >::value
CONST	ENDS
;	COMDAT ?value@?$implementation_level@V?$vector@EV?$allocator@E@std@@@std@@@serialization@boost@@2HB
CONST	SEGMENT
?value@?$implementation_level@V?$vector@EV?$allocator@E@std@@@std@@@serialization@boost@@2HB DD 02H ; boost::serialization::implementation_level<std::vector<unsigned char,std::allocator<unsigned char> > >::value
CONST	ENDS
;	COMDAT ?value@?$implementation_level@V?$vector@CV?$allocator@C@std@@@std@@@serialization@boost@@2HB
CONST	SEGMENT
?value@?$implementation_level@V?$vector@CV?$allocator@C@std@@@std@@@serialization@boost@@2HB DD 02H ; boost::serialization::implementation_level<std::vector<signed char,std::allocator<signed char> > >::value
CONST	ENDS
;	COMDAT ?value@?$implementation_level@V?$vector@DV?$allocator@D@std@@@std@@@serialization@boost@@2HB
CONST	SEGMENT
?value@?$implementation_level@V?$vector@DV?$allocator@D@std@@@std@@@serialization@boost@@2HB DD 02H ; boost::serialization::implementation_level<std::vector<char,std::allocator<char> > >::value
CONST	ENDS
;	COMDAT ?value@?$implementation_level@V?$vector@_NV?$allocator@_N@std@@@std@@@serialization@boost@@2HB
CONST	SEGMENT
?value@?$implementation_level@V?$vector@_NV?$allocator@_N@std@@@std@@@serialization@boost@@2HB DD 02H ; boost::serialization::implementation_level<std::vector<bool,std::allocator<bool> > >::value
CONST	ENDS
;	COMDAT ?value@?$implementation_level@Ucollection_size_type@serialization@boost@@@serialization@boost@@2HB
CONST	SEGMENT
?value@?$implementation_level@Ucollection_size_type@serialization@boost@@@serialization@boost@@2HB DD 01H ; boost::serialization::implementation_level<boost::serialization::collection_size_type>::value
CONST	ENDS
;	COMDAT ?value@?$is_pod_impl@Ua128@align@boost@@@detail@boost@@2_NB
CONST	SEGMENT
?value@?$is_pod_impl@Ua128@align@boost@@@detail@boost@@2_NB DB 01H ; boost::detail::is_pod_impl<boost::align::a128>::value
CONST	ENDS
;	COMDAT ?value@?$is_pod_impl@Ua64@align@boost@@@detail@boost@@2_NB
CONST	SEGMENT
?value@?$is_pod_impl@Ua64@align@boost@@@detail@boost@@2_NB DB 01H ; boost::detail::is_pod_impl<boost::align::a64>::value
CONST	ENDS
;	COMDAT ?value@?$is_pod_impl@Ua32@align@boost@@@detail@boost@@2_NB
CONST	SEGMENT
?value@?$is_pod_impl@Ua32@align@boost@@@detail@boost@@2_NB DB 01H ; boost::detail::is_pod_impl<boost::align::a32>::value
CONST	ENDS
;	COMDAT ?value@?$is_pod_impl@Ua16@align@boost@@@detail@boost@@2_NB
CONST	SEGMENT
?value@?$is_pod_impl@Ua16@align@boost@@@detail@boost@@2_NB DB 01H ; boost::detail::is_pod_impl<boost::align::a16>::value
CONST	ENDS
;	COMDAT ?value@?$is_pod_impl@Ua8@align@boost@@@detail@boost@@2_NB
CONST	SEGMENT
?value@?$is_pod_impl@Ua8@align@boost@@@detail@boost@@2_NB DB 01H ; boost::detail::is_pod_impl<boost::align::a8>::value
CONST	ENDS
;	COMDAT ?found@?$type_with_alignment_imp@$07@detail@boost@@0IB
CONST	SEGMENT
?found@?$type_with_alignment_imp@$07@detail@boost@@0IB DD 08H ; boost::detail::type_with_alignment_imp<8>::found
CONST	ENDS
;	COMDAT ?value@?$is_aligned@$07$07@detail@boost@@2_NB
CONST	SEGMENT
?value@?$is_aligned@$07$07@detail@boost@@2_NB DB 01H	; boost::detail::is_aligned<8,8>::value
CONST	ENDS
;	COMDAT ?value@?$alignment_of_impl@T?$lower_alignment@$07@detail@boost@@@detail@boost@@2IB
CONST	SEGMENT
?value@?$alignment_of_impl@T?$lower_alignment@$07@detail@boost@@@detail@boost@@2IB DD 08H ; boost::detail::alignment_of_impl<boost::detail::lower_alignment<8> >::value
CONST	ENDS
;	COMDAT ?value@?$alignment_of_impl@_J@detail@boost@@2IB
CONST	SEGMENT
?value@?$alignment_of_impl@_J@detail@boost@@2IB DD 08H	; boost::detail::alignment_of_impl<__int64>::value
CONST	ENDS
;	COMDAT ?value@?$alignment_of_impl@J@detail@boost@@2IB
CONST	SEGMENT
?value@?$alignment_of_impl@J@detail@boost@@2IB DD 04H	; boost::detail::alignment_of_impl<long>::value
CONST	ENDS
;	COMDAT ?value@?$integral_c@I$03@mpl@boost@@2IB
CONST	SEGMENT
?value@?$integral_c@I$03@mpl@boost@@2IB DD 04H		; boost::mpl::integral_c<unsigned int,4>::value
CONST	ENDS
;	COMDAT ?value@?$alignment_of_impl@H@detail@boost@@2IB
CONST	SEGMENT
?value@?$alignment_of_impl@H@detail@boost@@2IB DD 04H	; boost::detail::alignment_of_impl<int>::value
CONST	ENDS
;	COMDAT ?value@?$alignment_logic@$03$03@detail@boost@@2IB
CONST	SEGMENT
?value@?$alignment_logic@$03$03@detail@boost@@2IB DD 04H ; boost::detail::alignment_logic<4,4>::value
CONST	ENDS
;	COMDAT ?value@?$integral_c@I$01@mpl@boost@@2IB
CONST	SEGMENT
?value@?$integral_c@I$01@mpl@boost@@2IB DD 02H		; boost::mpl::integral_c<unsigned int,2>::value
CONST	ENDS
;	COMDAT ?value@?$alignment_of_impl@F@detail@boost@@2IB
CONST	SEGMENT
?value@?$alignment_of_impl@F@detail@boost@@2IB DD 02H	; boost::detail::alignment_of_impl<short>::value
CONST	ENDS
;	COMDAT ?value@?$alignment_logic@$01$01@detail@boost@@2IB
CONST	SEGMENT
?value@?$alignment_logic@$01$01@detail@boost@@2IB DD 02H ; boost::detail::alignment_logic<2,2>::value
CONST	ENDS
;	COMDAT ?value@?$integral_c@I$00@mpl@boost@@2IB
CONST	SEGMENT
?value@?$integral_c@I$00@mpl@boost@@2IB DD 01H		; boost::mpl::integral_c<unsigned int,1>::value
CONST	ENDS
;	COMDAT ?value@?$alignment_of_impl@D@detail@boost@@2IB
CONST	SEGMENT
?value@?$alignment_of_impl@D@detail@boost@@2IB DD 01H	; boost::detail::alignment_of_impl<char>::value
CONST	ENDS
;	COMDAT ?value@?$alignment_logic@$00$00@detail@boost@@2IB
CONST	SEGMENT
?value@?$alignment_logic@$00$00@detail@boost@@2IB DD 01H ; boost::detail::alignment_logic<1,1>::value
CONST	ENDS
;	COMDAT ?value@?$integral_c@I$07@mpl@boost@@2IB
CONST	SEGMENT
?value@?$integral_c@I$07@mpl@boost@@2IB DD 08H		; boost::mpl::integral_c<unsigned int,8>::value
CONST	ENDS
;	COMDAT ?value@?$alignment_of_impl@Tmax_align@detail@boost@@@detail@boost@@2IB
CONST	SEGMENT
?value@?$alignment_of_impl@Tmax_align@detail@boost@@@detail@boost@@2IB DD 08H ; boost::detail::alignment_of_impl<boost::detail::max_align>::value
CONST	ENDS
;	COMDAT ?value@?$alignment_logic@$07$07@detail@boost@@2IB
CONST	SEGMENT
?value@?$alignment_logic@$07$07@detail@boost@@2IB DD 08H ; boost::detail::alignment_logic<8,8>::value
CONST	ENDS
;	COMDAT ?value@?$integral_c@I$0A@@mpl@boost@@2IB
CONST	SEGMENT
?value@?$integral_c@I$0A@@mpl@boost@@2IB DD 00H		; boost::mpl::integral_c<unsigned int,0>::value
CONST	ENDS
;	COMDAT ?value@?$integral_constant@_N$00@tr1@std@@2_NB
CONST	SEGMENT
?value@?$integral_constant@_N$00@tr1@std@@2_NB DB 01H	; std::tr1::integral_constant<bool,1>::value
CONST	ENDS
;	COMDAT ?value@?$integral_constant@_N$0A@@tr1@std@@2_NB
CONST	SEGMENT
?value@?$integral_constant@_N$0A@@tr1@std@@2_NB DB 00H	; std::tr1::integral_constant<bool,0>::value
CONST	ENDS
;	COMDAT ?value@?$is_pod_impl@$$CDX@detail@boost@@2_NB
CONST	SEGMENT
?value@?$is_pod_impl@$$CDX@detail@boost@@2_NB DB 01H	; boost::detail::is_pod_impl<void const volatile >::value
CONST	ENDS
;	COMDAT ?value@?$is_pod_impl@$$CCX@detail@boost@@2_NB
CONST	SEGMENT
?value@?$is_pod_impl@$$CCX@detail@boost@@2_NB DB 01H	; boost::detail::is_pod_impl<void volatile >::value
CONST	ENDS
;	COMDAT ?value@?$is_pod_impl@$$CBX@detail@boost@@2_NB
CONST	SEGMENT
?value@?$is_pod_impl@$$CBX@detail@boost@@2_NB DB 01H	; boost::detail::is_pod_impl<void const >::value
CONST	ENDS
;	COMDAT ?value@?$is_pod_impl@X@detail@boost@@2_NB
CONST	SEGMENT
?value@?$is_pod_impl@X@detail@boost@@2_NB DB 01H	; boost::detail::is_pod_impl<void>::value
CONST	ENDS
;	COMDAT ?value@?$is_scalar_impl@$$CDX@detail@boost@@2_NB
CONST	SEGMENT
?value@?$is_scalar_impl@$$CDX@detail@boost@@2_NB DB 00H	; boost::detail::is_scalar_impl<void const volatile >::value
CONST	ENDS
;	COMDAT ?value@?$is_scalar_impl@$$CCX@detail@boost@@2_NB
CONST	SEGMENT
?value@?$is_scalar_impl@$$CCX@detail@boost@@2_NB DB 00H	; boost::detail::is_scalar_impl<void volatile >::value
CONST	ENDS
;	COMDAT ?value@?$is_scalar_impl@$$CBX@detail@boost@@2_NB
CONST	SEGMENT
?value@?$is_scalar_impl@$$CBX@detail@boost@@2_NB DB 00H	; boost::detail::is_scalar_impl<void const >::value
CONST	ENDS
;	COMDAT ?value@?$is_scalar_impl@X@detail@boost@@2_NB
CONST	SEGMENT
?value@?$is_scalar_impl@X@detail@boost@@2_NB DB 00H	; boost::detail::is_scalar_impl<void>::value
CONST	ENDS
;	COMDAT ?value@?$is_member_function_pointer_impl@$$CDX@detail@boost@@2_NB
CONST	SEGMENT
?value@?$is_member_function_pointer_impl@$$CDX@detail@boost@@2_NB DB 00H ; boost::detail::is_member_function_pointer_impl<void const volatile >::value
CONST	ENDS
;	COMDAT ?value@?$is_member_function_pointer_impl@$$CCX@detail@boost@@2_NB
CONST	SEGMENT
?value@?$is_member_function_pointer_impl@$$CCX@detail@boost@@2_NB DB 00H ; boost::detail::is_member_function_pointer_impl<void volatile >::value
CONST	ENDS
;	COMDAT ?value@?$is_member_function_pointer_impl@$$CBX@detail@boost@@2_NB
CONST	SEGMENT
?value@?$is_member_function_pointer_impl@$$CBX@detail@boost@@2_NB DB 00H ; boost::detail::is_member_function_pointer_impl<void const >::value
CONST	ENDS
;	COMDAT ?value@?$is_member_function_pointer_impl@X@detail@boost@@2_NB
CONST	SEGMENT
?value@?$is_member_function_pointer_impl@X@detail@boost@@2_NB DB 00H ; boost::detail::is_member_function_pointer_impl<void>::value
CONST	ENDS
;	COMDAT ?value@?$arg@$04@mpl@boost@@2HB
CONST	SEGMENT
?value@?$arg@$04@mpl@boost@@2HB DD 05H			; boost::mpl::arg<5>::value
CONST	ENDS
;	COMDAT ?value@?$arg@$03@mpl@boost@@2HB
CONST	SEGMENT
?value@?$arg@$03@mpl@boost@@2HB DD 04H			; boost::mpl::arg<4>::value
CONST	ENDS
;	COMDAT ?value@?$arg@$02@mpl@boost@@2HB
CONST	SEGMENT
?value@?$arg@$02@mpl@boost@@2HB DD 03H			; boost::mpl::arg<3>::value
CONST	ENDS
;	COMDAT ?value@?$arg@$01@mpl@boost@@2HB
CONST	SEGMENT
?value@?$arg@$01@mpl@boost@@2HB DD 02H			; boost::mpl::arg<2>::value
CONST	ENDS
;	COMDAT ?value@?$arg@$00@mpl@boost@@2HB
CONST	SEGMENT
?value@?$arg@$00@mpl@boost@@2HB DD 01H			; boost::mpl::arg<1>::value
CONST	ENDS
;	COMDAT ?value@?$arg@$0?0@mpl@boost@@2HB
CONST	SEGMENT
?value@?$arg@$0?0@mpl@boost@@2HB DD 0ffffffffH		; boost::mpl::arg<-1>::value
CONST	ENDS
;	COMDAT ?value@?$int_@$0M@@mpl@boost@@2HB
CONST	SEGMENT
?value@?$int_@$0M@@mpl@boost@@2HB DD 0cH		; boost::mpl::int_<12>::value
CONST	ENDS
;	COMDAT ?value@?$int_@$0L@@mpl@boost@@2HB
CONST	SEGMENT
?value@?$int_@$0L@@mpl@boost@@2HB DD 0bH		; boost::mpl::int_<11>::value
CONST	ENDS
;	COMDAT ?value@?$int_@$09@mpl@boost@@2HB
CONST	SEGMENT
?value@?$int_@$09@mpl@boost@@2HB DD 0aH			; boost::mpl::int_<10>::value
CONST	ENDS
;	COMDAT ?value@?$int_@$08@mpl@boost@@2HB
CONST	SEGMENT
?value@?$int_@$08@mpl@boost@@2HB DD 09H			; boost::mpl::int_<9>::value
CONST	ENDS
;	COMDAT ?value@?$int_@$07@mpl@boost@@2HB
CONST	SEGMENT
?value@?$int_@$07@mpl@boost@@2HB DD 08H			; boost::mpl::int_<8>::value
CONST	ENDS
;	COMDAT ?value@?$int_@$06@mpl@boost@@2HB
CONST	SEGMENT
?value@?$int_@$06@mpl@boost@@2HB DD 07H			; boost::mpl::int_<7>::value
CONST	ENDS
;	COMDAT ?value@?$int_@$05@mpl@boost@@2HB
CONST	SEGMENT
?value@?$int_@$05@mpl@boost@@2HB DD 06H			; boost::mpl::int_<6>::value
CONST	ENDS
;	COMDAT ?value@?$int_@$04@mpl@boost@@2HB
CONST	SEGMENT
?value@?$int_@$04@mpl@boost@@2HB DD 05H			; boost::mpl::int_<5>::value
CONST	ENDS
;	COMDAT ?value@?$int_@$03@mpl@boost@@2HB
CONST	SEGMENT
?value@?$int_@$03@mpl@boost@@2HB DD 04H			; boost::mpl::int_<4>::value
CONST	ENDS
;	COMDAT ?value@?$int_@$02@mpl@boost@@2HB
CONST	SEGMENT
?value@?$int_@$02@mpl@boost@@2HB DD 03H			; boost::mpl::int_<3>::value
CONST	ENDS
;	COMDAT ?value@?$int_@$01@mpl@boost@@2HB
CONST	SEGMENT
?value@?$int_@$01@mpl@boost@@2HB DD 02H			; boost::mpl::int_<2>::value
CONST	ENDS
;	COMDAT ?value@?$int_@$00@mpl@boost@@2HB
CONST	SEGMENT
?value@?$int_@$00@mpl@boost@@2HB DD 01H			; boost::mpl::int_<1>::value
CONST	ENDS
;	COMDAT ?value@?$select_by_size@$0BF@@detail@iostreams@boost@@2HB
CONST	SEGMENT
?value@?$select_by_size@$0BF@@detail@iostreams@boost@@2HB DD 013H ; boost::iostreams::detail::select_by_size<21>::value
CONST	ENDS
;	COMDAT ?value@type@?$select_by_size@$0BF@@detail@iostreams@boost@@2HB
CONST	SEGMENT
?value@type@?$select_by_size@$0BF@@detail@iostreams@boost@@2HB DD 013H ; boost::iostreams::detail::select_by_size<21>::type::value
CONST	ENDS
;	COMDAT ?value@?$select_by_size@$0BE@@detail@iostreams@boost@@2HB
CONST	SEGMENT
?value@?$select_by_size@$0BE@@detail@iostreams@boost@@2HB DD 012H ; boost::iostreams::detail::select_by_size<20>::value
CONST	ENDS
;	COMDAT ?value@type@?$select_by_size@$0BE@@detail@iostreams@boost@@2HB
CONST	SEGMENT
?value@type@?$select_by_size@$0BE@@detail@iostreams@boost@@2HB DD 012H ; boost::iostreams::detail::select_by_size<20>::type::value
CONST	ENDS
;	COMDAT ?value@?$select_by_size@$0BD@@detail@iostreams@boost@@2HB
CONST	SEGMENT
?value@?$select_by_size@$0BD@@detail@iostreams@boost@@2HB DD 011H ; boost::iostreams::detail::select_by_size<19>::value
CONST	ENDS
;	COMDAT ?value@type@?$select_by_size@$0BD@@detail@iostreams@boost@@2HB
CONST	SEGMENT
?value@type@?$select_by_size@$0BD@@detail@iostreams@boost@@2HB DD 011H ; boost::iostreams::detail::select_by_size<19>::type::value
CONST	ENDS
;	COMDAT ?value@?$select_by_size@$0BC@@detail@iostreams@boost@@2HB
CONST	SEGMENT
?value@?$select_by_size@$0BC@@detail@iostreams@boost@@2HB DD 010H ; boost::iostreams::detail::select_by_size<18>::value
CONST	ENDS
;	COMDAT ?value@type@?$select_by_size@$0BC@@detail@iostreams@boost@@2HB
CONST	SEGMENT
?value@type@?$select_by_size@$0BC@@detail@iostreams@boost@@2HB DD 010H ; boost::iostreams::detail::select_by_size<18>::type::value
CONST	ENDS
;	COMDAT ?value@?$select_by_size@$0BB@@detail@iostreams@boost@@2HB
CONST	SEGMENT
?value@?$select_by_size@$0BB@@detail@iostreams@boost@@2HB DD 0fH ; boost::iostreams::detail::select_by_size<17>::value
CONST	ENDS
;	COMDAT ?value@type@?$select_by_size@$0BB@@detail@iostreams@boost@@2HB
CONST	SEGMENT
?value@type@?$select_by_size@$0BB@@detail@iostreams@boost@@2HB DD 0fH ; boost::iostreams::detail::select_by_size<17>::type::value
CONST	ENDS
;	COMDAT ?value@?$select_by_size@$0BA@@detail@iostreams@boost@@2HB
CONST	SEGMENT
?value@?$select_by_size@$0BA@@detail@iostreams@boost@@2HB DD 0eH ; boost::iostreams::detail::select_by_size<16>::value
CONST	ENDS
;	COMDAT ?value@type@?$select_by_size@$0BA@@detail@iostreams@boost@@2HB
CONST	SEGMENT
?value@type@?$select_by_size@$0BA@@detail@iostreams@boost@@2HB DD 0eH ; boost::iostreams::detail::select_by_size<16>::type::value
CONST	ENDS
;	COMDAT ?value@?$select_by_size@$0P@@detail@iostreams@boost@@2HB
CONST	SEGMENT
?value@?$select_by_size@$0P@@detail@iostreams@boost@@2HB DD 0dH ; boost::iostreams::detail::select_by_size<15>::value
CONST	ENDS
;	COMDAT ?value@type@?$select_by_size@$0P@@detail@iostreams@boost@@2HB
CONST	SEGMENT
?value@type@?$select_by_size@$0P@@detail@iostreams@boost@@2HB DD 0dH ; boost::iostreams::detail::select_by_size<15>::type::value
CONST	ENDS
;	COMDAT ?value@?$select_by_size@$0O@@detail@iostreams@boost@@2HB
CONST	SEGMENT
?value@?$select_by_size@$0O@@detail@iostreams@boost@@2HB DD 0cH ; boost::iostreams::detail::select_by_size<14>::value
CONST	ENDS
;	COMDAT ?value@type@?$select_by_size@$0O@@detail@iostreams@boost@@2HB
CONST	SEGMENT
?value@type@?$select_by_size@$0O@@detail@iostreams@boost@@2HB DD 0cH ; boost::iostreams::detail::select_by_size<14>::type::value
CONST	ENDS
;	COMDAT ?value@?$select_by_size@$0N@@detail@iostreams@boost@@2HB
CONST	SEGMENT
?value@?$select_by_size@$0N@@detail@iostreams@boost@@2HB DD 0bH ; boost::iostreams::detail::select_by_size<13>::value
CONST	ENDS
;	COMDAT ?value@type@?$select_by_size@$0N@@detail@iostreams@boost@@2HB
CONST	SEGMENT
?value@type@?$select_by_size@$0N@@detail@iostreams@boost@@2HB DD 0bH ; boost::iostreams::detail::select_by_size<13>::type::value
CONST	ENDS
;	COMDAT ?value@?$select_by_size@$0M@@detail@iostreams@boost@@2HB
CONST	SEGMENT
?value@?$select_by_size@$0M@@detail@iostreams@boost@@2HB DD 0aH ; boost::iostreams::detail::select_by_size<12>::value
CONST	ENDS
;	COMDAT ?value@type@?$select_by_size@$0M@@detail@iostreams@boost@@2HB
CONST	SEGMENT
?value@type@?$select_by_size@$0M@@detail@iostreams@boost@@2HB DD 0aH ; boost::iostreams::detail::select_by_size<12>::type::value
CONST	ENDS
;	COMDAT ?value@?$select_by_size@$0L@@detail@iostreams@boost@@2HB
CONST	SEGMENT
?value@?$select_by_size@$0L@@detail@iostreams@boost@@2HB DD 09H ; boost::iostreams::detail::select_by_size<11>::value
CONST	ENDS
;	COMDAT ?value@type@?$select_by_size@$0L@@detail@iostreams@boost@@2HB
CONST	SEGMENT
?value@type@?$select_by_size@$0L@@detail@iostreams@boost@@2HB DD 09H ; boost::iostreams::detail::select_by_size<11>::type::value
CONST	ENDS
;	COMDAT ?value@?$select_by_size@$09@detail@iostreams@boost@@2HB
CONST	SEGMENT
?value@?$select_by_size@$09@detail@iostreams@boost@@2HB DD 08H ; boost::iostreams::detail::select_by_size<10>::value
CONST	ENDS
;	COMDAT ?value@type@?$select_by_size@$09@detail@iostreams@boost@@2HB
CONST	SEGMENT
?value@type@?$select_by_size@$09@detail@iostreams@boost@@2HB DD 08H ; boost::iostreams::detail::select_by_size<10>::type::value
CONST	ENDS
;	COMDAT ?value@?$select_by_size@$08@detail@iostreams@boost@@2HB
CONST	SEGMENT
?value@?$select_by_size@$08@detail@iostreams@boost@@2HB DD 07H ; boost::iostreams::detail::select_by_size<9>::value
CONST	ENDS
;	COMDAT ?value@type@?$select_by_size@$08@detail@iostreams@boost@@2HB
CONST	SEGMENT
?value@type@?$select_by_size@$08@detail@iostreams@boost@@2HB DD 07H ; boost::iostreams::detail::select_by_size<9>::type::value
CONST	ENDS
;	COMDAT ?value@?$select_by_size@$07@detail@iostreams@boost@@2HB
CONST	SEGMENT
?value@?$select_by_size@$07@detail@iostreams@boost@@2HB DD 06H ; boost::iostreams::detail::select_by_size<8>::value
CONST	ENDS
;	COMDAT ?value@type@?$select_by_size@$07@detail@iostreams@boost@@2HB
CONST	SEGMENT
?value@type@?$select_by_size@$07@detail@iostreams@boost@@2HB DD 06H ; boost::iostreams::detail::select_by_size<8>::type::value
CONST	ENDS
;	COMDAT ?value@?$select_by_size@$06@detail@iostreams@boost@@2HB
CONST	SEGMENT
?value@?$select_by_size@$06@detail@iostreams@boost@@2HB DD 05H ; boost::iostreams::detail::select_by_size<7>::value
CONST	ENDS
;	COMDAT ?value@type@?$select_by_size@$06@detail@iostreams@boost@@2HB
CONST	SEGMENT
?value@type@?$select_by_size@$06@detail@iostreams@boost@@2HB DD 05H ; boost::iostreams::detail::select_by_size<7>::type::value
CONST	ENDS
;	COMDAT ?value@?$select_by_size@$05@detail@iostreams@boost@@2HB
CONST	SEGMENT
?value@?$select_by_size@$05@detail@iostreams@boost@@2HB DD 04H ; boost::iostreams::detail::select_by_size<6>::value
CONST	ENDS
;	COMDAT ?value@type@?$select_by_size@$05@detail@iostreams@boost@@2HB
CONST	SEGMENT
?value@type@?$select_by_size@$05@detail@iostreams@boost@@2HB DD 04H ; boost::iostreams::detail::select_by_size<6>::type::value
CONST	ENDS
;	COMDAT ?value@?$select_by_size@$04@detail@iostreams@boost@@2HB
CONST	SEGMENT
?value@?$select_by_size@$04@detail@iostreams@boost@@2HB DD 03H ; boost::iostreams::detail::select_by_size<5>::value
CONST	ENDS
;	COMDAT ?value@type@?$select_by_size@$04@detail@iostreams@boost@@2HB
CONST	SEGMENT
?value@type@?$select_by_size@$04@detail@iostreams@boost@@2HB DD 03H ; boost::iostreams::detail::select_by_size<5>::type::value
CONST	ENDS
;	COMDAT ?value@?$select_by_size@$03@detail@iostreams@boost@@2HB
CONST	SEGMENT
?value@?$select_by_size@$03@detail@iostreams@boost@@2HB DD 02H ; boost::iostreams::detail::select_by_size<4>::value
CONST	ENDS
;	COMDAT ?value@type@?$select_by_size@$03@detail@iostreams@boost@@2HB
CONST	SEGMENT
?value@type@?$select_by_size@$03@detail@iostreams@boost@@2HB DD 02H ; boost::iostreams::detail::select_by_size<4>::type::value
CONST	ENDS
;	COMDAT ?value@?$select_by_size@$02@detail@iostreams@boost@@2HB
CONST	SEGMENT
?value@?$select_by_size@$02@detail@iostreams@boost@@2HB DD 01H ; boost::iostreams::detail::select_by_size<3>::value
CONST	ENDS
;	COMDAT ?value@type@?$select_by_size@$02@detail@iostreams@boost@@2HB
CONST	SEGMENT
?value@type@?$select_by_size@$02@detail@iostreams@boost@@2HB DD 01H ; boost::iostreams::detail::select_by_size<3>::type::value
CONST	ENDS
;	COMDAT ?value@?$select_by_size@$01@detail@iostreams@boost@@2HB
CONST	SEGMENT
?value@?$select_by_size@$01@detail@iostreams@boost@@2HB DD 00H ; boost::iostreams::detail::select_by_size<2>::value
CONST	ENDS
;	COMDAT ?value@type@?$select_by_size@$01@detail@iostreams@boost@@2HB
CONST	SEGMENT
?value@type@?$select_by_size@$01@detail@iostreams@boost@@2HB DD 00H ; boost::iostreams::detail::select_by_size<2>::type::value
CONST	ENDS
;	COMDAT ?value@?$select_by_size@$00@detail@iostreams@boost@@2HB
CONST	SEGMENT
?value@?$select_by_size@$00@detail@iostreams@boost@@2HB DD 0ffffffffH ; boost::iostreams::detail::select_by_size<1>::value
CONST	ENDS
;	COMDAT ?value@type@?$select_by_size@$00@detail@iostreams@boost@@2HB
CONST	SEGMENT
?value@type@?$select_by_size@$00@detail@iostreams@boost@@2HB DD 0ffffffffH ; boost::iostreams::detail::select_by_size<1>::type::value
CONST	ENDS
;	COMDAT ?value@?$is_convertible_impl@$$CDX$$CDX@detail@boost@@2_NB
CONST	SEGMENT
?value@?$is_convertible_impl@$$CDX$$CDX@detail@boost@@2_NB DB 01H ; boost::detail::is_convertible_impl<void const volatile ,void const volatile >::value
CONST	ENDS
;	COMDAT ?value@?$is_convertible_impl@$$CDX$$CCX@detail@boost@@2_NB
CONST	SEGMENT
?value@?$is_convertible_impl@$$CDX$$CCX@detail@boost@@2_NB DB 01H ; boost::detail::is_convertible_impl<void const volatile ,void volatile >::value
CONST	ENDS
;	COMDAT ?value@?$is_convertible_impl@$$CDX$$CBX@detail@boost@@2_NB
CONST	SEGMENT
?value@?$is_convertible_impl@$$CDX$$CBX@detail@boost@@2_NB DB 01H ; boost::detail::is_convertible_impl<void const volatile ,void const >::value
CONST	ENDS
;	COMDAT ?value@?$is_convertible_impl@$$CDXX@detail@boost@@2_NB
CONST	SEGMENT
?value@?$is_convertible_impl@$$CDXX@detail@boost@@2_NB DB 01H ; boost::detail::is_convertible_impl<void const volatile ,void>::value
CONST	ENDS
;	COMDAT ?value@?$is_convertible_impl@$$CCX$$CDX@detail@boost@@2_NB
CONST	SEGMENT
?value@?$is_convertible_impl@$$CCX$$CDX@detail@boost@@2_NB DB 01H ; boost::detail::is_convertible_impl<void volatile ,void const volatile >::value
CONST	ENDS
;	COMDAT ?value@?$is_convertible_impl@$$CCX$$CCX@detail@boost@@2_NB
CONST	SEGMENT
?value@?$is_convertible_impl@$$CCX$$CCX@detail@boost@@2_NB DB 01H ; boost::detail::is_convertible_impl<void volatile ,void volatile >::value
CONST	ENDS
;	COMDAT ?value@?$is_convertible_impl@$$CCX$$CBX@detail@boost@@2_NB
CONST	SEGMENT
?value@?$is_convertible_impl@$$CCX$$CBX@detail@boost@@2_NB DB 01H ; boost::detail::is_convertible_impl<void volatile ,void const >::value
CONST	ENDS
;	COMDAT ?value@?$is_convertible_impl@$$CCXX@detail@boost@@2_NB
CONST	SEGMENT
?value@?$is_convertible_impl@$$CCXX@detail@boost@@2_NB DB 01H ; boost::detail::is_convertible_impl<void volatile ,void>::value
CONST	ENDS
;	COMDAT ?value@?$is_convertible_impl@$$CBX$$CDX@detail@boost@@2_NB
CONST	SEGMENT
?value@?$is_convertible_impl@$$CBX$$CDX@detail@boost@@2_NB DB 01H ; boost::detail::is_convertible_impl<void const ,void const volatile >::value
CONST	ENDS
;	COMDAT ?value@?$is_convertible_impl@$$CBX$$CCX@detail@boost@@2_NB
CONST	SEGMENT
?value@?$is_convertible_impl@$$CBX$$CCX@detail@boost@@2_NB DB 01H ; boost::detail::is_convertible_impl<void const ,void volatile >::value
CONST	ENDS
;	COMDAT ?value@?$is_convertible_impl@$$CBX$$CBX@detail@boost@@2_NB
CONST	SEGMENT
?value@?$is_convertible_impl@$$CBX$$CBX@detail@boost@@2_NB DB 01H ; boost::detail::is_convertible_impl<void const ,void const >::value
CONST	ENDS
;	COMDAT ?value@?$is_convertible_impl@$$CBXX@detail@boost@@2_NB
CONST	SEGMENT
?value@?$is_convertible_impl@$$CBXX@detail@boost@@2_NB DB 01H ; boost::detail::is_convertible_impl<void const ,void>::value
CONST	ENDS
;	COMDAT ?value@?$is_convertible_impl@X$$CDX@detail@boost@@2_NB
CONST	SEGMENT
?value@?$is_convertible_impl@X$$CDX@detail@boost@@2_NB DB 01H ; boost::detail::is_convertible_impl<void,void const volatile >::value
CONST	ENDS
;	COMDAT ?value@?$is_convertible_impl@X$$CCX@detail@boost@@2_NB
CONST	SEGMENT
?value@?$is_convertible_impl@X$$CCX@detail@boost@@2_NB DB 01H ; boost::detail::is_convertible_impl<void,void volatile >::value
CONST	ENDS
;	COMDAT ?value@?$is_convertible_impl@X$$CBX@detail@boost@@2_NB
CONST	SEGMENT
?value@?$is_convertible_impl@X$$CBX@detail@boost@@2_NB DB 01H ; boost::detail::is_convertible_impl<void,void const >::value
CONST	ENDS
;	COMDAT ?value@?$is_convertible_impl@XX@detail@boost@@2_NB
CONST	SEGMENT
?value@?$is_convertible_impl@XX@detail@boost@@2_NB DB 01H ; boost::detail::is_convertible_impl<void,void>::value
CONST	ENDS
;	COMDAT ?value@?$ice_not@$00@type_traits@boost@@2_NB
CONST	SEGMENT
?value@?$ice_not@$00@type_traits@boost@@2_NB DB 00H	; boost::type_traits::ice_not<1>::value
CONST	ENDS
;	COMDAT ?value@?$ice_and@$00$00$00$00$00$00$00@type_traits@boost@@2_NB
CONST	SEGMENT
?value@?$ice_and@$00$00$00$00$00$00$00@type_traits@boost@@2_NB DB 01H ; boost::type_traits::ice_and<1,1,1,1,1,1,1>::value
CONST	ENDS
;	COMDAT ?value@?$ice_or@$0A@$0A@$0A@$0A@$0A@$0A@$0A@@type_traits@boost@@2_NB
CONST	SEGMENT
?value@?$ice_or@$0A@$0A@$0A@$0A@$0A@$0A@$0A@@type_traits@boost@@2_NB DB 00H ; boost::type_traits::ice_or<0,0,0,0,0,0,0>::value
CONST	ENDS
;	COMDAT ?const_max@?$integer_traits_base@_K$0A@$0?0@detail@boost@@2_KB
CONST	SEGMENT
?const_max@?$integer_traits_base@_K$0A@$0?0@detail@boost@@2_KB DQ ffffffffffffffffH ; boost::detail::integer_traits_base<unsigned __int64,0,-1>::const_max
CONST	ENDS
;	COMDAT ?const_min@?$integer_traits_base@_K$0A@$0?0@detail@boost@@2_KB
CONST	SEGMENT
?const_min@?$integer_traits_base@_K$0A@$0?0@detail@boost@@2_KB DQ 0000000000000000H ; boost::detail::integer_traits_base<unsigned __int64,0,-1>::const_min
CONST	ENDS
;	COMDAT ?is_integral@?$integer_traits_base@_K$0A@$0?0@detail@boost@@2_NB
CONST	SEGMENT
?is_integral@?$integer_traits_base@_K$0A@$0?0@detail@boost@@2_NB DB 01H ; boost::detail::integer_traits_base<unsigned __int64,0,-1>::is_integral
CONST	ENDS
;	COMDAT ?const_max@?$integer_traits_base@_J$0?IAAAAAAAAAAAAAAA@$0HPPPPPPPPPPPPPPP@@detail@boost@@2_JB
CONST	SEGMENT
?const_max@?$integer_traits_base@_J$0?IAAAAAAAAAAAAAAA@$0HPPPPPPPPPPPPPPP@@detail@boost@@2_JB DQ 7fffffffffffffffH ; boost::detail::integer_traits_base<__int64,-9223372036854775808,9223372036854775807>::const_max
CONST	ENDS
;	COMDAT ?const_min@?$integer_traits_base@_J$0?IAAAAAAAAAAAAAAA@$0HPPPPPPPPPPPPPPP@@detail@boost@@2_JB
CONST	SEGMENT
?const_min@?$integer_traits_base@_J$0?IAAAAAAAAAAAAAAA@$0HPPPPPPPPPPPPPPP@@detail@boost@@2_JB DQ 8000000000000000H ; boost::detail::integer_traits_base<__int64,-9223372036854775808,9223372036854775807>::const_min
CONST	ENDS
;	COMDAT ?is_integral@?$integer_traits_base@_J$0?IAAAAAAAAAAAAAAA@$0HPPPPPPPPPPPPPPP@@detail@boost@@2_NB
CONST	SEGMENT
?is_integral@?$integer_traits_base@_J$0?IAAAAAAAAAAAAAAA@$0HPPPPPPPPPPPPPPP@@detail@boost@@2_NB DB 01H ; boost::detail::integer_traits_base<__int64,-9223372036854775808,9223372036854775807>::is_integral
CONST	ENDS
;	COMDAT ?const_max@?$integer_traits_base@K$0A@$0PPPPPPPP@@detail@boost@@2KB
CONST	SEGMENT
?const_max@?$integer_traits_base@K$0A@$0PPPPPPPP@@detail@boost@@2KB DD 0ffffffffH ; boost::detail::integer_traits_base<unsigned long,0,4294967295>::const_max
CONST	ENDS
;	COMDAT ?const_min@?$integer_traits_base@K$0A@$0PPPPPPPP@@detail@boost@@2KB
CONST	SEGMENT
?const_min@?$integer_traits_base@K$0A@$0PPPPPPPP@@detail@boost@@2KB DD 00H ; boost::detail::integer_traits_base<unsigned long,0,4294967295>::const_min
CONST	ENDS
;	COMDAT ?is_integral@?$integer_traits_base@K$0A@$0PPPPPPPP@@detail@boost@@2_NB
CONST	SEGMENT
?is_integral@?$integer_traits_base@K$0A@$0PPPPPPPP@@detail@boost@@2_NB DB 01H ; boost::detail::integer_traits_base<unsigned long,0,4294967295>::is_integral
CONST	ENDS
;	COMDAT ?const_max@?$integer_traits_base@J$0?IAAAAAAA@$0HPPPPPPP@@detail@boost@@2JB
CONST	SEGMENT
?const_max@?$integer_traits_base@J$0?IAAAAAAA@$0HPPPPPPP@@detail@boost@@2JB DD 07fffffffH ; boost::detail::integer_traits_base<long,-2147483648,2147483647>::const_max
CONST	ENDS
;	COMDAT ?const_min@?$integer_traits_base@J$0?IAAAAAAA@$0HPPPPPPP@@detail@boost@@2JB
CONST	SEGMENT
?const_min@?$integer_traits_base@J$0?IAAAAAAA@$0HPPPPPPP@@detail@boost@@2JB DD 080000000H ; boost::detail::integer_traits_base<long,-2147483648,2147483647>::const_min
CONST	ENDS
;	COMDAT ?is_integral@?$integer_traits_base@J$0?IAAAAAAA@$0HPPPPPPP@@detail@boost@@2_NB
CONST	SEGMENT
?is_integral@?$integer_traits_base@J$0?IAAAAAAA@$0HPPPPPPP@@detail@boost@@2_NB DB 01H ; boost::detail::integer_traits_base<long,-2147483648,2147483647>::is_integral
CONST	ENDS
;	COMDAT ?const_max@?$integer_traits_base@I$0A@$0PPPPPPPP@@detail@boost@@2IB
CONST	SEGMENT
?const_max@?$integer_traits_base@I$0A@$0PPPPPPPP@@detail@boost@@2IB DD 0ffffffffH ; boost::detail::integer_traits_base<unsigned int,0,4294967295>::const_max
CONST	ENDS
;	COMDAT ?const_min@?$integer_traits_base@I$0A@$0PPPPPPPP@@detail@boost@@2IB
CONST	SEGMENT
?const_min@?$integer_traits_base@I$0A@$0PPPPPPPP@@detail@boost@@2IB DD 00H ; boost::detail::integer_traits_base<unsigned int,0,4294967295>::const_min
CONST	ENDS
;	COMDAT ?is_integral@?$integer_traits_base@I$0A@$0PPPPPPPP@@detail@boost@@2_NB
CONST	SEGMENT
?is_integral@?$integer_traits_base@I$0A@$0PPPPPPPP@@detail@boost@@2_NB DB 01H ; boost::detail::integer_traits_base<unsigned int,0,4294967295>::is_integral
CONST	ENDS
;	COMDAT ?const_max@?$integer_traits_base@H$0?IAAAAAAA@$0HPPPPPPP@@detail@boost@@2HB
CONST	SEGMENT
?const_max@?$integer_traits_base@H$0?IAAAAAAA@$0HPPPPPPP@@detail@boost@@2HB DD 07fffffffH ; boost::detail::integer_traits_base<int,-2147483648,2147483647>::const_max
CONST	ENDS
;	COMDAT ?const_min@?$integer_traits_base@H$0?IAAAAAAA@$0HPPPPPPP@@detail@boost@@2HB
CONST	SEGMENT
?const_min@?$integer_traits_base@H$0?IAAAAAAA@$0HPPPPPPP@@detail@boost@@2HB DD 080000000H ; boost::detail::integer_traits_base<int,-2147483648,2147483647>::const_min
CONST	ENDS
;	COMDAT ?is_integral@?$integer_traits_base@H$0?IAAAAAAA@$0HPPPPPPP@@detail@boost@@2_NB
CONST	SEGMENT
?is_integral@?$integer_traits_base@H$0?IAAAAAAA@$0HPPPPPPP@@detail@boost@@2_NB DB 01H ; boost::detail::integer_traits_base<int,-2147483648,2147483647>::is_integral
CONST	ENDS
;	COMDAT ?const_max@?$integer_traits_base@G$0A@$0PPPP@@detail@boost@@2GB
CONST	SEGMENT
?const_max@?$integer_traits_base@G$0A@$0PPPP@@detail@boost@@2GB DW 0ffffH ; boost::detail::integer_traits_base<unsigned short,0,65535>::const_max
CONST	ENDS
;	COMDAT ?const_min@?$integer_traits_base@G$0A@$0PPPP@@detail@boost@@2GB
CONST	SEGMENT
?const_min@?$integer_traits_base@G$0A@$0PPPP@@detail@boost@@2GB DW 00H ; boost::detail::integer_traits_base<unsigned short,0,65535>::const_min
CONST	ENDS
;	COMDAT ?is_integral@?$integer_traits_base@G$0A@$0PPPP@@detail@boost@@2_NB
CONST	SEGMENT
?is_integral@?$integer_traits_base@G$0A@$0PPPP@@detail@boost@@2_NB DB 01H ; boost::detail::integer_traits_base<unsigned short,0,65535>::is_integral
CONST	ENDS
;	COMDAT ?const_max@?$integer_traits_base@F$0?IAAA@$0HPPP@@detail@boost@@2FB
CONST	SEGMENT
?const_max@?$integer_traits_base@F$0?IAAA@$0HPPP@@detail@boost@@2FB DW 07fffH ; boost::detail::integer_traits_base<short,-32768,32767>::const_max
CONST	ENDS
;	COMDAT ?const_min@?$integer_traits_base@F$0?IAAA@$0HPPP@@detail@boost@@2FB
CONST	SEGMENT
?const_min@?$integer_traits_base@F$0?IAAA@$0HPPP@@detail@boost@@2FB DW 08000H ; boost::detail::integer_traits_base<short,-32768,32767>::const_min
CONST	ENDS
;	COMDAT ?is_integral@?$integer_traits_base@F$0?IAAA@$0HPPP@@detail@boost@@2_NB
CONST	SEGMENT
?is_integral@?$integer_traits_base@F$0?IAAA@$0HPPP@@detail@boost@@2_NB DB 01H ; boost::detail::integer_traits_base<short,-32768,32767>::is_integral
CONST	ENDS
;	COMDAT ?const_max@?$integer_traits_base@_W$0A@$0PPPP@@detail@boost@@2_WB
CONST	SEGMENT
?const_max@?$integer_traits_base@_W$0A@$0PPPP@@detail@boost@@2_WB DW 0ffffH ; boost::detail::integer_traits_base<wchar_t,0,65535>::const_max
CONST	ENDS
;	COMDAT ?const_min@?$integer_traits_base@_W$0A@$0PPPP@@detail@boost@@2_WB
CONST	SEGMENT
?const_min@?$integer_traits_base@_W$0A@$0PPPP@@detail@boost@@2_WB DW 00H ; boost::detail::integer_traits_base<wchar_t,0,65535>::const_min
CONST	ENDS
;	COMDAT ?is_integral@?$integer_traits_base@_W$0A@$0PPPP@@detail@boost@@2_NB
CONST	SEGMENT
?is_integral@?$integer_traits_base@_W$0A@$0PPPP@@detail@boost@@2_NB DB 01H ; boost::detail::integer_traits_base<wchar_t,0,65535>::is_integral
CONST	ENDS
;	COMDAT ?const_max@?$integer_traits_base@E$0A@$0PP@@detail@boost@@2EB
CONST	SEGMENT
?const_max@?$integer_traits_base@E$0A@$0PP@@detail@boost@@2EB DB 0ffH ; boost::detail::integer_traits_base<unsigned char,0,255>::const_max
CONST	ENDS
;	COMDAT ?const_min@?$integer_traits_base@E$0A@$0PP@@detail@boost@@2EB
CONST	SEGMENT
?const_min@?$integer_traits_base@E$0A@$0PP@@detail@boost@@2EB DB 00H ; boost::detail::integer_traits_base<unsigned char,0,255>::const_min
CONST	ENDS
;	COMDAT ?is_integral@?$integer_traits_base@E$0A@$0PP@@detail@boost@@2_NB
CONST	SEGMENT
?is_integral@?$integer_traits_base@E$0A@$0PP@@detail@boost@@2_NB DB 01H ; boost::detail::integer_traits_base<unsigned char,0,255>::is_integral
CONST	ENDS
;	COMDAT ?const_max@?$integer_traits_base@C$0?IA@$0HP@@detail@boost@@2CB
CONST	SEGMENT
?const_max@?$integer_traits_base@C$0?IA@$0HP@@detail@boost@@2CB DB 07fH ; boost::detail::integer_traits_base<signed char,-128,127>::const_max
CONST	ENDS
;	COMDAT ?const_min@?$integer_traits_base@C$0?IA@$0HP@@detail@boost@@2CB
CONST	SEGMENT
?const_min@?$integer_traits_base@C$0?IA@$0HP@@detail@boost@@2CB DB 080H ; boost::detail::integer_traits_base<signed char,-128,127>::const_min
CONST	ENDS
;	COMDAT ?is_integral@?$integer_traits_base@C$0?IA@$0HP@@detail@boost@@2_NB
CONST	SEGMENT
?is_integral@?$integer_traits_base@C$0?IA@$0HP@@detail@boost@@2_NB DB 01H ; boost::detail::integer_traits_base<signed char,-128,127>::is_integral
CONST	ENDS
;	COMDAT ?const_max@?$integer_traits_base@D$0?IA@$0HP@@detail@boost@@2DB
CONST	SEGMENT
?const_max@?$integer_traits_base@D$0?IA@$0HP@@detail@boost@@2DB DB 07fH ; boost::detail::integer_traits_base<char,-128,127>::const_max
CONST	ENDS
;	COMDAT ?const_min@?$integer_traits_base@D$0?IA@$0HP@@detail@boost@@2DB
CONST	SEGMENT
?const_min@?$integer_traits_base@D$0?IA@$0HP@@detail@boost@@2DB DB 080H ; boost::detail::integer_traits_base<char,-128,127>::const_min
CONST	ENDS
;	COMDAT ?is_integral@?$integer_traits_base@D$0?IA@$0HP@@detail@boost@@2_NB
CONST	SEGMENT
?is_integral@?$integer_traits_base@D$0?IA@$0HP@@detail@boost@@2_NB DB 01H ; boost::detail::integer_traits_base<char,-128,127>::is_integral
CONST	ENDS
;	COMDAT ?const_max@?$integer_traits_base@_N$0A@$00@detail@boost@@2_NB
CONST	SEGMENT
?const_max@?$integer_traits_base@_N$0A@$00@detail@boost@@2_NB DB 01H ; boost::detail::integer_traits_base<bool,0,1>::const_max
CONST	ENDS
;	COMDAT ?const_min@?$integer_traits_base@_N$0A@$00@detail@boost@@2_NB
CONST	SEGMENT
?const_min@?$integer_traits_base@_N$0A@$00@detail@boost@@2_NB DB 00H ; boost::detail::integer_traits_base<bool,0,1>::const_min
CONST	ENDS
;	COMDAT ?is_integral@?$integer_traits_base@_N$0A@$00@detail@boost@@2_NB
CONST	SEGMENT
?is_integral@?$integer_traits_base@_N$0A@$00@detail@boost@@2_NB DB 01H ; boost::detail::integer_traits_base<bool,0,1>::is_integral
CONST	ENDS
;	COMDAT ?end@?$_Iosb@H@std@@2W4_Seekdir@12@B
CONST	SEGMENT
?end@?$_Iosb@H@std@@2W4_Seekdir@12@B DD 02H		; std::_Iosb<int>::end
CONST	ENDS
;	COMDAT ?cur@?$_Iosb@H@std@@2W4_Seekdir@12@B
CONST	SEGMENT
?cur@?$_Iosb@H@std@@2W4_Seekdir@12@B DD 01H		; std::_Iosb<int>::cur
CONST	ENDS
;	COMDAT ?beg@?$_Iosb@H@std@@2W4_Seekdir@12@B
CONST	SEGMENT
?beg@?$_Iosb@H@std@@2W4_Seekdir@12@B DD 00H		; std::_Iosb<int>::beg
CONST	ENDS
;	COMDAT ?binary@?$_Iosb@H@std@@2W4_Openmode@12@B
CONST	SEGMENT
?binary@?$_Iosb@H@std@@2W4_Openmode@12@B DD 020H	; std::_Iosb<int>::binary
CONST	ENDS
;	COMDAT ?_Noreplace@?$_Iosb@H@std@@2W4_Openmode@12@B
CONST	SEGMENT
?_Noreplace@?$_Iosb@H@std@@2W4_Openmode@12@B DD 080H	; std::_Iosb<int>::_Noreplace
CONST	ENDS
;	COMDAT ?_Nocreate@?$_Iosb@H@std@@2W4_Openmode@12@B
CONST	SEGMENT
?_Nocreate@?$_Iosb@H@std@@2W4_Openmode@12@B DD 040H	; std::_Iosb<int>::_Nocreate
CONST	ENDS
;	COMDAT ?trunc@?$_Iosb@H@std@@2W4_Openmode@12@B
CONST	SEGMENT
?trunc@?$_Iosb@H@std@@2W4_Openmode@12@B DD 010H		; std::_Iosb<int>::trunc
CONST	ENDS
;	COMDAT ?app@?$_Iosb@H@std@@2W4_Openmode@12@B
CONST	SEGMENT
?app@?$_Iosb@H@std@@2W4_Openmode@12@B DD 08H		; std::_Iosb<int>::app
CONST	ENDS
;	COMDAT ?ate@?$_Iosb@H@std@@2W4_Openmode@12@B
CONST	SEGMENT
?ate@?$_Iosb@H@std@@2W4_Openmode@12@B DD 04H		; std::_Iosb<int>::ate
CONST	ENDS
;	COMDAT ?out@?$_Iosb@H@std@@2W4_Openmode@12@B
CONST	SEGMENT
?out@?$_Iosb@H@std@@2W4_Openmode@12@B DD 02H		; std::_Iosb<int>::out
CONST	ENDS
;	COMDAT ?in@?$_Iosb@H@std@@2W4_Openmode@12@B
CONST	SEGMENT
?in@?$_Iosb@H@std@@2W4_Openmode@12@B DD 01H		; std::_Iosb<int>::in
CONST	ENDS
;	COMDAT ?_Hardfail@?$_Iosb@H@std@@2W4_Iostate@12@B
CONST	SEGMENT
?_Hardfail@?$_Iosb@H@std@@2W4_Iostate@12@B DD 010H	; std::_Iosb<int>::_Hardfail
CONST	ENDS
;	COMDAT ?badbit@?$_Iosb@H@std@@2W4_Iostate@12@B
CONST	SEGMENT
?badbit@?$_Iosb@H@std@@2W4_Iostate@12@B DD 04H		; std::_Iosb<int>::badbit
CONST	ENDS
;	COMDAT ?failbit@?$_Iosb@H@std@@2W4_Iostate@12@B
CONST	SEGMENT
?failbit@?$_Iosb@H@std@@2W4_Iostate@12@B DD 02H		; std::_Iosb<int>::failbit
CONST	ENDS
;	COMDAT ?eofbit@?$_Iosb@H@std@@2W4_Iostate@12@B
CONST	SEGMENT
?eofbit@?$_Iosb@H@std@@2W4_Iostate@12@B DD 01H		; std::_Iosb<int>::eofbit
CONST	ENDS
;	COMDAT ?goodbit@?$_Iosb@H@std@@2W4_Iostate@12@B
CONST	SEGMENT
?goodbit@?$_Iosb@H@std@@2W4_Iostate@12@B DD 00H		; std::_Iosb<int>::goodbit
CONST	ENDS
;	COMDAT ?floatfield@?$_Iosb@H@std@@2W4_Fmtflags@12@B
CONST	SEGMENT
?floatfield@?$_Iosb@H@std@@2W4_Fmtflags@12@B DD 03000H	; std::_Iosb<int>::floatfield
CONST	ENDS
;	COMDAT ?basefield@?$_Iosb@H@std@@2W4_Fmtflags@12@B
CONST	SEGMENT
?basefield@?$_Iosb@H@std@@2W4_Fmtflags@12@B DD 0e00H	; std::_Iosb<int>::basefield
CONST	ENDS
;	COMDAT ?adjustfield@?$_Iosb@H@std@@2W4_Fmtflags@12@B
CONST	SEGMENT
?adjustfield@?$_Iosb@H@std@@2W4_Fmtflags@12@B DD 01c0H	; std::_Iosb<int>::adjustfield
CONST	ENDS
;	COMDAT ?_Stdio@?$_Iosb@H@std@@2W4_Fmtflags@12@B
CONST	SEGMENT
?_Stdio@?$_Iosb@H@std@@2W4_Fmtflags@12@B DD 08000H	; std::_Iosb<int>::_Stdio
CONST	ENDS
;	COMDAT ?boolalpha@?$_Iosb@H@std@@2W4_Fmtflags@12@B
CONST	SEGMENT
?boolalpha@?$_Iosb@H@std@@2W4_Fmtflags@12@B DD 04000H	; std::_Iosb<int>::boolalpha
CONST	ENDS
;	COMDAT ?hexfloat@?$_Iosb@H@std@@2W4_Fmtflags@12@B
CONST	SEGMENT
?hexfloat@?$_Iosb@H@std@@2W4_Fmtflags@12@B DD 03000H	; std::_Iosb<int>::hexfloat
CONST	ENDS
;	COMDAT ?fixed@?$_Iosb@H@std@@2W4_Fmtflags@12@B
CONST	SEGMENT
?fixed@?$_Iosb@H@std@@2W4_Fmtflags@12@B DD 02000H	; std::_Iosb<int>::fixed
CONST	ENDS
;	COMDAT ?scientific@?$_Iosb@H@std@@2W4_Fmtflags@12@B
CONST	SEGMENT
?scientific@?$_Iosb@H@std@@2W4_Fmtflags@12@B DD 01000H	; std::_Iosb<int>::scientific
CONST	ENDS
;	COMDAT ?hex@?$_Iosb@H@std@@2W4_Fmtflags@12@B
CONST	SEGMENT
?hex@?$_Iosb@H@std@@2W4_Fmtflags@12@B DD 0800H		; std::_Iosb<int>::hex
CONST	ENDS
;	COMDAT ?oct@?$_Iosb@H@std@@2W4_Fmtflags@12@B
CONST	SEGMENT
?oct@?$_Iosb@H@std@@2W4_Fmtflags@12@B DD 0400H		; std::_Iosb<int>::oct
CONST	ENDS
;	COMDAT ?dec@?$_Iosb@H@std@@2W4_Fmtflags@12@B
CONST	SEGMENT
?dec@?$_Iosb@H@std@@2W4_Fmtflags@12@B DD 0200H		; std::_Iosb<int>::dec
CONST	ENDS
;	COMDAT ?internal@?$_Iosb@H@std@@2W4_Fmtflags@12@B
CONST	SEGMENT
?internal@?$_Iosb@H@std@@2W4_Fmtflags@12@B DD 0100H	; std::_Iosb<int>::internal
CONST	ENDS
;	COMDAT ?right@?$_Iosb@H@std@@2W4_Fmtflags@12@B
CONST	SEGMENT
?right@?$_Iosb@H@std@@2W4_Fmtflags@12@B DD 080H		; std::_Iosb<int>::right
CONST	ENDS
;	COMDAT ?left@?$_Iosb@H@std@@2W4_Fmtflags@12@B
CONST	SEGMENT
?left@?$_Iosb@H@std@@2W4_Fmtflags@12@B DD 040H		; std::_Iosb<int>::left
CONST	ENDS
;	COMDAT ?showpos@?$_Iosb@H@std@@2W4_Fmtflags@12@B
CONST	SEGMENT
?showpos@?$_Iosb@H@std@@2W4_Fmtflags@12@B DD 020H	; std::_Iosb<int>::showpos
CONST	ENDS
;	COMDAT ?showpoint@?$_Iosb@H@std@@2W4_Fmtflags@12@B
CONST	SEGMENT
?showpoint@?$_Iosb@H@std@@2W4_Fmtflags@12@B DD 010H	; std::_Iosb<int>::showpoint
CONST	ENDS
;	COMDAT ?showbase@?$_Iosb@H@std@@2W4_Fmtflags@12@B
CONST	SEGMENT
?showbase@?$_Iosb@H@std@@2W4_Fmtflags@12@B DD 08H	; std::_Iosb<int>::showbase
CONST	ENDS
;	COMDAT ?uppercase@?$_Iosb@H@std@@2W4_Fmtflags@12@B
CONST	SEGMENT
?uppercase@?$_Iosb@H@std@@2W4_Fmtflags@12@B DD 04H	; std::_Iosb<int>::uppercase
CONST	ENDS
;	COMDAT ?unitbuf@?$_Iosb@H@std@@2W4_Fmtflags@12@B
CONST	SEGMENT
?unitbuf@?$_Iosb@H@std@@2W4_Fmtflags@12@B DD 02H	; std::_Iosb<int>::unitbuf
CONST	ENDS
;	COMDAT ?skipws@?$_Iosb@H@std@@2W4_Fmtflags@12@B
CONST	SEGMENT
?skipws@?$_Iosb@H@std@@2W4_Fmtflags@12@B DD 01H		; std::_Iosb<int>::skipws
CONST	ENDS
;	COMDAT ?none@?$_Locbase@H@std@@2HB
CONST	SEGMENT
?none@?$_Locbase@H@std@@2HB DD 00H			; std::_Locbase<int>::none
CONST	ENDS
;	COMDAT ?all@?$_Locbase@H@std@@2HB
CONST	SEGMENT
?all@?$_Locbase@H@std@@2HB DD 03fH			; std::_Locbase<int>::all
CONST	ENDS
;	COMDAT ?messages@?$_Locbase@H@std@@2HB
CONST	SEGMENT
?messages@?$_Locbase@H@std@@2HB DD 020H			; std::_Locbase<int>::messages
CONST	ENDS
;	COMDAT ?time@?$_Locbase@H@std@@2HB
CONST	SEGMENT
?time@?$_Locbase@H@std@@2HB DD 010H			; std::_Locbase<int>::time
CONST	ENDS
;	COMDAT ?numeric@?$_Locbase@H@std@@2HB
CONST	SEGMENT
?numeric@?$_Locbase@H@std@@2HB DD 08H			; std::_Locbase<int>::numeric
CONST	ENDS
;	COMDAT ?monetary@?$_Locbase@H@std@@2HB
CONST	SEGMENT
?monetary@?$_Locbase@H@std@@2HB DD 04H			; std::_Locbase<int>::monetary
CONST	ENDS
;	COMDAT ?ctype@?$_Locbase@H@std@@2HB
CONST	SEGMENT
?ctype@?$_Locbase@H@std@@2HB DD 02H			; std::_Locbase<int>::ctype
CONST	ENDS
;	COMDAT ?collate@?$_Locbase@H@std@@2HB
CONST	SEGMENT
?collate@?$_Locbase@H@std@@2HB DD 01H			; std::_Locbase<int>::collate
CONST	ENDS
;	COMDAT ?value@?$bool_@$0A@@mpl@boost@@2_NB
CONST	SEGMENT
?value@?$bool_@$0A@@mpl@boost@@2_NB DB 00H		; boost::mpl::bool_<0>::value
CONST	ENDS
;	COMDAT ?value@?$bool_@$00@mpl@boost@@2_NB
CONST	SEGMENT
?value@?$bool_@$00@mpl@boost@@2_NB DB 01H		; boost::mpl::bool_<1>::value
CONST	ENDS
;	COMDAT ?value@integral_c_tag@mpl@boost@@2HB
CONST	SEGMENT
?value@integral_c_tag@mpl@boost@@2HB DD 00H		; boost::mpl::integral_c_tag::value
CONST	ENDS
_DATA	SEGMENT
__bad_alloc_Message DD FLAT:??_C@_0P@GHFPNOJB@bad?5allocation?$AA@
_DATA	ENDS
;	COMDAT ??_C@_0P@GHFPNOJB@bad?5allocation?$AA@
CONST	SEGMENT
??_C@_0P@GHFPNOJB@bad?5allocation?$AA@ DB 'bad allocation', 00H ; `string'
CONST	ENDS
;	COMDAT ?_Value@?$_Is_swap_move@U_Swap_move_tag@std@@@std@@2_NB
CONST	SEGMENT
?_Value@?$_Is_swap_move@U_Swap_move_tag@std@@@std@@2_NB DB 01H ; std::_Is_swap_move<std::_Swap_move_tag>::_Value
CONST	ENDS
PUBLIC	??0?$Queue@VCommand@DRAMsimII@@@DRAMsimII@@QAE@I_N@Z ; DRAMsimII::Queue<DRAMsimII::Command>::Queue<DRAMsimII::Command>
PUBLIC	??0Bank@DRAMsimII@@QAE@ABVSettings@1@ABVTimingSpecification@1@ABVSystemConfiguration@1@@Z ; DRAMsimII::Bank::Bank
EXTRN	__RTC_CheckEsp:PROC
EXTRN	__allmul:PROC
EXTRN	__RTC_Shutdown:PROC
EXTRN	__RTC_InitBase:PROC
;	COMDAT rtc$TMZ
; File c:\users\crius\documents\visual studio 2008\projects\dramsimiihg\src\bank.cpp
rtc$TMZ	SEGMENT
__RTC_Shutdown.rtc$TMZ DD FLAT:__RTC_Shutdown
rtc$TMZ	ENDS
;	COMDAT rtc$IMZ
rtc$IMZ	SEGMENT
__RTC_InitBase.rtc$IMZ DD FLAT:__RTC_InitBase
; Function compile flags: /Odtp /RTCcsu /ZI
rtc$IMZ	ENDS
;	COMDAT ??0Bank@DRAMsimII@@QAE@ABVSettings@1@ABVTimingSpecification@1@ABVSystemConfiguration@1@@Z
_TEXT	SEGMENT
_this$ = -8						; size = 4
_settings$ = 8						; size = 4
_timingVal$ = 12					; size = 4
_systemConfigVal$ = 16					; size = 4
??0Bank@DRAMsimII@@QAE@ABVSettings@1@ABVTimingSpecification@1@ABVSystemConfiguration@1@@Z PROC ; DRAMsimII::Bank::Bank, COMDAT
; _this$ = ecx

; 51   : {}

	push	ebp
	mov	ebp, esp
	sub	esp, 204				; 000000ccH
	push	ebx
	push	esi
	push	edi
	push	ecx
	lea	edi, DWORD PTR [ebp-204]
	mov	ecx, 51					; 00000033H
	mov	eax, -858993460				; ccccccccH
	rep stosd
	pop	ecx
	mov	DWORD PTR _this$[ebp], ecx
	mov	eax, DWORD PTR _this$[ebp]
	mov	ecx, DWORD PTR _timingVal$[ebp]
	mov	DWORD PTR [eax], ecx
	mov	eax, DWORD PTR _this$[ebp]
	mov	ecx, DWORD PTR _systemConfigVal$[ebp]
	mov	DWORD PTR [eax+4], ecx
	push	0
	mov	eax, DWORD PTR _settings$[ebp]
	mov	ecx, DWORD PTR [eax+244]
	push	ecx
	mov	ecx, DWORD PTR _this$[ebp]
	add	ecx, 8
	call	??0?$Queue@VCommand@DRAMsimII@@@DRAMsimII@@QAE@I_N@Z ; DRAMsimII::Queue<DRAMsimII::Command>::Queue<DRAMsimII::Command>
	mov	eax, DWORD PTR _this$[ebp]
	mov	DWORD PTR [eax+48], -100		; ffffff9cH
	mov	DWORD PTR [eax+52], -1
	mov	eax, DWORD PTR _this$[ebp]
	mov	DWORD PTR [eax+56], -100		; ffffff9cH
	mov	DWORD PTR [eax+60], -1
	mov	eax, DWORD PTR _this$[ebp]
	mov	DWORD PTR [eax+64], -100		; ffffff9cH
	mov	DWORD PTR [eax+68], -1
	mov	eax, DWORD PTR _settings$[ebp]
	mov	ecx, DWORD PTR [eax+388]
	xor	edx, edx
	push	-1
	push	-1
	push	edx
	push	ecx
	call	__allmul
	mov	ecx, DWORD PTR _this$[ebp]
	mov	DWORD PTR [ecx+72], eax
	mov	DWORD PTR [ecx+76], edx
	mov	eax, DWORD PTR _this$[ebp]
	mov	DWORD PTR [eax+80], 8
	mov	eax, DWORD PTR _this$[ebp]
	mov	DWORD PTR [eax+84], 8
	mov	eax, DWORD PTR _this$[ebp]
	mov	DWORD PTR [eax+88], 0
	mov	DWORD PTR [eax+92], 0
	mov	eax, DWORD PTR _this$[ebp]
	mov	DWORD PTR [eax+96], 0
	mov	DWORD PTR [eax+100], 0
	mov	eax, DWORD PTR _this$[ebp]
	mov	DWORD PTR [eax+104], 0
	mov	DWORD PTR [eax+108], 0
	mov	eax, DWORD PTR _this$[ebp]
	mov	DWORD PTR [eax+112], 0
	mov	DWORD PTR [eax+116], 0
	mov	eax, DWORD PTR _this$[ebp]
	mov	DWORD PTR [eax+120], -1
	mov	eax, DWORD PTR _this$[ebp]
	mov	BYTE PTR [eax+124], 1
	mov	eax, DWORD PTR _this$[ebp]
	mov	DWORD PTR [eax+128], 0
	mov	eax, DWORD PTR _this$[ebp]
	mov	DWORD PTR [eax+132], 0
	mov	eax, DWORD PTR _this$[ebp]
	mov	DWORD PTR [eax+136], 0
	mov	eax, DWORD PTR _this$[ebp]
	mov	DWORD PTR [eax+140], 0
	mov	eax, DWORD PTR _this$[ebp]
	mov	DWORD PTR [eax+144], 0
	mov	eax, DWORD PTR _this$[ebp]
	mov	DWORD PTR [eax+148], 0
	mov	eax, DWORD PTR _this$[ebp]
	pop	edi
	pop	esi
	pop	ebx
	add	esp, 204				; 000000ccH
	cmp	ebp, esp
	call	__RTC_CheckEsp
	mov	esp, ebp
	pop	ebp
	ret	12					; 0000000cH
??0Bank@DRAMsimII@@QAE@ABVSettings@1@ABVTimingSpecification@1@ABVSystemConfiguration@1@@Z ENDP ; DRAMsimII::Bank::Bank
_TEXT	ENDS
PUBLIC	??0?$Queue@VCommand@DRAMsimII@@@DRAMsimII@@QAE@ABV01@@Z ; DRAMsimII::Queue<DRAMsimII::Command>::Queue<DRAMsimII::Command>
PUBLIC	??0Bank@DRAMsimII@@QAE@ABV01@ABVTimingSpecification@1@ABVSystemConfiguration@1@@Z ; DRAMsimII::Bank::Bank
; Function compile flags: /Odtp /RTCcsu /ZI
;	COMDAT ??0Bank@DRAMsimII@@QAE@ABV01@ABVTimingSpecification@1@ABVSystemConfiguration@1@@Z
_TEXT	SEGMENT
_this$ = -8						; size = 4
_rhs$ = 8						; size = 4
_timingVal$ = 12					; size = 4
_systemConfigVal$ = 16					; size = 4
??0Bank@DRAMsimII@@QAE@ABV01@ABVTimingSpecification@1@ABVSystemConfiguration@1@@Z PROC ; DRAMsimII::Bank::Bank, COMDAT
; _this$ = ecx

; 78   : {}

	push	ebp
	mov	ebp, esp
	sub	esp, 204				; 000000ccH
	push	ebx
	push	esi
	push	edi
	push	ecx
	lea	edi, DWORD PTR [ebp-204]
	mov	ecx, 51					; 00000033H
	mov	eax, -858993460				; ccccccccH
	rep stosd
	pop	ecx
	mov	DWORD PTR _this$[ebp], ecx
	mov	eax, DWORD PTR _this$[ebp]
	mov	ecx, DWORD PTR _timingVal$[ebp]
	mov	DWORD PTR [eax], ecx
	mov	eax, DWORD PTR _this$[ebp]
	mov	ecx, DWORD PTR _systemConfigVal$[ebp]
	mov	DWORD PTR [eax+4], ecx
	mov	eax, DWORD PTR _rhs$[ebp]
	add	eax, 8
	push	eax
	mov	ecx, DWORD PTR _this$[ebp]
	add	ecx, 8
	call	??0?$Queue@VCommand@DRAMsimII@@@DRAMsimII@@QAE@ABV01@@Z ; DRAMsimII::Queue<DRAMsimII::Command>::Queue<DRAMsimII::Command>
	mov	eax, DWORD PTR _this$[ebp]
	mov	ecx, DWORD PTR _rhs$[ebp]
	mov	edx, DWORD PTR [ecx+48]
	mov	DWORD PTR [eax+48], edx
	mov	ecx, DWORD PTR [ecx+52]
	mov	DWORD PTR [eax+52], ecx
	mov	eax, DWORD PTR _this$[ebp]
	mov	ecx, DWORD PTR _rhs$[ebp]
	mov	edx, DWORD PTR [ecx+56]
	mov	DWORD PTR [eax+56], edx
	mov	ecx, DWORD PTR [ecx+60]
	mov	DWORD PTR [eax+60], ecx
	mov	eax, DWORD PTR _this$[ebp]
	mov	ecx, DWORD PTR _rhs$[ebp]
	mov	edx, DWORD PTR [ecx+64]
	mov	DWORD PTR [eax+64], edx
	mov	ecx, DWORD PTR [ecx+68]
	mov	DWORD PTR [eax+68], ecx
	mov	eax, DWORD PTR _this$[ebp]
	mov	ecx, DWORD PTR _rhs$[ebp]
	mov	edx, DWORD PTR [ecx+72]
	mov	DWORD PTR [eax+72], edx
	mov	ecx, DWORD PTR [ecx+76]
	mov	DWORD PTR [eax+76], ecx
	mov	eax, DWORD PTR _this$[ebp]
	mov	ecx, DWORD PTR _rhs$[ebp]
	mov	edx, DWORD PTR [ecx+80]
	mov	DWORD PTR [eax+80], edx
	mov	eax, DWORD PTR _this$[ebp]
	mov	ecx, DWORD PTR _rhs$[ebp]
	mov	edx, DWORD PTR [ecx+84]
	mov	DWORD PTR [eax+84], edx
	mov	eax, DWORD PTR _this$[ebp]
	mov	ecx, DWORD PTR _rhs$[ebp]
	mov	edx, DWORD PTR [ecx+88]
	mov	DWORD PTR [eax+88], edx
	mov	ecx, DWORD PTR [ecx+92]
	mov	DWORD PTR [eax+92], ecx
	mov	eax, DWORD PTR _this$[ebp]
	mov	ecx, DWORD PTR _rhs$[ebp]
	mov	edx, DWORD PTR [ecx+96]
	mov	DWORD PTR [eax+96], edx
	mov	ecx, DWORD PTR [ecx+100]
	mov	DWORD PTR [eax+100], ecx
	mov	eax, DWORD PTR _this$[ebp]
	mov	ecx, DWORD PTR _rhs$[ebp]
	mov	edx, DWORD PTR [ecx+104]
	mov	DWORD PTR [eax+104], edx
	mov	ecx, DWORD PTR [ecx+108]
	mov	DWORD PTR [eax+108], ecx
	mov	eax, DWORD PTR _this$[ebp]
	mov	ecx, DWORD PTR _rhs$[ebp]
	mov	edx, DWORD PTR [ecx+112]
	mov	DWORD PTR [eax+112], edx
	mov	ecx, DWORD PTR [ecx+116]
	mov	DWORD PTR [eax+116], ecx
	mov	eax, DWORD PTR _this$[ebp]
	mov	ecx, DWORD PTR _rhs$[ebp]
	mov	edx, DWORD PTR [ecx+120]
	mov	DWORD PTR [eax+120], edx
	mov	eax, DWORD PTR _this$[ebp]
	mov	ecx, DWORD PTR _rhs$[ebp]
	mov	dl, BYTE PTR [ecx+124]
	mov	BYTE PTR [eax+124], dl
	mov	eax, DWORD PTR _this$[ebp]
	mov	ecx, DWORD PTR _rhs$[ebp]
	mov	edx, DWORD PTR [ecx+128]
	mov	DWORD PTR [eax+128], edx
	mov	eax, DWORD PTR _this$[ebp]
	mov	ecx, DWORD PTR _rhs$[ebp]
	mov	edx, DWORD PTR [ecx+132]
	mov	DWORD PTR [eax+132], edx
	mov	eax, DWORD PTR _this$[ebp]
	mov	ecx, DWORD PTR _rhs$[ebp]
	mov	edx, DWORD PTR [ecx+136]
	mov	DWORD PTR [eax+136], edx
	mov	eax, DWORD PTR _this$[ebp]
	mov	ecx, DWORD PTR _rhs$[ebp]
	mov	edx, DWORD PTR [ecx+140]
	mov	DWORD PTR [eax+140], edx
	mov	eax, DWORD PTR _this$[ebp]
	mov	ecx, DWORD PTR _rhs$[ebp]
	mov	edx, DWORD PTR [ecx+144]
	mov	DWORD PTR [eax+144], edx
	mov	eax, DWORD PTR _this$[ebp]
	mov	ecx, DWORD PTR _rhs$[ebp]
	mov	edx, DWORD PTR [ecx+148]
	mov	DWORD PTR [eax+148], edx
	mov	eax, DWORD PTR _this$[ebp]
	pop	edi
	pop	esi
	pop	ebx
	add	esp, 204				; 000000ccH
	cmp	ebp, esp
	call	__RTC_CheckEsp
	mov	esp, ebp
	pop	ebp
	ret	12					; 0000000cH
??0Bank@DRAMsimII@@QAE@ABV01@ABVTimingSpecification@1@ABVSystemConfiguration@1@@Z ENDP ; DRAMsimII::Bank::Bank
_TEXT	ENDS
PUBLIC	??0Bank@DRAMsimII@@QAE@ABV01@@Z			; DRAMsimII::Bank::Bank
; Function compile flags: /Odtp /RTCcsu /ZI
;	COMDAT ??0Bank@DRAMsimII@@QAE@ABV01@@Z
_TEXT	SEGMENT
_this$ = -8						; size = 4
_rhs$ = 8						; size = 4
??0Bank@DRAMsimII@@QAE@ABV01@@Z PROC			; DRAMsimII::Bank::Bank, COMDAT
; _this$ = ecx

; 105  : {}

	push	ebp
	mov	ebp, esp
	sub	esp, 204				; 000000ccH
	push	ebx
	push	esi
	push	edi
	push	ecx
	lea	edi, DWORD PTR [ebp-204]
	mov	ecx, 51					; 00000033H
	mov	eax, -858993460				; ccccccccH
	rep stosd
	pop	ecx
	mov	DWORD PTR _this$[ebp], ecx
	mov	eax, DWORD PTR _this$[ebp]
	mov	ecx, DWORD PTR _rhs$[ebp]
	mov	edx, DWORD PTR [ecx]
	mov	DWORD PTR [eax], edx
	mov	eax, DWORD PTR _this$[ebp]
	mov	ecx, DWORD PTR _rhs$[ebp]
	mov	edx, DWORD PTR [ecx+4]
	mov	DWORD PTR [eax+4], edx
	mov	eax, DWORD PTR _rhs$[ebp]
	add	eax, 8
	push	eax
	mov	ecx, DWORD PTR _this$[ebp]
	add	ecx, 8
	call	??0?$Queue@VCommand@DRAMsimII@@@DRAMsimII@@QAE@ABV01@@Z ; DRAMsimII::Queue<DRAMsimII::Command>::Queue<DRAMsimII::Command>
	mov	eax, DWORD PTR _this$[ebp]
	mov	ecx, DWORD PTR _rhs$[ebp]
	mov	edx, DWORD PTR [ecx+48]
	mov	DWORD PTR [eax+48], edx
	mov	ecx, DWORD PTR [ecx+52]
	mov	DWORD PTR [eax+52], ecx
	mov	eax, DWORD PTR _this$[ebp]
	mov	ecx, DWORD PTR _rhs$[ebp]
	mov	edx, DWORD PTR [ecx+56]
	mov	DWORD PTR [eax+56], edx
	mov	ecx, DWORD PTR [ecx+60]
	mov	DWORD PTR [eax+60], ecx
	mov	eax, DWORD PTR _this$[ebp]
	mov	ecx, DWORD PTR _rhs$[ebp]
	mov	edx, DWORD PTR [ecx+64]
	mov	DWORD PTR [eax+64], edx
	mov	ecx, DWORD PTR [ecx+68]
	mov	DWORD PTR [eax+68], ecx
	mov	eax, DWORD PTR _this$[ebp]
	mov	ecx, DWORD PTR _rhs$[ebp]
	mov	edx, DWORD PTR [ecx+72]
	mov	DWORD PTR [eax+72], edx
	mov	ecx, DWORD PTR [ecx+76]
	mov	DWORD PTR [eax+76], ecx
	mov	eax, DWORD PTR _this$[ebp]
	mov	ecx, DWORD PTR _rhs$[ebp]
	mov	edx, DWORD PTR [ecx+80]
	mov	DWORD PTR [eax+80], edx
	mov	eax, DWORD PTR _this$[ebp]
	mov	ecx, DWORD PTR _rhs$[ebp]
	mov	edx, DWORD PTR [ecx+84]
	mov	DWORD PTR [eax+84], edx
	mov	eax, DWORD PTR _this$[ebp]
	mov	ecx, DWORD PTR _rhs$[ebp]
	mov	edx, DWORD PTR [ecx+88]
	mov	DWORD PTR [eax+88], edx
	mov	ecx, DWORD PTR [ecx+92]
	mov	DWORD PTR [eax+92], ecx
	mov	eax, DWORD PTR _this$[ebp]
	mov	ecx, DWORD PTR _rhs$[ebp]
	mov	edx, DWORD PTR [ecx+96]
	mov	DWORD PTR [eax+96], edx
	mov	ecx, DWORD PTR [ecx+100]
	mov	DWORD PTR [eax+100], ecx
	mov	eax, DWORD PTR _this$[ebp]
	mov	ecx, DWORD PTR _rhs$[ebp]
	mov	edx, DWORD PTR [ecx+104]
	mov	DWORD PTR [eax+104], edx
	mov	ecx, DWORD PTR [ecx+108]
	mov	DWORD PTR [eax+108], ecx
	mov	eax, DWORD PTR _this$[ebp]
	mov	ecx, DWORD PTR _rhs$[ebp]
	mov	edx, DWORD PTR [ecx+112]
	mov	DWORD PTR [eax+112], edx
	mov	ecx, DWORD PTR [ecx+116]
	mov	DWORD PTR [eax+116], ecx
	mov	eax, DWORD PTR _this$[ebp]
	mov	ecx, DWORD PTR _rhs$[ebp]
	mov	edx, DWORD PTR [ecx+120]
	mov	DWORD PTR [eax+120], edx
	mov	eax, DWORD PTR _this$[ebp]
	mov	ecx, DWORD PTR _rhs$[ebp]
	mov	dl, BYTE PTR [ecx+124]
	mov	BYTE PTR [eax+124], dl
	mov	eax, DWORD PTR _this$[ebp]
	mov	ecx, DWORD PTR _rhs$[ebp]
	mov	edx, DWORD PTR [ecx+128]
	mov	DWORD PTR [eax+128], edx
	mov	eax, DWORD PTR _this$[ebp]
	mov	ecx, DWORD PTR _rhs$[ebp]
	mov	edx, DWORD PTR [ecx+132]
	mov	DWORD PTR [eax+132], edx
	mov	eax, DWORD PTR _this$[ebp]
	mov	ecx, DWORD PTR _rhs$[ebp]
	mov	edx, DWORD PTR [ecx+136]
	mov	DWORD PTR [eax+136], edx
	mov	eax, DWORD PTR _this$[ebp]
	mov	ecx, DWORD PTR _rhs$[ebp]
	mov	edx, DWORD PTR [ecx+140]
	mov	DWORD PTR [eax+140], edx
	mov	eax, DWORD PTR _this$[ebp]
	mov	ecx, DWORD PTR _rhs$[ebp]
	mov	edx, DWORD PTR [ecx+144]
	mov	DWORD PTR [eax+144], edx
	mov	eax, DWORD PTR _this$[ebp]
	mov	ecx, DWORD PTR _rhs$[ebp]
	mov	edx, DWORD PTR [ecx+148]
	mov	DWORD PTR [eax+148], edx
	mov	eax, DWORD PTR _this$[ebp]
	pop	edi
	pop	esi
	pop	ebx
	add	esp, 204				; 000000ccH
	cmp	ebp, esp
	call	__RTC_CheckEsp
	mov	esp, ebp
	pop	ebp
	ret	4
??0Bank@DRAMsimII@@QAE@ABV01@@Z ENDP			; DRAMsimII::Bank::Bank
_TEXT	ENDS
PUBLIC	??0Bank@DRAMsimII@@AAE@ABVTimingSpecification@1@ABVSystemConfiguration@1@@Z ; DRAMsimII::Bank::Bank
; Function compile flags: /Odtp /RTCcsu /ZI
;	COMDAT ??0Bank@DRAMsimII@@AAE@ABVTimingSpecification@1@ABVSystemConfiguration@1@@Z
_TEXT	SEGMENT
_this$ = -8						; size = 4
_timingVal$ = 8						; size = 4
_systemConfigVal$ = 12					; size = 4
??0Bank@DRAMsimII@@AAE@ABVTimingSpecification@1@ABVSystemConfiguration@1@@Z PROC ; DRAMsimII::Bank::Bank, COMDAT
; _this$ = ecx

; 132  : {}

	push	ebp
	mov	ebp, esp
	sub	esp, 204				; 000000ccH
	push	ebx
	push	esi
	push	edi
	push	ecx
	lea	edi, DWORD PTR [ebp-204]
	mov	ecx, 51					; 00000033H
	mov	eax, -858993460				; ccccccccH
	rep stosd
	pop	ecx
	mov	DWORD PTR _this$[ebp], ecx
	mov	eax, DWORD PTR _this$[ebp]
	mov	ecx, DWORD PTR _timingVal$[ebp]
	mov	DWORD PTR [eax], ecx
	mov	eax, DWORD PTR _this$[ebp]
	mov	ecx, DWORD PTR _systemConfigVal$[ebp]
	mov	DWORD PTR [eax+4], ecx
	push	0
	push	0
	mov	ecx, DWORD PTR _this$[ebp]
	add	ecx, 8
	call	??0?$Queue@VCommand@DRAMsimII@@@DRAMsimII@@QAE@I_N@Z ; DRAMsimII::Queue<DRAMsimII::Command>::Queue<DRAMsimII::Command>
	mov	eax, DWORD PTR _this$[ebp]
	mov	DWORD PTR [eax+48], 0
	mov	DWORD PTR [eax+52], 0
	mov	eax, DWORD PTR _this$[ebp]
	mov	DWORD PTR [eax+56], 0
	mov	DWORD PTR [eax+60], 0
	mov	eax, DWORD PTR _this$[ebp]
	mov	DWORD PTR [eax+64], 0
	mov	DWORD PTR [eax+68], 0
	mov	eax, DWORD PTR _this$[ebp]
	mov	DWORD PTR [eax+72], 0
	mov	DWORD PTR [eax+76], 0
	mov	eax, DWORD PTR _this$[ebp]
	mov	DWORD PTR [eax+80], 0
	mov	eax, DWORD PTR _this$[ebp]
	mov	DWORD PTR [eax+84], 0
	mov	eax, DWORD PTR _this$[ebp]
	mov	DWORD PTR [eax+88], 0
	mov	DWORD PTR [eax+92], 0
	mov	eax, DWORD PTR _this$[ebp]
	mov	DWORD PTR [eax+96], 0
	mov	DWORD PTR [eax+100], 0
	mov	eax, DWORD PTR _this$[ebp]
	mov	DWORD PTR [eax+104], 0
	mov	DWORD PTR [eax+108], 0
	mov	eax, DWORD PTR _this$[ebp]
	mov	DWORD PTR [eax+112], 0
	mov	DWORD PTR [eax+116], 0
	mov	eax, DWORD PTR _this$[ebp]
	mov	DWORD PTR [eax+120], 0
	mov	eax, DWORD PTR _this$[ebp]
	mov	BYTE PTR [eax+124], 0
	mov	eax, DWORD PTR _this$[ebp]
	mov	DWORD PTR [eax+128], 0
	mov	eax, DWORD PTR _this$[ebp]
	mov	DWORD PTR [eax+132], 0
	mov	eax, DWORD PTR _this$[ebp]
	mov	DWORD PTR [eax+136], 0
	mov	eax, DWORD PTR _this$[ebp]
	mov	DWORD PTR [eax+140], 0
	mov	eax, DWORD PTR _this$[ebp]
	mov	DWORD PTR [eax+144], 0
	mov	eax, DWORD PTR _this$[ebp]
	mov	DWORD PTR [eax+148], 0
	mov	eax, DWORD PTR _this$[ebp]
	pop	edi
	pop	esi
	pop	ebx
	add	esp, 204				; 000000ccH
	cmp	ebp, esp
	call	__RTC_CheckEsp
	mov	esp, ebp
	pop	ebp
	ret	8
??0Bank@DRAMsimII@@AAE@ABVTimingSpecification@1@ABVSystemConfiguration@1@@Z ENDP ; DRAMsimII::Bank::Bank
_TEXT	ENDS
PUBLIC	?tRAS@TimingSpecification@DRAMsimII@@QBEHXZ	; DRAMsimII::TimingSpecification::tRAS
PUBLIC	?tAL@TimingSpecification@DRAMsimII@@QBEHXZ	; DRAMsimII::TimingSpecification::tAL
PUBLIC	?tRCD@TimingSpecification@DRAMsimII@@QBEHXZ	; DRAMsimII::TimingSpecification::tRCD
PUBLIC	??$max@_J@std@@YAAB_JAB_J0@Z			; std::max<__int64>
PUBLIC	?tRC@TimingSpecification@DRAMsimII@@QBEHXZ	; DRAMsimII::TimingSpecification::tRC
PUBLIC	?getRow@Address@DRAMsimII@@QBEIXZ		; DRAMsimII::Address::getRow
PUBLIC	?getAddress@Event@DRAMsimII@@QBEABVAddress@2@XZ	; DRAMsimII::Event::getAddress
PUBLIC	??_C@_1GA@LGOHCJAN@?$AAc?$AAu?$AAr?$AAr?$AAe?$AAn?$AAt?$AAT?$AAi?$AAm?$AAe?$AA?5?$AA?$DO?$AA?$DN?$AA?5?$AAl?$AAa?$AAs?$AAt?$AAP?$AAr?$AAe?$AAc?$AAh?$AAa?$AAr?$AAg?$AAe?$AAT?$AAi?$AAm?$AAe@ ; `string'
PUBLIC	?tRP@TimingSpecification@DRAMsimII@@QBEHXZ	; DRAMsimII::TimingSpecification::tRP
PUBLIC	??_C@_1BG@JHKGMDAP@?$AA?$CB?$AAa?$AAc?$AAt?$AAi?$AAv?$AAa?$AAt?$AAe?$AAd?$AA?$AA@ ; `string'
PUBLIC	??_C@_1JM@ODNEBCJL@?$AAc?$AA?3?$AA?2?$AAu?$AAs?$AAe?$AAr?$AAs?$AA?2?$AAc?$AAr?$AAi?$AAu?$AAs?$AA?2?$AAd?$AAo?$AAc?$AAu?$AAm?$AAe?$AAn?$AAt?$AAs?$AA?2?$AAv?$AAi?$AAs?$AAu?$AAa?$AAl?$AA?5@ ; `string'
PUBLIC	?__LINE__Var@?1??issueRAS@Bank@DRAMsimII@@QAEX_JPBVCommand@3@@Z@4JA ; `DRAMsimII::Bank::issueRAS'::`2'::__LINE__Var
PUBLIC	?issueRAS@Bank@DRAMsimII@@QAEX_JPBVCommand@2@@Z	; DRAMsimII::Bank::issueRAS
EXTRN	__imp___wassert:PROC
;	COMDAT ??_C@_1GA@LGOHCJAN@?$AAc?$AAu?$AAr?$AAr?$AAe?$AAn?$AAt?$AAT?$AAi?$AAm?$AAe?$AA?5?$AA?$DO?$AA?$DN?$AA?5?$AAl?$AAa?$AAs?$AAt?$AAP?$AAr?$AAe?$AAc?$AAh?$AAa?$AAr?$AAg?$AAe?$AAT?$AAi?$AAm?$AAe@
CONST	SEGMENT
??_C@_1GA@LGOHCJAN@?$AAc?$AAu?$AAr?$AAr?$AAe?$AAn?$AAt?$AAT?$AAi?$AAm?$AAe?$AA?5?$AA?$DO?$AA?$DN?$AA?5?$AAl?$AAa?$AAs?$AAt?$AAP?$AAr?$AAe?$AAc?$AAh?$AAa?$AAr?$AAg?$AAe?$AAT?$AAi?$AAm?$AAe@ DB 'c'
	DB	00H, 'u', 00H, 'r', 00H, 'r', 00H, 'e', 00H, 'n', 00H, 't', 00H
	DB	'T', 00H, 'i', 00H, 'm', 00H, 'e', 00H, ' ', 00H, '>', 00H, '='
	DB	00H, ' ', 00H, 'l', 00H, 'a', 00H, 's', 00H, 't', 00H, 'P', 00H
	DB	'r', 00H, 'e', 00H, 'c', 00H, 'h', 00H, 'a', 00H, 'r', 00H, 'g'
	DB	00H, 'e', 00H, 'T', 00H, 'i', 00H, 'm', 00H, 'e', 00H, ' ', 00H
	DB	'+', 00H, ' ', 00H, 't', 00H, 'i', 00H, 'm', 00H, 'i', 00H, 'n'
	DB	00H, 'g', 00H, '.', 00H, 't', 00H, 'R', 00H, 'P', 00H, '(', 00H
	DB	')', 00H, 00H, 00H				; `string'
CONST	ENDS
;	COMDAT ??_C@_1BG@JHKGMDAP@?$AA?$CB?$AAa?$AAc?$AAt?$AAi?$AAv?$AAa?$AAt?$AAe?$AAd?$AA?$AA@
CONST	SEGMENT
??_C@_1BG@JHKGMDAP@?$AA?$CB?$AAa?$AAc?$AAt?$AAi?$AAv?$AAa?$AAt?$AAe?$AAd?$AA?$AA@ DB '!'
	DB	00H, 'a', 00H, 'c', 00H, 't', 00H, 'i', 00H, 'v', 00H, 'a', 00H
	DB	't', 00H, 'e', 00H, 'd', 00H, 00H, 00H	; `string'
CONST	ENDS
;	COMDAT ??_C@_1JM@ODNEBCJL@?$AAc?$AA?3?$AA?2?$AAu?$AAs?$AAe?$AAr?$AAs?$AA?2?$AAc?$AAr?$AAi?$AAu?$AAs?$AA?2?$AAd?$AAo?$AAc?$AAu?$AAm?$AAe?$AAn?$AAt?$AAs?$AA?2?$AAv?$AAi?$AAs?$AAu?$AAa?$AAl?$AA?5@
CONST	SEGMENT
??_C@_1JM@ODNEBCJL@?$AAc?$AA?3?$AA?2?$AAu?$AAs?$AAe?$AAr?$AAs?$AA?2?$AAc?$AAr?$AAi?$AAu?$AAs?$AA?2?$AAd?$AAo?$AAc?$AAu?$AAm?$AAe?$AAn?$AAt?$AAs?$AA?2?$AAv?$AAi?$AAs?$AAu?$AAa?$AAl?$AA?5@ DB 'c'
	DB	00H, ':', 00H, '\', 00H, 'u', 00H, 's', 00H, 'e', 00H, 'r', 00H
	DB	's', 00H, '\', 00H, 'c', 00H, 'r', 00H, 'i', 00H, 'u', 00H, 's'
	DB	00H, '\', 00H, 'd', 00H, 'o', 00H, 'c', 00H, 'u', 00H, 'm', 00H
	DB	'e', 00H, 'n', 00H, 't', 00H, 's', 00H, '\', 00H, 'v', 00H, 'i'
	DB	00H, 's', 00H, 'u', 00H, 'a', 00H, 'l', 00H, ' ', 00H, 's', 00H
	DB	't', 00H, 'u', 00H, 'd', 00H, 'i', 00H, 'o', 00H, ' ', 00H, '2'
	DB	00H, '0', 00H, '0', 00H, '8', 00H, '\', 00H, 'p', 00H, 'r', 00H
	DB	'o', 00H, 'j', 00H, 'e', 00H, 'c', 00H, 't', 00H, 's', 00H, '\'
	DB	00H, 'd', 00H, 'r', 00H, 'a', 00H, 'm', 00H, 's', 00H, 'i', 00H
	DB	'm', 00H, 'i', 00H, 'i', 00H, 'h', 00H, 'g', 00H, '\', 00H, 's'
	DB	00H, 'r', 00H, 'c', 00H, '\', 00H, 'b', 00H, 'a', 00H, 'n', 00H
	DB	'k', 00H, '.', 00H, 'c', 00H, 'p', 00H, 'p', 00H, 00H, 00H ; `string'
CONST	ENDS
;	COMDAT ?__LINE__Var@?1??issueRAS@Bank@DRAMsimII@@QAEX_JPBVCommand@3@@Z@4JA
_DATA	SEGMENT
?__LINE__Var@?1??issueRAS@Bank@DRAMsimII@@QAEX_JPBVCommand@3@@Z@4JA DD 08aH ; `DRAMsimII::Bank::issueRAS'::`2'::__LINE__Var
; Function compile flags: /Odtp /RTCcsu /ZI
_DATA	ENDS
;	COMDAT ?issueRAS@Bank@DRAMsimII@@QAEX_JPBVCommand@2@@Z
_TEXT	SEGMENT
tv194 = -276						; size = 8
$T160253 = -264						; size = 8
$T160254 = -248						; size = 8
$T160255 = -232						; size = 8
$T160256 = -216						; size = 8
_this$ = -8						; size = 4
_currentTime$ = 8					; size = 8
_currentCommand$ = 16					; size = 4
?issueRAS@Bank@DRAMsimII@@QAEX_JPBVCommand@2@@Z PROC	; DRAMsimII::Bank::issueRAS, COMDAT
; _this$ = ecx

; 138  : {

	push	ebp
	mov	ebp, esp
	sub	esp, 276				; 00000114H
	push	ebx
	push	esi
	push	edi
	push	ecx
	lea	edi, DWORD PTR [ebp-276]
	mov	ecx, 69					; 00000045H
	mov	eax, -858993460				; ccccccccH
	rep stosd
	pop	ecx
	mov	DWORD PTR _this$[ebp], ecx

; 139  : 	// make sure activates follow precharges
; 140  : 	assert(!activated);

	mov	eax, DWORD PTR _this$[ebp]
	movzx	ecx, BYTE PTR [eax+124]
	test	ecx, ecx
	je	SHORT $LN3@issueRAS
	mov	edx, DWORD PTR ?__LINE__Var@?1??issueRAS@Bank@DRAMsimII@@QAEX_JPBVCommand@3@@Z@4JA
	add	edx, 2
	mov	esi, esp
	push	edx
	push	OFFSET ??_C@_1JM@ODNEBCJL@?$AAc?$AA?3?$AA?2?$AAu?$AAs?$AAe?$AAr?$AAs?$AA?2?$AAc?$AAr?$AAi?$AAu?$AAs?$AA?2?$AAd?$AAo?$AAc?$AAu?$AAm?$AAe?$AAn?$AAt?$AAs?$AA?2?$AAv?$AAi?$AAs?$AAu?$AAa?$AAl?$AA?5@
	push	OFFSET ??_C@_1BG@JHKGMDAP@?$AA?$CB?$AAa?$AAc?$AAt?$AAi?$AAv?$AAa?$AAt?$AAe?$AAd?$AA?$AA@
	call	DWORD PTR __imp___wassert
	add	esp, 12					; 0000000cH
	cmp	esi, esp
	call	__RTC_CheckEsp
$LN3@issueRAS:

; 141  : 	assert(currentTime >= lastPrechargeTime + timing.tRP());

	mov	eax, DWORD PTR _this$[ebp]
	mov	ecx, DWORD PTR [eax]
	call	?tRP@TimingSpecification@DRAMsimII@@QBEHXZ ; DRAMsimII::TimingSpecification::tRP
	cdq
	mov	ecx, DWORD PTR _this$[ebp]
	add	eax, DWORD PTR [ecx+72]
	mov	ecx, DWORD PTR [ecx+76]
	adc	ecx, edx
	mov	DWORD PTR tv194[ebp], eax
	mov	DWORD PTR tv194[ebp+4], ecx
	mov	edx, DWORD PTR _currentTime$[ebp+4]
	cmp	edx, DWORD PTR tv194[ebp+4]
	jg	SHORT $LN4@issueRAS
	jl	SHORT $LN5@issueRAS
	mov	eax, DWORD PTR _currentTime$[ebp]
	cmp	eax, DWORD PTR tv194[ebp]
	jae	SHORT $LN4@issueRAS
$LN5@issueRAS:
	mov	ecx, DWORD PTR ?__LINE__Var@?1??issueRAS@Bank@DRAMsimII@@QAEX_JPBVCommand@3@@Z@4JA
	add	ecx, 3
	mov	esi, esp
	push	ecx
	push	OFFSET ??_C@_1JM@ODNEBCJL@?$AAc?$AA?3?$AA?2?$AAu?$AAs?$AAe?$AAr?$AAs?$AA?2?$AAc?$AAr?$AAi?$AAu?$AAs?$AA?2?$AAd?$AAo?$AAc?$AAu?$AAm?$AAe?$AAn?$AAt?$AAs?$AA?2?$AAv?$AAi?$AAs?$AAu?$AAa?$AAl?$AA?5@
	push	OFFSET ??_C@_1GA@LGOHCJAN@?$AAc?$AAu?$AAr?$AAr?$AAe?$AAn?$AAt?$AAT?$AAi?$AAm?$AAe?$AA?5?$AA?$DO?$AA?$DN?$AA?5?$AAl?$AAa?$AAs?$AAt?$AAP?$AAr?$AAe?$AAc?$AAh?$AAa?$AAr?$AAg?$AAe?$AAT?$AAi?$AAm?$AAe@
	call	DWORD PTR __imp___wassert
	add	esp, 12					; 0000000cH
	cmp	esi, esp
	call	__RTC_CheckEsp
$LN4@issueRAS:

; 142  : 
; 143  : 	activated = true;

	mov	eax, DWORD PTR _this$[ebp]
	mov	BYTE PTR [eax+124], 1

; 144  : 
; 145  : 	lastRASTime = currentTime;

	mov	eax, DWORD PTR _this$[ebp]
	mov	ecx, DWORD PTR _currentTime$[ebp]
	mov	DWORD PTR [eax+48], ecx
	mov	edx, DWORD PTR _currentTime$[ebp+4]
	mov	DWORD PTR [eax+52], edx

; 146  : 	openRowID = currentCommand->getAddress().getRow();

	mov	ecx, DWORD PTR _currentCommand$[ebp]
	call	?getAddress@Event@DRAMsimII@@QBEABVAddress@2@XZ ; DRAMsimII::Event::getAddress
	mov	ecx, eax
	call	?getRow@Address@DRAMsimII@@QBEIXZ	; DRAMsimII::Address::getRow
	mov	ecx, DWORD PTR _this$[ebp]
	mov	DWORD PTR [ecx+120], eax

; 147  : 	RASCount++;

	mov	eax, DWORD PTR _this$[ebp]
	mov	ecx, DWORD PTR [eax+128]
	add	ecx, 1
	mov	edx, DWORD PTR _this$[ebp]
	mov	DWORD PTR [edx+128], ecx

; 148  : 
; 149  : 	// calculate when the next few commands can happen
; 150  : 	nextActivateTime = max(nextActivateTime, currentTime + timing.tRC());

	mov	eax, DWORD PTR _this$[ebp]
	mov	ecx, DWORD PTR [eax]
	call	?tRC@TimingSpecification@DRAMsimII@@QBEHXZ ; DRAMsimII::TimingSpecification::tRC
	cdq
	add	eax, DWORD PTR _currentTime$[ebp]
	mov	ecx, DWORD PTR _currentTime$[ebp+4]
	adc	ecx, edx
	mov	DWORD PTR $T160253[ebp], eax
	mov	DWORD PTR $T160253[ebp+4], ecx
	lea	edx, DWORD PTR $T160253[ebp]
	push	edx
	mov	eax, DWORD PTR _this$[ebp]
	add	eax, 88					; 00000058H
	push	eax
	call	??$max@_J@std@@YAAB_JAB_J0@Z		; std::max<__int64>
	add	esp, 8
	mov	ecx, DWORD PTR _this$[ebp]
	mov	edx, DWORD PTR [eax]
	mov	DWORD PTR [ecx+88], edx
	mov	eax, DWORD PTR [eax+4]
	mov	DWORD PTR [ecx+92], eax

; 151  : 	nextReadTime = max(nextReadTime, currentTime + timing.tRCD() - timing.tAL());

	mov	eax, DWORD PTR _this$[ebp]
	mov	ecx, DWORD PTR [eax]
	call	?tRCD@TimingSpecification@DRAMsimII@@QBEHXZ ; DRAMsimII::TimingSpecification::tRCD
	cdq
	mov	esi, eax
	add	esi, DWORD PTR _currentTime$[ebp]
	mov	edi, DWORD PTR _currentTime$[ebp+4]
	adc	edi, edx
	mov	ecx, DWORD PTR _this$[ebp]
	mov	ecx, DWORD PTR [ecx]
	call	?tAL@TimingSpecification@DRAMsimII@@QBEHXZ ; DRAMsimII::TimingSpecification::tAL
	cdq
	sub	esi, eax
	sbb	edi, edx
	mov	DWORD PTR $T160254[ebp], esi
	mov	DWORD PTR $T160254[ebp+4], edi
	lea	edx, DWORD PTR $T160254[ebp]
	push	edx
	mov	eax, DWORD PTR _this$[ebp]
	add	eax, 96					; 00000060H
	push	eax
	call	??$max@_J@std@@YAAB_JAB_J0@Z		; std::max<__int64>
	add	esp, 8
	mov	ecx, DWORD PTR _this$[ebp]
	mov	edx, DWORD PTR [eax]
	mov	DWORD PTR [ecx+96], edx
	mov	eax, DWORD PTR [eax+4]
	mov	DWORD PTR [ecx+100], eax

; 152  : 	nextWriteTime = max(nextWriteTime, currentTime + timing.tRCD() - timing.tAL());

	mov	eax, DWORD PTR _this$[ebp]
	mov	ecx, DWORD PTR [eax]
	call	?tRCD@TimingSpecification@DRAMsimII@@QBEHXZ ; DRAMsimII::TimingSpecification::tRCD
	cdq
	mov	esi, eax
	add	esi, DWORD PTR _currentTime$[ebp]
	mov	edi, DWORD PTR _currentTime$[ebp+4]
	adc	edi, edx
	mov	ecx, DWORD PTR _this$[ebp]
	mov	ecx, DWORD PTR [ecx]
	call	?tAL@TimingSpecification@DRAMsimII@@QBEHXZ ; DRAMsimII::TimingSpecification::tAL
	cdq
	sub	esi, eax
	sbb	edi, edx
	mov	DWORD PTR $T160255[ebp], esi
	mov	DWORD PTR $T160255[ebp+4], edi
	lea	edx, DWORD PTR $T160255[ebp]
	push	edx
	mov	eax, DWORD PTR _this$[ebp]
	add	eax, 104				; 00000068H
	push	eax
	call	??$max@_J@std@@YAAB_JAB_J0@Z		; std::max<__int64>
	add	esp, 8
	mov	ecx, DWORD PTR _this$[ebp]
	mov	edx, DWORD PTR [eax]
	mov	DWORD PTR [ecx+104], edx
	mov	eax, DWORD PTR [eax+4]
	mov	DWORD PTR [ecx+108], eax

; 153  : 	nextPrechargeTime = max(nextPrechargeTime, currentTime + timing.tRAS());

	mov	eax, DWORD PTR _this$[ebp]
	mov	ecx, DWORD PTR [eax]
	call	?tRAS@TimingSpecification@DRAMsimII@@QBEHXZ ; DRAMsimII::TimingSpecification::tRAS
	cdq
	add	eax, DWORD PTR _currentTime$[ebp]
	mov	ecx, DWORD PTR _currentTime$[ebp+4]
	adc	ecx, edx
	mov	DWORD PTR $T160256[ebp], eax
	mov	DWORD PTR $T160256[ebp+4], ecx
	lea	edx, DWORD PTR $T160256[ebp]
	push	edx
	mov	eax, DWORD PTR _this$[ebp]
	add	eax, 112				; 00000070H
	push	eax
	call	??$max@_J@std@@YAAB_JAB_J0@Z		; std::max<__int64>
	add	esp, 8
	mov	ecx, DWORD PTR _this$[ebp]
	mov	edx, DWORD PTR [eax]
	mov	DWORD PTR [ecx+112], edx
	mov	eax, DWORD PTR [eax+4]
	mov	DWORD PTR [ecx+116], eax

; 154  : }

	pop	edi
	pop	esi
	pop	ebx
	add	esp, 276				; 00000114H
	cmp	ebp, esp
	call	__RTC_CheckEsp
	mov	esp, ebp
	pop	ebp
	ret	12					; 0000000cH
?issueRAS@Bank@DRAMsimII@@QAEX_JPBVCommand@2@@Z ENDP	; DRAMsimII::Bank::issueRAS
; Function compile flags: /Odtp /RTCcsu /ZI
; File c:\users\crius\documents\visual studio 2008\projects\dramsimiihg\src\address.h
_TEXT	ENDS
;	COMDAT ?getRow@Address@DRAMsimII@@QBEIXZ
_TEXT	SEGMENT
_this$ = -8						; size = 4
?getRow@Address@DRAMsimII@@QBEIXZ PROC			; DRAMsimII::Address::getRow, COMDAT
; _this$ = ecx

; 89   : 		unsigned getRow() const { return row; }

	push	ebp
	mov	ebp, esp
	sub	esp, 204				; 000000ccH
	push	ebx
	push	esi
	push	edi
	push	ecx
	lea	edi, DWORD PTR [ebp-204]
	mov	ecx, 51					; 00000033H
	mov	eax, -858993460				; ccccccccH
	rep stosd
	pop	ecx
	mov	DWORD PTR _this$[ebp], ecx
	mov	eax, DWORD PTR _this$[ebp]
	mov	eax, DWORD PTR [eax+28]
	pop	edi
	pop	esi
	pop	ebx
	mov	esp, ebp
	pop	ebp
	ret	0
?getRow@Address@DRAMsimII@@QBEIXZ ENDP			; DRAMsimII::Address::getRow
; Function compile flags: /Odtp /RTCcsu /ZI
; File c:\users\crius\documents\visual studio 2008\projects\dramsimiihg\src\event.h
_TEXT	ENDS
;	COMDAT ?getAddress@Event@DRAMsimII@@QBEABVAddress@2@XZ
_TEXT	SEGMENT
_this$ = -8						; size = 4
?getAddress@Event@DRAMsimII@@QBEABVAddress@2@XZ PROC	; DRAMsimII::Event::getAddress, COMDAT
; _this$ = ecx

; 89   : 		const Address &getAddress() const { return address; }

	push	ebp
	mov	ebp, esp
	sub	esp, 204				; 000000ccH
	push	ebx
	push	esi
	push	edi
	push	ecx
	lea	edi, DWORD PTR [ebp-204]
	mov	ecx, 51					; 00000033H
	mov	eax, -858993460				; ccccccccH
	rep stosd
	pop	ecx
	mov	DWORD PTR _this$[ebp], ecx
	mov	eax, DWORD PTR _this$[ebp]
	add	eax, 40					; 00000028H
	pop	edi
	pop	esi
	pop	ebx
	mov	esp, ebp
	pop	ebp
	ret	0
?getAddress@Event@DRAMsimII@@QBEABVAddress@2@XZ ENDP	; DRAMsimII::Event::getAddress
; Function compile flags: /Odtp /RTCcsu /ZI
; File c:\users\crius\documents\visual studio 2008\projects\dramsimiihg\src\timingspecification.h
_TEXT	ENDS
;	COMDAT ?tAL@TimingSpecification@DRAMsimII@@QBEHXZ
_TEXT	SEGMENT
_this$ = -8						; size = 4
?tAL@TimingSpecification@DRAMsimII@@QBEHXZ PROC		; DRAMsimII::TimingSpecification::tAL, COMDAT
; _this$ = ecx

; 64   : 		int tAL() const { return t_al; }

	push	ebp
	mov	ebp, esp
	sub	esp, 204				; 000000ccH
	push	ebx
	push	esi
	push	edi
	push	ecx
	lea	edi, DWORD PTR [ebp-204]
	mov	ecx, 51					; 00000033H
	mov	eax, -858993460				; ccccccccH
	rep stosd
	pop	ecx
	mov	DWORD PTR _this$[ebp], ecx
	mov	eax, DWORD PTR _this$[ebp]
	mov	eax, DWORD PTR [eax]
	pop	edi
	pop	esi
	pop	ebx
	mov	esp, ebp
	pop	ebp
	ret	0
?tAL@TimingSpecification@DRAMsimII@@QBEHXZ ENDP		; DRAMsimII::TimingSpecification::tAL
; Function compile flags: /Odtp /RTCcsu /ZI
_TEXT	ENDS
;	COMDAT ?tRAS@TimingSpecification@DRAMsimII@@QBEHXZ
_TEXT	SEGMENT
_this$ = -8						; size = 4
?tRAS@TimingSpecification@DRAMsimII@@QBEHXZ PROC	; DRAMsimII::TimingSpecification::tRAS, COMDAT
; _this$ = ecx

; 69   : 		int tRAS() const { return t_ras; }

	push	ebp
	mov	ebp, esp
	sub	esp, 204				; 000000ccH
	push	ebx
	push	esi
	push	edi
	push	ecx
	lea	edi, DWORD PTR [ebp-204]
	mov	ecx, 51					; 00000033H
	mov	eax, -858993460				; ccccccccH
	rep stosd
	pop	ecx
	mov	DWORD PTR _this$[ebp], ecx
	mov	eax, DWORD PTR _this$[ebp]
	mov	eax, DWORD PTR [eax+28]
	pop	edi
	pop	esi
	pop	ebx
	mov	esp, ebp
	pop	ebp
	ret	0
?tRAS@TimingSpecification@DRAMsimII@@QBEHXZ ENDP	; DRAMsimII::TimingSpecification::tRAS
; Function compile flags: /Odtp /RTCcsu /ZI
_TEXT	ENDS
;	COMDAT ?tRCD@TimingSpecification@DRAMsimII@@QBEHXZ
_TEXT	SEGMENT
_this$ = -8						; size = 4
?tRCD@TimingSpecification@DRAMsimII@@QBEHXZ PROC	; DRAMsimII::TimingSpecification::tRCD, COMDAT
; _this$ = ecx

; 75   : 		int tRCD() const { return t_rcd; }

	push	ebp
	mov	ebp, esp
	sub	esp, 204				; 000000ccH
	push	ebx
	push	esi
	push	edi
	push	ecx
	lea	edi, DWORD PTR [ebp-204]
	mov	ecx, 51					; 00000033H
	mov	eax, -858993460				; ccccccccH
	rep stosd
	pop	ecx
	mov	DWORD PTR _this$[ebp], ecx
	mov	eax, DWORD PTR _this$[ebp]
	mov	eax, DWORD PTR [eax+36]
	pop	edi
	pop	esi
	pop	ebx
	mov	esp, ebp
	pop	ebp
	ret	0
?tRCD@TimingSpecification@DRAMsimII@@QBEHXZ ENDP	; DRAMsimII::TimingSpecification::tRCD
; Function compile flags: /Odtp /RTCcsu /ZI
_TEXT	ENDS
;	COMDAT ?tRP@TimingSpecification@DRAMsimII@@QBEHXZ
_TEXT	SEGMENT
_this$ = -8						; size = 4
?tRP@TimingSpecification@DRAMsimII@@QBEHXZ PROC		; DRAMsimII::TimingSpecification::tRP, COMDAT
; _this$ = ecx

; 76   : 		int tRP() const { return t_rp; }

	push	ebp
	mov	ebp, esp
	sub	esp, 204				; 000000ccH
	push	ebx
	push	esi
	push	edi
	push	ecx
	lea	edi, DWORD PTR [ebp-204]
	mov	ecx, 51					; 00000033H
	mov	eax, -858993460				; ccccccccH
	rep stosd
	pop	ecx
	mov	DWORD PTR _this$[ebp], ecx
	mov	eax, DWORD PTR _this$[ebp]
	mov	eax, DWORD PTR [eax+44]
	pop	edi
	pop	esi
	pop	ebx
	mov	esp, ebp
	pop	ebp
	ret	0
?tRP@TimingSpecification@DRAMsimII@@QBEHXZ ENDP		; DRAMsimII::TimingSpecification::tRP
; Function compile flags: /Odtp /RTCcsu /ZI
_TEXT	ENDS
;	COMDAT ?tRC@TimingSpecification@DRAMsimII@@QBEHXZ
_TEXT	SEGMENT
_this$ = -8						; size = 4
?tRC@TimingSpecification@DRAMsimII@@QBEHXZ PROC		; DRAMsimII::TimingSpecification::tRC, COMDAT
; _this$ = ecx

; 82   : 		int tRC() const { return t_rc; }

	push	ebp
	mov	ebp, esp
	sub	esp, 204				; 000000ccH
	push	ebx
	push	esi
	push	edi
	push	ecx
	lea	edi, DWORD PTR [ebp-204]
	mov	ecx, 51					; 00000033H
	mov	eax, -858993460				; ccccccccH
	rep stosd
	pop	ecx
	mov	DWORD PTR _this$[ebp], ecx
	mov	eax, DWORD PTR _this$[ebp]
	mov	eax, DWORD PTR [eax+32]
	pop	edi
	pop	esi
	pop	ebx
	mov	esp, ebp
	pop	ebp
	ret	0
?tRC@TimingSpecification@DRAMsimII@@QBEHXZ ENDP		; DRAMsimII::TimingSpecification::tRC
_TEXT	ENDS
PUBLIC	??_C@_1CE@OMDKJDFC@?$AAa?$AAc?$AAt?$AAi?$AAv?$AAa?$AAt?$AAe?$AAd?$AA?5?$AA?$DN?$AA?$DN?$AA?5?$AAt?$AAr?$AAu?$AAe?$AA?$AA@ ; `string'
PUBLIC	?__LINE__Var@?1??issuePRE@Bank@DRAMsimII@@QAEX_JPBVCommand@3@@Z@4JA ; `DRAMsimII::Bank::issuePRE'::`2'::__LINE__Var
PUBLIC	??$?6U?$char_traits@D@std@@@std@@YAAAV?$basic_ostream@DU?$char_traits@D@std@@@0@AAV10@PBD@Z ; std::operator<<<std::char_traits<char> >
PUBLIC	??_C@_0BG@GJDAHMDK@Unhandled?5CAS?5variant?$AA@	; `string'
PUBLIC	?tWR@TimingSpecification@DRAMsimII@@QBEHXZ	; DRAMsimII::TimingSpecification::tWR
PUBLIC	?tCWD@TimingSpecification@DRAMsimII@@QBEHXZ	; DRAMsimII::TimingSpecification::tCWD
PUBLIC	?tRTP@TimingSpecification@DRAMsimII@@QBEHXZ	; DRAMsimII::TimingSpecification::tRTP
PUBLIC	?tBurst@TimingSpecification@DRAMsimII@@QBEHXZ	; DRAMsimII::TimingSpecification::tBurst
PUBLIC	?tCCD@TimingSpecification@DRAMsimII@@QBEHXZ	; DRAMsimII::TimingSpecification::tCCD
PUBLIC	?getCommandType@Command@DRAMsimII@@QBE?AW4CommandType@12@XZ ; DRAMsimII::Command::getCommandType
PUBLIC	?issuePRE@Bank@DRAMsimII@@QAEX_JPBVCommand@2@@Z	; DRAMsimII::Bank::issuePRE
EXTRN	__imp_??6?$basic_ostream@DU?$char_traits@D@std@@@std@@QAEAAV01@P6AAAV01@AAV01@@Z@Z:PROC
EXTRN	__imp_?cerr@std@@3V?$basic_ostream@DU?$char_traits@D@std@@@1@A:BYTE
EXTRN	__imp_?endl@std@@YAAAV?$basic_ostream@DU?$char_traits@D@std@@@1@AAV21@@Z:PROC
;	COMDAT ??_C@_1CE@OMDKJDFC@?$AAa?$AAc?$AAt?$AAi?$AAv?$AAa?$AAt?$AAe?$AAd?$AA?5?$AA?$DN?$AA?$DN?$AA?5?$AAt?$AAr?$AAu?$AAe?$AA?$AA@
; File c:\users\crius\documents\visual studio 2008\projects\dramsimiihg\src\bank.cpp
CONST	SEGMENT
??_C@_1CE@OMDKJDFC@?$AAa?$AAc?$AAt?$AAi?$AAv?$AAa?$AAt?$AAe?$AAd?$AA?5?$AA?$DN?$AA?$DN?$AA?5?$AAt?$AAr?$AAu?$AAe?$AA?$AA@ DB 'a'
	DB	00H, 'c', 00H, 't', 00H, 'i', 00H, 'v', 00H, 'a', 00H, 't', 00H
	DB	'e', 00H, 'd', 00H, ' ', 00H, '=', 00H, '=', 00H, ' ', 00H, 't'
	DB	00H, 'r', 00H, 'u', 00H, 'e', 00H, 00H, 00H	; `string'
CONST	ENDS
;	COMDAT ?__LINE__Var@?1??issuePRE@Bank@DRAMsimII@@QAEX_JPBVCommand@3@@Z@4JA
_DATA	SEGMENT
?__LINE__Var@?1??issuePRE@Bank@DRAMsimII@@QAEX_JPBVCommand@3@@Z@4JA DD 0a0H ; `DRAMsimII::Bank::issuePRE'::`2'::__LINE__Var
_DATA	ENDS
;	COMDAT ??_C@_0BG@GJDAHMDK@Unhandled?5CAS?5variant?$AA@
CONST	SEGMENT
??_C@_0BG@GJDAHMDK@Unhandled?5CAS?5variant?$AA@ DB 'Unhandled CAS variant'
	DB	00H						; `string'
; Function compile flags: /Odtp /RTCcsu /ZI
CONST	ENDS
;	COMDAT ?issuePRE@Bank@DRAMsimII@@QAEX_JPBVCommand@2@@Z
_TEXT	SEGMENT
tv66 = -288						; size = 4
$T160274 = -280						; size = 8
$T160275 = -264						; size = 8
$T160276 = -248						; size = 8
$T160277 = -232						; size = 8
$T160279 = -216						; size = 8
_this$ = -8						; size = 4
_currentTime$ = 8					; size = 8
_currentCommand$ = 16					; size = 4
?issuePRE@Bank@DRAMsimII@@QAEX_JPBVCommand@2@@Z PROC	; DRAMsimII::Bank::issuePRE, COMDAT
; _this$ = ecx

; 160  : {

	push	ebp
	mov	ebp, esp
	sub	esp, 288				; 00000120H
	push	ebx
	push	esi
	push	edi
	push	ecx
	lea	edi, DWORD PTR [ebp-288]
	mov	ecx, 72					; 00000048H
	mov	eax, -858993460				; ccccccccH
	rep stosd
	pop	ecx
	mov	DWORD PTR _this$[ebp], ecx

; 161  : 	switch (currentCommand->getCommandType())

	mov	ecx, DWORD PTR _currentCommand$[ebp]
	call	?getCommandType@Command@DRAMsimII@@QBE?AW4CommandType@12@XZ ; DRAMsimII::Command::getCommandType
	mov	DWORD PTR tv66[ebp], eax
	cmp	DWORD PTR tv66[ebp], 2
	je	SHORT $LN4@issuePRE
	cmp	DWORD PTR tv66[ebp], 4
	je	$LN3@issuePRE
	cmp	DWORD PTR tv66[ebp], 6
	je	$LN2@issuePRE
	jmp	$LN1@issuePRE
$LN4@issuePRE:

; 162  : 	{
; 163  : 	case Command::READ_AND_PRECHARGE:
; 164  : 		//lastPrechargeTime = max(currentTime + timing.tAL() + timing.tCAS() + timing.tBurst() + timing.tRTP(), lastRASTime + timing.tRAS());
; 165  : 		// see figure 11.28 in Memory Systems: Cache, DRAM, Disk by Bruce Jacob, et al.
; 166  : 		lastPrechargeTime = max(lastPrechargeTime, max(currentTime + (timing.tAL() - timing.tCCD() + timing.tBurst() + timing.tRTP()), lastRASTime + timing.tRAS()));

	mov	eax, DWORD PTR _this$[ebp]
	mov	ecx, DWORD PTR [eax]
	call	?tRAS@TimingSpecification@DRAMsimII@@QBEHXZ ; DRAMsimII::TimingSpecification::tRAS
	cdq
	mov	ecx, DWORD PTR _this$[ebp]
	add	eax, DWORD PTR [ecx+48]
	mov	ecx, DWORD PTR [ecx+52]
	adc	ecx, edx
	mov	DWORD PTR $T160274[ebp], eax
	mov	DWORD PTR $T160274[ebp+4], ecx
	mov	edx, DWORD PTR _this$[ebp]
	mov	ecx, DWORD PTR [edx]
	call	?tAL@TimingSpecification@DRAMsimII@@QBEHXZ ; DRAMsimII::TimingSpecification::tAL
	mov	esi, eax
	mov	eax, DWORD PTR _this$[ebp]
	mov	ecx, DWORD PTR [eax]
	call	?tCCD@TimingSpecification@DRAMsimII@@QBEHXZ ; DRAMsimII::TimingSpecification::tCCD
	sub	esi, eax
	mov	ecx, DWORD PTR _this$[ebp]
	mov	ecx, DWORD PTR [ecx]
	call	?tBurst@TimingSpecification@DRAMsimII@@QBEHXZ ; DRAMsimII::TimingSpecification::tBurst
	add	esi, eax
	mov	edx, DWORD PTR _this$[ebp]
	mov	ecx, DWORD PTR [edx]
	call	?tRTP@TimingSpecification@DRAMsimII@@QBEHXZ ; DRAMsimII::TimingSpecification::tRTP
	add	eax, esi
	cdq
	add	eax, DWORD PTR _currentTime$[ebp]
	mov	ecx, DWORD PTR _currentTime$[ebp+4]
	adc	ecx, edx
	mov	DWORD PTR $T160275[ebp], eax
	mov	DWORD PTR $T160275[ebp+4], ecx
	lea	edx, DWORD PTR $T160274[ebp]
	push	edx
	lea	eax, DWORD PTR $T160275[ebp]
	push	eax
	call	??$max@_J@std@@YAAB_JAB_J0@Z		; std::max<__int64>
	add	esp, 8
	push	eax
	mov	ecx, DWORD PTR _this$[ebp]
	add	ecx, 72					; 00000048H
	push	ecx
	call	??$max@_J@std@@YAAB_JAB_J0@Z		; std::max<__int64>
	add	esp, 8
	mov	edx, DWORD PTR _this$[ebp]
	mov	ecx, DWORD PTR [eax]
	mov	DWORD PTR [edx+72], ecx
	mov	eax, DWORD PTR [eax+4]
	mov	DWORD PTR [edx+76], eax

; 167  : 		break;

	jmp	$LN5@issuePRE
$LN3@issuePRE:

; 168  : 	case Command::WRITE_AND_PRECHARGE:
; 169  : 		// see figure 11.29 in Memory Systems: Cache, DRAM, Disk by Bruce Jacob, et al.
; 170  : 		// obeys minimum timing, but also supports tRAS lockout
; 171  : 		lastPrechargeTime = max(lastPrechargeTime, max(currentTime + (timing.tAL() + timing.tCWD() + timing.tBurst() + timing.tWR()), lastRASTime + timing.tRAS()));

	mov	eax, DWORD PTR _this$[ebp]
	mov	ecx, DWORD PTR [eax]
	call	?tRAS@TimingSpecification@DRAMsimII@@QBEHXZ ; DRAMsimII::TimingSpecification::tRAS
	cdq
	mov	ecx, DWORD PTR _this$[ebp]
	add	eax, DWORD PTR [ecx+48]
	mov	ecx, DWORD PTR [ecx+52]
	adc	ecx, edx
	mov	DWORD PTR $T160276[ebp], eax
	mov	DWORD PTR $T160276[ebp+4], ecx
	mov	edx, DWORD PTR _this$[ebp]
	mov	ecx, DWORD PTR [edx]
	call	?tAL@TimingSpecification@DRAMsimII@@QBEHXZ ; DRAMsimII::TimingSpecification::tAL
	mov	esi, eax
	mov	eax, DWORD PTR _this$[ebp]
	mov	ecx, DWORD PTR [eax]
	call	?tCWD@TimingSpecification@DRAMsimII@@QBEHXZ ; DRAMsimII::TimingSpecification::tCWD
	add	esi, eax
	mov	ecx, DWORD PTR _this$[ebp]
	mov	ecx, DWORD PTR [ecx]
	call	?tBurst@TimingSpecification@DRAMsimII@@QBEHXZ ; DRAMsimII::TimingSpecification::tBurst
	add	esi, eax
	mov	edx, DWORD PTR _this$[ebp]
	mov	ecx, DWORD PTR [edx]
	call	?tWR@TimingSpecification@DRAMsimII@@QBEHXZ ; DRAMsimII::TimingSpecification::tWR
	add	eax, esi
	cdq
	add	eax, DWORD PTR _currentTime$[ebp]
	mov	ecx, DWORD PTR _currentTime$[ebp+4]
	adc	ecx, edx
	mov	DWORD PTR $T160277[ebp], eax
	mov	DWORD PTR $T160277[ebp+4], ecx
	lea	edx, DWORD PTR $T160276[ebp]
	push	edx
	lea	eax, DWORD PTR $T160277[ebp]
	push	eax
	call	??$max@_J@std@@YAAB_JAB_J0@Z		; std::max<__int64>
	add	esp, 8
	push	eax
	mov	ecx, DWORD PTR _this$[ebp]
	add	ecx, 72					; 00000048H
	push	ecx
	call	??$max@_J@std@@YAAB_JAB_J0@Z		; std::max<__int64>
	add	esp, 8
	mov	edx, DWORD PTR _this$[ebp]
	mov	ecx, DWORD PTR [eax]
	mov	DWORD PTR [edx+72], ecx
	mov	eax, DWORD PTR [eax+4]
	mov	DWORD PTR [edx+76], eax

; 172  : 		break;

	jmp	SHORT $LN5@issuePRE
$LN2@issuePRE:

; 173  : 	case Command::PRECHARGE:
; 174  : 		lastPrechargeTime = max(lastPrechargeTime, currentTime);

	lea	eax, DWORD PTR _currentTime$[ebp]
	push	eax
	mov	ecx, DWORD PTR _this$[ebp]
	add	ecx, 72					; 00000048H
	push	ecx
	call	??$max@_J@std@@YAAB_JAB_J0@Z		; std::max<__int64>
	add	esp, 8
	mov	edx, DWORD PTR _this$[ebp]
	mov	ecx, DWORD PTR [eax]
	mov	DWORD PTR [edx+72], ecx
	mov	eax, DWORD PTR [eax+4]
	mov	DWORD PTR [edx+76], eax

; 175  : 		break;

	jmp	SHORT $LN5@issuePRE
$LN1@issuePRE:

; 176  : 	default:
; 177  : 		cerr << "Unhandled CAS variant" << endl;

	mov	esi, esp
	mov	eax, DWORD PTR __imp_?endl@std@@YAAAV?$basic_ostream@DU?$char_traits@D@std@@@1@AAV21@@Z
	push	eax
	push	OFFSET ??_C@_0BG@GJDAHMDK@Unhandled?5CAS?5variant?$AA@
	mov	ecx, DWORD PTR __imp_?cerr@std@@3V?$basic_ostream@DU?$char_traits@D@std@@@1@A
	push	ecx
	call	??$?6U?$char_traits@D@std@@@std@@YAAAV?$basic_ostream@DU?$char_traits@D@std@@@0@AAV10@PBD@Z ; std::operator<<<std::char_traits<char> >
	add	esp, 8
	mov	ecx, eax
	call	DWORD PTR __imp_??6?$basic_ostream@DU?$char_traits@D@std@@@std@@QAEAAV01@P6AAAV01@AAV01@@Z@Z
	cmp	esi, esp
	call	__RTC_CheckEsp
$LN5@issuePRE:

; 178  : 		break;
; 179  : 	}	
; 180  : 
; 181  : 	// make sure precharges follow activates
; 182  : 	// technically, you can pre after pre, but there's no good reason for this
; 183  : 	assert(activated == true);

	mov	eax, DWORD PTR _this$[ebp]
	movzx	ecx, BYTE PTR [eax+124]
	cmp	ecx, 1
	je	SHORT $LN9@issuePRE
	mov	edx, DWORD PTR ?__LINE__Var@?1??issuePRE@Bank@DRAMsimII@@QAEX_JPBVCommand@3@@Z@4JA
	add	edx, 23					; 00000017H
	mov	esi, esp
	push	edx
	push	OFFSET ??_C@_1JM@ODNEBCJL@?$AAc?$AA?3?$AA?2?$AAu?$AAs?$AAe?$AAr?$AAs?$AA?2?$AAc?$AAr?$AAi?$AAu?$AAs?$AA?2?$AAd?$AAo?$AAc?$AAu?$AAm?$AAe?$AAn?$AAt?$AAs?$AA?2?$AAv?$AAi?$AAs?$AAu?$AAa?$AAl?$AA?5@
	push	OFFSET ??_C@_1CE@OMDKJDFC@?$AAa?$AAc?$AAt?$AAi?$AAv?$AAa?$AAt?$AAe?$AAd?$AA?5?$AA?$DN?$AA?$DN?$AA?5?$AAt?$AAr?$AAu?$AAe?$AA?$AA@
	call	DWORD PTR __imp___wassert
	add	esp, 12					; 0000000cH
	cmp	esi, esp
	call	__RTC_CheckEsp
$LN9@issuePRE:

; 184  : 	activated = false;

	mov	eax, DWORD PTR _this$[ebp]
	mov	BYTE PTR [eax+124], 0

; 185  : 
; 186  : 	// calculate when the next few commands can happen
; 187  : 	nextActivateTime = max(nextActivateTime, lastPrechargeTime + timing.tRP());

	mov	eax, DWORD PTR _this$[ebp]
	mov	ecx, DWORD PTR [eax]
	call	?tRP@TimingSpecification@DRAMsimII@@QBEHXZ ; DRAMsimII::TimingSpecification::tRP
	cdq
	mov	ecx, DWORD PTR _this$[ebp]
	add	eax, DWORD PTR [ecx+72]
	mov	ecx, DWORD PTR [ecx+76]
	adc	ecx, edx
	mov	DWORD PTR $T160279[ebp], eax
	mov	DWORD PTR $T160279[ebp+4], ecx
	lea	edx, DWORD PTR $T160279[ebp]
	push	edx
	mov	eax, DWORD PTR _this$[ebp]
	add	eax, 88					; 00000058H
	push	eax
	call	??$max@_J@std@@YAAB_JAB_J0@Z		; std::max<__int64>
	add	esp, 8
	mov	ecx, DWORD PTR _this$[ebp]
	mov	edx, DWORD PTR [eax]
	mov	DWORD PTR [ecx+88], edx
	mov	eax, DWORD PTR [eax+4]
	mov	DWORD PTR [ecx+92], eax

; 188  : }

	pop	edi
	pop	esi
	pop	ebx
	add	esp, 288				; 00000120H
	cmp	ebp, esp
	call	__RTC_CheckEsp
	mov	esp, ebp
	pop	ebp
	ret	12					; 0000000cH
?issuePRE@Bank@DRAMsimII@@QAEX_JPBVCommand@2@@Z ENDP	; DRAMsimII::Bank::issuePRE
; Function compile flags: /Odtp /RTCcsu /ZI
; File c:\users\crius\documents\visual studio 2008\projects\dramsimiihg\src\command.h
_TEXT	ENDS
;	COMDAT ?getCommandType@Command@DRAMsimII@@QBE?AW4CommandType@12@XZ
_TEXT	SEGMENT
_this$ = -8						; size = 4
?getCommandType@Command@DRAMsimII@@QBE?AW4CommandType@12@XZ PROC ; DRAMsimII::Command::getCommandType, COMDAT
; _this$ = ecx

; 79   : 		CommandType getCommandType() const { return commandType; }

	push	ebp
	mov	ebp, esp
	sub	esp, 204				; 000000ccH
	push	ebx
	push	esi
	push	edi
	push	ecx
	lea	edi, DWORD PTR [ebp-204]
	mov	ecx, 51					; 00000033H
	mov	eax, -858993460				; ccccccccH
	rep stosd
	pop	ecx
	mov	DWORD PTR _this$[ebp], ecx
	mov	eax, DWORD PTR _this$[ebp]
	mov	eax, DWORD PTR [eax+80]
	pop	edi
	pop	esi
	pop	ebx
	mov	esp, ebp
	pop	ebp
	ret	0
?getCommandType@Command@DRAMsimII@@QBE?AW4CommandType@12@XZ ENDP ; DRAMsimII::Command::getCommandType
; Function compile flags: /Odtp /RTCcsu /ZI
; File c:\users\crius\documents\visual studio 2008\projects\dramsimiihg\src\timingspecification.h
_TEXT	ENDS
;	COMDAT ?tCCD@TimingSpecification@DRAMsimII@@QBEHXZ
_TEXT	SEGMENT
_this$ = -8						; size = 4
?tCCD@TimingSpecification@DRAMsimII@@QBEHXZ PROC	; DRAMsimII::TimingSpecification::tCCD, COMDAT
; _this$ = ecx

; 66   : 		int tCCD() const { return t_ccd; }

	push	ebp
	mov	ebp, esp
	sub	esp, 204				; 000000ccH
	push	ebx
	push	esi
	push	edi
	push	ecx
	lea	edi, DWORD PTR [ebp-204]
	mov	ecx, 51					; 00000033H
	mov	eax, -858993460				; ccccccccH
	rep stosd
	pop	ecx
	mov	DWORD PTR _this$[ebp], ecx
	mov	eax, DWORD PTR _this$[ebp]
	mov	eax, DWORD PTR [eax+12]
	pop	edi
	pop	esi
	pop	ebx
	mov	esp, ebp
	pop	ebp
	ret	0
?tCCD@TimingSpecification@DRAMsimII@@QBEHXZ ENDP	; DRAMsimII::TimingSpecification::tCCD
; Function compile flags: /Odtp /RTCcsu /ZI
_TEXT	ENDS
;	COMDAT ?tBurst@TimingSpecification@DRAMsimII@@QBEHXZ
_TEXT	SEGMENT
_this$ = -8						; size = 4
?tBurst@TimingSpecification@DRAMsimII@@QBEHXZ PROC	; DRAMsimII::TimingSpecification::tBurst, COMDAT
; _this$ = ecx

; 67   : 		int tBurst() const { return t_burst; }

	push	ebp
	mov	ebp, esp
	sub	esp, 204				; 000000ccH
	push	ebx
	push	esi
	push	edi
	push	ecx
	lea	edi, DWORD PTR [ebp-204]
	mov	ecx, 51					; 00000033H
	mov	eax, -858993460				; ccccccccH
	rep stosd
	pop	ecx
	mov	DWORD PTR _this$[ebp], ecx
	mov	eax, DWORD PTR _this$[ebp]
	mov	eax, DWORD PTR [eax+4]
	pop	edi
	pop	esi
	pop	ebx
	mov	esp, ebp
	pop	ebp
	ret	0
?tBurst@TimingSpecification@DRAMsimII@@QBEHXZ ENDP	; DRAMsimII::TimingSpecification::tBurst
; Function compile flags: /Odtp /RTCcsu /ZI
_TEXT	ENDS
;	COMDAT ?tRTP@TimingSpecification@DRAMsimII@@QBEHXZ
_TEXT	SEGMENT
_this$ = -8						; size = 4
?tRTP@TimingSpecification@DRAMsimII@@QBEHXZ PROC	; DRAMsimII::TimingSpecification::tRTP, COMDAT
; _this$ = ecx

; 68   : 		int tRTP() const { return t_rtp; }

	push	ebp
	mov	ebp, esp
	sub	esp, 204				; 000000ccH
	push	ebx
	push	esi
	push	edi
	push	ecx
	lea	edi, DWORD PTR [ebp-204]
	mov	ecx, 51					; 00000033H
	mov	eax, -858993460				; ccccccccH
	rep stosd
	pop	ecx
	mov	DWORD PTR _this$[ebp], ecx
	mov	eax, DWORD PTR _this$[ebp]
	mov	eax, DWORD PTR [eax+52]
	pop	edi
	pop	esi
	pop	ebx
	mov	esp, ebp
	pop	ebp
	ret	0
?tRTP@TimingSpecification@DRAMsimII@@QBEHXZ ENDP	; DRAMsimII::TimingSpecification::tRTP
; Function compile flags: /Odtp /RTCcsu /ZI
_TEXT	ENDS
;	COMDAT ?tCWD@TimingSpecification@DRAMsimII@@QBEHXZ
_TEXT	SEGMENT
_this$ = -8						; size = 4
?tCWD@TimingSpecification@DRAMsimII@@QBEHXZ PROC	; DRAMsimII::TimingSpecification::tCWD, COMDAT
; _this$ = ecx

; 70   : 		int tCWD() const { return t_cwd; }

	push	ebp
	mov	ebp, esp
	sub	esp, 204				; 000000ccH
	push	ebx
	push	esi
	push	edi
	push	ecx
	lea	edi, DWORD PTR [ebp-204]
	mov	ecx, 51					; 00000033H
	mov	eax, -858993460				; ccccccccH
	rep stosd
	pop	ecx
	mov	DWORD PTR _this$[ebp], ecx
	mov	eax, DWORD PTR _this$[ebp]
	mov	eax, DWORD PTR [eax+20]
	pop	edi
	pop	esi
	pop	ebx
	mov	esp, ebp
	pop	ebp
	ret	0
?tCWD@TimingSpecification@DRAMsimII@@QBEHXZ ENDP	; DRAMsimII::TimingSpecification::tCWD
; Function compile flags: /Odtp /RTCcsu /ZI
_TEXT	ENDS
;	COMDAT ?tWR@TimingSpecification@DRAMsimII@@QBEHXZ
_TEXT	SEGMENT
_this$ = -8						; size = 4
?tWR@TimingSpecification@DRAMsimII@@QBEHXZ PROC		; DRAMsimII::TimingSpecification::tWR, COMDAT
; _this$ = ecx

; 71   : 		int tWR() const { return t_wr; }

	push	ebp
	mov	ebp, esp
	sub	esp, 204				; 000000ccH
	push	ebx
	push	esi
	push	edi
	push	ecx
	lea	edi, DWORD PTR [ebp-204]
	mov	ecx, 51					; 00000033H
	mov	eax, -858993460				; ccccccccH
	rep stosd
	pop	ecx
	mov	DWORD PTR _this$[ebp], ecx
	mov	eax, DWORD PTR _this$[ebp]
	mov	eax, DWORD PTR [eax+60]
	pop	edi
	pop	esi
	pop	ebx
	mov	esp, ebp
	pop	ebp
	ret	0
?tWR@TimingSpecification@DRAMsimII@@QBEHXZ ENDP		; DRAMsimII::TimingSpecification::tWR
_TEXT	ENDS
PUBLIC	??$max@H@std@@YAABHABH0@Z			; std::max<int>
PUBLIC	?tCAS@TimingSpecification@DRAMsimII@@QBEHXZ	; DRAMsimII::TimingSpecification::tCAS
PUBLIC	?tCMD@TimingSpecification@DRAMsimII@@QBEHXZ	; DRAMsimII::TimingSpecification::tCMD
PUBLIC	?getLength@Command@DRAMsimII@@QBEIXZ		; DRAMsimII::Command::getLength
PUBLIC	??_C@_1GG@LDLONLDE@?$AAo?$AAp?$AAe?$AAn?$AAR?$AAo?$AAw?$AAI?$AAD?$AA?5?$AA?$DN?$AA?$DN?$AA?5?$AAc?$AAu?$AAr?$AAr?$AAe?$AAn?$AAt?$AAC?$AAo?$AAm?$AAm?$AAa?$AAn?$AAd?$AA?9?$AA?$DO?$AAg?$AAe?$AAt@ ; `string'
PUBLIC	?__LINE__Var@?1??issueCAS@Bank@DRAMsimII@@QAEX_JPBVCommand@3@@Z@4JA ; `DRAMsimII::Bank::issueCAS'::`2'::__LINE__Var
PUBLIC	?issueCAS@Bank@DRAMsimII@@QAEX_JPBVCommand@2@@Z	; DRAMsimII::Bank::issueCAS
;	COMDAT ??_C@_1GG@LDLONLDE@?$AAo?$AAp?$AAe?$AAn?$AAR?$AAo?$AAw?$AAI?$AAD?$AA?5?$AA?$DN?$AA?$DN?$AA?5?$AAc?$AAu?$AAr?$AAr?$AAe?$AAn?$AAt?$AAC?$AAo?$AAm?$AAm?$AAa?$AAn?$AAd?$AA?9?$AA?$DO?$AAg?$AAe?$AAt@
; File c:\users\crius\documents\visual studio 2008\projects\dramsimiihg\src\bank.cpp
CONST	SEGMENT
??_C@_1GG@LDLONLDE@?$AAo?$AAp?$AAe?$AAn?$AAR?$AAo?$AAw?$AAI?$AAD?$AA?5?$AA?$DN?$AA?$DN?$AA?5?$AAc?$AAu?$AAr?$AAr?$AAe?$AAn?$AAt?$AAC?$AAo?$AAm?$AAm?$AAa?$AAn?$AAd?$AA?9?$AA?$DO?$AAg?$AAe?$AAt@ DB 'o'
	DB	00H, 'p', 00H, 'e', 00H, 'n', 00H, 'R', 00H, 'o', 00H, 'w', 00H
	DB	'I', 00H, 'D', 00H, ' ', 00H, '=', 00H, '=', 00H, ' ', 00H, 'c'
	DB	00H, 'u', 00H, 'r', 00H, 'r', 00H, 'e', 00H, 'n', 00H, 't', 00H
	DB	'C', 00H, 'o', 00H, 'm', 00H, 'm', 00H, 'a', 00H, 'n', 00H, 'd'
	DB	00H, '-', 00H, '>', 00H, 'g', 00H, 'e', 00H, 't', 00H, 'A', 00H
	DB	'd', 00H, 'd', 00H, 'r', 00H, 'e', 00H, 's', 00H, 's', 00H, '('
	DB	00H, ')', 00H, '.', 00H, 'g', 00H, 'e', 00H, 't', 00H, 'R', 00H
	DB	'o', 00H, 'w', 00H, '(', 00H, ')', 00H, 00H, 00H ; `string'
CONST	ENDS
;	COMDAT ?__LINE__Var@?1??issueCAS@Bank@DRAMsimII@@QAEX_JPBVCommand@3@@Z@4JA
_DATA	SEGMENT
?__LINE__Var@?1??issueCAS@Bank@DRAMsimII@@QAEX_JPBVCommand@3@@Z@4JA DD 0c2H ; `DRAMsimII::Bank::issueCAS'::`2'::__LINE__Var
; Function compile flags: /Odtp /RTCcsu /ZI
_DATA	ENDS
;	COMDAT ?issueCAS@Bank@DRAMsimII@@QAEX_JPBVCommand@2@@Z
_TEXT	SEGMENT
$T160295 = -240						; size = 8
$T160296 = -224						; size = 4
$T160297 = -212						; size = 4
_this$ = -8						; size = 4
_currentTime$ = 8					; size = 8
_currentCommand$ = 16					; size = 4
?issueCAS@Bank@DRAMsimII@@QAEX_JPBVCommand@2@@Z PROC	; DRAMsimII::Bank::issueCAS, COMDAT
; _this$ = ecx

; 194  : {

	push	ebp
	mov	ebp, esp
	sub	esp, 244				; 000000f4H
	push	ebx
	push	esi
	push	edi
	push	ecx
	lea	edi, DWORD PTR [ebp-244]
	mov	ecx, 61					; 0000003dH
	mov	eax, -858993460				; ccccccccH
	rep stosd
	pop	ecx
	mov	DWORD PTR _this$[ebp], ecx

; 195  : 	//assert(activated);
; 196  : 	assert(openRowID == currentCommand->getAddress().getRow());

	mov	ecx, DWORD PTR _currentCommand$[ebp]
	call	?getAddress@Event@DRAMsimII@@QBEABVAddress@2@XZ ; DRAMsimII::Event::getAddress
	mov	ecx, eax
	call	?getRow@Address@DRAMsimII@@QBEIXZ	; DRAMsimII::Address::getRow
	mov	ecx, DWORD PTR _this$[ebp]
	cmp	DWORD PTR [ecx+120], eax
	je	SHORT $LN3@issueCAS
	mov	edx, DWORD PTR ?__LINE__Var@?1??issueCAS@Bank@DRAMsimII@@QAEX_JPBVCommand@3@@Z@4JA
	add	edx, 2
	mov	esi, esp
	push	edx
	push	OFFSET ??_C@_1JM@ODNEBCJL@?$AAc?$AA?3?$AA?2?$AAu?$AAs?$AAe?$AAr?$AAs?$AA?2?$AAc?$AAr?$AAi?$AAu?$AAs?$AA?2?$AAd?$AAo?$AAc?$AAu?$AAm?$AAe?$AAn?$AAt?$AAs?$AA?2?$AAv?$AAi?$AAs?$AAu?$AAa?$AAl?$AA?5@
	push	OFFSET ??_C@_1GG@LDLONLDE@?$AAo?$AAp?$AAe?$AAn?$AAR?$AAo?$AAw?$AAI?$AAD?$AA?5?$AA?$DN?$AA?$DN?$AA?5?$AAc?$AAu?$AAr?$AAr?$AAe?$AAn?$AAt?$AAC?$AAo?$AAm?$AAm?$AAa?$AAn?$AAd?$AA?9?$AA?$DO?$AAg?$AAe?$AAt@
	call	DWORD PTR __imp___wassert
	add	esp, 12					; 0000000cH
	cmp	esi, esp
	call	__RTC_CheckEsp
$LN3@issueCAS:

; 197  : 
; 198  : 	//lastCASTime = currentTime + timing.tAL();
; 199  : 	lastCASTime = currentTime;

	mov	eax, DWORD PTR _this$[ebp]
	mov	ecx, DWORD PTR _currentTime$[ebp]
	mov	DWORD PTR [eax+56], ecx
	mov	edx, DWORD PTR _currentTime$[ebp+4]
	mov	DWORD PTR [eax+60], edx

; 200  : 
; 201  : 	lastCASLength = currentCommand->getLength();

	mov	ecx, DWORD PTR _currentCommand$[ebp]
	call	?getLength@Command@DRAMsimII@@QBEIXZ	; DRAMsimII::Command::getLength
	mov	ecx, DWORD PTR _this$[ebp]
	mov	DWORD PTR [ecx+80], eax

; 202  : 
; 203  : 	CASCount++;

	mov	eax, DWORD PTR _this$[ebp]
	mov	ecx, DWORD PTR [eax+136]
	add	ecx, 1
	mov	edx, DWORD PTR _this$[ebp]
	mov	DWORD PTR [edx+136], ecx

; 204  : 
; 205  : 	// calculate when the next few commands can happen
; 206  : 	/// @todo which is correct?
; 207  : 	//nextPrechargeTime = max(nextPrechargeTime, currentTime + timing.tAL() + timing.tBurst() + timing.tRTP() - timing.tCCD());
; 208  : 	nextPrechargeTime = max(nextPrechargeTime, currentTime + timing.tAL() + timing.tCAS() + timing.tBurst() + max(0,timing.tRTP() - timing.tCMD()));

	mov	eax, DWORD PTR _this$[ebp]
	mov	ecx, DWORD PTR [eax]
	call	?tRTP@TimingSpecification@DRAMsimII@@QBEHXZ ; DRAMsimII::TimingSpecification::tRTP
	mov	esi, eax
	mov	ecx, DWORD PTR _this$[ebp]
	mov	ecx, DWORD PTR [ecx]
	call	?tCMD@TimingSpecification@DRAMsimII@@QBEHXZ ; DRAMsimII::TimingSpecification::tCMD
	sub	esi, eax
	mov	DWORD PTR $T160296[ebp], esi
	mov	DWORD PTR $T160297[ebp], 0
	mov	edx, DWORD PTR _this$[ebp]
	mov	ecx, DWORD PTR [edx]
	call	?tAL@TimingSpecification@DRAMsimII@@QBEHXZ ; DRAMsimII::TimingSpecification::tAL
	cdq
	mov	esi, eax
	add	esi, DWORD PTR _currentTime$[ebp]
	mov	edi, DWORD PTR _currentTime$[ebp+4]
	adc	edi, edx
	mov	eax, DWORD PTR _this$[ebp]
	mov	ecx, DWORD PTR [eax]
	call	?tCAS@TimingSpecification@DRAMsimII@@QBEHXZ ; DRAMsimII::TimingSpecification::tCAS
	cdq
	add	esi, eax
	adc	edi, edx
	mov	ecx, DWORD PTR _this$[ebp]
	mov	ecx, DWORD PTR [ecx]
	call	?tBurst@TimingSpecification@DRAMsimII@@QBEHXZ ; DRAMsimII::TimingSpecification::tBurst
	cdq
	add	esi, eax
	adc	edi, edx
	lea	edx, DWORD PTR $T160296[ebp]
	push	edx
	lea	eax, DWORD PTR $T160297[ebp]
	push	eax
	call	??$max@H@std@@YAABHABH0@Z		; std::max<int>
	add	esp, 8
	mov	eax, DWORD PTR [eax]
	cdq
	add	esi, eax
	adc	edi, edx
	mov	DWORD PTR $T160295[ebp], esi
	mov	DWORD PTR $T160295[ebp+4], edi
	lea	ecx, DWORD PTR $T160295[ebp]
	push	ecx
	mov	edx, DWORD PTR _this$[ebp]
	add	edx, 112				; 00000070H
	push	edx
	call	??$max@_J@std@@YAAB_JAB_J0@Z		; std::max<__int64>
	add	esp, 8
	mov	ecx, DWORD PTR _this$[ebp]
	mov	edx, DWORD PTR [eax]
	mov	DWORD PTR [ecx+112], edx
	mov	eax, DWORD PTR [eax+4]
	mov	DWORD PTR [ecx+116], eax

; 209  : }

	pop	edi
	pop	esi
	pop	ebx
	add	esp, 244				; 000000f4H
	cmp	ebp, esp
	call	__RTC_CheckEsp
	mov	esp, ebp
	pop	ebp
	ret	12					; 0000000cH
?issueCAS@Bank@DRAMsimII@@QAEX_JPBVCommand@2@@Z ENDP	; DRAMsimII::Bank::issueCAS
; Function compile flags: /Odtp /RTCcsu /ZI
; File c:\users\crius\documents\visual studio 2008\projects\dramsimiihg\src\command.h
_TEXT	ENDS
;	COMDAT ?getLength@Command@DRAMsimII@@QBEIXZ
_TEXT	SEGMENT
_this$ = -8						; size = 4
?getLength@Command@DRAMsimII@@QBEIXZ PROC		; DRAMsimII::Command::getLength, COMDAT
; _this$ = ecx

; 81   : 		unsigned getLength() const { return length; }

	push	ebp
	mov	ebp, esp
	sub	esp, 204				; 000000ccH
	push	ebx
	push	esi
	push	edi
	push	ecx
	lea	edi, DWORD PTR [ebp-204]
	mov	ecx, 51					; 00000033H
	mov	eax, -858993460				; ccccccccH
	rep stosd
	pop	ecx
	mov	DWORD PTR _this$[ebp], ecx
	mov	eax, DWORD PTR _this$[ebp]
	mov	eax, DWORD PTR [eax+88]
	pop	edi
	pop	esi
	pop	ebx
	mov	esp, ebp
	pop	ebp
	ret	0
?getLength@Command@DRAMsimII@@QBEIXZ ENDP		; DRAMsimII::Command::getLength
; Function compile flags: /Odtp /RTCcsu /ZI
; File c:\users\crius\documents\visual studio 2008\projects\dramsimiihg\src\timingspecification.h
_TEXT	ENDS
;	COMDAT ?tCAS@TimingSpecification@DRAMsimII@@QBEHXZ
_TEXT	SEGMENT
_this$ = -8						; size = 4
?tCAS@TimingSpecification@DRAMsimII@@QBEHXZ PROC	; DRAMsimII::TimingSpecification::tCAS, COMDAT
; _this$ = ecx

; 65   : 		int tCAS() const { return t_cas; }

	push	ebp
	mov	ebp, esp
	sub	esp, 204				; 000000ccH
	push	ebx
	push	esi
	push	edi
	push	ecx
	lea	edi, DWORD PTR [ebp-204]
	mov	ecx, 51					; 00000033H
	mov	eax, -858993460				; ccccccccH
	rep stosd
	pop	ecx
	mov	DWORD PTR _this$[ebp], ecx
	mov	eax, DWORD PTR _this$[ebp]
	mov	eax, DWORD PTR [eax+8]
	pop	edi
	pop	esi
	pop	ebx
	mov	esp, ebp
	pop	ebp
	ret	0
?tCAS@TimingSpecification@DRAMsimII@@QBEHXZ ENDP	; DRAMsimII::TimingSpecification::tCAS
; Function compile flags: /Odtp /RTCcsu /ZI
_TEXT	ENDS
;	COMDAT ?tCMD@TimingSpecification@DRAMsimII@@QBEHXZ
_TEXT	SEGMENT
_this$ = -8						; size = 4
?tCMD@TimingSpecification@DRAMsimII@@QBEHXZ PROC	; DRAMsimII::TimingSpecification::tCMD, COMDAT
; _this$ = ecx

; 73   : 		int tCMD() const { return t_cmd; }

	push	ebp
	mov	ebp, esp
	sub	esp, 204				; 000000ccH
	push	ebx
	push	esi
	push	edi
	push	ecx
	lea	edi, DWORD PTR [ebp-204]
	mov	ecx, 51					; 00000033H
	mov	eax, -858993460				; ccccccccH
	rep stosd
	pop	ecx
	mov	DWORD PTR _this$[ebp], ecx
	mov	eax, DWORD PTR _this$[ebp]
	mov	eax, DWORD PTR [eax+16]
	pop	edi
	pop	esi
	pop	ebx
	mov	esp, ebp
	pop	ebp
	ret	0
?tCMD@TimingSpecification@DRAMsimII@@QBEHXZ ENDP	; DRAMsimII::TimingSpecification::tCMD
_TEXT	ENDS
PUBLIC	?__LINE__Var@?1??issueCASW@Bank@DRAMsimII@@QAEX_JPBVCommand@3@@Z@4JA ; `DRAMsimII::Bank::issueCASW'::`2'::__LINE__Var
PUBLIC	?issueCASW@Bank@DRAMsimII@@QAEX_JPBVCommand@2@@Z ; DRAMsimII::Bank::issueCASW
;	COMDAT ?__LINE__Var@?1??issueCASW@Bank@DRAMsimII@@QAEX_JPBVCommand@3@@Z@4JA
; File c:\users\crius\documents\visual studio 2008\projects\dramsimiihg\src\bank.cpp
_DATA	SEGMENT
?__LINE__Var@?1??issueCASW@Bank@DRAMsimII@@QAEX_JPBVCommand@3@@Z@4JA DD 0d7H ; `DRAMsimII::Bank::issueCASW'::`2'::__LINE__Var
; Function compile flags: /Odtp /RTCcsu /ZI
_DATA	ENDS
;	COMDAT ?issueCASW@Bank@DRAMsimII@@QAEX_JPBVCommand@2@@Z
_TEXT	SEGMENT
$T160307 = -216						; size = 8
_this$ = -8						; size = 4
_currentTime$ = 8					; size = 8
_currentCommand$ = 16					; size = 4
?issueCASW@Bank@DRAMsimII@@QAEX_JPBVCommand@2@@Z PROC	; DRAMsimII::Bank::issueCASW, COMDAT
; _this$ = ecx

; 215  : {	

	push	ebp
	mov	ebp, esp
	sub	esp, 220				; 000000dcH
	push	ebx
	push	esi
	push	edi
	push	ecx
	lea	edi, DWORD PTR [ebp-220]
	mov	ecx, 55					; 00000037H
	mov	eax, -858993460				; ccccccccH
	rep stosd
	pop	ecx
	mov	DWORD PTR _this$[ebp], ecx

; 216  : 	//assert(activated);
; 217  : 	assert(openRowID == currentCommand->getAddress().getRow());

	mov	ecx, DWORD PTR _currentCommand$[ebp]
	call	?getAddress@Event@DRAMsimII@@QBEABVAddress@2@XZ ; DRAMsimII::Event::getAddress
	mov	ecx, eax
	call	?getRow@Address@DRAMsimII@@QBEIXZ	; DRAMsimII::Address::getRow
	mov	ecx, DWORD PTR _this$[ebp]
	cmp	DWORD PTR [ecx+120], eax
	je	SHORT $LN3@issueCASW
	mov	edx, DWORD PTR ?__LINE__Var@?1??issueCASW@Bank@DRAMsimII@@QAEX_JPBVCommand@3@@Z@4JA
	add	edx, 2
	mov	esi, esp
	push	edx
	push	OFFSET ??_C@_1JM@ODNEBCJL@?$AAc?$AA?3?$AA?2?$AAu?$AAs?$AAe?$AAr?$AAs?$AA?2?$AAc?$AAr?$AAi?$AAu?$AAs?$AA?2?$AAd?$AAo?$AAc?$AAu?$AAm?$AAe?$AAn?$AAt?$AAs?$AA?2?$AAv?$AAi?$AAs?$AAu?$AAa?$AAl?$AA?5@
	push	OFFSET ??_C@_1GG@LDLONLDE@?$AAo?$AAp?$AAe?$AAn?$AAR?$AAo?$AAw?$AAI?$AAD?$AA?5?$AA?$DN?$AA?$DN?$AA?5?$AAc?$AAu?$AAr?$AAr?$AAe?$AAn?$AAt?$AAC?$AAo?$AAm?$AAm?$AAa?$AAn?$AAd?$AA?9?$AA?$DO?$AAg?$AAe?$AAt@
	call	DWORD PTR __imp___wassert
	add	esp, 12					; 0000000cH
	cmp	esi, esp
	call	__RTC_CheckEsp
$LN3@issueCASW:

; 218  : 
; 219  : 	//lastCASWTime = currentTime + timing.tAL();
; 220  : 	lastCASWTime = currentTime;

	mov	eax, DWORD PTR _this$[ebp]
	mov	ecx, DWORD PTR _currentTime$[ebp]
	mov	DWORD PTR [eax+64], ecx
	mov	edx, DWORD PTR _currentTime$[ebp+4]
	mov	DWORD PTR [eax+68], edx

; 221  : 
; 222  : 	lastCASWLength = currentCommand->getLength();

	mov	ecx, DWORD PTR _currentCommand$[ebp]
	call	?getLength@Command@DRAMsimII@@QBEIXZ	; DRAMsimII::Command::getLength
	mov	ecx, DWORD PTR _this$[ebp]
	mov	DWORD PTR [ecx+84], eax

; 223  : 
; 224  : 	CASWCount++;

	mov	eax, DWORD PTR _this$[ebp]
	mov	ecx, DWORD PTR [eax+144]
	add	ecx, 1
	mov	edx, DWORD PTR _this$[ebp]
	mov	DWORD PTR [edx+144], ecx

; 225  : 
; 226  : 	// calculate when the next few commands can happen
; 227  : 	nextPrechargeTime = max(nextPrechargeTime, currentTime + timing.tAL() + timing.tCWD() + timing.tBurst() + timing.tWR());

	mov	eax, DWORD PTR _this$[ebp]
	mov	ecx, DWORD PTR [eax]
	call	?tAL@TimingSpecification@DRAMsimII@@QBEHXZ ; DRAMsimII::TimingSpecification::tAL
	cdq
	mov	esi, eax
	add	esi, DWORD PTR _currentTime$[ebp]
	mov	edi, DWORD PTR _currentTime$[ebp+4]
	adc	edi, edx
	mov	ecx, DWORD PTR _this$[ebp]
	mov	ecx, DWORD PTR [ecx]
	call	?tCWD@TimingSpecification@DRAMsimII@@QBEHXZ ; DRAMsimII::TimingSpecification::tCWD
	cdq
	add	esi, eax
	adc	edi, edx
	mov	edx, DWORD PTR _this$[ebp]
	mov	ecx, DWORD PTR [edx]
	call	?tBurst@TimingSpecification@DRAMsimII@@QBEHXZ ; DRAMsimII::TimingSpecification::tBurst
	cdq
	add	esi, eax
	adc	edi, edx
	mov	eax, DWORD PTR _this$[ebp]
	mov	ecx, DWORD PTR [eax]
	call	?tWR@TimingSpecification@DRAMsimII@@QBEHXZ ; DRAMsimII::TimingSpecification::tWR
	cdq
	add	esi, eax
	adc	edi, edx
	mov	DWORD PTR $T160307[ebp], esi
	mov	DWORD PTR $T160307[ebp+4], edi
	lea	ecx, DWORD PTR $T160307[ebp]
	push	ecx
	mov	edx, DWORD PTR _this$[ebp]
	add	edx, 112				; 00000070H
	push	edx
	call	??$max@_J@std@@YAAB_JAB_J0@Z		; std::max<__int64>
	add	esp, 8
	mov	ecx, DWORD PTR _this$[ebp]
	mov	edx, DWORD PTR [eax]
	mov	DWORD PTR [ecx+112], edx
	mov	eax, DWORD PTR [eax+4]
	mov	DWORD PTR [ecx+116], eax

; 228  : }

	pop	edi
	pop	esi
	pop	ebx
	add	esp, 220				; 000000dcH
	cmp	ebp, esp
	call	__RTC_CheckEsp
	mov	esp, ebp
	pop	ebp
	ret	12					; 0000000cH
?issueCASW@Bank@DRAMsimII@@QAEX_JPBVCommand@2@@Z ENDP	; DRAMsimII::Bank::issueCASW
_TEXT	ENDS
PUBLIC	?__LINE__Var@?1??issueREF@Bank@DRAMsimII@@QAEXXZ@4JA ; `DRAMsimII::Bank::issueREF'::`2'::__LINE__Var
PUBLIC	?issueREF@Bank@DRAMsimII@@QAEXXZ		; DRAMsimII::Bank::issueREF
;	COMDAT ?__LINE__Var@?1??issueREF@Bank@DRAMsimII@@QAEXXZ@4JA
_DATA	SEGMENT
?__LINE__Var@?1??issueREF@Bank@DRAMsimII@@QAEXXZ@4JA DD 0eaH ; `DRAMsimII::Bank::issueREF'::`2'::__LINE__Var
; Function compile flags: /Odtp /RTCcsu /ZI
_DATA	ENDS
;	COMDAT ?issueREF@Bank@DRAMsimII@@QAEXXZ
_TEXT	SEGMENT
_this$ = -8						; size = 4
?issueREF@Bank@DRAMsimII@@QAEXXZ PROC			; DRAMsimII::Bank::issueREF, COMDAT
; _this$ = ecx

; 234  : {

	push	ebp
	mov	ebp, esp
	sub	esp, 204				; 000000ccH
	push	ebx
	push	esi
	push	edi
	push	ecx
	lea	edi, DWORD PTR [ebp-204]
	mov	ecx, 51					; 00000033H
	mov	eax, -858993460				; ccccccccH
	rep stosd
	pop	ecx
	mov	DWORD PTR _this$[ebp], ecx

; 235  : 	assert(!activated);

	mov	eax, DWORD PTR _this$[ebp]
	movzx	ecx, BYTE PTR [eax+124]
	test	ecx, ecx
	je	SHORT $LN1@issueREF
	mov	edx, DWORD PTR ?__LINE__Var@?1??issueREF@Bank@DRAMsimII@@QAEXXZ@4JA
	add	edx, 1
	mov	esi, esp
	push	edx
	push	OFFSET ??_C@_1JM@ODNEBCJL@?$AAc?$AA?3?$AA?2?$AAu?$AAs?$AAe?$AAr?$AAs?$AA?2?$AAc?$AAr?$AAi?$AAu?$AAs?$AA?2?$AAd?$AAo?$AAc?$AAu?$AAm?$AAe?$AAn?$AAt?$AAs?$AA?2?$AAv?$AAi?$AAs?$AAu?$AAa?$AAl?$AA?5@
	push	OFFSET ??_C@_1BG@JHKGMDAP@?$AA?$CB?$AAa?$AAc?$AAt?$AAi?$AAv?$AAa?$AAt?$AAe?$AAd?$AA?$AA@
	call	DWORD PTR __imp___wassert
	add	esp, 12					; 0000000cH
	cmp	esi, esp
	call	__RTC_CheckEsp
$LN1@issueREF:

; 236  : }

	pop	edi
	pop	esi
	pop	ebx
	add	esp, 204				; 000000ccH
	cmp	ebp, esp
	call	__RTC_CheckEsp
	mov	esp, ebp
	pop	ebp
	ret	0
?issueREF@Bank@DRAMsimII@@QAEXXZ ENDP			; DRAMsimII::Bank::issueREF
_TEXT	ENDS
PUBLIC	?next@Bank@DRAMsimII@@QBE_JW4CommandType@Command@2@@Z ; DRAMsimII::Bank::next
; Function compile flags: /Odtp /RTCcsu /ZI
;	COMDAT ?next@Bank@DRAMsimII@@QBE_JW4CommandType@Command@2@@Z
_TEXT	SEGMENT
tv64 = -208						; size = 4
_this$ = -8						; size = 4
_nextCommandType$ = 8					; size = 4
?next@Bank@DRAMsimII@@QBE_JW4CommandType@Command@2@@Z PROC ; DRAMsimII::Bank::next, COMDAT
; _this$ = ecx

; 242  : {

	push	ebp
	mov	ebp, esp
	sub	esp, 208				; 000000d0H
	push	ebx
	push	esi
	push	edi
	push	ecx
	lea	edi, DWORD PTR [ebp-208]
	mov	ecx, 52					; 00000034H
	mov	eax, -858993460				; ccccccccH
	rep stosd
	pop	ecx
	mov	DWORD PTR _this$[ebp], ecx

; 243  : 	switch (nextCommandType)

	mov	eax, DWORD PTR _nextCommandType$[ebp]
	mov	DWORD PTR tv64[ebp], eax
	cmp	DWORD PTR tv64[ebp], 12			; 0000000cH
	ja	SHORT $LN1@next
	mov	ecx, DWORD PTR tv64[ebp]
	movzx	edx, BYTE PTR $LN11@next[ecx]
	jmp	DWORD PTR $LN12@next[edx*4]
$LN6@next:

; 244  : 	{
; 245  : 	case Command::ACTIVATE:
; 246  : 		return nextActivateTime;

	mov	ecx, DWORD PTR _this$[ebp]
	mov	eax, DWORD PTR [ecx+88]
	mov	edx, DWORD PTR [ecx+92]
	jmp	SHORT $LN9@next

; 247  : 		break;

	jmp	SHORT $LN9@next
$LN5@next:

; 248  : 	case Command::READ:
; 249  : 	case Command::READ_AND_PRECHARGE:
; 250  : 		return nextReadTime;

	mov	ecx, DWORD PTR _this$[ebp]
	mov	eax, DWORD PTR [ecx+96]
	mov	edx, DWORD PTR [ecx+100]
	jmp	SHORT $LN9@next

; 251  : 		break;

	jmp	SHORT $LN9@next
$LN4@next:

; 252  : 	case Command::WRITE:
; 253  : 	case Command::WRITE_AND_PRECHARGE:
; 254  : 		return nextWriteTime;

	mov	ecx, DWORD PTR _this$[ebp]
	mov	eax, DWORD PTR [ecx+104]
	mov	edx, DWORD PTR [ecx+108]
	jmp	SHORT $LN9@next

; 255  : 		break;

	jmp	SHORT $LN9@next
$LN3@next:

; 256  : 	case Command::PRECHARGE:
; 257  : 		return nextPrechargeTime;

	mov	ecx, DWORD PTR _this$[ebp]
	mov	eax, DWORD PTR [ecx+112]
	mov	edx, DWORD PTR [ecx+116]
	jmp	SHORT $LN9@next

; 258  : 		break;

	jmp	SHORT $LN9@next
$LN2@next:

; 259  : 	case Command::REFRESH_ALL:
; 260  : 		return 0;

	xor	eax, eax
	xor	edx, edx
	jmp	SHORT $LN9@next

; 261  : 		break;

	jmp	SHORT $LN9@next
$LN1@next:

; 262  : 	default:
; 263  : 		return TICK_MAX;

	or	eax, -1
	mov	edx, 2147483647				; 7fffffffH
$LN9@next:

; 264  : 		break;
; 265  : 	}
; 266  : }

	pop	edi
	pop	esi
	pop	ebx
	mov	esp, ebp
	pop	ebp
	ret	4
	npad	2
$LN12@next:
	DD	$LN6@next
	DD	$LN5@next
	DD	$LN4@next
	DD	$LN3@next
	DD	$LN2@next
	DD	$LN1@next
$LN11@next:
	DB	0
	DB	1
	DB	1
	DB	2
	DB	2
	DB	5
	DB	3
	DB	5
	DB	5
	DB	5
	DB	5
	DB	5
	DB	4
?next@Bank@DRAMsimII@@QBE_JW4CommandType@Command@2@@Z ENDP ; DRAMsimII::Bank::next
_TEXT	ENDS
PUBLIC	?tWTR@TimingSpecification@DRAMsimII@@QBEHXZ	; DRAMsimII::TimingSpecification::tWTR
PUBLIC	?resetToTime@Bank@DRAMsimII@@QAEX_J@Z		; DRAMsimII::Bank::resetToTime
; Function compile flags: /Odtp /RTCcsu /ZI
;	COMDAT ?resetToTime@Bank@DRAMsimII@@QAEX_J@Z
_TEXT	SEGMENT
$T160317 = -272						; size = 8
$T160318 = -256						; size = 4
$T160319 = -244						; size = 4
$T160320 = -232						; size = 8
$T160321 = -216						; size = 8
_this$ = -8						; size = 4
_time$ = 8						; size = 8
?resetToTime@Bank@DRAMsimII@@QAEX_J@Z PROC		; DRAMsimII::Bank::resetToTime, COMDAT
; _this$ = ecx

; 275  : {

	push	ebp
	mov	ebp, esp
	sub	esp, 276				; 00000114H
	push	ebx
	push	esi
	push	edi
	push	ecx
	lea	edi, DWORD PTR [ebp-276]
	mov	ecx, 69					; 00000045H
	mov	eax, -858993460				; ccccccccH
	rep stosd
	pop	ecx
	mov	DWORD PTR _this$[ebp], ecx

; 276  : 	lastRASTime = time - timing.tRC();

	mov	eax, DWORD PTR _this$[ebp]
	mov	ecx, DWORD PTR [eax]
	call	?tRC@TimingSpecification@DRAMsimII@@QBEHXZ ; DRAMsimII::TimingSpecification::tRC
	cdq
	mov	ecx, DWORD PTR _time$[ebp]
	sub	ecx, eax
	mov	eax, DWORD PTR _time$[ebp+4]
	sbb	eax, edx
	mov	edx, DWORD PTR _this$[ebp]
	mov	DWORD PTR [edx+48], ecx
	mov	DWORD PTR [edx+52], eax

; 277  : 	lastPrechargeTime = time - timing.tRP();

	mov	eax, DWORD PTR _this$[ebp]
	mov	ecx, DWORD PTR [eax]
	call	?tRP@TimingSpecification@DRAMsimII@@QBEHXZ ; DRAMsimII::TimingSpecification::tRP
	cdq
	mov	ecx, DWORD PTR _time$[ebp]
	sub	ecx, eax
	mov	eax, DWORD PTR _time$[ebp+4]
	sbb	eax, edx
	mov	edx, DWORD PTR _this$[ebp]
	mov	DWORD PTR [edx+72], ecx
	mov	DWORD PTR [edx+76], eax

; 278  : 	lastCASTime = time - timing.tCAS() - timing.tBurst();

	mov	eax, DWORD PTR _this$[ebp]
	mov	ecx, DWORD PTR [eax]
	call	?tCAS@TimingSpecification@DRAMsimII@@QBEHXZ ; DRAMsimII::TimingSpecification::tCAS
	cdq
	mov	esi, DWORD PTR _time$[ebp]
	sub	esi, eax
	mov	edi, DWORD PTR _time$[ebp+4]
	sbb	edi, edx
	mov	ecx, DWORD PTR _this$[ebp]
	mov	ecx, DWORD PTR [ecx]
	call	?tBurst@TimingSpecification@DRAMsimII@@QBEHXZ ; DRAMsimII::TimingSpecification::tBurst
	cdq
	sub	esi, eax
	sbb	edi, edx
	mov	edx, DWORD PTR _this$[ebp]
	mov	DWORD PTR [edx+56], esi
	mov	DWORD PTR [edx+60], edi

; 279  : 	lastCASWTime = time - timing.tCWD() - timing.tWTR() - timing.tBurst();

	mov	eax, DWORD PTR _this$[ebp]
	mov	ecx, DWORD PTR [eax]
	call	?tCWD@TimingSpecification@DRAMsimII@@QBEHXZ ; DRAMsimII::TimingSpecification::tCWD
	cdq
	mov	esi, DWORD PTR _time$[ebp]
	sub	esi, eax
	mov	edi, DWORD PTR _time$[ebp+4]
	sbb	edi, edx
	mov	ecx, DWORD PTR _this$[ebp]
	mov	ecx, DWORD PTR [ecx]
	call	?tWTR@TimingSpecification@DRAMsimII@@QBEHXZ ; DRAMsimII::TimingSpecification::tWTR
	cdq
	sub	esi, eax
	sbb	edi, edx
	mov	edx, DWORD PTR _this$[ebp]
	mov	ecx, DWORD PTR [edx]
	call	?tBurst@TimingSpecification@DRAMsimII@@QBEHXZ ; DRAMsimII::TimingSpecification::tBurst
	cdq
	sub	esi, eax
	sbb	edi, edx
	mov	eax, DWORD PTR _this$[ebp]
	mov	DWORD PTR [eax+64], esi
	mov	DWORD PTR [eax+68], edi

; 280  : 
; 281  : 	nextPrechargeTime = lastCASWTime + timing.tAL() + timing.tCWD() + timing.tBurst() + timing.tWR();

	mov	eax, DWORD PTR _this$[ebp]
	mov	ecx, DWORD PTR [eax]
	call	?tAL@TimingSpecification@DRAMsimII@@QBEHXZ ; DRAMsimII::TimingSpecification::tAL
	cdq
	mov	esi, eax
	mov	ecx, DWORD PTR _this$[ebp]
	add	esi, DWORD PTR [ecx+64]
	mov	edi, DWORD PTR [ecx+68]
	adc	edi, edx
	mov	edx, DWORD PTR _this$[ebp]
	mov	ecx, DWORD PTR [edx]
	call	?tCWD@TimingSpecification@DRAMsimII@@QBEHXZ ; DRAMsimII::TimingSpecification::tCWD
	cdq
	add	esi, eax
	adc	edi, edx
	mov	eax, DWORD PTR _this$[ebp]
	mov	ecx, DWORD PTR [eax]
	call	?tBurst@TimingSpecification@DRAMsimII@@QBEHXZ ; DRAMsimII::TimingSpecification::tBurst
	cdq
	add	esi, eax
	adc	edi, edx
	mov	ecx, DWORD PTR _this$[ebp]
	mov	ecx, DWORD PTR [ecx]
	call	?tWR@TimingSpecification@DRAMsimII@@QBEHXZ ; DRAMsimII::TimingSpecification::tWR
	cdq
	add	esi, eax
	adc	edi, edx
	mov	edx, DWORD PTR _this$[ebp]
	mov	DWORD PTR [edx+112], esi
	mov	DWORD PTR [edx+116], edi

; 282  : 	nextPrechargeTime = max(nextPrechargeTime,lastCASTime + timing.tAL() + timing.tCAS() + timing.tBurst() + max(0,timing.tRTP() - timing.tCMD()));

	mov	eax, DWORD PTR _this$[ebp]
	mov	ecx, DWORD PTR [eax]
	call	?tRTP@TimingSpecification@DRAMsimII@@QBEHXZ ; DRAMsimII::TimingSpecification::tRTP
	mov	esi, eax
	mov	ecx, DWORD PTR _this$[ebp]
	mov	ecx, DWORD PTR [ecx]
	call	?tCMD@TimingSpecification@DRAMsimII@@QBEHXZ ; DRAMsimII::TimingSpecification::tCMD
	sub	esi, eax
	mov	DWORD PTR $T160318[ebp], esi
	mov	DWORD PTR $T160319[ebp], 0
	mov	edx, DWORD PTR _this$[ebp]
	mov	ecx, DWORD PTR [edx]
	call	?tAL@TimingSpecification@DRAMsimII@@QBEHXZ ; DRAMsimII::TimingSpecification::tAL
	cdq
	mov	esi, eax
	mov	eax, DWORD PTR _this$[ebp]
	add	esi, DWORD PTR [eax+56]
	mov	edi, DWORD PTR [eax+60]
	adc	edi, edx
	mov	ecx, DWORD PTR _this$[ebp]
	mov	ecx, DWORD PTR [ecx]
	call	?tCAS@TimingSpecification@DRAMsimII@@QBEHXZ ; DRAMsimII::TimingSpecification::tCAS
	cdq
	add	esi, eax
	adc	edi, edx
	mov	edx, DWORD PTR _this$[ebp]
	mov	ecx, DWORD PTR [edx]
	call	?tBurst@TimingSpecification@DRAMsimII@@QBEHXZ ; DRAMsimII::TimingSpecification::tBurst
	cdq
	add	esi, eax
	adc	edi, edx
	lea	eax, DWORD PTR $T160318[ebp]
	push	eax
	lea	ecx, DWORD PTR $T160319[ebp]
	push	ecx
	call	??$max@H@std@@YAABHABH0@Z		; std::max<int>
	add	esp, 8
	mov	eax, DWORD PTR [eax]
	cdq
	add	esi, eax
	adc	edi, edx
	mov	DWORD PTR $T160317[ebp], esi
	mov	DWORD PTR $T160317[ebp+4], edi
	lea	edx, DWORD PTR $T160317[ebp]
	push	edx
	mov	eax, DWORD PTR _this$[ebp]
	add	eax, 112				; 00000070H
	push	eax
	call	??$max@_J@std@@YAAB_JAB_J0@Z		; std::max<__int64>
	add	esp, 8
	mov	ecx, DWORD PTR _this$[ebp]
	mov	edx, DWORD PTR [eax]
	mov	DWORD PTR [ecx+112], edx
	mov	eax, DWORD PTR [eax+4]
	mov	DWORD PTR [ecx+116], eax

; 283  : 	nextActivateTime = lastPrechargeTime + timing.tRP();

	mov	eax, DWORD PTR _this$[ebp]
	mov	ecx, DWORD PTR [eax]
	call	?tRP@TimingSpecification@DRAMsimII@@QBEHXZ ; DRAMsimII::TimingSpecification::tRP
	cdq
	mov	ecx, DWORD PTR _this$[ebp]
	add	eax, DWORD PTR [ecx+72]
	mov	ecx, DWORD PTR [ecx+76]
	adc	ecx, edx
	mov	edx, DWORD PTR _this$[ebp]
	mov	DWORD PTR [edx+88], eax
	mov	DWORD PTR [edx+92], ecx

; 284  : 
; 285  : 	nextActivateTime = max(nextActivateTime, lastRASTime + timing.tRC());

	mov	eax, DWORD PTR _this$[ebp]
	mov	ecx, DWORD PTR [eax]
	call	?tRC@TimingSpecification@DRAMsimII@@QBEHXZ ; DRAMsimII::TimingSpecification::tRC
	cdq
	mov	ecx, DWORD PTR _this$[ebp]
	add	eax, DWORD PTR [ecx+48]
	mov	ecx, DWORD PTR [ecx+52]
	adc	ecx, edx
	mov	DWORD PTR $T160320[ebp], eax
	mov	DWORD PTR $T160320[ebp+4], ecx
	lea	edx, DWORD PTR $T160320[ebp]
	push	edx
	mov	eax, DWORD PTR _this$[ebp]
	add	eax, 88					; 00000058H
	push	eax
	call	??$max@_J@std@@YAAB_JAB_J0@Z		; std::max<__int64>
	add	esp, 8
	mov	ecx, DWORD PTR _this$[ebp]
	mov	edx, DWORD PTR [eax]
	mov	DWORD PTR [ecx+88], edx
	mov	eax, DWORD PTR [eax+4]
	mov	DWORD PTR [ecx+92], eax

; 286  : 	nextReadTime = lastRASTime + timing.tRCD() - timing.tAL();

	mov	eax, DWORD PTR _this$[ebp]
	mov	ecx, DWORD PTR [eax]
	call	?tRCD@TimingSpecification@DRAMsimII@@QBEHXZ ; DRAMsimII::TimingSpecification::tRCD
	cdq
	mov	esi, eax
	mov	ecx, DWORD PTR _this$[ebp]
	add	esi, DWORD PTR [ecx+48]
	mov	edi, DWORD PTR [ecx+52]
	adc	edi, edx
	mov	edx, DWORD PTR _this$[ebp]
	mov	ecx, DWORD PTR [edx]
	call	?tAL@TimingSpecification@DRAMsimII@@QBEHXZ ; DRAMsimII::TimingSpecification::tAL
	cdq
	sub	esi, eax
	sbb	edi, edx
	mov	eax, DWORD PTR _this$[ebp]
	mov	DWORD PTR [eax+96], esi
	mov	DWORD PTR [eax+100], edi

; 287  : 	nextWriteTime = lastRASTime + timing.tRCD() - timing.tAL();

	mov	eax, DWORD PTR _this$[ebp]
	mov	ecx, DWORD PTR [eax]
	call	?tRCD@TimingSpecification@DRAMsimII@@QBEHXZ ; DRAMsimII::TimingSpecification::tRCD
	cdq
	mov	esi, eax
	mov	ecx, DWORD PTR _this$[ebp]
	add	esi, DWORD PTR [ecx+48]
	mov	edi, DWORD PTR [ecx+52]
	adc	edi, edx
	mov	edx, DWORD PTR _this$[ebp]
	mov	ecx, DWORD PTR [edx]
	call	?tAL@TimingSpecification@DRAMsimII@@QBEHXZ ; DRAMsimII::TimingSpecification::tAL
	cdq
	sub	esi, eax
	sbb	edi, edx
	mov	eax, DWORD PTR _this$[ebp]
	mov	DWORD PTR [eax+104], esi
	mov	DWORD PTR [eax+108], edi

; 288  : 	nextPrechargeTime = max(nextPrechargeTime, lastRASTime + timing.tRAS());

	mov	eax, DWORD PTR _this$[ebp]
	mov	ecx, DWORD PTR [eax]
	call	?tRAS@TimingSpecification@DRAMsimII@@QBEHXZ ; DRAMsimII::TimingSpecification::tRAS
	cdq
	mov	ecx, DWORD PTR _this$[ebp]
	add	eax, DWORD PTR [ecx+48]
	mov	ecx, DWORD PTR [ecx+52]
	adc	ecx, edx
	mov	DWORD PTR $T160321[ebp], eax
	mov	DWORD PTR $T160321[ebp+4], ecx
	lea	edx, DWORD PTR $T160321[ebp]
	push	edx
	mov	eax, DWORD PTR _this$[ebp]
	add	eax, 112				; 00000070H
	push	eax
	call	??$max@_J@std@@YAAB_JAB_J0@Z		; std::max<__int64>
	add	esp, 8
	mov	ecx, DWORD PTR _this$[ebp]
	mov	edx, DWORD PTR [eax]
	mov	DWORD PTR [ecx+112], edx
	mov	eax, DWORD PTR [eax+4]
	mov	DWORD PTR [ecx+116], eax

; 289  : }

	pop	edi
	pop	esi
	pop	ebx
	add	esp, 276				; 00000114H
	cmp	ebp, esp
	call	__RTC_CheckEsp
	mov	esp, ebp
	pop	ebp
	ret	8
?resetToTime@Bank@DRAMsimII@@QAEX_J@Z ENDP		; DRAMsimII::Bank::resetToTime
; Function compile flags: /Odtp /RTCcsu /ZI
; File c:\users\crius\documents\visual studio 2008\projects\dramsimiihg\src\timingspecification.h
_TEXT	ENDS
;	COMDAT ?tWTR@TimingSpecification@DRAMsimII@@QBEHXZ
_TEXT	SEGMENT
_this$ = -8						; size = 4
?tWTR@TimingSpecification@DRAMsimII@@QBEHXZ PROC	; DRAMsimII::TimingSpecification::tWTR, COMDAT
; _this$ = ecx

; 80   : 		int tWTR() const { return t_wtr; };

	push	ebp
	mov	ebp, esp
	sub	esp, 204				; 000000ccH
	push	ebx
	push	esi
	push	edi
	push	ecx
	lea	edi, DWORD PTR [ebp-204]
	mov	ecx, 51					; 00000033H
	mov	eax, -858993460				; ccccccccH
	rep stosd
	pop	ecx
	mov	DWORD PTR _this$[ebp], ecx
	mov	eax, DWORD PTR _this$[ebp]
	mov	eax, DWORD PTR [eax+64]
	pop	edi
	pop	esi
	pop	ebx
	mov	esp, ebp
	pop	ebp
	ret	0
?tWTR@TimingSpecification@DRAMsimII@@QBEHXZ ENDP	; DRAMsimII::TimingSpecification::tWTR
_TEXT	ENDS
PUBLIC	?getSeniorityAgeLimit@SystemConfiguration@DRAMsimII@@QBEIXZ ; DRAMsimII::SystemConfiguration::getSeniorityAgeLimit
PUBLIC	?getEnqueueTime@Event@DRAMsimII@@QBE_JXZ	; DRAMsimII::Event::getEnqueueTime
PUBLIC	?getCommandOrderingAlgorithm@SystemConfiguration@DRAMsimII@@QBE?AW4CommandOrderingAlgorithm@2@XZ ; DRAMsimII::SystemConfiguration::getCommandOrderingAlgorithm
PUBLIC	??_C@_1KI@HDCFBBCA@?$AAc?$AAu?$AAr?$AAr?$AAe?$AAn?$AAt?$AAC?$AAo?$AAm?$AAm?$AAa?$AAn?$AAd?$AA?9?$AA?$DO?$AAg?$AAe?$AAt?$AAA?$AAd?$AAd?$AAr?$AAe?$AAs?$AAs?$AA?$CI?$AA?$CJ?$AA?4?$AAg?$AAe?$AAt@ ; `string'
PUBLIC	??_C@_1KM@GLMKHBLI@?$AAc?$AAu?$AAr?$AAr?$AAe?$AAn?$AAt?$AAC?$AAo?$AAm?$AAm?$AAa?$AAn?$AAd?$AA?9?$AA?$DO?$AAg?$AAe?$AAt?$AAA?$AAd?$AAd?$AAr?$AAe?$AAs?$AAs?$AA?$CI?$AA?$CJ?$AA?4?$AAg?$AAe?$AAt@ ; `string'
PUBLIC	?getBank@Address@DRAMsimII@@QBEIXZ		; DRAMsimII::Address::getBank
PUBLIC	??_C@_1KM@NPMPHOJP@?$AAc?$AAu?$AAr?$AAr?$AAe?$AAn?$AAt?$AAC?$AAo?$AAm?$AAm?$AAa?$AAn?$AAd?$AA?9?$AA?$DO?$AAg?$AAe?$AAt?$AAA?$AAd?$AAd?$AAr?$AAe?$AAs?$AAs?$AA?$CI?$AA?$CJ?$AA?4?$AAg?$AAe?$AAt@ ; `string'
PUBLIC	?getRank@Address@DRAMsimII@@QBEIXZ		; DRAMsimII::Address::getRank
PUBLIC	??_C@_1LI@GHPONGPE@?$AAc?$AAu?$AAr?$AAr?$AAe?$AAn?$AAt?$AAC?$AAo?$AAm?$AAm?$AAa?$AAn?$AAd?$AA?9?$AA?$DO?$AAg?$AAe?$AAt?$AAA?$AAd?$AAd?$AAr?$AAe?$AAs?$AAs?$AA?$CI?$AA?$CJ?$AA?4?$AAg?$AAe?$AAt@ ; `string'
PUBLIC	?__LINE__Var@?1??openPageAggressiveInsertCheck@Bank@DRAMsimII@@QBE_NPBVTransaction@3@_J@Z@4JA ; `DRAMsimII::Bank::openPageAggressiveInsertCheck'::`2'::__LINE__Var
PUBLIC	?getChannel@Address@DRAMsimII@@QBEIXZ		; DRAMsimII::Address::getChannel
PUBLIC	?read@?$Queue@VCommand@DRAMsimII@@@DRAMsimII@@QBEPAVCommand@2@H@Z ; DRAMsimII::Queue<DRAMsimII::Command>::read
PUBLIC	?isBasicPrecharge@Command@DRAMsimII@@QBE_NXZ	; DRAMsimII::Command::isBasicPrecharge
PUBLIC	??A?$Queue@VCommand@DRAMsimII@@@DRAMsimII@@QBEPBVCommand@1@I@Z ; DRAMsimII::Queue<DRAMsimII::Command>::operator[]
PUBLIC	?size@?$Queue@VCommand@DRAMsimII@@@DRAMsimII@@QBEIXZ ; DRAMsimII::Queue<DRAMsimII::Command>::size
PUBLIC	?isReadOrWrite@Command@DRAMsimII@@QBE_NXZ	; DRAMsimII::Command::isReadOrWrite
PUBLIC	?back@?$Queue@VCommand@DRAMsimII@@@DRAMsimII@@QBEPBVCommand@2@XZ ; DRAMsimII::Queue<DRAMsimII::Command>::back
PUBLIC	?freecount@?$Queue@VCommand@DRAMsimII@@@DRAMsimII@@QBEIXZ ; DRAMsimII::Queue<DRAMsimII::Command>::freecount
PUBLIC	?openPageAggressiveInsertCheck@Bank@DRAMsimII@@QBE_NPBVTransaction@2@_J@Z ; DRAMsimII::Bank::openPageAggressiveInsertCheck
;	COMDAT ??_C@_1KI@HDCFBBCA@?$AAc?$AAu?$AAr?$AAr?$AAe?$AAn?$AAt?$AAC?$AAo?$AAm?$AAm?$AAa?$AAn?$AAd?$AA?9?$AA?$DO?$AAg?$AAe?$AAt?$AAA?$AAd?$AAd?$AAr?$AAe?$AAs?$AAs?$AA?$CI?$AA?$CJ?$AA?4?$AAg?$AAe?$AAt@
; File c:\users\crius\documents\visual studio 2008\projects\dramsimiihg\src\bank.cpp
CONST	SEGMENT
??_C@_1KI@HDCFBBCA@?$AAc?$AAu?$AAr?$AAr?$AAe?$AAn?$AAt?$AAC?$AAo?$AAm?$AAm?$AAa?$AAn?$AAd?$AA?9?$AA?$DO?$AAg?$AAe?$AAt?$AAA?$AAd?$AAd?$AAr?$AAe?$AAs?$AAs?$AA?$CI?$AA?$CJ?$AA?4?$AAg?$AAe?$AAt@ DB 'c'
	DB	00H, 'u', 00H, 'r', 00H, 'r', 00H, 'e', 00H, 'n', 00H, 't', 00H
	DB	'C', 00H, 'o', 00H, 'm', 00H, 'm', 00H, 'a', 00H, 'n', 00H, 'd'
	DB	00H, '-', 00H, '>', 00H, 'g', 00H, 'e', 00H, 't', 00H, 'A', 00H
	DB	'd', 00H, 'd', 00H, 'r', 00H, 'e', 00H, 's', 00H, 's', 00H, '('
	DB	00H, ')', 00H, '.', 00H, 'g', 00H, 'e', 00H, 't', 00H, 'R', 00H
	DB	'o', 00H, 'w', 00H, '(', 00H, ')', 00H, ' ', 00H, '=', 00H, '='
	DB	00H, ' ', 00H, 'i', 00H, 'n', 00H, 'c', 00H, 'o', 00H, 'm', 00H
	DB	'i', 00H, 'n', 00H, 'g', 00H, 'T', 00H, 'r', 00H, 'a', 00H, 'n'
	DB	00H, 's', 00H, 'a', 00H, 'c', 00H, 't', 00H, 'i', 00H, 'o', 00H
	DB	'n', 00H, '-', 00H, '>', 00H, 'g', 00H, 'e', 00H, 't', 00H, 'A'
	DB	00H, 'd', 00H, 'd', 00H, 'r', 00H, 'e', 00H, 's', 00H, 's', 00H
	DB	'(', 00H, ')', 00H, '.', 00H, 'g', 00H, 'e', 00H, 't', 00H, 'R'
	DB	00H, 'o', 00H, 'w', 00H, '(', 00H, ')', 00H, 00H, 00H ; `string'
CONST	ENDS
;	COMDAT ??_C@_1KM@GLMKHBLI@?$AAc?$AAu?$AAr?$AAr?$AAe?$AAn?$AAt?$AAC?$AAo?$AAm?$AAm?$AAa?$AAn?$AAd?$AA?9?$AA?$DO?$AAg?$AAe?$AAt?$AAA?$AAd?$AAd?$AAr?$AAe?$AAs?$AAs?$AA?$CI?$AA?$CJ?$AA?4?$AAg?$AAe?$AAt@
CONST	SEGMENT
??_C@_1KM@GLMKHBLI@?$AAc?$AAu?$AAr?$AAr?$AAe?$AAn?$AAt?$AAC?$AAo?$AAm?$AAm?$AAa?$AAn?$AAd?$AA?9?$AA?$DO?$AAg?$AAe?$AAt?$AAA?$AAd?$AAd?$AAr?$AAe?$AAs?$AAs?$AA?$CI?$AA?$CJ?$AA?4?$AAg?$AAe?$AAt@ DB 'c'
	DB	00H, 'u', 00H, 'r', 00H, 'r', 00H, 'e', 00H, 'n', 00H, 't', 00H
	DB	'C', 00H, 'o', 00H, 'm', 00H, 'm', 00H, 'a', 00H, 'n', 00H, 'd'
	DB	00H, '-', 00H, '>', 00H, 'g', 00H, 'e', 00H, 't', 00H, 'A', 00H
	DB	'd', 00H, 'd', 00H, 'r', 00H, 'e', 00H, 's', 00H, 's', 00H, '('
	DB	00H, ')', 00H, '.', 00H, 'g', 00H, 'e', 00H, 't', 00H, 'B', 00H
	DB	'a', 00H, 'n', 00H, 'k', 00H, '(', 00H, ')', 00H, ' ', 00H, '='
	DB	00H, '=', 00H, ' ', 00H, 'i', 00H, 'n', 00H, 'c', 00H, 'o', 00H
	DB	'm', 00H, 'i', 00H, 'n', 00H, 'g', 00H, 'T', 00H, 'r', 00H, 'a'
	DB	00H, 'n', 00H, 's', 00H, 'a', 00H, 'c', 00H, 't', 00H, 'i', 00H
	DB	'o', 00H, 'n', 00H, '-', 00H, '>', 00H, 'g', 00H, 'e', 00H, 't'
	DB	00H, 'A', 00H, 'd', 00H, 'd', 00H, 'r', 00H, 'e', 00H, 's', 00H
	DB	's', 00H, '(', 00H, ')', 00H, '.', 00H, 'g', 00H, 'e', 00H, 't'
	DB	00H, 'B', 00H, 'a', 00H, 'n', 00H, 'k', 00H, '(', 00H, ')', 00H
	DB	00H, 00H					; `string'
CONST	ENDS
;	COMDAT ??_C@_1KM@NPMPHOJP@?$AAc?$AAu?$AAr?$AAr?$AAe?$AAn?$AAt?$AAC?$AAo?$AAm?$AAm?$AAa?$AAn?$AAd?$AA?9?$AA?$DO?$AAg?$AAe?$AAt?$AAA?$AAd?$AAd?$AAr?$AAe?$AAs?$AAs?$AA?$CI?$AA?$CJ?$AA?4?$AAg?$AAe?$AAt@
CONST	SEGMENT
??_C@_1KM@NPMPHOJP@?$AAc?$AAu?$AAr?$AAr?$AAe?$AAn?$AAt?$AAC?$AAo?$AAm?$AAm?$AAa?$AAn?$AAd?$AA?9?$AA?$DO?$AAg?$AAe?$AAt?$AAA?$AAd?$AAd?$AAr?$AAe?$AAs?$AAs?$AA?$CI?$AA?$CJ?$AA?4?$AAg?$AAe?$AAt@ DB 'c'
	DB	00H, 'u', 00H, 'r', 00H, 'r', 00H, 'e', 00H, 'n', 00H, 't', 00H
	DB	'C', 00H, 'o', 00H, 'm', 00H, 'm', 00H, 'a', 00H, 'n', 00H, 'd'
	DB	00H, '-', 00H, '>', 00H, 'g', 00H, 'e', 00H, 't', 00H, 'A', 00H
	DB	'd', 00H, 'd', 00H, 'r', 00H, 'e', 00H, 's', 00H, 's', 00H, '('
	DB	00H, ')', 00H, '.', 00H, 'g', 00H, 'e', 00H, 't', 00H, 'R', 00H
	DB	'a', 00H, 'n', 00H, 'k', 00H, '(', 00H, ')', 00H, ' ', 00H, '='
	DB	00H, '=', 00H, ' ', 00H, 'i', 00H, 'n', 00H, 'c', 00H, 'o', 00H
	DB	'm', 00H, 'i', 00H, 'n', 00H, 'g', 00H, 'T', 00H, 'r', 00H, 'a'
	DB	00H, 'n', 00H, 's', 00H, 'a', 00H, 'c', 00H, 't', 00H, 'i', 00H
	DB	'o', 00H, 'n', 00H, '-', 00H, '>', 00H, 'g', 00H, 'e', 00H, 't'
	DB	00H, 'A', 00H, 'd', 00H, 'd', 00H, 'r', 00H, 'e', 00H, 's', 00H
	DB	's', 00H, '(', 00H, ')', 00H, '.', 00H, 'g', 00H, 'e', 00H, 't'
	DB	00H, 'R', 00H, 'a', 00H, 'n', 00H, 'k', 00H, '(', 00H, ')', 00H
	DB	00H, 00H					; `string'
CONST	ENDS
;	COMDAT ??_C@_1LI@GHPONGPE@?$AAc?$AAu?$AAr?$AAr?$AAe?$AAn?$AAt?$AAC?$AAo?$AAm?$AAm?$AAa?$AAn?$AAd?$AA?9?$AA?$DO?$AAg?$AAe?$AAt?$AAA?$AAd?$AAd?$AAr?$AAe?$AAs?$AAs?$AA?$CI?$AA?$CJ?$AA?4?$AAg?$AAe?$AAt@
CONST	SEGMENT
??_C@_1LI@GHPONGPE@?$AAc?$AAu?$AAr?$AAr?$AAe?$AAn?$AAt?$AAC?$AAo?$AAm?$AAm?$AAa?$AAn?$AAd?$AA?9?$AA?$DO?$AAg?$AAe?$AAt?$AAA?$AAd?$AAd?$AAr?$AAe?$AAs?$AAs?$AA?$CI?$AA?$CJ?$AA?4?$AAg?$AAe?$AAt@ DB 'c'
	DB	00H, 'u', 00H, 'r', 00H, 'r', 00H, 'e', 00H, 'n', 00H, 't', 00H
	DB	'C', 00H, 'o', 00H, 'm', 00H, 'm', 00H, 'a', 00H, 'n', 00H, 'd'
	DB	00H, '-', 00H, '>', 00H, 'g', 00H, 'e', 00H, 't', 00H, 'A', 00H
	DB	'd', 00H, 'd', 00H, 'r', 00H, 'e', 00H, 's', 00H, 's', 00H, '('
	DB	00H, ')', 00H, '.', 00H, 'g', 00H, 'e', 00H, 't', 00H, 'C', 00H
	DB	'h', 00H, 'a', 00H, 'n', 00H, 'n', 00H, 'e', 00H, 'l', 00H, '('
	DB	00H, ')', 00H, ' ', 00H, '=', 00H, '=', 00H, ' ', 00H, 'i', 00H
	DB	'n', 00H, 'c', 00H, 'o', 00H, 'm', 00H, 'i', 00H, 'n', 00H, 'g'
	DB	00H, 'T', 00H, 'r', 00H, 'a', 00H, 'n', 00H, 's', 00H, 'a', 00H
	DB	'c', 00H, 't', 00H, 'i', 00H, 'o', 00H, 'n', 00H, '-', 00H, '>'
	DB	00H, 'g', 00H, 'e', 00H, 't', 00H, 'A', 00H, 'd', 00H, 'd', 00H
	DB	'r', 00H, 'e', 00H, 's', 00H, 's', 00H, '(', 00H, ')', 00H, '.'
	DB	00H, 'g', 00H, 'e', 00H, 't', 00H, 'C', 00H, 'h', 00H, 'a', 00H
	DB	'n', 00H, 'n', 00H, 'e', 00H, 'l', 00H, '(', 00H, ')', 00H, 00H
	DB	00H						; `string'
CONST	ENDS
;	COMDAT ?__LINE__Var@?1??openPageAggressiveInsertCheck@Bank@DRAMsimII@@QBE_NPBVTransaction@3@_J@Z@4JA
_DATA	SEGMENT
?__LINE__Var@?1??openPageAggressiveInsertCheck@Bank@DRAMsimII@@QBE_NPBVTransaction@3@_J@Z@4JA DD 012fH ; `DRAMsimII::Bank::openPageAggressiveInsertCheck'::`2'::__LINE__Var
; Function compile flags: /Odtp /RTCcsu /ZI
_DATA	ENDS
;	COMDAT ?openPageAggressiveInsertCheck@Bank@DRAMsimII@@QBE_NPBVTransaction@2@_J@Z
_TEXT	SEGMENT
tv373 = -280						; size = 8
tv370 = -272						; size = 8
_currentCommand$136363 = -68				; size = 4
_currentIndex$136359 = -56				; size = 4
_currentRow$136358 = -44				; size = 4
_i$136351 = -32						; size = 4
_availableSlots$136348 = -20				; size = 4
_this$ = -8						; size = 4
_incomingTransaction$ = 8				; size = 4
_time$ = 12						; size = 8
?openPageAggressiveInsertCheck@Bank@DRAMsimII@@QBE_NPBVTransaction@2@_J@Z PROC ; DRAMsimII::Bank::openPageAggressiveInsertCheck, COMDAT
; _this$ = ecx

; 303  : {

	push	ebp
	mov	ebp, esp
	sub	esp, 280				; 00000118H
	push	ebx
	push	esi
	push	edi
	push	ecx
	lea	edi, DWORD PTR [ebp-280]
	mov	ecx, 70					; 00000046H
	mov	eax, -858993460				; ccccccccH
	rep stosd
	pop	ecx
	mov	DWORD PTR _this$[ebp], ecx

; 304  : 	if (perBankQueue.freecount() >= 3)

	mov	ecx, DWORD PTR _this$[ebp]
	add	ecx, 8
	call	?freecount@?$Queue@VCommand@DRAMsimII@@@DRAMsimII@@QBEIXZ ; DRAMsimII::Queue<DRAMsimII::Command>::freecount
	cmp	eax, 3
	jb	SHORT $LN19@openPageAg

; 305  : 	{
; 306  : 		return true;

	mov	al, 1
	jmp	$LN20@openPageAg

; 307  : 	}
; 308  : 	else 

	jmp	$LN20@openPageAg
$LN19@openPageAg:

; 309  : 	{
; 310  : 		unsigned availableSlots = perBankQueue.freecount();

	mov	ecx, DWORD PTR _this$[ebp]
	add	ecx, 8
	call	?freecount@?$Queue@VCommand@DRAMsimII@@@DRAMsimII@@QBEIXZ ; DRAMsimII::Queue<DRAMsimII::Command>::freecount
	mov	DWORD PTR _availableSlots$136348[ebp], eax

; 311  : 
; 312  : 		// if the queue ends with a R/W(+P), then all that is needed is A, R/W
; 313  : 		if (perBankQueue.back()->isReadOrWrite())

	mov	ecx, DWORD PTR _this$[ebp]
	add	ecx, 8
	call	?back@?$Queue@VCommand@DRAMsimII@@@DRAMsimII@@QBEPBVCommand@2@XZ ; DRAMsimII::Queue<DRAMsimII::Command>::back
	mov	ecx, eax
	call	?isReadOrWrite@Command@DRAMsimII@@QBE_NXZ ; DRAMsimII::Command::isReadOrWrite
	movzx	eax, al
	test	eax, eax
	je	SHORT $LN17@openPageAg

; 314  : 		{
; 315  : 			if (availableSlots >= 2)

	cmp	DWORD PTR _availableSlots$136348[ebp], 2
	jb	SHORT $LN17@openPageAg

; 316  : 				return true;

	mov	al, 1
	jmp	$LN20@openPageAg
$LN17@openPageAg:

; 317  : 		}
; 318  : 
; 319  : 		for (unsigned i = 0; i < perBankQueue.size() - 1; i++)

	mov	DWORD PTR _i$136351[ebp], 0
	jmp	SHORT $LN15@openPageAg
$LN14@openPageAg:
	mov	eax, DWORD PTR _i$136351[ebp]
	add	eax, 1
	mov	DWORD PTR _i$136351[ebp], eax
$LN15@openPageAg:
	mov	ecx, DWORD PTR _this$[ebp]
	add	ecx, 8
	call	?size@?$Queue@VCommand@DRAMsimII@@@DRAMsimII@@QBEIXZ ; DRAMsimII::Queue<DRAMsimII::Command>::size
	sub	eax, 1
	cmp	DWORD PTR _i$136351[ebp], eax
	jae	SHORT $LN13@openPageAg

; 320  : 		{
; 321  : 			if (perBankQueue[i]->isReadOrWrite() && perBankQueue[i+1] && perBankQueue[i+1]->isBasicPrecharge())

	mov	eax, DWORD PTR _i$136351[ebp]
	push	eax
	mov	ecx, DWORD PTR _this$[ebp]
	add	ecx, 8
	call	??A?$Queue@VCommand@DRAMsimII@@@DRAMsimII@@QBEPBVCommand@1@I@Z ; DRAMsimII::Queue<DRAMsimII::Command>::operator[]
	mov	ecx, eax
	call	?isReadOrWrite@Command@DRAMsimII@@QBE_NXZ ; DRAMsimII::Command::isReadOrWrite
	movzx	ecx, al
	test	ecx, ecx
	je	SHORT $LN12@openPageAg
	mov	eax, DWORD PTR _i$136351[ebp]
	add	eax, 1
	push	eax
	mov	ecx, DWORD PTR _this$[ebp]
	add	ecx, 8
	call	??A?$Queue@VCommand@DRAMsimII@@@DRAMsimII@@QBEPBVCommand@1@I@Z ; DRAMsimII::Queue<DRAMsimII::Command>::operator[]
	test	eax, eax
	je	SHORT $LN12@openPageAg
	mov	eax, DWORD PTR _i$136351[ebp]
	add	eax, 1
	push	eax
	mov	ecx, DWORD PTR _this$[ebp]
	add	ecx, 8
	call	??A?$Queue@VCommand@DRAMsimII@@@DRAMsimII@@QBEPBVCommand@1@I@Z ; DRAMsimII::Queue<DRAMsimII::Command>::operator[]
	mov	ecx, eax
	call	?isBasicPrecharge@Command@DRAMsimII@@QBE_NXZ ; DRAMsimII::Command::isBasicPrecharge
	movzx	ecx, al
	test	ecx, ecx
	je	SHORT $LN12@openPageAg

; 322  : 			{
; 323  : 				availableSlots++;

	mov	eax, DWORD PTR _availableSlots$136348[ebp]
	add	eax, 1
	mov	DWORD PTR _availableSlots$136348[ebp], eax

; 324  : 				if (availableSlots >= 3)

	cmp	DWORD PTR _availableSlots$136348[ebp], 3
	jb	SHORT $LN12@openPageAg

; 325  : 					return true;

	mov	al, 1
	jmp	$LN20@openPageAg
$LN12@openPageAg:

; 326  : 			}
; 327  : 		}

	jmp	$LN14@openPageAg
$LN13@openPageAg:

; 328  : 
; 329  : 		if (availableSlots == 0)

	cmp	DWORD PTR _availableSlots$136348[ebp], 0
	jne	SHORT $LN10@openPageAg

; 330  : 			return false;

	xor	al, al
	jmp	$LN20@openPageAg
$LN10@openPageAg:

; 331  : 
; 332  : 		const unsigned currentRow = incomingTransaction->getAddress().getRow();

	mov	ecx, DWORD PTR _incomingTransaction$[ebp]
	call	?getAddress@Event@DRAMsimII@@QBEABVAddress@2@XZ ; DRAMsimII::Event::getAddress
	mov	ecx, eax
	call	?getRow@Address@DRAMsimII@@QBEIXZ	; DRAMsimII::Address::getRow
	mov	DWORD PTR _currentRow$136358[ebp], eax

; 333  : 
; 334  : 		// look in the bank_q and see if there's a precharge for this row to insert before		
; 335  : 		// go from tail to head
; 336  : 		for (int currentIndex = perBankQueue.size() - 1; currentIndex >= 0; --currentIndex)

	mov	ecx, DWORD PTR _this$[ebp]
	add	ecx, 8
	call	?size@?$Queue@VCommand@DRAMsimII@@@DRAMsimII@@QBEIXZ ; DRAMsimII::Queue<DRAMsimII::Command>::size
	sub	eax, 1
	mov	DWORD PTR _currentIndex$136359[ebp], eax
	jmp	SHORT $LN9@openPageAg
$LN8@openPageAg:
	mov	eax, DWORD PTR _currentIndex$136359[ebp]
	sub	eax, 1
	mov	DWORD PTR _currentIndex$136359[ebp], eax
$LN9@openPageAg:
	cmp	DWORD PTR _currentIndex$136359[ebp], 0
	jl	$LN7@openPageAg

; 337  : 		{	
; 338  : 			const Command *currentCommand = perBankQueue.read(currentIndex);

	mov	eax, DWORD PTR _currentIndex$136359[ebp]
	push	eax
	mov	ecx, DWORD PTR _this$[ebp]
	add	ecx, 8
	call	?read@?$Queue@VCommand@DRAMsimII@@@DRAMsimII@@QBEPAVCommand@2@H@Z ; DRAMsimII::Queue<DRAMsimII::Command>::read
	mov	DWORD PTR _currentCommand$136363[ebp], eax

; 339  : 
; 340  : 			// channel, rank, bank, row all match, insert just before this precharge command
; 341  : 			if (currentCommand->isReadOrWrite() && (currentCommand->getAddress().getRow() == currentRow))

	mov	ecx, DWORD PTR _currentCommand$136363[ebp]
	call	?isReadOrWrite@Command@DRAMsimII@@QBE_NXZ ; DRAMsimII::Command::isReadOrWrite
	movzx	eax, al
	test	eax, eax
	je	$LN6@openPageAg
	mov	ecx, DWORD PTR _currentCommand$136363[ebp]
	call	?getAddress@Event@DRAMsimII@@QBEABVAddress@2@XZ ; DRAMsimII::Event::getAddress
	mov	ecx, eax
	call	?getRow@Address@DRAMsimII@@QBEIXZ	; DRAMsimII::Address::getRow
	cmp	eax, DWORD PTR _currentRow$136358[ebp]
	jne	$LN6@openPageAg

; 342  : 			{
; 343  : 				assert(currentCommand->getAddress().getChannel() == incomingTransaction->getAddress().getChannel());

	mov	ecx, DWORD PTR _currentCommand$136363[ebp]
	call	?getAddress@Event@DRAMsimII@@QBEABVAddress@2@XZ ; DRAMsimII::Event::getAddress
	mov	ecx, eax
	call	?getChannel@Address@DRAMsimII@@QBEIXZ	; DRAMsimII::Address::getChannel
	mov	esi, eax
	mov	ecx, DWORD PTR _incomingTransaction$[ebp]
	call	?getAddress@Event@DRAMsimII@@QBEABVAddress@2@XZ ; DRAMsimII::Event::getAddress
	mov	ecx, eax
	call	?getChannel@Address@DRAMsimII@@QBEIXZ	; DRAMsimII::Address::getChannel
	cmp	esi, eax
	je	SHORT $LN22@openPageAg
	mov	eax, DWORD PTR ?__LINE__Var@?1??openPageAggressiveInsertCheck@Bank@DRAMsimII@@QBE_NPBVTransaction@3@_J@Z@4JA
	add	eax, 40					; 00000028H
	mov	esi, esp
	push	eax
	push	OFFSET ??_C@_1JM@ODNEBCJL@?$AAc?$AA?3?$AA?2?$AAu?$AAs?$AAe?$AAr?$AAs?$AA?2?$AAc?$AAr?$AAi?$AAu?$AAs?$AA?2?$AAd?$AAo?$AAc?$AAu?$AAm?$AAe?$AAn?$AAt?$AAs?$AA?2?$AAv?$AAi?$AAs?$AAu?$AAa?$AAl?$AA?5@
	push	OFFSET ??_C@_1LI@GHPONGPE@?$AAc?$AAu?$AAr?$AAr?$AAe?$AAn?$AAt?$AAC?$AAo?$AAm?$AAm?$AAa?$AAn?$AAd?$AA?9?$AA?$DO?$AAg?$AAe?$AAt?$AAA?$AAd?$AAd?$AAr?$AAe?$AAs?$AAs?$AA?$CI?$AA?$CJ?$AA?4?$AAg?$AAe?$AAt@
	call	DWORD PTR __imp___wassert
	add	esp, 12					; 0000000cH
	cmp	esi, esp
	call	__RTC_CheckEsp
$LN22@openPageAg:

; 344  : 				assert(currentCommand->getAddress().getRank() == incomingTransaction->getAddress().getRank());

	mov	ecx, DWORD PTR _currentCommand$136363[ebp]
	call	?getAddress@Event@DRAMsimII@@QBEABVAddress@2@XZ ; DRAMsimII::Event::getAddress
	mov	ecx, eax
	call	?getRank@Address@DRAMsimII@@QBEIXZ	; DRAMsimII::Address::getRank
	mov	esi, eax
	mov	ecx, DWORD PTR _incomingTransaction$[ebp]
	call	?getAddress@Event@DRAMsimII@@QBEABVAddress@2@XZ ; DRAMsimII::Event::getAddress
	mov	ecx, eax
	call	?getRank@Address@DRAMsimII@@QBEIXZ	; DRAMsimII::Address::getRank
	cmp	esi, eax
	je	SHORT $LN23@openPageAg
	mov	eax, DWORD PTR ?__LINE__Var@?1??openPageAggressiveInsertCheck@Bank@DRAMsimII@@QBE_NPBVTransaction@3@_J@Z@4JA
	add	eax, 41					; 00000029H
	mov	esi, esp
	push	eax
	push	OFFSET ??_C@_1JM@ODNEBCJL@?$AAc?$AA?3?$AA?2?$AAu?$AAs?$AAe?$AAr?$AAs?$AA?2?$AAc?$AAr?$AAi?$AAu?$AAs?$AA?2?$AAd?$AAo?$AAc?$AAu?$AAm?$AAe?$AAn?$AAt?$AAs?$AA?2?$AAv?$AAi?$AAs?$AAu?$AAa?$AAl?$AA?5@
	push	OFFSET ??_C@_1KM@NPMPHOJP@?$AAc?$AAu?$AAr?$AAr?$AAe?$AAn?$AAt?$AAC?$AAo?$AAm?$AAm?$AAa?$AAn?$AAd?$AA?9?$AA?$DO?$AAg?$AAe?$AAt?$AAA?$AAd?$AAd?$AAr?$AAe?$AAs?$AAs?$AA?$CI?$AA?$CJ?$AA?4?$AAg?$AAe?$AAt@
	call	DWORD PTR __imp___wassert
	add	esp, 12					; 0000000cH
	cmp	esi, esp
	call	__RTC_CheckEsp
$LN23@openPageAg:

; 345  : 				assert(currentCommand->getAddress().getBank() == incomingTransaction->getAddress().getBank());

	mov	ecx, DWORD PTR _currentCommand$136363[ebp]
	call	?getAddress@Event@DRAMsimII@@QBEABVAddress@2@XZ ; DRAMsimII::Event::getAddress
	mov	ecx, eax
	call	?getBank@Address@DRAMsimII@@QBEIXZ	; DRAMsimII::Address::getBank
	mov	esi, eax
	mov	ecx, DWORD PTR _incomingTransaction$[ebp]
	call	?getAddress@Event@DRAMsimII@@QBEABVAddress@2@XZ ; DRAMsimII::Event::getAddress
	mov	ecx, eax
	call	?getBank@Address@DRAMsimII@@QBEIXZ	; DRAMsimII::Address::getBank
	cmp	esi, eax
	je	SHORT $LN24@openPageAg
	mov	eax, DWORD PTR ?__LINE__Var@?1??openPageAggressiveInsertCheck@Bank@DRAMsimII@@QBE_NPBVTransaction@3@_J@Z@4JA
	add	eax, 42					; 0000002aH
	mov	esi, esp
	push	eax
	push	OFFSET ??_C@_1JM@ODNEBCJL@?$AAc?$AA?3?$AA?2?$AAu?$AAs?$AAe?$AAr?$AAs?$AA?2?$AAc?$AAr?$AAi?$AAu?$AAs?$AA?2?$AAd?$AAo?$AAc?$AAu?$AAm?$AAe?$AAn?$AAt?$AAs?$AA?2?$AAv?$AAi?$AAs?$AAu?$AAa?$AAl?$AA?5@
	push	OFFSET ??_C@_1KM@GLMKHBLI@?$AAc?$AAu?$AAr?$AAr?$AAe?$AAn?$AAt?$AAC?$AAo?$AAm?$AAm?$AAa?$AAn?$AAd?$AA?9?$AA?$DO?$AAg?$AAe?$AAt?$AAA?$AAd?$AAd?$AAr?$AAe?$AAs?$AAs?$AA?$CI?$AA?$CJ?$AA?4?$AAg?$AAe?$AAt@
	call	DWORD PTR __imp___wassert
	add	esp, 12					; 0000000cH
	cmp	esi, esp
	call	__RTC_CheckEsp
$LN24@openPageAg:

; 346  : 				assert(currentCommand->getAddress().getRow() == incomingTransaction->getAddress().getRow());

	mov	ecx, DWORD PTR _currentCommand$136363[ebp]
	call	?getAddress@Event@DRAMsimII@@QBEABVAddress@2@XZ ; DRAMsimII::Event::getAddress
	mov	ecx, eax
	call	?getRow@Address@DRAMsimII@@QBEIXZ	; DRAMsimII::Address::getRow
	mov	esi, eax
	mov	ecx, DWORD PTR _incomingTransaction$[ebp]
	call	?getAddress@Event@DRAMsimII@@QBEABVAddress@2@XZ ; DRAMsimII::Event::getAddress
	mov	ecx, eax
	call	?getRow@Address@DRAMsimII@@QBEIXZ	; DRAMsimII::Address::getRow
	cmp	esi, eax
	je	SHORT $LN25@openPageAg
	mov	eax, DWORD PTR ?__LINE__Var@?1??openPageAggressiveInsertCheck@Bank@DRAMsimII@@QBE_NPBVTransaction@3@_J@Z@4JA
	add	eax, 43					; 0000002bH
	mov	esi, esp
	push	eax
	push	OFFSET ??_C@_1JM@ODNEBCJL@?$AAc?$AA?3?$AA?2?$AAu?$AAs?$AAe?$AAr?$AAs?$AA?2?$AAc?$AAr?$AAi?$AAu?$AAs?$AA?2?$AAd?$AAo?$AAc?$AAu?$AAm?$AAe?$AAn?$AAt?$AAs?$AA?2?$AAv?$AAi?$AAs?$AAu?$AAa?$AAl?$AA?5@
	push	OFFSET ??_C@_1KI@HDCFBBCA@?$AAc?$AAu?$AAr?$AAr?$AAe?$AAn?$AAt?$AAC?$AAo?$AAm?$AAm?$AAa?$AAn?$AAd?$AA?9?$AA?$DO?$AAg?$AAe?$AAt?$AAA?$AAd?$AAd?$AAr?$AAe?$AAs?$AAs?$AA?$CI?$AA?$CJ?$AA?4?$AAg?$AAe?$AAt@
	call	DWORD PTR __imp___wassert
	add	esp, 12					; 0000000cH
	cmp	esi, esp
	call	__RTC_CheckEsp
$LN25@openPageAg:

; 347  : 
; 348  : 				return true;

	mov	al, 1
	jmp	$LN20@openPageAg
	jmp	SHORT $LN5@openPageAg
$LN6@openPageAg:

; 349  : 			}
; 350  : 			// strict order may add to the end of the queue only
; 351  : 			// if this has not happened already then this method of insertion fails
; 352  : 			else if (systemConfig.getCommandOrderingAlgorithm() == STRICT_ORDER)

	mov	eax, DWORD PTR _this$[ebp]
	mov	ecx, DWORD PTR [eax+4]
	call	?getCommandOrderingAlgorithm@SystemConfiguration@DRAMsimII@@QBE?AW4CommandOrderingAlgorithm@2@XZ ; DRAMsimII::SystemConfiguration::getCommandOrderingAlgorithm
	test	eax, eax
	jne	SHORT $LN4@openPageAg

; 353  : 			{
; 354  : 				return false;

	xor	al, al
	jmp	SHORT $LN20@openPageAg
	jmp	SHORT $LN5@openPageAg
$LN4@openPageAg:

; 355  : 			}
; 356  : 			// then this command has been delayed by too many times and no more
; 357  : 			// commands can preempt it
; 358  : 			else if (time - currentCommand->getEnqueueTime() > systemConfig.getSeniorityAgeLimit())

	mov	ecx, DWORD PTR _currentCommand$136363[ebp]
	call	?getEnqueueTime@Event@DRAMsimII@@QBE_JXZ ; DRAMsimII::Event::getEnqueueTime
	mov	esi, DWORD PTR _time$[ebp]
	sub	esi, eax
	mov	edi, DWORD PTR _time$[ebp+4]
	sbb	edi, edx
	mov	eax, DWORD PTR _this$[ebp]
	mov	ecx, DWORD PTR [eax+4]
	call	?getSeniorityAgeLimit@SystemConfiguration@DRAMsimII@@QBEIXZ ; DRAMsimII::SystemConfiguration::getSeniorityAgeLimit
	xor	ecx, ecx
	mov	DWORD PTR tv370[ebp], esi
	mov	DWORD PTR tv370[ebp+4], edi
	mov	DWORD PTR tv373[ebp], eax
	mov	DWORD PTR tv373[ebp+4], ecx
	mov	edx, DWORD PTR tv370[ebp+4]
	cmp	edx, DWORD PTR tv373[ebp+4]
	jl	SHORT $LN5@openPageAg
	jg	SHORT $LN26@openPageAg
	mov	eax, DWORD PTR tv370[ebp]
	cmp	eax, DWORD PTR tv373[ebp]
	jbe	SHORT $LN5@openPageAg
$LN26@openPageAg:

; 359  : 			{
; 360  : 				return false;

	xor	al, al
	jmp	SHORT $LN20@openPageAg
$LN5@openPageAg:

; 361  : 			}
; 362  : 		}

	jmp	$LN8@openPageAg
$LN7@openPageAg:

; 363  : 		// if the correct row is already open, just insert there
; 364  : 		// already guaranteed not to have RAW/WAR errors
; 365  : 		if (activated && openRowID == currentRow)

	mov	eax, DWORD PTR _this$[ebp]
	movzx	ecx, BYTE PTR [eax+124]
	test	ecx, ecx
	je	SHORT $LN1@openPageAg
	mov	eax, DWORD PTR _this$[ebp]
	mov	ecx, DWORD PTR [eax+120]
	cmp	ecx, DWORD PTR _currentRow$136358[ebp]
	jne	SHORT $LN1@openPageAg

; 366  : 		{	
; 367  : 			return true;

	mov	al, 1
	jmp	SHORT $LN20@openPageAg
$LN1@openPageAg:

; 368  : 		}
; 369  : 		return false;

	xor	al, al
$LN20@openPageAg:

; 370  : 	}
; 371  : }

	pop	edi
	pop	esi
	pop	ebx
	add	esp, 280				; 00000118H
	cmp	ebp, esp
	call	__RTC_CheckEsp
	mov	esp, ebp
	pop	ebp
	ret	12					; 0000000cH
?openPageAggressiveInsertCheck@Bank@DRAMsimII@@QBE_NPBVTransaction@2@_J@Z ENDP ; DRAMsimII::Bank::openPageAggressiveInsertCheck
; Function compile flags: /Odtp /RTCcsu /ZI
; File c:\users\crius\documents\visual studio 2008\projects\dramsimiihg\src\address.h
_TEXT	ENDS
;	COMDAT ?getChannel@Address@DRAMsimII@@QBEIXZ
_TEXT	SEGMENT
_this$ = -8						; size = 4
?getChannel@Address@DRAMsimII@@QBEIXZ PROC		; DRAMsimII::Address::getChannel, COMDAT
; _this$ = ecx

; 86   : 		unsigned getChannel() const { return channel; }

	push	ebp
	mov	ebp, esp
	sub	esp, 204				; 000000ccH
	push	ebx
	push	esi
	push	edi
	push	ecx
	lea	edi, DWORD PTR [ebp-204]
	mov	ecx, 51					; 00000033H
	mov	eax, -858993460				; ccccccccH
	rep stosd
	pop	ecx
	mov	DWORD PTR _this$[ebp], ecx
	mov	eax, DWORD PTR _this$[ebp]
	mov	eax, DWORD PTR [eax+16]
	pop	edi
	pop	esi
	pop	ebx
	mov	esp, ebp
	pop	ebp
	ret	0
?getChannel@Address@DRAMsimII@@QBEIXZ ENDP		; DRAMsimII::Address::getChannel
; Function compile flags: /Odtp /RTCcsu /ZI
_TEXT	ENDS
;	COMDAT ?getRank@Address@DRAMsimII@@QBEIXZ
_TEXT	SEGMENT
_this$ = -8						; size = 4
?getRank@Address@DRAMsimII@@QBEIXZ PROC			; DRAMsimII::Address::getRank, COMDAT
; _this$ = ecx

; 87   : 		unsigned getRank() const { return rank; }

	push	ebp
	mov	ebp, esp
	sub	esp, 204				; 000000ccH
	push	ebx
	push	esi
	push	edi
	push	ecx
	lea	edi, DWORD PTR [ebp-204]
	mov	ecx, 51					; 00000033H
	mov	eax, -858993460				; ccccccccH
	rep stosd
	pop	ecx
	mov	DWORD PTR _this$[ebp], ecx
	mov	eax, DWORD PTR _this$[ebp]
	mov	eax, DWORD PTR [eax+20]
	pop	edi
	pop	esi
	pop	ebx
	mov	esp, ebp
	pop	ebp
	ret	0
?getRank@Address@DRAMsimII@@QBEIXZ ENDP			; DRAMsimII::Address::getRank
; Function compile flags: /Odtp /RTCcsu /ZI
_TEXT	ENDS
;	COMDAT ?getBank@Address@DRAMsimII@@QBEIXZ
_TEXT	SEGMENT
_this$ = -8						; size = 4
?getBank@Address@DRAMsimII@@QBEIXZ PROC			; DRAMsimII::Address::getBank, COMDAT
; _this$ = ecx

; 88   : 		unsigned getBank() const { return bank; }

	push	ebp
	mov	ebp, esp
	sub	esp, 204				; 000000ccH
	push	ebx
	push	esi
	push	edi
	push	ecx
	lea	edi, DWORD PTR [ebp-204]
	mov	ecx, 51					; 00000033H
	mov	eax, -858993460				; ccccccccH
	rep stosd
	pop	ecx
	mov	DWORD PTR _this$[ebp], ecx
	mov	eax, DWORD PTR _this$[ebp]
	mov	eax, DWORD PTR [eax+24]
	pop	edi
	pop	esi
	pop	ebx
	mov	esp, ebp
	pop	ebp
	ret	0
?getBank@Address@DRAMsimII@@QBEIXZ ENDP			; DRAMsimII::Address::getBank
; Function compile flags: /Odtp /RTCcsu /ZI
; File c:\users\crius\documents\visual studio 2008\projects\dramsimiihg\src\event.h
_TEXT	ENDS
;	COMDAT ?getEnqueueTime@Event@DRAMsimII@@QBE_JXZ
_TEXT	SEGMENT
_this$ = -8						; size = 4
?getEnqueueTime@Event@DRAMsimII@@QBE_JXZ PROC		; DRAMsimII::Event::getEnqueueTime, COMDAT
; _this$ = ecx

; 86   : 		tick getEnqueueTime() const { return enqueueTime; }

	push	ebp
	mov	ebp, esp
	sub	esp, 204				; 000000ccH
	push	ebx
	push	esi
	push	edi
	push	ecx
	lea	edi, DWORD PTR [ebp-204]
	mov	ecx, 51					; 00000033H
	mov	eax, -858993460				; ccccccccH
	rep stosd
	pop	ecx
	mov	DWORD PTR _this$[ebp], ecx
	mov	ecx, DWORD PTR _this$[ebp]
	mov	eax, DWORD PTR [ecx+16]
	mov	edx, DWORD PTR [ecx+20]
	pop	edi
	pop	esi
	pop	ebx
	mov	esp, ebp
	pop	ebp
	ret	0
?getEnqueueTime@Event@DRAMsimII@@QBE_JXZ ENDP		; DRAMsimII::Event::getEnqueueTime
_TEXT	ENDS
EXTRN	@_RTC_Check_4_to_1@4:PROC
; Function compile flags: /Odtp /RTCcsu /ZI
; File c:\users\crius\documents\visual studio 2008\projects\dramsimiihg\src\command.h
;	COMDAT ?isBasicPrecharge@Command@DRAMsimII@@QBE_NXZ
_TEXT	SEGMENT
_this$ = -8						; size = 4
?isBasicPrecharge@Command@DRAMsimII@@QBE_NXZ PROC	; DRAMsimII::Command::isBasicPrecharge, COMDAT
; _this$ = ecx

; 86   : 		bool isBasicPrecharge() const { return commandType == PRECHARGE; }

	push	ebp
	mov	ebp, esp
	sub	esp, 204				; 000000ccH
	push	ebx
	push	esi
	push	edi
	push	ecx
	lea	edi, DWORD PTR [ebp-204]
	mov	ecx, 51					; 00000033H
	mov	eax, -858993460				; ccccccccH
	rep stosd
	pop	ecx
	mov	DWORD PTR _this$[ebp], ecx
	mov	eax, DWORD PTR _this$[ebp]
	xor	ecx, ecx
	cmp	DWORD PTR [eax+80], 6
	sete	cl
	call	@_RTC_Check_4_to_1@4
	pop	edi
	pop	esi
	pop	ebx
	add	esp, 204				; 000000ccH
	cmp	ebp, esp
	call	__RTC_CheckEsp
	mov	esp, ebp
	pop	ebp
	ret	0
?isBasicPrecharge@Command@DRAMsimII@@QBE_NXZ ENDP	; DRAMsimII::Command::isBasicPrecharge
_TEXT	ENDS
PUBLIC	?isWrite@Command@DRAMsimII@@QBE_NXZ		; DRAMsimII::Command::isWrite
PUBLIC	?isRead@Command@DRAMsimII@@QBE_NXZ		; DRAMsimII::Command::isRead
; Function compile flags: /Odtp /RTCcsu /ZI
;	COMDAT ?isReadOrWrite@Command@DRAMsimII@@QBE_NXZ
_TEXT	SEGMENT
tv72 = -208						; size = 4
_this$ = -8						; size = 4
?isReadOrWrite@Command@DRAMsimII@@QBE_NXZ PROC		; DRAMsimII::Command::isReadOrWrite, COMDAT
; _this$ = ecx

