; Listing generated by Microsoft (R) Optimizing Compiler Version 15.00.30729.01 

	TITLE	c:\Users\CriuS\Documents\Visual Studio 2008\Projects\DRAMsimIIhg\src\event.cpp
	.686P
	.XMM
	include listing.inc
	.model	flat

INCLUDELIB MSVCRTD
INCLUDELIB OLDNAMES

PUBLIC	??_C@_0P@GHFPNOJB@bad?5allocation?$AA@		; `string'
PUBLIC	?_Value@?$_Is_swap_move@U_Swap_move_tag@std@@@std@@2_NB ; std::_Is_swap_move<std::_Swap_move_tag>::_Value
PUBLIC	?value@integral_c_tag@mpl@boost@@2HB		; boost::mpl::integral_c_tag::value
PUBLIC	?value@?$bool_@$00@mpl@boost@@2_NB		; boost::mpl::bool_<1>::value
PUBLIC	?value@?$bool_@$0A@@mpl@boost@@2_NB		; boost::mpl::bool_<0>::value
PUBLIC	?collate@?$_Locbase@H@std@@2HB			; std::_Locbase<int>::collate
PUBLIC	?ctype@?$_Locbase@H@std@@2HB			; std::_Locbase<int>::ctype
PUBLIC	?monetary@?$_Locbase@H@std@@2HB			; std::_Locbase<int>::monetary
PUBLIC	?numeric@?$_Locbase@H@std@@2HB			; std::_Locbase<int>::numeric
PUBLIC	?time@?$_Locbase@H@std@@2HB			; std::_Locbase<int>::time
PUBLIC	?messages@?$_Locbase@H@std@@2HB			; std::_Locbase<int>::messages
PUBLIC	?all@?$_Locbase@H@std@@2HB			; std::_Locbase<int>::all
PUBLIC	?none@?$_Locbase@H@std@@2HB			; std::_Locbase<int>::none
PUBLIC	?skipws@?$_Iosb@H@std@@2W4_Fmtflags@12@B	; std::_Iosb<int>::skipws
PUBLIC	?unitbuf@?$_Iosb@H@std@@2W4_Fmtflags@12@B	; std::_Iosb<int>::unitbuf
PUBLIC	?uppercase@?$_Iosb@H@std@@2W4_Fmtflags@12@B	; std::_Iosb<int>::uppercase
PUBLIC	?showbase@?$_Iosb@H@std@@2W4_Fmtflags@12@B	; std::_Iosb<int>::showbase
PUBLIC	?showpoint@?$_Iosb@H@std@@2W4_Fmtflags@12@B	; std::_Iosb<int>::showpoint
PUBLIC	?showpos@?$_Iosb@H@std@@2W4_Fmtflags@12@B	; std::_Iosb<int>::showpos
PUBLIC	?left@?$_Iosb@H@std@@2W4_Fmtflags@12@B		; std::_Iosb<int>::left
PUBLIC	?right@?$_Iosb@H@std@@2W4_Fmtflags@12@B		; std::_Iosb<int>::right
PUBLIC	?internal@?$_Iosb@H@std@@2W4_Fmtflags@12@B	; std::_Iosb<int>::internal
PUBLIC	?dec@?$_Iosb@H@std@@2W4_Fmtflags@12@B		; std::_Iosb<int>::dec
PUBLIC	?oct@?$_Iosb@H@std@@2W4_Fmtflags@12@B		; std::_Iosb<int>::oct
PUBLIC	?hex@?$_Iosb@H@std@@2W4_Fmtflags@12@B		; std::_Iosb<int>::hex
PUBLIC	?scientific@?$_Iosb@H@std@@2W4_Fmtflags@12@B	; std::_Iosb<int>::scientific
PUBLIC	?fixed@?$_Iosb@H@std@@2W4_Fmtflags@12@B		; std::_Iosb<int>::fixed
PUBLIC	?hexfloat@?$_Iosb@H@std@@2W4_Fmtflags@12@B	; std::_Iosb<int>::hexfloat
PUBLIC	?boolalpha@?$_Iosb@H@std@@2W4_Fmtflags@12@B	; std::_Iosb<int>::boolalpha
PUBLIC	?_Stdio@?$_Iosb@H@std@@2W4_Fmtflags@12@B	; std::_Iosb<int>::_Stdio
PUBLIC	?adjustfield@?$_Iosb@H@std@@2W4_Fmtflags@12@B	; std::_Iosb<int>::adjustfield
PUBLIC	?basefield@?$_Iosb@H@std@@2W4_Fmtflags@12@B	; std::_Iosb<int>::basefield
PUBLIC	?floatfield@?$_Iosb@H@std@@2W4_Fmtflags@12@B	; std::_Iosb<int>::floatfield
PUBLIC	?goodbit@?$_Iosb@H@std@@2W4_Iostate@12@B	; std::_Iosb<int>::goodbit
PUBLIC	?eofbit@?$_Iosb@H@std@@2W4_Iostate@12@B		; std::_Iosb<int>::eofbit
PUBLIC	?failbit@?$_Iosb@H@std@@2W4_Iostate@12@B	; std::_Iosb<int>::failbit
PUBLIC	?badbit@?$_Iosb@H@std@@2W4_Iostate@12@B		; std::_Iosb<int>::badbit
PUBLIC	?_Hardfail@?$_Iosb@H@std@@2W4_Iostate@12@B	; std::_Iosb<int>::_Hardfail
PUBLIC	?in@?$_Iosb@H@std@@2W4_Openmode@12@B		; std::_Iosb<int>::in
PUBLIC	?out@?$_Iosb@H@std@@2W4_Openmode@12@B		; std::_Iosb<int>::out
PUBLIC	?ate@?$_Iosb@H@std@@2W4_Openmode@12@B		; std::_Iosb<int>::ate
PUBLIC	?app@?$_Iosb@H@std@@2W4_Openmode@12@B		; std::_Iosb<int>::app
PUBLIC	?trunc@?$_Iosb@H@std@@2W4_Openmode@12@B		; std::_Iosb<int>::trunc
PUBLIC	?_Nocreate@?$_Iosb@H@std@@2W4_Openmode@12@B	; std::_Iosb<int>::_Nocreate
PUBLIC	?_Noreplace@?$_Iosb@H@std@@2W4_Openmode@12@B	; std::_Iosb<int>::_Noreplace
PUBLIC	?binary@?$_Iosb@H@std@@2W4_Openmode@12@B	; std::_Iosb<int>::binary
PUBLIC	?beg@?$_Iosb@H@std@@2W4_Seekdir@12@B		; std::_Iosb<int>::beg
PUBLIC	?cur@?$_Iosb@H@std@@2W4_Seekdir@12@B		; std::_Iosb<int>::cur
PUBLIC	?end@?$_Iosb@H@std@@2W4_Seekdir@12@B		; std::_Iosb<int>::end
PUBLIC	?is_integral@?$integer_traits_base@_N$0A@$00@detail@boost@@2_NB ; boost::detail::integer_traits_base<bool,0,1>::is_integral
PUBLIC	?const_min@?$integer_traits_base@_N$0A@$00@detail@boost@@2_NB ; boost::detail::integer_traits_base<bool,0,1>::const_min
PUBLIC	?const_max@?$integer_traits_base@_N$0A@$00@detail@boost@@2_NB ; boost::detail::integer_traits_base<bool,0,1>::const_max
PUBLIC	?is_integral@?$integer_traits_base@D$0?IA@$0HP@@detail@boost@@2_NB ; boost::detail::integer_traits_base<char,-128,127>::is_integral
PUBLIC	?const_min@?$integer_traits_base@D$0?IA@$0HP@@detail@boost@@2DB ; boost::detail::integer_traits_base<char,-128,127>::const_min
PUBLIC	?const_max@?$integer_traits_base@D$0?IA@$0HP@@detail@boost@@2DB ; boost::detail::integer_traits_base<char,-128,127>::const_max
PUBLIC	?is_integral@?$integer_traits_base@C$0?IA@$0HP@@detail@boost@@2_NB ; boost::detail::integer_traits_base<signed char,-128,127>::is_integral
PUBLIC	?const_min@?$integer_traits_base@C$0?IA@$0HP@@detail@boost@@2CB ; boost::detail::integer_traits_base<signed char,-128,127>::const_min
PUBLIC	?const_max@?$integer_traits_base@C$0?IA@$0HP@@detail@boost@@2CB ; boost::detail::integer_traits_base<signed char,-128,127>::const_max
PUBLIC	?is_integral@?$integer_traits_base@E$0A@$0PP@@detail@boost@@2_NB ; boost::detail::integer_traits_base<unsigned char,0,255>::is_integral
PUBLIC	?const_min@?$integer_traits_base@E$0A@$0PP@@detail@boost@@2EB ; boost::detail::integer_traits_base<unsigned char,0,255>::const_min
PUBLIC	?const_max@?$integer_traits_base@E$0A@$0PP@@detail@boost@@2EB ; boost::detail::integer_traits_base<unsigned char,0,255>::const_max
PUBLIC	?is_integral@?$integer_traits_base@_W$0A@$0PPPP@@detail@boost@@2_NB ; boost::detail::integer_traits_base<wchar_t,0,65535>::is_integral
PUBLIC	?const_min@?$integer_traits_base@_W$0A@$0PPPP@@detail@boost@@2_WB ; boost::detail::integer_traits_base<wchar_t,0,65535>::const_min
PUBLIC	?const_max@?$integer_traits_base@_W$0A@$0PPPP@@detail@boost@@2_WB ; boost::detail::integer_traits_base<wchar_t,0,65535>::const_max
PUBLIC	?is_integral@?$integer_traits_base@F$0?IAAA@$0HPPP@@detail@boost@@2_NB ; boost::detail::integer_traits_base<short,-32768,32767>::is_integral
PUBLIC	?const_min@?$integer_traits_base@F$0?IAAA@$0HPPP@@detail@boost@@2FB ; boost::detail::integer_traits_base<short,-32768,32767>::const_min
PUBLIC	?const_max@?$integer_traits_base@F$0?IAAA@$0HPPP@@detail@boost@@2FB ; boost::detail::integer_traits_base<short,-32768,32767>::const_max
PUBLIC	?is_integral@?$integer_traits_base@G$0A@$0PPPP@@detail@boost@@2_NB ; boost::detail::integer_traits_base<unsigned short,0,65535>::is_integral
PUBLIC	?const_min@?$integer_traits_base@G$0A@$0PPPP@@detail@boost@@2GB ; boost::detail::integer_traits_base<unsigned short,0,65535>::const_min
PUBLIC	?const_max@?$integer_traits_base@G$0A@$0PPPP@@detail@boost@@2GB ; boost::detail::integer_traits_base<unsigned short,0,65535>::const_max
PUBLIC	?is_integral@?$integer_traits_base@H$0?IAAAAAAA@$0HPPPPPPP@@detail@boost@@2_NB ; boost::detail::integer_traits_base<int,-2147483648,2147483647>::is_integral
PUBLIC	?const_min@?$integer_traits_base@H$0?IAAAAAAA@$0HPPPPPPP@@detail@boost@@2HB ; boost::detail::integer_traits_base<int,-2147483648,2147483647>::const_min
PUBLIC	?const_max@?$integer_traits_base@H$0?IAAAAAAA@$0HPPPPPPP@@detail@boost@@2HB ; boost::detail::integer_traits_base<int,-2147483648,2147483647>::const_max
PUBLIC	?is_integral@?$integer_traits_base@I$0A@$0PPPPPPPP@@detail@boost@@2_NB ; boost::detail::integer_traits_base<unsigned int,0,4294967295>::is_integral
PUBLIC	?const_min@?$integer_traits_base@I$0A@$0PPPPPPPP@@detail@boost@@2IB ; boost::detail::integer_traits_base<unsigned int,0,4294967295>::const_min
PUBLIC	?const_max@?$integer_traits_base@I$0A@$0PPPPPPPP@@detail@boost@@2IB ; boost::detail::integer_traits_base<unsigned int,0,4294967295>::const_max
PUBLIC	?is_integral@?$integer_traits_base@J$0?IAAAAAAA@$0HPPPPPPP@@detail@boost@@2_NB ; boost::detail::integer_traits_base<long,-2147483648,2147483647>::is_integral
PUBLIC	?const_min@?$integer_traits_base@J$0?IAAAAAAA@$0HPPPPPPP@@detail@boost@@2JB ; boost::detail::integer_traits_base<long,-2147483648,2147483647>::const_min
PUBLIC	?const_max@?$integer_traits_base@J$0?IAAAAAAA@$0HPPPPPPP@@detail@boost@@2JB ; boost::detail::integer_traits_base<long,-2147483648,2147483647>::const_max
PUBLIC	?is_integral@?$integer_traits_base@K$0A@$0PPPPPPPP@@detail@boost@@2_NB ; boost::detail::integer_traits_base<unsigned long,0,4294967295>::is_integral
PUBLIC	?const_min@?$integer_traits_base@K$0A@$0PPPPPPPP@@detail@boost@@2KB ; boost::detail::integer_traits_base<unsigned long,0,4294967295>::const_min
PUBLIC	?const_max@?$integer_traits_base@K$0A@$0PPPPPPPP@@detail@boost@@2KB ; boost::detail::integer_traits_base<unsigned long,0,4294967295>::const_max
PUBLIC	?is_integral@?$integer_traits_base@_J$0?IAAAAAAAAAAAAAAA@$0HPPPPPPPPPPPPPPP@@detail@boost@@2_NB ; boost::detail::integer_traits_base<__int64,-9223372036854775808,9223372036854775807>::is_integral
PUBLIC	?const_min@?$integer_traits_base@_J$0?IAAAAAAAAAAAAAAA@$0HPPPPPPPPPPPPPPP@@detail@boost@@2_JB ; boost::detail::integer_traits_base<__int64,-9223372036854775808,9223372036854775807>::const_min
PUBLIC	?const_max@?$integer_traits_base@_J$0?IAAAAAAAAAAAAAAA@$0HPPPPPPPPPPPPPPP@@detail@boost@@2_JB ; boost::detail::integer_traits_base<__int64,-9223372036854775808,9223372036854775807>::const_max
PUBLIC	?is_integral@?$integer_traits_base@_K$0A@$0?0@detail@boost@@2_NB ; boost::detail::integer_traits_base<unsigned __int64,0,-1>::is_integral
PUBLIC	?const_min@?$integer_traits_base@_K$0A@$0?0@detail@boost@@2_KB ; boost::detail::integer_traits_base<unsigned __int64,0,-1>::const_min
PUBLIC	?const_max@?$integer_traits_base@_K$0A@$0?0@detail@boost@@2_KB ; boost::detail::integer_traits_base<unsigned __int64,0,-1>::const_max
PUBLIC	?value@?$ice_or@$0A@$0A@$0A@$0A@$0A@$0A@$0A@@type_traits@boost@@2_NB ; boost::type_traits::ice_or<0,0,0,0,0,0,0>::value
PUBLIC	?value@?$ice_and@$00$00$00$00$00$00$00@type_traits@boost@@2_NB ; boost::type_traits::ice_and<1,1,1,1,1,1,1>::value
PUBLIC	?value@?$ice_not@$00@type_traits@boost@@2_NB	; boost::type_traits::ice_not<1>::value
PUBLIC	?value@?$is_convertible_impl@XX@detail@boost@@2_NB ; boost::detail::is_convertible_impl<void,void>::value
PUBLIC	?value@?$is_convertible_impl@X$$CBX@detail@boost@@2_NB ; boost::detail::is_convertible_impl<void,void const >::value
PUBLIC	?value@?$is_convertible_impl@X$$CCX@detail@boost@@2_NB ; boost::detail::is_convertible_impl<void,void volatile >::value
PUBLIC	?value@?$is_convertible_impl@X$$CDX@detail@boost@@2_NB ; boost::detail::is_convertible_impl<void,void const volatile >::value
PUBLIC	?value@?$is_convertible_impl@$$CBXX@detail@boost@@2_NB ; boost::detail::is_convertible_impl<void const ,void>::value
PUBLIC	?value@?$is_convertible_impl@$$CBX$$CBX@detail@boost@@2_NB ; boost::detail::is_convertible_impl<void const ,void const >::value
PUBLIC	?value@?$is_convertible_impl@$$CBX$$CCX@detail@boost@@2_NB ; boost::detail::is_convertible_impl<void const ,void volatile >::value
PUBLIC	?value@?$is_convertible_impl@$$CBX$$CDX@detail@boost@@2_NB ; boost::detail::is_convertible_impl<void const ,void const volatile >::value
PUBLIC	?value@?$is_convertible_impl@$$CCXX@detail@boost@@2_NB ; boost::detail::is_convertible_impl<void volatile ,void>::value
PUBLIC	?value@?$is_convertible_impl@$$CCX$$CBX@detail@boost@@2_NB ; boost::detail::is_convertible_impl<void volatile ,void const >::value
PUBLIC	?value@?$is_convertible_impl@$$CCX$$CCX@detail@boost@@2_NB ; boost::detail::is_convertible_impl<void volatile ,void volatile >::value
PUBLIC	?value@?$is_convertible_impl@$$CCX$$CDX@detail@boost@@2_NB ; boost::detail::is_convertible_impl<void volatile ,void const volatile >::value
PUBLIC	?value@?$is_convertible_impl@$$CDXX@detail@boost@@2_NB ; boost::detail::is_convertible_impl<void const volatile ,void>::value
PUBLIC	?value@?$is_convertible_impl@$$CDX$$CBX@detail@boost@@2_NB ; boost::detail::is_convertible_impl<void const volatile ,void const >::value
PUBLIC	?value@?$is_convertible_impl@$$CDX$$CCX@detail@boost@@2_NB ; boost::detail::is_convertible_impl<void const volatile ,void volatile >::value
PUBLIC	?value@?$is_convertible_impl@$$CDX$$CDX@detail@boost@@2_NB ; boost::detail::is_convertible_impl<void const volatile ,void const volatile >::value
PUBLIC	?value@type@?$select_by_size@$00@detail@iostreams@boost@@2HB ; boost::iostreams::detail::select_by_size<1>::type::value
PUBLIC	?value@?$select_by_size@$00@detail@iostreams@boost@@2HB ; boost::iostreams::detail::select_by_size<1>::value
PUBLIC	?value@type@?$select_by_size@$01@detail@iostreams@boost@@2HB ; boost::iostreams::detail::select_by_size<2>::type::value
PUBLIC	?value@?$select_by_size@$01@detail@iostreams@boost@@2HB ; boost::iostreams::detail::select_by_size<2>::value
PUBLIC	?value@type@?$select_by_size@$02@detail@iostreams@boost@@2HB ; boost::iostreams::detail::select_by_size<3>::type::value
PUBLIC	?value@?$select_by_size@$02@detail@iostreams@boost@@2HB ; boost::iostreams::detail::select_by_size<3>::value
PUBLIC	?value@type@?$select_by_size@$03@detail@iostreams@boost@@2HB ; boost::iostreams::detail::select_by_size<4>::type::value
PUBLIC	?value@?$select_by_size@$03@detail@iostreams@boost@@2HB ; boost::iostreams::detail::select_by_size<4>::value
PUBLIC	?value@type@?$select_by_size@$04@detail@iostreams@boost@@2HB ; boost::iostreams::detail::select_by_size<5>::type::value
PUBLIC	?value@?$select_by_size@$04@detail@iostreams@boost@@2HB ; boost::iostreams::detail::select_by_size<5>::value
PUBLIC	?value@type@?$select_by_size@$05@detail@iostreams@boost@@2HB ; boost::iostreams::detail::select_by_size<6>::type::value
PUBLIC	?value@?$select_by_size@$05@detail@iostreams@boost@@2HB ; boost::iostreams::detail::select_by_size<6>::value
PUBLIC	?value@type@?$select_by_size@$06@detail@iostreams@boost@@2HB ; boost::iostreams::detail::select_by_size<7>::type::value
PUBLIC	?value@?$select_by_size@$06@detail@iostreams@boost@@2HB ; boost::iostreams::detail::select_by_size<7>::value
PUBLIC	?value@type@?$select_by_size@$07@detail@iostreams@boost@@2HB ; boost::iostreams::detail::select_by_size<8>::type::value
PUBLIC	?value@?$select_by_size@$07@detail@iostreams@boost@@2HB ; boost::iostreams::detail::select_by_size<8>::value
PUBLIC	?value@type@?$select_by_size@$08@detail@iostreams@boost@@2HB ; boost::iostreams::detail::select_by_size<9>::type::value
PUBLIC	?value@?$select_by_size@$08@detail@iostreams@boost@@2HB ; boost::iostreams::detail::select_by_size<9>::value
PUBLIC	?value@type@?$select_by_size@$09@detail@iostreams@boost@@2HB ; boost::iostreams::detail::select_by_size<10>::type::value
PUBLIC	?value@?$select_by_size@$09@detail@iostreams@boost@@2HB ; boost::iostreams::detail::select_by_size<10>::value
PUBLIC	?value@type@?$select_by_size@$0L@@detail@iostreams@boost@@2HB ; boost::iostreams::detail::select_by_size<11>::type::value
PUBLIC	?value@?$select_by_size@$0L@@detail@iostreams@boost@@2HB ; boost::iostreams::detail::select_by_size<11>::value
PUBLIC	?value@type@?$select_by_size@$0M@@detail@iostreams@boost@@2HB ; boost::iostreams::detail::select_by_size<12>::type::value
PUBLIC	?value@?$select_by_size@$0M@@detail@iostreams@boost@@2HB ; boost::iostreams::detail::select_by_size<12>::value
PUBLIC	?value@type@?$select_by_size@$0N@@detail@iostreams@boost@@2HB ; boost::iostreams::detail::select_by_size<13>::type::value
PUBLIC	?value@?$select_by_size@$0N@@detail@iostreams@boost@@2HB ; boost::iostreams::detail::select_by_size<13>::value
PUBLIC	?value@type@?$select_by_size@$0O@@detail@iostreams@boost@@2HB ; boost::iostreams::detail::select_by_size<14>::type::value
PUBLIC	?value@?$select_by_size@$0O@@detail@iostreams@boost@@2HB ; boost::iostreams::detail::select_by_size<14>::value
PUBLIC	?value@type@?$select_by_size@$0P@@detail@iostreams@boost@@2HB ; boost::iostreams::detail::select_by_size<15>::type::value
PUBLIC	?value@?$select_by_size@$0P@@detail@iostreams@boost@@2HB ; boost::iostreams::detail::select_by_size<15>::value
PUBLIC	?value@type@?$select_by_size@$0BA@@detail@iostreams@boost@@2HB ; boost::iostreams::detail::select_by_size<16>::type::value
PUBLIC	?value@?$select_by_size@$0BA@@detail@iostreams@boost@@2HB ; boost::iostreams::detail::select_by_size<16>::value
PUBLIC	?value@type@?$select_by_size@$0BB@@detail@iostreams@boost@@2HB ; boost::iostreams::detail::select_by_size<17>::type::value
PUBLIC	?value@?$select_by_size@$0BB@@detail@iostreams@boost@@2HB ; boost::iostreams::detail::select_by_size<17>::value
PUBLIC	?value@type@?$select_by_size@$0BC@@detail@iostreams@boost@@2HB ; boost::iostreams::detail::select_by_size<18>::type::value
PUBLIC	?value@?$select_by_size@$0BC@@detail@iostreams@boost@@2HB ; boost::iostreams::detail::select_by_size<18>::value
PUBLIC	?value@type@?$select_by_size@$0BD@@detail@iostreams@boost@@2HB ; boost::iostreams::detail::select_by_size<19>::type::value
PUBLIC	?value@?$select_by_size@$0BD@@detail@iostreams@boost@@2HB ; boost::iostreams::detail::select_by_size<19>::value
PUBLIC	?value@type@?$select_by_size@$0BE@@detail@iostreams@boost@@2HB ; boost::iostreams::detail::select_by_size<20>::type::value
PUBLIC	?value@?$select_by_size@$0BE@@detail@iostreams@boost@@2HB ; boost::iostreams::detail::select_by_size<20>::value
PUBLIC	?value@type@?$select_by_size@$0BF@@detail@iostreams@boost@@2HB ; boost::iostreams::detail::select_by_size<21>::type::value
PUBLIC	?value@?$select_by_size@$0BF@@detail@iostreams@boost@@2HB ; boost::iostreams::detail::select_by_size<21>::value
PUBLIC	?value@?$int_@$00@mpl@boost@@2HB		; boost::mpl::int_<1>::value
PUBLIC	?value@?$int_@$01@mpl@boost@@2HB		; boost::mpl::int_<2>::value
PUBLIC	?value@?$int_@$02@mpl@boost@@2HB		; boost::mpl::int_<3>::value
PUBLIC	?value@?$int_@$03@mpl@boost@@2HB		; boost::mpl::int_<4>::value
PUBLIC	?value@?$int_@$04@mpl@boost@@2HB		; boost::mpl::int_<5>::value
PUBLIC	?value@?$int_@$05@mpl@boost@@2HB		; boost::mpl::int_<6>::value
PUBLIC	?value@?$int_@$06@mpl@boost@@2HB		; boost::mpl::int_<7>::value
PUBLIC	?value@?$int_@$07@mpl@boost@@2HB		; boost::mpl::int_<8>::value
PUBLIC	?value@?$int_@$08@mpl@boost@@2HB		; boost::mpl::int_<9>::value
PUBLIC	?value@?$int_@$09@mpl@boost@@2HB		; boost::mpl::int_<10>::value
PUBLIC	?value@?$int_@$0L@@mpl@boost@@2HB		; boost::mpl::int_<11>::value
PUBLIC	?value@?$int_@$0M@@mpl@boost@@2HB		; boost::mpl::int_<12>::value
PUBLIC	?value@?$arg@$0?0@mpl@boost@@2HB		; boost::mpl::arg<-1>::value
PUBLIC	?value@?$arg@$00@mpl@boost@@2HB			; boost::mpl::arg<1>::value
PUBLIC	?value@?$arg@$01@mpl@boost@@2HB			; boost::mpl::arg<2>::value
PUBLIC	?value@?$arg@$02@mpl@boost@@2HB			; boost::mpl::arg<3>::value
PUBLIC	?value@?$arg@$03@mpl@boost@@2HB			; boost::mpl::arg<4>::value
PUBLIC	?value@?$arg@$04@mpl@boost@@2HB			; boost::mpl::arg<5>::value
PUBLIC	?value@?$is_member_function_pointer_impl@X@detail@boost@@2_NB ; boost::detail::is_member_function_pointer_impl<void>::value
PUBLIC	?value@?$is_member_function_pointer_impl@$$CBX@detail@boost@@2_NB ; boost::detail::is_member_function_pointer_impl<void const >::value
PUBLIC	?value@?$is_member_function_pointer_impl@$$CCX@detail@boost@@2_NB ; boost::detail::is_member_function_pointer_impl<void volatile >::value
PUBLIC	?value@?$is_member_function_pointer_impl@$$CDX@detail@boost@@2_NB ; boost::detail::is_member_function_pointer_impl<void const volatile >::value
PUBLIC	?value@?$is_scalar_impl@X@detail@boost@@2_NB	; boost::detail::is_scalar_impl<void>::value
PUBLIC	?value@?$is_scalar_impl@$$CBX@detail@boost@@2_NB ; boost::detail::is_scalar_impl<void const >::value
PUBLIC	?value@?$is_scalar_impl@$$CCX@detail@boost@@2_NB ; boost::detail::is_scalar_impl<void volatile >::value
PUBLIC	?value@?$is_scalar_impl@$$CDX@detail@boost@@2_NB ; boost::detail::is_scalar_impl<void const volatile >::value
PUBLIC	?value@?$is_pod_impl@X@detail@boost@@2_NB	; boost::detail::is_pod_impl<void>::value
PUBLIC	?value@?$is_pod_impl@$$CBX@detail@boost@@2_NB	; boost::detail::is_pod_impl<void const >::value
PUBLIC	?value@?$is_pod_impl@$$CCX@detail@boost@@2_NB	; boost::detail::is_pod_impl<void volatile >::value
PUBLIC	?value@?$is_pod_impl@$$CDX@detail@boost@@2_NB	; boost::detail::is_pod_impl<void const volatile >::value
PUBLIC	?value@?$integral_constant@_N$0A@@tr1@std@@2_NB	; std::tr1::integral_constant<bool,0>::value
PUBLIC	?value@?$integral_constant@_N$00@tr1@std@@2_NB	; std::tr1::integral_constant<bool,1>::value
PUBLIC	?value@?$integral_c@I$0A@@mpl@boost@@2IB	; boost::mpl::integral_c<unsigned int,0>::value
PUBLIC	?value@?$alignment_logic@$07$07@detail@boost@@2IB ; boost::detail::alignment_logic<8,8>::value
PUBLIC	?value@?$alignment_of_impl@Tmax_align@detail@boost@@@detail@boost@@2IB ; boost::detail::alignment_of_impl<boost::detail::max_align>::value
PUBLIC	?value@?$integral_c@I$07@mpl@boost@@2IB		; boost::mpl::integral_c<unsigned int,8>::value
PUBLIC	?value@?$alignment_logic@$00$00@detail@boost@@2IB ; boost::detail::alignment_logic<1,1>::value
PUBLIC	?value@?$alignment_of_impl@D@detail@boost@@2IB	; boost::detail::alignment_of_impl<char>::value
PUBLIC	?value@?$integral_c@I$00@mpl@boost@@2IB		; boost::mpl::integral_c<unsigned int,1>::value
PUBLIC	?value@?$alignment_logic@$01$01@detail@boost@@2IB ; boost::detail::alignment_logic<2,2>::value
PUBLIC	?value@?$alignment_of_impl@F@detail@boost@@2IB	; boost::detail::alignment_of_impl<short>::value
PUBLIC	?value@?$integral_c@I$01@mpl@boost@@2IB		; boost::mpl::integral_c<unsigned int,2>::value
PUBLIC	?value@?$alignment_logic@$03$03@detail@boost@@2IB ; boost::detail::alignment_logic<4,4>::value
PUBLIC	?value@?$alignment_of_impl@H@detail@boost@@2IB	; boost::detail::alignment_of_impl<int>::value
PUBLIC	?value@?$integral_c@I$03@mpl@boost@@2IB		; boost::mpl::integral_c<unsigned int,4>::value
PUBLIC	?value@?$alignment_of_impl@J@detail@boost@@2IB	; boost::detail::alignment_of_impl<long>::value
PUBLIC	?value@?$alignment_of_impl@_J@detail@boost@@2IB	; boost::detail::alignment_of_impl<__int64>::value
PUBLIC	?value@?$alignment_of_impl@T?$lower_alignment@$07@detail@boost@@@detail@boost@@2IB ; boost::detail::alignment_of_impl<boost::detail::lower_alignment<8> >::value
PUBLIC	?value@?$is_aligned@$07$07@detail@boost@@2_NB	; boost::detail::is_aligned<8,8>::value
PUBLIC	?found@?$type_with_alignment_imp@$07@detail@boost@@0IB ; boost::detail::type_with_alignment_imp<8>::found
PUBLIC	?value@?$is_pod_impl@Ua8@align@boost@@@detail@boost@@2_NB ; boost::detail::is_pod_impl<boost::align::a8>::value
PUBLIC	?value@?$is_pod_impl@Ua16@align@boost@@@detail@boost@@2_NB ; boost::detail::is_pod_impl<boost::align::a16>::value
PUBLIC	?value@?$is_pod_impl@Ua32@align@boost@@@detail@boost@@2_NB ; boost::detail::is_pod_impl<boost::align::a32>::value
PUBLIC	?value@?$is_pod_impl@Ua64@align@boost@@@detail@boost@@2_NB ; boost::detail::is_pod_impl<boost::align::a64>::value
PUBLIC	?value@?$is_pod_impl@Ua128@align@boost@@@detail@boost@@2_NB ; boost::detail::is_pod_impl<boost::align::a128>::value
;	COMDAT ?value@?$is_pod_impl@Ua128@align@boost@@@detail@boost@@2_NB
CONST	SEGMENT
?value@?$is_pod_impl@Ua128@align@boost@@@detail@boost@@2_NB DB 01H ; boost::detail::is_pod_impl<boost::align::a128>::value
CONST	ENDS
;	COMDAT ?value@?$is_pod_impl@Ua64@align@boost@@@detail@boost@@2_NB
CONST	SEGMENT
?value@?$is_pod_impl@Ua64@align@boost@@@detail@boost@@2_NB DB 01H ; boost::detail::is_pod_impl<boost::align::a64>::value
CONST	ENDS
;	COMDAT ?value@?$is_pod_impl@Ua32@align@boost@@@detail@boost@@2_NB
CONST	SEGMENT
?value@?$is_pod_impl@Ua32@align@boost@@@detail@boost@@2_NB DB 01H ; boost::detail::is_pod_impl<boost::align::a32>::value
CONST	ENDS
;	COMDAT ?value@?$is_pod_impl@Ua16@align@boost@@@detail@boost@@2_NB
CONST	SEGMENT
?value@?$is_pod_impl@Ua16@align@boost@@@detail@boost@@2_NB DB 01H ; boost::detail::is_pod_impl<boost::align::a16>::value
CONST	ENDS
;	COMDAT ?value@?$is_pod_impl@Ua8@align@boost@@@detail@boost@@2_NB
CONST	SEGMENT
?value@?$is_pod_impl@Ua8@align@boost@@@detail@boost@@2_NB DB 01H ; boost::detail::is_pod_impl<boost::align::a8>::value
CONST	ENDS
;	COMDAT ?found@?$type_with_alignment_imp@$07@detail@boost@@0IB
CONST	SEGMENT
?found@?$type_with_alignment_imp@$07@detail@boost@@0IB DD 08H ; boost::detail::type_with_alignment_imp<8>::found
CONST	ENDS
;	COMDAT ?value@?$is_aligned@$07$07@detail@boost@@2_NB
CONST	SEGMENT
?value@?$is_aligned@$07$07@detail@boost@@2_NB DB 01H	; boost::detail::is_aligned<8,8>::value
CONST	ENDS
;	COMDAT ?value@?$alignment_of_impl@T?$lower_alignment@$07@detail@boost@@@detail@boost@@2IB
CONST	SEGMENT
?value@?$alignment_of_impl@T?$lower_alignment@$07@detail@boost@@@detail@boost@@2IB DD 08H ; boost::detail::alignment_of_impl<boost::detail::lower_alignment<8> >::value
CONST	ENDS
;	COMDAT ?value@?$alignment_of_impl@_J@detail@boost@@2IB
CONST	SEGMENT
?value@?$alignment_of_impl@_J@detail@boost@@2IB DD 08H	; boost::detail::alignment_of_impl<__int64>::value
CONST	ENDS
;	COMDAT ?value@?$alignment_of_impl@J@detail@boost@@2IB
CONST	SEGMENT
?value@?$alignment_of_impl@J@detail@boost@@2IB DD 04H	; boost::detail::alignment_of_impl<long>::value
CONST	ENDS
;	COMDAT ?value@?$integral_c@I$03@mpl@boost@@2IB
CONST	SEGMENT
?value@?$integral_c@I$03@mpl@boost@@2IB DD 04H		; boost::mpl::integral_c<unsigned int,4>::value
CONST	ENDS
;	COMDAT ?value@?$alignment_of_impl@H@detail@boost@@2IB
CONST	SEGMENT
?value@?$alignment_of_impl@H@detail@boost@@2IB DD 04H	; boost::detail::alignment_of_impl<int>::value
CONST	ENDS
;	COMDAT ?value@?$alignment_logic@$03$03@detail@boost@@2IB
CONST	SEGMENT
?value@?$alignment_logic@$03$03@detail@boost@@2IB DD 04H ; boost::detail::alignment_logic<4,4>::value
CONST	ENDS
;	COMDAT ?value@?$integral_c@I$01@mpl@boost@@2IB
CONST	SEGMENT
?value@?$integral_c@I$01@mpl@boost@@2IB DD 02H		; boost::mpl::integral_c<unsigned int,2>::value
CONST	ENDS
;	COMDAT ?value@?$alignment_of_impl@F@detail@boost@@2IB
CONST	SEGMENT
?value@?$alignment_of_impl@F@detail@boost@@2IB DD 02H	; boost::detail::alignment_of_impl<short>::value
CONST	ENDS
;	COMDAT ?value@?$alignment_logic@$01$01@detail@boost@@2IB
CONST	SEGMENT
?value@?$alignment_logic@$01$01@detail@boost@@2IB DD 02H ; boost::detail::alignment_logic<2,2>::value
CONST	ENDS
;	COMDAT ?value@?$integral_c@I$00@mpl@boost@@2IB
CONST	SEGMENT
?value@?$integral_c@I$00@mpl@boost@@2IB DD 01H		; boost::mpl::integral_c<unsigned int,1>::value
CONST	ENDS
;	COMDAT ?value@?$alignment_of_impl@D@detail@boost@@2IB
CONST	SEGMENT
?value@?$alignment_of_impl@D@detail@boost@@2IB DD 01H	; boost::detail::alignment_of_impl<char>::value
CONST	ENDS
;	COMDAT ?value@?$alignment_logic@$00$00@detail@boost@@2IB
CONST	SEGMENT
?value@?$alignment_logic@$00$00@detail@boost@@2IB DD 01H ; boost::detail::alignment_logic<1,1>::value
CONST	ENDS
;	COMDAT ?value@?$integral_c@I$07@mpl@boost@@2IB
CONST	SEGMENT
?value@?$integral_c@I$07@mpl@boost@@2IB DD 08H		; boost::mpl::integral_c<unsigned int,8>::value
CONST	ENDS
;	COMDAT ?value@?$alignment_of_impl@Tmax_align@detail@boost@@@detail@boost@@2IB
CONST	SEGMENT
?value@?$alignment_of_impl@Tmax_align@detail@boost@@@detail@boost@@2IB DD 08H ; boost::detail::alignment_of_impl<boost::detail::max_align>::value
CONST	ENDS
;	COMDAT ?value@?$alignment_logic@$07$07@detail@boost@@2IB
CONST	SEGMENT
?value@?$alignment_logic@$07$07@detail@boost@@2IB DD 08H ; boost::detail::alignment_logic<8,8>::value
CONST	ENDS
;	COMDAT ?value@?$integral_c@I$0A@@mpl@boost@@2IB
CONST	SEGMENT
?value@?$integral_c@I$0A@@mpl@boost@@2IB DD 00H		; boost::mpl::integral_c<unsigned int,0>::value
CONST	ENDS
;	COMDAT ?value@?$integral_constant@_N$00@tr1@std@@2_NB
CONST	SEGMENT
?value@?$integral_constant@_N$00@tr1@std@@2_NB DB 01H	; std::tr1::integral_constant<bool,1>::value
CONST	ENDS
;	COMDAT ?value@?$integral_constant@_N$0A@@tr1@std@@2_NB
CONST	SEGMENT
?value@?$integral_constant@_N$0A@@tr1@std@@2_NB DB 00H	; std::tr1::integral_constant<bool,0>::value
CONST	ENDS
;	COMDAT ?value@?$is_pod_impl@$$CDX@detail@boost@@2_NB
CONST	SEGMENT
?value@?$is_pod_impl@$$CDX@detail@boost@@2_NB DB 01H	; boost::detail::is_pod_impl<void const volatile >::value
CONST	ENDS
;	COMDAT ?value@?$is_pod_impl@$$CCX@detail@boost@@2_NB
CONST	SEGMENT
?value@?$is_pod_impl@$$CCX@detail@boost@@2_NB DB 01H	; boost::detail::is_pod_impl<void volatile >::value
CONST	ENDS
;	COMDAT ?value@?$is_pod_impl@$$CBX@detail@boost@@2_NB
CONST	SEGMENT
?value@?$is_pod_impl@$$CBX@detail@boost@@2_NB DB 01H	; boost::detail::is_pod_impl<void const >::value
CONST	ENDS
;	COMDAT ?value@?$is_pod_impl@X@detail@boost@@2_NB
CONST	SEGMENT
?value@?$is_pod_impl@X@detail@boost@@2_NB DB 01H	; boost::detail::is_pod_impl<void>::value
CONST	ENDS
;	COMDAT ?value@?$is_scalar_impl@$$CDX@detail@boost@@2_NB
CONST	SEGMENT
?value@?$is_scalar_impl@$$CDX@detail@boost@@2_NB DB 00H	; boost::detail::is_scalar_impl<void const volatile >::value
CONST	ENDS
;	COMDAT ?value@?$is_scalar_impl@$$CCX@detail@boost@@2_NB
CONST	SEGMENT
?value@?$is_scalar_impl@$$CCX@detail@boost@@2_NB DB 00H	; boost::detail::is_scalar_impl<void volatile >::value
CONST	ENDS
;	COMDAT ?value@?$is_scalar_impl@$$CBX@detail@boost@@2_NB
CONST	SEGMENT
?value@?$is_scalar_impl@$$CBX@detail@boost@@2_NB DB 00H	; boost::detail::is_scalar_impl<void const >::value
CONST	ENDS
;	COMDAT ?value@?$is_scalar_impl@X@detail@boost@@2_NB
CONST	SEGMENT
?value@?$is_scalar_impl@X@detail@boost@@2_NB DB 00H	; boost::detail::is_scalar_impl<void>::value
CONST	ENDS
;	COMDAT ?value@?$is_member_function_pointer_impl@$$CDX@detail@boost@@2_NB
CONST	SEGMENT
?value@?$is_member_function_pointer_impl@$$CDX@detail@boost@@2_NB DB 00H ; boost::detail::is_member_function_pointer_impl<void const volatile >::value
CONST	ENDS
;	COMDAT ?value@?$is_member_function_pointer_impl@$$CCX@detail@boost@@2_NB
CONST	SEGMENT
?value@?$is_member_function_pointer_impl@$$CCX@detail@boost@@2_NB DB 00H ; boost::detail::is_member_function_pointer_impl<void volatile >::value
CONST	ENDS
;	COMDAT ?value@?$is_member_function_pointer_impl@$$CBX@detail@boost@@2_NB
CONST	SEGMENT
?value@?$is_member_function_pointer_impl@$$CBX@detail@boost@@2_NB DB 00H ; boost::detail::is_member_function_pointer_impl<void const >::value
CONST	ENDS
;	COMDAT ?value@?$is_member_function_pointer_impl@X@detail@boost@@2_NB
CONST	SEGMENT
?value@?$is_member_function_pointer_impl@X@detail@boost@@2_NB DB 00H ; boost::detail::is_member_function_pointer_impl<void>::value
CONST	ENDS
;	COMDAT ?value@?$arg@$04@mpl@boost@@2HB
CONST	SEGMENT
?value@?$arg@$04@mpl@boost@@2HB DD 05H			; boost::mpl::arg<5>::value
CONST	ENDS
;	COMDAT ?value@?$arg@$03@mpl@boost@@2HB
CONST	SEGMENT
?value@?$arg@$03@mpl@boost@@2HB DD 04H			; boost::mpl::arg<4>::value
CONST	ENDS
;	COMDAT ?value@?$arg@$02@mpl@boost@@2HB
CONST	SEGMENT
?value@?$arg@$02@mpl@boost@@2HB DD 03H			; boost::mpl::arg<3>::value
CONST	ENDS
;	COMDAT ?value@?$arg@$01@mpl@boost@@2HB
CONST	SEGMENT
?value@?$arg@$01@mpl@boost@@2HB DD 02H			; boost::mpl::arg<2>::value
CONST	ENDS
;	COMDAT ?value@?$arg@$00@mpl@boost@@2HB
CONST	SEGMENT
?value@?$arg@$00@mpl@boost@@2HB DD 01H			; boost::mpl::arg<1>::value
CONST	ENDS
;	COMDAT ?value@?$arg@$0?0@mpl@boost@@2HB
CONST	SEGMENT
?value@?$arg@$0?0@mpl@boost@@2HB DD 0ffffffffH		; boost::mpl::arg<-1>::value
CONST	ENDS
;	COMDAT ?value@?$int_@$0M@@mpl@boost@@2HB
CONST	SEGMENT
?value@?$int_@$0M@@mpl@boost@@2HB DD 0cH		; boost::mpl::int_<12>::value
CONST	ENDS
;	COMDAT ?value@?$int_@$0L@@mpl@boost@@2HB
CONST	SEGMENT
?value@?$int_@$0L@@mpl@boost@@2HB DD 0bH		; boost::mpl::int_<11>::value
CONST	ENDS
;	COMDAT ?value@?$int_@$09@mpl@boost@@2HB
CONST	SEGMENT
?value@?$int_@$09@mpl@boost@@2HB DD 0aH			; boost::mpl::int_<10>::value
CONST	ENDS
;	COMDAT ?value@?$int_@$08@mpl@boost@@2HB
CONST	SEGMENT
?value@?$int_@$08@mpl@boost@@2HB DD 09H			; boost::mpl::int_<9>::value
CONST	ENDS
;	COMDAT ?value@?$int_@$07@mpl@boost@@2HB
CONST	SEGMENT
?value@?$int_@$07@mpl@boost@@2HB DD 08H			; boost::mpl::int_<8>::value
CONST	ENDS
;	COMDAT ?value@?$int_@$06@mpl@boost@@2HB
CONST	SEGMENT
?value@?$int_@$06@mpl@boost@@2HB DD 07H			; boost::mpl::int_<7>::value
CONST	ENDS
;	COMDAT ?value@?$int_@$05@mpl@boost@@2HB
CONST	SEGMENT
?value@?$int_@$05@mpl@boost@@2HB DD 06H			; boost::mpl::int_<6>::value
CONST	ENDS
;	COMDAT ?value@?$int_@$04@mpl@boost@@2HB
CONST	SEGMENT
?value@?$int_@$04@mpl@boost@@2HB DD 05H			; boost::mpl::int_<5>::value
CONST	ENDS
;	COMDAT ?value@?$int_@$03@mpl@boost@@2HB
CONST	SEGMENT
?value@?$int_@$03@mpl@boost@@2HB DD 04H			; boost::mpl::int_<4>::value
CONST	ENDS
;	COMDAT ?value@?$int_@$02@mpl@boost@@2HB
CONST	SEGMENT
?value@?$int_@$02@mpl@boost@@2HB DD 03H			; boost::mpl::int_<3>::value
CONST	ENDS
;	COMDAT ?value@?$int_@$01@mpl@boost@@2HB
CONST	SEGMENT
?value@?$int_@$01@mpl@boost@@2HB DD 02H			; boost::mpl::int_<2>::value
CONST	ENDS
;	COMDAT ?value@?$int_@$00@mpl@boost@@2HB
CONST	SEGMENT
?value@?$int_@$00@mpl@boost@@2HB DD 01H			; boost::mpl::int_<1>::value
CONST	ENDS
;	COMDAT ?value@?$select_by_size@$0BF@@detail@iostreams@boost@@2HB
CONST	SEGMENT
?value@?$select_by_size@$0BF@@detail@iostreams@boost@@2HB DD 013H ; boost::iostreams::detail::select_by_size<21>::value
CONST	ENDS
;	COMDAT ?value@type@?$select_by_size@$0BF@@detail@iostreams@boost@@2HB
CONST	SEGMENT
?value@type@?$select_by_size@$0BF@@detail@iostreams@boost@@2HB DD 013H ; boost::iostreams::detail::select_by_size<21>::type::value
CONST	ENDS
;	COMDAT ?value@?$select_by_size@$0BE@@detail@iostreams@boost@@2HB
CONST	SEGMENT
?value@?$select_by_size@$0BE@@detail@iostreams@boost@@2HB DD 012H ; boost::iostreams::detail::select_by_size<20>::value
CONST	ENDS
;	COMDAT ?value@type@?$select_by_size@$0BE@@detail@iostreams@boost@@2HB
CONST	SEGMENT
?value@type@?$select_by_size@$0BE@@detail@iostreams@boost@@2HB DD 012H ; boost::iostreams::detail::select_by_size<20>::type::value
CONST	ENDS
;	COMDAT ?value@?$select_by_size@$0BD@@detail@iostreams@boost@@2HB
CONST	SEGMENT
?value@?$select_by_size@$0BD@@detail@iostreams@boost@@2HB DD 011H ; boost::iostreams::detail::select_by_size<19>::value
CONST	ENDS
;	COMDAT ?value@type@?$select_by_size@$0BD@@detail@iostreams@boost@@2HB
CONST	SEGMENT
?value@type@?$select_by_size@$0BD@@detail@iostreams@boost@@2HB DD 011H ; boost::iostreams::detail::select_by_size<19>::type::value
CONST	ENDS
;	COMDAT ?value@?$select_by_size@$0BC@@detail@iostreams@boost@@2HB
CONST	SEGMENT
?value@?$select_by_size@$0BC@@detail@iostreams@boost@@2HB DD 010H ; boost::iostreams::detail::select_by_size<18>::value
CONST	ENDS
;	COMDAT ?value@type@?$select_by_size@$0BC@@detail@iostreams@boost@@2HB
CONST	SEGMENT
?value@type@?$select_by_size@$0BC@@detail@iostreams@boost@@2HB DD 010H ; boost::iostreams::detail::select_by_size<18>::type::value
CONST	ENDS
;	COMDAT ?value@?$select_by_size@$0BB@@detail@iostreams@boost@@2HB
CONST	SEGMENT
?value@?$select_by_size@$0BB@@detail@iostreams@boost@@2HB DD 0fH ; boost::iostreams::detail::select_by_size<17>::value
CONST	ENDS
;	COMDAT ?value@type@?$select_by_size@$0BB@@detail@iostreams@boost@@2HB
CONST	SEGMENT
?value@type@?$select_by_size@$0BB@@detail@iostreams@boost@@2HB DD 0fH ; boost::iostreams::detail::select_by_size<17>::type::value
CONST	ENDS
;	COMDAT ?value@?$select_by_size@$0BA@@detail@iostreams@boost@@2HB
CONST	SEGMENT
?value@?$select_by_size@$0BA@@detail@iostreams@boost@@2HB DD 0eH ; boost::iostreams::detail::select_by_size<16>::value
CONST	ENDS
;	COMDAT ?value@type@?$select_by_size@$0BA@@detail@iostreams@boost@@2HB
CONST	SEGMENT
?value@type@?$select_by_size@$0BA@@detail@iostreams@boost@@2HB DD 0eH ; boost::iostreams::detail::select_by_size<16>::type::value
CONST	ENDS
;	COMDAT ?value@?$select_by_size@$0P@@detail@iostreams@boost@@2HB
CONST	SEGMENT
?value@?$select_by_size@$0P@@detail@iostreams@boost@@2HB DD 0dH ; boost::iostreams::detail::select_by_size<15>::value
CONST	ENDS
;	COMDAT ?value@type@?$select_by_size@$0P@@detail@iostreams@boost@@2HB
CONST	SEGMENT
?value@type@?$select_by_size@$0P@@detail@iostreams@boost@@2HB DD 0dH ; boost::iostreams::detail::select_by_size<15>::type::value
CONST	ENDS
;	COMDAT ?value@?$select_by_size@$0O@@detail@iostreams@boost@@2HB
CONST	SEGMENT
?value@?$select_by_size@$0O@@detail@iostreams@boost@@2HB DD 0cH ; boost::iostreams::detail::select_by_size<14>::value
CONST	ENDS
;	COMDAT ?value@type@?$select_by_size@$0O@@detail@iostreams@boost@@2HB
CONST	SEGMENT
?value@type@?$select_by_size@$0O@@detail@iostreams@boost@@2HB DD 0cH ; boost::iostreams::detail::select_by_size<14>::type::value
CONST	ENDS
;	COMDAT ?value@?$select_by_size@$0N@@detail@iostreams@boost@@2HB
CONST	SEGMENT
?value@?$select_by_size@$0N@@detail@iostreams@boost@@2HB DD 0bH ; boost::iostreams::detail::select_by_size<13>::value
CONST	ENDS
;	COMDAT ?value@type@?$select_by_size@$0N@@detail@iostreams@boost@@2HB
CONST	SEGMENT
?value@type@?$select_by_size@$0N@@detail@iostreams@boost@@2HB DD 0bH ; boost::iostreams::detail::select_by_size<13>::type::value
CONST	ENDS
;	COMDAT ?value@?$select_by_size@$0M@@detail@iostreams@boost@@2HB
CONST	SEGMENT
?value@?$select_by_size@$0M@@detail@iostreams@boost@@2HB DD 0aH ; boost::iostreams::detail::select_by_size<12>::value
CONST	ENDS
;	COMDAT ?value@type@?$select_by_size@$0M@@detail@iostreams@boost@@2HB
CONST	SEGMENT
?value@type@?$select_by_size@$0M@@detail@iostreams@boost@@2HB DD 0aH ; boost::iostreams::detail::select_by_size<12>::type::value
CONST	ENDS
;	COMDAT ?value@?$select_by_size@$0L@@detail@iostreams@boost@@2HB
CONST	SEGMENT
?value@?$select_by_size@$0L@@detail@iostreams@boost@@2HB DD 09H ; boost::iostreams::detail::select_by_size<11>::value
CONST	ENDS
;	COMDAT ?value@type@?$select_by_size@$0L@@detail@iostreams@boost@@2HB
CONST	SEGMENT
?value@type@?$select_by_size@$0L@@detail@iostreams@boost@@2HB DD 09H ; boost::iostreams::detail::select_by_size<11>::type::value
CONST	ENDS
;	COMDAT ?value@?$select_by_size@$09@detail@iostreams@boost@@2HB
CONST	SEGMENT
?value@?$select_by_size@$09@detail@iostreams@boost@@2HB DD 08H ; boost::iostreams::detail::select_by_size<10>::value
CONST	ENDS
;	COMDAT ?value@type@?$select_by_size@$09@detail@iostreams@boost@@2HB
CONST	SEGMENT
?value@type@?$select_by_size@$09@detail@iostreams@boost@@2HB DD 08H ; boost::iostreams::detail::select_by_size<10>::type::value
CONST	ENDS
;	COMDAT ?value@?$select_by_size@$08@detail@iostreams@boost@@2HB
CONST	SEGMENT
?value@?$select_by_size@$08@detail@iostreams@boost@@2HB DD 07H ; boost::iostreams::detail::select_by_size<9>::value
CONST	ENDS
;	COMDAT ?value@type@?$select_by_size@$08@detail@iostreams@boost@@2HB
CONST	SEGMENT
?value@type@?$select_by_size@$08@detail@iostreams@boost@@2HB DD 07H ; boost::iostreams::detail::select_by_size<9>::type::value
CONST	ENDS
;	COMDAT ?value@?$select_by_size@$07@detail@iostreams@boost@@2HB
CONST	SEGMENT
?value@?$select_by_size@$07@detail@iostreams@boost@@2HB DD 06H ; boost::iostreams::detail::select_by_size<8>::value
CONST	ENDS
;	COMDAT ?value@type@?$select_by_size@$07@detail@iostreams@boost@@2HB
CONST	SEGMENT
?value@type@?$select_by_size@$07@detail@iostreams@boost@@2HB DD 06H ; boost::iostreams::detail::select_by_size<8>::type::value
CONST	ENDS
;	COMDAT ?value@?$select_by_size@$06@detail@iostreams@boost@@2HB
CONST	SEGMENT
?value@?$select_by_size@$06@detail@iostreams@boost@@2HB DD 05H ; boost::iostreams::detail::select_by_size<7>::value
CONST	ENDS
;	COMDAT ?value@type@?$select_by_size@$06@detail@iostreams@boost@@2HB
CONST	SEGMENT
?value@type@?$select_by_size@$06@detail@iostreams@boost@@2HB DD 05H ; boost::iostreams::detail::select_by_size<7>::type::value
CONST	ENDS
;	COMDAT ?value@?$select_by_size@$05@detail@iostreams@boost@@2HB
CONST	SEGMENT
?value@?$select_by_size@$05@detail@iostreams@boost@@2HB DD 04H ; boost::iostreams::detail::select_by_size<6>::value
CONST	ENDS
;	COMDAT ?value@type@?$select_by_size@$05@detail@iostreams@boost@@2HB
CONST	SEGMENT
?value@type@?$select_by_size@$05@detail@iostreams@boost@@2HB DD 04H ; boost::iostreams::detail::select_by_size<6>::type::value
CONST	ENDS
;	COMDAT ?value@?$select_by_size@$04@detail@iostreams@boost@@2HB
CONST	SEGMENT
?value@?$select_by_size@$04@detail@iostreams@boost@@2HB DD 03H ; boost::iostreams::detail::select_by_size<5>::value
CONST	ENDS
;	COMDAT ?value@type@?$select_by_size@$04@detail@iostreams@boost@@2HB
CONST	SEGMENT
?value@type@?$select_by_size@$04@detail@iostreams@boost@@2HB DD 03H ; boost::iostreams::detail::select_by_size<5>::type::value
CONST	ENDS
;	COMDAT ?value@?$select_by_size@$03@detail@iostreams@boost@@2HB
CONST	SEGMENT
?value@?$select_by_size@$03@detail@iostreams@boost@@2HB DD 02H ; boost::iostreams::detail::select_by_size<4>::value
CONST	ENDS
;	COMDAT ?value@type@?$select_by_size@$03@detail@iostreams@boost@@2HB
CONST	SEGMENT
?value@type@?$select_by_size@$03@detail@iostreams@boost@@2HB DD 02H ; boost::iostreams::detail::select_by_size<4>::type::value
CONST	ENDS
;	COMDAT ?value@?$select_by_size@$02@detail@iostreams@boost@@2HB
CONST	SEGMENT
?value@?$select_by_size@$02@detail@iostreams@boost@@2HB DD 01H ; boost::iostreams::detail::select_by_size<3>::value
CONST	ENDS
;	COMDAT ?value@type@?$select_by_size@$02@detail@iostreams@boost@@2HB
CONST	SEGMENT
?value@type@?$select_by_size@$02@detail@iostreams@boost@@2HB DD 01H ; boost::iostreams::detail::select_by_size<3>::type::value
CONST	ENDS
;	COMDAT ?value@?$select_by_size@$01@detail@iostreams@boost@@2HB
CONST	SEGMENT
?value@?$select_by_size@$01@detail@iostreams@boost@@2HB DD 00H ; boost::iostreams::detail::select_by_size<2>::value
CONST	ENDS
;	COMDAT ?value@type@?$select_by_size@$01@detail@iostreams@boost@@2HB
CONST	SEGMENT
?value@type@?$select_by_size@$01@detail@iostreams@boost@@2HB DD 00H ; boost::iostreams::detail::select_by_size<2>::type::value
CONST	ENDS
;	COMDAT ?value@?$select_by_size@$00@detail@iostreams@boost@@2HB
CONST	SEGMENT
?value@?$select_by_size@$00@detail@iostreams@boost@@2HB DD 0ffffffffH ; boost::iostreams::detail::select_by_size<1>::value
CONST	ENDS
;	COMDAT ?value@type@?$select_by_size@$00@detail@iostreams@boost@@2HB
CONST	SEGMENT
?value@type@?$select_by_size@$00@detail@iostreams@boost@@2HB DD 0ffffffffH ; boost::iostreams::detail::select_by_size<1>::type::value
CONST	ENDS
;	COMDAT ?value@?$is_convertible_impl@$$CDX$$CDX@detail@boost@@2_NB
CONST	SEGMENT
?value@?$is_convertible_impl@$$CDX$$CDX@detail@boost@@2_NB DB 01H ; boost::detail::is_convertible_impl<void const volatile ,void const volatile >::value
CONST	ENDS
;	COMDAT ?value@?$is_convertible_impl@$$CDX$$CCX@detail@boost@@2_NB
CONST	SEGMENT
?value@?$is_convertible_impl@$$CDX$$CCX@detail@boost@@2_NB DB 01H ; boost::detail::is_convertible_impl<void const volatile ,void volatile >::value
CONST	ENDS
;	COMDAT ?value@?$is_convertible_impl@$$CDX$$CBX@detail@boost@@2_NB
CONST	SEGMENT
?value@?$is_convertible_impl@$$CDX$$CBX@detail@boost@@2_NB DB 01H ; boost::detail::is_convertible_impl<void const volatile ,void const >::value
CONST	ENDS
;	COMDAT ?value@?$is_convertible_impl@$$CDXX@detail@boost@@2_NB
CONST	SEGMENT
?value@?$is_convertible_impl@$$CDXX@detail@boost@@2_NB DB 01H ; boost::detail::is_convertible_impl<void const volatile ,void>::value
CONST	ENDS
;	COMDAT ?value@?$is_convertible_impl@$$CCX$$CDX@detail@boost@@2_NB
CONST	SEGMENT
?value@?$is_convertible_impl@$$CCX$$CDX@detail@boost@@2_NB DB 01H ; boost::detail::is_convertible_impl<void volatile ,void const volatile >::value
CONST	ENDS
;	COMDAT ?value@?$is_convertible_impl@$$CCX$$CCX@detail@boost@@2_NB
CONST	SEGMENT
?value@?$is_convertible_impl@$$CCX$$CCX@detail@boost@@2_NB DB 01H ; boost::detail::is_convertible_impl<void volatile ,void volatile >::value
CONST	ENDS
;	COMDAT ?value@?$is_convertible_impl@$$CCX$$CBX@detail@boost@@2_NB
CONST	SEGMENT
?value@?$is_convertible_impl@$$CCX$$CBX@detail@boost@@2_NB DB 01H ; boost::detail::is_convertible_impl<void volatile ,void const >::value
CONST	ENDS
;	COMDAT ?value@?$is_convertible_impl@$$CCXX@detail@boost@@2_NB
CONST	SEGMENT
?value@?$is_convertible_impl@$$CCXX@detail@boost@@2_NB DB 01H ; boost::detail::is_convertible_impl<void volatile ,void>::value
CONST	ENDS
;	COMDAT ?value@?$is_convertible_impl@$$CBX$$CDX@detail@boost@@2_NB
CONST	SEGMENT
?value@?$is_convertible_impl@$$CBX$$CDX@detail@boost@@2_NB DB 01H ; boost::detail::is_convertible_impl<void const ,void const volatile >::value
CONST	ENDS
;	COMDAT ?value@?$is_convertible_impl@$$CBX$$CCX@detail@boost@@2_NB
CONST	SEGMENT
?value@?$is_convertible_impl@$$CBX$$CCX@detail@boost@@2_NB DB 01H ; boost::detail::is_convertible_impl<void const ,void volatile >::value
CONST	ENDS
;	COMDAT ?value@?$is_convertible_impl@$$CBX$$CBX@detail@boost@@2_NB
CONST	SEGMENT
?value@?$is_convertible_impl@$$CBX$$CBX@detail@boost@@2_NB DB 01H ; boost::detail::is_convertible_impl<void const ,void const >::value
CONST	ENDS
;	COMDAT ?value@?$is_convertible_impl@$$CBXX@detail@boost@@2_NB
CONST	SEGMENT
?value@?$is_convertible_impl@$$CBXX@detail@boost@@2_NB DB 01H ; boost::detail::is_convertible_impl<void const ,void>::value
CONST	ENDS
;	COMDAT ?value@?$is_convertible_impl@X$$CDX@detail@boost@@2_NB
CONST	SEGMENT
?value@?$is_convertible_impl@X$$CDX@detail@boost@@2_NB DB 01H ; boost::detail::is_convertible_impl<void,void const volatile >::value
CONST	ENDS
;	COMDAT ?value@?$is_convertible_impl@X$$CCX@detail@boost@@2_NB
CONST	SEGMENT
?value@?$is_convertible_impl@X$$CCX@detail@boost@@2_NB DB 01H ; boost::detail::is_convertible_impl<void,void volatile >::value
CONST	ENDS
;	COMDAT ?value@?$is_convertible_impl@X$$CBX@detail@boost@@2_NB
CONST	SEGMENT
?value@?$is_convertible_impl@X$$CBX@detail@boost@@2_NB DB 01H ; boost::detail::is_convertible_impl<void,void const >::value
CONST	ENDS
;	COMDAT ?value@?$is_convertible_impl@XX@detail@boost@@2_NB
CONST	SEGMENT
?value@?$is_convertible_impl@XX@detail@boost@@2_NB DB 01H ; boost::detail::is_convertible_impl<void,void>::value
CONST	ENDS
;	COMDAT ?value@?$ice_not@$00@type_traits@boost@@2_NB
CONST	SEGMENT
?value@?$ice_not@$00@type_traits@boost@@2_NB DB 00H	; boost::type_traits::ice_not<1>::value
CONST	ENDS
;	COMDAT ?value@?$ice_and@$00$00$00$00$00$00$00@type_traits@boost@@2_NB
CONST	SEGMENT
?value@?$ice_and@$00$00$00$00$00$00$00@type_traits@boost@@2_NB DB 01H ; boost::type_traits::ice_and<1,1,1,1,1,1,1>::value
CONST	ENDS
;	COMDAT ?value@?$ice_or@$0A@$0A@$0A@$0A@$0A@$0A@$0A@@type_traits@boost@@2_NB
CONST	SEGMENT
?value@?$ice_or@$0A@$0A@$0A@$0A@$0A@$0A@$0A@@type_traits@boost@@2_NB DB 00H ; boost::type_traits::ice_or<0,0,0,0,0,0,0>::value
CONST	ENDS
;	COMDAT ?const_max@?$integer_traits_base@_K$0A@$0?0@detail@boost@@2_KB
CONST	SEGMENT
?const_max@?$integer_traits_base@_K$0A@$0?0@detail@boost@@2_KB DQ ffffffffffffffffH ; boost::detail::integer_traits_base<unsigned __int64,0,-1>::const_max
CONST	ENDS
;	COMDAT ?const_min@?$integer_traits_base@_K$0A@$0?0@detail@boost@@2_KB
CONST	SEGMENT
?const_min@?$integer_traits_base@_K$0A@$0?0@detail@boost@@2_KB DQ 0000000000000000H ; boost::detail::integer_traits_base<unsigned __int64,0,-1>::const_min
CONST	ENDS
;	COMDAT ?is_integral@?$integer_traits_base@_K$0A@$0?0@detail@boost@@2_NB
CONST	SEGMENT
?is_integral@?$integer_traits_base@_K$0A@$0?0@detail@boost@@2_NB DB 01H ; boost::detail::integer_traits_base<unsigned __int64,0,-1>::is_integral
CONST	ENDS
;	COMDAT ?const_max@?$integer_traits_base@_J$0?IAAAAAAAAAAAAAAA@$0HPPPPPPPPPPPPPPP@@detail@boost@@2_JB
CONST	SEGMENT
?const_max@?$integer_traits_base@_J$0?IAAAAAAAAAAAAAAA@$0HPPPPPPPPPPPPPPP@@detail@boost@@2_JB DQ 7fffffffffffffffH ; boost::detail::integer_traits_base<__int64,-9223372036854775808,9223372036854775807>::const_max
CONST	ENDS
;	COMDAT ?const_min@?$integer_traits_base@_J$0?IAAAAAAAAAAAAAAA@$0HPPPPPPPPPPPPPPP@@detail@boost@@2_JB
CONST	SEGMENT
?const_min@?$integer_traits_base@_J$0?IAAAAAAAAAAAAAAA@$0HPPPPPPPPPPPPPPP@@detail@boost@@2_JB DQ 8000000000000000H ; boost::detail::integer_traits_base<__int64,-9223372036854775808,9223372036854775807>::const_min
CONST	ENDS
;	COMDAT ?is_integral@?$integer_traits_base@_J$0?IAAAAAAAAAAAAAAA@$0HPPPPPPPPPPPPPPP@@detail@boost@@2_NB
CONST	SEGMENT
?is_integral@?$integer_traits_base@_J$0?IAAAAAAAAAAAAAAA@$0HPPPPPPPPPPPPPPP@@detail@boost@@2_NB DB 01H ; boost::detail::integer_traits_base<__int64,-9223372036854775808,9223372036854775807>::is_integral
CONST	ENDS
;	COMDAT ?const_max@?$integer_traits_base@K$0A@$0PPPPPPPP@@detail@boost@@2KB
CONST	SEGMENT
?const_max@?$integer_traits_base@K$0A@$0PPPPPPPP@@detail@boost@@2KB DD 0ffffffffH ; boost::detail::integer_traits_base<unsigned long,0,4294967295>::const_max
CONST	ENDS
;	COMDAT ?const_min@?$integer_traits_base@K$0A@$0PPPPPPPP@@detail@boost@@2KB
CONST	SEGMENT
?const_min@?$integer_traits_base@K$0A@$0PPPPPPPP@@detail@boost@@2KB DD 00H ; boost::detail::integer_traits_base<unsigned long,0,4294967295>::const_min
CONST	ENDS
;	COMDAT ?is_integral@?$integer_traits_base@K$0A@$0PPPPPPPP@@detail@boost@@2_NB
CONST	SEGMENT
?is_integral@?$integer_traits_base@K$0A@$0PPPPPPPP@@detail@boost@@2_NB DB 01H ; boost::detail::integer_traits_base<unsigned long,0,4294967295>::is_integral
CONST	ENDS
;	COMDAT ?const_max@?$integer_traits_base@J$0?IAAAAAAA@$0HPPPPPPP@@detail@boost@@2JB
CONST	SEGMENT
?const_max@?$integer_traits_base@J$0?IAAAAAAA@$0HPPPPPPP@@detail@boost@@2JB DD 07fffffffH ; boost::detail::integer_traits_base<long,-2147483648,2147483647>::const_max
CONST	ENDS
;	COMDAT ?const_min@?$integer_traits_base@J$0?IAAAAAAA@$0HPPPPPPP@@detail@boost@@2JB
CONST	SEGMENT
?const_min@?$integer_traits_base@J$0?IAAAAAAA@$0HPPPPPPP@@detail@boost@@2JB DD 080000000H ; boost::detail::integer_traits_base<long,-2147483648,2147483647>::const_min
CONST	ENDS
;	COMDAT ?is_integral@?$integer_traits_base@J$0?IAAAAAAA@$0HPPPPPPP@@detail@boost@@2_NB
CONST	SEGMENT
?is_integral@?$integer_traits_base@J$0?IAAAAAAA@$0HPPPPPPP@@detail@boost@@2_NB DB 01H ; boost::detail::integer_traits_base<long,-2147483648,2147483647>::is_integral
CONST	ENDS
;	COMDAT ?const_max@?$integer_traits_base@I$0A@$0PPPPPPPP@@detail@boost@@2IB
CONST	SEGMENT
?const_max@?$integer_traits_base@I$0A@$0PPPPPPPP@@detail@boost@@2IB DD 0ffffffffH ; boost::detail::integer_traits_base<unsigned int,0,4294967295>::const_max
CONST	ENDS
;	COMDAT ?const_min@?$integer_traits_base@I$0A@$0PPPPPPPP@@detail@boost@@2IB
CONST	SEGMENT
?const_min@?$integer_traits_base@I$0A@$0PPPPPPPP@@detail@boost@@2IB DD 00H ; boost::detail::integer_traits_base<unsigned int,0,4294967295>::const_min
CONST	ENDS
;	COMDAT ?is_integral@?$integer_traits_base@I$0A@$0PPPPPPPP@@detail@boost@@2_NB
CONST	SEGMENT
?is_integral@?$integer_traits_base@I$0A@$0PPPPPPPP@@detail@boost@@2_NB DB 01H ; boost::detail::integer_traits_base<unsigned int,0,4294967295>::is_integral
CONST	ENDS
;	COMDAT ?const_max@?$integer_traits_base@H$0?IAAAAAAA@$0HPPPPPPP@@detail@boost@@2HB
CONST	SEGMENT
?const_max@?$integer_traits_base@H$0?IAAAAAAA@$0HPPPPPPP@@detail@boost@@2HB DD 07fffffffH ; boost::detail::integer_traits_base<int,-2147483648,2147483647>::const_max
CONST	ENDS
;	COMDAT ?const_min@?$integer_traits_base@H$0?IAAAAAAA@$0HPPPPPPP@@detail@boost@@2HB
CONST	SEGMENT
?const_min@?$integer_traits_base@H$0?IAAAAAAA@$0HPPPPPPP@@detail@boost@@2HB DD 080000000H ; boost::detail::integer_traits_base<int,-2147483648,2147483647>::const_min
CONST	ENDS
;	COMDAT ?is_integral@?$integer_traits_base@H$0?IAAAAAAA@$0HPPPPPPP@@detail@boost@@2_NB
CONST	SEGMENT
?is_integral@?$integer_traits_base@H$0?IAAAAAAA@$0HPPPPPPP@@detail@boost@@2_NB DB 01H ; boost::detail::integer_traits_base<int,-2147483648,2147483647>::is_integral
CONST	ENDS
;	COMDAT ?const_max@?$integer_traits_base@G$0A@$0PPPP@@detail@boost@@2GB
CONST	SEGMENT
?const_max@?$integer_traits_base@G$0A@$0PPPP@@detail@boost@@2GB DW 0ffffH ; boost::detail::integer_traits_base<unsigned short,0,65535>::const_max
CONST	ENDS
;	COMDAT ?const_min@?$integer_traits_base@G$0A@$0PPPP@@detail@boost@@2GB
CONST	SEGMENT
?const_min@?$integer_traits_base@G$0A@$0PPPP@@detail@boost@@2GB DW 00H ; boost::detail::integer_traits_base<unsigned short,0,65535>::const_min
CONST	ENDS
;	COMDAT ?is_integral@?$integer_traits_base@G$0A@$0PPPP@@detail@boost@@2_NB
CONST	SEGMENT
?is_integral@?$integer_traits_base@G$0A@$0PPPP@@detail@boost@@2_NB DB 01H ; boost::detail::integer_traits_base<unsigned short,0,65535>::is_integral
CONST	ENDS
;	COMDAT ?const_max@?$integer_traits_base@F$0?IAAA@$0HPPP@@detail@boost@@2FB
CONST	SEGMENT
?const_max@?$integer_traits_base@F$0?IAAA@$0HPPP@@detail@boost@@2FB DW 07fffH ; boost::detail::integer_traits_base<short,-32768,32767>::const_max
CONST	ENDS
;	COMDAT ?const_min@?$integer_traits_base@F$0?IAAA@$0HPPP@@detail@boost@@2FB
CONST	SEGMENT
?const_min@?$integer_traits_base@F$0?IAAA@$0HPPP@@detail@boost@@2FB DW 08000H ; boost::detail::integer_traits_base<short,-32768,32767>::const_min
CONST	ENDS
;	COMDAT ?is_integral@?$integer_traits_base@F$0?IAAA@$0HPPP@@detail@boost@@2_NB
CONST	SEGMENT
?is_integral@?$integer_traits_base@F$0?IAAA@$0HPPP@@detail@boost@@2_NB DB 01H ; boost::detail::integer_traits_base<short,-32768,32767>::is_integral
CONST	ENDS
;	COMDAT ?const_max@?$integer_traits_base@_W$0A@$0PPPP@@detail@boost@@2_WB
CONST	SEGMENT
?const_max@?$integer_traits_base@_W$0A@$0PPPP@@detail@boost@@2_WB DW 0ffffH ; boost::detail::integer_traits_base<wchar_t,0,65535>::const_max
CONST	ENDS
;	COMDAT ?const_min@?$integer_traits_base@_W$0A@$0PPPP@@detail@boost@@2_WB
CONST	SEGMENT
?const_min@?$integer_traits_base@_W$0A@$0PPPP@@detail@boost@@2_WB DW 00H ; boost::detail::integer_traits_base<wchar_t,0,65535>::const_min
CONST	ENDS
;	COMDAT ?is_integral@?$integer_traits_base@_W$0A@$0PPPP@@detail@boost@@2_NB
CONST	SEGMENT
?is_integral@?$integer_traits_base@_W$0A@$0PPPP@@detail@boost@@2_NB DB 01H ; boost::detail::integer_traits_base<wchar_t,0,65535>::is_integral
CONST	ENDS
;	COMDAT ?const_max@?$integer_traits_base@E$0A@$0PP@@detail@boost@@2EB
CONST	SEGMENT
?const_max@?$integer_traits_base@E$0A@$0PP@@detail@boost@@2EB DB 0ffH ; boost::detail::integer_traits_base<unsigned char,0,255>::const_max
CONST	ENDS
;	COMDAT ?const_min@?$integer_traits_base@E$0A@$0PP@@detail@boost@@2EB
CONST	SEGMENT
?const_min@?$integer_traits_base@E$0A@$0PP@@detail@boost@@2EB DB 00H ; boost::detail::integer_traits_base<unsigned char,0,255>::const_min
CONST	ENDS
;	COMDAT ?is_integral@?$integer_traits_base@E$0A@$0PP@@detail@boost@@2_NB
CONST	SEGMENT
?is_integral@?$integer_traits_base@E$0A@$0PP@@detail@boost@@2_NB DB 01H ; boost::detail::integer_traits_base<unsigned char,0,255>::is_integral
CONST	ENDS
;	COMDAT ?const_max@?$integer_traits_base@C$0?IA@$0HP@@detail@boost@@2CB
CONST	SEGMENT
?const_max@?$integer_traits_base@C$0?IA@$0HP@@detail@boost@@2CB DB 07fH ; boost::detail::integer_traits_base<signed char,-128,127>::const_max
CONST	ENDS
;	COMDAT ?const_min@?$integer_traits_base@C$0?IA@$0HP@@detail@boost@@2CB
CONST	SEGMENT
?const_min@?$integer_traits_base@C$0?IA@$0HP@@detail@boost@@2CB DB 080H ; boost::detail::integer_traits_base<signed char,-128,127>::const_min
CONST	ENDS
;	COMDAT ?is_integral@?$integer_traits_base@C$0?IA@$0HP@@detail@boost@@2_NB
CONST	SEGMENT
?is_integral@?$integer_traits_base@C$0?IA@$0HP@@detail@boost@@2_NB DB 01H ; boost::detail::integer_traits_base<signed char,-128,127>::is_integral
CONST	ENDS
;	COMDAT ?const_max@?$integer_traits_base@D$0?IA@$0HP@@detail@boost@@2DB
CONST	SEGMENT
?const_max@?$integer_traits_base@D$0?IA@$0HP@@detail@boost@@2DB DB 07fH ; boost::detail::integer_traits_base<char,-128,127>::const_max
CONST	ENDS
;	COMDAT ?const_min@?$integer_traits_base@D$0?IA@$0HP@@detail@boost@@2DB
CONST	SEGMENT
?const_min@?$integer_traits_base@D$0?IA@$0HP@@detail@boost@@2DB DB 080H ; boost::detail::integer_traits_base<char,-128,127>::const_min
CONST	ENDS
;	COMDAT ?is_integral@?$integer_traits_base@D$0?IA@$0HP@@detail@boost@@2_NB
CONST	SEGMENT
?is_integral@?$integer_traits_base@D$0?IA@$0HP@@detail@boost@@2_NB DB 01H ; boost::detail::integer_traits_base<char,-128,127>::is_integral
CONST	ENDS
;	COMDAT ?const_max@?$integer_traits_base@_N$0A@$00@detail@boost@@2_NB
CONST	SEGMENT
?const_max@?$integer_traits_base@_N$0A@$00@detail@boost@@2_NB DB 01H ; boost::detail::integer_traits_base<bool,0,1>::const_max
CONST	ENDS
;	COMDAT ?const_min@?$integer_traits_base@_N$0A@$00@detail@boost@@2_NB
CONST	SEGMENT
?const_min@?$integer_traits_base@_N$0A@$00@detail@boost@@2_NB DB 00H ; boost::detail::integer_traits_base<bool,0,1>::const_min
CONST	ENDS
;	COMDAT ?is_integral@?$integer_traits_base@_N$0A@$00@detail@boost@@2_NB
CONST	SEGMENT
?is_integral@?$integer_traits_base@_N$0A@$00@detail@boost@@2_NB DB 01H ; boost::detail::integer_traits_base<bool,0,1>::is_integral
CONST	ENDS
;	COMDAT ?end@?$_Iosb@H@std@@2W4_Seekdir@12@B
CONST	SEGMENT
?end@?$_Iosb@H@std@@2W4_Seekdir@12@B DD 02H		; std::_Iosb<int>::end
CONST	ENDS
;	COMDAT ?cur@?$_Iosb@H@std@@2W4_Seekdir@12@B
CONST	SEGMENT
?cur@?$_Iosb@H@std@@2W4_Seekdir@12@B DD 01H		; std::_Iosb<int>::cur
CONST	ENDS
;	COMDAT ?beg@?$_Iosb@H@std@@2W4_Seekdir@12@B
CONST	SEGMENT
?beg@?$_Iosb@H@std@@2W4_Seekdir@12@B DD 00H		; std::_Iosb<int>::beg
CONST	ENDS
;	COMDAT ?binary@?$_Iosb@H@std@@2W4_Openmode@12@B
CONST	SEGMENT
?binary@?$_Iosb@H@std@@2W4_Openmode@12@B DD 020H	; std::_Iosb<int>::binary
CONST	ENDS
;	COMDAT ?_Noreplace@?$_Iosb@H@std@@2W4_Openmode@12@B
CONST	SEGMENT
?_Noreplace@?$_Iosb@H@std@@2W4_Openmode@12@B DD 080H	; std::_Iosb<int>::_Noreplace
CONST	ENDS
;	COMDAT ?_Nocreate@?$_Iosb@H@std@@2W4_Openmode@12@B
CONST	SEGMENT
?_Nocreate@?$_Iosb@H@std@@2W4_Openmode@12@B DD 040H	; std::_Iosb<int>::_Nocreate
CONST	ENDS
;	COMDAT ?trunc@?$_Iosb@H@std@@2W4_Openmode@12@B
CONST	SEGMENT
?trunc@?$_Iosb@H@std@@2W4_Openmode@12@B DD 010H		; std::_Iosb<int>::trunc
CONST	ENDS
;	COMDAT ?app@?$_Iosb@H@std@@2W4_Openmode@12@B
CONST	SEGMENT
?app@?$_Iosb@H@std@@2W4_Openmode@12@B DD 08H		; std::_Iosb<int>::app
CONST	ENDS
;	COMDAT ?ate@?$_Iosb@H@std@@2W4_Openmode@12@B
CONST	SEGMENT
?ate@?$_Iosb@H@std@@2W4_Openmode@12@B DD 04H		; std::_Iosb<int>::ate
CONST	ENDS
;	COMDAT ?out@?$_Iosb@H@std@@2W4_Openmode@12@B
CONST	SEGMENT
?out@?$_Iosb@H@std@@2W4_Openmode@12@B DD 02H		; std::_Iosb<int>::out
CONST	ENDS
;	COMDAT ?in@?$_Iosb@H@std@@2W4_Openmode@12@B
CONST	SEGMENT
?in@?$_Iosb@H@std@@2W4_Openmode@12@B DD 01H		; std::_Iosb<int>::in
CONST	ENDS
;	COMDAT ?_Hardfail@?$_Iosb@H@std@@2W4_Iostate@12@B
CONST	SEGMENT
?_Hardfail@?$_Iosb@H@std@@2W4_Iostate@12@B DD 010H	; std::_Iosb<int>::_Hardfail
CONST	ENDS
;	COMDAT ?badbit@?$_Iosb@H@std@@2W4_Iostate@12@B
CONST	SEGMENT
?badbit@?$_Iosb@H@std@@2W4_Iostate@12@B DD 04H		; std::_Iosb<int>::badbit
CONST	ENDS
;	COMDAT ?failbit@?$_Iosb@H@std@@2W4_Iostate@12@B
CONST	SEGMENT
?failbit@?$_Iosb@H@std@@2W4_Iostate@12@B DD 02H		; std::_Iosb<int>::failbit
CONST	ENDS
;	COMDAT ?eofbit@?$_Iosb@H@std@@2W4_Iostate@12@B
CONST	SEGMENT
?eofbit@?$_Iosb@H@std@@2W4_Iostate@12@B DD 01H		; std::_Iosb<int>::eofbit
CONST	ENDS
;	COMDAT ?goodbit@?$_Iosb@H@std@@2W4_Iostate@12@B
CONST	SEGMENT
?goodbit@?$_Iosb@H@std@@2W4_Iostate@12@B DD 00H		; std::_Iosb<int>::goodbit
CONST	ENDS
;	COMDAT ?floatfield@?$_Iosb@H@std@@2W4_Fmtflags@12@B
CONST	SEGMENT
?floatfield@?$_Iosb@H@std@@2W4_Fmtflags@12@B DD 03000H	; std::_Iosb<int>::floatfield
CONST	ENDS
;	COMDAT ?basefield@?$_Iosb@H@std@@2W4_Fmtflags@12@B
CONST	SEGMENT
?basefield@?$_Iosb@H@std@@2W4_Fmtflags@12@B DD 0e00H	; std::_Iosb<int>::basefield
CONST	ENDS
;	COMDAT ?adjustfield@?$_Iosb@H@std@@2W4_Fmtflags@12@B
CONST	SEGMENT
?adjustfield@?$_Iosb@H@std@@2W4_Fmtflags@12@B DD 01c0H	; std::_Iosb<int>::adjustfield
CONST	ENDS
;	COMDAT ?_Stdio@?$_Iosb@H@std@@2W4_Fmtflags@12@B
CONST	SEGMENT
?_Stdio@?$_Iosb@H@std@@2W4_Fmtflags@12@B DD 08000H	; std::_Iosb<int>::_Stdio
CONST	ENDS
;	COMDAT ?boolalpha@?$_Iosb@H@std@@2W4_Fmtflags@12@B
CONST	SEGMENT
?boolalpha@?$_Iosb@H@std@@2W4_Fmtflags@12@B DD 04000H	; std::_Iosb<int>::boolalpha
CONST	ENDS
;	COMDAT ?hexfloat@?$_Iosb@H@std@@2W4_Fmtflags@12@B
CONST	SEGMENT
?hexfloat@?$_Iosb@H@std@@2W4_Fmtflags@12@B DD 03000H	; std::_Iosb<int>::hexfloat
CONST	ENDS
;	COMDAT ?fixed@?$_Iosb@H@std@@2W4_Fmtflags@12@B
CONST	SEGMENT
?fixed@?$_Iosb@H@std@@2W4_Fmtflags@12@B DD 02000H	; std::_Iosb<int>::fixed
CONST	ENDS
;	COMDAT ?scientific@?$_Iosb@H@std@@2W4_Fmtflags@12@B
CONST	SEGMENT
?scientific@?$_Iosb@H@std@@2W4_Fmtflags@12@B DD 01000H	; std::_Iosb<int>::scientific
CONST	ENDS
;	COMDAT ?hex@?$_Iosb@H@std@@2W4_Fmtflags@12@B
CONST	SEGMENT
?hex@?$_Iosb@H@std@@2W4_Fmtflags@12@B DD 0800H		; std::_Iosb<int>::hex
CONST	ENDS
;	COMDAT ?oct@?$_Iosb@H@std@@2W4_Fmtflags@12@B
CONST	SEGMENT
?oct@?$_Iosb@H@std@@2W4_Fmtflags@12@B DD 0400H		; std::_Iosb<int>::oct
CONST	ENDS
;	COMDAT ?dec@?$_Iosb@H@std@@2W4_Fmtflags@12@B
CONST	SEGMENT
?dec@?$_Iosb@H@std@@2W4_Fmtflags@12@B DD 0200H		; std::_Iosb<int>::dec
CONST	ENDS
;	COMDAT ?internal@?$_Iosb@H@std@@2W4_Fmtflags@12@B
CONST	SEGMENT
?internal@?$_Iosb@H@std@@2W4_Fmtflags@12@B DD 0100H	; std::_Iosb<int>::internal
CONST	ENDS
;	COMDAT ?right@?$_Iosb@H@std@@2W4_Fmtflags@12@B
CONST	SEGMENT
?right@?$_Iosb@H@std@@2W4_Fmtflags@12@B DD 080H		; std::_Iosb<int>::right
CONST	ENDS
;	COMDAT ?left@?$_Iosb@H@std@@2W4_Fmtflags@12@B
CONST	SEGMENT
?left@?$_Iosb@H@std@@2W4_Fmtflags@12@B DD 040H		; std::_Iosb<int>::left
CONST	ENDS
;	COMDAT ?showpos@?$_Iosb@H@std@@2W4_Fmtflags@12@B
CONST	SEGMENT
?showpos@?$_Iosb@H@std@@2W4_Fmtflags@12@B DD 020H	; std::_Iosb<int>::showpos
CONST	ENDS
;	COMDAT ?showpoint@?$_Iosb@H@std@@2W4_Fmtflags@12@B
CONST	SEGMENT
?showpoint@?$_Iosb@H@std@@2W4_Fmtflags@12@B DD 010H	; std::_Iosb<int>::showpoint
CONST	ENDS
;	COMDAT ?showbase@?$_Iosb@H@std@@2W4_Fmtflags@12@B
CONST	SEGMENT
?showbase@?$_Iosb@H@std@@2W4_Fmtflags@12@B DD 08H	; std::_Iosb<int>::showbase
CONST	ENDS
;	COMDAT ?uppercase@?$_Iosb@H@std@@2W4_Fmtflags@12@B
CONST	SEGMENT
?uppercase@?$_Iosb@H@std@@2W4_Fmtflags@12@B DD 04H	; std::_Iosb<int>::uppercase
CONST	ENDS
;	COMDAT ?unitbuf@?$_Iosb@H@std@@2W4_Fmtflags@12@B
CONST	SEGMENT
?unitbuf@?$_Iosb@H@std@@2W4_Fmtflags@12@B DD 02H	; std::_Iosb<int>::unitbuf
CONST	ENDS
;	COMDAT ?skipws@?$_Iosb@H@std@@2W4_Fmtflags@12@B
CONST	SEGMENT
?skipws@?$_Iosb@H@std@@2W4_Fmtflags@12@B DD 01H		; std::_Iosb<int>::skipws
CONST	ENDS
;	COMDAT ?none@?$_Locbase@H@std@@2HB
CONST	SEGMENT
?none@?$_Locbase@H@std@@2HB DD 00H			; std::_Locbase<int>::none
CONST	ENDS
;	COMDAT ?all@?$_Locbase@H@std@@2HB
CONST	SEGMENT
?all@?$_Locbase@H@std@@2HB DD 03fH			; std::_Locbase<int>::all
CONST	ENDS
;	COMDAT ?messages@?$_Locbase@H@std@@2HB
CONST	SEGMENT
?messages@?$_Locbase@H@std@@2HB DD 020H			; std::_Locbase<int>::messages
CONST	ENDS
;	COMDAT ?time@?$_Locbase@H@std@@2HB
CONST	SEGMENT
?time@?$_Locbase@H@std@@2HB DD 010H			; std::_Locbase<int>::time
CONST	ENDS
;	COMDAT ?numeric@?$_Locbase@H@std@@2HB
CONST	SEGMENT
?numeric@?$_Locbase@H@std@@2HB DD 08H			; std::_Locbase<int>::numeric
CONST	ENDS
;	COMDAT ?monetary@?$_Locbase@H@std@@2HB
CONST	SEGMENT
?monetary@?$_Locbase@H@std@@2HB DD 04H			; std::_Locbase<int>::monetary
CONST	ENDS
;	COMDAT ?ctype@?$_Locbase@H@std@@2HB
CONST	SEGMENT
?ctype@?$_Locbase@H@std@@2HB DD 02H			; std::_Locbase<int>::ctype
CONST	ENDS
;	COMDAT ?collate@?$_Locbase@H@std@@2HB
CONST	SEGMENT
?collate@?$_Locbase@H@std@@2HB DD 01H			; std::_Locbase<int>::collate
CONST	ENDS
;	COMDAT ?value@?$bool_@$0A@@mpl@boost@@2_NB
CONST	SEGMENT
?value@?$bool_@$0A@@mpl@boost@@2_NB DB 00H		; boost::mpl::bool_<0>::value
CONST	ENDS
;	COMDAT ?value@?$bool_@$00@mpl@boost@@2_NB
CONST	SEGMENT
?value@?$bool_@$00@mpl@boost@@2_NB DB 01H		; boost::mpl::bool_<1>::value
CONST	ENDS
;	COMDAT ?value@integral_c_tag@mpl@boost@@2HB
CONST	SEGMENT
?value@integral_c_tag@mpl@boost@@2HB DD 00H		; boost::mpl::integral_c_tag::value
CONST	ENDS
_DATA	SEGMENT
__bad_alloc_Message DD FLAT:??_C@_0P@GHFPNOJB@bad?5allocation?$AA@
_DATA	ENDS
;	COMDAT ??_C@_0P@GHFPNOJB@bad?5allocation?$AA@
CONST	SEGMENT
??_C@_0P@GHFPNOJB@bad?5allocation?$AA@ DB 'bad allocation', 00H ; `string'
CONST	ENDS
;	COMDAT ?_Value@?$_Is_swap_move@U_Swap_move_tag@std@@@std@@2_NB
CONST	SEGMENT
?_Value@?$_Is_swap_move@U_Swap_move_tag@std@@@std@@2_NB DB 01H ; std::_Is_swap_move<std::_Swap_move_tag>::_Value
CONST	ENDS
PUBLIC	??$?6U?$char_traits@D@std@@@std@@YAAAV?$basic_ostream@DU?$char_traits@D@std@@@0@AAV10@PBD@Z ; std::operator<<<std::char_traits<char> >
PUBLIC	??_C@_03EKLIEPMF@?5Q?$FL?$AA@			; `string'
PUBLIC	??_C@_04GONJLINA@?$FN?5S?$FL?$AA@		; `string'
PUBLIC	??_C@_04HGHCGHBC@?$FN?5E?$FL?$AA@		; `string'
PUBLIC	??_C@_06JGIJJGAA@?$FN?5EXE?$FL?$AA@		; `string'
PUBLIC	?getExecuteTime@Event@DRAMsimII@@QBE_JXZ	; DRAMsimII::Event::getExecuteTime
PUBLIC	??_C@_06KLGMCFCD@?$FN?5LAT?$FL?$AA@		; `string'
PUBLIC	?dec@std@@YAAAVios_base@1@AAV21@@Z		; std::dec
PUBLIC	?getLatency@Event@DRAMsimII@@QBE_JXZ		; DRAMsimII::Event::getLatency
PUBLIC	??_C@_01LBDDMOBJ@?$FN?$AA@			; `string'
PUBLIC	??6DRAMsimII@@YAAAV?$basic_ostream@DU?$char_traits@D@std@@@std@@AAV12@ABVEvent@0@@Z ; DRAMsimII::operator<<
EXTRN	__imp_??6?$basic_ostream@DU?$char_traits@D@std@@@std@@QAEAAV01@_J@Z:PROC
EXTRN	__imp_??6?$basic_ostream@DU?$char_traits@D@std@@@std@@QAEAAV01@P6AAAVios_base@1@AAV21@@Z@Z:PROC
EXTRN	??6DRAMsimII@@YAAAV?$basic_ostream@DU?$char_traits@D@std@@@std@@AAV12@ABVAddress@0@@Z:PROC ; DRAMsimII::operator<<
EXTRN	__RTC_CheckEsp:PROC
EXTRN	__RTC_Shutdown:PROC
EXTRN	__RTC_InitBase:PROC
;	COMDAT ??_C@_03EKLIEPMF@?5Q?$FL?$AA@
; File c:\users\crius\documents\visual studio 2008\projects\dramsimiihg\src\event.cpp
CONST	SEGMENT
??_C@_03EKLIEPMF@?5Q?$FL?$AA@ DB ' Q[', 00H		; `string'
CONST	ENDS
;	COMDAT ??_C@_04GONJLINA@?$FN?5S?$FL?$AA@
CONST	SEGMENT
??_C@_04GONJLINA@?$FN?5S?$FL?$AA@ DB '] S[', 00H	; `string'
CONST	ENDS
;	COMDAT ??_C@_04HGHCGHBC@?$FN?5E?$FL?$AA@
CONST	SEGMENT
??_C@_04HGHCGHBC@?$FN?5E?$FL?$AA@ DB '] E[', 00H	; `string'
CONST	ENDS
;	COMDAT ??_C@_06JGIJJGAA@?$FN?5EXE?$FL?$AA@
CONST	SEGMENT
??_C@_06JGIJJGAA@?$FN?5EXE?$FL?$AA@ DB '] EXE[', 00H	; `string'
CONST	ENDS
;	COMDAT ??_C@_06KLGMCFCD@?$FN?5LAT?$FL?$AA@
CONST	SEGMENT
??_C@_06KLGMCFCD@?$FN?5LAT?$FL?$AA@ DB '] LAT[', 00H	; `string'
CONST	ENDS
;	COMDAT ??_C@_01LBDDMOBJ@?$FN?$AA@
CONST	SEGMENT
??_C@_01LBDDMOBJ@?$FN?$AA@ DB ']', 00H			; `string'
CONST	ENDS
;	COMDAT rtc$TMZ
rtc$TMZ	SEGMENT
__RTC_Shutdown.rtc$TMZ DD FLAT:__RTC_Shutdown
rtc$TMZ	ENDS
;	COMDAT rtc$IMZ
rtc$IMZ	SEGMENT
__RTC_InitBase.rtc$IMZ DD FLAT:__RTC_InitBase
; Function compile flags: /Odtp /RTCcsu /ZI
rtc$IMZ	ENDS
;	COMDAT ??6DRAMsimII@@YAAAV?$basic_ostream@DU?$char_traits@D@std@@@std@@AAV12@ABVEvent@0@@Z
_TEXT	SEGMENT
tv239 = -220						; size = 4
tv237 = -216						; size = 4
tv235 = -212						; size = 4
tv233 = -208						; size = 4
tv231 = -204						; size = 4
tv229 = -200						; size = 4
tv227 = -196						; size = 4
_os$ = 8						; size = 4
_currentEvent$ = 12					; size = 4
??6DRAMsimII@@YAAAV?$basic_ostream@DU?$char_traits@D@std@@@std@@AAV12@ABVEvent@0@@Z PROC ; DRAMsimII::operator<<, COMDAT

; 24   : {

	push	ebp
	mov	ebp, esp
	sub	esp, 220				; 000000dcH
	push	ebx
	push	esi
	push	edi
	lea	edi, DWORD PTR [ebp-220]
	mov	ecx, 55					; 00000037H
	mov	eax, -858993460				; ccccccccH
	rep stosd

; 25   : 	return os << currentEvent.address <<
; 26   : 		" Q[" << std::dec << currentEvent.enqueueTime <<
; 27   : 		"] S[" << std::dec << currentEvent.startTime <<
; 28   : 		"] E[" << std::dec << currentEvent.completionTime <<
; 29   : 		"] EXE[" << std::dec << currentEvent.getExecuteTime() <<
; 30   : 		"] LAT[" << std::dec << currentEvent.getLatency() << "]";

	push	OFFSET ??_C@_01LBDDMOBJ@?$FN?$AA@
	mov	ecx, DWORD PTR _currentEvent$[ebp]
	call	?getLatency@Event@DRAMsimII@@QBE_JXZ	; DRAMsimII::Event::getLatency
	mov	esi, esp
	push	edx
	push	eax
	mov	edi, esp
	push	OFFSET ?dec@std@@YAAAVios_base@1@AAV21@@Z ; std::dec
	push	OFFSET ??_C@_06KLGMCFCD@?$FN?5LAT?$FL?$AA@
	mov	ecx, DWORD PTR _currentEvent$[ebp]
	call	?getExecuteTime@Event@DRAMsimII@@QBE_JXZ ; DRAMsimII::Event::getExecuteTime
	mov	ebx, esp
	push	edx
	push	eax
	mov	eax, esp
	push	OFFSET ?dec@std@@YAAAVios_base@1@AAV21@@Z ; std::dec
	push	OFFSET ??_C@_06JGIJJGAA@?$FN?5EXE?$FL?$AA@
	mov	ecx, esp
	mov	edx, DWORD PTR _currentEvent$[ebp]
	mov	DWORD PTR tv227[ebp], esi
	mov	esi, DWORD PTR [edx+36]
	push	esi
	mov	edx, DWORD PTR [edx+32]
	push	edx
	mov	esi, esp
	push	OFFSET ?dec@std@@YAAAVios_base@1@AAV21@@Z ; std::dec
	push	OFFSET ??_C@_04HGHCGHBC@?$FN?5E?$FL?$AA@
	mov	edx, esp
	mov	DWORD PTR tv229[ebp], edi
	mov	edi, DWORD PTR _currentEvent$[ebp]
	mov	DWORD PTR tv231[ebp], ebx
	mov	ebx, DWORD PTR [edi+28]
	push	ebx
	mov	edi, DWORD PTR [edi+24]
	push	edi
	mov	edi, esp
	push	OFFSET ?dec@std@@YAAAVios_base@1@AAV21@@Z ; std::dec
	push	OFFSET ??_C@_04GONJLINA@?$FN?5S?$FL?$AA@
	mov	ebx, esp
	mov	DWORD PTR tv233[ebp], eax
	mov	eax, DWORD PTR _currentEvent$[ebp]
	mov	DWORD PTR tv235[ebp], ecx
	mov	ecx, DWORD PTR [eax+20]
	push	ecx
	mov	eax, DWORD PTR [eax+16]
	push	eax
	mov	eax, esp
	push	OFFSET ?dec@std@@YAAAVios_base@1@AAV21@@Z ; std::dec
	push	OFFSET ??_C@_03EKLIEPMF@?5Q?$FL?$AA@
	mov	ecx, DWORD PTR _currentEvent$[ebp]
	add	ecx, 40					; 00000028H
	push	ecx
	mov	ecx, DWORD PTR _os$[ebp]
	push	ecx
	mov	DWORD PTR tv237[ebp], eax
	mov	DWORD PTR tv239[ebp], edx
	call	??6DRAMsimII@@YAAAV?$basic_ostream@DU?$char_traits@D@std@@@std@@AAV12@ABVAddress@0@@Z ; DRAMsimII::operator<<
	add	esp, 8
	push	eax
	call	??$?6U?$char_traits@D@std@@@std@@YAAAV?$basic_ostream@DU?$char_traits@D@std@@@0@AAV10@PBD@Z ; std::operator<<<std::char_traits<char> >
	add	esp, 8
	mov	ecx, eax
	call	DWORD PTR __imp_??6?$basic_ostream@DU?$char_traits@D@std@@@std@@QAEAAV01@P6AAAVios_base@1@AAV21@@Z@Z
	mov	ecx, DWORD PTR tv237[ebp]
	cmp	ecx, esp
	call	__RTC_CheckEsp
	mov	ecx, eax
	call	DWORD PTR __imp_??6?$basic_ostream@DU?$char_traits@D@std@@@std@@QAEAAV01@_J@Z
	cmp	ebx, esp
	call	__RTC_CheckEsp
	push	eax
	call	??$?6U?$char_traits@D@std@@@std@@YAAAV?$basic_ostream@DU?$char_traits@D@std@@@0@AAV10@PBD@Z ; std::operator<<<std::char_traits<char> >
	add	esp, 8
	mov	ecx, eax
	call	DWORD PTR __imp_??6?$basic_ostream@DU?$char_traits@D@std@@@std@@QAEAAV01@P6AAAVios_base@1@AAV21@@Z@Z
	cmp	edi, esp
	call	__RTC_CheckEsp
	mov	ecx, eax
	call	DWORD PTR __imp_??6?$basic_ostream@DU?$char_traits@D@std@@@std@@QAEAAV01@_J@Z
	mov	edi, DWORD PTR tv239[ebp]
	cmp	edi, esp
	call	__RTC_CheckEsp
	push	eax
	call	??$?6U?$char_traits@D@std@@@std@@YAAAV?$basic_ostream@DU?$char_traits@D@std@@@0@AAV10@PBD@Z ; std::operator<<<std::char_traits<char> >
	add	esp, 8
	mov	ecx, eax
	call	DWORD PTR __imp_??6?$basic_ostream@DU?$char_traits@D@std@@@std@@QAEAAV01@P6AAAVios_base@1@AAV21@@Z@Z
	cmp	esi, esp
	call	__RTC_CheckEsp
	mov	ecx, eax
	call	DWORD PTR __imp_??6?$basic_ostream@DU?$char_traits@D@std@@@std@@QAEAAV01@_J@Z
	mov	esi, DWORD PTR tv235[ebp]
	cmp	esi, esp
	call	__RTC_CheckEsp
	push	eax
	call	??$?6U?$char_traits@D@std@@@std@@YAAAV?$basic_ostream@DU?$char_traits@D@std@@@0@AAV10@PBD@Z ; std::operator<<<std::char_traits<char> >
	add	esp, 8
	mov	ecx, eax
	call	DWORD PTR __imp_??6?$basic_ostream@DU?$char_traits@D@std@@@std@@QAEAAV01@P6AAAVios_base@1@AAV21@@Z@Z
	mov	esi, DWORD PTR tv233[ebp]
	cmp	esi, esp
	call	__RTC_CheckEsp
	mov	ecx, eax
	call	DWORD PTR __imp_??6?$basic_ostream@DU?$char_traits@D@std@@@std@@QAEAAV01@_J@Z
	mov	esi, DWORD PTR tv231[ebp]
	cmp	esi, esp
	call	__RTC_CheckEsp
	push	eax
	call	??$?6U?$char_traits@D@std@@@std@@YAAAV?$basic_ostream@DU?$char_traits@D@std@@@0@AAV10@PBD@Z ; std::operator<<<std::char_traits<char> >
	add	esp, 8
	mov	ecx, eax
	call	DWORD PTR __imp_??6?$basic_ostream@DU?$char_traits@D@std@@@std@@QAEAAV01@P6AAAVios_base@1@AAV21@@Z@Z
	mov	esi, DWORD PTR tv229[ebp]
	cmp	esi, esp
	call	__RTC_CheckEsp
	mov	ecx, eax
	call	DWORD PTR __imp_??6?$basic_ostream@DU?$char_traits@D@std@@@std@@QAEAAV01@_J@Z
	mov	esi, DWORD PTR tv227[ebp]
	cmp	esi, esp
	call	__RTC_CheckEsp
	push	eax
	call	??$?6U?$char_traits@D@std@@@std@@YAAAV?$basic_ostream@DU?$char_traits@D@std@@@0@AAV10@PBD@Z ; std::operator<<<std::char_traits<char> >
	add	esp, 8

; 31   : }

	pop	edi
	pop	esi
	pop	ebx
	add	esp, 220				; 000000dcH
	cmp	ebp, esp
	call	__RTC_CheckEsp
	mov	esp, ebp
	pop	ebp
	ret	0
??6DRAMsimII@@YAAAV?$basic_ostream@DU?$char_traits@D@std@@@std@@AAV12@ABVEvent@0@@Z ENDP ; DRAMsimII::operator<<
_TEXT	ENDS
EXTRN	__imp_?setf@ios_base@std@@QAEHHH@Z:PROC
; Function compile flags: /Odtp /RTCcsu /ZI
; File c:\program files\microsoft visual studio 9.0\vc\include\ios
;	COMDAT ?dec@std@@YAAAVios_base@1@AAV21@@Z
_TEXT	SEGMENT
__Iosbase$ = 8						; size = 4
?dec@std@@YAAAVios_base@1@AAV21@@Z PROC			; std::dec, COMDAT

; 178  : 	{	// set basefield to dec

	push	ebp
	mov	ebp, esp
	sub	esp, 192				; 000000c0H
	push	ebx
	push	esi
	push	edi
	lea	edi, DWORD PTR [ebp-192]
	mov	ecx, 48					; 00000030H
	mov	eax, -858993460				; ccccccccH
	rep stosd

; 179  : 	_Iosbase.setf(ios_base::dec, ios_base::basefield);

	mov	esi, esp
	push	3584					; 00000e00H
	push	512					; 00000200H
	mov	ecx, DWORD PTR __Iosbase$[ebp]
	call	DWORD PTR __imp_?setf@ios_base@std@@QAEHHH@Z
	cmp	esi, esp
	call	__RTC_CheckEsp

; 180  : 	return (_Iosbase);

	mov	eax, DWORD PTR __Iosbase$[ebp]

; 181  : 	}

	pop	edi
	pop	esi
	pop	ebx
	add	esp, 192				; 000000c0H
	cmp	ebp, esp
	call	__RTC_CheckEsp
	mov	esp, ebp
	pop	ebp
	ret	0
?dec@std@@YAAAVios_base@1@AAV21@@Z ENDP			; std::dec
; Function compile flags: /Odtp /RTCcsu /ZI
; File c:\users\crius\documents\visual studio 2008\projects\dramsimiihg\src\event.h
_TEXT	ENDS
;	COMDAT ?getExecuteTime@Event@DRAMsimII@@QBE_JXZ
_TEXT	SEGMENT
_this$ = -8						; size = 4
?getExecuteTime@Event@DRAMsimII@@QBE_JXZ PROC		; DRAMsimII::Event::getExecuteTime, COMDAT
; _this$ = ecx

; 92   : 		tick getExecuteTime() const { return completionTime - startTime; }

	push	ebp
	mov	ebp, esp
	sub	esp, 204				; 000000ccH
	push	ebx
	push	esi
	push	edi
	push	ecx
	lea	edi, DWORD PTR [ebp-204]
	mov	ecx, 51					; 00000033H
	mov	eax, -858993460				; ccccccccH
	rep stosd
	pop	ecx
	mov	DWORD PTR _this$[ebp], ecx
	mov	eax, DWORD PTR _this$[ebp]
	mov	ecx, DWORD PTR _this$[ebp]
	mov	edx, DWORD PTR [eax+32]
	sub	edx, DWORD PTR [ecx+24]
	mov	esi, DWORD PTR [eax+36]
	sbb	esi, DWORD PTR [ecx+28]
	mov	eax, edx
	mov	edx, esi
	pop	edi
	pop	esi
	pop	ebx
	mov	esp, ebp
	pop	ebp
	ret	0
?getExecuteTime@Event@DRAMsimII@@QBE_JXZ ENDP		; DRAMsimII::Event::getExecuteTime
; Function compile flags: /Odtp /RTCcsu /ZI
_TEXT	ENDS
;	COMDAT ?getLatency@Event@DRAMsimII@@QBE_JXZ
_TEXT	SEGMENT
_this$ = -8						; size = 4
?getLatency@Event@DRAMsimII@@QBE_JXZ PROC		; DRAMsimII::Event::getLatency, COMDAT
; _this$ = ecx

; 94   : 		tick getLatency() const { return completionTime - enqueueTime; }

	push	ebp
	mov	ebp, esp
	sub	esp, 204				; 000000ccH
	push	ebx
	push	esi
	push	edi
	push	ecx
	lea	edi, DWORD PTR [ebp-204]
	mov	ecx, 51					; 00000033H
	mov	eax, -858993460				; ccccccccH
	rep stosd
	pop	ecx
	mov	DWORD PTR _this$[ebp], ecx
	mov	eax, DWORD PTR _this$[ebp]
	mov	ecx, DWORD PTR _this$[ebp]
	mov	edx, DWORD PTR [eax+32]
	sub	edx, DWORD PTR [ecx+16]
	mov	esi, DWORD PTR [eax+36]
	sbb	esi, DWORD PTR [ecx+20]
	mov	eax, edx
	mov	edx, esi
	pop	edi
	pop	esi
	pop	ebx
	mov	esp, ebp
	pop	ebp
	ret	0
?getLatency@Event@DRAMsimII@@QBE_JXZ ENDP		; DRAMsimII::Event::getLatency
_TEXT	ENDS
PUBLIC	??1sentry@?$basic_ostream@DU?$char_traits@D@std@@@std@@QAE@XZ ; std::basic_ostream<char,std::char_traits<char> >::sentry::~sentry
PUBLIC	??Bsentry@?$basic_ostream@DU?$char_traits@D@std@@@std@@QBE_NXZ ; std::basic_ostream<char,std::char_traits<char> >::sentry::operator bool
PUBLIC	??0sentry@?$basic_ostream@DU?$char_traits@D@std@@@std@@QAE@AAV12@@Z ; std::basic_ostream<char,std::char_traits<char> >::sentry::sentry
EXTRN	__imp_?setstate@?$basic_ios@DU?$char_traits@D@std@@@std@@QAEXH_N@Z:PROC
EXTRN	__imp_?width@ios_base@std@@QAEHH@Z:PROC
EXTRN	__imp_?sputn@?$basic_streambuf@DU?$char_traits@D@std@@@std@@QAEHPBDH@Z:PROC
EXTRN	__imp_?eq_int_type@?$char_traits@D@std@@SA_NABH0@Z:PROC
EXTRN	__imp_?eof@?$char_traits@D@std@@SAHXZ:PROC
EXTRN	__imp_?sputc@?$basic_streambuf@DU?$char_traits@D@std@@@std@@QAEHD@Z:PROC
EXTRN	__imp_?rdbuf@?$basic_ios@DU?$char_traits@D@std@@@std@@QBEPAV?$basic_streambuf@DU?$char_traits@D@std@@@2@XZ:PROC
EXTRN	__imp_?fill@?$basic_ios@DU?$char_traits@D@std@@@std@@QBEDXZ:PROC
EXTRN	__imp_?flags@ios_base@std@@QBEHXZ:PROC
EXTRN	__imp_?width@ios_base@std@@QBEHXZ:PROC
EXTRN	__imp_?length@?$char_traits@D@std@@SAIPBD@Z:PROC
EXTRN	___security_cookie:DWORD
EXTRN	___CxxFrameHandler3:PROC
EXTRN	@__security_check_cookie@4:PROC
EXTRN	@_RTC_CheckStackVars@8:PROC
;	COMDAT xdata$x
; File c:\program files\microsoft visual studio 9.0\vc\include\ostream
xdata$x	SEGMENT
__catchsym$??$?6U?$char_traits@D@std@@@std@@YAAAV?$basic_ostream@DU?$char_traits@D@std@@@0@AAV10@PBD@Z$3 DD 040H
	DD	00H
	DD	00H
	DD	FLAT:__catch$??$?6U?$char_traits@D@std@@@std@@YAAAV?$basic_ostream@DU?$char_traits@D@std@@@0@AAV10@PBD@Z$0
__tryblocktable$??$?6U?$char_traits@D@std@@@std@@YAAAV?$basic_ostream@DU?$char_traits@D@std@@@0@AAV10@PBD@Z DD 01H
	DD	01H
	DD	02H
	DD	01H
	DD	FLAT:__catchsym$??$?6U?$char_traits@D@std@@@std@@YAAAV?$basic_ostream@DU?$char_traits@D@std@@@0@AAV10@PBD@Z$3
__unwindtable$??$?6U?$char_traits@D@std@@@std@@YAAAV?$basic_ostream@DU?$char_traits@D@std@@@0@AAV10@PBD@Z DD 0ffffffffH
	DD	FLAT:__unwindfunclet$??$?6U?$char_traits@D@std@@@std@@YAAAV?$basic_ostream@DU?$char_traits@D@std@@@0@AAV10@PBD@Z$2
	DD	00H
	DD	00H
	DD	00H
	DD	00H
__ehfuncinfo$??$?6U?$char_traits@D@std@@@std@@YAAAV?$basic_ostream@DU?$char_traits@D@std@@@0@AAV10@PBD@Z DD 019930522H
	DD	03H
	DD	FLAT:__unwindtable$??$?6U?$char_traits@D@std@@@std@@YAAAV?$basic_ostream@DU?$char_traits@D@std@@@0@AAV10@PBD@Z
	DD	01H
	DD	FLAT:__tryblocktable$??$?6U?$char_traits@D@std@@@std@@YAAAV?$basic_ostream@DU?$char_traits@D@std@@@0@AAV10@PBD@Z
	DD	2 DUP(00H)
	DD	00H
	DD	01H
; Function compile flags: /Odtp /RTCcsu /ZI
xdata$x	ENDS
;	COMDAT ??$?6U?$char_traits@D@std@@@std@@YAAAV?$basic_ostream@DU?$char_traits@D@std@@@0@AAV10@PBD@Z
_TEXT	SEGMENT
tv293 = -337						; size = 1
tv286 = -337						; size = 1
tv292 = -336						; size = 4
tv285 = -336						; size = 4
tv291 = -332						; size = 4
tv284 = -332						; size = 4
tv290 = -328						; size = 4
tv288 = -328						; size = 4
tv283 = -328						; size = 4
tv287 = -324						; size = 4
tv136 = -324						; size = 4
tv134 = -324						; size = 4
tv289 = -321						; size = 1
tv282 = -321						; size = 1
$T107964 = -316						; size = 4
$T107965 = -304						; size = 4
$T107966 = -292						; size = 4
$T107967 = -280						; size = 4
$T107968 = -268						; size = 4
__Ok$ = -64						; size = 8
__Pad$ = -48						; size = 4
__Count$ = -36						; size = 4
__State$ = -24						; size = 4
__$EHRec$ = -16						; size = 16
__Ostr$ = 8						; size = 4
__Val$ = 12						; size = 4
??$?6U?$char_traits@D@std@@@std@@YAAAV?$basic_ostream@DU?$char_traits@D@std@@@0@AAV10@PBD@Z PROC ; std::operator<<<std::char_traits<char> >, COMDAT

; 741  : 	{	// insert NTBS into char stream

	push	ebp
	mov	ebp, esp
	push	-1
	push	__ehhandler$??$?6U?$char_traits@D@std@@@std@@YAAAV?$basic_ostream@DU?$char_traits@D@std@@@0@AAV10@PBD@Z
	mov	eax, DWORD PTR fs:0
	push	eax
	push	ecx
	sub	esp, 324				; 00000144H
	push	ebx
	push	esi
	push	edi
	lea	edi, DWORD PTR [ebp-340]
	mov	ecx, 81					; 00000051H
	mov	eax, -858993460				; ccccccccH
	rep stosd
	mov	eax, DWORD PTR ___security_cookie
	xor	eax, ebp
	push	eax
	lea	eax, DWORD PTR __$EHRec$[ebp+4]
	mov	DWORD PTR fs:0, eax
	mov	DWORD PTR __$EHRec$[ebp], esp

; 742  : 	typedef char _Elem;
; 743  : 	typedef basic_ostream<_Elem, _Traits> _Myos;
; 744  : 	ios_base::iostate _State = ios_base::goodbit;

	mov	DWORD PTR __State$[ebp], 0

; 745  : 	streamsize _Count = (streamsize)_Traits::length(_Val);	// may overflow

	mov	esi, esp
	mov	eax, DWORD PTR __Val$[ebp]
	push	eax
	call	DWORD PTR __imp_?length@?$char_traits@D@std@@SAIPBD@Z
	add	esp, 4
	cmp	esi, esp
	call	__RTC_CheckEsp
	mov	DWORD PTR __Count$[ebp], eax

; 746  : 	streamsize _Pad = _Ostr.width() <= 0 || _Ostr.width() <= _Count
; 747  : 		? 0 : _Ostr.width() - _Count;

	mov	eax, DWORD PTR __Ostr$[ebp]
	mov	ecx, DWORD PTR [eax]
	mov	edx, DWORD PTR __Ostr$[ebp]
	add	edx, DWORD PTR [ecx+4]
	mov	esi, esp
	mov	ecx, edx
	call	DWORD PTR __imp_?width@ios_base@std@@QBEHXZ
	cmp	esi, esp
	call	__RTC_CheckEsp
	test	eax, eax
	jle	SHORT $LN17@operator
	mov	eax, DWORD PTR __Ostr$[ebp]
	mov	ecx, DWORD PTR [eax]
	mov	edx, DWORD PTR __Ostr$[ebp]
	add	edx, DWORD PTR [ecx+4]
	mov	esi, esp
	mov	ecx, edx
	call	DWORD PTR __imp_?width@ios_base@std@@QBEHXZ
	cmp	esi, esp
	call	__RTC_CheckEsp
	cmp	eax, DWORD PTR __Count$[ebp]
	jle	SHORT $LN17@operator
	mov	eax, DWORD PTR __Ostr$[ebp]
	mov	ecx, DWORD PTR [eax]
	mov	edx, DWORD PTR __Ostr$[ebp]
	add	edx, DWORD PTR [ecx+4]
	mov	esi, esp
	mov	ecx, edx
	call	DWORD PTR __imp_?width@ios_base@std@@QBEHXZ
	cmp	esi, esp
	call	__RTC_CheckEsp
	sub	eax, DWORD PTR __Count$[ebp]
	mov	DWORD PTR tv134[ebp], eax
	jmp	SHORT $LN18@operator
$LN17@operator:
	mov	DWORD PTR tv134[ebp], 0
$LN18@operator:
	mov	eax, DWORD PTR tv134[ebp]
	mov	DWORD PTR __Pad$[ebp], eax

; 748  : 	const typename _Myos::sentry _Ok(_Ostr);

	mov	eax, DWORD PTR __Ostr$[ebp]
	push	eax
	lea	ecx, DWORD PTR __Ok$[ebp]
	call	??0sentry@?$basic_ostream@DU?$char_traits@D@std@@@std@@QAE@AAV12@@Z ; std::basic_ostream<char,std::char_traits<char> >::sentry::sentry
	mov	DWORD PTR __$EHRec$[ebp+12], 0

; 749  : 
; 750  : 	if (!_Ok)

	lea	ecx, DWORD PTR __Ok$[ebp]
	call	??Bsentry@?$basic_ostream@DU?$char_traits@D@std@@@std@@QBE_NXZ ; std::basic_ostream<char,std::char_traits<char> >::sentry::operator bool
	movzx	eax, al
	test	eax, eax
	jne	SHORT $LN14@operator

; 751  : 		_State |= ios_base::badbit;

	mov	eax, DWORD PTR __State$[ebp]
	or	eax, 4
	mov	DWORD PTR __State$[ebp], eax

; 752  : 	else

	jmp	$LN13@operator
$LN14@operator:

; 753  : 		{	// state okay, insert
; 754  : 		_TRY_IO_BEGIN

	mov	BYTE PTR __$EHRec$[ebp+12], 1

; 755  : 		if ((_Ostr.flags() & ios_base::adjustfield) != ios_base::left)

	mov	eax, DWORD PTR __Ostr$[ebp]
	mov	ecx, DWORD PTR [eax]
	mov	edx, DWORD PTR __Ostr$[ebp]
	add	edx, DWORD PTR [ecx+4]
	mov	esi, esp
	mov	ecx, edx
	call	DWORD PTR __imp_?flags@ios_base@std@@QBEHXZ
	cmp	esi, esp
	call	__RTC_CheckEsp
	mov	DWORD PTR tv136[ebp], eax
	mov	eax, DWORD PTR tv136[ebp]
	and	eax, 448				; 000001c0H
	cmp	eax, 64					; 00000040H
	je	$LN11@operator
	jmp	SHORT $LN10@operator
$LN9@operator:

; 756  : 			for (; 0 < _Pad; --_Pad)	// pad on left

	mov	eax, DWORD PTR __Pad$[ebp]
	sub	eax, 1
	mov	DWORD PTR __Pad$[ebp], eax
$LN10@operator:
	cmp	DWORD PTR __Pad$[ebp], 0
	jle	$LN11@operator

; 757  : 				if (_Traits::eq_int_type(_Traits::eof(),
; 758  : 					_Ostr.rdbuf()->sputc(_Ostr.fill())))

	mov	eax, DWORD PTR __Ostr$[ebp]
	mov	ecx, DWORD PTR [eax]
	mov	edx, DWORD PTR __Ostr$[ebp]
	add	edx, DWORD PTR [ecx+4]
	mov	esi, esp
	mov	ecx, edx
	call	DWORD PTR __imp_?fill@?$basic_ios@DU?$char_traits@D@std@@@std@@QBEDXZ
	cmp	esi, esp
	call	__RTC_CheckEsp
	mov	BYTE PTR tv282[ebp], al
	mov	eax, DWORD PTR __Ostr$[ebp]
	mov	ecx, DWORD PTR [eax]
	mov	edx, DWORD PTR __Ostr$[ebp]
	add	edx, DWORD PTR [ecx+4]
	mov	esi, esp
	mov	ecx, edx
	call	DWORD PTR __imp_?rdbuf@?$basic_ios@DU?$char_traits@D@std@@@std@@QBEPAV?$basic_streambuf@DU?$char_traits@D@std@@@2@XZ
	cmp	esi, esp
	call	__RTC_CheckEsp
	mov	DWORD PTR tv283[ebp], eax
	mov	esi, esp
	movzx	eax, BYTE PTR tv282[ebp]
	push	eax
	mov	ecx, DWORD PTR tv283[ebp]
	call	DWORD PTR __imp_?sputc@?$basic_streambuf@DU?$char_traits@D@std@@@std@@QAEHD@Z
	cmp	esi, esp
	call	__RTC_CheckEsp
	mov	DWORD PTR tv284[ebp], eax
	mov	ecx, DWORD PTR tv284[ebp]
	mov	DWORD PTR $T107964[ebp], ecx
	mov	esi, esp
	call	DWORD PTR __imp_?eof@?$char_traits@D@std@@SAHXZ
	cmp	esi, esp
	call	__RTC_CheckEsp
	mov	DWORD PTR tv285[ebp], eax
	mov	edx, DWORD PTR tv285[ebp]
	mov	DWORD PTR $T107965[ebp], edx
	mov	esi, esp
	lea	eax, DWORD PTR $T107964[ebp]
	push	eax
	lea	ecx, DWORD PTR $T107965[ebp]
	push	ecx
	call	DWORD PTR __imp_?eq_int_type@?$char_traits@D@std@@SA_NABH0@Z
	add	esp, 8
	cmp	esi, esp
	call	__RTC_CheckEsp
	mov	BYTE PTR tv286[ebp], al
	movzx	edx, BYTE PTR tv286[ebp]
	test	edx, edx
	je	SHORT $LN7@operator

; 759  : 					{	// insertion failed, quit
; 760  : 					_State |= ios_base::badbit;

	mov	eax, DWORD PTR __State$[ebp]
	or	eax, 4
	mov	DWORD PTR __State$[ebp], eax

; 761  : 					break;

	jmp	SHORT $LN11@operator
$LN7@operator:

; 762  : 					}
; 763  : 
; 764  : 		if (_State == ios_base::goodbit

	jmp	$LN9@operator
$LN11@operator:

; 765  : 			&& _Ostr.rdbuf()->sputn(_Val, _Count) != _Count)

	cmp	DWORD PTR __State$[ebp], 0
	jne	SHORT $LN6@operator
	mov	eax, DWORD PTR __Ostr$[ebp]
	mov	ecx, DWORD PTR [eax]
	mov	edx, DWORD PTR __Ostr$[ebp]
	add	edx, DWORD PTR [ecx+4]
	mov	esi, esp
	mov	ecx, edx
	call	DWORD PTR __imp_?rdbuf@?$basic_ios@DU?$char_traits@D@std@@@std@@QBEPAV?$basic_streambuf@DU?$char_traits@D@std@@@2@XZ
	cmp	esi, esp
	call	__RTC_CheckEsp
	mov	DWORD PTR tv287[ebp], eax
	mov	esi, esp
	mov	eax, DWORD PTR __Count$[ebp]
	push	eax
	mov	ecx, DWORD PTR __Val$[ebp]
	push	ecx
	mov	ecx, DWORD PTR tv287[ebp]
	call	DWORD PTR __imp_?sputn@?$basic_streambuf@DU?$char_traits@D@std@@@std@@QAEHPBDH@Z
	cmp	esi, esp
	call	__RTC_CheckEsp
	mov	DWORD PTR tv288[ebp], eax
	mov	edx, DWORD PTR tv288[ebp]
	cmp	edx, DWORD PTR __Count$[ebp]
	je	SHORT $LN6@operator

; 766  : 			_State |= ios_base::badbit;

	mov	eax, DWORD PTR __State$[ebp]
	or	eax, 4
	mov	DWORD PTR __State$[ebp], eax
$LN6@operator:

; 767  : 
; 768  : 		if (_State == ios_base::goodbit)

	cmp	DWORD PTR __State$[ebp], 0
	jne	$LN5@operator
	jmp	SHORT $LN4@operator
$LN3@operator:

; 769  : 			for (; 0 < _Pad; --_Pad)	// pad on right

	mov	eax, DWORD PTR __Pad$[ebp]
	sub	eax, 1
	mov	DWORD PTR __Pad$[ebp], eax
$LN4@operator:
	cmp	DWORD PTR __Pad$[ebp], 0
	jle	$LN5@operator

; 770  : 				if (_Traits::eq_int_type(_Traits::eof(),
; 771  : 					_Ostr.rdbuf()->sputc(_Ostr.fill())))

	mov	eax, DWORD PTR __Ostr$[ebp]
	mov	ecx, DWORD PTR [eax]
	mov	edx, DWORD PTR __Ostr$[ebp]
	add	edx, DWORD PTR [ecx+4]
	mov	esi, esp
	mov	ecx, edx
	call	DWORD PTR __imp_?fill@?$basic_ios@DU?$char_traits@D@std@@@std@@QBEDXZ
	cmp	esi, esp
	call	__RTC_CheckEsp
	mov	BYTE PTR tv289[ebp], al
	mov	eax, DWORD PTR __Ostr$[ebp]
	mov	ecx, DWORD PTR [eax]
	mov	edx, DWORD PTR __Ostr$[ebp]
	add	edx, DWORD PTR [ecx+4]
	mov	esi, esp
	mov	ecx, edx
	call	DWORD PTR __imp_?rdbuf@?$basic_ios@DU?$char_traits@D@std@@@std@@QBEPAV?$basic_streambuf@DU?$char_traits@D@std@@@2@XZ
	cmp	esi, esp
	call	__RTC_CheckEsp
	mov	DWORD PTR tv290[ebp], eax
	mov	esi, esp
	movzx	eax, BYTE PTR tv289[ebp]
	push	eax
	mov	ecx, DWORD PTR tv290[ebp]
	call	DWORD PTR __imp_?sputc@?$basic_streambuf@DU?$char_traits@D@std@@@std@@QAEHD@Z
	cmp	esi, esp
	call	__RTC_CheckEsp
	mov	DWORD PTR tv291[ebp], eax
	mov	ecx, DWORD PTR tv291[ebp]
	mov	DWORD PTR $T107966[ebp], ecx
	mov	esi, esp
	call	DWORD PTR __imp_?eof@?$char_traits@D@std@@SAHXZ
	cmp	esi, esp
	call	__RTC_CheckEsp
	mov	DWORD PTR tv292[ebp], eax
	mov	edx, DWORD PTR tv292[ebp]
	mov	DWORD PTR $T107967[ebp], edx
	mov	esi, esp
	lea	eax, DWORD PTR $T107966[ebp]
	push	eax
	lea	ecx, DWORD PTR $T107967[ebp]
	push	ecx
	call	DWORD PTR __imp_?eq_int_type@?$char_traits@D@std@@SA_NABH0@Z
	add	esp, 8
	cmp	esi, esp
	call	__RTC_CheckEsp
	mov	BYTE PTR tv293[ebp], al
	movzx	edx, BYTE PTR tv293[ebp]
	test	edx, edx
	je	SHORT $LN1@operator

; 772  : 					{	// insertion failed, quit
; 773  : 					_State |= ios_base::badbit;

	mov	eax, DWORD PTR __State$[ebp]
	or	eax, 4
	mov	DWORD PTR __State$[ebp], eax

; 774  : 					break;

	jmp	SHORT $LN5@operator
$LN1@operator:

; 775  : 					}

	jmp	$LN3@operator
$LN5@operator:

; 776  : 		_Ostr.width(0);

	mov	esi, esp
	push	0
	mov	eax, DWORD PTR __Ostr$[ebp]
	mov	ecx, DWORD PTR [eax]
	mov	edx, DWORD PTR __Ostr$[ebp]
	add	edx, DWORD PTR [ecx+4]
	mov	ecx, edx
	call	DWORD PTR __imp_?width@ios_base@std@@QAEHH@Z
	cmp	esi, esp
	call	__RTC_CheckEsp
	jmp	SHORT $LN19@operator
__catch$??$?6U?$char_traits@D@std@@@std@@YAAAV?$basic_ostream@DU?$char_traits@D@std@@@0@AAV10@PBD@Z$0:

; 777  : 		_CATCH_IO_(_Ostr)

	mov	esi, esp
	push	1
	push	4
	mov	eax, DWORD PTR __Ostr$[ebp]
	mov	ecx, DWORD PTR [eax]
	mov	edx, DWORD PTR __Ostr$[ebp]
	add	edx, DWORD PTR [ecx+4]
	mov	ecx, edx
	call	DWORD PTR __imp_?setstate@?$basic_ios@DU?$char_traits@D@std@@@std@@QAEXH_N@Z
	cmp	esi, esp
	call	__RTC_CheckEsp
	mov	DWORD PTR __$EHRec$[ebp+12], 0
	mov	eax, $LN13@operator
	ret	0
$LN19@operator:
	mov	DWORD PTR __$EHRec$[ebp+12], 0
$LN13@operator:

; 778  : 		}
; 779  : 
; 780  : 	_Ostr.setstate(_State);

	mov	esi, esp
	push	0
	mov	eax, DWORD PTR __State$[ebp]
	push	eax
	mov	ecx, DWORD PTR __Ostr$[ebp]
	mov	edx, DWORD PTR [ecx]
	mov	ecx, DWORD PTR __Ostr$[ebp]
	add	ecx, DWORD PTR [edx+4]
	call	DWORD PTR __imp_?setstate@?$basic_ios@DU?$char_traits@D@std@@@std@@QAEXH_N@Z
	cmp	esi, esp
	call	__RTC_CheckEsp

; 781  : 	return (_Ostr);

	mov	eax, DWORD PTR __Ostr$[ebp]
	mov	DWORD PTR $T107968[ebp], eax
	mov	DWORD PTR __$EHRec$[ebp+12], -1
	lea	ecx, DWORD PTR __Ok$[ebp]
	call	??1sentry@?$basic_ostream@DU?$char_traits@D@std@@@std@@QAE@XZ ; std::basic_ostream<char,std::char_traits<char> >::sentry::~sentry
	mov	eax, DWORD PTR $T107968[ebp]

; 782  : 	}

	push	edx
	mov	ecx, ebp
	push	eax
	lea	edx, DWORD PTR $LN28@operator
	call	@_RTC_CheckStackVars@8
	pop	eax
	pop	edx
	mov	ecx, DWORD PTR __$EHRec$[ebp+4]
	mov	DWORD PTR fs:0, ecx
	pop	ecx
	pop	edi
	pop	esi
	pop	ebx
	add	esp, 340				; 00000154H
	cmp	ebp, esp
	call	__RTC_CheckEsp
	mov	esp, ebp
	pop	ebp
	ret	0
	npad	3
$LN28@operator:
	DD	1
	DD	$LN27@operator
$LN27@operator:
	DD	-64					; ffffffc0H
	DD	8
	DD	$LN25@operator
$LN25@operator:
	DB	95					; 0000005fH
	DB	79					; 0000004fH
	DB	107					; 0000006bH
	DB	0
_TEXT	ENDS
;	COMDAT text$x
text$x	SEGMENT
__unwindfunclet$??$?6U?$char_traits@D@std@@@std@@YAAAV?$basic_ostream@DU?$char_traits@D@std@@@0@AAV10@PBD@Z$2:
	lea	ecx, DWORD PTR __Ok$[ebp]
	jmp	??1sentry@?$basic_ostream@DU?$char_traits@D@std@@@std@@QAE@XZ ; std::basic_ostream<char,std::char_traits<char> >::sentry::~sentry
__ehhandler$??$?6U?$char_traits@D@std@@@std@@YAAAV?$basic_ostream@DU?$char_traits@D@std@@@0@AAV10@PBD@Z:
	mov	edx, DWORD PTR [esp+8]
	lea	eax, DWORD PTR [edx+12]
	mov	ecx, DWORD PTR [edx-344]
	xor	ecx, eax
	call	@__security_check_cookie@4
	mov	eax, OFFSET __ehfuncinfo$??$?6U?$char_traits@D@std@@@std@@YAAAV?$basic_ostream@DU?$char_traits@D@std@@@0@AAV10@PBD@Z
	jmp	___CxxFrameHandler3
text$x	ENDS
??$?6U?$char_traits@D@std@@@std@@YAAAV?$basic_ostream@DU?$char_traits@D@std@@@0@AAV10@PBD@Z ENDP ; std::operator<<<std::char_traits<char> >
PUBLIC	??1_Sentry_base@?$basic_ostream@DU?$char_traits@D@std@@@std@@QAE@XZ ; std::basic_ostream<char,std::char_traits<char> >::_Sentry_base::~_Sentry_base
PUBLIC	??0_Sentry_base@?$basic_ostream@DU?$char_traits@D@std@@@std@@QAE@AAV12@@Z ; std::basic_ostream<char,std::char_traits<char> >::_Sentry_base::_Sentry_base
EXTRN	__imp_?flush@?$basic_ostream@DU?$char_traits@D@std@@@std@@QAEAAV12@XZ:PROC
EXTRN	__imp_?tie@?$basic_ios@DU?$char_traits@D@std@@@std@@QBEPAV?$basic_ostream@DU?$char_traits@D@std@@@2@XZ:PROC
EXTRN	__imp_?good@ios_base@std@@QBE_NXZ:PROC
;	COMDAT xdata$x
xdata$x	SEGMENT
__unwindtable$??0sentry@?$basic_ostream@DU?$char_traits@D@std@@@std@@QAE@AAV12@@Z DD 0ffffffffH
	DD	FLAT:__unwindfunclet$??0sentry@?$basic_ostream@DU?$char_traits@D@std@@@std@@QAE@AAV12@@Z$0
__ehfuncinfo$??0sentry@?$basic_ostream@DU?$char_traits@D@std@@@std@@QAE@AAV12@@Z DD 019930522H
	DD	01H
	DD	FLAT:__unwindtable$??0sentry@?$basic_ostream@DU?$char_traits@D@std@@@std@@QAE@AAV12@@Z
	DD	2 DUP(00H)
	DD	2 DUP(00H)
	DD	00H
	DD	01H
; Function compile flags: /Odtp /RTCcsu /ZI
xdata$x	ENDS
;	COMDAT ??0sentry@?$basic_ostream@DU?$char_traits@D@std@@@std@@QAE@AAV12@@Z
_TEXT	SEGMENT
_this$ = -20						; size = 4
__$EHRec$ = -12						; size = 12
__Ostr$ = 8						; size = 4
??0sentry@?$basic_ostream@DU?$char_traits@D@std@@@std@@QAE@AAV12@@Z PROC ; std::basic_ostream<char,std::char_traits<char> >::sentry::sentry, COMDAT
; _this$ = ecx

; 95   : 			{	// construct locking and testing stream

	push	ebp
	mov	ebp, esp
	push	-1
	push	__ehhandler$??0sentry@?$basic_ostream@DU?$char_traits@D@std@@@std@@QAE@AAV12@@Z
	mov	eax, DWORD PTR fs:0
	push	eax
	sub	esp, 204				; 000000ccH
	push	ebx
	push	esi
	push	edi
	push	ecx
	lea	edi, DWORD PTR [ebp-216]
	mov	ecx, 51					; 00000033H
	mov	eax, -858993460				; ccccccccH
	rep stosd
	pop	ecx
	mov	eax, DWORD PTR ___security_cookie
	xor	eax, ebp
	push	eax
	lea	eax, DWORD PTR __$EHRec$[ebp]
	mov	DWORD PTR fs:0, eax
	mov	DWORD PTR _this$[ebp], ecx
	mov	eax, DWORD PTR __Ostr$[ebp]
	push	eax
	mov	ecx, DWORD PTR _this$[ebp]
	call	??0_Sentry_base@?$basic_ostream@DU?$char_traits@D@std@@@std@@QAE@AAV12@@Z ; std::basic_ostream<char,std::char_traits<char> >::_Sentry_base::_Sentry_base
	mov	DWORD PTR __$EHRec$[ebp+8], 0

; 96   : 			if (_Ostr.good() && _Ostr.tie() != 0)

	mov	eax, DWORD PTR __Ostr$[ebp]
	mov	ecx, DWORD PTR [eax]
	mov	edx, DWORD PTR __Ostr$[ebp]
	add	edx, DWORD PTR [ecx+4]
	mov	esi, esp
	mov	ecx, edx
	call	DWORD PTR __imp_?good@ios_base@std@@QBE_NXZ
	cmp	esi, esp
	call	__RTC_CheckEsp
	movzx	eax, al
	test	eax, eax
	je	SHORT $LN1@sentry
	mov	eax, DWORD PTR __Ostr$[ebp]
	mov	ecx, DWORD PTR [eax]
	mov	edx, DWORD PTR __Ostr$[ebp]
	add	edx, DWORD PTR [ecx+4]
	mov	esi, esp
	mov	ecx, edx
	call	DWORD PTR __imp_?tie@?$basic_ios@DU?$char_traits@D@std@@@std@@QBEPAV?$basic_ostream@DU?$char_traits@D@std@@@2@XZ
	cmp	esi, esp
	call	__RTC_CheckEsp
	test	eax, eax
	je	SHORT $LN1@sentry

; 97   : 				_Ostr.tie()->flush();

	mov	eax, DWORD PTR __Ostr$[ebp]
	mov	ecx, DWORD PTR [eax]
	mov	edx, DWORD PTR __Ostr$[ebp]
	add	edx, DWORD PTR [ecx+4]
	mov	esi, esp
	mov	ecx, edx
	call	DWORD PTR __imp_?tie@?$basic_ios@DU?$char_traits@D@std@@@std@@QBEPAV?$basic_ostream@DU?$char_traits@D@std@@@2@XZ
	cmp	esi, esp
	call	__RTC_CheckEsp
	mov	esi, esp
	mov	ecx, eax
	call	DWORD PTR __imp_?flush@?$basic_ostream@DU?$char_traits@D@std@@@std@@QAEAAV12@XZ
	cmp	esi, esp
	call	__RTC_CheckEsp
$LN1@sentry:

; 98   : 			_Ok = _Ostr.good();	// store test only after flushing tie

	mov	eax, DWORD PTR __Ostr$[ebp]
	mov	ecx, DWORD PTR [eax]
	mov	edx, DWORD PTR __Ostr$[ebp]
	add	edx, DWORD PTR [ecx+4]
	mov	esi, esp
	mov	ecx, edx
	call	DWORD PTR __imp_?good@ios_base@std@@QBE_NXZ
	cmp	esi, esp
	call	__RTC_CheckEsp
	mov	ecx, DWORD PTR _this$[ebp]
	mov	BYTE PTR [ecx+4], al

; 99   : 			}

	mov	DWORD PTR __$EHRec$[ebp+8], -1
	mov	eax, DWORD PTR _this$[ebp]
	mov	ecx, DWORD PTR __$EHRec$[ebp]
	mov	DWORD PTR fs:0, ecx
	pop	ecx
	pop	edi
	pop	esi
	pop	ebx
	add	esp, 216				; 000000d8H
	cmp	ebp, esp
	call	__RTC_CheckEsp
	mov	esp, ebp
	pop	ebp
	ret	4
_TEXT	ENDS
;	COMDAT text$x
text$x	SEGMENT
__unwindfunclet$??0sentry@?$basic_ostream@DU?$char_traits@D@std@@@std@@QAE@AAV12@@Z$0:
	mov	ecx, DWORD PTR _this$[ebp]
	jmp	??1_Sentry_base@?$basic_ostream@DU?$char_traits@D@std@@@std@@QAE@XZ ; std::basic_ostream<char,std::char_traits<char> >::_Sentry_base::~_Sentry_base
__ehhandler$??0sentry@?$basic_ostream@DU?$char_traits@D@std@@@std@@QAE@AAV12@@Z:
	mov	edx, DWORD PTR [esp+8]
	lea	eax, DWORD PTR [edx+12]
	mov	ecx, DWORD PTR [edx-220]
	xor	ecx, eax
	call	@__security_check_cookie@4
	mov	eax, OFFSET __ehfuncinfo$??0sentry@?$basic_ostream@DU?$char_traits@D@std@@@std@@QAE@AAV12@@Z
	jmp	___CxxFrameHandler3
text$x	ENDS
??0sentry@?$basic_ostream@DU?$char_traits@D@std@@@std@@QAE@AAV12@@Z ENDP ; std::basic_ostream<char,std::char_traits<char> >::sentry::sentry
EXTRN	__imp_?_Osfx@?$basic_ostream@DU?$char_traits@D@std@@@std@@QAEXXZ:PROC
EXTRN	__imp_?uncaught_exception@std@@YA_NXZ:PROC
;	COMDAT xdata$x
xdata$x	SEGMENT
__unwindtable$??1sentry@?$basic_ostream@DU?$char_traits@D@std@@@std@@QAE@XZ DD 0ffffffffH
	DD	FLAT:__unwindfunclet$??1sentry@?$basic_ostream@DU?$char_traits@D@std@@@std@@QAE@XZ$0
__ehfuncinfo$??1sentry@?$basic_ostream@DU?$char_traits@D@std@@@std@@QAE@XZ DD 019930522H
	DD	01H
	DD	FLAT:__unwindtable$??1sentry@?$basic_ostream@DU?$char_traits@D@std@@@std@@QAE@XZ
	DD	2 DUP(00H)
	DD	2 DUP(00H)
	DD	00H
	DD	01H
; Function compile flags: /Odtp /RTCcsu /ZI
xdata$x	ENDS
;	COMDAT ??1sentry@?$basic_ostream@DU?$char_traits@D@std@@@std@@QAE@XZ
_TEXT	SEGMENT
_this$ = -20						; size = 4
__$EHRec$ = -12						; size = 12
??1sentry@?$basic_ostream@DU?$char_traits@D@std@@@std@@QAE@XZ PROC ; std::basic_ostream<char,std::char_traits<char> >::sentry::~sentry, COMDAT
; _this$ = ecx

; 102  : 			{	// destroy the object

	push	ebp
	mov	ebp, esp
	push	-1
	push	__ehhandler$??1sentry@?$basic_ostream@DU?$char_traits@D@std@@@std@@QAE@XZ
	mov	eax, DWORD PTR fs:0
	push	eax
	sub	esp, 204				; 000000ccH
	push	ebx
	push	esi
	push	edi
	push	ecx
	lea	edi, DWORD PTR [ebp-216]
	mov	ecx, 51					; 00000033H
	mov	eax, -858993460				; ccccccccH
	rep stosd
	pop	ecx
	mov	eax, DWORD PTR ___security_cookie
	xor	eax, ebp
	push	eax
	lea	eax, DWORD PTR __$EHRec$[ebp]
	mov	DWORD PTR fs:0, eax
	mov	DWORD PTR _this$[ebp], ecx
	mov	DWORD PTR __$EHRec$[ebp+8], 0

; 103  : 
; 104  :  #if _HAS_EXCEPTIONS
; 105  : 			if (!_XSTD uncaught_exception())

	mov	esi, esp
	call	DWORD PTR __imp_?uncaught_exception@std@@YA_NXZ
	cmp	esi, esp
	call	__RTC_CheckEsp
	movzx	eax, al
	test	eax, eax
	jne	SHORT $LN2@sentry@2

; 106  : 				this->_Myostr._Osfx();

	mov	esi, esp
	mov	eax, DWORD PTR _this$[ebp]
	mov	ecx, DWORD PTR [eax]
	call	DWORD PTR __imp_?_Osfx@?$basic_ostream@DU?$char_traits@D@std@@@std@@QAEXXZ
	cmp	esi, esp
	call	__RTC_CheckEsp
$LN2@sentry@2:

; 107  : 			}

	mov	DWORD PTR __$EHRec$[ebp+8], -1
	mov	ecx, DWORD PTR _this$[ebp]
	call	??1_Sentry_base@?$basic_ostream@DU?$char_traits@D@std@@@std@@QAE@XZ ; std::basic_ostream<char,std::char_traits<char> >::_Sentry_base::~_Sentry_base
	mov	ecx, DWORD PTR __$EHRec$[ebp]
	mov	DWORD PTR fs:0, ecx
	pop	ecx
	pop	edi
	pop	esi
	pop	ebx
	add	esp, 216				; 000000d8H
	cmp	ebp, esp
	call	__RTC_CheckEsp
	mov	esp, ebp
	pop	ebp
	ret	0
_TEXT	ENDS
;	COMDAT text$x
text$x	SEGMENT
__unwindfunclet$??1sentry@?$basic_ostream@DU?$char_traits@D@std@@@std@@QAE@XZ$0:
	mov	ecx, DWORD PTR _this$[ebp]
	jmp	??1_Sentry_base@?$basic_ostream@DU?$char_traits@D@std@@@std@@QAE@XZ ; std::basic_ostream<char,std::char_traits<char> >::_Sentry_base::~_Sentry_base
__ehhandler$??1sentry@?$basic_ostream@DU?$char_traits@D@std@@@std@@QAE@XZ:
	mov	edx, DWORD PTR [esp+8]
	lea	eax, DWORD PTR [edx+12]
	mov	ecx, DWORD PTR [edx-220]
	xor	ecx, eax
	call	@__security_check_cookie@4
	mov	eax, OFFSET __ehfuncinfo$??1sentry@?$basic_ostream@DU?$char_traits@D@std@@@std@@QAE@XZ
	jmp	___CxxFrameHandler3
text$x	ENDS
??1sentry@?$basic_ostream@DU?$char_traits@D@std@@@std@@QAE@XZ ENDP ; std::basic_ostream<char,std::char_traits<char> >::sentry::~sentry
; Function compile flags: /Odtp /RTCcsu /ZI
;	COMDAT ??Bsentry@?$basic_ostream@DU?$char_traits@D@std@@@std@@QBE_NXZ
_TEXT	SEGMENT
_this$ = -8						; size = 4
??Bsentry@?$basic_ostream@DU?$char_traits@D@std@@@std@@QBE_NXZ PROC ; std::basic_ostream<char,std::char_traits<char> >::sentry::operator bool, COMDAT
; _this$ = ecx

; 115  : 			{	// test if stream state okay

	push	ebp
	mov	ebp, esp
	sub	esp, 204				; 000000ccH
	push	ebx
	push	esi
	push	edi
	push	ecx
	lea	edi, DWORD PTR [ebp-204]
	mov	ecx, 51					; 00000033H
	mov	eax, -858993460				; ccccccccH
	rep stosd
	pop	ecx
	mov	DWORD PTR _this$[ebp], ecx

; 116  : 			return (_Ok);

	mov	eax, DWORD PTR _this$[ebp]
	mov	al, BYTE PTR [eax+4]

; 117  : 			}

	pop	edi
	pop	esi
	pop	ebx
	mov	esp, ebp
	pop	ebp
	ret	0
??Bsentry@?$basic_ostream@DU?$char_traits@D@std@@@std@@QBE_NXZ ENDP ; std::basic_ostream<char,std::char_traits<char> >::sentry::operator bool
_TEXT	ENDS
EXTRN	__imp_?_Lock@?$basic_streambuf@DU?$char_traits@D@std@@@std@@QAEXXZ:PROC
; Function compile flags: /Odtp /RTCcsu /ZI
;	COMDAT ??0_Sentry_base@?$basic_ostream@DU?$char_traits@D@std@@@std@@QAE@AAV12@@Z
_TEXT	SEGMENT
_this$ = -8						; size = 4
__Ostr$ = 8						; size = 4
??0_Sentry_base@?$basic_ostream@DU?$char_traits@D@std@@@std@@QAE@AAV12@@Z PROC ; std::basic_ostream<char,std::char_traits<char> >::_Sentry_base::_Sentry_base, COMDAT
; _this$ = ecx

; 75   : 			{	// lock the stream buffer, if there

	push	ebp
	mov	ebp, esp
	sub	esp, 204				; 000000ccH
	push	ebx
	push	esi
	push	edi
	push	ecx
	lea	edi, DWORD PTR [ebp-204]
	mov	ecx, 51					; 00000033H
	mov	eax, -858993460				; ccccccccH
	rep stosd
	pop	ecx
	mov	DWORD PTR _this$[ebp], ecx
	mov	eax, DWORD PTR _this$[ebp]
	mov	ecx, DWORD PTR __Ostr$[ebp]
	mov	DWORD PTR [eax], ecx

; 76   : 			if (_Myostr.rdbuf() != 0)

	mov	eax, DWORD PTR _this$[ebp]
	mov	ecx, DWORD PTR [eax]
	mov	edx, DWORD PTR [ecx]
	mov	eax, DWORD PTR _this$[ebp]
	mov	ecx, DWORD PTR [eax]
	add	ecx, DWORD PTR [edx+4]
	mov	esi, esp
	call	DWORD PTR __imp_?rdbuf@?$basic_ios@DU?$char_traits@D@std@@@std@@QBEPAV?$basic_streambuf@DU?$char_traits@D@std@@@2@XZ
	cmp	esi, esp
	call	__RTC_CheckEsp
	test	eax, eax
	je	SHORT $LN2@Sentry_bas

; 77   : 				_Myostr.rdbuf()->_Lock();

	mov	eax, DWORD PTR _this$[ebp]
	mov	ecx, DWORD PTR [eax]
	mov	edx, DWORD PTR [ecx]
	mov	eax, DWORD PTR _this$[ebp]
	mov	ecx, DWORD PTR [eax]
	add	ecx, DWORD PTR [edx+4]
	mov	esi, esp
	call	DWORD PTR __imp_?rdbuf@?$basic_ios@DU?$char_traits@D@std@@@std@@QBEPAV?$basic_streambuf@DU?$char_traits@D@std@@@2@XZ
	cmp	esi, esp
	call	__RTC_CheckEsp
	mov	esi, esp
	mov	ecx, eax
	call	DWORD PTR __imp_?_Lock@?$basic_streambuf@DU?$char_traits@D@std@@@std@@QAEXXZ
	cmp	esi, esp
	call	__RTC_CheckEsp
$LN2@Sentry_bas:

; 78   : 			}

	mov	eax, DWORD PTR _this$[ebp]
	pop	edi
	pop	esi
	pop	ebx
	add	esp, 204				; 000000ccH
	cmp	ebp, esp
	call	__RTC_CheckEsp
	mov	esp, ebp
	pop	ebp
	ret	4
??0_Sentry_base@?$basic_ostream@DU?$char_traits@D@std@@@std@@QAE@AAV12@@Z ENDP ; std::basic_ostream<char,std::char_traits<char> >::_Sentry_base::_Sentry_base
_TEXT	ENDS
EXTRN	__imp_?_Unlock@?$basic_streambuf@DU?$char_traits@D@std@@@std@@QAEXXZ:PROC
; Function compile flags: /Odtp /RTCcsu /ZI
;	COMDAT ??1_Sentry_base@?$basic_ostream@DU?$char_traits@D@std@@@std@@QAE@XZ
_TEXT	SEGMENT
_this$ = -8						; size = 4
??1_Sentry_base@?$basic_ostream@DU?$char_traits@D@std@@@std@@QAE@XZ PROC ; std::basic_ostream<char,std::char_traits<char> >::_Sentry_base::~_Sentry_base, COMDAT
; _this$ = ecx

; 81   : 			{	// destroy after unlocking

	push	ebp
	mov	ebp, esp
	sub	esp, 204				; 000000ccH
	push	ebx
	push	esi
	push	edi
	push	ecx
	lea	edi, DWORD PTR [ebp-204]
	mov	ecx, 51					; 00000033H
	mov	eax, -858993460				; ccccccccH
	rep stosd
	pop	ecx
	mov	DWORD PTR _this$[ebp], ecx

; 82   : 			if (_Myostr.rdbuf() != 0)

	mov	eax, DWORD PTR _this$[ebp]
	mov	ecx, DWORD PTR [eax]
	mov	edx, DWORD PTR [ecx]
	mov	eax, DWORD PTR _this$[ebp]
	mov	ecx, DWORD PTR [eax]
	add	ecx, DWORD PTR [edx+4]
	mov	esi, esp
	call	DWORD PTR __imp_?rdbuf@?$basic_ios@DU?$char_traits@D@std@@@std@@QBEPAV?$basic_streambuf@DU?$char_traits@D@std@@@2@XZ
	cmp	esi, esp
	call	__RTC_CheckEsp
	test	eax, eax
	je	SHORT $LN2@Sentry_bas@2

; 83   : 				_Myostr.rdbuf()->_Unlock();

	mov	eax, DWORD PTR _this$[ebp]
	mov	ecx, DWORD PTR [eax]
	mov	edx, DWORD PTR [ecx]
	mov	eax, DWORD PTR _this$[ebp]
	mov	ecx, DWORD PTR [eax]
	add	ecx, DWORD PTR [edx+4]
	mov	esi, esp
	call	DWORD PTR __imp_?rdbuf@?$basic_ios@DU?$char_traits@D@std@@@std@@QBEPAV?$basic_streambuf@DU?$char_traits@D@std@@@2@XZ
	cmp	esi, esp
	call	__RTC_CheckEsp
	mov	esi, esp
	mov	ecx, eax
	call	DWORD PTR __imp_?_Unlock@?$basic_streambuf@DU?$char_traits@D@std@@@std@@QAEXXZ
	cmp	esi, esp
	call	__RTC_CheckEsp
$LN2@Sentry_bas@2:

; 84   : 			}

	pop	edi
	pop	esi
	pop	ebx
	add	esp, 204				; 000000ccH
	cmp	ebp, esp
	call	__RTC_CheckEsp
	mov	esp, ebp
	pop	ebp
	ret	0
??1_Sentry_base@?$basic_ostream@DU?$char_traits@D@std@@@std@@QAE@XZ ENDP ; std::basic_ostream<char,std::char_traits<char> >::_Sentry_base::~_Sentry_base
_TEXT	ENDS
END
