; Listing generated by Microsoft (R) Optimizing Compiler Version 15.00.30729.01 

	TITLE	c:\Users\CriuS\Documents\Visual Studio 2008\Projects\DRAMsimIIhg\src\fbdChannel.cpp
	.686P
	.XMM
	include listing.inc
	.model	flat

INCLUDELIB MSVCRTD
INCLUDELIB OLDNAMES

PUBLIC	??_C@_0P@GHFPNOJB@bad?5allocation?$AA@		; `string'
PUBLIC	?_Value@?$_Is_swap_move@U_Swap_move_tag@std@@@std@@2_NB ; std::_Is_swap_move<std::_Swap_move_tag>::_Value
PUBLIC	?value@integral_c_tag@mpl@boost@@2HB		; boost::mpl::integral_c_tag::value
PUBLIC	?value@?$bool_@$00@mpl@boost@@2_NB		; boost::mpl::bool_<1>::value
PUBLIC	?value@?$bool_@$0A@@mpl@boost@@2_NB		; boost::mpl::bool_<0>::value
PUBLIC	?collate@?$_Locbase@H@std@@2HB			; std::_Locbase<int>::collate
PUBLIC	?ctype@?$_Locbase@H@std@@2HB			; std::_Locbase<int>::ctype
PUBLIC	?monetary@?$_Locbase@H@std@@2HB			; std::_Locbase<int>::monetary
PUBLIC	?numeric@?$_Locbase@H@std@@2HB			; std::_Locbase<int>::numeric
PUBLIC	?time@?$_Locbase@H@std@@2HB			; std::_Locbase<int>::time
PUBLIC	?messages@?$_Locbase@H@std@@2HB			; std::_Locbase<int>::messages
PUBLIC	?all@?$_Locbase@H@std@@2HB			; std::_Locbase<int>::all
PUBLIC	?none@?$_Locbase@H@std@@2HB			; std::_Locbase<int>::none
PUBLIC	?skipws@?$_Iosb@H@std@@2W4_Fmtflags@12@B	; std::_Iosb<int>::skipws
PUBLIC	?unitbuf@?$_Iosb@H@std@@2W4_Fmtflags@12@B	; std::_Iosb<int>::unitbuf
PUBLIC	?uppercase@?$_Iosb@H@std@@2W4_Fmtflags@12@B	; std::_Iosb<int>::uppercase
PUBLIC	?showbase@?$_Iosb@H@std@@2W4_Fmtflags@12@B	; std::_Iosb<int>::showbase
PUBLIC	?showpoint@?$_Iosb@H@std@@2W4_Fmtflags@12@B	; std::_Iosb<int>::showpoint
PUBLIC	?showpos@?$_Iosb@H@std@@2W4_Fmtflags@12@B	; std::_Iosb<int>::showpos
PUBLIC	?left@?$_Iosb@H@std@@2W4_Fmtflags@12@B		; std::_Iosb<int>::left
PUBLIC	?right@?$_Iosb@H@std@@2W4_Fmtflags@12@B		; std::_Iosb<int>::right
PUBLIC	?internal@?$_Iosb@H@std@@2W4_Fmtflags@12@B	; std::_Iosb<int>::internal
PUBLIC	?dec@?$_Iosb@H@std@@2W4_Fmtflags@12@B		; std::_Iosb<int>::dec
PUBLIC	?oct@?$_Iosb@H@std@@2W4_Fmtflags@12@B		; std::_Iosb<int>::oct
PUBLIC	?hex@?$_Iosb@H@std@@2W4_Fmtflags@12@B		; std::_Iosb<int>::hex
PUBLIC	?scientific@?$_Iosb@H@std@@2W4_Fmtflags@12@B	; std::_Iosb<int>::scientific
PUBLIC	?fixed@?$_Iosb@H@std@@2W4_Fmtflags@12@B		; std::_Iosb<int>::fixed
PUBLIC	?hexfloat@?$_Iosb@H@std@@2W4_Fmtflags@12@B	; std::_Iosb<int>::hexfloat
PUBLIC	?boolalpha@?$_Iosb@H@std@@2W4_Fmtflags@12@B	; std::_Iosb<int>::boolalpha
PUBLIC	?_Stdio@?$_Iosb@H@std@@2W4_Fmtflags@12@B	; std::_Iosb<int>::_Stdio
PUBLIC	?adjustfield@?$_Iosb@H@std@@2W4_Fmtflags@12@B	; std::_Iosb<int>::adjustfield
PUBLIC	?basefield@?$_Iosb@H@std@@2W4_Fmtflags@12@B	; std::_Iosb<int>::basefield
PUBLIC	?floatfield@?$_Iosb@H@std@@2W4_Fmtflags@12@B	; std::_Iosb<int>::floatfield
PUBLIC	?goodbit@?$_Iosb@H@std@@2W4_Iostate@12@B	; std::_Iosb<int>::goodbit
PUBLIC	?eofbit@?$_Iosb@H@std@@2W4_Iostate@12@B		; std::_Iosb<int>::eofbit
PUBLIC	?failbit@?$_Iosb@H@std@@2W4_Iostate@12@B	; std::_Iosb<int>::failbit
PUBLIC	?badbit@?$_Iosb@H@std@@2W4_Iostate@12@B		; std::_Iosb<int>::badbit
PUBLIC	?_Hardfail@?$_Iosb@H@std@@2W4_Iostate@12@B	; std::_Iosb<int>::_Hardfail
PUBLIC	?in@?$_Iosb@H@std@@2W4_Openmode@12@B		; std::_Iosb<int>::in
PUBLIC	?out@?$_Iosb@H@std@@2W4_Openmode@12@B		; std::_Iosb<int>::out
PUBLIC	?ate@?$_Iosb@H@std@@2W4_Openmode@12@B		; std::_Iosb<int>::ate
PUBLIC	?app@?$_Iosb@H@std@@2W4_Openmode@12@B		; std::_Iosb<int>::app
PUBLIC	?trunc@?$_Iosb@H@std@@2W4_Openmode@12@B		; std::_Iosb<int>::trunc
PUBLIC	?_Nocreate@?$_Iosb@H@std@@2W4_Openmode@12@B	; std::_Iosb<int>::_Nocreate
PUBLIC	?_Noreplace@?$_Iosb@H@std@@2W4_Openmode@12@B	; std::_Iosb<int>::_Noreplace
PUBLIC	?binary@?$_Iosb@H@std@@2W4_Openmode@12@B	; std::_Iosb<int>::binary
PUBLIC	?beg@?$_Iosb@H@std@@2W4_Seekdir@12@B		; std::_Iosb<int>::beg
PUBLIC	?cur@?$_Iosb@H@std@@2W4_Seekdir@12@B		; std::_Iosb<int>::cur
PUBLIC	?end@?$_Iosb@H@std@@2W4_Seekdir@12@B		; std::_Iosb<int>::end
PUBLIC	?is_integral@?$integer_traits_base@_N$0A@$00@detail@boost@@2_NB ; boost::detail::integer_traits_base<bool,0,1>::is_integral
PUBLIC	?const_min@?$integer_traits_base@_N$0A@$00@detail@boost@@2_NB ; boost::detail::integer_traits_base<bool,0,1>::const_min
PUBLIC	?const_max@?$integer_traits_base@_N$0A@$00@detail@boost@@2_NB ; boost::detail::integer_traits_base<bool,0,1>::const_max
PUBLIC	?is_integral@?$integer_traits_base@D$0?IA@$0HP@@detail@boost@@2_NB ; boost::detail::integer_traits_base<char,-128,127>::is_integral
PUBLIC	?const_min@?$integer_traits_base@D$0?IA@$0HP@@detail@boost@@2DB ; boost::detail::integer_traits_base<char,-128,127>::const_min
PUBLIC	?const_max@?$integer_traits_base@D$0?IA@$0HP@@detail@boost@@2DB ; boost::detail::integer_traits_base<char,-128,127>::const_max
PUBLIC	?is_integral@?$integer_traits_base@C$0?IA@$0HP@@detail@boost@@2_NB ; boost::detail::integer_traits_base<signed char,-128,127>::is_integral
PUBLIC	?const_min@?$integer_traits_base@C$0?IA@$0HP@@detail@boost@@2CB ; boost::detail::integer_traits_base<signed char,-128,127>::const_min
PUBLIC	?const_max@?$integer_traits_base@C$0?IA@$0HP@@detail@boost@@2CB ; boost::detail::integer_traits_base<signed char,-128,127>::const_max
PUBLIC	?is_integral@?$integer_traits_base@E$0A@$0PP@@detail@boost@@2_NB ; boost::detail::integer_traits_base<unsigned char,0,255>::is_integral
PUBLIC	?const_min@?$integer_traits_base@E$0A@$0PP@@detail@boost@@2EB ; boost::detail::integer_traits_base<unsigned char,0,255>::const_min
PUBLIC	?const_max@?$integer_traits_base@E$0A@$0PP@@detail@boost@@2EB ; boost::detail::integer_traits_base<unsigned char,0,255>::const_max
PUBLIC	?is_integral@?$integer_traits_base@_W$0A@$0PPPP@@detail@boost@@2_NB ; boost::detail::integer_traits_base<wchar_t,0,65535>::is_integral
PUBLIC	?const_min@?$integer_traits_base@_W$0A@$0PPPP@@detail@boost@@2_WB ; boost::detail::integer_traits_base<wchar_t,0,65535>::const_min
PUBLIC	?const_max@?$integer_traits_base@_W$0A@$0PPPP@@detail@boost@@2_WB ; boost::detail::integer_traits_base<wchar_t,0,65535>::const_max
PUBLIC	?is_integral@?$integer_traits_base@F$0?IAAA@$0HPPP@@detail@boost@@2_NB ; boost::detail::integer_traits_base<short,-32768,32767>::is_integral
PUBLIC	?const_min@?$integer_traits_base@F$0?IAAA@$0HPPP@@detail@boost@@2FB ; boost::detail::integer_traits_base<short,-32768,32767>::const_min
PUBLIC	?const_max@?$integer_traits_base@F$0?IAAA@$0HPPP@@detail@boost@@2FB ; boost::detail::integer_traits_base<short,-32768,32767>::const_max
PUBLIC	?is_integral@?$integer_traits_base@G$0A@$0PPPP@@detail@boost@@2_NB ; boost::detail::integer_traits_base<unsigned short,0,65535>::is_integral
PUBLIC	?const_min@?$integer_traits_base@G$0A@$0PPPP@@detail@boost@@2GB ; boost::detail::integer_traits_base<unsigned short,0,65535>::const_min
PUBLIC	?const_max@?$integer_traits_base@G$0A@$0PPPP@@detail@boost@@2GB ; boost::detail::integer_traits_base<unsigned short,0,65535>::const_max
PUBLIC	?is_integral@?$integer_traits_base@H$0?IAAAAAAA@$0HPPPPPPP@@detail@boost@@2_NB ; boost::detail::integer_traits_base<int,-2147483648,2147483647>::is_integral
PUBLIC	?const_min@?$integer_traits_base@H$0?IAAAAAAA@$0HPPPPPPP@@detail@boost@@2HB ; boost::detail::integer_traits_base<int,-2147483648,2147483647>::const_min
PUBLIC	?const_max@?$integer_traits_base@H$0?IAAAAAAA@$0HPPPPPPP@@detail@boost@@2HB ; boost::detail::integer_traits_base<int,-2147483648,2147483647>::const_max
PUBLIC	?is_integral@?$integer_traits_base@I$0A@$0PPPPPPPP@@detail@boost@@2_NB ; boost::detail::integer_traits_base<unsigned int,0,4294967295>::is_integral
PUBLIC	?const_min@?$integer_traits_base@I$0A@$0PPPPPPPP@@detail@boost@@2IB ; boost::detail::integer_traits_base<unsigned int,0,4294967295>::const_min
PUBLIC	?const_max@?$integer_traits_base@I$0A@$0PPPPPPPP@@detail@boost@@2IB ; boost::detail::integer_traits_base<unsigned int,0,4294967295>::const_max
PUBLIC	?is_integral@?$integer_traits_base@J$0?IAAAAAAA@$0HPPPPPPP@@detail@boost@@2_NB ; boost::detail::integer_traits_base<long,-2147483648,2147483647>::is_integral
PUBLIC	?const_min@?$integer_traits_base@J$0?IAAAAAAA@$0HPPPPPPP@@detail@boost@@2JB ; boost::detail::integer_traits_base<long,-2147483648,2147483647>::const_min
PUBLIC	?const_max@?$integer_traits_base@J$0?IAAAAAAA@$0HPPPPPPP@@detail@boost@@2JB ; boost::detail::integer_traits_base<long,-2147483648,2147483647>::const_max
PUBLIC	?is_integral@?$integer_traits_base@K$0A@$0PPPPPPPP@@detail@boost@@2_NB ; boost::detail::integer_traits_base<unsigned long,0,4294967295>::is_integral
PUBLIC	?const_min@?$integer_traits_base@K$0A@$0PPPPPPPP@@detail@boost@@2KB ; boost::detail::integer_traits_base<unsigned long,0,4294967295>::const_min
PUBLIC	?const_max@?$integer_traits_base@K$0A@$0PPPPPPPP@@detail@boost@@2KB ; boost::detail::integer_traits_base<unsigned long,0,4294967295>::const_max
PUBLIC	?is_integral@?$integer_traits_base@_J$0?IAAAAAAAAAAAAAAA@$0HPPPPPPPPPPPPPPP@@detail@boost@@2_NB ; boost::detail::integer_traits_base<__int64,-9223372036854775808,9223372036854775807>::is_integral
PUBLIC	?const_min@?$integer_traits_base@_J$0?IAAAAAAAAAAAAAAA@$0HPPPPPPPPPPPPPPP@@detail@boost@@2_JB ; boost::detail::integer_traits_base<__int64,-9223372036854775808,9223372036854775807>::const_min
PUBLIC	?const_max@?$integer_traits_base@_J$0?IAAAAAAAAAAAAAAA@$0HPPPPPPPPPPPPPPP@@detail@boost@@2_JB ; boost::detail::integer_traits_base<__int64,-9223372036854775808,9223372036854775807>::const_max
PUBLIC	?is_integral@?$integer_traits_base@_K$0A@$0?0@detail@boost@@2_NB ; boost::detail::integer_traits_base<unsigned __int64,0,-1>::is_integral
PUBLIC	?const_min@?$integer_traits_base@_K$0A@$0?0@detail@boost@@2_KB ; boost::detail::integer_traits_base<unsigned __int64,0,-1>::const_min
PUBLIC	?const_max@?$integer_traits_base@_K$0A@$0?0@detail@boost@@2_KB ; boost::detail::integer_traits_base<unsigned __int64,0,-1>::const_max
PUBLIC	?value@?$ice_or@$0A@$0A@$0A@$0A@$0A@$0A@$0A@@type_traits@boost@@2_NB ; boost::type_traits::ice_or<0,0,0,0,0,0,0>::value
PUBLIC	?value@?$ice_and@$00$00$00$00$00$00$00@type_traits@boost@@2_NB ; boost::type_traits::ice_and<1,1,1,1,1,1,1>::value
PUBLIC	?value@?$ice_not@$00@type_traits@boost@@2_NB	; boost::type_traits::ice_not<1>::value
PUBLIC	?value@?$is_convertible_impl@XX@detail@boost@@2_NB ; boost::detail::is_convertible_impl<void,void>::value
PUBLIC	?value@?$is_convertible_impl@X$$CBX@detail@boost@@2_NB ; boost::detail::is_convertible_impl<void,void const >::value
PUBLIC	?value@?$is_convertible_impl@X$$CCX@detail@boost@@2_NB ; boost::detail::is_convertible_impl<void,void volatile >::value
PUBLIC	?value@?$is_convertible_impl@X$$CDX@detail@boost@@2_NB ; boost::detail::is_convertible_impl<void,void const volatile >::value
PUBLIC	?value@?$is_convertible_impl@$$CBXX@detail@boost@@2_NB ; boost::detail::is_convertible_impl<void const ,void>::value
PUBLIC	?value@?$is_convertible_impl@$$CBX$$CBX@detail@boost@@2_NB ; boost::detail::is_convertible_impl<void const ,void const >::value
PUBLIC	?value@?$is_convertible_impl@$$CBX$$CCX@detail@boost@@2_NB ; boost::detail::is_convertible_impl<void const ,void volatile >::value
PUBLIC	?value@?$is_convertible_impl@$$CBX$$CDX@detail@boost@@2_NB ; boost::detail::is_convertible_impl<void const ,void const volatile >::value
PUBLIC	?value@?$is_convertible_impl@$$CCXX@detail@boost@@2_NB ; boost::detail::is_convertible_impl<void volatile ,void>::value
PUBLIC	?value@?$is_convertible_impl@$$CCX$$CBX@detail@boost@@2_NB ; boost::detail::is_convertible_impl<void volatile ,void const >::value
PUBLIC	?value@?$is_convertible_impl@$$CCX$$CCX@detail@boost@@2_NB ; boost::detail::is_convertible_impl<void volatile ,void volatile >::value
PUBLIC	?value@?$is_convertible_impl@$$CCX$$CDX@detail@boost@@2_NB ; boost::detail::is_convertible_impl<void volatile ,void const volatile >::value
PUBLIC	?value@?$is_convertible_impl@$$CDXX@detail@boost@@2_NB ; boost::detail::is_convertible_impl<void const volatile ,void>::value
PUBLIC	?value@?$is_convertible_impl@$$CDX$$CBX@detail@boost@@2_NB ; boost::detail::is_convertible_impl<void const volatile ,void const >::value
PUBLIC	?value@?$is_convertible_impl@$$CDX$$CCX@detail@boost@@2_NB ; boost::detail::is_convertible_impl<void const volatile ,void volatile >::value
PUBLIC	?value@?$is_convertible_impl@$$CDX$$CDX@detail@boost@@2_NB ; boost::detail::is_convertible_impl<void const volatile ,void const volatile >::value
PUBLIC	?value@type@?$select_by_size@$00@detail@iostreams@boost@@2HB ; boost::iostreams::detail::select_by_size<1>::type::value
PUBLIC	?value@?$select_by_size@$00@detail@iostreams@boost@@2HB ; boost::iostreams::detail::select_by_size<1>::value
PUBLIC	?value@type@?$select_by_size@$01@detail@iostreams@boost@@2HB ; boost::iostreams::detail::select_by_size<2>::type::value
PUBLIC	?value@?$select_by_size@$01@detail@iostreams@boost@@2HB ; boost::iostreams::detail::select_by_size<2>::value
PUBLIC	?value@type@?$select_by_size@$02@detail@iostreams@boost@@2HB ; boost::iostreams::detail::select_by_size<3>::type::value
PUBLIC	?value@?$select_by_size@$02@detail@iostreams@boost@@2HB ; boost::iostreams::detail::select_by_size<3>::value
PUBLIC	?value@type@?$select_by_size@$03@detail@iostreams@boost@@2HB ; boost::iostreams::detail::select_by_size<4>::type::value
PUBLIC	?value@?$select_by_size@$03@detail@iostreams@boost@@2HB ; boost::iostreams::detail::select_by_size<4>::value
PUBLIC	?value@type@?$select_by_size@$04@detail@iostreams@boost@@2HB ; boost::iostreams::detail::select_by_size<5>::type::value
PUBLIC	?value@?$select_by_size@$04@detail@iostreams@boost@@2HB ; boost::iostreams::detail::select_by_size<5>::value
PUBLIC	?value@type@?$select_by_size@$05@detail@iostreams@boost@@2HB ; boost::iostreams::detail::select_by_size<6>::type::value
PUBLIC	?value@?$select_by_size@$05@detail@iostreams@boost@@2HB ; boost::iostreams::detail::select_by_size<6>::value
PUBLIC	?value@type@?$select_by_size@$06@detail@iostreams@boost@@2HB ; boost::iostreams::detail::select_by_size<7>::type::value
PUBLIC	?value@?$select_by_size@$06@detail@iostreams@boost@@2HB ; boost::iostreams::detail::select_by_size<7>::value
PUBLIC	?value@type@?$select_by_size@$07@detail@iostreams@boost@@2HB ; boost::iostreams::detail::select_by_size<8>::type::value
PUBLIC	?value@?$select_by_size@$07@detail@iostreams@boost@@2HB ; boost::iostreams::detail::select_by_size<8>::value
PUBLIC	?value@type@?$select_by_size@$08@detail@iostreams@boost@@2HB ; boost::iostreams::detail::select_by_size<9>::type::value
PUBLIC	?value@?$select_by_size@$08@detail@iostreams@boost@@2HB ; boost::iostreams::detail::select_by_size<9>::value
PUBLIC	?value@type@?$select_by_size@$09@detail@iostreams@boost@@2HB ; boost::iostreams::detail::select_by_size<10>::type::value
PUBLIC	?value@?$select_by_size@$09@detail@iostreams@boost@@2HB ; boost::iostreams::detail::select_by_size<10>::value
PUBLIC	?value@type@?$select_by_size@$0L@@detail@iostreams@boost@@2HB ; boost::iostreams::detail::select_by_size<11>::type::value
PUBLIC	?value@?$select_by_size@$0L@@detail@iostreams@boost@@2HB ; boost::iostreams::detail::select_by_size<11>::value
PUBLIC	?value@type@?$select_by_size@$0M@@detail@iostreams@boost@@2HB ; boost::iostreams::detail::select_by_size<12>::type::value
PUBLIC	?value@?$select_by_size@$0M@@detail@iostreams@boost@@2HB ; boost::iostreams::detail::select_by_size<12>::value
PUBLIC	?value@type@?$select_by_size@$0N@@detail@iostreams@boost@@2HB ; boost::iostreams::detail::select_by_size<13>::type::value
PUBLIC	?value@?$select_by_size@$0N@@detail@iostreams@boost@@2HB ; boost::iostreams::detail::select_by_size<13>::value
PUBLIC	?value@type@?$select_by_size@$0O@@detail@iostreams@boost@@2HB ; boost::iostreams::detail::select_by_size<14>::type::value
PUBLIC	?value@?$select_by_size@$0O@@detail@iostreams@boost@@2HB ; boost::iostreams::detail::select_by_size<14>::value
PUBLIC	?value@type@?$select_by_size@$0P@@detail@iostreams@boost@@2HB ; boost::iostreams::detail::select_by_size<15>::type::value
PUBLIC	?value@?$select_by_size@$0P@@detail@iostreams@boost@@2HB ; boost::iostreams::detail::select_by_size<15>::value
PUBLIC	?value@type@?$select_by_size@$0BA@@detail@iostreams@boost@@2HB ; boost::iostreams::detail::select_by_size<16>::type::value
PUBLIC	?value@?$select_by_size@$0BA@@detail@iostreams@boost@@2HB ; boost::iostreams::detail::select_by_size<16>::value
PUBLIC	?value@type@?$select_by_size@$0BB@@detail@iostreams@boost@@2HB ; boost::iostreams::detail::select_by_size<17>::type::value
PUBLIC	?value@?$select_by_size@$0BB@@detail@iostreams@boost@@2HB ; boost::iostreams::detail::select_by_size<17>::value
PUBLIC	?value@type@?$select_by_size@$0BC@@detail@iostreams@boost@@2HB ; boost::iostreams::detail::select_by_size<18>::type::value
PUBLIC	?value@?$select_by_size@$0BC@@detail@iostreams@boost@@2HB ; boost::iostreams::detail::select_by_size<18>::value
PUBLIC	?value@type@?$select_by_size@$0BD@@detail@iostreams@boost@@2HB ; boost::iostreams::detail::select_by_size<19>::type::value
PUBLIC	?value@?$select_by_size@$0BD@@detail@iostreams@boost@@2HB ; boost::iostreams::detail::select_by_size<19>::value
PUBLIC	?value@type@?$select_by_size@$0BE@@detail@iostreams@boost@@2HB ; boost::iostreams::detail::select_by_size<20>::type::value
PUBLIC	?value@?$select_by_size@$0BE@@detail@iostreams@boost@@2HB ; boost::iostreams::detail::select_by_size<20>::value
PUBLIC	?value@type@?$select_by_size@$0BF@@detail@iostreams@boost@@2HB ; boost::iostreams::detail::select_by_size<21>::type::value
PUBLIC	?value@?$select_by_size@$0BF@@detail@iostreams@boost@@2HB ; boost::iostreams::detail::select_by_size<21>::value
PUBLIC	?value@?$int_@$00@mpl@boost@@2HB		; boost::mpl::int_<1>::value
PUBLIC	?value@?$int_@$01@mpl@boost@@2HB		; boost::mpl::int_<2>::value
PUBLIC	?value@?$int_@$02@mpl@boost@@2HB		; boost::mpl::int_<3>::value
PUBLIC	?value@?$int_@$03@mpl@boost@@2HB		; boost::mpl::int_<4>::value
PUBLIC	?value@?$int_@$04@mpl@boost@@2HB		; boost::mpl::int_<5>::value
PUBLIC	?value@?$int_@$05@mpl@boost@@2HB		; boost::mpl::int_<6>::value
PUBLIC	?value@?$int_@$06@mpl@boost@@2HB		; boost::mpl::int_<7>::value
PUBLIC	?value@?$int_@$07@mpl@boost@@2HB		; boost::mpl::int_<8>::value
PUBLIC	?value@?$int_@$08@mpl@boost@@2HB		; boost::mpl::int_<9>::value
PUBLIC	?value@?$int_@$09@mpl@boost@@2HB		; boost::mpl::int_<10>::value
PUBLIC	?value@?$int_@$0L@@mpl@boost@@2HB		; boost::mpl::int_<11>::value
PUBLIC	?value@?$int_@$0M@@mpl@boost@@2HB		; boost::mpl::int_<12>::value
PUBLIC	?value@?$arg@$0?0@mpl@boost@@2HB		; boost::mpl::arg<-1>::value
PUBLIC	?value@?$arg@$00@mpl@boost@@2HB			; boost::mpl::arg<1>::value
PUBLIC	?value@?$arg@$01@mpl@boost@@2HB			; boost::mpl::arg<2>::value
PUBLIC	?value@?$arg@$02@mpl@boost@@2HB			; boost::mpl::arg<3>::value
PUBLIC	?value@?$arg@$03@mpl@boost@@2HB			; boost::mpl::arg<4>::value
PUBLIC	?value@?$arg@$04@mpl@boost@@2HB			; boost::mpl::arg<5>::value
PUBLIC	?value@?$is_member_function_pointer_impl@X@detail@boost@@2_NB ; boost::detail::is_member_function_pointer_impl<void>::value
PUBLIC	?value@?$is_member_function_pointer_impl@$$CBX@detail@boost@@2_NB ; boost::detail::is_member_function_pointer_impl<void const >::value
PUBLIC	?value@?$is_member_function_pointer_impl@$$CCX@detail@boost@@2_NB ; boost::detail::is_member_function_pointer_impl<void volatile >::value
PUBLIC	?value@?$is_member_function_pointer_impl@$$CDX@detail@boost@@2_NB ; boost::detail::is_member_function_pointer_impl<void const volatile >::value
PUBLIC	?value@?$is_scalar_impl@X@detail@boost@@2_NB	; boost::detail::is_scalar_impl<void>::value
PUBLIC	?value@?$is_scalar_impl@$$CBX@detail@boost@@2_NB ; boost::detail::is_scalar_impl<void const >::value
PUBLIC	?value@?$is_scalar_impl@$$CCX@detail@boost@@2_NB ; boost::detail::is_scalar_impl<void volatile >::value
PUBLIC	?value@?$is_scalar_impl@$$CDX@detail@boost@@2_NB ; boost::detail::is_scalar_impl<void const volatile >::value
PUBLIC	?value@?$is_pod_impl@X@detail@boost@@2_NB	; boost::detail::is_pod_impl<void>::value
PUBLIC	?value@?$is_pod_impl@$$CBX@detail@boost@@2_NB	; boost::detail::is_pod_impl<void const >::value
PUBLIC	?value@?$is_pod_impl@$$CCX@detail@boost@@2_NB	; boost::detail::is_pod_impl<void volatile >::value
PUBLIC	?value@?$is_pod_impl@$$CDX@detail@boost@@2_NB	; boost::detail::is_pod_impl<void const volatile >::value
PUBLIC	?value@?$integral_constant@_N$0A@@tr1@std@@2_NB	; std::tr1::integral_constant<bool,0>::value
PUBLIC	?value@?$integral_constant@_N$00@tr1@std@@2_NB	; std::tr1::integral_constant<bool,1>::value
PUBLIC	?value@?$integral_c@I$0A@@mpl@boost@@2IB	; boost::mpl::integral_c<unsigned int,0>::value
PUBLIC	?value@?$alignment_logic@$07$07@detail@boost@@2IB ; boost::detail::alignment_logic<8,8>::value
PUBLIC	?value@?$alignment_of_impl@Tmax_align@detail@boost@@@detail@boost@@2IB ; boost::detail::alignment_of_impl<boost::detail::max_align>::value
PUBLIC	?value@?$integral_c@I$07@mpl@boost@@2IB		; boost::mpl::integral_c<unsigned int,8>::value
PUBLIC	?value@?$alignment_logic@$00$00@detail@boost@@2IB ; boost::detail::alignment_logic<1,1>::value
PUBLIC	?value@?$alignment_of_impl@D@detail@boost@@2IB	; boost::detail::alignment_of_impl<char>::value
PUBLIC	?value@?$integral_c@I$00@mpl@boost@@2IB		; boost::mpl::integral_c<unsigned int,1>::value
PUBLIC	?value@?$alignment_logic@$01$01@detail@boost@@2IB ; boost::detail::alignment_logic<2,2>::value
PUBLIC	?value@?$alignment_of_impl@F@detail@boost@@2IB	; boost::detail::alignment_of_impl<short>::value
PUBLIC	?value@?$integral_c@I$01@mpl@boost@@2IB		; boost::mpl::integral_c<unsigned int,2>::value
PUBLIC	?value@?$alignment_logic@$03$03@detail@boost@@2IB ; boost::detail::alignment_logic<4,4>::value
PUBLIC	?value@?$alignment_of_impl@H@detail@boost@@2IB	; boost::detail::alignment_of_impl<int>::value
PUBLIC	?value@?$integral_c@I$03@mpl@boost@@2IB		; boost::mpl::integral_c<unsigned int,4>::value
PUBLIC	?value@?$alignment_of_impl@J@detail@boost@@2IB	; boost::detail::alignment_of_impl<long>::value
PUBLIC	?value@?$alignment_of_impl@_J@detail@boost@@2IB	; boost::detail::alignment_of_impl<__int64>::value
PUBLIC	?value@?$alignment_of_impl@T?$lower_alignment@$07@detail@boost@@@detail@boost@@2IB ; boost::detail::alignment_of_impl<boost::detail::lower_alignment<8> >::value
PUBLIC	?value@?$is_aligned@$07$07@detail@boost@@2_NB	; boost::detail::is_aligned<8,8>::value
PUBLIC	?found@?$type_with_alignment_imp@$07@detail@boost@@0IB ; boost::detail::type_with_alignment_imp<8>::found
PUBLIC	?value@?$is_pod_impl@Ua8@align@boost@@@detail@boost@@2_NB ; boost::detail::is_pod_impl<boost::align::a8>::value
PUBLIC	?value@?$is_pod_impl@Ua16@align@boost@@@detail@boost@@2_NB ; boost::detail::is_pod_impl<boost::align::a16>::value
PUBLIC	?value@?$is_pod_impl@Ua32@align@boost@@@detail@boost@@2_NB ; boost::detail::is_pod_impl<boost::align::a32>::value
PUBLIC	?value@?$is_pod_impl@Ua64@align@boost@@@detail@boost@@2_NB ; boost::detail::is_pod_impl<boost::align::a64>::value
PUBLIC	?value@?$is_pod_impl@Ua128@align@boost@@@detail@boost@@2_NB ; boost::detail::is_pod_impl<boost::align::a128>::value
PUBLIC	?value@?$implementation_level@Ucollection_size_type@serialization@boost@@@serialization@boost@@2HB ; boost::serialization::implementation_level<boost::serialization::collection_size_type>::value
PUBLIC	?value@?$implementation_level@V?$vector@_NV?$allocator@_N@std@@@std@@@serialization@boost@@2HB ; boost::serialization::implementation_level<std::vector<bool,std::allocator<bool> > >::value
PUBLIC	?value@?$implementation_level@V?$vector@DV?$allocator@D@std@@@std@@@serialization@boost@@2HB ; boost::serialization::implementation_level<std::vector<char,std::allocator<char> > >::value
PUBLIC	?value@?$implementation_level@V?$vector@CV?$allocator@C@std@@@std@@@serialization@boost@@2HB ; boost::serialization::implementation_level<std::vector<signed char,std::allocator<signed char> > >::value
PUBLIC	?value@?$implementation_level@V?$vector@EV?$allocator@E@std@@@std@@@serialization@boost@@2HB ; boost::serialization::implementation_level<std::vector<unsigned char,std::allocator<unsigned char> > >::value
PUBLIC	?value@?$implementation_level@V?$vector@HV?$allocator@H@std@@@std@@@serialization@boost@@2HB ; boost::serialization::implementation_level<std::vector<int,std::allocator<int> > >::value
PUBLIC	?value@?$implementation_level@V?$vector@IV?$allocator@I@std@@@std@@@serialization@boost@@2HB ; boost::serialization::implementation_level<std::vector<unsigned int,std::allocator<unsigned int> > >::value
PUBLIC	?value@?$implementation_level@V?$vector@JV?$allocator@J@std@@@std@@@serialization@boost@@2HB ; boost::serialization::implementation_level<std::vector<long,std::allocator<long> > >::value
PUBLIC	?value@?$implementation_level@V?$vector@KV?$allocator@K@std@@@std@@@serialization@boost@@2HB ; boost::serialization::implementation_level<std::vector<unsigned long,std::allocator<unsigned long> > >::value
PUBLIC	?value@?$implementation_level@V?$vector@MV?$allocator@M@std@@@std@@@serialization@boost@@2HB ; boost::serialization::implementation_level<std::vector<float,std::allocator<float> > >::value
PUBLIC	?value@?$implementation_level@V?$vector@NV?$allocator@N@std@@@std@@@serialization@boost@@2HB ; boost::serialization::implementation_level<std::vector<double,std::allocator<double> > >::value
PUBLIC	?value@?$implementation_level@V?$vector@GV?$allocator@G@std@@@std@@@serialization@boost@@2HB ; boost::serialization::implementation_level<std::vector<unsigned short,std::allocator<unsigned short> > >::value
PUBLIC	?value@?$implementation_level@V?$vector@FV?$allocator@F@std@@@std@@@serialization@boost@@2HB ; boost::serialization::implementation_level<std::vector<short,std::allocator<short> > >::value
PUBLIC	?value@?$implementation_level@V?$vector@_JV?$allocator@_J@std@@@std@@@serialization@boost@@2HB ; boost::serialization::implementation_level<std::vector<__int64,std::allocator<__int64> > >::value
PUBLIC	?value@?$implementation_level@V?$vector@_KV?$allocator@_K@std@@@std@@@serialization@boost@@2HB ; boost::serialization::implementation_level<std::vector<unsigned __int64,std::allocator<unsigned __int64> > >::value
PUBLIC	?value@?$implementation_level@V?$vector@_WV?$allocator@_W@std@@@std@@@serialization@boost@@2HB ; boost::serialization::implementation_level<std::vector<wchar_t,std::allocator<wchar_t> > >::value
PUBLIC	?has_fixed_range@rand48@boost@@2_NB		; boost::rand48::has_fixed_range
PUBLIC	?min_value@rand48@boost@@2JB			; boost::rand48::min_value
PUBLIC	?max_value@rand48@boost@@2JB			; boost::rand48::max_value
PUBLIC	?has_fixed_range@?$linear_congruential@_K$0FNOOMOGGN@$0L@$0BAAAAAAAAAAAA@$0A@@random@boost@@2_NB ; boost::random::linear_congruential<unsigned __int64,25214903917,11,281474976710656,0>::has_fixed_range
PUBLIC	?min_value@?$linear_congruential@_K$0FNOOMOGGN@$0L@$0BAAAAAAAAAAAA@$0A@@random@boost@@2_KB ; boost::random::linear_congruential<unsigned __int64,25214903917,11,281474976710656,0>::min_value
PUBLIC	?max_value@?$linear_congruential@_K$0FNOOMOGGN@$0L@$0BAAAAAAAAAAAA@$0A@@random@boost@@2_KB ; boost::random::linear_congruential<unsigned __int64,25214903917,11,281474976710656,0>::max_value
PUBLIC	?multiplier@?$linear_congruential@_K$0FNOOMOGGN@$0L@$0BAAAAAAAAAAAA@$0A@@random@boost@@2_KB ; boost::random::linear_congruential<unsigned __int64,25214903917,11,281474976710656,0>::multiplier
PUBLIC	?increment@?$linear_congruential@_K$0FNOOMOGGN@$0L@$0BAAAAAAAAAAAA@$0A@@random@boost@@2_KB ; boost::random::linear_congruential<unsigned __int64,25214903917,11,281474976710656,0>::increment
PUBLIC	?modulus@?$linear_congruential@_K$0FNOOMOGGN@$0L@$0BAAAAAAAAAAAA@$0A@@random@boost@@2_KB ; boost::random::linear_congruential<unsigned __int64,25214903917,11,281474976710656,0>::modulus
PUBLIC	?has_fixed_range@?$linear_congruential@J$0JMEO@$0A@$0HPPPPPKL@$0A@@random@boost@@2_NB ; boost::random::linear_congruential<long,40014,0,2147483563,0>::has_fixed_range
PUBLIC	?min_value@?$linear_congruential@J$0JMEO@$0A@$0HPPPPPKL@$0A@@random@boost@@2JB ; boost::random::linear_congruential<long,40014,0,2147483563,0>::min_value
PUBLIC	?max_value@?$linear_congruential@J$0JMEO@$0A@$0HPPPPPKL@$0A@@random@boost@@2JB ; boost::random::linear_congruential<long,40014,0,2147483563,0>::max_value
PUBLIC	?multiplier@?$linear_congruential@J$0JMEO@$0A@$0HPPPPPKL@$0A@@random@boost@@2JB ; boost::random::linear_congruential<long,40014,0,2147483563,0>::multiplier
PUBLIC	?increment@?$linear_congruential@J$0JMEO@$0A@$0HPPPPPKL@$0A@@random@boost@@2JB ; boost::random::linear_congruential<long,40014,0,2147483563,0>::increment
PUBLIC	?modulus@?$linear_congruential@J$0JMEO@$0A@$0HPPPPPKL@$0A@@random@boost@@2JB ; boost::random::linear_congruential<long,40014,0,2147483563,0>::modulus
PUBLIC	?has_fixed_range@?$linear_congruential@K$0FFG@$0CENGJ@$0KOFCJ@$0A@@random@boost@@2_NB ; boost::random::linear_congruential<unsigned long,1366,150889,714025,0>::has_fixed_range
PUBLIC	?min_value@?$linear_congruential@K$0FFG@$0CENGJ@$0KOFCJ@$0A@@random@boost@@2KB ; boost::random::linear_congruential<unsigned long,1366,150889,714025,0>::min_value
PUBLIC	?max_value@?$linear_congruential@K$0FFG@$0CENGJ@$0KOFCJ@$0A@@random@boost@@2KB ; boost::random::linear_congruential<unsigned long,1366,150889,714025,0>::max_value
PUBLIC	?multiplier@?$linear_congruential@K$0FFG@$0CENGJ@$0KOFCJ@$0A@@random@boost@@2KB ; boost::random::linear_congruential<unsigned long,1366,150889,714025,0>::multiplier
PUBLIC	?increment@?$linear_congruential@K$0FFG@$0CENGJ@$0KOFCJ@$0A@@random@boost@@2KB ; boost::random::linear_congruential<unsigned long,1366,150889,714025,0>::increment
PUBLIC	?modulus@?$linear_congruential@K$0FFG@$0CENGJ@$0KOFCJ@$0A@@random@boost@@2KB ; boost::random::linear_congruential<unsigned long,1366,150889,714025,0>::modulus
PUBLIC	?is_specialized@?$fibonacci_validation@N$0CFP@$0BBB@@random@boost@@2_NB ; boost::random::fibonacci_validation<double,607,273>::is_specialized
PUBLIC	?is_specialized@?$fibonacci_validation@N$0EPP@$0BKC@@random@boost@@2_NB ; boost::random::fibonacci_validation<double,1279,418>::is_specialized
PUBLIC	?is_specialized@?$fibonacci_validation@N$0IOJ@$0EOE@@random@boost@@2_NB ; boost::random::fibonacci_validation<double,2281,1252>::is_specialized
PUBLIC	?is_specialized@?$fibonacci_validation@N$0MJB@$0CEA@@random@boost@@2_NB ; boost::random::fibonacci_validation<double,3217,576>::is_specialized
PUBLIC	?is_specialized@?$fibonacci_validation@N$0BBEH@$0IDC@@random@boost@@2_NB ; boost::random::fibonacci_validation<double,4423,2098>::is_specialized
PUBLIC	?is_specialized@?$fibonacci_validation@N$0CFNJ@$0BFHO@@random@boost@@2_NB ; boost::random::fibonacci_validation<double,9689,5502>::is_specialized
PUBLIC	?is_specialized@?$fibonacci_validation@N$0ENOB@$0CGHC@@random@boost@@2_NB ; boost::random::fibonacci_validation<double,19937,9842>::is_specialized
PUBLIC	?is_specialized@?$fibonacci_validation@N$0FKKJ@$0DEJO@@random@boost@@2_NB ; boost::random::fibonacci_validation<double,23209,13470>::is_specialized
PUBLIC	?is_specialized@?$fibonacci_validation@N$0KNNB@$0FCCK@@random@boost@@2_NB ; boost::random::fibonacci_validation<double,44497,21034>::is_specialized
PUBLIC	?has_fixed_range@?$linear_feedback_shift@K$0CA@$0BP@$0N@$0M@$0A@@random@boost@@2_NB ; boost::random::linear_feedback_shift<unsigned long,32,31,13,12,0>::has_fixed_range
PUBLIC	?word_size@?$linear_feedback_shift@K$0CA@$0BP@$0N@$0M@$0A@@random@boost@@2HB ; boost::random::linear_feedback_shift<unsigned long,32,31,13,12,0>::word_size
PUBLIC	?exponent1@?$linear_feedback_shift@K$0CA@$0BP@$0N@$0M@$0A@@random@boost@@2HB ; boost::random::linear_feedback_shift<unsigned long,32,31,13,12,0>::exponent1
PUBLIC	?exponent2@?$linear_feedback_shift@K$0CA@$0BP@$0N@$0M@$0A@@random@boost@@2HB ; boost::random::linear_feedback_shift<unsigned long,32,31,13,12,0>::exponent2
PUBLIC	?step_size@?$linear_feedback_shift@K$0CA@$0BP@$0N@$0M@$0A@@random@boost@@2HB ; boost::random::linear_feedback_shift<unsigned long,32,31,13,12,0>::step_size
PUBLIC	?has_fixed_range@?$xor_combine@V?$linear_feedback_shift@K$0CA@$0BP@$0N@$0M@$0A@@random@boost@@$0A@V?$linear_feedback_shift@K$0CA@$0BN@$01$03$0A@@23@$0A@$0A@@random@boost@@2_NB ; boost::random::xor_combine<boost::random::linear_feedback_shift<unsigned long,32,31,13,12,0>,0,boost::random::linear_feedback_shift<unsigned long,32,29,2,4,0>,0,0>::has_fixed_range
PUBLIC	?shift1@?$xor_combine@V?$linear_feedback_shift@K$0CA@$0BP@$0N@$0M@$0A@@random@boost@@$0A@V?$linear_feedback_shift@K$0CA@$0BN@$01$03$0A@@23@$0A@$0A@@random@boost@@2HB ; boost::random::xor_combine<boost::random::linear_feedback_shift<unsigned long,32,31,13,12,0>,0,boost::random::linear_feedback_shift<unsigned long,32,29,2,4,0>,0,0>::shift1
PUBLIC	?shift2@?$xor_combine@V?$linear_feedback_shift@K$0CA@$0BP@$0N@$0M@$0A@@random@boost@@$0A@V?$linear_feedback_shift@K$0CA@$0BN@$01$03$0A@@23@$0A@$0A@@random@boost@@2HB ; boost::random::xor_combine<boost::random::linear_feedback_shift<unsigned long,32,31,13,12,0>,0,boost::random::linear_feedback_shift<unsigned long,32,29,2,4,0>,0,0>::shift2
PUBLIC	?has_fixed_range@?$linear_feedback_shift@K$0CA@$0BN@$01$03$0A@@random@boost@@2_NB ; boost::random::linear_feedback_shift<unsigned long,32,29,2,4,0>::has_fixed_range
PUBLIC	?word_size@?$linear_feedback_shift@K$0CA@$0BN@$01$03$0A@@random@boost@@2HB ; boost::random::linear_feedback_shift<unsigned long,32,29,2,4,0>::word_size
PUBLIC	?exponent1@?$linear_feedback_shift@K$0CA@$0BN@$01$03$0A@@random@boost@@2HB ; boost::random::linear_feedback_shift<unsigned long,32,29,2,4,0>::exponent1
PUBLIC	?exponent2@?$linear_feedback_shift@K$0CA@$0BN@$01$03$0A@@random@boost@@2HB ; boost::random::linear_feedback_shift<unsigned long,32,29,2,4,0>::exponent2
PUBLIC	?step_size@?$linear_feedback_shift@K$0CA@$0BN@$01$03$0A@@random@boost@@2HB ; boost::random::linear_feedback_shift<unsigned long,32,29,2,4,0>::step_size
PUBLIC	?value@?$is_arithmetic_impl@Uinput@iostreams@boost@@@detail@boost@@2_NB ; boost::detail::is_arithmetic_impl<boost::iostreams::input>::value
PUBLIC	?value@?$is_abstract_imp@Uinput@iostreams@boost@@@detail@boost@@2_NB ; boost::detail::is_abstract_imp<boost::iostreams::input>::value
PUBLIC	?value@?$is_convertible_basic_impl@AAUinput@iostreams@boost@@U123@@detail@boost@@2_NB ; boost::detail::is_convertible_basic_impl<boost::iostreams::input &,boost::iostreams::input>::value
PUBLIC	?value@?$ice_or@$00$0A@$0A@$0A@$0A@$0A@$0A@@type_traits@boost@@2_NB ; boost::type_traits::ice_or<1,0,0,0,0,0,0>::value
PUBLIC	?value@?$ice_not@$0A@@type_traits@boost@@2_NB	; boost::type_traits::ice_not<0>::value
PUBLIC	?value@?$is_convertible_impl@Uinput@iostreams@boost@@U123@@detail@boost@@2_NB ; boost::detail::is_convertible_impl<boost::iostreams::input,boost::iostreams::input>::value
PUBLIC	?value@?$is_arithmetic_impl@Uoutput@iostreams@boost@@@detail@boost@@2_NB ; boost::detail::is_arithmetic_impl<boost::iostreams::output>::value
PUBLIC	?value@?$is_abstract_imp@Uoutput@iostreams@boost@@@detail@boost@@2_NB ; boost::detail::is_abstract_imp<boost::iostreams::output>::value
PUBLIC	?value@?$is_convertible_basic_impl@AAUinput@iostreams@boost@@Uoutput@23@@detail@boost@@2_NB ; boost::detail::is_convertible_basic_impl<boost::iostreams::input &,boost::iostreams::output>::value
PUBLIC	?value@?$ice_and@$0A@$00$00$00$00$00$00@type_traits@boost@@2_NB ; boost::type_traits::ice_and<0,1,1,1,1,1,1>::value
PUBLIC	?value@?$is_convertible_impl@Uinput@iostreams@boost@@Uoutput@23@@detail@boost@@2_NB ; boost::detail::is_convertible_impl<boost::iostreams::input,boost::iostreams::output>::value
PUBLIC	?word_size@?$mersenne_twister@K$0CA@$0CHA@$0BIN@$0BP@$0JJAILANP@$0L@$06$0JNCMFGIA@$0P@$0OPMGAAAA@$0BC@$0MHHGGGNO@@random@boost@@2HB ; boost::random::mersenne_twister<unsigned long,32,624,397,31,2567483615,11,7,2636928640,15,4022730752,18,3346425566>::word_size
PUBLIC	?state_size@?$mersenne_twister@K$0CA@$0CHA@$0BIN@$0BP@$0JJAILANP@$0L@$06$0JNCMFGIA@$0P@$0OPMGAAAA@$0BC@$0MHHGGGNO@@random@boost@@2HB ; boost::random::mersenne_twister<unsigned long,32,624,397,31,2567483615,11,7,2636928640,15,4022730752,18,3346425566>::state_size
PUBLIC	?shift_size@?$mersenne_twister@K$0CA@$0CHA@$0BIN@$0BP@$0JJAILANP@$0L@$06$0JNCMFGIA@$0P@$0OPMGAAAA@$0BC@$0MHHGGGNO@@random@boost@@2HB ; boost::random::mersenne_twister<unsigned long,32,624,397,31,2567483615,11,7,2636928640,15,4022730752,18,3346425566>::shift_size
PUBLIC	?mask_bits@?$mersenne_twister@K$0CA@$0CHA@$0BIN@$0BP@$0JJAILANP@$0L@$06$0JNCMFGIA@$0P@$0OPMGAAAA@$0BC@$0MHHGGGNO@@random@boost@@2HB ; boost::random::mersenne_twister<unsigned long,32,624,397,31,2567483615,11,7,2636928640,15,4022730752,18,3346425566>::mask_bits
PUBLIC	?parameter_a@?$mersenne_twister@K$0CA@$0CHA@$0BIN@$0BP@$0JJAILANP@$0L@$06$0JNCMFGIA@$0P@$0OPMGAAAA@$0BC@$0MHHGGGNO@@random@boost@@2KB ; boost::random::mersenne_twister<unsigned long,32,624,397,31,2567483615,11,7,2636928640,15,4022730752,18,3346425566>::parameter_a
PUBLIC	?output_u@?$mersenne_twister@K$0CA@$0CHA@$0BIN@$0BP@$0JJAILANP@$0L@$06$0JNCMFGIA@$0P@$0OPMGAAAA@$0BC@$0MHHGGGNO@@random@boost@@2HB ; boost::random::mersenne_twister<unsigned long,32,624,397,31,2567483615,11,7,2636928640,15,4022730752,18,3346425566>::output_u
PUBLIC	?output_s@?$mersenne_twister@K$0CA@$0CHA@$0BIN@$0BP@$0JJAILANP@$0L@$06$0JNCMFGIA@$0P@$0OPMGAAAA@$0BC@$0MHHGGGNO@@random@boost@@2HB ; boost::random::mersenne_twister<unsigned long,32,624,397,31,2567483615,11,7,2636928640,15,4022730752,18,3346425566>::output_s
PUBLIC	?output_b@?$mersenne_twister@K$0CA@$0CHA@$0BIN@$0BP@$0JJAILANP@$0L@$06$0JNCMFGIA@$0P@$0OPMGAAAA@$0BC@$0MHHGGGNO@@random@boost@@2KB ; boost::random::mersenne_twister<unsigned long,32,624,397,31,2567483615,11,7,2636928640,15,4022730752,18,3346425566>::output_b
PUBLIC	?output_t@?$mersenne_twister@K$0CA@$0CHA@$0BIN@$0BP@$0JJAILANP@$0L@$06$0JNCMFGIA@$0P@$0OPMGAAAA@$0BC@$0MHHGGGNO@@random@boost@@2HB ; boost::random::mersenne_twister<unsigned long,32,624,397,31,2567483615,11,7,2636928640,15,4022730752,18,3346425566>::output_t
PUBLIC	?output_c@?$mersenne_twister@K$0CA@$0CHA@$0BIN@$0BP@$0JJAILANP@$0L@$06$0JNCMFGIA@$0P@$0OPMGAAAA@$0BC@$0MHHGGGNO@@random@boost@@2KB ; boost::random::mersenne_twister<unsigned long,32,624,397,31,2567483615,11,7,2636928640,15,4022730752,18,3346425566>::output_c
PUBLIC	?output_l@?$mersenne_twister@K$0CA@$0CHA@$0BIN@$0BP@$0JJAILANP@$0L@$06$0JNCMFGIA@$0P@$0OPMGAAAA@$0BC@$0MHHGGGNO@@random@boost@@2HB ; boost::random::mersenne_twister<unsigned long,32,624,397,31,2567483615,11,7,2636928640,15,4022730752,18,3346425566>::output_l
PUBLIC	?has_fixed_range@?$mersenne_twister@K$0CA@$0CHA@$0BIN@$0BP@$0JJAILANP@$0L@$06$0JNCMFGIA@$0P@$0OPMGAAAA@$0BC@$0MHHGGGNO@@random@boost@@2_NB ; boost::random::mersenne_twister<unsigned long,32,624,397,31,2567483615,11,7,2636928640,15,4022730752,18,3346425566>::has_fixed_range
PUBLIC	?is_const@?$cv_traits_imp@PAH@detail@boost@@2_NB ; boost::detail::cv_traits_imp<int *>::is_const
PUBLIC	?is_volatile@?$cv_traits_imp@PAH@detail@boost@@2_NB ; boost::detail::cv_traits_imp<int *>::is_volatile
PUBLIC	?value@?$is_ununsigned_helper@H@detail@boost@@2_NB ; boost::detail::is_ununsigned_helper<int>::value
PUBLIC	?value@?$is_unsigned_imp@H@detail@boost@@2_NB	; boost::detail::is_unsigned_imp<int>::value
PUBLIC	?has_fixed_range@?$backward_compatible_uniform_01@V?$pass_through_engine@AAV?$mersenne_twister@K$0CA@$0CHA@$0BIN@$0BP@$0JJAILANP@$0L@$06$0JNCMFGIA@$0P@$0OPMGAAAA@$0BC@$0MHHGGGNO@@random@boost@@@detail@random@boost@@N@detail@boost@@2_NB ; boost::detail::backward_compatible_uniform_01<boost::random::detail::pass_through_engine<boost::random::mersenne_twister<unsigned long,32,624,397,31,2567483615,11,7,2636928640,15,4022730752,18,3346425566> &>,double>::has_fixed_range
PUBLIC	?has_fixed_range@?$backward_compatible_uniform_01@V?$pass_through_engine@V?$mersenne_twister@K$0CA@$0CHA@$0BIN@$0BP@$0JJAILANP@$0L@$06$0JNCMFGIA@$0P@$0OPMGAAAA@$0BC@$0MHHGGGNO@@random@boost@@@detail@random@boost@@N@detail@boost@@2_NB ; boost::detail::backward_compatible_uniform_01<boost::random::detail::pass_through_engine<boost::random::mersenne_twister<unsigned long,32,624,397,31,2567483615,11,7,2636928640,15,4022730752,18,3346425566> >,double>::has_fixed_range
PUBLIC	?value@?$implementation_level@V?$list@_NV?$allocator@_N@std@@@std@@@serialization@boost@@2HB ; boost::serialization::implementation_level<std::list<bool,std::allocator<bool> > >::value
PUBLIC	?value@?$implementation_level@V?$list@DV?$allocator@D@std@@@std@@@serialization@boost@@2HB ; boost::serialization::implementation_level<std::list<char,std::allocator<char> > >::value
PUBLIC	?value@?$implementation_level@V?$list@CV?$allocator@C@std@@@std@@@serialization@boost@@2HB ; boost::serialization::implementation_level<std::list<signed char,std::allocator<signed char> > >::value
PUBLIC	?value@?$implementation_level@V?$list@EV?$allocator@E@std@@@std@@@serialization@boost@@2HB ; boost::serialization::implementation_level<std::list<unsigned char,std::allocator<unsigned char> > >::value
PUBLIC	?value@?$implementation_level@V?$list@HV?$allocator@H@std@@@std@@@serialization@boost@@2HB ; boost::serialization::implementation_level<std::list<int,std::allocator<int> > >::value
PUBLIC	?value@?$implementation_level@V?$list@IV?$allocator@I@std@@@std@@@serialization@boost@@2HB ; boost::serialization::implementation_level<std::list<unsigned int,std::allocator<unsigned int> > >::value
PUBLIC	?value@?$implementation_level@V?$list@JV?$allocator@J@std@@@std@@@serialization@boost@@2HB ; boost::serialization::implementation_level<std::list<long,std::allocator<long> > >::value
PUBLIC	?value@?$implementation_level@V?$list@KV?$allocator@K@std@@@std@@@serialization@boost@@2HB ; boost::serialization::implementation_level<std::list<unsigned long,std::allocator<unsigned long> > >::value
PUBLIC	?value@?$implementation_level@V?$list@MV?$allocator@M@std@@@std@@@serialization@boost@@2HB ; boost::serialization::implementation_level<std::list<float,std::allocator<float> > >::value
PUBLIC	?value@?$implementation_level@V?$list@NV?$allocator@N@std@@@std@@@serialization@boost@@2HB ; boost::serialization::implementation_level<std::list<double,std::allocator<double> > >::value
PUBLIC	?value@?$implementation_level@V?$list@GV?$allocator@G@std@@@std@@@serialization@boost@@2HB ; boost::serialization::implementation_level<std::list<unsigned short,std::allocator<unsigned short> > >::value
PUBLIC	?value@?$implementation_level@V?$list@FV?$allocator@F@std@@@std@@@serialization@boost@@2HB ; boost::serialization::implementation_level<std::list<short,std::allocator<short> > >::value
PUBLIC	?value@?$implementation_level@V?$list@_JV?$allocator@_J@std@@@std@@@serialization@boost@@2HB ; boost::serialization::implementation_level<std::list<__int64,std::allocator<__int64> > >::value
PUBLIC	?value@?$implementation_level@V?$list@_KV?$allocator@_K@std@@@std@@@serialization@boost@@2HB ; boost::serialization::implementation_level<std::list<unsigned __int64,std::allocator<unsigned __int64> > >::value
PUBLIC	?value@?$implementation_level@V?$list@_WV?$allocator@_W@std@@@std@@@serialization@boost@@2HB ; boost::serialization::implementation_level<std::list<wchar_t,std::allocator<wchar_t> > >::value
PUBLIC	?value@?$implementation_level@Uversion_type@archive@boost@@@serialization@boost@@2HB ; boost::serialization::implementation_level<boost::archive::version_type>::value
PUBLIC	?value@?$implementation_level@Uclass_id_type@archive@boost@@@serialization@boost@@2HB ; boost::serialization::implementation_level<boost::archive::class_id_type>::value
PUBLIC	?value@?$implementation_level@Uclass_id_reference_type@archive@boost@@@serialization@boost@@2HB ; boost::serialization::implementation_level<boost::archive::class_id_reference_type>::value
PUBLIC	?value@?$implementation_level@Uclass_id_optional_type@archive@boost@@@serialization@boost@@2HB ; boost::serialization::implementation_level<boost::archive::class_id_optional_type>::value
PUBLIC	?value@?$implementation_level@Uclass_name_type@archive@boost@@@serialization@boost@@2HB ; boost::serialization::implementation_level<boost::archive::class_name_type>::value
PUBLIC	?value@?$implementation_level@Uobject_id_type@archive@boost@@@serialization@boost@@2HB ; boost::serialization::implementation_level<boost::archive::object_id_type>::value
PUBLIC	?value@?$implementation_level@Uobject_reference_type@archive@boost@@@serialization@boost@@2HB ; boost::serialization::implementation_level<boost::archive::object_reference_type>::value
PUBLIC	?value@?$implementation_level@Utracking_type@archive@boost@@@serialization@boost@@2HB ; boost::serialization::implementation_level<boost::archive::tracking_type>::value
PUBLIC	?value@?$implementation_level@V?$basic_string@DU?$char_traits@D@std@@V?$allocator@D@2@@std@@@serialization@boost@@2HB ; boost::serialization::implementation_level<std::basic_string<char,std::char_traits<char>,std::allocator<char> > >::value
PUBLIC	?value@?$implementation_level@V?$basic_string@_WU?$char_traits@_W@std@@V?$allocator@_W@2@@std@@@serialization@boost@@2HB ; boost::serialization::implementation_level<std::basic_string<wchar_t,std::char_traits<wchar_t>,std::allocator<wchar_t> > >::value
PUBLIC	?value@?$int_@$0A@@mpl@boost@@2HB		; boost::mpl::int_<0>::value
PUBLIC	?value@?$is_convertible_basic_impl@AAUoutput@iostreams@boost@@Uinput@23@@detail@boost@@2_NB ; boost::detail::is_convertible_basic_impl<boost::iostreams::output &,boost::iostreams::input>::value
PUBLIC	?value@?$is_convertible_impl@Uoutput@iostreams@boost@@Uinput@23@@detail@boost@@2_NB ; boost::detail::is_convertible_impl<boost::iostreams::output,boost::iostreams::input>::value
PUBLIC	?value@?$is_empty_impl@X@detail@boost@@2_NB	; boost::detail::is_empty_impl<void>::value
PUBLIC	?value@?$is_empty_impl@$$CBX@detail@boost@@2_NB	; boost::detail::is_empty_impl<void const >::value
PUBLIC	?value@?$is_empty_impl@$$CCX@detail@boost@@2_NB	; boost::detail::is_empty_impl<void volatile >::value
PUBLIC	?value@?$is_empty_impl@$$CDX@detail@boost@@2_NB	; boost::detail::is_empty_impl<void const volatile >::value
PUBLIC	?value@?$not_satisfied@U?$usage_requirements@U?$SGIAssignable@_J@boost@@@concept@boost@@@concept@boost@@2_NB ; boost::concept::not_satisfied<boost::concept::usage_requirements<boost::SGIAssignable<__int64> > >::value
PUBLIC	?value@?$not_satisfied@U?$SGIAssignableConcept@_J@boost@@@concept@boost@@2_NB ; boost::concept::not_satisfied<boost::SGIAssignableConcept<__int64> >::value
PUBLIC	?is_const@?$cv_traits_imp@PA_J@detail@boost@@2_NB ; boost::detail::cv_traits_imp<__int64 *>::is_const
PUBLIC	?is_volatile@?$cv_traits_imp@PA_J@detail@boost@@2_NB ; boost::detail::cv_traits_imp<__int64 *>::is_volatile
PUBLIC	?value@?$is_pointer_helper@_J@detail@boost@@2_NB ; boost::detail::is_pointer_helper<__int64>::value
PUBLIC	?value@?$result_@_J@?$is_mem_fun_pointer_select@$0A@@detail@boost@@2_NB ; boost::detail::is_mem_fun_pointer_select<0>::result_<__int64>::value
PUBLIC	?value@?$is_pointer_impl@_J@detail@boost@@2_NB	; boost::detail::is_pointer_impl<__int64>::value
PUBLIC	?value@?$is_arithmetic_impl@_J@detail@boost@@2_NB ; boost::detail::is_arithmetic_impl<__int64>::value
PUBLIC	?_EEM_DS@?$deque@U?$pair@I_J@std@@V?$allocator@U?$pair@I_J@std@@@2@@std@@2HB ; std::deque<std::pair<unsigned int,__int64>,std::allocator<std::pair<unsigned int,__int64> > >::_EEM_DS
PUBLIC	?is_const@?$cv_traits_imp@PBV?$basic_string@DU?$char_traits@D@std@@V?$allocator@D@2@@std@@@detail@boost@@2_NB ; boost::detail::cv_traits_imp<std::basic_string<char,std::char_traits<char>,std::allocator<char> > const *>::is_const
PUBLIC	?is_volatile@?$cv_traits_imp@PBV?$basic_string@DU?$char_traits@D@std@@V?$allocator@D@2@@std@@@detail@boost@@2_NB ; boost::detail::cv_traits_imp<std::basic_string<char,std::char_traits<char>,std::allocator<char> > const *>::is_volatile
PUBLIC	?is_const@?$cv_traits_imp@PAV?$basic_string@DU?$char_traits@D@std@@V?$allocator@D@2@@std@@@detail@boost@@2_NB ; boost::detail::cv_traits_imp<std::basic_string<char,std::char_traits<char>,std::allocator<char> > *>::is_const
PUBLIC	?is_volatile@?$cv_traits_imp@PAV?$basic_string@DU?$char_traits@D@std@@V?$allocator@D@2@@std@@@detail@boost@@2_NB ; boost::detail::cv_traits_imp<std::basic_string<char,std::char_traits<char>,std::allocator<char> > *>::is_volatile
PUBLIC	?value@?$is_abstract_imp@D@detail@boost@@2_NB	; boost::detail::is_abstract_imp<char>::value
PUBLIC	?is_const@?$cv_traits_imp@PBV?$iterator_range@V?$_String_iterator@DU?$char_traits@D@std@@V?$allocator@D@2@@std@@@boost@@@detail@boost@@2_NB ; boost::detail::cv_traits_imp<boost::iterator_range<std::_String_iterator<char,std::char_traits<char>,std::allocator<char> > > const *>::is_const
PUBLIC	?is_volatile@?$cv_traits_imp@PBV?$iterator_range@V?$_String_iterator@DU?$char_traits@D@std@@V?$allocator@D@2@@std@@@boost@@@detail@boost@@2_NB ; boost::detail::cv_traits_imp<boost::iterator_range<std::_String_iterator<char,std::char_traits<char>,std::allocator<char> > > const *>::is_volatile
PUBLIC	?is_const@?$cv_traits_imp@PAUtracking_type@archive@boost@@@detail@boost@@2_NB ; boost::detail::cv_traits_imp<boost::archive::tracking_type *>::is_const
PUBLIC	?is_volatile@?$cv_traits_imp@PAUtracking_type@archive@boost@@@detail@boost@@2_NB ; boost::detail::cv_traits_imp<boost::archive::tracking_type *>::is_volatile
PUBLIC	?value@?$is_pointer_helper@Utracking_type@archive@boost@@@detail@boost@@2_NB ; boost::detail::is_pointer_helper<boost::archive::tracking_type>::value
PUBLIC	?value@?$result_@Utracking_type@archive@boost@@@?$is_mem_fun_pointer_select@$0A@@detail@boost@@2_NB ; boost::detail::is_mem_fun_pointer_select<0>::result_<boost::archive::tracking_type>::value
PUBLIC	?value@?$is_pointer_impl@Utracking_type@archive@boost@@@detail@boost@@2_NB ; boost::detail::is_pointer_impl<boost::archive::tracking_type>::value
PUBLIC	?is_const@?$cv_traits_imp@PAUversion_type@archive@boost@@@detail@boost@@2_NB ; boost::detail::cv_traits_imp<boost::archive::version_type *>::is_const
PUBLIC	?is_volatile@?$cv_traits_imp@PAUversion_type@archive@boost@@@detail@boost@@2_NB ; boost::detail::cv_traits_imp<boost::archive::version_type *>::is_volatile
PUBLIC	?value@?$is_pointer_helper@Uversion_type@archive@boost@@@detail@boost@@2_NB ; boost::detail::is_pointer_helper<boost::archive::version_type>::value
PUBLIC	?value@?$result_@Uversion_type@archive@boost@@@?$is_mem_fun_pointer_select@$0A@@detail@boost@@2_NB ; boost::detail::is_mem_fun_pointer_select<0>::result_<boost::archive::version_type>::value
PUBLIC	?value@?$is_pointer_impl@Uversion_type@archive@boost@@@detail@boost@@2_NB ; boost::detail::is_pointer_impl<boost::archive::version_type>::value
PUBLIC	?is_const@?$cv_traits_imp@PAUobject_id_type@archive@boost@@@detail@boost@@2_NB ; boost::detail::cv_traits_imp<boost::archive::object_id_type *>::is_const
PUBLIC	?is_volatile@?$cv_traits_imp@PAUobject_id_type@archive@boost@@@detail@boost@@2_NB ; boost::detail::cv_traits_imp<boost::archive::object_id_type *>::is_volatile
PUBLIC	?value@?$is_pointer_helper@Uobject_id_type@archive@boost@@@detail@boost@@2_NB ; boost::detail::is_pointer_helper<boost::archive::object_id_type>::value
PUBLIC	?value@?$result_@Uobject_id_type@archive@boost@@@?$is_mem_fun_pointer_select@$0A@@detail@boost@@2_NB ; boost::detail::is_mem_fun_pointer_select<0>::result_<boost::archive::object_id_type>::value
PUBLIC	?value@?$is_pointer_impl@Uobject_id_type@archive@boost@@@detail@boost@@2_NB ; boost::detail::is_pointer_impl<boost::archive::object_id_type>::value
PUBLIC	?is_const@?$cv_traits_imp@PAUclass_id_type@archive@boost@@@detail@boost@@2_NB ; boost::detail::cv_traits_imp<boost::archive::class_id_type *>::is_const
PUBLIC	?is_volatile@?$cv_traits_imp@PAUclass_id_type@archive@boost@@@detail@boost@@2_NB ; boost::detail::cv_traits_imp<boost::archive::class_id_type *>::is_volatile
PUBLIC	?value@?$is_pointer_helper@Uclass_id_type@archive@boost@@@detail@boost@@2_NB ; boost::detail::is_pointer_helper<boost::archive::class_id_type>::value
PUBLIC	?value@?$result_@Uclass_id_type@archive@boost@@@?$is_mem_fun_pointer_select@$0A@@detail@boost@@2_NB ; boost::detail::is_mem_fun_pointer_select<0>::result_<boost::archive::class_id_type>::value
PUBLIC	?value@?$is_pointer_impl@Uclass_id_type@archive@boost@@@detail@boost@@2_NB ; boost::detail::is_pointer_impl<boost::archive::class_id_type>::value
PUBLIC	?is_const@?$cv_traits_imp@PAI@detail@boost@@2_NB ; boost::detail::cv_traits_imp<unsigned int *>::is_const
PUBLIC	?is_volatile@?$cv_traits_imp@PAI@detail@boost@@2_NB ; boost::detail::cv_traits_imp<unsigned int *>::is_volatile
PUBLIC	?value@?$is_pointer_helper@I@detail@boost@@2_NB	; boost::detail::is_pointer_helper<unsigned int>::value
PUBLIC	?value@?$result_@I@?$is_mem_fun_pointer_select@$0A@@detail@boost@@2_NB ; boost::detail::is_mem_fun_pointer_select<0>::result_<unsigned int>::value
PUBLIC	?value@?$is_pointer_impl@I@detail@boost@@2_NB	; boost::detail::is_pointer_impl<unsigned int>::value
PUBLIC	?value@?$is_base_and_derived_impl@Ubasic_traits@serialization@boost@@I@detail@boost@@2_NB ; boost::detail::is_base_and_derived_impl<boost::serialization::basic_traits,unsigned int>::value
PUBLIC	?value@?$is_arithmetic_impl@I@detail@boost@@2_NB ; boost::detail::is_arithmetic_impl<unsigned int>::value
PUBLIC	?value@?$implementation_level@I@serialization@boost@@2HB ; boost::serialization::implementation_level<unsigned int>::value
PUBLIC	?value@?$is_pointer_helper@H@detail@boost@@2_NB	; boost::detail::is_pointer_helper<int>::value
PUBLIC	?value@?$result_@H@?$is_mem_fun_pointer_select@$0A@@detail@boost@@2_NB ; boost::detail::is_mem_fun_pointer_select<0>::result_<int>::value
PUBLIC	?value@?$is_pointer_impl@H@detail@boost@@2_NB	; boost::detail::is_pointer_impl<int>::value
PUBLIC	?value@?$is_base_and_derived_impl@Ubasic_traits@serialization@boost@@H@detail@boost@@2_NB ; boost::detail::is_base_and_derived_impl<boost::serialization::basic_traits,int>::value
PUBLIC	?value@?$is_arithmetic_impl@H@detail@boost@@2_NB ; boost::detail::is_arithmetic_impl<int>::value
PUBLIC	?value@?$implementation_level@H@serialization@boost@@2HB ; boost::serialization::implementation_level<int>::value
PUBLIC	?value@?$is_pointer_helper@V?$basic_string@DU?$char_traits@D@std@@V?$allocator@D@2@@std@@@detail@boost@@2_NB ; boost::detail::is_pointer_helper<std::basic_string<char,std::char_traits<char>,std::allocator<char> > >::value
PUBLIC	?value@?$result_@V?$basic_string@DU?$char_traits@D@std@@V?$allocator@D@2@@std@@@?$is_mem_fun_pointer_select@$0A@@detail@boost@@2_NB ; boost::detail::is_mem_fun_pointer_select<0>::result_<std::basic_string<char,std::char_traits<char>,std::allocator<char> > >::value
PUBLIC	?value@?$is_pointer_impl@V?$basic_string@DU?$char_traits@D@std@@V?$allocator@D@2@@std@@@detail@boost@@2_NB ; boost::detail::is_pointer_impl<std::basic_string<char,std::char_traits<char>,std::allocator<char> > >::value
;	COMDAT ?value@?$is_pointer_impl@V?$basic_string@DU?$char_traits@D@std@@V?$allocator@D@2@@std@@@detail@boost@@2_NB
CONST	SEGMENT
?value@?$is_pointer_impl@V?$basic_string@DU?$char_traits@D@std@@V?$allocator@D@2@@std@@@detail@boost@@2_NB DB 00H ; boost::detail::is_pointer_impl<std::basic_string<char,std::char_traits<char>,std::allocator<char> > >::value
CONST	ENDS
;	COMDAT ?value@?$result_@V?$basic_string@DU?$char_traits@D@std@@V?$allocator@D@2@@std@@@?$is_mem_fun_pointer_select@$0A@@detail@boost@@2_NB
CONST	SEGMENT
?value@?$result_@V?$basic_string@DU?$char_traits@D@std@@V?$allocator@D@2@@std@@@?$is_mem_fun_pointer_select@$0A@@detail@boost@@2_NB DB 00H ; boost::detail::is_mem_fun_pointer_select<0>::result_<std::basic_string<char,std::char_traits<char>,std::allocator<char> > >::value
CONST	ENDS
;	COMDAT ?value@?$is_pointer_helper@V?$basic_string@DU?$char_traits@D@std@@V?$allocator@D@2@@std@@@detail@boost@@2_NB
CONST	SEGMENT
?value@?$is_pointer_helper@V?$basic_string@DU?$char_traits@D@std@@V?$allocator@D@2@@std@@@detail@boost@@2_NB DB 00H ; boost::detail::is_pointer_helper<std::basic_string<char,std::char_traits<char>,std::allocator<char> > >::value
CONST	ENDS
;	COMDAT ?value@?$implementation_level@H@serialization@boost@@2HB
CONST	SEGMENT
?value@?$implementation_level@H@serialization@boost@@2HB DD 01H ; boost::serialization::implementation_level<int>::value
CONST	ENDS
;	COMDAT ?value@?$is_arithmetic_impl@H@detail@boost@@2_NB
CONST	SEGMENT
?value@?$is_arithmetic_impl@H@detail@boost@@2_NB DB 01H	; boost::detail::is_arithmetic_impl<int>::value
CONST	ENDS
;	COMDAT ?value@?$is_base_and_derived_impl@Ubasic_traits@serialization@boost@@H@detail@boost@@2_NB
CONST	SEGMENT
?value@?$is_base_and_derived_impl@Ubasic_traits@serialization@boost@@H@detail@boost@@2_NB DB 00H ; boost::detail::is_base_and_derived_impl<boost::serialization::basic_traits,int>::value
CONST	ENDS
;	COMDAT ?value@?$is_pointer_impl@H@detail@boost@@2_NB
CONST	SEGMENT
?value@?$is_pointer_impl@H@detail@boost@@2_NB DB 00H	; boost::detail::is_pointer_impl<int>::value
CONST	ENDS
;	COMDAT ?value@?$result_@H@?$is_mem_fun_pointer_select@$0A@@detail@boost@@2_NB
CONST	SEGMENT
?value@?$result_@H@?$is_mem_fun_pointer_select@$0A@@detail@boost@@2_NB DB 00H ; boost::detail::is_mem_fun_pointer_select<0>::result_<int>::value
CONST	ENDS
;	COMDAT ?value@?$is_pointer_helper@H@detail@boost@@2_NB
CONST	SEGMENT
?value@?$is_pointer_helper@H@detail@boost@@2_NB DB 00H	; boost::detail::is_pointer_helper<int>::value
CONST	ENDS
;	COMDAT ?value@?$implementation_level@I@serialization@boost@@2HB
CONST	SEGMENT
?value@?$implementation_level@I@serialization@boost@@2HB DD 01H ; boost::serialization::implementation_level<unsigned int>::value
CONST	ENDS
;	COMDAT ?value@?$is_arithmetic_impl@I@detail@boost@@2_NB
CONST	SEGMENT
?value@?$is_arithmetic_impl@I@detail@boost@@2_NB DB 01H	; boost::detail::is_arithmetic_impl<unsigned int>::value
CONST	ENDS
;	COMDAT ?value@?$is_base_and_derived_impl@Ubasic_traits@serialization@boost@@I@detail@boost@@2_NB
CONST	SEGMENT
?value@?$is_base_and_derived_impl@Ubasic_traits@serialization@boost@@I@detail@boost@@2_NB DB 00H ; boost::detail::is_base_and_derived_impl<boost::serialization::basic_traits,unsigned int>::value
CONST	ENDS
;	COMDAT ?value@?$is_pointer_impl@I@detail@boost@@2_NB
CONST	SEGMENT
?value@?$is_pointer_impl@I@detail@boost@@2_NB DB 00H	; boost::detail::is_pointer_impl<unsigned int>::value
CONST	ENDS
;	COMDAT ?value@?$result_@I@?$is_mem_fun_pointer_select@$0A@@detail@boost@@2_NB
CONST	SEGMENT
?value@?$result_@I@?$is_mem_fun_pointer_select@$0A@@detail@boost@@2_NB DB 00H ; boost::detail::is_mem_fun_pointer_select<0>::result_<unsigned int>::value
CONST	ENDS
;	COMDAT ?value@?$is_pointer_helper@I@detail@boost@@2_NB
CONST	SEGMENT
?value@?$is_pointer_helper@I@detail@boost@@2_NB DB 00H	; boost::detail::is_pointer_helper<unsigned int>::value
CONST	ENDS
;	COMDAT ?is_volatile@?$cv_traits_imp@PAI@detail@boost@@2_NB
CONST	SEGMENT
?is_volatile@?$cv_traits_imp@PAI@detail@boost@@2_NB DB 00H ; boost::detail::cv_traits_imp<unsigned int *>::is_volatile
CONST	ENDS
;	COMDAT ?is_const@?$cv_traits_imp@PAI@detail@boost@@2_NB
CONST	SEGMENT
?is_const@?$cv_traits_imp@PAI@detail@boost@@2_NB DB 00H	; boost::detail::cv_traits_imp<unsigned int *>::is_const
CONST	ENDS
;	COMDAT ?value@?$is_pointer_impl@Uclass_id_type@archive@boost@@@detail@boost@@2_NB
CONST	SEGMENT
?value@?$is_pointer_impl@Uclass_id_type@archive@boost@@@detail@boost@@2_NB DB 00H ; boost::detail::is_pointer_impl<boost::archive::class_id_type>::value
CONST	ENDS
;	COMDAT ?value@?$result_@Uclass_id_type@archive@boost@@@?$is_mem_fun_pointer_select@$0A@@detail@boost@@2_NB
CONST	SEGMENT
?value@?$result_@Uclass_id_type@archive@boost@@@?$is_mem_fun_pointer_select@$0A@@detail@boost@@2_NB DB 00H ; boost::detail::is_mem_fun_pointer_select<0>::result_<boost::archive::class_id_type>::value
CONST	ENDS
;	COMDAT ?value@?$is_pointer_helper@Uclass_id_type@archive@boost@@@detail@boost@@2_NB
CONST	SEGMENT
?value@?$is_pointer_helper@Uclass_id_type@archive@boost@@@detail@boost@@2_NB DB 00H ; boost::detail::is_pointer_helper<boost::archive::class_id_type>::value
CONST	ENDS
;	COMDAT ?is_volatile@?$cv_traits_imp@PAUclass_id_type@archive@boost@@@detail@boost@@2_NB
CONST	SEGMENT
?is_volatile@?$cv_traits_imp@PAUclass_id_type@archive@boost@@@detail@boost@@2_NB DB 00H ; boost::detail::cv_traits_imp<boost::archive::class_id_type *>::is_volatile
CONST	ENDS
;	COMDAT ?is_const@?$cv_traits_imp@PAUclass_id_type@archive@boost@@@detail@boost@@2_NB
CONST	SEGMENT
?is_const@?$cv_traits_imp@PAUclass_id_type@archive@boost@@@detail@boost@@2_NB DB 00H ; boost::detail::cv_traits_imp<boost::archive::class_id_type *>::is_const
CONST	ENDS
;	COMDAT ?value@?$is_pointer_impl@Uobject_id_type@archive@boost@@@detail@boost@@2_NB
CONST	SEGMENT
?value@?$is_pointer_impl@Uobject_id_type@archive@boost@@@detail@boost@@2_NB DB 00H ; boost::detail::is_pointer_impl<boost::archive::object_id_type>::value
CONST	ENDS
;	COMDAT ?value@?$result_@Uobject_id_type@archive@boost@@@?$is_mem_fun_pointer_select@$0A@@detail@boost@@2_NB
CONST	SEGMENT
?value@?$result_@Uobject_id_type@archive@boost@@@?$is_mem_fun_pointer_select@$0A@@detail@boost@@2_NB DB 00H ; boost::detail::is_mem_fun_pointer_select<0>::result_<boost::archive::object_id_type>::value
CONST	ENDS
;	COMDAT ?value@?$is_pointer_helper@Uobject_id_type@archive@boost@@@detail@boost@@2_NB
CONST	SEGMENT
?value@?$is_pointer_helper@Uobject_id_type@archive@boost@@@detail@boost@@2_NB DB 00H ; boost::detail::is_pointer_helper<boost::archive::object_id_type>::value
CONST	ENDS
;	COMDAT ?is_volatile@?$cv_traits_imp@PAUobject_id_type@archive@boost@@@detail@boost@@2_NB
CONST	SEGMENT
?is_volatile@?$cv_traits_imp@PAUobject_id_type@archive@boost@@@detail@boost@@2_NB DB 00H ; boost::detail::cv_traits_imp<boost::archive::object_id_type *>::is_volatile
CONST	ENDS
;	COMDAT ?is_const@?$cv_traits_imp@PAUobject_id_type@archive@boost@@@detail@boost@@2_NB
CONST	SEGMENT
?is_const@?$cv_traits_imp@PAUobject_id_type@archive@boost@@@detail@boost@@2_NB DB 00H ; boost::detail::cv_traits_imp<boost::archive::object_id_type *>::is_const
CONST	ENDS
;	COMDAT ?value@?$is_pointer_impl@Uversion_type@archive@boost@@@detail@boost@@2_NB
CONST	SEGMENT
?value@?$is_pointer_impl@Uversion_type@archive@boost@@@detail@boost@@2_NB DB 00H ; boost::detail::is_pointer_impl<boost::archive::version_type>::value
CONST	ENDS
;	COMDAT ?value@?$result_@Uversion_type@archive@boost@@@?$is_mem_fun_pointer_select@$0A@@detail@boost@@2_NB
CONST	SEGMENT
?value@?$result_@Uversion_type@archive@boost@@@?$is_mem_fun_pointer_select@$0A@@detail@boost@@2_NB DB 00H ; boost::detail::is_mem_fun_pointer_select<0>::result_<boost::archive::version_type>::value
CONST	ENDS
;	COMDAT ?value@?$is_pointer_helper@Uversion_type@archive@boost@@@detail@boost@@2_NB
CONST	SEGMENT
?value@?$is_pointer_helper@Uversion_type@archive@boost@@@detail@boost@@2_NB DB 00H ; boost::detail::is_pointer_helper<boost::archive::version_type>::value
CONST	ENDS
;	COMDAT ?is_volatile@?$cv_traits_imp@PAUversion_type@archive@boost@@@detail@boost@@2_NB
CONST	SEGMENT
?is_volatile@?$cv_traits_imp@PAUversion_type@archive@boost@@@detail@boost@@2_NB DB 00H ; boost::detail::cv_traits_imp<boost::archive::version_type *>::is_volatile
CONST	ENDS
;	COMDAT ?is_const@?$cv_traits_imp@PAUversion_type@archive@boost@@@detail@boost@@2_NB
CONST	SEGMENT
?is_const@?$cv_traits_imp@PAUversion_type@archive@boost@@@detail@boost@@2_NB DB 00H ; boost::detail::cv_traits_imp<boost::archive::version_type *>::is_const
CONST	ENDS
;	COMDAT ?value@?$is_pointer_impl@Utracking_type@archive@boost@@@detail@boost@@2_NB
CONST	SEGMENT
?value@?$is_pointer_impl@Utracking_type@archive@boost@@@detail@boost@@2_NB DB 00H ; boost::detail::is_pointer_impl<boost::archive::tracking_type>::value
CONST	ENDS
;	COMDAT ?value@?$result_@Utracking_type@archive@boost@@@?$is_mem_fun_pointer_select@$0A@@detail@boost@@2_NB
CONST	SEGMENT
?value@?$result_@Utracking_type@archive@boost@@@?$is_mem_fun_pointer_select@$0A@@detail@boost@@2_NB DB 00H ; boost::detail::is_mem_fun_pointer_select<0>::result_<boost::archive::tracking_type>::value
CONST	ENDS
;	COMDAT ?value@?$is_pointer_helper@Utracking_type@archive@boost@@@detail@boost@@2_NB
CONST	SEGMENT
?value@?$is_pointer_helper@Utracking_type@archive@boost@@@detail@boost@@2_NB DB 00H ; boost::detail::is_pointer_helper<boost::archive::tracking_type>::value
CONST	ENDS
;	COMDAT ?is_volatile@?$cv_traits_imp@PAUtracking_type@archive@boost@@@detail@boost@@2_NB
CONST	SEGMENT
?is_volatile@?$cv_traits_imp@PAUtracking_type@archive@boost@@@detail@boost@@2_NB DB 00H ; boost::detail::cv_traits_imp<boost::archive::tracking_type *>::is_volatile
CONST	ENDS
;	COMDAT ?is_const@?$cv_traits_imp@PAUtracking_type@archive@boost@@@detail@boost@@2_NB
CONST	SEGMENT
?is_const@?$cv_traits_imp@PAUtracking_type@archive@boost@@@detail@boost@@2_NB DB 00H ; boost::detail::cv_traits_imp<boost::archive::tracking_type *>::is_const
CONST	ENDS
;	COMDAT ?is_volatile@?$cv_traits_imp@PBV?$iterator_range@V?$_String_iterator@DU?$char_traits@D@std@@V?$allocator@D@2@@std@@@boost@@@detail@boost@@2_NB
CONST	SEGMENT
?is_volatile@?$cv_traits_imp@PBV?$iterator_range@V?$_String_iterator@DU?$char_traits@D@std@@V?$allocator@D@2@@std@@@boost@@@detail@boost@@2_NB DB 00H ; boost::detail::cv_traits_imp<boost::iterator_range<std::_String_iterator<char,std::char_traits<char>,std::allocator<char> > > const *>::is_volatile
CONST	ENDS
;	COMDAT ?is_const@?$cv_traits_imp@PBV?$iterator_range@V?$_String_iterator@DU?$char_traits@D@std@@V?$allocator@D@2@@std@@@boost@@@detail@boost@@2_NB
CONST	SEGMENT
?is_const@?$cv_traits_imp@PBV?$iterator_range@V?$_String_iterator@DU?$char_traits@D@std@@V?$allocator@D@2@@std@@@boost@@@detail@boost@@2_NB DB 01H ; boost::detail::cv_traits_imp<boost::iterator_range<std::_String_iterator<char,std::char_traits<char>,std::allocator<char> > > const *>::is_const
CONST	ENDS
;	COMDAT ?value@?$is_abstract_imp@D@detail@boost@@2_NB
CONST	SEGMENT
?value@?$is_abstract_imp@D@detail@boost@@2_NB DB 00H	; boost::detail::is_abstract_imp<char>::value
CONST	ENDS
;	COMDAT ?is_volatile@?$cv_traits_imp@PAV?$basic_string@DU?$char_traits@D@std@@V?$allocator@D@2@@std@@@detail@boost@@2_NB
CONST	SEGMENT
?is_volatile@?$cv_traits_imp@PAV?$basic_string@DU?$char_traits@D@std@@V?$allocator@D@2@@std@@@detail@boost@@2_NB DB 00H ; boost::detail::cv_traits_imp<std::basic_string<char,std::char_traits<char>,std::allocator<char> > *>::is_volatile
CONST	ENDS
;	COMDAT ?is_const@?$cv_traits_imp@PAV?$basic_string@DU?$char_traits@D@std@@V?$allocator@D@2@@std@@@detail@boost@@2_NB
CONST	SEGMENT
?is_const@?$cv_traits_imp@PAV?$basic_string@DU?$char_traits@D@std@@V?$allocator@D@2@@std@@@detail@boost@@2_NB DB 00H ; boost::detail::cv_traits_imp<std::basic_string<char,std::char_traits<char>,std::allocator<char> > *>::is_const
CONST	ENDS
;	COMDAT ?is_volatile@?$cv_traits_imp@PBV?$basic_string@DU?$char_traits@D@std@@V?$allocator@D@2@@std@@@detail@boost@@2_NB
CONST	SEGMENT
?is_volatile@?$cv_traits_imp@PBV?$basic_string@DU?$char_traits@D@std@@V?$allocator@D@2@@std@@@detail@boost@@2_NB DB 00H ; boost::detail::cv_traits_imp<std::basic_string<char,std::char_traits<char>,std::allocator<char> > const *>::is_volatile
CONST	ENDS
;	COMDAT ?is_const@?$cv_traits_imp@PBV?$basic_string@DU?$char_traits@D@std@@V?$allocator@D@2@@std@@@detail@boost@@2_NB
CONST	SEGMENT
?is_const@?$cv_traits_imp@PBV?$basic_string@DU?$char_traits@D@std@@V?$allocator@D@2@@std@@@detail@boost@@2_NB DB 01H ; boost::detail::cv_traits_imp<std::basic_string<char,std::char_traits<char>,std::allocator<char> > const *>::is_const
CONST	ENDS
;	COMDAT ?_EEM_DS@?$deque@U?$pair@I_J@std@@V?$allocator@U?$pair@I_J@std@@@2@@std@@2HB
CONST	SEGMENT
?_EEM_DS@?$deque@U?$pair@I_J@std@@V?$allocator@U?$pair@I_J@std@@@2@@std@@2HB DD 01H ; std::deque<std::pair<unsigned int,__int64>,std::allocator<std::pair<unsigned int,__int64> > >::_EEM_DS
CONST	ENDS
;	COMDAT ?value@?$is_arithmetic_impl@_J@detail@boost@@2_NB
CONST	SEGMENT
?value@?$is_arithmetic_impl@_J@detail@boost@@2_NB DB 01H ; boost::detail::is_arithmetic_impl<__int64>::value
CONST	ENDS
;	COMDAT ?value@?$is_pointer_impl@_J@detail@boost@@2_NB
CONST	SEGMENT
?value@?$is_pointer_impl@_J@detail@boost@@2_NB DB 00H	; boost::detail::is_pointer_impl<__int64>::value
CONST	ENDS
;	COMDAT ?value@?$result_@_J@?$is_mem_fun_pointer_select@$0A@@detail@boost@@2_NB
CONST	SEGMENT
?value@?$result_@_J@?$is_mem_fun_pointer_select@$0A@@detail@boost@@2_NB DB 00H ; boost::detail::is_mem_fun_pointer_select<0>::result_<__int64>::value
CONST	ENDS
;	COMDAT ?value@?$is_pointer_helper@_J@detail@boost@@2_NB
CONST	SEGMENT
?value@?$is_pointer_helper@_J@detail@boost@@2_NB DB 00H	; boost::detail::is_pointer_helper<__int64>::value
CONST	ENDS
;	COMDAT ?is_volatile@?$cv_traits_imp@PA_J@detail@boost@@2_NB
CONST	SEGMENT
?is_volatile@?$cv_traits_imp@PA_J@detail@boost@@2_NB DB 00H ; boost::detail::cv_traits_imp<__int64 *>::is_volatile
CONST	ENDS
;	COMDAT ?is_const@?$cv_traits_imp@PA_J@detail@boost@@2_NB
CONST	SEGMENT
?is_const@?$cv_traits_imp@PA_J@detail@boost@@2_NB DB 00H ; boost::detail::cv_traits_imp<__int64 *>::is_const
CONST	ENDS
;	COMDAT ?value@?$not_satisfied@U?$SGIAssignableConcept@_J@boost@@@concept@boost@@2_NB
CONST	SEGMENT
?value@?$not_satisfied@U?$SGIAssignableConcept@_J@boost@@@concept@boost@@2_NB DB 00H ; boost::concept::not_satisfied<boost::SGIAssignableConcept<__int64> >::value
CONST	ENDS
;	COMDAT ?value@?$not_satisfied@U?$usage_requirements@U?$SGIAssignable@_J@boost@@@concept@boost@@@concept@boost@@2_NB
CONST	SEGMENT
?value@?$not_satisfied@U?$usage_requirements@U?$SGIAssignable@_J@boost@@@concept@boost@@@concept@boost@@2_NB DB 00H ; boost::concept::not_satisfied<boost::concept::usage_requirements<boost::SGIAssignable<__int64> > >::value
CONST	ENDS
;	COMDAT ?value@?$is_empty_impl@$$CDX@detail@boost@@2_NB
CONST	SEGMENT
?value@?$is_empty_impl@$$CDX@detail@boost@@2_NB DB 00H	; boost::detail::is_empty_impl<void const volatile >::value
CONST	ENDS
;	COMDAT ?value@?$is_empty_impl@$$CCX@detail@boost@@2_NB
CONST	SEGMENT
?value@?$is_empty_impl@$$CCX@detail@boost@@2_NB DB 00H	; boost::detail::is_empty_impl<void volatile >::value
CONST	ENDS
;	COMDAT ?value@?$is_empty_impl@$$CBX@detail@boost@@2_NB
CONST	SEGMENT
?value@?$is_empty_impl@$$CBX@detail@boost@@2_NB DB 00H	; boost::detail::is_empty_impl<void const >::value
CONST	ENDS
;	COMDAT ?value@?$is_empty_impl@X@detail@boost@@2_NB
CONST	SEGMENT
?value@?$is_empty_impl@X@detail@boost@@2_NB DB 00H	; boost::detail::is_empty_impl<void>::value
CONST	ENDS
;	COMDAT ?value@?$is_convertible_impl@Uoutput@iostreams@boost@@Uinput@23@@detail@boost@@2_NB
CONST	SEGMENT
?value@?$is_convertible_impl@Uoutput@iostreams@boost@@Uinput@23@@detail@boost@@2_NB DB 00H ; boost::detail::is_convertible_impl<boost::iostreams::output,boost::iostreams::input>::value
CONST	ENDS
;	COMDAT ?value@?$is_convertible_basic_impl@AAUoutput@iostreams@boost@@Uinput@23@@detail@boost@@2_NB
CONST	SEGMENT
?value@?$is_convertible_basic_impl@AAUoutput@iostreams@boost@@Uinput@23@@detail@boost@@2_NB DB 00H ; boost::detail::is_convertible_basic_impl<boost::iostreams::output &,boost::iostreams::input>::value
CONST	ENDS
;	COMDAT ?value@?$int_@$0A@@mpl@boost@@2HB
CONST	SEGMENT
?value@?$int_@$0A@@mpl@boost@@2HB DD 00H		; boost::mpl::int_<0>::value
CONST	ENDS
;	COMDAT ?value@?$implementation_level@V?$basic_string@_WU?$char_traits@_W@std@@V?$allocator@_W@2@@std@@@serialization@boost@@2HB
CONST	SEGMENT
?value@?$implementation_level@V?$basic_string@_WU?$char_traits@_W@std@@V?$allocator@_W@2@@std@@@serialization@boost@@2HB DD 01H ; boost::serialization::implementation_level<std::basic_string<wchar_t,std::char_traits<wchar_t>,std::allocator<wchar_t> > >::value
CONST	ENDS
;	COMDAT ?value@?$implementation_level@V?$basic_string@DU?$char_traits@D@std@@V?$allocator@D@2@@std@@@serialization@boost@@2HB
CONST	SEGMENT
?value@?$implementation_level@V?$basic_string@DU?$char_traits@D@std@@V?$allocator@D@2@@std@@@serialization@boost@@2HB DD 01H ; boost::serialization::implementation_level<std::basic_string<char,std::char_traits<char>,std::allocator<char> > >::value
CONST	ENDS
;	COMDAT ?value@?$implementation_level@Utracking_type@archive@boost@@@serialization@boost@@2HB
CONST	SEGMENT
?value@?$implementation_level@Utracking_type@archive@boost@@@serialization@boost@@2HB DD 01H ; boost::serialization::implementation_level<boost::archive::tracking_type>::value
CONST	ENDS
;	COMDAT ?value@?$implementation_level@Uobject_reference_type@archive@boost@@@serialization@boost@@2HB
CONST	SEGMENT
?value@?$implementation_level@Uobject_reference_type@archive@boost@@@serialization@boost@@2HB DD 01H ; boost::serialization::implementation_level<boost::archive::object_reference_type>::value
CONST	ENDS
;	COMDAT ?value@?$implementation_level@Uobject_id_type@archive@boost@@@serialization@boost@@2HB
CONST	SEGMENT
?value@?$implementation_level@Uobject_id_type@archive@boost@@@serialization@boost@@2HB DD 01H ; boost::serialization::implementation_level<boost::archive::object_id_type>::value
CONST	ENDS
;	COMDAT ?value@?$implementation_level@Uclass_name_type@archive@boost@@@serialization@boost@@2HB
CONST	SEGMENT
?value@?$implementation_level@Uclass_name_type@archive@boost@@@serialization@boost@@2HB DD 01H ; boost::serialization::implementation_level<boost::archive::class_name_type>::value
CONST	ENDS
;	COMDAT ?value@?$implementation_level@Uclass_id_optional_type@archive@boost@@@serialization@boost@@2HB
CONST	SEGMENT
?value@?$implementation_level@Uclass_id_optional_type@archive@boost@@@serialization@boost@@2HB DD 01H ; boost::serialization::implementation_level<boost::archive::class_id_optional_type>::value
CONST	ENDS
;	COMDAT ?value@?$implementation_level@Uclass_id_reference_type@archive@boost@@@serialization@boost@@2HB
CONST	SEGMENT
?value@?$implementation_level@Uclass_id_reference_type@archive@boost@@@serialization@boost@@2HB DD 01H ; boost::serialization::implementation_level<boost::archive::class_id_reference_type>::value
CONST	ENDS
;	COMDAT ?value@?$implementation_level@Uclass_id_type@archive@boost@@@serialization@boost@@2HB
CONST	SEGMENT
?value@?$implementation_level@Uclass_id_type@archive@boost@@@serialization@boost@@2HB DD 01H ; boost::serialization::implementation_level<boost::archive::class_id_type>::value
CONST	ENDS
;	COMDAT ?value@?$implementation_level@Uversion_type@archive@boost@@@serialization@boost@@2HB
CONST	SEGMENT
?value@?$implementation_level@Uversion_type@archive@boost@@@serialization@boost@@2HB DD 01H ; boost::serialization::implementation_level<boost::archive::version_type>::value
CONST	ENDS
;	COMDAT ?value@?$implementation_level@V?$list@_WV?$allocator@_W@std@@@std@@@serialization@boost@@2HB
CONST	SEGMENT
?value@?$implementation_level@V?$list@_WV?$allocator@_W@std@@@std@@@serialization@boost@@2HB DD 02H ; boost::serialization::implementation_level<std::list<wchar_t,std::allocator<wchar_t> > >::value
CONST	ENDS
;	COMDAT ?value@?$implementation_level@V?$list@_KV?$allocator@_K@std@@@std@@@serialization@boost@@2HB
CONST	SEGMENT
?value@?$implementation_level@V?$list@_KV?$allocator@_K@std@@@std@@@serialization@boost@@2HB DD 02H ; boost::serialization::implementation_level<std::list<unsigned __int64,std::allocator<unsigned __int64> > >::value
CONST	ENDS
;	COMDAT ?value@?$implementation_level@V?$list@_JV?$allocator@_J@std@@@std@@@serialization@boost@@2HB
CONST	SEGMENT
?value@?$implementation_level@V?$list@_JV?$allocator@_J@std@@@std@@@serialization@boost@@2HB DD 02H ; boost::serialization::implementation_level<std::list<__int64,std::allocator<__int64> > >::value
CONST	ENDS
;	COMDAT ?value@?$implementation_level@V?$list@FV?$allocator@F@std@@@std@@@serialization@boost@@2HB
CONST	SEGMENT
?value@?$implementation_level@V?$list@FV?$allocator@F@std@@@std@@@serialization@boost@@2HB DD 02H ; boost::serialization::implementation_level<std::list<short,std::allocator<short> > >::value
CONST	ENDS
;	COMDAT ?value@?$implementation_level@V?$list@GV?$allocator@G@std@@@std@@@serialization@boost@@2HB
CONST	SEGMENT
?value@?$implementation_level@V?$list@GV?$allocator@G@std@@@std@@@serialization@boost@@2HB DD 02H ; boost::serialization::implementation_level<std::list<unsigned short,std::allocator<unsigned short> > >::value
CONST	ENDS
;	COMDAT ?value@?$implementation_level@V?$list@NV?$allocator@N@std@@@std@@@serialization@boost@@2HB
CONST	SEGMENT
?value@?$implementation_level@V?$list@NV?$allocator@N@std@@@std@@@serialization@boost@@2HB DD 02H ; boost::serialization::implementation_level<std::list<double,std::allocator<double> > >::value
CONST	ENDS
;	COMDAT ?value@?$implementation_level@V?$list@MV?$allocator@M@std@@@std@@@serialization@boost@@2HB
CONST	SEGMENT
?value@?$implementation_level@V?$list@MV?$allocator@M@std@@@std@@@serialization@boost@@2HB DD 02H ; boost::serialization::implementation_level<std::list<float,std::allocator<float> > >::value
CONST	ENDS
;	COMDAT ?value@?$implementation_level@V?$list@KV?$allocator@K@std@@@std@@@serialization@boost@@2HB
CONST	SEGMENT
?value@?$implementation_level@V?$list@KV?$allocator@K@std@@@std@@@serialization@boost@@2HB DD 02H ; boost::serialization::implementation_level<std::list<unsigned long,std::allocator<unsigned long> > >::value
CONST	ENDS
;	COMDAT ?value@?$implementation_level@V?$list@JV?$allocator@J@std@@@std@@@serialization@boost@@2HB
CONST	SEGMENT
?value@?$implementation_level@V?$list@JV?$allocator@J@std@@@std@@@serialization@boost@@2HB DD 02H ; boost::serialization::implementation_level<std::list<long,std::allocator<long> > >::value
CONST	ENDS
;	COMDAT ?value@?$implementation_level@V?$list@IV?$allocator@I@std@@@std@@@serialization@boost@@2HB
CONST	SEGMENT
?value@?$implementation_level@V?$list@IV?$allocator@I@std@@@std@@@serialization@boost@@2HB DD 02H ; boost::serialization::implementation_level<std::list<unsigned int,std::allocator<unsigned int> > >::value
CONST	ENDS
;	COMDAT ?value@?$implementation_level@V?$list@HV?$allocator@H@std@@@std@@@serialization@boost@@2HB
CONST	SEGMENT
?value@?$implementation_level@V?$list@HV?$allocator@H@std@@@std@@@serialization@boost@@2HB DD 02H ; boost::serialization::implementation_level<std::list<int,std::allocator<int> > >::value
CONST	ENDS
;	COMDAT ?value@?$implementation_level@V?$list@EV?$allocator@E@std@@@std@@@serialization@boost@@2HB
CONST	SEGMENT
?value@?$implementation_level@V?$list@EV?$allocator@E@std@@@std@@@serialization@boost@@2HB DD 02H ; boost::serialization::implementation_level<std::list<unsigned char,std::allocator<unsigned char> > >::value
CONST	ENDS
;	COMDAT ?value@?$implementation_level@V?$list@CV?$allocator@C@std@@@std@@@serialization@boost@@2HB
CONST	SEGMENT
?value@?$implementation_level@V?$list@CV?$allocator@C@std@@@std@@@serialization@boost@@2HB DD 02H ; boost::serialization::implementation_level<std::list<signed char,std::allocator<signed char> > >::value
CONST	ENDS
;	COMDAT ?value@?$implementation_level@V?$list@DV?$allocator@D@std@@@std@@@serialization@boost@@2HB
CONST	SEGMENT
?value@?$implementation_level@V?$list@DV?$allocator@D@std@@@std@@@serialization@boost@@2HB DD 02H ; boost::serialization::implementation_level<std::list<char,std::allocator<char> > >::value
CONST	ENDS
;	COMDAT ?value@?$implementation_level@V?$list@_NV?$allocator@_N@std@@@std@@@serialization@boost@@2HB
CONST	SEGMENT
?value@?$implementation_level@V?$list@_NV?$allocator@_N@std@@@std@@@serialization@boost@@2HB DD 02H ; boost::serialization::implementation_level<std::list<bool,std::allocator<bool> > >::value
CONST	ENDS
;	COMDAT ?has_fixed_range@?$backward_compatible_uniform_01@V?$pass_through_engine@V?$mersenne_twister@K$0CA@$0CHA@$0BIN@$0BP@$0JJAILANP@$0L@$06$0JNCMFGIA@$0P@$0OPMGAAAA@$0BC@$0MHHGGGNO@@random@boost@@@detail@random@boost@@N@detail@boost@@2_NB
CONST	SEGMENT
?has_fixed_range@?$backward_compatible_uniform_01@V?$pass_through_engine@V?$mersenne_twister@K$0CA@$0CHA@$0BIN@$0BP@$0JJAILANP@$0L@$06$0JNCMFGIA@$0P@$0OPMGAAAA@$0BC@$0MHHGGGNO@@random@boost@@@detail@random@boost@@N@detail@boost@@2_NB DB 00H ; boost::detail::backward_compatible_uniform_01<boost::random::detail::pass_through_engine<boost::random::mersenne_twister<unsigned long,32,624,397,31,2567483615,11,7,2636928640,15,4022730752,18,3346425566> >,double>::has_fixed_range
CONST	ENDS
;	COMDAT ?has_fixed_range@?$backward_compatible_uniform_01@V?$pass_through_engine@AAV?$mersenne_twister@K$0CA@$0CHA@$0BIN@$0BP@$0JJAILANP@$0L@$06$0JNCMFGIA@$0P@$0OPMGAAAA@$0BC@$0MHHGGGNO@@random@boost@@@detail@random@boost@@N@detail@boost@@2_NB
CONST	SEGMENT
?has_fixed_range@?$backward_compatible_uniform_01@V?$pass_through_engine@AAV?$mersenne_twister@K$0CA@$0CHA@$0BIN@$0BP@$0JJAILANP@$0L@$06$0JNCMFGIA@$0P@$0OPMGAAAA@$0BC@$0MHHGGGNO@@random@boost@@@detail@random@boost@@N@detail@boost@@2_NB DB 00H ; boost::detail::backward_compatible_uniform_01<boost::random::detail::pass_through_engine<boost::random::mersenne_twister<unsigned long,32,624,397,31,2567483615,11,7,2636928640,15,4022730752,18,3346425566> &>,double>::has_fixed_range
CONST	ENDS
;	COMDAT ?value@?$is_unsigned_imp@H@detail@boost@@2_NB
CONST	SEGMENT
?value@?$is_unsigned_imp@H@detail@boost@@2_NB DB 00H	; boost::detail::is_unsigned_imp<int>::value
CONST	ENDS
;	COMDAT ?value@?$is_ununsigned_helper@H@detail@boost@@2_NB
CONST	SEGMENT
?value@?$is_ununsigned_helper@H@detail@boost@@2_NB DB 00H ; boost::detail::is_ununsigned_helper<int>::value
CONST	ENDS
;	COMDAT ?is_volatile@?$cv_traits_imp@PAH@detail@boost@@2_NB
CONST	SEGMENT
?is_volatile@?$cv_traits_imp@PAH@detail@boost@@2_NB DB 00H ; boost::detail::cv_traits_imp<int *>::is_volatile
CONST	ENDS
;	COMDAT ?is_const@?$cv_traits_imp@PAH@detail@boost@@2_NB
CONST	SEGMENT
?is_const@?$cv_traits_imp@PAH@detail@boost@@2_NB DB 00H	; boost::detail::cv_traits_imp<int *>::is_const
CONST	ENDS
;	COMDAT ?has_fixed_range@?$mersenne_twister@K$0CA@$0CHA@$0BIN@$0BP@$0JJAILANP@$0L@$06$0JNCMFGIA@$0P@$0OPMGAAAA@$0BC@$0MHHGGGNO@@random@boost@@2_NB
CONST	SEGMENT
?has_fixed_range@?$mersenne_twister@K$0CA@$0CHA@$0BIN@$0BP@$0JJAILANP@$0L@$06$0JNCMFGIA@$0P@$0OPMGAAAA@$0BC@$0MHHGGGNO@@random@boost@@2_NB DB 00H ; boost::random::mersenne_twister<unsigned long,32,624,397,31,2567483615,11,7,2636928640,15,4022730752,18,3346425566>::has_fixed_range
CONST	ENDS
;	COMDAT ?output_l@?$mersenne_twister@K$0CA@$0CHA@$0BIN@$0BP@$0JJAILANP@$0L@$06$0JNCMFGIA@$0P@$0OPMGAAAA@$0BC@$0MHHGGGNO@@random@boost@@2HB
CONST	SEGMENT
?output_l@?$mersenne_twister@K$0CA@$0CHA@$0BIN@$0BP@$0JJAILANP@$0L@$06$0JNCMFGIA@$0P@$0OPMGAAAA@$0BC@$0MHHGGGNO@@random@boost@@2HB DD 012H ; boost::random::mersenne_twister<unsigned long,32,624,397,31,2567483615,11,7,2636928640,15,4022730752,18,3346425566>::output_l
CONST	ENDS
;	COMDAT ?output_c@?$mersenne_twister@K$0CA@$0CHA@$0BIN@$0BP@$0JJAILANP@$0L@$06$0JNCMFGIA@$0P@$0OPMGAAAA@$0BC@$0MHHGGGNO@@random@boost@@2KB
CONST	SEGMENT
?output_c@?$mersenne_twister@K$0CA@$0CHA@$0BIN@$0BP@$0JJAILANP@$0L@$06$0JNCMFGIA@$0P@$0OPMGAAAA@$0BC@$0MHHGGGNO@@random@boost@@2KB DD 0efc60000H ; boost::random::mersenne_twister<unsigned long,32,624,397,31,2567483615,11,7,2636928640,15,4022730752,18,3346425566>::output_c
CONST	ENDS
;	COMDAT ?output_t@?$mersenne_twister@K$0CA@$0CHA@$0BIN@$0BP@$0JJAILANP@$0L@$06$0JNCMFGIA@$0P@$0OPMGAAAA@$0BC@$0MHHGGGNO@@random@boost@@2HB
CONST	SEGMENT
?output_t@?$mersenne_twister@K$0CA@$0CHA@$0BIN@$0BP@$0JJAILANP@$0L@$06$0JNCMFGIA@$0P@$0OPMGAAAA@$0BC@$0MHHGGGNO@@random@boost@@2HB DD 0fH ; boost::random::mersenne_twister<unsigned long,32,624,397,31,2567483615,11,7,2636928640,15,4022730752,18,3346425566>::output_t
CONST	ENDS
;	COMDAT ?output_b@?$mersenne_twister@K$0CA@$0CHA@$0BIN@$0BP@$0JJAILANP@$0L@$06$0JNCMFGIA@$0P@$0OPMGAAAA@$0BC@$0MHHGGGNO@@random@boost@@2KB
CONST	SEGMENT
?output_b@?$mersenne_twister@K$0CA@$0CHA@$0BIN@$0BP@$0JJAILANP@$0L@$06$0JNCMFGIA@$0P@$0OPMGAAAA@$0BC@$0MHHGGGNO@@random@boost@@2KB DD 09d2c5680H ; boost::random::mersenne_twister<unsigned long,32,624,397,31,2567483615,11,7,2636928640,15,4022730752,18,3346425566>::output_b
CONST	ENDS
;	COMDAT ?output_s@?$mersenne_twister@K$0CA@$0CHA@$0BIN@$0BP@$0JJAILANP@$0L@$06$0JNCMFGIA@$0P@$0OPMGAAAA@$0BC@$0MHHGGGNO@@random@boost@@2HB
CONST	SEGMENT
?output_s@?$mersenne_twister@K$0CA@$0CHA@$0BIN@$0BP@$0JJAILANP@$0L@$06$0JNCMFGIA@$0P@$0OPMGAAAA@$0BC@$0MHHGGGNO@@random@boost@@2HB DD 07H ; boost::random::mersenne_twister<unsigned long,32,624,397,31,2567483615,11,7,2636928640,15,4022730752,18,3346425566>::output_s
CONST	ENDS
;	COMDAT ?output_u@?$mersenne_twister@K$0CA@$0CHA@$0BIN@$0BP@$0JJAILANP@$0L@$06$0JNCMFGIA@$0P@$0OPMGAAAA@$0BC@$0MHHGGGNO@@random@boost@@2HB
CONST	SEGMENT
?output_u@?$mersenne_twister@K$0CA@$0CHA@$0BIN@$0BP@$0JJAILANP@$0L@$06$0JNCMFGIA@$0P@$0OPMGAAAA@$0BC@$0MHHGGGNO@@random@boost@@2HB DD 0bH ; boost::random::mersenne_twister<unsigned long,32,624,397,31,2567483615,11,7,2636928640,15,4022730752,18,3346425566>::output_u
CONST	ENDS
;	COMDAT ?parameter_a@?$mersenne_twister@K$0CA@$0CHA@$0BIN@$0BP@$0JJAILANP@$0L@$06$0JNCMFGIA@$0P@$0OPMGAAAA@$0BC@$0MHHGGGNO@@random@boost@@2KB
CONST	SEGMENT
?parameter_a@?$mersenne_twister@K$0CA@$0CHA@$0BIN@$0BP@$0JJAILANP@$0L@$06$0JNCMFGIA@$0P@$0OPMGAAAA@$0BC@$0MHHGGGNO@@random@boost@@2KB DD 09908b0dfH ; boost::random::mersenne_twister<unsigned long,32,624,397,31,2567483615,11,7,2636928640,15,4022730752,18,3346425566>::parameter_a
CONST	ENDS
;	COMDAT ?mask_bits@?$mersenne_twister@K$0CA@$0CHA@$0BIN@$0BP@$0JJAILANP@$0L@$06$0JNCMFGIA@$0P@$0OPMGAAAA@$0BC@$0MHHGGGNO@@random@boost@@2HB
CONST	SEGMENT
?mask_bits@?$mersenne_twister@K$0CA@$0CHA@$0BIN@$0BP@$0JJAILANP@$0L@$06$0JNCMFGIA@$0P@$0OPMGAAAA@$0BC@$0MHHGGGNO@@random@boost@@2HB DD 01fH ; boost::random::mersenne_twister<unsigned long,32,624,397,31,2567483615,11,7,2636928640,15,4022730752,18,3346425566>::mask_bits
CONST	ENDS
;	COMDAT ?shift_size@?$mersenne_twister@K$0CA@$0CHA@$0BIN@$0BP@$0JJAILANP@$0L@$06$0JNCMFGIA@$0P@$0OPMGAAAA@$0BC@$0MHHGGGNO@@random@boost@@2HB
CONST	SEGMENT
?shift_size@?$mersenne_twister@K$0CA@$0CHA@$0BIN@$0BP@$0JJAILANP@$0L@$06$0JNCMFGIA@$0P@$0OPMGAAAA@$0BC@$0MHHGGGNO@@random@boost@@2HB DD 018dH ; boost::random::mersenne_twister<unsigned long,32,624,397,31,2567483615,11,7,2636928640,15,4022730752,18,3346425566>::shift_size
CONST	ENDS
;	COMDAT ?state_size@?$mersenne_twister@K$0CA@$0CHA@$0BIN@$0BP@$0JJAILANP@$0L@$06$0JNCMFGIA@$0P@$0OPMGAAAA@$0BC@$0MHHGGGNO@@random@boost@@2HB
CONST	SEGMENT
?state_size@?$mersenne_twister@K$0CA@$0CHA@$0BIN@$0BP@$0JJAILANP@$0L@$06$0JNCMFGIA@$0P@$0OPMGAAAA@$0BC@$0MHHGGGNO@@random@boost@@2HB DD 0270H ; boost::random::mersenne_twister<unsigned long,32,624,397,31,2567483615,11,7,2636928640,15,4022730752,18,3346425566>::state_size
CONST	ENDS
;	COMDAT ?word_size@?$mersenne_twister@K$0CA@$0CHA@$0BIN@$0BP@$0JJAILANP@$0L@$06$0JNCMFGIA@$0P@$0OPMGAAAA@$0BC@$0MHHGGGNO@@random@boost@@2HB
CONST	SEGMENT
?word_size@?$mersenne_twister@K$0CA@$0CHA@$0BIN@$0BP@$0JJAILANP@$0L@$06$0JNCMFGIA@$0P@$0OPMGAAAA@$0BC@$0MHHGGGNO@@random@boost@@2HB DD 020H ; boost::random::mersenne_twister<unsigned long,32,624,397,31,2567483615,11,7,2636928640,15,4022730752,18,3346425566>::word_size
CONST	ENDS
;	COMDAT ?value@?$is_convertible_impl@Uinput@iostreams@boost@@Uoutput@23@@detail@boost@@2_NB
CONST	SEGMENT
?value@?$is_convertible_impl@Uinput@iostreams@boost@@Uoutput@23@@detail@boost@@2_NB DB 00H ; boost::detail::is_convertible_impl<boost::iostreams::input,boost::iostreams::output>::value
CONST	ENDS
;	COMDAT ?value@?$ice_and@$0A@$00$00$00$00$00$00@type_traits@boost@@2_NB
CONST	SEGMENT
?value@?$ice_and@$0A@$00$00$00$00$00$00@type_traits@boost@@2_NB DB 00H ; boost::type_traits::ice_and<0,1,1,1,1,1,1>::value
CONST	ENDS
;	COMDAT ?value@?$is_convertible_basic_impl@AAUinput@iostreams@boost@@Uoutput@23@@detail@boost@@2_NB
CONST	SEGMENT
?value@?$is_convertible_basic_impl@AAUinput@iostreams@boost@@Uoutput@23@@detail@boost@@2_NB DB 00H ; boost::detail::is_convertible_basic_impl<boost::iostreams::input &,boost::iostreams::output>::value
CONST	ENDS
;	COMDAT ?value@?$is_abstract_imp@Uoutput@iostreams@boost@@@detail@boost@@2_NB
CONST	SEGMENT
?value@?$is_abstract_imp@Uoutput@iostreams@boost@@@detail@boost@@2_NB DB 00H ; boost::detail::is_abstract_imp<boost::iostreams::output>::value
CONST	ENDS
;	COMDAT ?value@?$is_arithmetic_impl@Uoutput@iostreams@boost@@@detail@boost@@2_NB
CONST	SEGMENT
?value@?$is_arithmetic_impl@Uoutput@iostreams@boost@@@detail@boost@@2_NB DB 00H ; boost::detail::is_arithmetic_impl<boost::iostreams::output>::value
CONST	ENDS
;	COMDAT ?value@?$is_convertible_impl@Uinput@iostreams@boost@@U123@@detail@boost@@2_NB
CONST	SEGMENT
?value@?$is_convertible_impl@Uinput@iostreams@boost@@U123@@detail@boost@@2_NB DB 01H ; boost::detail::is_convertible_impl<boost::iostreams::input,boost::iostreams::input>::value
CONST	ENDS
;	COMDAT ?value@?$ice_not@$0A@@type_traits@boost@@2_NB
CONST	SEGMENT
?value@?$ice_not@$0A@@type_traits@boost@@2_NB DB 01H	; boost::type_traits::ice_not<0>::value
CONST	ENDS
;	COMDAT ?value@?$ice_or@$00$0A@$0A@$0A@$0A@$0A@$0A@@type_traits@boost@@2_NB
CONST	SEGMENT
?value@?$ice_or@$00$0A@$0A@$0A@$0A@$0A@$0A@@type_traits@boost@@2_NB DB 01H ; boost::type_traits::ice_or<1,0,0,0,0,0,0>::value
CONST	ENDS
;	COMDAT ?value@?$is_convertible_basic_impl@AAUinput@iostreams@boost@@U123@@detail@boost@@2_NB
CONST	SEGMENT
?value@?$is_convertible_basic_impl@AAUinput@iostreams@boost@@U123@@detail@boost@@2_NB DB 01H ; boost::detail::is_convertible_basic_impl<boost::iostreams::input &,boost::iostreams::input>::value
CONST	ENDS
;	COMDAT ?value@?$is_abstract_imp@Uinput@iostreams@boost@@@detail@boost@@2_NB
CONST	SEGMENT
?value@?$is_abstract_imp@Uinput@iostreams@boost@@@detail@boost@@2_NB DB 00H ; boost::detail::is_abstract_imp<boost::iostreams::input>::value
CONST	ENDS
;	COMDAT ?value@?$is_arithmetic_impl@Uinput@iostreams@boost@@@detail@boost@@2_NB
CONST	SEGMENT
?value@?$is_arithmetic_impl@Uinput@iostreams@boost@@@detail@boost@@2_NB DB 00H ; boost::detail::is_arithmetic_impl<boost::iostreams::input>::value
CONST	ENDS
;	COMDAT ?step_size@?$linear_feedback_shift@K$0CA@$0BN@$01$03$0A@@random@boost@@2HB
CONST	SEGMENT
?step_size@?$linear_feedback_shift@K$0CA@$0BN@$01$03$0A@@random@boost@@2HB DD 04H ; boost::random::linear_feedback_shift<unsigned long,32,29,2,4,0>::step_size
CONST	ENDS
;	COMDAT ?exponent2@?$linear_feedback_shift@K$0CA@$0BN@$01$03$0A@@random@boost@@2HB
CONST	SEGMENT
?exponent2@?$linear_feedback_shift@K$0CA@$0BN@$01$03$0A@@random@boost@@2HB DD 02H ; boost::random::linear_feedback_shift<unsigned long,32,29,2,4,0>::exponent2
CONST	ENDS
;	COMDAT ?exponent1@?$linear_feedback_shift@K$0CA@$0BN@$01$03$0A@@random@boost@@2HB
CONST	SEGMENT
?exponent1@?$linear_feedback_shift@K$0CA@$0BN@$01$03$0A@@random@boost@@2HB DD 01dH ; boost::random::linear_feedback_shift<unsigned long,32,29,2,4,0>::exponent1
CONST	ENDS
;	COMDAT ?word_size@?$linear_feedback_shift@K$0CA@$0BN@$01$03$0A@@random@boost@@2HB
CONST	SEGMENT
?word_size@?$linear_feedback_shift@K$0CA@$0BN@$01$03$0A@@random@boost@@2HB DD 020H ; boost::random::linear_feedback_shift<unsigned long,32,29,2,4,0>::word_size
CONST	ENDS
;	COMDAT ?has_fixed_range@?$linear_feedback_shift@K$0CA@$0BN@$01$03$0A@@random@boost@@2_NB
CONST	SEGMENT
?has_fixed_range@?$linear_feedback_shift@K$0CA@$0BN@$01$03$0A@@random@boost@@2_NB DB 00H ; boost::random::linear_feedback_shift<unsigned long,32,29,2,4,0>::has_fixed_range
CONST	ENDS
;	COMDAT ?shift2@?$xor_combine@V?$linear_feedback_shift@K$0CA@$0BP@$0N@$0M@$0A@@random@boost@@$0A@V?$linear_feedback_shift@K$0CA@$0BN@$01$03$0A@@23@$0A@$0A@@random@boost@@2HB
CONST	SEGMENT
?shift2@?$xor_combine@V?$linear_feedback_shift@K$0CA@$0BP@$0N@$0M@$0A@@random@boost@@$0A@V?$linear_feedback_shift@K$0CA@$0BN@$01$03$0A@@23@$0A@$0A@@random@boost@@2HB DD 00H ; boost::random::xor_combine<boost::random::linear_feedback_shift<unsigned long,32,31,13,12,0>,0,boost::random::linear_feedback_shift<unsigned long,32,29,2,4,0>,0,0>::shift2
CONST	ENDS
;	COMDAT ?shift1@?$xor_combine@V?$linear_feedback_shift@K$0CA@$0BP@$0N@$0M@$0A@@random@boost@@$0A@V?$linear_feedback_shift@K$0CA@$0BN@$01$03$0A@@23@$0A@$0A@@random@boost@@2HB
CONST	SEGMENT
?shift1@?$xor_combine@V?$linear_feedback_shift@K$0CA@$0BP@$0N@$0M@$0A@@random@boost@@$0A@V?$linear_feedback_shift@K$0CA@$0BN@$01$03$0A@@23@$0A@$0A@@random@boost@@2HB DD 00H ; boost::random::xor_combine<boost::random::linear_feedback_shift<unsigned long,32,31,13,12,0>,0,boost::random::linear_feedback_shift<unsigned long,32,29,2,4,0>,0,0>::shift1
CONST	ENDS
;	COMDAT ?has_fixed_range@?$xor_combine@V?$linear_feedback_shift@K$0CA@$0BP@$0N@$0M@$0A@@random@boost@@$0A@V?$linear_feedback_shift@K$0CA@$0BN@$01$03$0A@@23@$0A@$0A@@random@boost@@2_NB
CONST	SEGMENT
?has_fixed_range@?$xor_combine@V?$linear_feedback_shift@K$0CA@$0BP@$0N@$0M@$0A@@random@boost@@$0A@V?$linear_feedback_shift@K$0CA@$0BN@$01$03$0A@@23@$0A@$0A@@random@boost@@2_NB DB 00H ; boost::random::xor_combine<boost::random::linear_feedback_shift<unsigned long,32,31,13,12,0>,0,boost::random::linear_feedback_shift<unsigned long,32,29,2,4,0>,0,0>::has_fixed_range
CONST	ENDS
;	COMDAT ?step_size@?$linear_feedback_shift@K$0CA@$0BP@$0N@$0M@$0A@@random@boost@@2HB
CONST	SEGMENT
?step_size@?$linear_feedback_shift@K$0CA@$0BP@$0N@$0M@$0A@@random@boost@@2HB DD 0cH ; boost::random::linear_feedback_shift<unsigned long,32,31,13,12,0>::step_size
CONST	ENDS
;	COMDAT ?exponent2@?$linear_feedback_shift@K$0CA@$0BP@$0N@$0M@$0A@@random@boost@@2HB
CONST	SEGMENT
?exponent2@?$linear_feedback_shift@K$0CA@$0BP@$0N@$0M@$0A@@random@boost@@2HB DD 0dH ; boost::random::linear_feedback_shift<unsigned long,32,31,13,12,0>::exponent2
CONST	ENDS
;	COMDAT ?exponent1@?$linear_feedback_shift@K$0CA@$0BP@$0N@$0M@$0A@@random@boost@@2HB
CONST	SEGMENT
?exponent1@?$linear_feedback_shift@K$0CA@$0BP@$0N@$0M@$0A@@random@boost@@2HB DD 01fH ; boost::random::linear_feedback_shift<unsigned long,32,31,13,12,0>::exponent1
CONST	ENDS
;	COMDAT ?word_size@?$linear_feedback_shift@K$0CA@$0BP@$0N@$0M@$0A@@random@boost@@2HB
CONST	SEGMENT
?word_size@?$linear_feedback_shift@K$0CA@$0BP@$0N@$0M@$0A@@random@boost@@2HB DD 020H ; boost::random::linear_feedback_shift<unsigned long,32,31,13,12,0>::word_size
CONST	ENDS
;	COMDAT ?has_fixed_range@?$linear_feedback_shift@K$0CA@$0BP@$0N@$0M@$0A@@random@boost@@2_NB
CONST	SEGMENT
?has_fixed_range@?$linear_feedback_shift@K$0CA@$0BP@$0N@$0M@$0A@@random@boost@@2_NB DB 00H ; boost::random::linear_feedback_shift<unsigned long,32,31,13,12,0>::has_fixed_range
CONST	ENDS
;	COMDAT ?is_specialized@?$fibonacci_validation@N$0KNNB@$0FCCK@@random@boost@@2_NB
CONST	SEGMENT
?is_specialized@?$fibonacci_validation@N$0KNNB@$0FCCK@@random@boost@@2_NB DB 01H ; boost::random::fibonacci_validation<double,44497,21034>::is_specialized
CONST	ENDS
;	COMDAT ?is_specialized@?$fibonacci_validation@N$0FKKJ@$0DEJO@@random@boost@@2_NB
CONST	SEGMENT
?is_specialized@?$fibonacci_validation@N$0FKKJ@$0DEJO@@random@boost@@2_NB DB 01H ; boost::random::fibonacci_validation<double,23209,13470>::is_specialized
CONST	ENDS
;	COMDAT ?is_specialized@?$fibonacci_validation@N$0ENOB@$0CGHC@@random@boost@@2_NB
CONST	SEGMENT
?is_specialized@?$fibonacci_validation@N$0ENOB@$0CGHC@@random@boost@@2_NB DB 01H ; boost::random::fibonacci_validation<double,19937,9842>::is_specialized
CONST	ENDS
;	COMDAT ?is_specialized@?$fibonacci_validation@N$0CFNJ@$0BFHO@@random@boost@@2_NB
CONST	SEGMENT
?is_specialized@?$fibonacci_validation@N$0CFNJ@$0BFHO@@random@boost@@2_NB DB 01H ; boost::random::fibonacci_validation<double,9689,5502>::is_specialized
CONST	ENDS
;	COMDAT ?is_specialized@?$fibonacci_validation@N$0BBEH@$0IDC@@random@boost@@2_NB
CONST	SEGMENT
?is_specialized@?$fibonacci_validation@N$0BBEH@$0IDC@@random@boost@@2_NB DB 01H ; boost::random::fibonacci_validation<double,4423,2098>::is_specialized
CONST	ENDS
;	COMDAT ?is_specialized@?$fibonacci_validation@N$0MJB@$0CEA@@random@boost@@2_NB
CONST	SEGMENT
?is_specialized@?$fibonacci_validation@N$0MJB@$0CEA@@random@boost@@2_NB DB 01H ; boost::random::fibonacci_validation<double,3217,576>::is_specialized
CONST	ENDS
;	COMDAT ?is_specialized@?$fibonacci_validation@N$0IOJ@$0EOE@@random@boost@@2_NB
CONST	SEGMENT
?is_specialized@?$fibonacci_validation@N$0IOJ@$0EOE@@random@boost@@2_NB DB 01H ; boost::random::fibonacci_validation<double,2281,1252>::is_specialized
CONST	ENDS
;	COMDAT ?is_specialized@?$fibonacci_validation@N$0EPP@$0BKC@@random@boost@@2_NB
CONST	SEGMENT
?is_specialized@?$fibonacci_validation@N$0EPP@$0BKC@@random@boost@@2_NB DB 01H ; boost::random::fibonacci_validation<double,1279,418>::is_specialized
CONST	ENDS
;	COMDAT ?is_specialized@?$fibonacci_validation@N$0CFP@$0BBB@@random@boost@@2_NB
CONST	SEGMENT
?is_specialized@?$fibonacci_validation@N$0CFP@$0BBB@@random@boost@@2_NB DB 01H ; boost::random::fibonacci_validation<double,607,273>::is_specialized
CONST	ENDS
;	COMDAT ?modulus@?$linear_congruential@K$0FFG@$0CENGJ@$0KOFCJ@$0A@@random@boost@@2KB
CONST	SEGMENT
?modulus@?$linear_congruential@K$0FFG@$0CENGJ@$0KOFCJ@$0A@@random@boost@@2KB DD 0ae529H ; boost::random::linear_congruential<unsigned long,1366,150889,714025,0>::modulus
CONST	ENDS
;	COMDAT ?increment@?$linear_congruential@K$0FFG@$0CENGJ@$0KOFCJ@$0A@@random@boost@@2KB
CONST	SEGMENT
?increment@?$linear_congruential@K$0FFG@$0CENGJ@$0KOFCJ@$0A@@random@boost@@2KB DD 024d69H ; boost::random::linear_congruential<unsigned long,1366,150889,714025,0>::increment
CONST	ENDS
;	COMDAT ?multiplier@?$linear_congruential@K$0FFG@$0CENGJ@$0KOFCJ@$0A@@random@boost@@2KB
CONST	SEGMENT
?multiplier@?$linear_congruential@K$0FFG@$0CENGJ@$0KOFCJ@$0A@@random@boost@@2KB DD 0556H ; boost::random::linear_congruential<unsigned long,1366,150889,714025,0>::multiplier
CONST	ENDS
;	COMDAT ?max_value@?$linear_congruential@K$0FFG@$0CENGJ@$0KOFCJ@$0A@@random@boost@@2KB
CONST	SEGMENT
?max_value@?$linear_congruential@K$0FFG@$0CENGJ@$0KOFCJ@$0A@@random@boost@@2KB DD 0ae528H ; boost::random::linear_congruential<unsigned long,1366,150889,714025,0>::max_value
CONST	ENDS
;	COMDAT ?min_value@?$linear_congruential@K$0FFG@$0CENGJ@$0KOFCJ@$0A@@random@boost@@2KB
CONST	SEGMENT
?min_value@?$linear_congruential@K$0FFG@$0CENGJ@$0KOFCJ@$0A@@random@boost@@2KB DD 00H ; boost::random::linear_congruential<unsigned long,1366,150889,714025,0>::min_value
CONST	ENDS
;	COMDAT ?has_fixed_range@?$linear_congruential@K$0FFG@$0CENGJ@$0KOFCJ@$0A@@random@boost@@2_NB
CONST	SEGMENT
?has_fixed_range@?$linear_congruential@K$0FFG@$0CENGJ@$0KOFCJ@$0A@@random@boost@@2_NB DB 01H ; boost::random::linear_congruential<unsigned long,1366,150889,714025,0>::has_fixed_range
CONST	ENDS
;	COMDAT ?modulus@?$linear_congruential@J$0JMEO@$0A@$0HPPPPPKL@$0A@@random@boost@@2JB
CONST	SEGMENT
?modulus@?$linear_congruential@J$0JMEO@$0A@$0HPPPPPKL@$0A@@random@boost@@2JB DD 07fffffabH ; boost::random::linear_congruential<long,40014,0,2147483563,0>::modulus
CONST	ENDS
;	COMDAT ?increment@?$linear_congruential@J$0JMEO@$0A@$0HPPPPPKL@$0A@@random@boost@@2JB
CONST	SEGMENT
?increment@?$linear_congruential@J$0JMEO@$0A@$0HPPPPPKL@$0A@@random@boost@@2JB DD 00H ; boost::random::linear_congruential<long,40014,0,2147483563,0>::increment
CONST	ENDS
;	COMDAT ?multiplier@?$linear_congruential@J$0JMEO@$0A@$0HPPPPPKL@$0A@@random@boost@@2JB
CONST	SEGMENT
?multiplier@?$linear_congruential@J$0JMEO@$0A@$0HPPPPPKL@$0A@@random@boost@@2JB DD 09c4eH ; boost::random::linear_congruential<long,40014,0,2147483563,0>::multiplier
CONST	ENDS
;	COMDAT ?max_value@?$linear_congruential@J$0JMEO@$0A@$0HPPPPPKL@$0A@@random@boost@@2JB
CONST	SEGMENT
?max_value@?$linear_congruential@J$0JMEO@$0A@$0HPPPPPKL@$0A@@random@boost@@2JB DD 07fffffaaH ; boost::random::linear_congruential<long,40014,0,2147483563,0>::max_value
CONST	ENDS
;	COMDAT ?min_value@?$linear_congruential@J$0JMEO@$0A@$0HPPPPPKL@$0A@@random@boost@@2JB
CONST	SEGMENT
?min_value@?$linear_congruential@J$0JMEO@$0A@$0HPPPPPKL@$0A@@random@boost@@2JB DD 01H ; boost::random::linear_congruential<long,40014,0,2147483563,0>::min_value
CONST	ENDS
;	COMDAT ?has_fixed_range@?$linear_congruential@J$0JMEO@$0A@$0HPPPPPKL@$0A@@random@boost@@2_NB
CONST	SEGMENT
?has_fixed_range@?$linear_congruential@J$0JMEO@$0A@$0HPPPPPKL@$0A@@random@boost@@2_NB DB 01H ; boost::random::linear_congruential<long,40014,0,2147483563,0>::has_fixed_range
CONST	ENDS
;	COMDAT ?modulus@?$linear_congruential@_K$0FNOOMOGGN@$0L@$0BAAAAAAAAAAAA@$0A@@random@boost@@2_KB
CONST	SEGMENT
?modulus@?$linear_congruential@_K$0FNOOMOGGN@$0L@$0BAAAAAAAAAAAA@$0A@@random@boost@@2_KB DQ 0001000000000000H ; boost::random::linear_congruential<unsigned __int64,25214903917,11,281474976710656,0>::modulus
CONST	ENDS
;	COMDAT ?increment@?$linear_congruential@_K$0FNOOMOGGN@$0L@$0BAAAAAAAAAAAA@$0A@@random@boost@@2_KB
CONST	SEGMENT
?increment@?$linear_congruential@_K$0FNOOMOGGN@$0L@$0BAAAAAAAAAAAA@$0A@@random@boost@@2_KB DQ 000000000000000bH ; boost::random::linear_congruential<unsigned __int64,25214903917,11,281474976710656,0>::increment
CONST	ENDS
;	COMDAT ?multiplier@?$linear_congruential@_K$0FNOOMOGGN@$0L@$0BAAAAAAAAAAAA@$0A@@random@boost@@2_KB
CONST	SEGMENT
?multiplier@?$linear_congruential@_K$0FNOOMOGGN@$0L@$0BAAAAAAAAAAAA@$0A@@random@boost@@2_KB DQ 00000005deece66dH ; boost::random::linear_congruential<unsigned __int64,25214903917,11,281474976710656,0>::multiplier
CONST	ENDS
;	COMDAT ?max_value@?$linear_congruential@_K$0FNOOMOGGN@$0L@$0BAAAAAAAAAAAA@$0A@@random@boost@@2_KB
CONST	SEGMENT
?max_value@?$linear_congruential@_K$0FNOOMOGGN@$0L@$0BAAAAAAAAAAAA@$0A@@random@boost@@2_KB DQ 0000ffffffffffffH ; boost::random::linear_congruential<unsigned __int64,25214903917,11,281474976710656,0>::max_value
CONST	ENDS
;	COMDAT ?min_value@?$linear_congruential@_K$0FNOOMOGGN@$0L@$0BAAAAAAAAAAAA@$0A@@random@boost@@2_KB
CONST	SEGMENT
?min_value@?$linear_congruential@_K$0FNOOMOGGN@$0L@$0BAAAAAAAAAAAA@$0A@@random@boost@@2_KB DQ 0000000000000000H ; boost::random::linear_congruential<unsigned __int64,25214903917,11,281474976710656,0>::min_value
CONST	ENDS
;	COMDAT ?has_fixed_range@?$linear_congruential@_K$0FNOOMOGGN@$0L@$0BAAAAAAAAAAAA@$0A@@random@boost@@2_NB
CONST	SEGMENT
?has_fixed_range@?$linear_congruential@_K$0FNOOMOGGN@$0L@$0BAAAAAAAAAAAA@$0A@@random@boost@@2_NB DB 01H ; boost::random::linear_congruential<unsigned __int64,25214903917,11,281474976710656,0>::has_fixed_range
CONST	ENDS
;	COMDAT ?max_value@rand48@boost@@2JB
CONST	SEGMENT
?max_value@rand48@boost@@2JB DD 07fffffffH		; boost::rand48::max_value
CONST	ENDS
;	COMDAT ?min_value@rand48@boost@@2JB
CONST	SEGMENT
?min_value@rand48@boost@@2JB DD 00H			; boost::rand48::min_value
CONST	ENDS
;	COMDAT ?has_fixed_range@rand48@boost@@2_NB
CONST	SEGMENT
?has_fixed_range@rand48@boost@@2_NB DB 01H		; boost::rand48::has_fixed_range
CONST	ENDS
;	COMDAT ?value@?$implementation_level@V?$vector@_WV?$allocator@_W@std@@@std@@@serialization@boost@@2HB
CONST	SEGMENT
?value@?$implementation_level@V?$vector@_WV?$allocator@_W@std@@@std@@@serialization@boost@@2HB DD 02H ; boost::serialization::implementation_level<std::vector<wchar_t,std::allocator<wchar_t> > >::value
CONST	ENDS
;	COMDAT ?value@?$implementation_level@V?$vector@_KV?$allocator@_K@std@@@std@@@serialization@boost@@2HB
CONST	SEGMENT
?value@?$implementation_level@V?$vector@_KV?$allocator@_K@std@@@std@@@serialization@boost@@2HB DD 02H ; boost::serialization::implementation_level<std::vector<unsigned __int64,std::allocator<unsigned __int64> > >::value
CONST	ENDS
;	COMDAT ?value@?$implementation_level@V?$vector@_JV?$allocator@_J@std@@@std@@@serialization@boost@@2HB
CONST	SEGMENT
?value@?$implementation_level@V?$vector@_JV?$allocator@_J@std@@@std@@@serialization@boost@@2HB DD 02H ; boost::serialization::implementation_level<std::vector<__int64,std::allocator<__int64> > >::value
CONST	ENDS
;	COMDAT ?value@?$implementation_level@V?$vector@FV?$allocator@F@std@@@std@@@serialization@boost@@2HB
CONST	SEGMENT
?value@?$implementation_level@V?$vector@FV?$allocator@F@std@@@std@@@serialization@boost@@2HB DD 02H ; boost::serialization::implementation_level<std::vector<short,std::allocator<short> > >::value
CONST	ENDS
;	COMDAT ?value@?$implementation_level@V?$vector@GV?$allocator@G@std@@@std@@@serialization@boost@@2HB
CONST	SEGMENT
?value@?$implementation_level@V?$vector@GV?$allocator@G@std@@@std@@@serialization@boost@@2HB DD 02H ; boost::serialization::implementation_level<std::vector<unsigned short,std::allocator<unsigned short> > >::value
CONST	ENDS
;	COMDAT ?value@?$implementation_level@V?$vector@NV?$allocator@N@std@@@std@@@serialization@boost@@2HB
CONST	SEGMENT
?value@?$implementation_level@V?$vector@NV?$allocator@N@std@@@std@@@serialization@boost@@2HB DD 02H ; boost::serialization::implementation_level<std::vector<double,std::allocator<double> > >::value
CONST	ENDS
;	COMDAT ?value@?$implementation_level@V?$vector@MV?$allocator@M@std@@@std@@@serialization@boost@@2HB
CONST	SEGMENT
?value@?$implementation_level@V?$vector@MV?$allocator@M@std@@@std@@@serialization@boost@@2HB DD 02H ; boost::serialization::implementation_level<std::vector<float,std::allocator<float> > >::value
CONST	ENDS
;	COMDAT ?value@?$implementation_level@V?$vector@KV?$allocator@K@std@@@std@@@serialization@boost@@2HB
CONST	SEGMENT
?value@?$implementation_level@V?$vector@KV?$allocator@K@std@@@std@@@serialization@boost@@2HB DD 02H ; boost::serialization::implementation_level<std::vector<unsigned long,std::allocator<unsigned long> > >::value
CONST	ENDS
;	COMDAT ?value@?$implementation_level@V?$vector@JV?$allocator@J@std@@@std@@@serialization@boost@@2HB
CONST	SEGMENT
?value@?$implementation_level@V?$vector@JV?$allocator@J@std@@@std@@@serialization@boost@@2HB DD 02H ; boost::serialization::implementation_level<std::vector<long,std::allocator<long> > >::value
CONST	ENDS
;	COMDAT ?value@?$implementation_level@V?$vector@IV?$allocator@I@std@@@std@@@serialization@boost@@2HB
CONST	SEGMENT
?value@?$implementation_level@V?$vector@IV?$allocator@I@std@@@std@@@serialization@boost@@2HB DD 02H ; boost::serialization::implementation_level<std::vector<unsigned int,std::allocator<unsigned int> > >::value
CONST	ENDS
;	COMDAT ?value@?$implementation_level@V?$vector@HV?$allocator@H@std@@@std@@@serialization@boost@@2HB
CONST	SEGMENT
?value@?$implementation_level@V?$vector@HV?$allocator@H@std@@@std@@@serialization@boost@@2HB DD 02H ; boost::serialization::implementation_level<std::vector<int,std::allocator<int> > >::value
CONST	ENDS
;	COMDAT ?value@?$implementation_level@V?$vector@EV?$allocator@E@std@@@std@@@serialization@boost@@2HB
CONST	SEGMENT
?value@?$implementation_level@V?$vector@EV?$allocator@E@std@@@std@@@serialization@boost@@2HB DD 02H ; boost::serialization::implementation_level<std::vector<unsigned char,std::allocator<unsigned char> > >::value
CONST	ENDS
;	COMDAT ?value@?$implementation_level@V?$vector@CV?$allocator@C@std@@@std@@@serialization@boost@@2HB
CONST	SEGMENT
?value@?$implementation_level@V?$vector@CV?$allocator@C@std@@@std@@@serialization@boost@@2HB DD 02H ; boost::serialization::implementation_level<std::vector<signed char,std::allocator<signed char> > >::value
CONST	ENDS
;	COMDAT ?value@?$implementation_level@V?$vector@DV?$allocator@D@std@@@std@@@serialization@boost@@2HB
CONST	SEGMENT
?value@?$implementation_level@V?$vector@DV?$allocator@D@std@@@std@@@serialization@boost@@2HB DD 02H ; boost::serialization::implementation_level<std::vector<char,std::allocator<char> > >::value
CONST	ENDS
;	COMDAT ?value@?$implementation_level@V?$vector@_NV?$allocator@_N@std@@@std@@@serialization@boost@@2HB
CONST	SEGMENT
?value@?$implementation_level@V?$vector@_NV?$allocator@_N@std@@@std@@@serialization@boost@@2HB DD 02H ; boost::serialization::implementation_level<std::vector<bool,std::allocator<bool> > >::value
CONST	ENDS
;	COMDAT ?value@?$implementation_level@Ucollection_size_type@serialization@boost@@@serialization@boost@@2HB
CONST	SEGMENT
?value@?$implementation_level@Ucollection_size_type@serialization@boost@@@serialization@boost@@2HB DD 01H ; boost::serialization::implementation_level<boost::serialization::collection_size_type>::value
CONST	ENDS
;	COMDAT ?value@?$is_pod_impl@Ua128@align@boost@@@detail@boost@@2_NB
CONST	SEGMENT
?value@?$is_pod_impl@Ua128@align@boost@@@detail@boost@@2_NB DB 01H ; boost::detail::is_pod_impl<boost::align::a128>::value
CONST	ENDS
;	COMDAT ?value@?$is_pod_impl@Ua64@align@boost@@@detail@boost@@2_NB
CONST	SEGMENT
?value@?$is_pod_impl@Ua64@align@boost@@@detail@boost@@2_NB DB 01H ; boost::detail::is_pod_impl<boost::align::a64>::value
CONST	ENDS
;	COMDAT ?value@?$is_pod_impl@Ua32@align@boost@@@detail@boost@@2_NB
CONST	SEGMENT
?value@?$is_pod_impl@Ua32@align@boost@@@detail@boost@@2_NB DB 01H ; boost::detail::is_pod_impl<boost::align::a32>::value
CONST	ENDS
;	COMDAT ?value@?$is_pod_impl@Ua16@align@boost@@@detail@boost@@2_NB
CONST	SEGMENT
?value@?$is_pod_impl@Ua16@align@boost@@@detail@boost@@2_NB DB 01H ; boost::detail::is_pod_impl<boost::align::a16>::value
CONST	ENDS
;	COMDAT ?value@?$is_pod_impl@Ua8@align@boost@@@detail@boost@@2_NB
CONST	SEGMENT
?value@?$is_pod_impl@Ua8@align@boost@@@detail@boost@@2_NB DB 01H ; boost::detail::is_pod_impl<boost::align::a8>::value
CONST	ENDS
;	COMDAT ?found@?$type_with_alignment_imp@$07@detail@boost@@0IB
CONST	SEGMENT
?found@?$type_with_alignment_imp@$07@detail@boost@@0IB DD 08H ; boost::detail::type_with_alignment_imp<8>::found
CONST	ENDS
;	COMDAT ?value@?$is_aligned@$07$07@detail@boost@@2_NB
CONST	SEGMENT
?value@?$is_aligned@$07$07@detail@boost@@2_NB DB 01H	; boost::detail::is_aligned<8,8>::value
CONST	ENDS
;	COMDAT ?value@?$alignment_of_impl@T?$lower_alignment@$07@detail@boost@@@detail@boost@@2IB
CONST	SEGMENT
?value@?$alignment_of_impl@T?$lower_alignment@$07@detail@boost@@@detail@boost@@2IB DD 08H ; boost::detail::alignment_of_impl<boost::detail::lower_alignment<8> >::value
CONST	ENDS
;	COMDAT ?value@?$alignment_of_impl@_J@detail@boost@@2IB
CONST	SEGMENT
?value@?$alignment_of_impl@_J@detail@boost@@2IB DD 08H	; boost::detail::alignment_of_impl<__int64>::value
CONST	ENDS
;	COMDAT ?value@?$alignment_of_impl@J@detail@boost@@2IB
CONST	SEGMENT
?value@?$alignment_of_impl@J@detail@boost@@2IB DD 04H	; boost::detail::alignment_of_impl<long>::value
CONST	ENDS
;	COMDAT ?value@?$integral_c@I$03@mpl@boost@@2IB
CONST	SEGMENT
?value@?$integral_c@I$03@mpl@boost@@2IB DD 04H		; boost::mpl::integral_c<unsigned int,4>::value
CONST	ENDS
;	COMDAT ?value@?$alignment_of_impl@H@detail@boost@@2IB
CONST	SEGMENT
?value@?$alignment_of_impl@H@detail@boost@@2IB DD 04H	; boost::detail::alignment_of_impl<int>::value
CONST	ENDS
;	COMDAT ?value@?$alignment_logic@$03$03@detail@boost@@2IB
CONST	SEGMENT
?value@?$alignment_logic@$03$03@detail@boost@@2IB DD 04H ; boost::detail::alignment_logic<4,4>::value
CONST	ENDS
;	COMDAT ?value@?$integral_c@I$01@mpl@boost@@2IB
CONST	SEGMENT
?value@?$integral_c@I$01@mpl@boost@@2IB DD 02H		; boost::mpl::integral_c<unsigned int,2>::value
CONST	ENDS
;	COMDAT ?value@?$alignment_of_impl@F@detail@boost@@2IB
CONST	SEGMENT
?value@?$alignment_of_impl@F@detail@boost@@2IB DD 02H	; boost::detail::alignment_of_impl<short>::value
CONST	ENDS
;	COMDAT ?value@?$alignment_logic@$01$01@detail@boost@@2IB
CONST	SEGMENT
?value@?$alignment_logic@$01$01@detail@boost@@2IB DD 02H ; boost::detail::alignment_logic<2,2>::value
CONST	ENDS
;	COMDAT ?value@?$integral_c@I$00@mpl@boost@@2IB
CONST	SEGMENT
?value@?$integral_c@I$00@mpl@boost@@2IB DD 01H		; boost::mpl::integral_c<unsigned int,1>::value
CONST	ENDS
;	COMDAT ?value@?$alignment_of_impl@D@detail@boost@@2IB
CONST	SEGMENT
?value@?$alignment_of_impl@D@detail@boost@@2IB DD 01H	; boost::detail::alignment_of_impl<char>::value
CONST	ENDS
;	COMDAT ?value@?$alignment_logic@$00$00@detail@boost@@2IB
CONST	SEGMENT
?value@?$alignment_logic@$00$00@detail@boost@@2IB DD 01H ; boost::detail::alignment_logic<1,1>::value
CONST	ENDS
;	COMDAT ?value@?$integral_c@I$07@mpl@boost@@2IB
CONST	SEGMENT
?value@?$integral_c@I$07@mpl@boost@@2IB DD 08H		; boost::mpl::integral_c<unsigned int,8>::value
CONST	ENDS
;	COMDAT ?value@?$alignment_of_impl@Tmax_align@detail@boost@@@detail@boost@@2IB
CONST	SEGMENT
?value@?$alignment_of_impl@Tmax_align@detail@boost@@@detail@boost@@2IB DD 08H ; boost::detail::alignment_of_impl<boost::detail::max_align>::value
CONST	ENDS
;	COMDAT ?value@?$alignment_logic@$07$07@detail@boost@@2IB
CONST	SEGMENT
?value@?$alignment_logic@$07$07@detail@boost@@2IB DD 08H ; boost::detail::alignment_logic<8,8>::value
CONST	ENDS
;	COMDAT ?value@?$integral_c@I$0A@@mpl@boost@@2IB
CONST	SEGMENT
?value@?$integral_c@I$0A@@mpl@boost@@2IB DD 00H		; boost::mpl::integral_c<unsigned int,0>::value
CONST	ENDS
;	COMDAT ?value@?$integral_constant@_N$00@tr1@std@@2_NB
CONST	SEGMENT
?value@?$integral_constant@_N$00@tr1@std@@2_NB DB 01H	; std::tr1::integral_constant<bool,1>::value
CONST	ENDS
;	COMDAT ?value@?$integral_constant@_N$0A@@tr1@std@@2_NB
CONST	SEGMENT
?value@?$integral_constant@_N$0A@@tr1@std@@2_NB DB 00H	; std::tr1::integral_constant<bool,0>::value
CONST	ENDS
;	COMDAT ?value@?$is_pod_impl@$$CDX@detail@boost@@2_NB
CONST	SEGMENT
?value@?$is_pod_impl@$$CDX@detail@boost@@2_NB DB 01H	; boost::detail::is_pod_impl<void const volatile >::value
CONST	ENDS
;	COMDAT ?value@?$is_pod_impl@$$CCX@detail@boost@@2_NB
CONST	SEGMENT
?value@?$is_pod_impl@$$CCX@detail@boost@@2_NB DB 01H	; boost::detail::is_pod_impl<void volatile >::value
CONST	ENDS
;	COMDAT ?value@?$is_pod_impl@$$CBX@detail@boost@@2_NB
CONST	SEGMENT
?value@?$is_pod_impl@$$CBX@detail@boost@@2_NB DB 01H	; boost::detail::is_pod_impl<void const >::value
CONST	ENDS
;	COMDAT ?value@?$is_pod_impl@X@detail@boost@@2_NB
CONST	SEGMENT
?value@?$is_pod_impl@X@detail@boost@@2_NB DB 01H	; boost::detail::is_pod_impl<void>::value
CONST	ENDS
;	COMDAT ?value@?$is_scalar_impl@$$CDX@detail@boost@@2_NB
CONST	SEGMENT
?value@?$is_scalar_impl@$$CDX@detail@boost@@2_NB DB 00H	; boost::detail::is_scalar_impl<void const volatile >::value
CONST	ENDS
;	COMDAT ?value@?$is_scalar_impl@$$CCX@detail@boost@@2_NB
CONST	SEGMENT
?value@?$is_scalar_impl@$$CCX@detail@boost@@2_NB DB 00H	; boost::detail::is_scalar_impl<void volatile >::value
CONST	ENDS
;	COMDAT ?value@?$is_scalar_impl@$$CBX@detail@boost@@2_NB
CONST	SEGMENT
?value@?$is_scalar_impl@$$CBX@detail@boost@@2_NB DB 00H	; boost::detail::is_scalar_impl<void const >::value
CONST	ENDS
;	COMDAT ?value@?$is_scalar_impl@X@detail@boost@@2_NB
CONST	SEGMENT
?value@?$is_scalar_impl@X@detail@boost@@2_NB DB 00H	; boost::detail::is_scalar_impl<void>::value
CONST	ENDS
;	COMDAT ?value@?$is_member_function_pointer_impl@$$CDX@detail@boost@@2_NB
CONST	SEGMENT
?value@?$is_member_function_pointer_impl@$$CDX@detail@boost@@2_NB DB 00H ; boost::detail::is_member_function_pointer_impl<void const volatile >::value
CONST	ENDS
;	COMDAT ?value@?$is_member_function_pointer_impl@$$CCX@detail@boost@@2_NB
CONST	SEGMENT
?value@?$is_member_function_pointer_impl@$$CCX@detail@boost@@2_NB DB 00H ; boost::detail::is_member_function_pointer_impl<void volatile >::value
CONST	ENDS
;	COMDAT ?value@?$is_member_function_pointer_impl@$$CBX@detail@boost@@2_NB
CONST	SEGMENT
?value@?$is_member_function_pointer_impl@$$CBX@detail@boost@@2_NB DB 00H ; boost::detail::is_member_function_pointer_impl<void const >::value
CONST	ENDS
;	COMDAT ?value@?$is_member_function_pointer_impl@X@detail@boost@@2_NB
CONST	SEGMENT
?value@?$is_member_function_pointer_impl@X@detail@boost@@2_NB DB 00H ; boost::detail::is_member_function_pointer_impl<void>::value
CONST	ENDS
;	COMDAT ?value@?$arg@$04@mpl@boost@@2HB
CONST	SEGMENT
?value@?$arg@$04@mpl@boost@@2HB DD 05H			; boost::mpl::arg<5>::value
CONST	ENDS
;	COMDAT ?value@?$arg@$03@mpl@boost@@2HB
CONST	SEGMENT
?value@?$arg@$03@mpl@boost@@2HB DD 04H			; boost::mpl::arg<4>::value
CONST	ENDS
;	COMDAT ?value@?$arg@$02@mpl@boost@@2HB
CONST	SEGMENT
?value@?$arg@$02@mpl@boost@@2HB DD 03H			; boost::mpl::arg<3>::value
CONST	ENDS
;	COMDAT ?value@?$arg@$01@mpl@boost@@2HB
CONST	SEGMENT
?value@?$arg@$01@mpl@boost@@2HB DD 02H			; boost::mpl::arg<2>::value
CONST	ENDS
;	COMDAT ?value@?$arg@$00@mpl@boost@@2HB
CONST	SEGMENT
?value@?$arg@$00@mpl@boost@@2HB DD 01H			; boost::mpl::arg<1>::value
CONST	ENDS
;	COMDAT ?value@?$arg@$0?0@mpl@boost@@2HB
CONST	SEGMENT
?value@?$arg@$0?0@mpl@boost@@2HB DD 0ffffffffH		; boost::mpl::arg<-1>::value
CONST	ENDS
;	COMDAT ?value@?$int_@$0M@@mpl@boost@@2HB
CONST	SEGMENT
?value@?$int_@$0M@@mpl@boost@@2HB DD 0cH		; boost::mpl::int_<12>::value
CONST	ENDS
;	COMDAT ?value@?$int_@$0L@@mpl@boost@@2HB
CONST	SEGMENT
?value@?$int_@$0L@@mpl@boost@@2HB DD 0bH		; boost::mpl::int_<11>::value
CONST	ENDS
;	COMDAT ?value@?$int_@$09@mpl@boost@@2HB
CONST	SEGMENT
?value@?$int_@$09@mpl@boost@@2HB DD 0aH			; boost::mpl::int_<10>::value
CONST	ENDS
;	COMDAT ?value@?$int_@$08@mpl@boost@@2HB
CONST	SEGMENT
?value@?$int_@$08@mpl@boost@@2HB DD 09H			; boost::mpl::int_<9>::value
CONST	ENDS
;	COMDAT ?value@?$int_@$07@mpl@boost@@2HB
CONST	SEGMENT
?value@?$int_@$07@mpl@boost@@2HB DD 08H			; boost::mpl::int_<8>::value
CONST	ENDS
;	COMDAT ?value@?$int_@$06@mpl@boost@@2HB
CONST	SEGMENT
?value@?$int_@$06@mpl@boost@@2HB DD 07H			; boost::mpl::int_<7>::value
CONST	ENDS
;	COMDAT ?value@?$int_@$05@mpl@boost@@2HB
CONST	SEGMENT
?value@?$int_@$05@mpl@boost@@2HB DD 06H			; boost::mpl::int_<6>::value
CONST	ENDS
;	COMDAT ?value@?$int_@$04@mpl@boost@@2HB
CONST	SEGMENT
?value@?$int_@$04@mpl@boost@@2HB DD 05H			; boost::mpl::int_<5>::value
CONST	ENDS
;	COMDAT ?value@?$int_@$03@mpl@boost@@2HB
CONST	SEGMENT
?value@?$int_@$03@mpl@boost@@2HB DD 04H			; boost::mpl::int_<4>::value
CONST	ENDS
;	COMDAT ?value@?$int_@$02@mpl@boost@@2HB
CONST	SEGMENT
?value@?$int_@$02@mpl@boost@@2HB DD 03H			; boost::mpl::int_<3>::value
CONST	ENDS
;	COMDAT ?value@?$int_@$01@mpl@boost@@2HB
CONST	SEGMENT
?value@?$int_@$01@mpl@boost@@2HB DD 02H			; boost::mpl::int_<2>::value
CONST	ENDS
;	COMDAT ?value@?$int_@$00@mpl@boost@@2HB
CONST	SEGMENT
?value@?$int_@$00@mpl@boost@@2HB DD 01H			; boost::mpl::int_<1>::value
CONST	ENDS
;	COMDAT ?value@?$select_by_size@$0BF@@detail@iostreams@boost@@2HB
CONST	SEGMENT
?value@?$select_by_size@$0BF@@detail@iostreams@boost@@2HB DD 013H ; boost::iostreams::detail::select_by_size<21>::value
CONST	ENDS
;	COMDAT ?value@type@?$select_by_size@$0BF@@detail@iostreams@boost@@2HB
CONST	SEGMENT
?value@type@?$select_by_size@$0BF@@detail@iostreams@boost@@2HB DD 013H ; boost::iostreams::detail::select_by_size<21>::type::value
CONST	ENDS
;	COMDAT ?value@?$select_by_size@$0BE@@detail@iostreams@boost@@2HB
CONST	SEGMENT
?value@?$select_by_size@$0BE@@detail@iostreams@boost@@2HB DD 012H ; boost::iostreams::detail::select_by_size<20>::value
CONST	ENDS
;	COMDAT ?value@type@?$select_by_size@$0BE@@detail@iostreams@boost@@2HB
CONST	SEGMENT
?value@type@?$select_by_size@$0BE@@detail@iostreams@boost@@2HB DD 012H ; boost::iostreams::detail::select_by_size<20>::type::value
CONST	ENDS
;	COMDAT ?value@?$select_by_size@$0BD@@detail@iostreams@boost@@2HB
CONST	SEGMENT
?value@?$select_by_size@$0BD@@detail@iostreams@boost@@2HB DD 011H ; boost::iostreams::detail::select_by_size<19>::value
CONST	ENDS
;	COMDAT ?value@type@?$select_by_size@$0BD@@detail@iostreams@boost@@2HB
CONST	SEGMENT
?value@type@?$select_by_size@$0BD@@detail@iostreams@boost@@2HB DD 011H ; boost::iostreams::detail::select_by_size<19>::type::value
CONST	ENDS
;	COMDAT ?value@?$select_by_size@$0BC@@detail@iostreams@boost@@2HB
CONST	SEGMENT
?value@?$select_by_size@$0BC@@detail@iostreams@boost@@2HB DD 010H ; boost::iostreams::detail::select_by_size<18>::value
CONST	ENDS
;	COMDAT ?value@type@?$select_by_size@$0BC@@detail@iostreams@boost@@2HB
CONST	SEGMENT
?value@type@?$select_by_size@$0BC@@detail@iostreams@boost@@2HB DD 010H ; boost::iostreams::detail::select_by_size<18>::type::value
CONST	ENDS
;	COMDAT ?value@?$select_by_size@$0BB@@detail@iostreams@boost@@2HB
CONST	SEGMENT
?value@?$select_by_size@$0BB@@detail@iostreams@boost@@2HB DD 0fH ; boost::iostreams::detail::select_by_size<17>::value
CONST	ENDS
;	COMDAT ?value@type@?$select_by_size@$0BB@@detail@iostreams@boost@@2HB
CONST	SEGMENT
?value@type@?$select_by_size@$0BB@@detail@iostreams@boost@@2HB DD 0fH ; boost::iostreams::detail::select_by_size<17>::type::value
CONST	ENDS
;	COMDAT ?value@?$select_by_size@$0BA@@detail@iostreams@boost@@2HB
CONST	SEGMENT
?value@?$select_by_size@$0BA@@detail@iostreams@boost@@2HB DD 0eH ; boost::iostreams::detail::select_by_size<16>::value
CONST	ENDS
;	COMDAT ?value@type@?$select_by_size@$0BA@@detail@iostreams@boost@@2HB
CONST	SEGMENT
?value@type@?$select_by_size@$0BA@@detail@iostreams@boost@@2HB DD 0eH ; boost::iostreams::detail::select_by_size<16>::type::value
CONST	ENDS
;	COMDAT ?value@?$select_by_size@$0P@@detail@iostreams@boost@@2HB
CONST	SEGMENT
?value@?$select_by_size@$0P@@detail@iostreams@boost@@2HB DD 0dH ; boost::iostreams::detail::select_by_size<15>::value
CONST	ENDS
;	COMDAT ?value@type@?$select_by_size@$0P@@detail@iostreams@boost@@2HB
CONST	SEGMENT
?value@type@?$select_by_size@$0P@@detail@iostreams@boost@@2HB DD 0dH ; boost::iostreams::detail::select_by_size<15>::type::value
CONST	ENDS
;	COMDAT ?value@?$select_by_size@$0O@@detail@iostreams@boost@@2HB
CONST	SEGMENT
?value@?$select_by_size@$0O@@detail@iostreams@boost@@2HB DD 0cH ; boost::iostreams::detail::select_by_size<14>::value
CONST	ENDS
;	COMDAT ?value@type@?$select_by_size@$0O@@detail@iostreams@boost@@2HB
CONST	SEGMENT
?value@type@?$select_by_size@$0O@@detail@iostreams@boost@@2HB DD 0cH ; boost::iostreams::detail::select_by_size<14>::type::value
CONST	ENDS
;	COMDAT ?value@?$select_by_size@$0N@@detail@iostreams@boost@@2HB
CONST	SEGMENT
?value@?$select_by_size@$0N@@detail@iostreams@boost@@2HB DD 0bH ; boost::iostreams::detail::select_by_size<13>::value
CONST	ENDS
;	COMDAT ?value@type@?$select_by_size@$0N@@detail@iostreams@boost@@2HB
CONST	SEGMENT
?value@type@?$select_by_size@$0N@@detail@iostreams@boost@@2HB DD 0bH ; boost::iostreams::detail::select_by_size<13>::type::value
CONST	ENDS
;	COMDAT ?value@?$select_by_size@$0M@@detail@iostreams@boost@@2HB
CONST	SEGMENT
?value@?$select_by_size@$0M@@detail@iostreams@boost@@2HB DD 0aH ; boost::iostreams::detail::select_by_size<12>::value
CONST	ENDS
;	COMDAT ?value@type@?$select_by_size@$0M@@detail@iostreams@boost@@2HB
CONST	SEGMENT
?value@type@?$select_by_size@$0M@@detail@iostreams@boost@@2HB DD 0aH ; boost::iostreams::detail::select_by_size<12>::type::value
CONST	ENDS
;	COMDAT ?value@?$select_by_size@$0L@@detail@iostreams@boost@@2HB
CONST	SEGMENT
?value@?$select_by_size@$0L@@detail@iostreams@boost@@2HB DD 09H ; boost::iostreams::detail::select_by_size<11>::value
CONST	ENDS
;	COMDAT ?value@type@?$select_by_size@$0L@@detail@iostreams@boost@@2HB
CONST	SEGMENT
?value@type@?$select_by_size@$0L@@detail@iostreams@boost@@2HB DD 09H ; boost::iostreams::detail::select_by_size<11>::type::value
CONST	ENDS
;	COMDAT ?value@?$select_by_size@$09@detail@iostreams@boost@@2HB
CONST	SEGMENT
?value@?$select_by_size@$09@detail@iostreams@boost@@2HB DD 08H ; boost::iostreams::detail::select_by_size<10>::value
CONST	ENDS
;	COMDAT ?value@type@?$select_by_size@$09@detail@iostreams@boost@@2HB
CONST	SEGMENT
?value@type@?$select_by_size@$09@detail@iostreams@boost@@2HB DD 08H ; boost::iostreams::detail::select_by_size<10>::type::value
CONST	ENDS
;	COMDAT ?value@?$select_by_size@$08@detail@iostreams@boost@@2HB
CONST	SEGMENT
?value@?$select_by_size@$08@detail@iostreams@boost@@2HB DD 07H ; boost::iostreams::detail::select_by_size<9>::value
CONST	ENDS
;	COMDAT ?value@type@?$select_by_size@$08@detail@iostreams@boost@@2HB
CONST	SEGMENT
?value@type@?$select_by_size@$08@detail@iostreams@boost@@2HB DD 07H ; boost::iostreams::detail::select_by_size<9>::type::value
CONST	ENDS
;	COMDAT ?value@?$select_by_size@$07@detail@iostreams@boost@@2HB
CONST	SEGMENT
?value@?$select_by_size@$07@detail@iostreams@boost@@2HB DD 06H ; boost::iostreams::detail::select_by_size<8>::value
CONST	ENDS
;	COMDAT ?value@type@?$select_by_size@$07@detail@iostreams@boost@@2HB
CONST	SEGMENT
?value@type@?$select_by_size@$07@detail@iostreams@boost@@2HB DD 06H ; boost::iostreams::detail::select_by_size<8>::type::value
CONST	ENDS
;	COMDAT ?value@?$select_by_size@$06@detail@iostreams@boost@@2HB
CONST	SEGMENT
?value@?$select_by_size@$06@detail@iostreams@boost@@2HB DD 05H ; boost::iostreams::detail::select_by_size<7>::value
CONST	ENDS
;	COMDAT ?value@type@?$select_by_size@$06@detail@iostreams@boost@@2HB
CONST	SEGMENT
?value@type@?$select_by_size@$06@detail@iostreams@boost@@2HB DD 05H ; boost::iostreams::detail::select_by_size<7>::type::value
CONST	ENDS
;	COMDAT ?value@?$select_by_size@$05@detail@iostreams@boost@@2HB
CONST	SEGMENT
?value@?$select_by_size@$05@detail@iostreams@boost@@2HB DD 04H ; boost::iostreams::detail::select_by_size<6>::value
CONST	ENDS
;	COMDAT ?value@type@?$select_by_size@$05@detail@iostreams@boost@@2HB
CONST	SEGMENT
?value@type@?$select_by_size@$05@detail@iostreams@boost@@2HB DD 04H ; boost::iostreams::detail::select_by_size<6>::type::value
CONST	ENDS
;	COMDAT ?value@?$select_by_size@$04@detail@iostreams@boost@@2HB
CONST	SEGMENT
?value@?$select_by_size@$04@detail@iostreams@boost@@2HB DD 03H ; boost::iostreams::detail::select_by_size<5>::value
CONST	ENDS
;	COMDAT ?value@type@?$select_by_size@$04@detail@iostreams@boost@@2HB
CONST	SEGMENT
?value@type@?$select_by_size@$04@detail@iostreams@boost@@2HB DD 03H ; boost::iostreams::detail::select_by_size<5>::type::value
CONST	ENDS
;	COMDAT ?value@?$select_by_size@$03@detail@iostreams@boost@@2HB
CONST	SEGMENT
?value@?$select_by_size@$03@detail@iostreams@boost@@2HB DD 02H ; boost::iostreams::detail::select_by_size<4>::value
CONST	ENDS
;	COMDAT ?value@type@?$select_by_size@$03@detail@iostreams@boost@@2HB
CONST	SEGMENT
?value@type@?$select_by_size@$03@detail@iostreams@boost@@2HB DD 02H ; boost::iostreams::detail::select_by_size<4>::type::value
CONST	ENDS
;	COMDAT ?value@?$select_by_size@$02@detail@iostreams@boost@@2HB
CONST	SEGMENT
?value@?$select_by_size@$02@detail@iostreams@boost@@2HB DD 01H ; boost::iostreams::detail::select_by_size<3>::value
CONST	ENDS
;	COMDAT ?value@type@?$select_by_size@$02@detail@iostreams@boost@@2HB
CONST	SEGMENT
?value@type@?$select_by_size@$02@detail@iostreams@boost@@2HB DD 01H ; boost::iostreams::detail::select_by_size<3>::type::value
CONST	ENDS
;	COMDAT ?value@?$select_by_size@$01@detail@iostreams@boost@@2HB
CONST	SEGMENT
?value@?$select_by_size@$01@detail@iostreams@boost@@2HB DD 00H ; boost::iostreams::detail::select_by_size<2>::value
CONST	ENDS
;	COMDAT ?value@type@?$select_by_size@$01@detail@iostreams@boost@@2HB
CONST	SEGMENT
?value@type@?$select_by_size@$01@detail@iostreams@boost@@2HB DD 00H ; boost::iostreams::detail::select_by_size<2>::type::value
CONST	ENDS
;	COMDAT ?value@?$select_by_size@$00@detail@iostreams@boost@@2HB
CONST	SEGMENT
?value@?$select_by_size@$00@detail@iostreams@boost@@2HB DD 0ffffffffH ; boost::iostreams::detail::select_by_size<1>::value
CONST	ENDS
;	COMDAT ?value@type@?$select_by_size@$00@detail@iostreams@boost@@2HB
CONST	SEGMENT
?value@type@?$select_by_size@$00@detail@iostreams@boost@@2HB DD 0ffffffffH ; boost::iostreams::detail::select_by_size<1>::type::value
CONST	ENDS
;	COMDAT ?value@?$is_convertible_impl@$$CDX$$CDX@detail@boost@@2_NB
CONST	SEGMENT
?value@?$is_convertible_impl@$$CDX$$CDX@detail@boost@@2_NB DB 01H ; boost::detail::is_convertible_impl<void const volatile ,void const volatile >::value
CONST	ENDS
;	COMDAT ?value@?$is_convertible_impl@$$CDX$$CCX@detail@boost@@2_NB
CONST	SEGMENT
?value@?$is_convertible_impl@$$CDX$$CCX@detail@boost@@2_NB DB 01H ; boost::detail::is_convertible_impl<void const volatile ,void volatile >::value
CONST	ENDS
;	COMDAT ?value@?$is_convertible_impl@$$CDX$$CBX@detail@boost@@2_NB
CONST	SEGMENT
?value@?$is_convertible_impl@$$CDX$$CBX@detail@boost@@2_NB DB 01H ; boost::detail::is_convertible_impl<void const volatile ,void const >::value
CONST	ENDS
;	COMDAT ?value@?$is_convertible_impl@$$CDXX@detail@boost@@2_NB
CONST	SEGMENT
?value@?$is_convertible_impl@$$CDXX@detail@boost@@2_NB DB 01H ; boost::detail::is_convertible_impl<void const volatile ,void>::value
CONST	ENDS
;	COMDAT ?value@?$is_convertible_impl@$$CCX$$CDX@detail@boost@@2_NB
CONST	SEGMENT
?value@?$is_convertible_impl@$$CCX$$CDX@detail@boost@@2_NB DB 01H ; boost::detail::is_convertible_impl<void volatile ,void const volatile >::value
CONST	ENDS
;	COMDAT ?value@?$is_convertible_impl@$$CCX$$CCX@detail@boost@@2_NB
CONST	SEGMENT
?value@?$is_convertible_impl@$$CCX$$CCX@detail@boost@@2_NB DB 01H ; boost::detail::is_convertible_impl<void volatile ,void volatile >::value
CONST	ENDS
;	COMDAT ?value@?$is_convertible_impl@$$CCX$$CBX@detail@boost@@2_NB
CONST	SEGMENT
?value@?$is_convertible_impl@$$CCX$$CBX@detail@boost@@2_NB DB 01H ; boost::detail::is_convertible_impl<void volatile ,void const >::value
CONST	ENDS
;	COMDAT ?value@?$is_convertible_impl@$$CCXX@detail@boost@@2_NB
CONST	SEGMENT
?value@?$is_convertible_impl@$$CCXX@detail@boost@@2_NB DB 01H ; boost::detail::is_convertible_impl<void volatile ,void>::value
CONST	ENDS
;	COMDAT ?value@?$is_convertible_impl@$$CBX$$CDX@detail@boost@@2_NB
CONST	SEGMENT
?value@?$is_convertible_impl@$$CBX$$CDX@detail@boost@@2_NB DB 01H ; boost::detail::is_convertible_impl<void const ,void const volatile >::value
CONST	ENDS
;	COMDAT ?value@?$is_convertible_impl@$$CBX$$CCX@detail@boost@@2_NB
CONST	SEGMENT
?value@?$is_convertible_impl@$$CBX$$CCX@detail@boost@@2_NB DB 01H ; boost::detail::is_convertible_impl<void const ,void volatile >::value
CONST	ENDS
;	COMDAT ?value@?$is_convertible_impl@$$CBX$$CBX@detail@boost@@2_NB
CONST	SEGMENT
?value@?$is_convertible_impl@$$CBX$$CBX@detail@boost@@2_NB DB 01H ; boost::detail::is_convertible_impl<void const ,void const >::value
CONST	ENDS
;	COMDAT ?value@?$is_convertible_impl@$$CBXX@detail@boost@@2_NB
CONST	SEGMENT
?value@?$is_convertible_impl@$$CBXX@detail@boost@@2_NB DB 01H ; boost::detail::is_convertible_impl<void const ,void>::value
CONST	ENDS
;	COMDAT ?value@?$is_convertible_impl@X$$CDX@detail@boost@@2_NB
CONST	SEGMENT
?value@?$is_convertible_impl@X$$CDX@detail@boost@@2_NB DB 01H ; boost::detail::is_convertible_impl<void,void const volatile >::value
CONST	ENDS
;	COMDAT ?value@?$is_convertible_impl@X$$CCX@detail@boost@@2_NB
CONST	SEGMENT
?value@?$is_convertible_impl@X$$CCX@detail@boost@@2_NB DB 01H ; boost::detail::is_convertible_impl<void,void volatile >::value
CONST	ENDS
;	COMDAT ?value@?$is_convertible_impl@X$$CBX@detail@boost@@2_NB
CONST	SEGMENT
?value@?$is_convertible_impl@X$$CBX@detail@boost@@2_NB DB 01H ; boost::detail::is_convertible_impl<void,void const >::value
CONST	ENDS
;	COMDAT ?value@?$is_convertible_impl@XX@detail@boost@@2_NB
CONST	SEGMENT
?value@?$is_convertible_impl@XX@detail@boost@@2_NB DB 01H ; boost::detail::is_convertible_impl<void,void>::value
CONST	ENDS
;	COMDAT ?value@?$ice_not@$00@type_traits@boost@@2_NB
CONST	SEGMENT
?value@?$ice_not@$00@type_traits@boost@@2_NB DB 00H	; boost::type_traits::ice_not<1>::value
CONST	ENDS
;	COMDAT ?value@?$ice_and@$00$00$00$00$00$00$00@type_traits@boost@@2_NB
CONST	SEGMENT
?value@?$ice_and@$00$00$00$00$00$00$00@type_traits@boost@@2_NB DB 01H ; boost::type_traits::ice_and<1,1,1,1,1,1,1>::value
CONST	ENDS
;	COMDAT ?value@?$ice_or@$0A@$0A@$0A@$0A@$0A@$0A@$0A@@type_traits@boost@@2_NB
CONST	SEGMENT
?value@?$ice_or@$0A@$0A@$0A@$0A@$0A@$0A@$0A@@type_traits@boost@@2_NB DB 00H ; boost::type_traits::ice_or<0,0,0,0,0,0,0>::value
CONST	ENDS
;	COMDAT ?const_max@?$integer_traits_base@_K$0A@$0?0@detail@boost@@2_KB
CONST	SEGMENT
?const_max@?$integer_traits_base@_K$0A@$0?0@detail@boost@@2_KB DQ ffffffffffffffffH ; boost::detail::integer_traits_base<unsigned __int64,0,-1>::const_max
CONST	ENDS
;	COMDAT ?const_min@?$integer_traits_base@_K$0A@$0?0@detail@boost@@2_KB
CONST	SEGMENT
?const_min@?$integer_traits_base@_K$0A@$0?0@detail@boost@@2_KB DQ 0000000000000000H ; boost::detail::integer_traits_base<unsigned __int64,0,-1>::const_min
CONST	ENDS
;	COMDAT ?is_integral@?$integer_traits_base@_K$0A@$0?0@detail@boost@@2_NB
CONST	SEGMENT
?is_integral@?$integer_traits_base@_K$0A@$0?0@detail@boost@@2_NB DB 01H ; boost::detail::integer_traits_base<unsigned __int64,0,-1>::is_integral
CONST	ENDS
;	COMDAT ?const_max@?$integer_traits_base@_J$0?IAAAAAAAAAAAAAAA@$0HPPPPPPPPPPPPPPP@@detail@boost@@2_JB
CONST	SEGMENT
?const_max@?$integer_traits_base@_J$0?IAAAAAAAAAAAAAAA@$0HPPPPPPPPPPPPPPP@@detail@boost@@2_JB DQ 7fffffffffffffffH ; boost::detail::integer_traits_base<__int64,-9223372036854775808,9223372036854775807>::const_max
CONST	ENDS
;	COMDAT ?const_min@?$integer_traits_base@_J$0?IAAAAAAAAAAAAAAA@$0HPPPPPPPPPPPPPPP@@detail@boost@@2_JB
CONST	SEGMENT
?const_min@?$integer_traits_base@_J$0?IAAAAAAAAAAAAAAA@$0HPPPPPPPPPPPPPPP@@detail@boost@@2_JB DQ 8000000000000000H ; boost::detail::integer_traits_base<__int64,-9223372036854775808,9223372036854775807>::const_min
CONST	ENDS
;	COMDAT ?is_integral@?$integer_traits_base@_J$0?IAAAAAAAAAAAAAAA@$0HPPPPPPPPPPPPPPP@@detail@boost@@2_NB
CONST	SEGMENT
?is_integral@?$integer_traits_base@_J$0?IAAAAAAAAAAAAAAA@$0HPPPPPPPPPPPPPPP@@detail@boost@@2_NB DB 01H ; boost::detail::integer_traits_base<__int64,-9223372036854775808,9223372036854775807>::is_integral
CONST	ENDS
;	COMDAT ?const_max@?$integer_traits_base@K$0A@$0PPPPPPPP@@detail@boost@@2KB
CONST	SEGMENT
?const_max@?$integer_traits_base@K$0A@$0PPPPPPPP@@detail@boost@@2KB DD 0ffffffffH ; boost::detail::integer_traits_base<unsigned long,0,4294967295>::const_max
CONST	ENDS
;	COMDAT ?const_min@?$integer_traits_base@K$0A@$0PPPPPPPP@@detail@boost@@2KB
CONST	SEGMENT
?const_min@?$integer_traits_base@K$0A@$0PPPPPPPP@@detail@boost@@2KB DD 00H ; boost::detail::integer_traits_base<unsigned long,0,4294967295>::const_min
CONST	ENDS
;	COMDAT ?is_integral@?$integer_traits_base@K$0A@$0PPPPPPPP@@detail@boost@@2_NB
CONST	SEGMENT
?is_integral@?$integer_traits_base@K$0A@$0PPPPPPPP@@detail@boost@@2_NB DB 01H ; boost::detail::integer_traits_base<unsigned long,0,4294967295>::is_integral
CONST	ENDS
;	COMDAT ?const_max@?$integer_traits_base@J$0?IAAAAAAA@$0HPPPPPPP@@detail@boost@@2JB
CONST	SEGMENT
?const_max@?$integer_traits_base@J$0?IAAAAAAA@$0HPPPPPPP@@detail@boost@@2JB DD 07fffffffH ; boost::detail::integer_traits_base<long,-2147483648,2147483647>::const_max
CONST	ENDS
;	COMDAT ?const_min@?$integer_traits_base@J$0?IAAAAAAA@$0HPPPPPPP@@detail@boost@@2JB
CONST	SEGMENT
?const_min@?$integer_traits_base@J$0?IAAAAAAA@$0HPPPPPPP@@detail@boost@@2JB DD 080000000H ; boost::detail::integer_traits_base<long,-2147483648,2147483647>::const_min
CONST	ENDS
;	COMDAT ?is_integral@?$integer_traits_base@J$0?IAAAAAAA@$0HPPPPPPP@@detail@boost@@2_NB
CONST	SEGMENT
?is_integral@?$integer_traits_base@J$0?IAAAAAAA@$0HPPPPPPP@@detail@boost@@2_NB DB 01H ; boost::detail::integer_traits_base<long,-2147483648,2147483647>::is_integral
CONST	ENDS
;	COMDAT ?const_max@?$integer_traits_base@I$0A@$0PPPPPPPP@@detail@boost@@2IB
CONST	SEGMENT
?const_max@?$integer_traits_base@I$0A@$0PPPPPPPP@@detail@boost@@2IB DD 0ffffffffH ; boost::detail::integer_traits_base<unsigned int,0,4294967295>::const_max
CONST	ENDS
;	COMDAT ?const_min@?$integer_traits_base@I$0A@$0PPPPPPPP@@detail@boost@@2IB
CONST	SEGMENT
?const_min@?$integer_traits_base@I$0A@$0PPPPPPPP@@detail@boost@@2IB DD 00H ; boost::detail::integer_traits_base<unsigned int,0,4294967295>::const_min
CONST	ENDS
;	COMDAT ?is_integral@?$integer_traits_base@I$0A@$0PPPPPPPP@@detail@boost@@2_NB
CONST	SEGMENT
?is_integral@?$integer_traits_base@I$0A@$0PPPPPPPP@@detail@boost@@2_NB DB 01H ; boost::detail::integer_traits_base<unsigned int,0,4294967295>::is_integral
CONST	ENDS
;	COMDAT ?const_max@?$integer_traits_base@H$0?IAAAAAAA@$0HPPPPPPP@@detail@boost@@2HB
CONST	SEGMENT
?const_max@?$integer_traits_base@H$0?IAAAAAAA@$0HPPPPPPP@@detail@boost@@2HB DD 07fffffffH ; boost::detail::integer_traits_base<int,-2147483648,2147483647>::const_max
CONST	ENDS
;	COMDAT ?const_min@?$integer_traits_base@H$0?IAAAAAAA@$0HPPPPPPP@@detail@boost@@2HB
CONST	SEGMENT
?const_min@?$integer_traits_base@H$0?IAAAAAAA@$0HPPPPPPP@@detail@boost@@2HB DD 080000000H ; boost::detail::integer_traits_base<int,-2147483648,2147483647>::const_min
CONST	ENDS
;	COMDAT ?is_integral@?$integer_traits_base@H$0?IAAAAAAA@$0HPPPPPPP@@detail@boost@@2_NB
CONST	SEGMENT
?is_integral@?$integer_traits_base@H$0?IAAAAAAA@$0HPPPPPPP@@detail@boost@@2_NB DB 01H ; boost::detail::integer_traits_base<int,-2147483648,2147483647>::is_integral
CONST	ENDS
;	COMDAT ?const_max@?$integer_traits_base@G$0A@$0PPPP@@detail@boost@@2GB
CONST	SEGMENT
?const_max@?$integer_traits_base@G$0A@$0PPPP@@detail@boost@@2GB DW 0ffffH ; boost::detail::integer_traits_base<unsigned short,0,65535>::const_max
CONST	ENDS
;	COMDAT ?const_min@?$integer_traits_base@G$0A@$0PPPP@@detail@boost@@2GB
CONST	SEGMENT
?const_min@?$integer_traits_base@G$0A@$0PPPP@@detail@boost@@2GB DW 00H ; boost::detail::integer_traits_base<unsigned short,0,65535>::const_min
CONST	ENDS
;	COMDAT ?is_integral@?$integer_traits_base@G$0A@$0PPPP@@detail@boost@@2_NB
CONST	SEGMENT
?is_integral@?$integer_traits_base@G$0A@$0PPPP@@detail@boost@@2_NB DB 01H ; boost::detail::integer_traits_base<unsigned short,0,65535>::is_integral
CONST	ENDS
;	COMDAT ?const_max@?$integer_traits_base@F$0?IAAA@$0HPPP@@detail@boost@@2FB
CONST	SEGMENT
?const_max@?$integer_traits_base@F$0?IAAA@$0HPPP@@detail@boost@@2FB DW 07fffH ; boost::detail::integer_traits_base<short,-32768,32767>::const_max
CONST	ENDS
;	COMDAT ?const_min@?$integer_traits_base@F$0?IAAA@$0HPPP@@detail@boost@@2FB
CONST	SEGMENT
?const_min@?$integer_traits_base@F$0?IAAA@$0HPPP@@detail@boost@@2FB DW 08000H ; boost::detail::integer_traits_base<short,-32768,32767>::const_min
CONST	ENDS
;	COMDAT ?is_integral@?$integer_traits_base@F$0?IAAA@$0HPPP@@detail@boost@@2_NB
CONST	SEGMENT
?is_integral@?$integer_traits_base@F$0?IAAA@$0HPPP@@detail@boost@@2_NB DB 01H ; boost::detail::integer_traits_base<short,-32768,32767>::is_integral
CONST	ENDS
;	COMDAT ?const_max@?$integer_traits_base@_W$0A@$0PPPP@@detail@boost@@2_WB
CONST	SEGMENT
?const_max@?$integer_traits_base@_W$0A@$0PPPP@@detail@boost@@2_WB DW 0ffffH ; boost::detail::integer_traits_base<wchar_t,0,65535>::const_max
CONST	ENDS
;	COMDAT ?const_min@?$integer_traits_base@_W$0A@$0PPPP@@detail@boost@@2_WB
CONST	SEGMENT
?const_min@?$integer_traits_base@_W$0A@$0PPPP@@detail@boost@@2_WB DW 00H ; boost::detail::integer_traits_base<wchar_t,0,65535>::const_min
CONST	ENDS
;	COMDAT ?is_integral@?$integer_traits_base@_W$0A@$0PPPP@@detail@boost@@2_NB
CONST	SEGMENT
?is_integral@?$integer_traits_base@_W$0A@$0PPPP@@detail@boost@@2_NB DB 01H ; boost::detail::integer_traits_base<wchar_t,0,65535>::is_integral
CONST	ENDS
;	COMDAT ?const_max@?$integer_traits_base@E$0A@$0PP@@detail@boost@@2EB
CONST	SEGMENT
?const_max@?$integer_traits_base@E$0A@$0PP@@detail@boost@@2EB DB 0ffH ; boost::detail::integer_traits_base<unsigned char,0,255>::const_max
CONST	ENDS
;	COMDAT ?const_min@?$integer_traits_base@E$0A@$0PP@@detail@boost@@2EB
CONST	SEGMENT
?const_min@?$integer_traits_base@E$0A@$0PP@@detail@boost@@2EB DB 00H ; boost::detail::integer_traits_base<unsigned char,0,255>::const_min
CONST	ENDS
;	COMDAT ?is_integral@?$integer_traits_base@E$0A@$0PP@@detail@boost@@2_NB
CONST	SEGMENT
?is_integral@?$integer_traits_base@E$0A@$0PP@@detail@boost@@2_NB DB 01H ; boost::detail::integer_traits_base<unsigned char,0,255>::is_integral
CONST	ENDS
;	COMDAT ?const_max@?$integer_traits_base@C$0?IA@$0HP@@detail@boost@@2CB
CONST	SEGMENT
?const_max@?$integer_traits_base@C$0?IA@$0HP@@detail@boost@@2CB DB 07fH ; boost::detail::integer_traits_base<signed char,-128,127>::const_max
CONST	ENDS
;	COMDAT ?const_min@?$integer_traits_base@C$0?IA@$0HP@@detail@boost@@2CB
CONST	SEGMENT
?const_min@?$integer_traits_base@C$0?IA@$0HP@@detail@boost@@2CB DB 080H ; boost::detail::integer_traits_base<signed char,-128,127>::const_min
CONST	ENDS
;	COMDAT ?is_integral@?$integer_traits_base@C$0?IA@$0HP@@detail@boost@@2_NB
CONST	SEGMENT
?is_integral@?$integer_traits_base@C$0?IA@$0HP@@detail@boost@@2_NB DB 01H ; boost::detail::integer_traits_base<signed char,-128,127>::is_integral
CONST	ENDS
;	COMDAT ?const_max@?$integer_traits_base@D$0?IA@$0HP@@detail@boost@@2DB
CONST	SEGMENT
?const_max@?$integer_traits_base@D$0?IA@$0HP@@detail@boost@@2DB DB 07fH ; boost::detail::integer_traits_base<char,-128,127>::const_max
CONST	ENDS
;	COMDAT ?const_min@?$integer_traits_base@D$0?IA@$0HP@@detail@boost@@2DB
CONST	SEGMENT
?const_min@?$integer_traits_base@D$0?IA@$0HP@@detail@boost@@2DB DB 080H ; boost::detail::integer_traits_base<char,-128,127>::const_min
CONST	ENDS
;	COMDAT ?is_integral@?$integer_traits_base@D$0?IA@$0HP@@detail@boost@@2_NB
CONST	SEGMENT
?is_integral@?$integer_traits_base@D$0?IA@$0HP@@detail@boost@@2_NB DB 01H ; boost::detail::integer_traits_base<char,-128,127>::is_integral
CONST	ENDS
;	COMDAT ?const_max@?$integer_traits_base@_N$0A@$00@detail@boost@@2_NB
CONST	SEGMENT
?const_max@?$integer_traits_base@_N$0A@$00@detail@boost@@2_NB DB 01H ; boost::detail::integer_traits_base<bool,0,1>::const_max
CONST	ENDS
;	COMDAT ?const_min@?$integer_traits_base@_N$0A@$00@detail@boost@@2_NB
CONST	SEGMENT
?const_min@?$integer_traits_base@_N$0A@$00@detail@boost@@2_NB DB 00H ; boost::detail::integer_traits_base<bool,0,1>::const_min
CONST	ENDS
;	COMDAT ?is_integral@?$integer_traits_base@_N$0A@$00@detail@boost@@2_NB
CONST	SEGMENT
?is_integral@?$integer_traits_base@_N$0A@$00@detail@boost@@2_NB DB 01H ; boost::detail::integer_traits_base<bool,0,1>::is_integral
CONST	ENDS
;	COMDAT ?end@?$_Iosb@H@std@@2W4_Seekdir@12@B
CONST	SEGMENT
?end@?$_Iosb@H@std@@2W4_Seekdir@12@B DD 02H		; std::_Iosb<int>::end
CONST	ENDS
;	COMDAT ?cur@?$_Iosb@H@std@@2W4_Seekdir@12@B
CONST	SEGMENT
?cur@?$_Iosb@H@std@@2W4_Seekdir@12@B DD 01H		; std::_Iosb<int>::cur
CONST	ENDS
;	COMDAT ?beg@?$_Iosb@H@std@@2W4_Seekdir@12@B
CONST	SEGMENT
?beg@?$_Iosb@H@std@@2W4_Seekdir@12@B DD 00H		; std::_Iosb<int>::beg
CONST	ENDS
;	COMDAT ?binary@?$_Iosb@H@std@@2W4_Openmode@12@B
CONST	SEGMENT
?binary@?$_Iosb@H@std@@2W4_Openmode@12@B DD 020H	; std::_Iosb<int>::binary
CONST	ENDS
;	COMDAT ?_Noreplace@?$_Iosb@H@std@@2W4_Openmode@12@B
CONST	SEGMENT
?_Noreplace@?$_Iosb@H@std@@2W4_Openmode@12@B DD 080H	; std::_Iosb<int>::_Noreplace
CONST	ENDS
;	COMDAT ?_Nocreate@?$_Iosb@H@std@@2W4_Openmode@12@B
CONST	SEGMENT
?_Nocreate@?$_Iosb@H@std@@2W4_Openmode@12@B DD 040H	; std::_Iosb<int>::_Nocreate
CONST	ENDS
;	COMDAT ?trunc@?$_Iosb@H@std@@2W4_Openmode@12@B
CONST	SEGMENT
?trunc@?$_Iosb@H@std@@2W4_Openmode@12@B DD 010H		; std::_Iosb<int>::trunc
CONST	ENDS
;	COMDAT ?app@?$_Iosb@H@std@@2W4_Openmode@12@B
CONST	SEGMENT
?app@?$_Iosb@H@std@@2W4_Openmode@12@B DD 08H		; std::_Iosb<int>::app
CONST	ENDS
;	COMDAT ?ate@?$_Iosb@H@std@@2W4_Openmode@12@B
CONST	SEGMENT
?ate@?$_Iosb@H@std@@2W4_Openmode@12@B DD 04H		; std::_Iosb<int>::ate
CONST	ENDS
;	COMDAT ?out@?$_Iosb@H@std@@2W4_Openmode@12@B
CONST	SEGMENT
?out@?$_Iosb@H@std@@2W4_Openmode@12@B DD 02H		; std::_Iosb<int>::out
CONST	ENDS
;	COMDAT ?in@?$_Iosb@H@std@@2W4_Openmode@12@B
CONST	SEGMENT
?in@?$_Iosb@H@std@@2W4_Openmode@12@B DD 01H		; std::_Iosb<int>::in
CONST	ENDS
;	COMDAT ?_Hardfail@?$_Iosb@H@std@@2W4_Iostate@12@B
CONST	SEGMENT
?_Hardfail@?$_Iosb@H@std@@2W4_Iostate@12@B DD 010H	; std::_Iosb<int>::_Hardfail
CONST	ENDS
;	COMDAT ?badbit@?$_Iosb@H@std@@2W4_Iostate@12@B
CONST	SEGMENT
?badbit@?$_Iosb@H@std@@2W4_Iostate@12@B DD 04H		; std::_Iosb<int>::badbit
CONST	ENDS
;	COMDAT ?failbit@?$_Iosb@H@std@@2W4_Iostate@12@B
CONST	SEGMENT
?failbit@?$_Iosb@H@std@@2W4_Iostate@12@B DD 02H		; std::_Iosb<int>::failbit
CONST	ENDS
;	COMDAT ?eofbit@?$_Iosb@H@std@@2W4_Iostate@12@B
CONST	SEGMENT
?eofbit@?$_Iosb@H@std@@2W4_Iostate@12@B DD 01H		; std::_Iosb<int>::eofbit
CONST	ENDS
;	COMDAT ?goodbit@?$_Iosb@H@std@@2W4_Iostate@12@B
CONST	SEGMENT
?goodbit@?$_Iosb@H@std@@2W4_Iostate@12@B DD 00H		; std::_Iosb<int>::goodbit
CONST	ENDS
;	COMDAT ?floatfield@?$_Iosb@H@std@@2W4_Fmtflags@12@B
CONST	SEGMENT
?floatfield@?$_Iosb@H@std@@2W4_Fmtflags@12@B DD 03000H	; std::_Iosb<int>::floatfield
CONST	ENDS
;	COMDAT ?basefield@?$_Iosb@H@std@@2W4_Fmtflags@12@B
CONST	SEGMENT
?basefield@?$_Iosb@H@std@@2W4_Fmtflags@12@B DD 0e00H	; std::_Iosb<int>::basefield
CONST	ENDS
;	COMDAT ?adjustfield@?$_Iosb@H@std@@2W4_Fmtflags@12@B
CONST	SEGMENT
?adjustfield@?$_Iosb@H@std@@2W4_Fmtflags@12@B DD 01c0H	; std::_Iosb<int>::adjustfield
CONST	ENDS
;	COMDAT ?_Stdio@?$_Iosb@H@std@@2W4_Fmtflags@12@B
CONST	SEGMENT
?_Stdio@?$_Iosb@H@std@@2W4_Fmtflags@12@B DD 08000H	; std::_Iosb<int>::_Stdio
CONST	ENDS
;	COMDAT ?boolalpha@?$_Iosb@H@std@@2W4_Fmtflags@12@B
CONST	SEGMENT
?boolalpha@?$_Iosb@H@std@@2W4_Fmtflags@12@B DD 04000H	; std::_Iosb<int>::boolalpha
CONST	ENDS
;	COMDAT ?hexfloat@?$_Iosb@H@std@@2W4_Fmtflags@12@B
CONST	SEGMENT
?hexfloat@?$_Iosb@H@std@@2W4_Fmtflags@12@B DD 03000H	; std::_Iosb<int>::hexfloat
CONST	ENDS
;	COMDAT ?fixed@?$_Iosb@H@std@@2W4_Fmtflags@12@B
CONST	SEGMENT
?fixed@?$_Iosb@H@std@@2W4_Fmtflags@12@B DD 02000H	; std::_Iosb<int>::fixed
CONST	ENDS
;	COMDAT ?scientific@?$_Iosb@H@std@@2W4_Fmtflags@12@B
CONST	SEGMENT
?scientific@?$_Iosb@H@std@@2W4_Fmtflags@12@B DD 01000H	; std::_Iosb<int>::scientific
CONST	ENDS
;	COMDAT ?hex@?$_Iosb@H@std@@2W4_Fmtflags@12@B
CONST	SEGMENT
?hex@?$_Iosb@H@std@@2W4_Fmtflags@12@B DD 0800H		; std::_Iosb<int>::hex
CONST	ENDS
;	COMDAT ?oct@?$_Iosb@H@std@@2W4_Fmtflags@12@B
CONST	SEGMENT
?oct@?$_Iosb@H@std@@2W4_Fmtflags@12@B DD 0400H		; std::_Iosb<int>::oct
CONST	ENDS
;	COMDAT ?dec@?$_Iosb@H@std@@2W4_Fmtflags@12@B
CONST	SEGMENT
?dec@?$_Iosb@H@std@@2W4_Fmtflags@12@B DD 0200H		; std::_Iosb<int>::dec
CONST	ENDS
;	COMDAT ?internal@?$_Iosb@H@std@@2W4_Fmtflags@12@B
CONST	SEGMENT
?internal@?$_Iosb@H@std@@2W4_Fmtflags@12@B DD 0100H	; std::_Iosb<int>::internal
CONST	ENDS
;	COMDAT ?right@?$_Iosb@H@std@@2W4_Fmtflags@12@B
CONST	SEGMENT
?right@?$_Iosb@H@std@@2W4_Fmtflags@12@B DD 080H		; std::_Iosb<int>::right
CONST	ENDS
;	COMDAT ?left@?$_Iosb@H@std@@2W4_Fmtflags@12@B
CONST	SEGMENT
?left@?$_Iosb@H@std@@2W4_Fmtflags@12@B DD 040H		; std::_Iosb<int>::left
CONST	ENDS
;	COMDAT ?showpos@?$_Iosb@H@std@@2W4_Fmtflags@12@B
CONST	SEGMENT
?showpos@?$_Iosb@H@std@@2W4_Fmtflags@12@B DD 020H	; std::_Iosb<int>::showpos
CONST	ENDS
;	COMDAT ?showpoint@?$_Iosb@H@std@@2W4_Fmtflags@12@B
CONST	SEGMENT
?showpoint@?$_Iosb@H@std@@2W4_Fmtflags@12@B DD 010H	; std::_Iosb<int>::showpoint
CONST	ENDS
;	COMDAT ?showbase@?$_Iosb@H@std@@2W4_Fmtflags@12@B
CONST	SEGMENT
?showbase@?$_Iosb@H@std@@2W4_Fmtflags@12@B DD 08H	; std::_Iosb<int>::showbase
CONST	ENDS
;	COMDAT ?uppercase@?$_Iosb@H@std@@2W4_Fmtflags@12@B
CONST	SEGMENT
?uppercase@?$_Iosb@H@std@@2W4_Fmtflags@12@B DD 04H	; std::_Iosb<int>::uppercase
CONST	ENDS
;	COMDAT ?unitbuf@?$_Iosb@H@std@@2W4_Fmtflags@12@B
CONST	SEGMENT
?unitbuf@?$_Iosb@H@std@@2W4_Fmtflags@12@B DD 02H	; std::_Iosb<int>::unitbuf
CONST	ENDS
;	COMDAT ?skipws@?$_Iosb@H@std@@2W4_Fmtflags@12@B
CONST	SEGMENT
?skipws@?$_Iosb@H@std@@2W4_Fmtflags@12@B DD 01H		; std::_Iosb<int>::skipws
CONST	ENDS
;	COMDAT ?none@?$_Locbase@H@std@@2HB
CONST	SEGMENT
?none@?$_Locbase@H@std@@2HB DD 00H			; std::_Locbase<int>::none
CONST	ENDS
;	COMDAT ?all@?$_Locbase@H@std@@2HB
CONST	SEGMENT
?all@?$_Locbase@H@std@@2HB DD 03fH			; std::_Locbase<int>::all
CONST	ENDS
;	COMDAT ?messages@?$_Locbase@H@std@@2HB
CONST	SEGMENT
?messages@?$_Locbase@H@std@@2HB DD 020H			; std::_Locbase<int>::messages
CONST	ENDS
;	COMDAT ?time@?$_Locbase@H@std@@2HB
CONST	SEGMENT
?time@?$_Locbase@H@std@@2HB DD 010H			; std::_Locbase<int>::time
CONST	ENDS
;	COMDAT ?numeric@?$_Locbase@H@std@@2HB
CONST	SEGMENT
?numeric@?$_Locbase@H@std@@2HB DD 08H			; std::_Locbase<int>::numeric
CONST	ENDS
;	COMDAT ?monetary@?$_Locbase@H@std@@2HB
CONST	SEGMENT
?monetary@?$_Locbase@H@std@@2HB DD 04H			; std::_Locbase<int>::monetary
CONST	ENDS
;	COMDAT ?ctype@?$_Locbase@H@std@@2HB
CONST	SEGMENT
?ctype@?$_Locbase@H@std@@2HB DD 02H			; std::_Locbase<int>::ctype
CONST	ENDS
;	COMDAT ?collate@?$_Locbase@H@std@@2HB
CONST	SEGMENT
?collate@?$_Locbase@H@std@@2HB DD 01H			; std::_Locbase<int>::collate
CONST	ENDS
;	COMDAT ?value@?$bool_@$0A@@mpl@boost@@2_NB
CONST	SEGMENT
?value@?$bool_@$0A@@mpl@boost@@2_NB DB 00H		; boost::mpl::bool_<0>::value
CONST	ENDS
;	COMDAT ?value@?$bool_@$00@mpl@boost@@2_NB
CONST	SEGMENT
?value@?$bool_@$00@mpl@boost@@2_NB DB 01H		; boost::mpl::bool_<1>::value
CONST	ENDS
;	COMDAT ?value@integral_c_tag@mpl@boost@@2HB
CONST	SEGMENT
?value@integral_c_tag@mpl@boost@@2HB DD 00H		; boost::mpl::integral_c_tag::value
CONST	ENDS
_DATA	SEGMENT
__bad_alloc_Message DD FLAT:??_C@_0P@GHFPNOJB@bad?5allocation?$AA@
_DATA	ENDS
;	COMDAT ??_C@_0P@GHFPNOJB@bad?5allocation?$AA@
CONST	SEGMENT
??_C@_0P@GHFPNOJB@bad?5allocation?$AA@ DB 'bad allocation', 00H ; `string'
CONST	ENDS
;	COMDAT ?_Value@?$_Is_swap_move@U_Swap_move_tag@std@@@std@@2_NB
CONST	SEGMENT
?_Value@?$_Is_swap_move@U_Swap_move_tag@std@@@std@@2_NB DB 01H ; std::_Is_swap_move<std::_Swap_move_tag>::_Value
CONST	ENDS
PUBLIC	??0?$Queue@VfbdFrame@DRAMsimII@@@DRAMsimII@@QAE@I_N@Z ; DRAMsimII::Queue<DRAMsimII::fbdFrame>::Queue<DRAMsimII::fbdFrame>
PUBLIC	??_7fbdChannel@DRAMsimII@@6B@			; DRAMsimII::fbdChannel::`vftable'
PUBLIC	??0fbdChannel@DRAMsimII@@QAE@ABVSettings@1@ABVSystemConfiguration@1@AAVStatistics@1@@Z ; DRAMsimII::fbdChannel::fbdChannel
PUBLIC	??_R4fbdChannel@DRAMsimII@@6B@			; DRAMsimII::fbdChannel::`RTTI Complete Object Locator'
PUBLIC	??_R0?AVfbdChannel@DRAMsimII@@@8		; DRAMsimII::fbdChannel `RTTI Type Descriptor'
PUBLIC	??_R3fbdChannel@DRAMsimII@@8			; DRAMsimII::fbdChannel::`RTTI Class Hierarchy Descriptor'
PUBLIC	??_R2fbdChannel@DRAMsimII@@8			; DRAMsimII::fbdChannel::`RTTI Base Class Array'
PUBLIC	??_R1A@?0A@EA@fbdChannel@DRAMsimII@@8		; DRAMsimII::fbdChannel::`RTTI Base Class Descriptor at (0,-1,0,64)'
PUBLIC	??_R1A@?0A@EN@Channel@DRAMsimII@@8		; DRAMsimII::Channel::`RTTI Base Class Descriptor at (0,-1,0,77)'
PUBLIC	??_R0?AVChannel@DRAMsimII@@@8			; DRAMsimII::Channel `RTTI Type Descriptor'
PUBLIC	??_R3Channel@DRAMsimII@@8			; DRAMsimII::Channel::`RTTI Class Hierarchy Descriptor'
PUBLIC	??_R2Channel@DRAMsimII@@8			; DRAMsimII::Channel::`RTTI Base Class Array'
PUBLIC	??_R1A@?0A@EA@Channel@DRAMsimII@@8		; DRAMsimII::Channel::`RTTI Base Class Descriptor at (0,-1,0,64)'
PUBLIC	?minProtocolGap@fbdChannel@DRAMsimII@@MBE_JPBVCommand@2@@Z ; DRAMsimII::fbdChannel::minProtocolGap
EXTRN	??1Channel@DRAMsimII@@UAE@XZ:PROC		; DRAMsimII::Channel::~Channel
EXTRN	??0Channel@DRAMsimII@@QAE@ABVSettings@1@ABVSystemConfiguration@1@AAVStatistics@1@@Z:PROC ; DRAMsimII::Channel::Channel
EXTRN	___security_cookie:DWORD
EXTRN	___CxxFrameHandler3:PROC
EXTRN	@__security_check_cookie@4:PROC
EXTRN	__RTC_CheckEsp:PROC
EXTRN	__RTC_Shutdown:PROC
EXTRN	__RTC_InitBase:PROC
EXTRN	??_7type_info@@6B@:QWORD			; type_info::`vftable'
EXTRN	?readNextCommand@Channel@DRAMsimII@@MBEPBVCommand@2@XZ:PROC ; DRAMsimII::Channel::readNextCommand
EXTRN	?earliestExecuteTime@Channel@DRAMsimII@@MBE_JPBVCommand@2@@Z:PROC ; DRAMsimII::Channel::earliestExecuteTime
EXTRN	?earliestExecuteTimeLog@Channel@DRAMsimII@@MBE_JPBVCommand@2@@Z:PROC ; DRAMsimII::Channel::earliestExecuteTimeLog
EXTRN	??_EfbdChannel@DRAMsimII@@UAEPAXI@Z:PROC	; DRAMsimII::fbdChannel::`vector deleting destructor'
EXTRN	?nextTick@Channel@DRAMsimII@@UBE_JXZ:PROC	; DRAMsimII::Channel::nextTick
EXTRN	?moveToTime@Channel@DRAMsimII@@UAEX_J@Z:PROC	; DRAMsimII::Channel::moveToTime
;	COMDAT ??_R1A@?0A@EA@Channel@DRAMsimII@@8
; File c:\users\crius\documents\visual studio 2008\projects\dramsimiihg\src\fbdchannel.cpp
rdata$r	SEGMENT
??_R1A@?0A@EA@Channel@DRAMsimII@@8 DD FLAT:??_R0?AVChannel@DRAMsimII@@@8 ; DRAMsimII::Channel::`RTTI Base Class Descriptor at (0,-1,0,64)'
	DD	00H
	DD	00H
	DD	0ffffffffH
	DD	00H
	DD	040H
	DD	FLAT:??_R3Channel@DRAMsimII@@8
rdata$r	ENDS
;	COMDAT ??_R2Channel@DRAMsimII@@8
rdata$r	SEGMENT
??_R2Channel@DRAMsimII@@8 DD FLAT:??_R1A@?0A@EA@Channel@DRAMsimII@@8 ; DRAMsimII::Channel::`RTTI Base Class Array'
rdata$r	ENDS
;	COMDAT ??_R3Channel@DRAMsimII@@8
rdata$r	SEGMENT
??_R3Channel@DRAMsimII@@8 DD 00H			; DRAMsimII::Channel::`RTTI Class Hierarchy Descriptor'
	DD	00H
	DD	01H
	DD	FLAT:??_R2Channel@DRAMsimII@@8
rdata$r	ENDS
;	COMDAT ??_R0?AVChannel@DRAMsimII@@@8
_DATA	SEGMENT
??_R0?AVChannel@DRAMsimII@@@8 DD FLAT:??_7type_info@@6B@ ; DRAMsimII::Channel `RTTI Type Descriptor'
	DD	00H
	DB	'.?AVChannel@DRAMsimII@@', 00H
_DATA	ENDS
;	COMDAT ??_R1A@?0A@EN@Channel@DRAMsimII@@8
rdata$r	SEGMENT
??_R1A@?0A@EN@Channel@DRAMsimII@@8 DD FLAT:??_R0?AVChannel@DRAMsimII@@@8 ; DRAMsimII::Channel::`RTTI Base Class Descriptor at (0,-1,0,77)'
	DD	00H
	DD	00H
	DD	0ffffffffH
	DD	00H
	DD	04dH
	DD	FLAT:??_R3Channel@DRAMsimII@@8
rdata$r	ENDS
;	COMDAT ??_R1A@?0A@EA@fbdChannel@DRAMsimII@@8
rdata$r	SEGMENT
??_R1A@?0A@EA@fbdChannel@DRAMsimII@@8 DD FLAT:??_R0?AVfbdChannel@DRAMsimII@@@8 ; DRAMsimII::fbdChannel::`RTTI Base Class Descriptor at (0,-1,0,64)'
	DD	01H
	DD	00H
	DD	0ffffffffH
	DD	00H
	DD	040H
	DD	FLAT:??_R3fbdChannel@DRAMsimII@@8
rdata$r	ENDS
;	COMDAT ??_R2fbdChannel@DRAMsimII@@8
rdata$r	SEGMENT
??_R2fbdChannel@DRAMsimII@@8 DD FLAT:??_R1A@?0A@EA@fbdChannel@DRAMsimII@@8 ; DRAMsimII::fbdChannel::`RTTI Base Class Array'
	DD	FLAT:??_R1A@?0A@EN@Channel@DRAMsimII@@8
rdata$r	ENDS
;	COMDAT ??_R3fbdChannel@DRAMsimII@@8
rdata$r	SEGMENT
??_R3fbdChannel@DRAMsimII@@8 DD 00H			; DRAMsimII::fbdChannel::`RTTI Class Hierarchy Descriptor'
	DD	00H
	DD	02H
	DD	FLAT:??_R2fbdChannel@DRAMsimII@@8
rdata$r	ENDS
;	COMDAT ??_R0?AVfbdChannel@DRAMsimII@@@8
_DATA	SEGMENT
??_R0?AVfbdChannel@DRAMsimII@@@8 DD FLAT:??_7type_info@@6B@ ; DRAMsimII::fbdChannel `RTTI Type Descriptor'
	DD	00H
	DB	'.?AVfbdChannel@DRAMsimII@@', 00H
_DATA	ENDS
;	COMDAT ??_R4fbdChannel@DRAMsimII@@6B@
rdata$r	SEGMENT
??_R4fbdChannel@DRAMsimII@@6B@ DD 00H			; DRAMsimII::fbdChannel::`RTTI Complete Object Locator'
	DD	00H
	DD	00H
	DD	FLAT:??_R0?AVfbdChannel@DRAMsimII@@@8
	DD	FLAT:??_R3fbdChannel@DRAMsimII@@8
rdata$r	ENDS
;	COMDAT ??_7fbdChannel@DRAMsimII@@6B@
CONST	SEGMENT
??_7fbdChannel@DRAMsimII@@6B@ DD FLAT:??_R4fbdChannel@DRAMsimII@@6B@ ; DRAMsimII::fbdChannel::`vftable'
	DD	FLAT:?readNextCommand@Channel@DRAMsimII@@MBEPBVCommand@2@XZ
	DD	FLAT:?minProtocolGap@fbdChannel@DRAMsimII@@MBE_JPBVCommand@2@@Z
	DD	FLAT:?earliestExecuteTime@Channel@DRAMsimII@@MBE_JPBVCommand@2@@Z
	DD	FLAT:?earliestExecuteTimeLog@Channel@DRAMsimII@@MBE_JPBVCommand@2@@Z
	DD	FLAT:??_EfbdChannel@DRAMsimII@@UAEPAXI@Z
	DD	FLAT:?nextTick@Channel@DRAMsimII@@UBE_JXZ
	DD	FLAT:?moveToTime@Channel@DRAMsimII@@UAEX_J@Z
CONST	ENDS
;	COMDAT xdata$x
xdata$x	SEGMENT
__unwindtable$??0fbdChannel@DRAMsimII@@QAE@ABVSettings@1@ABVSystemConfiguration@1@AAVStatistics@1@@Z DD 0ffffffffH
	DD	FLAT:__unwindfunclet$??0fbdChannel@DRAMsimII@@QAE@ABVSettings@1@ABVSystemConfiguration@1@AAVStatistics@1@@Z$0
__ehfuncinfo$??0fbdChannel@DRAMsimII@@QAE@ABVSettings@1@ABVSystemConfiguration@1@AAVStatistics@1@@Z DD 019930522H
	DD	01H
	DD	FLAT:__unwindtable$??0fbdChannel@DRAMsimII@@QAE@ABVSettings@1@ABVSystemConfiguration@1@AAVStatistics@1@@Z
	DD	2 DUP(00H)
	DD	2 DUP(00H)
	DD	00H
	DD	01H
xdata$x	ENDS
;	COMDAT rtc$TMZ
rtc$TMZ	SEGMENT
__RTC_Shutdown.rtc$TMZ DD FLAT:__RTC_Shutdown
rtc$TMZ	ENDS
;	COMDAT rtc$IMZ
rtc$IMZ	SEGMENT
__RTC_InitBase.rtc$IMZ DD FLAT:__RTC_InitBase
; Function compile flags: /Odtp /RTCcsu /ZI
rtc$IMZ	ENDS
;	COMDAT ??0fbdChannel@DRAMsimII@@QAE@ABVSettings@1@ABVSystemConfiguration@1@AAVStatistics@1@@Z
_TEXT	SEGMENT
_this$ = -20						; size = 4
__$EHRec$ = -12						; size = 12
_settings$ = 8						; size = 4
_sysConfig$ = 12					; size = 4
_stats$ = 16						; size = 4
??0fbdChannel@DRAMsimII@@QAE@ABVSettings@1@ABVSystemConfiguration@1@AAVStatistics@1@@Z PROC ; DRAMsimII::fbdChannel::fbdChannel, COMDAT
; _this$ = ecx

; 25   : {

	push	ebp
	mov	ebp, esp
	push	-1
	push	__ehhandler$??0fbdChannel@DRAMsimII@@QAE@ABVSettings@1@ABVSystemConfiguration@1@AAVStatistics@1@@Z
	mov	eax, DWORD PTR fs:0
	push	eax
	sub	esp, 204				; 000000ccH
	push	ebx
	push	esi
	push	edi
	push	ecx
	lea	edi, DWORD PTR [ebp-216]
	mov	ecx, 51					; 00000033H
	mov	eax, -858993460				; ccccccccH
	rep stosd
	pop	ecx
	mov	eax, DWORD PTR ___security_cookie
	xor	eax, ebp
	push	eax
	lea	eax, DWORD PTR __$EHRec$[ebp]
	mov	DWORD PTR fs:0, eax
	mov	DWORD PTR _this$[ebp], ecx
	mov	eax, DWORD PTR _stats$[ebp]
	push	eax
	mov	ecx, DWORD PTR _sysConfig$[ebp]
	push	ecx
	mov	edx, DWORD PTR _settings$[ebp]
	push	edx
	mov	ecx, DWORD PTR _this$[ebp]
	call	??0Channel@DRAMsimII@@QAE@ABVSettings@1@ABVSystemConfiguration@1@AAVStatistics@1@@Z ; DRAMsimII::Channel::Channel
	mov	DWORD PTR __$EHRec$[ebp+8], 0
	mov	eax, DWORD PTR _this$[ebp]
	mov	DWORD PTR [eax], OFFSET ??_7fbdChannel@DRAMsimII@@6B@
	push	0
	push	3
	mov	ecx, DWORD PTR _this$[ebp]
	add	ecx, 440				; 000001b8H
	call	??0?$Queue@VfbdFrame@DRAMsimII@@@DRAMsimII@@QAE@I_N@Z ; DRAMsimII::Queue<DRAMsimII::fbdFrame>::Queue<DRAMsimII::fbdFrame>

; 26   : 
; 27   : }

	mov	DWORD PTR __$EHRec$[ebp+8], -1
	mov	eax, DWORD PTR _this$[ebp]
	mov	ecx, DWORD PTR __$EHRec$[ebp]
	mov	DWORD PTR fs:0, ecx
	pop	ecx
	pop	edi
	pop	esi
	pop	ebx
	add	esp, 216				; 000000d8H
	cmp	ebp, esp
	call	__RTC_CheckEsp
	mov	esp, ebp
	pop	ebp
	ret	12					; 0000000cH
_TEXT	ENDS
;	COMDAT text$x
text$x	SEGMENT
__unwindfunclet$??0fbdChannel@DRAMsimII@@QAE@ABVSettings@1@ABVSystemConfiguration@1@AAVStatistics@1@@Z$0:
	mov	ecx, DWORD PTR _this$[ebp]
	jmp	??1Channel@DRAMsimII@@UAE@XZ		; DRAMsimII::Channel::~Channel
__ehhandler$??0fbdChannel@DRAMsimII@@QAE@ABVSettings@1@ABVSystemConfiguration@1@AAVStatistics@1@@Z:
	mov	edx, DWORD PTR [esp+8]
	lea	eax, DWORD PTR [edx+12]
	mov	ecx, DWORD PTR [edx-220]
	xor	ecx, eax
	call	@__security_check_cookie@4
	mov	eax, OFFSET __ehfuncinfo$??0fbdChannel@DRAMsimII@@QAE@ABVSettings@1@ABVSystemConfiguration@1@AAVStatistics@1@@Z
	jmp	___CxxFrameHandler3
text$x	ENDS
??0fbdChannel@DRAMsimII@@QAE@ABVSettings@1@ABVSystemConfiguration@1@AAVStatistics@1@@Z ENDP ; DRAMsimII::fbdChannel::fbdChannel
PUBLIC	??1fbdChannel@DRAMsimII@@UAE@XZ			; DRAMsimII::fbdChannel::~fbdChannel
EXTRN	??3@YAXPAX@Z:PROC				; operator delete
; Function compile flags: /Odtp /RTCcsu /ZI
;	COMDAT ??_GfbdChannel@DRAMsimII@@UAEPAXI@Z
_TEXT	SEGMENT
_this$ = -8						; size = 4
___flags$ = 8						; size = 4
??_GfbdChannel@DRAMsimII@@UAEPAXI@Z PROC		; DRAMsimII::fbdChannel::`scalar deleting destructor', COMDAT
; _this$ = ecx
	push	ebp
	mov	ebp, esp
	sub	esp, 204				; 000000ccH
	push	ebx
	push	esi
	push	edi
	push	ecx
	lea	edi, DWORD PTR [ebp-204]
	mov	ecx, 51					; 00000033H
	mov	eax, -858993460				; ccccccccH
	rep stosd
	pop	ecx
	mov	DWORD PTR _this$[ebp], ecx
	mov	ecx, DWORD PTR _this$[ebp]
	call	??1fbdChannel@DRAMsimII@@UAE@XZ
	mov	eax, DWORD PTR ___flags$[ebp]
	and	eax, 1
	je	SHORT $LN1@scalar
	mov	eax, DWORD PTR _this$[ebp]
	push	eax
	call	??3@YAXPAX@Z				; operator delete
	add	esp, 4
$LN1@scalar:
	mov	eax, DWORD PTR _this$[ebp]
	pop	edi
	pop	esi
	pop	ebx
	add	esp, 204				; 000000ccH
	cmp	ebp, esp
	call	__RTC_CheckEsp
	mov	esp, ebp
	pop	ebp
	ret	4
??_GfbdChannel@DRAMsimII@@UAEPAXI@Z ENDP		; DRAMsimII::fbdChannel::`scalar deleting destructor'
_TEXT	ENDS
PUBLIC	??1?$Queue@VfbdFrame@DRAMsimII@@@DRAMsimII@@QAE@XZ ; DRAMsimII::Queue<DRAMsimII::fbdFrame>::~Queue<DRAMsimII::fbdFrame>
;	COMDAT xdata$x
xdata$x	SEGMENT
__unwindtable$??1fbdChannel@DRAMsimII@@UAE@XZ DD 0ffffffffH
	DD	FLAT:__unwindfunclet$??1fbdChannel@DRAMsimII@@UAE@XZ$0
__ehfuncinfo$??1fbdChannel@DRAMsimII@@UAE@XZ DD 019930522H
	DD	01H
	DD	FLAT:__unwindtable$??1fbdChannel@DRAMsimII@@UAE@XZ
	DD	2 DUP(00H)
	DD	2 DUP(00H)
	DD	00H
	DD	01H
; Function compile flags: /Odtp /RTCcsu /ZI
xdata$x	ENDS
;	COMDAT ??1fbdChannel@DRAMsimII@@UAE@XZ
_TEXT	SEGMENT
_this$ = -20						; size = 4
__$EHRec$ = -12						; size = 12
??1fbdChannel@DRAMsimII@@UAE@XZ PROC			; DRAMsimII::fbdChannel::~fbdChannel, COMDAT
; _this$ = ecx
	push	ebp
	mov	ebp, esp
	push	-1
	push	__ehhandler$??1fbdChannel@DRAMsimII@@UAE@XZ
	mov	eax, DWORD PTR fs:0
	push	eax
	sub	esp, 204				; 000000ccH
	push	ebx
	push	esi
	push	edi
	push	ecx
	lea	edi, DWORD PTR [ebp-216]
	mov	ecx, 51					; 00000033H
	mov	eax, -858993460				; ccccccccH
	rep stosd
	pop	ecx
	mov	eax, DWORD PTR ___security_cookie
	xor	eax, ebp
	push	eax
	lea	eax, DWORD PTR __$EHRec$[ebp]
	mov	DWORD PTR fs:0, eax
	mov	DWORD PTR _this$[ebp], ecx
	mov	DWORD PTR __$EHRec$[ebp+8], 0
	mov	ecx, DWORD PTR _this$[ebp]
	add	ecx, 440				; 000001b8H
	call	??1?$Queue@VfbdFrame@DRAMsimII@@@DRAMsimII@@QAE@XZ ; DRAMsimII::Queue<DRAMsimII::fbdFrame>::~Queue<DRAMsimII::fbdFrame>
	mov	DWORD PTR __$EHRec$[ebp+8], -1
	mov	ecx, DWORD PTR _this$[ebp]
	call	??1Channel@DRAMsimII@@UAE@XZ		; DRAMsimII::Channel::~Channel
	mov	ecx, DWORD PTR __$EHRec$[ebp]
	mov	DWORD PTR fs:0, ecx
	pop	ecx
	pop	edi
	pop	esi
	pop	ebx
	add	esp, 216				; 000000d8H
	cmp	ebp, esp
	call	__RTC_CheckEsp
	mov	esp, ebp
	pop	ebp
	ret	0
_TEXT	ENDS
;	COMDAT text$x
text$x	SEGMENT
__unwindfunclet$??1fbdChannel@DRAMsimII@@UAE@XZ$0:
	mov	ecx, DWORD PTR _this$[ebp]
	jmp	??1Channel@DRAMsimII@@UAE@XZ		; DRAMsimII::Channel::~Channel
__ehhandler$??1fbdChannel@DRAMsimII@@UAE@XZ:
	mov	edx, DWORD PTR [esp+8]
	lea	eax, DWORD PTR [edx+12]
	mov	ecx, DWORD PTR [edx-220]
	xor	ecx, eax
	call	@__security_check_cookie@4
	mov	eax, OFFSET __ehfuncinfo$??1fbdChannel@DRAMsimII@@UAE@XZ
	jmp	___CxxFrameHandler3
text$x	ENDS
??1fbdChannel@DRAMsimII@@UAE@XZ ENDP			; DRAMsimII::fbdChannel::~fbdChannel
PUBLIC	?getLastPrechargeTime@Rank@DRAMsimII@@QBE_JXZ	; DRAMsimII::Rank::getLastPrechargeTime
PUBLIC	?tWR@TimingSpecification@DRAMsimII@@QBEHXZ	; DRAMsimII::TimingSpecification::tWR
PUBLIC	?getLastCASWTime@Bank@DRAMsimII@@QBE_JXZ	; DRAMsimII::Bank::getLastCASWTime
PUBLIC	?getLastCASTime@Bank@DRAMsimII@@QBE_JXZ		; DRAMsimII::Bank::getLastCASTime
PUBLIC	?tCMD@TimingSpecification@DRAMsimII@@QBEHXZ	; DRAMsimII::TimingSpecification::tCMD
PUBLIC	?tRTP@TimingSpecification@DRAMsimII@@QBEHXZ	; DRAMsimII::TimingSpecification::tRTP
PUBLIC	?tRAS@TimingSpecification@DRAMsimII@@QBEHXZ	; DRAMsimII::TimingSpecification::tRAS
PUBLIC	?tRTRS@TimingSpecification@DRAMsimII@@QBEHXZ	; DRAMsimII::TimingSpecification::tRTRS
PUBLIC	?tCAS@TimingSpecification@DRAMsimII@@QBEHXZ	; DRAMsimII::TimingSpecification::tCAS
PUBLIC	?tWTR@TimingSpecification@DRAMsimII@@QBEHXZ	; DRAMsimII::TimingSpecification::tWTR
PUBLIC	?tCWD@TimingSpecification@DRAMsimII@@QBEHXZ	; DRAMsimII::TimingSpecification::tCWD
PUBLIC	?getLastCASWTime@Rank@DRAMsimII@@QBE_JXZ	; DRAMsimII::Rank::getLastCASWTime
PUBLIC	?tBurst@TimingSpecification@DRAMsimII@@QBEHXZ	; DRAMsimII::TimingSpecification::tBurst
PUBLIC	?getLastCASTime@Rank@DRAMsimII@@QBE_JXZ		; DRAMsimII::Rank::getLastCASTime
PUBLIC	?tRCD@TimingSpecification@DRAMsimII@@QBEHXZ	; DRAMsimII::TimingSpecification::tRCD
PUBLIC	??$max@H@std@@YAABHABH0@Z			; std::max<int>
PUBLIC	?tRFC@TimingSpecification@DRAMsimII@@QBEHXZ	; DRAMsimII::TimingSpecification::tRFC
PUBLIC	?getLastRefreshTime@Rank@DRAMsimII@@QBE_JXZ	; DRAMsimII::Rank::getLastRefreshTime
PUBLIC	?tFAW@TimingSpecification@DRAMsimII@@QBEHXZ	; DRAMsimII::TimingSpecification::tFAW
PUBLIC	?tRC@TimingSpecification@DRAMsimII@@QBEHXZ	; DRAMsimII::TimingSpecification::tRC
PUBLIC	?getLastRASTime@Bank@DRAMsimII@@QBE_JXZ		; DRAMsimII::Bank::getLastRASTime
PUBLIC	?tRRD@TimingSpecification@DRAMsimII@@QBEHXZ	; DRAMsimII::TimingSpecification::tRRD
PUBLIC	?back@?$circular_buffer@_JV?$allocator@_J@std@@@boost@@QBEAB_JXZ ; boost::circular_buffer<__int64,std::allocator<__int64> >::back
PUBLIC	?size@?$circular_buffer@_JV?$allocator@_J@std@@@boost@@QBEIXZ ; boost::circular_buffer<__int64,std::allocator<__int64> >::size
PUBLIC	?tRP@TimingSpecification@DRAMsimII@@QBEHXZ	; DRAMsimII::TimingSpecification::tRP
PUBLIC	?getLastPrechargeTime@Bank@DRAMsimII@@QBE_JXZ	; DRAMsimII::Bank::getLastPrechargeTime
PUBLIC	?getCommandType@Command@DRAMsimII@@QBE?AW4CommandType@12@XZ ; DRAMsimII::Command::getCommandType
PUBLIC	?tAL@TimingSpecification@DRAMsimII@@QBEHXZ	; DRAMsimII::TimingSpecification::tAL
PUBLIC	??A?$vector@VBank@DRAMsimII@@V?$allocator@VBank@DRAMsimII@@@std@@@std@@QBEABVBank@DRAMsimII@@I@Z ; std::vector<DRAMsimII::Bank,std::allocator<DRAMsimII::Bank> >::operator[]
PUBLIC	?getBank@Address@DRAMsimII@@QBEIXZ		; DRAMsimII::Address::getBank
PUBLIC	??A?$vector@VRank@DRAMsimII@@V?$allocator@VRank@DRAMsimII@@@std@@@std@@QBEABVRank@DRAMsimII@@I@Z ; std::vector<DRAMsimII::Rank,std::allocator<DRAMsimII::Rank> >::operator[]
PUBLIC	?getRank@Address@DRAMsimII@@QBEIXZ		; DRAMsimII::Address::getRank
PUBLIC	?getAddress@Event@DRAMsimII@@QBEABVAddress@2@XZ	; DRAMsimII::Event::getAddress
EXTRN	__imp__exit:PROC
EXTRN	@_RTC_CheckStackVars@8:PROC
EXTRN	@_RTC_Check_8_to_4@8:PROC
; Function compile flags: /Odtp /RTCcsu /ZI
;	COMDAT ?minProtocolGap@fbdChannel@DRAMsimII@@MBE_JPBVCommand@2@@Z
_TEXT	SEGMENT
tv133 = -556						; size = 4
$T174300 = -548						; size = 4
$T174301 = -536						; size = 4
$T174302 = -524						; size = 4
$T174303 = -512						; size = 4
$T174304 = -500						; size = 4
$T174305 = -488						; size = 4
$T174306 = -476						; size = 4
$T174307 = -464						; size = 4
$T174308 = -452						; size = 4
_t_cas_gap$148946 = -248				; size = 4
_t_ras_gap$148944 = -236				; size = 4
_t_cas_gap$148938 = -224				; size = 4
_t_ras_gap$148936 = -212				; size = 4
_t_cas_gap$148931 = -200				; size = 4
_t_ras_gap$148929 = -188				; size = 4
_tRFCGap$148921 = -176					; size = 4
_fourth_ras_time$148919 = -164				; size = 8
_tFAWGap$148916 = -148					; size = 4
_tRCGap$148914 = -136					; size = 4
_lastRASTime$148912 = -124				; size = 8
_tRRDGap$148909 = -108					; size = 4
_ras_q_count$148908 = -96				; size = 4
_tRPGap$148906 = -84					; size = 4
_t_al$ = -72						; size = 4
_currentBank$ = -60					; size = 4
_currentRank$ = -48					; size = 4
_this_rank$ = -36					; size = 4
_min_gap$ = -24						; size = 8
_this$ = -8						; size = 4
_this_c$ = 8						; size = 4
?minProtocolGap@fbdChannel@DRAMsimII@@MBE_JPBVCommand@2@@Z PROC ; DRAMsimII::fbdChannel::minProtocolGap, COMDAT
; _this$ = ecx

; 34   : {

	push	ebp
	mov	ebp, esp
	sub	esp, 556				; 0000022cH
	push	ebx
	push	esi
	push	edi
	push	ecx
	lea	edi, DWORD PTR [ebp-556]
	mov	ecx, 139				; 0000008bH
	mov	eax, -858993460				; ccccccccH
	rep stosd
	pop	ecx
	mov	DWORD PTR _this$[ebp], ecx

; 35   : 	// TODO: also consider commands issued one cycle ago which are not yet executed
; 36   : 	tick min_gap = 0;

	mov	DWORD PTR _min_gap$[ebp], 0
	mov	DWORD PTR _min_gap$[ebp+4], 0

; 37   : 
; 38   : 	const unsigned this_rank = this_c->getAddress().getRank();

	mov	ecx, DWORD PTR _this_c$[ebp]
	call	?getAddress@Event@DRAMsimII@@QBEABVAddress@2@XZ ; DRAMsimII::Event::getAddress
	mov	ecx, eax
	call	?getRank@Address@DRAMsimII@@QBEIXZ	; DRAMsimII::Address::getRank
	mov	DWORD PTR _this_rank$[ebp], eax

; 39   : 	const Rank &currentRank = rank[this_rank];

	mov	eax, DWORD PTR _this_rank$[ebp]
	push	eax
	mov	ecx, DWORD PTR _this$[ebp]
	add	ecx, 392				; 00000188H
	call	??A?$vector@VRank@DRAMsimII@@V?$allocator@VRank@DRAMsimII@@@std@@@std@@QBEABVRank@DRAMsimII@@I@Z ; std::vector<DRAMsimII::Rank,std::allocator<DRAMsimII::Rank> >::operator[]
	mov	DWORD PTR _currentRank$[ebp], eax

; 40   : 	const Bank &currentBank = currentRank.bank[this_c->getAddress().getBank()];

	mov	ecx, DWORD PTR _this_c$[ebp]
	call	?getAddress@Event@DRAMsimII@@QBEABVAddress@2@XZ ; DRAMsimII::Event::getAddress
	mov	ecx, eax
	call	?getBank@Address@DRAMsimII@@QBEIXZ	; DRAMsimII::Address::getBank
	push	eax
	mov	ecx, DWORD PTR _currentRank$[ebp]
	add	ecx, 388				; 00000184H
	call	??A?$vector@VBank@DRAMsimII@@V?$allocator@VBank@DRAMsimII@@@std@@@std@@QBEABVBank@DRAMsimII@@I@Z ; std::vector<DRAMsimII::Bank,std::allocator<DRAMsimII::Bank> >::operator[]
	mov	DWORD PTR _currentBank$[ebp], eax

; 41   : 
; 42   : 	int t_al = timingSpecification.tAL();

	mov	ecx, DWORD PTR _this$[ebp]
	add	ecx, 28					; 0000001cH
	call	?tAL@TimingSpecification@DRAMsimII@@QBEHXZ ; DRAMsimII::TimingSpecification::tAL
	mov	DWORD PTR _t_al$[ebp], eax

; 43   : 
; 44   : 	switch(this_c->getCommandType())

	mov	ecx, DWORD PTR _this_c$[ebp]
	call	?getCommandType@Command@DRAMsimII@@QBE?AW4CommandType@12@XZ ; DRAMsimII::Command::getCommandType
	mov	DWORD PTR tv133[ebp], eax
	cmp	DWORD PTR tv133[ebp], 12		; 0000000cH
	ja	$LN1@minProtoco
	mov	eax, DWORD PTR tv133[ebp]
	jmp	DWORD PTR $LN30@minProtoco[eax*4]
$LN12@minProtoco:

; 45   : 	{
; 46   : 	case Command::ACTIVATE:
; 47   : 		{
; 48   : 			// respect t_rp of same bank
; 49   : 			int tRPGap = (int)(currentBank.getLastPrechargeTime() - time) + timingSpecification.tRP();

	mov	ecx, DWORD PTR _currentBank$[ebp]
	call	?getLastPrechargeTime@Bank@DRAMsimII@@QBE_JXZ ; DRAMsimII::Bank::getLastPrechargeTime
	mov	ecx, DWORD PTR _this$[ebp]
	sub	eax, DWORD PTR [ecx+8]
	sbb	edx, DWORD PTR [ecx+12]
	push	edx
	push	eax
	call	@_RTC_Check_8_to_4@8
	mov	esi, eax
	mov	ecx, DWORD PTR _this$[ebp]
	add	ecx, 28					; 0000001cH
	call	?tRP@TimingSpecification@DRAMsimII@@QBEHXZ ; DRAMsimII::TimingSpecification::tRP
	add	esi, eax
	mov	DWORD PTR _tRPGap$148906[ebp], esi

; 50   : 
; 51   : 			int ras_q_count = currentRank.lastActivateTimes.size();

	mov	ecx, DWORD PTR _currentRank$[ebp]
	add	ecx, 360				; 00000168H
	call	?size@?$circular_buffer@_JV?$allocator@_J@std@@@boost@@QBEIXZ ; boost::circular_buffer<__int64,std::allocator<__int64> >::size
	mov	DWORD PTR _ras_q_count$148908[ebp], eax

; 52   : 
; 53   : 			// respect tRRD and tRC of all other banks of same rank
; 54   : 			int tRRDGap;
; 55   : 
; 56   : 			if (ras_q_count == 0)

	cmp	DWORD PTR _ras_q_count$148908[ebp], 0
	jne	SHORT $LN11@minProtoco

; 57   : 			{
; 58   : 				tRRDGap = 0;

	mov	DWORD PTR _tRRDGap$148909[ebp], 0

; 59   : 			}
; 60   : 			else

	jmp	SHORT $LN10@minProtoco
$LN11@minProtoco:

; 61   : 			{
; 62   : 				// read tail end of ras history
; 63   : 				//tick *last_ras_time = currentRank.lastCommand::ACTIVATETimes.read(ras_q_count - 1);
; 64   : 				const tick lastRASTime = currentRank.lastActivateTimes.back();

	mov	ecx, DWORD PTR _currentRank$[ebp]
	add	ecx, 360				; 00000168H
	call	?back@?$circular_buffer@_JV?$allocator@_J@std@@@boost@@QBEAB_JXZ ; boost::circular_buffer<__int64,std::allocator<__int64> >::back
	mov	ecx, DWORD PTR [eax]
	mov	DWORD PTR _lastRASTime$148912[ebp], ecx
	mov	edx, DWORD PTR [eax+4]
	mov	DWORD PTR _lastRASTime$148912[ebp+4], edx

; 65   : 				// respect the row-to-row activation delay
; 66   : 				tRRDGap = (int)(lastRASTime - time) + timingSpecification.tRRD();				

	mov	eax, DWORD PTR _this$[ebp]
	mov	ecx, DWORD PTR _lastRASTime$148912[ebp]
	sub	ecx, DWORD PTR [eax+8]
	mov	edx, DWORD PTR _lastRASTime$148912[ebp+4]
	sbb	edx, DWORD PTR [eax+12]
	push	edx
	push	ecx
	call	@_RTC_Check_8_to_4@8
	mov	esi, eax
	mov	ecx, DWORD PTR _this$[ebp]
	add	ecx, 28					; 0000001cH
	call	?tRRD@TimingSpecification@DRAMsimII@@QBEHXZ ; DRAMsimII::TimingSpecification::tRRD
	add	esi, eax
	mov	DWORD PTR _tRRDGap$148909[ebp], esi
$LN10@minProtoco:

; 67   : 			}
; 68   : 
; 69   : 			// respect the row cycle time limitation
; 70   : 			int tRCGap = (int)(currentBank.getLastRASTime() - time) + timingSpecification.tRC();

	mov	ecx, DWORD PTR _currentBank$[ebp]
	call	?getLastRASTime@Bank@DRAMsimII@@QBE_JXZ	; DRAMsimII::Bank::getLastRASTime
	mov	ecx, DWORD PTR _this$[ebp]
	sub	eax, DWORD PTR [ecx+8]
	sbb	edx, DWORD PTR [ecx+12]
	push	edx
	push	eax
	call	@_RTC_Check_8_to_4@8
	mov	esi, eax
	mov	ecx, DWORD PTR _this$[ebp]
	add	ecx, 28					; 0000001cH
	call	?tRC@TimingSpecification@DRAMsimII@@QBEHXZ ; DRAMsimII::TimingSpecification::tRC
	add	esi, eax
	mov	DWORD PTR _tRCGap$148914[ebp], esi

; 71   : 
; 72   : 			// respect the t_faw value for DDR2 and beyond
; 73   : 			int tFAWGap;
; 74   : 
; 75   : 			if (ras_q_count < 4)

	cmp	DWORD PTR _ras_q_count$148908[ebp], 4
	jge	SHORT $LN9@minProtoco

; 76   : 			{
; 77   : 				tFAWGap = 0;

	mov	DWORD PTR _tFAWGap$148916[ebp], 0

; 78   : 			}
; 79   : 			else

	jmp	SHORT $LN8@minProtoco
$LN9@minProtoco:

; 80   : 			{
; 81   : 				// read head of ras history
; 82   : 				const tick fourth_ras_time = currentRank.lastActivateTimes.back();

	mov	ecx, DWORD PTR _currentRank$[ebp]
	add	ecx, 360				; 00000168H
	call	?back@?$circular_buffer@_JV?$allocator@_J@std@@@boost@@QBEAB_JXZ ; boost::circular_buffer<__int64,std::allocator<__int64> >::back
	mov	ecx, DWORD PTR [eax]
	mov	DWORD PTR _fourth_ras_time$148919[ebp], ecx
	mov	edx, DWORD PTR [eax+4]
	mov	DWORD PTR _fourth_ras_time$148919[ebp+4], edx

; 83   : 				tFAWGap = (int)(fourth_ras_time - time) + timingSpecification.tFAW();

	mov	eax, DWORD PTR _this$[ebp]
	mov	ecx, DWORD PTR _fourth_ras_time$148919[ebp]
	sub	ecx, DWORD PTR [eax+8]
	mov	edx, DWORD PTR _fourth_ras_time$148919[ebp+4]
	sbb	edx, DWORD PTR [eax+12]
	push	edx
	push	ecx
	call	@_RTC_Check_8_to_4@8
	mov	esi, eax
	mov	ecx, DWORD PTR _this$[ebp]
	add	ecx, 28					; 0000001cH
	call	?tFAW@TimingSpecification@DRAMsimII@@QBEHXZ ; DRAMsimII::TimingSpecification::tFAW
	add	esi, eax
	mov	DWORD PTR _tFAWGap$148916[ebp], esi
$LN8@minProtoco:

; 84   : 			}
; 85   : 
; 86   : 			// respect tRFC
; 87   : 			int tRFCGap = (int)(currentRank.getLastRefreshTime() - time) + timingSpecification.tRFC();

	mov	ecx, DWORD PTR _currentRank$[ebp]
	call	?getLastRefreshTime@Rank@DRAMsimII@@QBE_JXZ ; DRAMsimII::Rank::getLastRefreshTime
	mov	ecx, DWORD PTR _this$[ebp]
	sub	eax, DWORD PTR [ecx+8]
	sbb	edx, DWORD PTR [ecx+12]
	push	edx
	push	eax
	call	@_RTC_Check_8_to_4@8
	mov	esi, eax
	mov	ecx, DWORD PTR _this$[ebp]
	add	ecx, 28					; 0000001cH
	call	?tRFC@TimingSpecification@DRAMsimII@@QBEHXZ ; DRAMsimII::TimingSpecification::tRFC
	add	esi, eax
	mov	DWORD PTR _tRFCGap$148921[ebp], esi

; 88   : 
; 89   : 			min_gap = max(max(max(tRFCGap,tRCGap) , tRPGap) , max(tRRDGap , tFAWGap));

	lea	eax, DWORD PTR _tFAWGap$148916[ebp]
	push	eax
	lea	ecx, DWORD PTR _tRRDGap$148909[ebp]
	push	ecx
	call	??$max@H@std@@YAABHABH0@Z		; std::max<int>
	add	esp, 8
	push	eax
	lea	edx, DWORD PTR _tRPGap$148906[ebp]
	push	edx
	lea	eax, DWORD PTR _tRCGap$148914[ebp]
	push	eax
	lea	ecx, DWORD PTR _tRFCGap$148921[ebp]
	push	ecx
	call	??$max@H@std@@YAABHABH0@Z		; std::max<int>
	add	esp, 8
	push	eax
	call	??$max@H@std@@YAABHABH0@Z		; std::max<int>
	add	esp, 8
	push	eax
	call	??$max@H@std@@YAABHABH0@Z		; std::max<int>
	add	esp, 8
	mov	eax, DWORD PTR [eax]
	cdq
	mov	DWORD PTR _min_gap$[ebp], eax
	mov	DWORD PTR _min_gap$[ebp+4], edx

; 90   : 		}
; 91   : 		break;

	jmp	$LN13@minProtoco
$LN7@minProtoco:

; 92   : 
; 93   : 	case Command::READ_AND_PRECHARGE:
; 94   : 		// Auto precharge will be issued as part of command,
; 95   : 		// but DRAM devices are intelligent enough to delay the prec command
; 96   : 		// until tRAS timing is met, so no need to check tRAS timing requirement here.
; 97   : 
; 98   : 	case Command::READ:
; 99   : 		{
; 100  : 			//respect last ras of same rank
; 101  : 			int t_ras_gap = (int)((currentBank.getLastRASTime() - time) + timingSpecification.tRCD() - t_al);

	mov	ecx, DWORD PTR _currentBank$[ebp]
	call	?getLastRASTime@Bank@DRAMsimII@@QBE_JXZ	; DRAMsimII::Bank::getLastRASTime
	mov	esi, eax
	mov	edi, edx
	mov	eax, DWORD PTR _this$[ebp]
	sub	esi, DWORD PTR [eax+8]
	sbb	edi, DWORD PTR [eax+12]
	mov	ecx, DWORD PTR _this$[ebp]
	add	ecx, 28					; 0000001cH
	call	?tRCD@TimingSpecification@DRAMsimII@@QBEHXZ ; DRAMsimII::TimingSpecification::tRCD
	cdq
	add	esi, eax
	adc	edi, edx
	mov	eax, DWORD PTR _t_al$[ebp]
	cdq
	sub	esi, eax
	sbb	edi, edx
	push	edi
	push	esi
	call	@_RTC_Check_8_to_4@8
	mov	DWORD PTR _t_ras_gap$148929[ebp], eax

; 102  : 
; 103  : 			// ensure that if no other rank has issued a CAS command that it will treat
; 104  : 			// this as if a CAS command was issued long ago
; 105  : 			//tick other_r_last_cas_time = time - 1000;
; 106  : 			//int other_r_last_cas_length = timingSpecification.tBurst();
; 107  : 			//tick other_r_last_casw_time = time - 1000;
; 108  : 			//int other_r_last_casw_length = timingSpecification.tBurst();
; 109  : 
; 110  : 			// find the most recent cas(w) time and length
; 111  : 			//for (unsigned rank_id = 0; rank_id < rank.size() ; rank_id++)
; 112  : 			//{
; 113  : 			//	if (rank_id != this_rank)
; 114  : 			//	{
; 115  : 			//		if (rank[rank_id].lastCASTime > other_r_last_cas_time)
; 116  : 			//		{
; 117  : 			//			other_r_last_cas_time = rank[rank_id].lastCASTime;
; 118  : 			//			other_r_last_cas_length = rank[rank_id].lastCASLength;
; 119  : 			//		}
; 120  : 			//		if (rank[rank_id].lastCASWTime > other_r_last_casw_time)
; 121  : 			//		{
; 122  : 			//			other_r_last_casw_time = rank[rank_id].lastCASWTime;
; 123  : 			//			other_r_last_casw_length = rank[rank_id].lastCASWLength;
; 124  : 			//		}
; 125  : 			//	}
; 126  : 			//}
; 127  : 
; 128  : 			//respect last cas of same rank
; 129  : 			// DW 3/9/2006 add these two lines
; 130  : 			//cas_length = max(timing_specification.t_int_burst,this_r.last_cas_length);
; 131  : 			//casw_length = max(timing_specification.t_int_burst,this_r.last_casw_length);
; 132  : 			// DW 3/9/2006 replace the line after next with the next line
; 133  : 			//t_cas_gap = max(0,(int)(this_r.last_cas_time + cas_length - now));
; 134  : 			int t_cas_gap = (int)((currentRank.getLastCASTime() - time) + timingSpecification.tBurst());

	mov	ecx, DWORD PTR _currentRank$[ebp]
	call	?getLastCASTime@Rank@DRAMsimII@@QBE_JXZ	; DRAMsimII::Rank::getLastCASTime
	mov	esi, eax
	mov	edi, edx
	mov	eax, DWORD PTR _this$[ebp]
	sub	esi, DWORD PTR [eax+8]
	sbb	edi, DWORD PTR [eax+12]
	mov	ecx, DWORD PTR _this$[ebp]
	add	ecx, 28					; 0000001cH
	call	?tBurst@TimingSpecification@DRAMsimII@@QBEHXZ ; DRAMsimII::TimingSpecification::tBurst
	cdq
	add	esi, eax
	adc	edi, edx
	push	edi
	push	esi
	call	@_RTC_Check_8_to_4@8
	mov	DWORD PTR _t_cas_gap$148931[ebp], eax

; 135  : 
; 136  : 			//respect last cas write of same rank
; 137  : 			// DW 3/9/2006 replace the line after next with the next line
; 138  : 			//t_cas_gap = max(t_cas_gap,(int)(this_r.last_casw_time + timing_specification.t_cwd + casw_length + timing_specification.t_wtr - now));
; 139  : 			t_cas_gap = max(t_cas_gap,(int)((currentRank.getLastCASWTime() - time) + timingSpecification.tCWD() + timingSpecification.tBurst() + timingSpecification.tWTR()));

	mov	ecx, DWORD PTR _currentRank$[ebp]
	call	?getLastCASWTime@Rank@DRAMsimII@@QBE_JXZ ; DRAMsimII::Rank::getLastCASWTime
	mov	esi, eax
	mov	edi, edx
	mov	eax, DWORD PTR _this$[ebp]
	sub	esi, DWORD PTR [eax+8]
	sbb	edi, DWORD PTR [eax+12]
	mov	ecx, DWORD PTR _this$[ebp]
	add	ecx, 28					; 0000001cH
	call	?tCWD@TimingSpecification@DRAMsimII@@QBEHXZ ; DRAMsimII::TimingSpecification::tCWD
	cdq
	add	esi, eax
	adc	edi, edx
	mov	ecx, DWORD PTR _this$[ebp]
	add	ecx, 28					; 0000001cH
	call	?tBurst@TimingSpecification@DRAMsimII@@QBEHXZ ; DRAMsimII::TimingSpecification::tBurst
	cdq
	add	esi, eax
	adc	edi, edx
	mov	ecx, DWORD PTR _this$[ebp]
	add	ecx, 28					; 0000001cH
	call	?tWTR@TimingSpecification@DRAMsimII@@QBEHXZ ; DRAMsimII::TimingSpecification::tWTR
	cdq
	add	esi, eax
	adc	edi, edx
	push	edi
	push	esi
	call	@_RTC_Check_8_to_4@8
	mov	DWORD PTR $T174300[ebp], eax
	lea	ecx, DWORD PTR $T174300[ebp]
	push	ecx
	lea	edx, DWORD PTR _t_cas_gap$148931[ebp]
	push	edx
	call	??$max@H@std@@YAABHABH0@Z		; std::max<int>
	add	esp, 8
	mov	eax, DWORD PTR [eax]
	mov	DWORD PTR _t_cas_gap$148931[ebp], eax

; 140  : 
; 141  : 			//if (rank.size() > 1)
; 142  : 			//{
; 143  : 			//respect most recent cas of different rank
; 144  : 			//	t_cas_gap = max(t_cas_gap,(int)(other_r_last_cas_time + other_r_last_cas_length + timingSpecification.tRTRS() - time));
; 145  : 			//respect timing of READ follow WRITE, different ranks.*/
; 146  : 			//	t_cas_gap = max(t_cas_gap,(int)(other_r_last_casw_time + timingSpecification.tCWD() + other_r_last_casw_length + timingSpecification.tRTRS() - timingSpecification.tCAS() - time));
; 147  : 			//}
; 148  : 			min_gap = max(t_ras_gap,t_cas_gap);

	lea	eax, DWORD PTR _t_cas_gap$148931[ebp]
	push	eax
	lea	ecx, DWORD PTR _t_ras_gap$148929[ebp]
	push	ecx
	call	??$max@H@std@@YAABHABH0@Z		; std::max<int>
	add	esp, 8
	mov	eax, DWORD PTR [eax]
	cdq
	mov	DWORD PTR _min_gap$[ebp], eax
	mov	DWORD PTR _min_gap$[ebp+4], edx

; 149  : 
; 150  : 			//fprintf(stderr," [%8d] [%8d] [%8d] [%8d] [%8d] [%2d]\n",(int)now,(int)this_r_last_cas_time,(int)this_r_last_casw_time,(int)other_r_last_cas_time,(int)other_r_last_casw_time,min_gap);
; 151  : 		}
; 152  : 		break;

	jmp	$LN13@minProtoco
$LN6@minProtoco:

; 153  : 
; 154  : 	case Command::WRITE_AND_PRECHARGE:
; 155  : 		// Auto precharge will be issued as part of command, so
; 156  : 		// Since commodity DRAM devices are write-cycle limited, we don't have to worry if
; 157  : 		// the precharge will met tRAS timing or not. So WRITE_AND_PRECHARGE
; 158  : 		// has the exact same timing requirements as a simple CAS COMMAND.
; 159  : 
; 160  : 	case Command::WRITE:
; 161  : 		{
; 162  : 			//respect last ras of same rank
; 163  : 			int t_ras_gap = (int)((currentBank.getLastRASTime() - time) + timingSpecification.tRCD() - t_al);

	mov	ecx, DWORD PTR _currentBank$[ebp]
	call	?getLastRASTime@Bank@DRAMsimII@@QBE_JXZ	; DRAMsimII::Bank::getLastRASTime
	mov	esi, eax
	mov	edi, edx
	mov	eax, DWORD PTR _this$[ebp]
	sub	esi, DWORD PTR [eax+8]
	sbb	edi, DWORD PTR [eax+12]
	mov	ecx, DWORD PTR _this$[ebp]
	add	ecx, 28					; 0000001cH
	call	?tRCD@TimingSpecification@DRAMsimII@@QBEHXZ ; DRAMsimII::TimingSpecification::tRCD
	cdq
	add	esi, eax
	adc	edi, edx
	mov	eax, DWORD PTR _t_al$[ebp]
	cdq
	sub	esi, eax
	sbb	edi, edx
	push	edi
	push	esi
	call	@_RTC_Check_8_to_4@8
	mov	DWORD PTR _t_ras_gap$148936[ebp], eax

; 164  : 
; 165  : 			/*tick other_r_last_cas_time = time - 1000;
; 166  : 			int other_r_last_cas_length = timingSpecification.tBurst();
; 167  : 			tick other_r_last_casw_time = time - 1000;
; 168  : 			int other_r_last_casw_length = timingSpecification.tBurst();*/
; 169  : 
; 170  : 			// find the most recent CAS/CASW time and length
; 171  : 			// FIXME: change to use iterators
; 172  : 			/*for (unsigned rank_id = 0; rank_id < rank.size() ; rank_id++)
; 173  : 			{
; 174  : 			if (rank_id != this_rank)
; 175  : 			{
; 176  : 			if (rank[rank_id].lastCASTime > other_r_last_cas_time)
; 177  : 			{
; 178  : 			other_r_last_cas_time = rank[rank_id].lastCASTime;
; 179  : 			other_r_last_cas_length = rank[rank_id].lastCASLength;
; 180  : 			}
; 181  : 			if (rank[rank_id].lastCASWTime > other_r_last_casw_time)
; 182  : 			{
; 183  : 			other_r_last_casw_time = rank[rank_id].lastCASWTime;
; 184  : 			other_r_last_casw_length = rank[rank_id].lastCASWLength;
; 185  : 			}
; 186  : 			}
; 187  : 			}*/
; 188  : 
; 189  : 			// respect last cas to same rank
; 190  : 			int t_cas_gap = (int)(currentRank.getLastCASTime() - time) + timingSpecification.tCAS() + timingSpecification.tBurst() + timingSpecification.tRTRS() - timingSpecification.tCWD();

	mov	ecx, DWORD PTR _currentRank$[ebp]
	call	?getLastCASTime@Rank@DRAMsimII@@QBE_JXZ	; DRAMsimII::Rank::getLastCASTime
	mov	ecx, DWORD PTR _this$[ebp]
	sub	eax, DWORD PTR [ecx+8]
	sbb	edx, DWORD PTR [ecx+12]
	push	edx
	push	eax
	call	@_RTC_Check_8_to_4@8
	mov	esi, eax
	mov	ecx, DWORD PTR _this$[ebp]
	add	ecx, 28					; 0000001cH
	call	?tCAS@TimingSpecification@DRAMsimII@@QBEHXZ ; DRAMsimII::TimingSpecification::tCAS
	add	esi, eax
	mov	ecx, DWORD PTR _this$[ebp]
	add	ecx, 28					; 0000001cH
	call	?tBurst@TimingSpecification@DRAMsimII@@QBEHXZ ; DRAMsimII::TimingSpecification::tBurst
	add	esi, eax
	mov	ecx, DWORD PTR _this$[ebp]
	add	ecx, 28					; 0000001cH
	call	?tRTRS@TimingSpecification@DRAMsimII@@QBEHXZ ; DRAMsimII::TimingSpecification::tRTRS
	add	esi, eax
	mov	ecx, DWORD PTR _this$[ebp]
	add	ecx, 28					; 0000001cH
	call	?tCWD@TimingSpecification@DRAMsimII@@QBEHXZ ; DRAMsimII::TimingSpecification::tCWD
	sub	esi, eax
	mov	DWORD PTR _t_cas_gap$148938[ebp], esi

; 191  : 
; 192  : 			// respect last cas to different ranks
; 193  : 			// not in FBD, each rank is on its own channel
; 194  : 			//t_cas_gap = max(t_cas_gap,(int)(other_r_last_cas_time + timingSpecification.tCAS() + other_r_last_cas_length + timingSpecification.tRTRS() - timingSpecification.tCWD() - time));
; 195  : 
; 196  : 			// respect last cas write to same rank
; 197  : 			t_cas_gap = max(t_cas_gap,(int)(currentRank.getLastCASWTime() - time) + timingSpecification.tBurst());

	mov	ecx, DWORD PTR _currentRank$[ebp]
	call	?getLastCASWTime@Rank@DRAMsimII@@QBE_JXZ ; DRAMsimII::Rank::getLastCASWTime
	mov	ecx, DWORD PTR _this$[ebp]
	sub	eax, DWORD PTR [ecx+8]
	sbb	edx, DWORD PTR [ecx+12]
	push	edx
	push	eax
	call	@_RTC_Check_8_to_4@8
	mov	esi, eax
	mov	ecx, DWORD PTR _this$[ebp]
	add	ecx, 28					; 0000001cH
	call	?tBurst@TimingSpecification@DRAMsimII@@QBEHXZ ; DRAMsimII::TimingSpecification::tBurst
	add	esi, eax
	mov	DWORD PTR $T174301[ebp], esi
	lea	edx, DWORD PTR $T174301[ebp]
	push	edx
	lea	eax, DWORD PTR _t_cas_gap$148938[ebp]
	push	eax
	call	??$max@H@std@@YAABHABH0@Z		; std::max<int>
	add	esp, 8
	mov	ecx, DWORD PTR [eax]
	mov	DWORD PTR _t_cas_gap$148938[ebp], ecx

; 198  : 
; 199  : 			// respect last cas write to different ranks
; 200  : 			// not in FBD
; 201  : 			//t_cas_gap = max(t_cas_gap,(int)(other_r_last_casw_time + other_r_last_casw_length - time));
; 202  : 
; 203  : 			min_gap = max(t_ras_gap,t_cas_gap);

	lea	eax, DWORD PTR _t_cas_gap$148938[ebp]
	push	eax
	lea	ecx, DWORD PTR _t_ras_gap$148936[ebp]
	push	ecx
	call	??$max@H@std@@YAABHABH0@Z		; std::max<int>
	add	esp, 8
	mov	eax, DWORD PTR [eax]
	cdq
	mov	DWORD PTR _min_gap$[ebp], eax
	mov	DWORD PTR _min_gap$[ebp+4], edx

; 204  : 		}
; 205  : 		break;

	jmp	$LN13@minProtoco
$LN5@minProtoco:

; 206  : 
; 207  : 	case Command::RETIRE_COMMAND:
; 208  : 		break;

	jmp	$LN13@minProtoco
$LN4@minProtoco:

; 209  : 
; 210  : 	case Command::PRECHARGE:
; 211  : 		{
; 212  : 			// respect t_ras of same bank
; 213  : 			int t_ras_gap = (int)(currentBank.getLastRASTime() - time) + timingSpecification.tRAS();

	mov	ecx, DWORD PTR _currentBank$[ebp]
	call	?getLastRASTime@Bank@DRAMsimII@@QBE_JXZ	; DRAMsimII::Bank::getLastRASTime
	mov	ecx, DWORD PTR _this$[ebp]
	sub	eax, DWORD PTR [ecx+8]
	sbb	edx, DWORD PTR [ecx+12]
	push	edx
	push	eax
	call	@_RTC_Check_8_to_4@8
	mov	esi, eax
	mov	ecx, DWORD PTR _this$[ebp]
	add	ecx, 28					; 0000001cH
	call	?tRAS@TimingSpecification@DRAMsimII@@QBEHXZ ; DRAMsimII::TimingSpecification::tRAS
	add	esi, eax
	mov	DWORD PTR _t_ras_gap$148944[ebp], esi

; 214  : 
; 215  : 			// respect t_cas of same bank
; 216  : 			int t_cas_gap = max(0,(int)((currentBank.getLastCASTime() - time) + t_al + timingSpecification.tCAS() + timingSpecification.tBurst() + max(0,timingSpecification.tRTP() - timingSpecification.tCMD())));

	mov	ecx, DWORD PTR _this$[ebp]
	add	ecx, 28					; 0000001cH
	call	?tRTP@TimingSpecification@DRAMsimII@@QBEHXZ ; DRAMsimII::TimingSpecification::tRTP
	mov	esi, eax
	mov	ecx, DWORD PTR _this$[ebp]
	add	ecx, 28					; 0000001cH
	call	?tCMD@TimingSpecification@DRAMsimII@@QBEHXZ ; DRAMsimII::TimingSpecification::tCMD
	sub	esi, eax
	mov	DWORD PTR $T174303[ebp], esi
	mov	DWORD PTR $T174304[ebp], 0
	mov	ecx, DWORD PTR _currentBank$[ebp]
	call	?getLastCASTime@Bank@DRAMsimII@@QBE_JXZ	; DRAMsimII::Bank::getLastCASTime
	mov	esi, eax
	mov	edi, edx
	mov	eax, DWORD PTR _this$[ebp]
	sub	esi, DWORD PTR [eax+8]
	sbb	edi, DWORD PTR [eax+12]
	mov	eax, DWORD PTR _t_al$[ebp]
	cdq
	add	esi, eax
	adc	edi, edx
	mov	ecx, DWORD PTR _this$[ebp]
	add	ecx, 28					; 0000001cH
	call	?tCAS@TimingSpecification@DRAMsimII@@QBEHXZ ; DRAMsimII::TimingSpecification::tCAS
	cdq
	add	esi, eax
	adc	edi, edx
	mov	ecx, DWORD PTR _this$[ebp]
	add	ecx, 28					; 0000001cH
	call	?tBurst@TimingSpecification@DRAMsimII@@QBEHXZ ; DRAMsimII::TimingSpecification::tBurst
	cdq
	add	esi, eax
	adc	edi, edx
	lea	ecx, DWORD PTR $T174303[ebp]
	push	ecx
	lea	edx, DWORD PTR $T174304[ebp]
	push	edx
	call	??$max@H@std@@YAABHABH0@Z		; std::max<int>
	add	esp, 8
	mov	eax, DWORD PTR [eax]
	cdq
	add	esi, eax
	adc	edi, edx
	push	edi
	push	esi
	call	@_RTC_Check_8_to_4@8
	mov	DWORD PTR $T174302[ebp], eax
	mov	DWORD PTR $T174305[ebp], 0
	lea	eax, DWORD PTR $T174302[ebp]
	push	eax
	lea	ecx, DWORD PTR $T174305[ebp]
	push	ecx
	call	??$max@H@std@@YAABHABH0@Z		; std::max<int>
	add	esp, 8
	mov	edx, DWORD PTR [eax]
	mov	DWORD PTR _t_cas_gap$148946[ebp], edx

; 217  : 
; 218  : 			// respect t_casw of same bank
; 219  : 			t_cas_gap = max(t_cas_gap,(int)((currentBank.getLastCASWTime() - time) + t_al + timingSpecification.tCWD() + timingSpecification.tBurst() + timingSpecification.tWR()));

	mov	ecx, DWORD PTR _currentBank$[ebp]
	call	?getLastCASWTime@Bank@DRAMsimII@@QBE_JXZ ; DRAMsimII::Bank::getLastCASWTime
	mov	esi, eax
	mov	edi, edx
	mov	eax, DWORD PTR _this$[ebp]
	sub	esi, DWORD PTR [eax+8]
	sbb	edi, DWORD PTR [eax+12]
	mov	eax, DWORD PTR _t_al$[ebp]
	cdq
	add	esi, eax
	adc	edi, edx
	mov	ecx, DWORD PTR _this$[ebp]
	add	ecx, 28					; 0000001cH
	call	?tCWD@TimingSpecification@DRAMsimII@@QBEHXZ ; DRAMsimII::TimingSpecification::tCWD
	cdq
	add	esi, eax
	adc	edi, edx
	mov	ecx, DWORD PTR _this$[ebp]
	add	ecx, 28					; 0000001cH
	call	?tBurst@TimingSpecification@DRAMsimII@@QBEHXZ ; DRAMsimII::TimingSpecification::tBurst
	cdq
	add	esi, eax
	adc	edi, edx
	mov	ecx, DWORD PTR _this$[ebp]
	add	ecx, 28					; 0000001cH
	call	?tWR@TimingSpecification@DRAMsimII@@QBEHXZ ; DRAMsimII::TimingSpecification::tWR
	cdq
	add	esi, eax
	adc	edi, edx
	push	edi
	push	esi
	call	@_RTC_Check_8_to_4@8
	mov	DWORD PTR $T174306[ebp], eax
	lea	ecx, DWORD PTR $T174306[ebp]
	push	ecx
	lea	edx, DWORD PTR _t_cas_gap$148946[ebp]
	push	edx
	call	??$max@H@std@@YAABHABH0@Z		; std::max<int>
	add	esp, 8
	mov	eax, DWORD PTR [eax]
	mov	DWORD PTR _t_cas_gap$148946[ebp], eax

; 220  : 
; 221  : 			min_gap = max(t_ras_gap,t_cas_gap);

	lea	eax, DWORD PTR _t_cas_gap$148946[ebp]
	push	eax
	lea	ecx, DWORD PTR _t_ras_gap$148944[ebp]
	push	ecx
	call	??$max@H@std@@YAABHABH0@Z		; std::max<int>
	add	esp, 8
	mov	eax, DWORD PTR [eax]
	cdq
	mov	DWORD PTR _min_gap$[ebp], eax
	mov	DWORD PTR _min_gap$[ebp+4], edx

; 222  : 		}
; 223  : 		break;

	jmp	$LN13@minProtoco
$LN3@minProtoco:

; 224  : 
; 225  : 	case Command::PRECHARGE_ALL:
; 226  : 	case Command::ACTIVATE_ALL:
; 227  : 	case Command::DRIVE_COMMAND:
; 228  : 	case Command::DATA_COMMAND:
; 229  : 	case Command::CAS_WITH_DRIVE_COMMAND:
; 230  : 		break;

	jmp	$LN13@minProtoco
$LN2@minProtoco:

; 231  : 
; 232  : 	case Command::REFRESH_ALL:
; 233  : 		// respect tRFC and tRP
; 234  : 		min_gap = max((int)((currentRank.getLastRefreshTime() - time) + timingSpecification.tRFC()),(int)((currentRank.getLastPrechargeTime() - time) + timingSpecification.tRP()));

	mov	ecx, DWORD PTR _currentRank$[ebp]
	call	?getLastPrechargeTime@Rank@DRAMsimII@@QBE_JXZ ; DRAMsimII::Rank::getLastPrechargeTime
	mov	esi, eax
	mov	edi, edx
	mov	eax, DWORD PTR _this$[ebp]
	sub	esi, DWORD PTR [eax+8]
	sbb	edi, DWORD PTR [eax+12]
	mov	ecx, DWORD PTR _this$[ebp]
	add	ecx, 28					; 0000001cH
	call	?tRP@TimingSpecification@DRAMsimII@@QBEHXZ ; DRAMsimII::TimingSpecification::tRP
	cdq
	add	esi, eax
	adc	edi, edx
	push	edi
	push	esi
	call	@_RTC_Check_8_to_4@8
	mov	DWORD PTR $T174307[ebp], eax
	mov	ecx, DWORD PTR _currentRank$[ebp]
	call	?getLastRefreshTime@Rank@DRAMsimII@@QBE_JXZ ; DRAMsimII::Rank::getLastRefreshTime
	mov	esi, eax
	mov	edi, edx
	mov	ecx, DWORD PTR _this$[ebp]
	sub	esi, DWORD PTR [ecx+8]
	sbb	edi, DWORD PTR [ecx+12]
	mov	ecx, DWORD PTR _this$[ebp]
	add	ecx, 28					; 0000001cH
	call	?tRFC@TimingSpecification@DRAMsimII@@QBEHXZ ; DRAMsimII::TimingSpecification::tRFC
	cdq
	add	esi, eax
	adc	edi, edx
	push	edi
	push	esi
	call	@_RTC_Check_8_to_4@8
	mov	DWORD PTR $T174308[ebp], eax
	lea	edx, DWORD PTR $T174307[ebp]
	push	edx
	lea	eax, DWORD PTR $T174308[ebp]
	push	eax
	call	??$max@H@std@@YAABHABH0@Z		; std::max<int>
	add	esp, 8
	mov	eax, DWORD PTR [eax]
	cdq
	mov	DWORD PTR _min_gap$[ebp], eax
	mov	DWORD PTR _min_gap$[ebp+4], edx

; 235  : 		break;

	jmp	SHORT $LN13@minProtoco
$LN1@minProtoco:

; 236  : 
; 237  : 	default:
; 238  : 		exit(-20);

	mov	esi, esp
	push	-20					; ffffffecH
	call	DWORD PTR __imp__exit
	cmp	esi, esp
	call	__RTC_CheckEsp
$LN13@minProtoco:

; 239  : 		break;
; 240  : 	}
; 241  : 
; 242  : #ifdef DEBUG_MIN_PROTOCOL_GAP
; 243  : 	outStream << this_c->commandType;
; 244  : 	outStream << " ras[" << setw(2) << t_ras_gap << "] rrd[" << setw(2) << t_rrd_gap << "] faw[" << setw(2) << t_faw_gap << "] cas[" << setw(2) << t_cas_gap << "] rrd[" << setw(2) << t_rrd_gap << "] rp[" << setw(2) << t_rp_gap << "] min[" << setw(2) << min_gap << "]" << endl;
; 245  : #endif
; 246  : 
; 247  : 	//return max(min_gap,timingSpecification.tCMD());
; 248  : 	return min_gap;

	mov	eax, DWORD PTR _min_gap$[ebp]
	mov	edx, DWORD PTR _min_gap$[ebp+4]
$LN16@minProtoco:

; 249  : }

	push	edx
	mov	ecx, ebp
	push	eax
	lea	edx, DWORD PTR $LN29@minProtoco
	call	@_RTC_CheckStackVars@8
	pop	eax
	pop	edx
	pop	edi
	pop	esi
	pop	ebx
	add	esp, 556				; 0000022cH
	cmp	ebp, esp
	call	__RTC_CheckEsp
	mov	esp, ebp
	pop	ebp
	ret	4
$LN29@minProtoco:
	DD	11					; 0000000bH
	DD	$LN28@minProtoco
$LN28@minProtoco:
	DD	-84					; ffffffacH
	DD	4
	DD	$LN17@minProtoco
	DD	-108					; ffffff94H
	DD	4
	DD	$LN18@minProtoco
	DD	-136					; ffffff78H
	DD	4
	DD	$LN19@minProtoco
	DD	-148					; ffffff6cH
	DD	4
	DD	$LN20@minProtoco
	DD	-176					; ffffff50H
	DD	4
	DD	$LN21@minProtoco
	DD	-188					; ffffff44H
	DD	4
	DD	$LN22@minProtoco
	DD	-200					; ffffff38H
	DD	4
	DD	$LN23@minProtoco
	DD	-212					; ffffff2cH
	DD	4
	DD	$LN24@minProtoco
	DD	-224					; ffffff20H
	DD	4
	DD	$LN25@minProtoco
	DD	-236					; ffffff14H
	DD	4
	DD	$LN26@minProtoco
	DD	-248					; ffffff08H
	DD	4
	DD	$LN27@minProtoco
$LN27@minProtoco:
	DB	116					; 00000074H
	DB	95					; 0000005fH
	DB	99					; 00000063H
	DB	97					; 00000061H
	DB	115					; 00000073H
	DB	95					; 0000005fH
	DB	103					; 00000067H
	DB	97					; 00000061H
	DB	112					; 00000070H
	DB	0
$LN26@minProtoco:
	DB	116					; 00000074H
	DB	95					; 0000005fH
	DB	114					; 00000072H
	DB	97					; 00000061H
	DB	115					; 00000073H
	DB	95					; 0000005fH
	DB	103					; 00000067H
	DB	97					; 00000061H
	DB	112					; 00000070H
	DB	0
$LN25@minProtoco:
	DB	116					; 00000074H
	DB	95					; 0000005fH
	DB	99					; 00000063H
	DB	97					; 00000061H
	DB	115					; 00000073H
	DB	95					; 0000005fH
	DB	103					; 00000067H
	DB	97					; 00000061H
	DB	112					; 00000070H
	DB	0
$LN24@minProtoco:
	DB	116					; 00000074H
	DB	95					; 0000005fH
	DB	114					; 00000072H
	DB	97					; 00000061H
	DB	115					; 00000073H
	DB	95					; 0000005fH
	DB	103					; 00000067H
	DB	97					; 00000061H
	DB	112					; 00000070H
	DB	0
$LN23@minProtoco:
	DB	116					; 00000074H
	DB	95					; 0000005fH
	DB	99					; 00000063H
	DB	97					; 00000061H
	DB	115					; 00000073H
	DB	95					; 0000005fH
	DB	103					; 00000067H
	DB	97					; 00000061H
	DB	112					; 00000070H
	DB	0
$LN22@minProtoco:
	DB	116					; 00000074H
	DB	95					; 0000005fH
	DB	114					; 00000072H
	DB	97					; 00000061H
	DB	115					; 00000073H
	DB	95					; 0000005fH
	DB	103					; 00000067H
	DB	97					; 00000061H
	DB	112					; 00000070H
	DB	0
$LN21@minProtoco:
	DB	116					; 00000074H
	DB	82					; 00000052H
	DB	70					; 00000046H
	DB	67					; 00000043H
	DB	71					; 00000047H
	DB	97					; 00000061H
	DB	112					; 00000070H
	DB	0
$LN20@minProtoco:
	DB	116					; 00000074H
	DB	70					; 00000046H
	DB	65					; 00000041H
	DB	87					; 00000057H
	DB	71					; 00000047H
	DB	97					; 00000061H
	DB	112					; 00000070H
	DB	0
$LN19@minProtoco:
	DB	116					; 00000074H
	DB	82					; 00000052H
	DB	67					; 00000043H
	DB	71					; 00000047H
	DB	97					; 00000061H
	DB	112					; 00000070H
	DB	0
$LN18@minProtoco:
	DB	116					; 00000074H
	DB	82					; 00000052H
	DB	82					; 00000052H
	DB	68					; 00000044H
	DB	71					; 00000047H
	DB	97					; 00000061H
	DB	112					; 00000070H
	DB	0
$LN17@minProtoco:
	DB	116					; 00000074H
	DB	82					; 00000052H
	DB	80					; 00000050H
	DB	71					; 00000047H
	DB	97					; 00000061H
	DB	112					; 00000070H
	DB	0
	npad	2
$LN30@minProtoco:
	DD	$LN12@minProtoco
	DD	$LN7@minProtoco
	DD	$LN7@minProtoco
	DD	$LN6@minProtoco
	DD	$LN6@minProtoco
	DD	$LN5@minProtoco
	DD	$LN4@minProtoco
	DD	$LN3@minProtoco
	DD	$LN3@minProtoco
	DD	$LN3@minProtoco
	DD	$LN3@minProtoco
	DD	$LN3@minProtoco
	DD	$LN2@minProtoco
?minProtocolGap@fbdChannel@DRAMsimII@@MBE_JPBVCommand@2@@Z ENDP ; DRAMsimII::fbdChannel::minProtocolGap
; Function compile flags: /Odtp /RTCcsu /ZI
; File c:\users\crius\documents\visual studio 2008\projects\dramsimiihg\src\address.h
_TEXT	ENDS
;	COMDAT ?getRank@Address@DRAMsimII@@QBEIXZ
_TEXT	SEGMENT
_this$ = -8						; size = 4
?getRank@Address@DRAMsimII@@QBEIXZ PROC			; DRAMsimII::Address::getRank, COMDAT
; _this$ = ecx

; 87   : 		unsigned getRank() const { return rank; }

	push	ebp
	mov	ebp, esp
	sub	esp, 204				; 000000ccH
	push	ebx
	push	esi
	push	edi
	push	ecx
	lea	edi, DWORD PTR [ebp-204]
	mov	ecx, 51					; 00000033H
	mov	eax, -858993460				; ccccccccH
	rep stosd
	pop	ecx
	mov	DWORD PTR _this$[ebp], ecx
	mov	eax, DWORD PTR _this$[ebp]
	mov	eax, DWORD PTR [eax+20]
	pop	edi
	pop	esi
	pop	ebx
	mov	esp, ebp
	pop	ebp
	ret	0
?getRank@Address@DRAMsimII@@QBEIXZ ENDP			; DRAMsimII::Address::getRank
; Function compile flags: /Odtp /RTCcsu /ZI
_TEXT	ENDS
;	COMDAT ?getBank@Address@DRAMsimII@@QBEIXZ
_TEXT	SEGMENT
_this$ = -8						; size = 4
?getBank@Address@DRAMsimII@@QBEIXZ PROC			; DRAMsimII::Address::getBank, COMDAT
; _this$ = ecx

; 88   : 		unsigned getBank() const { return bank; }

	push	ebp
	mov	ebp, esp
	sub	esp, 204				; 000000ccH
	push	ebx
	push	esi
	push	edi
	push	ecx
	lea	edi, DWORD PTR [ebp-204]
	mov	ecx, 51					; 00000033H
	mov	eax, -858993460				; ccccccccH
	rep stosd
	pop	ecx
	mov	DWORD PTR _this$[ebp], ecx
	mov	eax, DWORD PTR _this$[ebp]
	mov	eax, DWORD PTR [eax+24]
	pop	edi
	pop	esi
	pop	ebx
	mov	esp, ebp
	pop	ebp
	ret	0
?getBank@Address@DRAMsimII@@QBEIXZ ENDP			; DRAMsimII::Address::getBank
; Function compile flags: /Odtp /RTCcsu /ZI
; File c:\users\crius\documents\visual studio 2008\projects\dramsimiihg\src\event.h
_TEXT	ENDS
;	COMDAT ?getAddress@Event@DRAMsimII@@QBEABVAddress@2@XZ
_TEXT	SEGMENT
_this$ = -8						; size = 4
?getAddress@Event@DRAMsimII@@QBEABVAddress@2@XZ PROC	; DRAMsimII::Event::getAddress, COMDAT
; _this$ = ecx

; 89   : 		const Address &getAddress() const { return address; }

	push	ebp
	mov	ebp, esp
	sub	esp, 204				; 000000ccH
	push	ebx
	push	esi
	push	edi
	push	ecx
	lea	edi, DWORD PTR [ebp-204]
	mov	ecx, 51					; 00000033H
	mov	eax, -858993460				; ccccccccH
	rep stosd
	pop	ecx
	mov	DWORD PTR _this$[ebp], ecx
	mov	eax, DWORD PTR _this$[ebp]
	add	eax, 40					; 00000028H
	pop	edi
	pop	esi
	pop	ebx
	mov	esp, ebp
	pop	ebp
	ret	0
?getAddress@Event@DRAMsimII@@QBEABVAddress@2@XZ ENDP	; DRAMsimII::Event::getAddress
; Function compile flags: /Odtp /RTCcsu /ZI
; File c:\users\crius\documents\visual studio 2008\projects\dramsimiihg\src\command.h
_TEXT	ENDS
;	COMDAT ?getCommandType@Command@DRAMsimII@@QBE?AW4CommandType@12@XZ
_TEXT	SEGMENT
_this$ = -8						; size = 4
?getCommandType@Command@DRAMsimII@@QBE?AW4CommandType@12@XZ PROC ; DRAMsimII::Command::getCommandType, COMDAT
; _this$ = ecx

; 80   : 		CommandType getCommandType() const { return commandType; }

	push	ebp
	mov	ebp, esp
	sub	esp, 204				; 000000ccH
	push	ebx
	push	esi
	push	edi
	push	ecx
	lea	edi, DWORD PTR [ebp-204]
	mov	ecx, 51					; 00000033H
	mov	eax, -858993460				; ccccccccH
	rep stosd
	pop	ecx
	mov	DWORD PTR _this$[ebp], ecx
	mov	eax, DWORD PTR _this$[ebp]
	mov	eax, DWORD PTR [eax+80]
	pop	edi
	pop	esi
	pop	ebx
	mov	esp, ebp
	pop	ebp
	ret	0
?getCommandType@Command@DRAMsimII@@QBE?AW4CommandType@12@XZ ENDP ; DRAMsimII::Command::getCommandType
; Function compile flags: /Odtp /RTCcsu /ZI
; File c:\users\crius\documents\visual studio 2008\projects\dramsimiihg\src\timingspecification.h
_TEXT	ENDS
;	COMDAT ?tAL@TimingSpecification@DRAMsimII@@QBEHXZ
_TEXT	SEGMENT
_this$ = -8						; size = 4
?tAL@TimingSpecification@DRAMsimII@@QBEHXZ PROC		; DRAMsimII::TimingSpecification::tAL, COMDAT
; _this$ = ecx

; 64   : 		int tAL() const { return t_al; }

	push	ebp
	mov	ebp, esp
	sub	esp, 204				; 000000ccH
	push	ebx
	push	esi
	push	edi
	push	ecx
	lea	edi, DWORD PTR [ebp-204]
	mov	ecx, 51					; 00000033H
	mov	eax, -858993460				; ccccccccH
	rep stosd
	pop	ecx
	mov	DWORD PTR _this$[ebp], ecx
	mov	eax, DWORD PTR _this$[ebp]
	mov	eax, DWORD PTR [eax]
	pop	edi
	pop	esi
	pop	ebx
	mov	esp, ebp
	pop	ebp
	ret	0
?tAL@TimingSpecification@DRAMsimII@@QBEHXZ ENDP		; DRAMsimII::TimingSpecification::tAL
; Function compile flags: /Odtp /RTCcsu /ZI
_TEXT	ENDS
;	COMDAT ?tCAS@TimingSpecification@DRAMsimII@@QBEHXZ
_TEXT	SEGMENT
_this$ = -8						; size = 4
?tCAS@TimingSpecification@DRAMsimII@@QBEHXZ PROC	; DRAMsimII::TimingSpecification::tCAS, COMDAT
; _this$ = ecx

; 65   : 		int tCAS() const { return t_cas; }

	push	ebp
	mov	ebp, esp
	sub	esp, 204				; 000000ccH
	push	ebx
	push	esi
	push	edi
	push	ecx
	lea	edi, DWORD PTR [ebp-204]
	mov	ecx, 51					; 00000033H
	mov	eax, -858993460				; ccccccccH
	rep stosd
	pop	ecx
	mov	DWORD PTR _this$[ebp], ecx
	mov	eax, DWORD PTR _this$[ebp]
	mov	eax, DWORD PTR [eax+8]
	pop	edi
	pop	esi
	pop	ebx
	mov	esp, ebp
	pop	ebp
	ret	0
?tCAS@TimingSpecification@DRAMsimII@@QBEHXZ ENDP	; DRAMsimII::TimingSpecification::tCAS
; Function compile flags: /Odtp /RTCcsu /ZI
_TEXT	ENDS
;	COMDAT ?tBurst@TimingSpecification@DRAMsimII@@QBEHXZ
_TEXT	SEGMENT
_this$ = -8						; size = 4
?tBurst@TimingSpecification@DRAMsimII@@QBEHXZ PROC	; DRAMsimII::TimingSpecification::tBurst, COMDAT
; _this$ = ecx

; 67   : 		int tBurst() const { return t_burst; }

	push	ebp
	mov	ebp, esp
	sub	esp, 204				; 000000ccH
	push	ebx
	push	esi
	push	edi
	push	ecx
	lea	edi, DWORD PTR [ebp-204]
	mov	ecx, 51					; 00000033H
	mov	eax, -858993460				; ccccccccH
	rep stosd
	pop	ecx
	mov	DWORD PTR _this$[ebp], ecx
	mov	eax, DWORD PTR _this$[ebp]
	mov	eax, DWORD PTR [eax+4]
	pop	edi
	pop	esi
	pop	ebx
	mov	esp, ebp
	pop	ebp
	ret	0
?tBurst@TimingSpecification@DRAMsimII@@QBEHXZ ENDP	; DRAMsimII::TimingSpecification::tBurst
; Function compile flags: /Odtp /RTCcsu /ZI
_TEXT	ENDS
;	COMDAT ?tRTP@TimingSpecification@DRAMsimII@@QBEHXZ
_TEXT	SEGMENT
_this$ = -8						; size = 4
?tRTP@TimingSpecification@DRAMsimII@@QBEHXZ PROC	; DRAMsimII::TimingSpecification::tRTP, COMDAT
; _this$ = ecx

; 68   : 		int tRTP() const { return t_rtp; }

	push	ebp
	mov	ebp, esp
	sub	esp, 204				; 000000ccH
	push	ebx
	push	esi
	push	edi
	push	ecx
	lea	edi, DWORD PTR [ebp-204]
	mov	ecx, 51					; 00000033H
	mov	eax, -858993460				; ccccccccH
	rep stosd
	pop	ecx
	mov	DWORD PTR _this$[ebp], ecx
	mov	eax, DWORD PTR _this$[ebp]
	mov	eax, DWORD PTR [eax+52]
	pop	edi
	pop	esi
	pop	ebx
	mov	esp, ebp
	pop	ebp
	ret	0
?tRTP@TimingSpecification@DRAMsimII@@QBEHXZ ENDP	; DRAMsimII::TimingSpecification::tRTP
; Function compile flags: /Odtp /RTCcsu /ZI
_TEXT	ENDS
;	COMDAT ?tRAS@TimingSpecification@DRAMsimII@@QBEHXZ
_TEXT	SEGMENT
_this$ = -8						; size = 4
?tRAS@TimingSpecification@DRAMsimII@@QBEHXZ PROC	; DRAMsimII::TimingSpecification::tRAS, COMDAT
; _this$ = ecx

; 69   : 		int tRAS() const { return t_ras; }

	push	ebp
	mov	ebp, esp
	sub	esp, 204				; 000000ccH
	push	ebx
	push	esi
	push	edi
	push	ecx
	lea	edi, DWORD PTR [ebp-204]
	mov	ecx, 51					; 00000033H
	mov	eax, -858993460				; ccccccccH
	rep stosd
	pop	ecx
	mov	DWORD PTR _this$[ebp], ecx
	mov	eax, DWORD PTR _this$[ebp]
	mov	eax, DWORD PTR [eax+28]
	pop	edi
	pop	esi
	pop	ebx
	mov	esp, ebp
	pop	ebp
	ret	0
?tRAS@TimingSpecification@DRAMsimII@@QBEHXZ ENDP	; DRAMsimII::TimingSpecification::tRAS
; Function compile flags: /Odtp /RTCcsu /ZI
_TEXT	ENDS
;	COMDAT ?tCWD@TimingSpecification@DRAMsimII@@QBEHXZ
_TEXT	SEGMENT
_this$ = -8						; size = 4
?tCWD@TimingSpecification@DRAMsimII@@QBEHXZ PROC	; DRAMsimII::TimingSpecification::tCWD, COMDAT
; _this$ = ecx

; 70   : 		int tCWD() const { return t_cwd; }

	push	ebp
	mov	ebp, esp
	sub	esp, 204				; 000000ccH
	push	ebx
	push	esi
	push	edi
	push	ecx
	lea	edi, DWORD PTR [ebp-204]
	mov	ecx, 51					; 00000033H
	mov	eax, -858993460				; ccccccccH
	rep stosd
	pop	ecx
	mov	DWORD PTR _this$[ebp], ecx
	mov	eax, DWORD PTR _this$[ebp]
	mov	eax, DWORD PTR [eax+20]
	pop	edi
	pop	esi
	pop	ebx
	mov	esp, ebp
	pop	ebp
	ret	0
?tCWD@TimingSpecification@DRAMsimII@@QBEHXZ ENDP	; DRAMsimII::TimingSpecification::tCWD
; Function compile flags: /Odtp /RTCcsu /ZI
_TEXT	ENDS
;	COMDAT ?tWR@TimingSpecification@DRAMsimII@@QBEHXZ
_TEXT	SEGMENT
_this$ = -8						; size = 4
?tWR@TimingSpecification@DRAMsimII@@QBEHXZ PROC		; DRAMsimII::TimingSpecification::tWR, COMDAT
; _this$ = ecx

; 71   : 		int tWR() const { return t_wr; }

	push	ebp
	mov	ebp, esp
	sub	esp, 204				; 000000ccH
	push	ebx
	push	esi
	push	edi
	push	ecx
	lea	edi, DWORD PTR [ebp-204]
	mov	ecx, 51					; 00000033H
	mov	eax, -858993460				; ccccccccH
	rep stosd
	pop	ecx
	mov	DWORD PTR _this$[ebp], ecx
	mov	eax, DWORD PTR _this$[ebp]
	mov	eax, DWORD PTR [eax+60]
	pop	edi
	pop	esi
	pop	ebx
	mov	esp, ebp
	pop	ebp
	ret	0
?tWR@TimingSpecification@DRAMsimII@@QBEHXZ ENDP		; DRAMsimII::TimingSpecification::tWR
; Function compile flags: /Odtp /RTCcsu /ZI
_TEXT	ENDS
;	COMDAT ?tCMD@TimingSpecification@DRAMsimII@@QBEHXZ
_TEXT	SEGMENT
_this$ = -8						; size = 4
?tCMD@TimingSpecification@DRAMsimII@@QBEHXZ PROC	; DRAMsimII::TimingSpecification::tCMD, COMDAT
; _this$ = ecx

; 73   : 		int tCMD() const { return t_cmd; }

	push	ebp
	mov	ebp, esp
	sub	esp, 204				; 000000ccH
	push	ebx
	push	esi
	push	edi
	push	ecx
	lea	edi, DWORD PTR [ebp-204]
	mov	ecx, 51					; 00000033H
	mov	eax, -858993460				; ccccccccH
	rep stosd
	pop	ecx
	mov	DWORD PTR _this$[ebp], ecx
	mov	eax, DWORD PTR _this$[ebp]
	mov	eax, DWORD PTR [eax+16]
	pop	edi
	pop	esi
	pop	ebx
	mov	esp, ebp
	pop	ebp
	ret	0
?tCMD@TimingSpecification@DRAMsimII@@QBEHXZ ENDP	; DRAMsimII::TimingSpecification::tCMD
; Function compile flags: /Odtp /RTCcsu /ZI
_TEXT	ENDS
;	COMDAT ?tRCD@TimingSpecification@DRAMsimII@@QBEHXZ
_TEXT	SEGMENT
_this$ = -8						; size = 4
?tRCD@TimingSpecification@DRAMsimII@@QBEHXZ PROC	; DRAMsimII::TimingSpecification::tRCD, COMDAT
; _this$ = ecx

; 75   : 		int tRCD() const { return t_rcd; }

	push	ebp
	mov	ebp, esp
	sub	esp, 204				; 000000ccH
	push	ebx
	push	esi
	push	edi
	push	ecx
	lea	edi, DWORD PTR [ebp-204]
	mov	ecx, 51					; 00000033H
	mov	eax, -858993460				; ccccccccH
	rep stosd
	pop	ecx
	mov	DWORD PTR _this$[ebp], ecx
	mov	eax, DWORD PTR _this$[ebp]
	mov	eax, DWORD PTR [eax+36]
	pop	edi
	pop	esi
	pop	ebx
	mov	esp, ebp
	pop	ebp
	ret	0
?tRCD@TimingSpecification@DRAMsimII@@QBEHXZ ENDP	; DRAMsimII::TimingSpecification::tRCD
; Function compile flags: /Odtp /RTCcsu /ZI
_TEXT	ENDS
;	COMDAT ?tRP@TimingSpecification@DRAMsimII@@QBEHXZ
_TEXT	SEGMENT
_this$ = -8						; size = 4
?tRP@TimingSpecification@DRAMsimII@@QBEHXZ PROC		; DRAMsimII::TimingSpecification::tRP, COMDAT
; _this$ = ecx

; 76   : 		int tRP() const { return t_rp; }

	push	ebp
	mov	ebp, esp
	sub	esp, 204				; 000000ccH
	push	ebx
	push	esi
	push	edi
	push	ecx
	lea	edi, DWORD PTR [ebp-204]
	mov	ecx, 51					; 00000033H
	mov	eax, -858993460				; ccccccccH
	rep stosd
	pop	ecx
	mov	DWORD PTR _this$[ebp], ecx
	mov	eax, DWORD PTR _this$[ebp]
	mov	eax, DWORD PTR [eax+44]
	pop	edi
	pop	esi
	pop	ebx
	mov	esp, ebp
	pop	ebp
	ret	0
?tRP@TimingSpecification@DRAMsimII@@QBEHXZ ENDP		; DRAMsimII::TimingSpecification::tRP
; Function compile flags: /Odtp /RTCcsu /ZI
_TEXT	ENDS
;	COMDAT ?tRRD@TimingSpecification@DRAMsimII@@QBEHXZ
_TEXT	SEGMENT
_this$ = -8						; size = 4
?tRRD@TimingSpecification@DRAMsimII@@QBEHXZ PROC	; DRAMsimII::TimingSpecification::tRRD, COMDAT
; _this$ = ecx

; 77   : 		int tRRD() const { return t_rrd; }

	push	ebp
	mov	ebp, esp
	sub	esp, 204				; 000000ccH
	push	ebx
	push	esi
	push	edi
	push	ecx
	lea	edi, DWORD PTR [ebp-204]
	mov	ecx, 51					; 00000033H
	mov	eax, -858993460				; ccccccccH
	rep stosd
	pop	ecx
	mov	DWORD PTR _this$[ebp], ecx
	mov	eax, DWORD PTR _this$[ebp]
	mov	eax, DWORD PTR [eax+48]
	pop	edi
	pop	esi
	pop	ebx
	mov	esp, ebp
	pop	ebp
	ret	0
?tRRD@TimingSpecification@DRAMsimII@@QBEHXZ ENDP	; DRAMsimII::TimingSpecification::tRRD
; Function compile flags: /Odtp /RTCcsu /ZI
_TEXT	ENDS
;	COMDAT ?tFAW@TimingSpecification@DRAMsimII@@QBEHXZ
_TEXT	SEGMENT
_this$ = -8						; size = 4
?tFAW@TimingSpecification@DRAMsimII@@QBEHXZ PROC	; DRAMsimII::TimingSpecification::tFAW, COMDAT
; _this$ = ecx

; 78   : 		int tFAW() const { return t_faw; }

	push	ebp
	mov	ebp, esp
	sub	esp, 204				; 000000ccH
	push	ebx
	push	esi
	push	edi
	push	ecx
	lea	edi, DWORD PTR [ebp-204]
	mov	ecx, 51					; 00000033H
	mov	eax, -858993460				; ccccccccH
	rep stosd
	pop	ecx
	mov	DWORD PTR _this$[ebp], ecx
	mov	eax, DWORD PTR _this$[ebp]
	mov	eax, DWORD PTR [eax+24]
	pop	edi
	pop	esi
	pop	ebx
	mov	esp, ebp
	pop	ebp
	ret	0
?tFAW@TimingSpecification@DRAMsimII@@QBEHXZ ENDP	; DRAMsimII::TimingSpecification::tFAW
; Function compile flags: /Odtp /RTCcsu /ZI
_TEXT	ENDS
;	COMDAT ?tRFC@TimingSpecification@DRAMsimII@@QBEHXZ
_TEXT	SEGMENT
_this$ = -8						; size = 4
?tRFC@TimingSpecification@DRAMsimII@@QBEHXZ PROC	; DRAMsimII::TimingSpecification::tRFC, COMDAT
; _this$ = ecx

; 79   : 		int tRFC() const { return t_rfc; }

	push	ebp
	mov	ebp, esp
	sub	esp, 204				; 000000ccH
	push	ebx
	push	esi
	push	edi
	push	ecx
	lea	edi, DWORD PTR [ebp-204]
	mov	ecx, 51					; 00000033H
	mov	eax, -858993460				; ccccccccH
	rep stosd
	pop	ecx
	mov	DWORD PTR _this$[ebp], ecx
	mov	eax, DWORD PTR _this$[ebp]
	mov	eax, DWORD PTR [eax+40]
	pop	edi
	pop	esi
	pop	ebx
	mov	esp, ebp
	pop	ebp
	ret	0
?tRFC@TimingSpecification@DRAMsimII@@QBEHXZ ENDP	; DRAMsimII::TimingSpecification::tRFC
; Function compile flags: /Odtp /RTCcsu /ZI
_TEXT	ENDS
;	COMDAT ?tWTR@TimingSpecification@DRAMsimII@@QBEHXZ
_TEXT	SEGMENT
_this$ = -8						; size = 4
?tWTR@TimingSpecification@DRAMsimII@@QBEHXZ PROC	; DRAMsimII::TimingSpecification::tWTR, COMDAT
; _this$ = ecx

; 80   : 		int tWTR() const { return t_wtr; };

	push	ebp
	mov	ebp, esp
	sub	esp, 204				; 000000ccH
	push	ebx
	push	esi
	push	edi
	push	ecx
	lea	edi, DWORD PTR [ebp-204]
	mov	ecx, 51					; 00000033H
	mov	eax, -858993460				; ccccccccH
	rep stosd
	pop	ecx
	mov	DWORD PTR _this$[ebp], ecx
	mov	eax, DWORD PTR _this$[ebp]
	mov	eax, DWORD PTR [eax+64]
	pop	edi
	pop	esi
	pop	ebx
	mov	esp, ebp
	pop	ebp
	ret	0
?tWTR@TimingSpecification@DRAMsimII@@QBEHXZ ENDP	; DRAMsimII::TimingSpecification::tWTR
; Function compile flags: /Odtp /RTCcsu /ZI
_TEXT	ENDS
;	COMDAT ?tRTRS@TimingSpecification@DRAMsimII@@QBEHXZ
_TEXT	SEGMENT
_this$ = -8						; size = 4
?tRTRS@TimingSpecification@DRAMsimII@@QBEHXZ PROC	; DRAMsimII::TimingSpecification::tRTRS, COMDAT
; _this$ = ecx

; 81   : 		int tRTRS() const { return t_rtrs; }

	push	ebp
	mov	ebp, esp
	sub	esp, 204				; 000000ccH
	push	ebx
	push	esi
	push	edi
	push	ecx
	lea	edi, DWORD PTR [ebp-204]
	mov	ecx, 51					; 00000033H
	mov	eax, -858993460				; ccccccccH
	rep stosd
	pop	ecx
	mov	DWORD PTR _this$[ebp], ecx
	mov	eax, DWORD PTR _this$[ebp]
	mov	eax, DWORD PTR [eax+56]
	pop	edi
	pop	esi
	pop	ebx
	mov	esp, ebp
	pop	ebp
	ret	0
?tRTRS@TimingSpecification@DRAMsimII@@QBEHXZ ENDP	; DRAMsimII::TimingSpecification::tRTRS
; Function compile flags: /Odtp /RTCcsu /ZI
_TEXT	ENDS
;	COMDAT ?tRC@TimingSpecification@DRAMsimII@@QBEHXZ
_TEXT	SEGMENT
_this$ = -8						; size = 4
?tRC@TimingSpecification@DRAMsimII@@QBEHXZ PROC		; DRAMsimII::TimingSpecification::tRC, COMDAT
; _this$ = ecx

; 82   : 		int tRC() const { return t_rc; }

	push	ebp
	mov	ebp, esp
	sub	esp, 204				; 000000ccH
	push	ebx
	push	esi
	push	edi
	push	ecx
	lea	edi, DWORD PTR [ebp-204]
	mov	ecx, 51					; 00000033H
	mov	eax, -858993460				; ccccccccH
	rep stosd
	pop	ecx
	mov	DWORD PTR _this$[ebp], ecx
	mov	eax, DWORD PTR _this$[ebp]
	mov	eax, DWORD PTR [eax+32]
	pop	edi
	pop	esi
	pop	ebx
	mov	esp, ebp
	pop	ebp
	ret	0
?tRC@TimingSpecification@DRAMsimII@@QBEHXZ ENDP		; DRAMsimII::TimingSpecification::tRC
; Function compile flags: /Odtp /RTCcsu /ZI
; File c:\users\crius\documents\visual studio 2008\projects\dramsimiihg\src\bank.h
_TEXT	ENDS
;	COMDAT ?getLastRASTime@Bank@DRAMsimII@@QBE_JXZ
_TEXT	SEGMENT
_this$ = -8						; size = 4
?getLastRASTime@Bank@DRAMsimII@@QBE_JXZ PROC		; DRAMsimII::Bank::getLastRASTime, COMDAT
; _this$ = ecx

; 85   : 		tick getLastRASTime() const { return lastRASTime; }

	push	ebp
	mov	ebp, esp
	sub	esp, 204				; 000000ccH
	push	ebx
	push	esi
	push	edi
	push	ecx
	lea	edi, DWORD PTR [ebp-204]
	mov	ecx, 51					; 00000033H
	mov	eax, -858993460				; ccccccccH
	rep stosd
	pop	ecx
	mov	DWORD PTR _this$[ebp], ecx
	mov	ecx, DWORD PTR _this$[ebp]
	mov	eax, DWORD PTR [ecx+48]
	mov	edx, DWORD PTR [ecx+52]
	pop	edi
	pop	esi
	pop	ebx
	mov	esp, ebp
	pop	ebp
	ret	0
?getLastRASTime@Bank@DRAMsimII@@QBE_JXZ ENDP		; DRAMsimII::Bank::getLastRASTime
; Function compile flags: /Odtp /RTCcsu /ZI
_TEXT	ENDS
;	COMDAT ?getLastCASTime@Bank@DRAMsimII@@QBE_JXZ
_TEXT	SEGMENT
_this$ = -8						; size = 4
?getLastCASTime@Bank@DRAMsimII@@QBE_JXZ PROC		; DRAMsimII::Bank::getLastCASTime, COMDAT
; _this$ = ecx

; 86   : 		tick getLastCASTime() const { return lastCASTime; }

	push	ebp
	mov	ebp, esp
	sub	esp, 204				; 000000ccH
	push	ebx
	push	esi
	push	edi
	push	ecx
	lea	edi, DWORD PTR [ebp-204]
	mov	ecx, 51					; 00000033H
	mov	eax, -858993460				; ccccccccH
	rep stosd
	pop	ecx
	mov	DWORD PTR _this$[ebp], ecx
	mov	ecx, DWORD PTR _this$[ebp]
	mov	eax, DWORD PTR [ecx+56]
	mov	edx, DWORD PTR [ecx+60]
	pop	edi
	pop	esi
	pop	ebx
	mov	esp, ebp
	pop	ebp
	ret	0
?getLastCASTime@Bank@DRAMsimII@@QBE_JXZ ENDP		; DRAMsimII::Bank::getLastCASTime
; Function compile flags: /Odtp /RTCcsu /ZI
_TEXT	ENDS
;	COMDAT ?getLastCASWTime@Bank@DRAMsimII@@QBE_JXZ
_TEXT	SEGMENT
_this$ = -8						; size = 4
?getLastCASWTime@Bank@DRAMsimII@@QBE_JXZ PROC		; DRAMsimII::Bank::getLastCASWTime, COMDAT
; _this$ = ecx

; 87   : 		tick getLastCASWTime() const {return lastCASWTime; }

	push	ebp
	mov	ebp, esp
	sub	esp, 204				; 000000ccH
	push	ebx
	push	esi
	push	edi
	push	ecx
	lea	edi, DWORD PTR [ebp-204]
	mov	ecx, 51					; 00000033H
	mov	eax, -858993460				; ccccccccH
	rep stosd
	pop	ecx
	mov	DWORD PTR _this$[ebp], ecx
	mov	ecx, DWORD PTR _this$[ebp]
	mov	eax, DWORD PTR [ecx+64]
	mov	edx, DWORD PTR [ecx+68]
	pop	edi
	pop	esi
	pop	ebx
	mov	esp, ebp
	pop	ebp
	ret	0
?getLastCASWTime@Bank@DRAMsimII@@QBE_JXZ ENDP		; DRAMsimII::Bank::getLastCASWTime
; Function compile flags: /Odtp /RTCcsu /ZI
_TEXT	ENDS
;	COMDAT ?getLastPrechargeTime@Bank@DRAMsimII@@QBE_JXZ
_TEXT	SEGMENT
_this$ = -8						; size = 4
?getLastPrechargeTime@Bank@DRAMsimII@@QBE_JXZ PROC	; DRAMsimII::Bank::getLastPrechargeTime, COMDAT
; _this$ = ecx

; 89   : 		tick getLastPrechargeTime() const { return lastPrechargeTime; }

	push	ebp
	mov	ebp, esp
	sub	esp, 204				; 000000ccH
	push	ebx
	push	esi
	push	edi
	push	ecx
	lea	edi, DWORD PTR [ebp-204]
	mov	ecx, 51					; 00000033H
	mov	eax, -858993460				; ccccccccH
	rep stosd
	pop	ecx
	mov	DWORD PTR _this$[ebp], ecx
	mov	ecx, DWORD PTR _this$[ebp]
	mov	eax, DWORD PTR [ecx+72]
	mov	edx, DWORD PTR [ecx+76]
	pop	edi
	pop	esi
	pop	ebx
	mov	esp, ebp
	pop	ebp
	ret	0
?getLastPrechargeTime@Bank@DRAMsimII@@QBE_JXZ ENDP	; DRAMsimII::Bank::getLastPrechargeTime
; Function compile flags: /Odtp /RTCcsu /ZI
; File c:\users\crius\documents\visual studio 2008\projects\dramsimiihg\src\rank.h
_TEXT	ENDS
;	COMDAT ?getLastRefreshTime@Rank@DRAMsimII@@QBE_JXZ
_TEXT	SEGMENT
_this$ = -8						; size = 4
?getLastRefreshTime@Rank@DRAMsimII@@QBE_JXZ PROC	; DRAMsimII::Rank::getLastRefreshTime, COMDAT
; _this$ = ecx

; 105  : 		tick getLastRefreshTime() const { return lastRefreshTime; }

	push	ebp
	mov	ebp, esp
	sub	esp, 204				; 000000ccH
	push	ebx
	push	esi
	push	edi
	push	ecx
	lea	edi, DWORD PTR [ebp-204]
	mov	ecx, 51					; 00000033H
	mov	eax, -858993460				; ccccccccH
	rep stosd
	pop	ecx
	mov	DWORD PTR _this$[ebp], ecx
	mov	ecx, DWORD PTR _this$[ebp]
	mov	eax, DWORD PTR [ecx+8]
	mov	edx, DWORD PTR [ecx+12]
	pop	edi
	pop	esi
	pop	ebx
	mov	esp, ebp
	pop	ebp
	ret	0
?getLastRefreshTime@Rank@DRAMsimII@@QBE_JXZ ENDP	; DRAMsimII::Rank::getLastRefreshTime
; Function compile flags: /Odtp /RTCcsu /ZI
_TEXT	ENDS
;	COMDAT ?getLastCASTime@Rank@DRAMsimII@@QBE_JXZ
_TEXT	SEGMENT
_this$ = -8						; size = 4
?getLastCASTime@Rank@DRAMsimII@@QBE_JXZ PROC		; DRAMsimII::Rank::getLastCASTime, COMDAT
; _this$ = ecx

; 106  : 		tick getLastCASTime() const { return lastCASTime; }

	push	ebp
	mov	ebp, esp
	sub	esp, 204				; 000000ccH
	push	ebx
	push	esi
	push	edi
	push	ecx
	lea	edi, DWORD PTR [ebp-204]
	mov	ecx, 51					; 00000033H
	mov	eax, -858993460				; ccccccccH
	rep stosd
	pop	ecx
	mov	DWORD PTR _this$[ebp], ecx
	mov	ecx, DWORD PTR _this$[ebp]
	mov	eax, DWORD PTR [ecx+24]
	mov	edx, DWORD PTR [ecx+28]
	pop	edi
	pop	esi
	pop	ebx
	mov	esp, ebp
	pop	ebp
	ret	0
?getLastCASTime@Rank@DRAMsimII@@QBE_JXZ ENDP		; DRAMsimII::Rank::getLastCASTime
; Function compile flags: /Odtp /RTCcsu /ZI
_TEXT	ENDS
;	COMDAT ?getLastCASWTime@Rank@DRAMsimII@@QBE_JXZ
_TEXT	SEGMENT
_this$ = -8						; size = 4
?getLastCASWTime@Rank@DRAMsimII@@QBE_JXZ PROC		; DRAMsimII::Rank::getLastCASWTime, COMDAT
; _this$ = ecx

; 107  : 		tick getLastCASWTime() const { return lastCASWTime; }

	push	ebp
	mov	ebp, esp
	sub	esp, 204				; 000000ccH
	push	ebx
	push	esi
	push	edi
	push	ecx
	lea	edi, DWORD PTR [ebp-204]
	mov	ecx, 51					; 00000033H
	mov	eax, -858993460				; ccccccccH
	rep stosd
	pop	ecx
	mov	DWORD PTR _this$[ebp], ecx
	mov	ecx, DWORD PTR _this$[ebp]
	mov	eax, DWORD PTR [ecx+32]
	mov	edx, DWORD PTR [ecx+36]
	pop	edi
	pop	esi
	pop	ebx
	mov	esp, ebp
	pop	ebp
	ret	0
?getLastCASWTime@Rank@DRAMsimII@@QBE_JXZ ENDP		; DRAMsimII::Rank::getLastCASWTime
; Function compile flags: /Odtp /RTCcsu /ZI
_TEXT	ENDS
;	COMDAT ?getLastPrechargeTime@Rank@DRAMsimII@@QBE_JXZ
_TEXT	SEGMENT
_this$ = -8						; size = 4
?getLastPrechargeTime@Rank@DRAMsimII@@QBE_JXZ PROC	; DRAMsimII::Rank::getLastPrechargeTime, COMDAT
; _this$ = ecx

; 110  : 		tick getLastPrechargeTime() const { return lastPrechargeAnyBankTime; }

	push	ebp
	mov	ebp, esp
	sub	esp, 204				; 000000ccH
	push	ebx
	push	esi
	push	edi
	push	ecx
	lea	edi, DWORD PTR [ebp-204]
	mov	ecx, 51					; 00000033H
	mov	eax, -858993460				; ccccccccH
	rep stosd
	pop	ecx
	mov	DWORD PTR _this$[ebp], ecx
	mov	ecx, DWORD PTR _this$[ebp]
	mov	eax, DWORD PTR [ecx+16]
	mov	edx, DWORD PTR [ecx+20]
	pop	edi
	pop	esi
	pop	ebx
	mov	esp, ebp
	pop	ebp
	ret	0
?getLastPrechargeTime@Rank@DRAMsimII@@QBE_JXZ ENDP	; DRAMsimII::Rank::getLastPrechargeTime
_TEXT	ENDS
PUBLIC	??_C@_1FK@KLKDOCJF@?$AAt?$AAi?$AAm?$AAe?$AA?5?$AA?$DM?$AA?$DN?$AA?5?$AAe?$AAn?$AAd?$AAT?$AAi?$AAm?$AAe?$AA?5?$AA?$CL?$AA?5?$AAt?$AAi?$AAm?$AAi?$AAn?$AAg?$AAS?$AAp?$AAe?$AAc?$AAi?$AAf?$AAi?$AAc@ ; `string'
PUBLIC	??$min@_J@std@@YAAB_JAB_J0@Z			; std::min<__int64>
PUBLIC	??_C@_1CK@EOIDILJG@?$AAn?$AAe?$AAx?$AAt?$AAF?$AAr?$AAa?$AAm?$AAe?$AAT?$AAi?$AAm?$AAe?$AA?5?$AA?$DO?$AA?5?$AAt?$AAi?$AAm?$AAe?$AA?$AA@ ; `string'
PUBLIC	?nextFrameExecuteTime@fbdChannel@DRAMsimII@@IBE_JXZ ; DRAMsimII::fbdChannel::nextFrameExecuteTime
PUBLIC	??_C@_1CM@DDCNBAFL@?$AAn?$AAe?$AAx?$AAt?$AAD?$AAe?$AAc?$AAo?$AAd?$AAe?$AAT?$AAi?$AAm?$AAe?$AA?5?$AA?$DO?$AA?5?$AAt?$AAi?$AAm?$AAe?$AA?$AA@ ; `string'
PUBLIC	?makeFrame@fbdChannel@DRAMsimII@@IAE_N_J@Z	; DRAMsimII::fbdChannel::makeFrame
PUBLIC	??_GfbdFrame@DRAMsimII@@QAEPAXI@Z		; DRAMsimII::fbdFrame::`scalar deleting destructor'
PUBLIC	?getCommandC@fbdFrame@DRAMsimII@@QBEPAVCommand@2@XZ ; DRAMsimII::fbdFrame::getCommandC
PUBLIC	?getCommandCType@fbdFrame@DRAMsimII@@QBE?AW4CommandType@Command@2@XZ ; DRAMsimII::fbdFrame::getCommandCType
PUBLIC	?getCommandB@fbdFrame@DRAMsimII@@QBEPAVCommand@2@XZ ; DRAMsimII::fbdFrame::getCommandB
PUBLIC	?getCommandBType@fbdFrame@DRAMsimII@@QBE?AW4CommandType@Command@2@XZ ; DRAMsimII::fbdFrame::getCommandBType
PUBLIC	??$?6DU?$char_traits@D@std@@H@std@@YAAAV?$basic_ostream@DU?$char_traits@D@std@@@0@AAV10@ABU?$_Smanip@H@0@@Z ; std::operator<<<char,std::char_traits<char>,int>
PUBLIC	??_C@_04KLOEPAKI@C?5F?$FL?$AA@			; `string'
PUBLIC	?hex@std@@YAAAVios_base@1@AAV21@@Z		; std::hex
PUBLIC	??_C@_05HKAIPFEL@?$FN?5MG?$FL?$AA@		; `string'
PUBLIC	??_C@_02PBFOLPKM@?$FN?5?$AA@			; `string'
PUBLIC	?getCommandA@fbdFrame@DRAMsimII@@QBEPAVCommand@2@XZ ; DRAMsimII::fbdFrame::getCommandA
PUBLIC	?getCommandAType@fbdFrame@DRAMsimII@@QBE?AW4CommandType@Command@2@XZ ; DRAMsimII::fbdFrame::getCommandAType
PUBLIC	?getNextFrame@fbdChannel@DRAMsimII@@IAEPAVfbdFrame@2@XZ ; DRAMsimII::fbdChannel::getNextFrame
PUBLIC	??$?6U?$char_traits@D@std@@@std@@YAAAV?$basic_ostream@DU?$char_traits@D@std@@@0@AAV10@PBD@Z ; std::operator<<<std::char_traits<char> >
PUBLIC	??_C@_06PIIJMIIG@T?9?$DOC?5?$FL?$AA@		; `string'
PUBLIC	??_C@_04GNFNGMLO@?$FN?5Q?$FL?$AA@		; `string'
PUBLIC	?getTransactionQueueCount@Channel@DRAMsimII@@QBEIXZ ; DRAMsimII::Channel::getTransactionQueueCount
PUBLIC	??_C@_01LBDDMOBJ@?$FN?$AA@			; `string'
PUBLIC	??_C@_1CE@BGIJBKFE@?$AAt?$AA2?$AAc?$AAR?$AAe?$AAs?$AAu?$AAl?$AAt?$AA?5?$AA?$DN?$AA?$DN?$AA?5?$AAt?$AAr?$AAu?$AAe?$AA?$AA@ ; `string'
PUBLIC	??_C@_1KI@BGDEGIKL@?$AAc?$AA?3?$AA?2?$AAu?$AAs?$AAe?$AAr?$AAs?$AA?2?$AAc?$AAr?$AAi?$AAu?$AAs?$AA?2?$AAd?$AAo?$AAc?$AAu?$AAm?$AAe?$AAn?$AAt?$AAs?$AA?2?$AAv?$AAi?$AAs?$AAu?$AAa?$AAl?$AA?5@ ; `string'
PUBLIC	?__LINE__Var@?1??moveToTime@fbdChannel@DRAMsimII@@IAEI_JAA_J@Z@4JA ; `DRAMsimII::fbdChannel::moveToTime'::`2'::__LINE__Var
PUBLIC	?moveToTime@fbdChannel@DRAMsimII@@IAEI_JAA_J@Z	; DRAMsimII::fbdChannel::moveToTime
EXTRN	?nextTransactionDecodeTime@Channel@DRAMsimII@@IBE_JXZ:PROC ; DRAMsimII::Channel::nextTransactionDecodeTime
EXTRN	?executeCommand@Channel@DRAMsimII@@IAEXPAVCommand@2@@Z:PROC ; DRAMsimII::Channel::executeCommand
EXTRN	__imp_??6?$basic_ostream@DU?$char_traits@D@std@@@std@@QAEAAV01@H@Z:PROC
EXTRN	__imp_??6?$basic_ostream@DU?$char_traits@D@std@@@std@@QAEAAV01@P6AAAVios_base@1@AAV21@@Z@Z:PROC
EXTRN	__imp_?setw@std@@YA?AU?$_Smanip@H@1@H@Z:PROC
EXTRN	?collectCommandStats@Statistics@DRAMsimII@@QAEXPBVCommand@2@@Z:PROC ; DRAMsimII::Statistics::collectCommandStats
EXTRN	__imp_??6?$basic_ostream@DU?$char_traits@D@std@@@std@@QAEAAV01@P6AAAV01@AAV01@@Z@Z:PROC
EXTRN	__imp_??6?$basic_ostream@DU?$char_traits@D@std@@@std@@QAEAAV01@PBX@Z:PROC
EXTRN	__imp_??6?$basic_ostream@DU?$char_traits@D@std@@@std@@QAEAAV01@I@Z:PROC
EXTRN	__imp_??6?$basic_ostream@DU?$char_traits@D@std@@@std@@QAEAAV01@_J@Z:PROC
EXTRN	__imp_?endl@std@@YAAAV?$basic_ostream@DU?$char_traits@D@std@@@1@AAV21@@Z:PROC
EXTRN	__imp___wassert:PROC
EXTRN	?transaction2commands@Channel@DRAMsimII@@IAE_NPAVTransaction@2@@Z:PROC ; DRAMsimII::Channel::transaction2commands
EXTRN	?getTransaction@Channel@DRAMsimII@@IAEPAVTransaction@2@XZ:PROC ; DRAMsimII::Channel::getTransaction
EXTRN	?checkForAvailableCommandSlots@Channel@DRAMsimII@@IBE_NPBVTransaction@2@@Z:PROC ; DRAMsimII::Channel::checkForAvailableCommandSlots
EXTRN	?readTransaction@Channel@DRAMsimII@@IBEPBVTransaction@2@_N@Z:PROC ; DRAMsimII::Channel::readTransaction
;	COMDAT ??_C@_1FK@KLKDOCJF@?$AAt?$AAi?$AAm?$AAe?$AA?5?$AA?$DM?$AA?$DN?$AA?5?$AAe?$AAn?$AAd?$AAT?$AAi?$AAm?$AAe?$AA?5?$AA?$CL?$AA?5?$AAt?$AAi?$AAm?$AAi?$AAn?$AAg?$AAS?$AAp?$AAe?$AAc?$AAi?$AAf?$AAi?$AAc@
; File c:\users\crius\documents\visual studio 2008\projects\dramsimiihg\src\fbdchannel.cpp
CONST	SEGMENT
??_C@_1FK@KLKDOCJF@?$AAt?$AAi?$AAm?$AAe?$AA?5?$AA?$DM?$AA?$DN?$AA?5?$AAe?$AAn?$AAd?$AAT?$AAi?$AAm?$AAe?$AA?5?$AA?$CL?$AA?5?$AAt?$AAi?$AAm?$AAi?$AAn?$AAg?$AAS?$AAp?$AAe?$AAc?$AAi?$AAf?$AAi?$AAc@ DB 't'
	DB	00H, 'i', 00H, 'm', 00H, 'e', 00H, ' ', 00H, '<', 00H, '=', 00H
	DB	' ', 00H, 'e', 00H, 'n', 00H, 'd', 00H, 'T', 00H, 'i', 00H, 'm'
	DB	00H, 'e', 00H, ' ', 00H, '+', 00H, ' ', 00H, 't', 00H, 'i', 00H
	DB	'm', 00H, 'i', 00H, 'n', 00H, 'g', 00H, 'S', 00H, 'p', 00H, 'e'
	DB	00H, 'c', 00H, 'i', 00H, 'f', 00H, 'i', 00H, 'c', 00H, 'a', 00H
	DB	't', 00H, 'i', 00H, 'o', 00H, 'n', 00H, '.', 00H, 't', 00H, 'C'
	DB	00H, 'M', 00H, 'D', 00H, '(', 00H, ')', 00H, 00H, 00H ; `string'
CONST	ENDS
;	COMDAT ??_C@_1CK@EOIDILJG@?$AAn?$AAe?$AAx?$AAt?$AAF?$AAr?$AAa?$AAm?$AAe?$AAT?$AAi?$AAm?$AAe?$AA?5?$AA?$DO?$AA?5?$AAt?$AAi?$AAm?$AAe?$AA?$AA@
CONST	SEGMENT
??_C@_1CK@EOIDILJG@?$AAn?$AAe?$AAx?$AAt?$AAF?$AAr?$AAa?$AAm?$AAe?$AAT?$AAi?$AAm?$AAe?$AA?5?$AA?$DO?$AA?5?$AAt?$AAi?$AAm?$AAe?$AA?$AA@ DB 'n'
	DB	00H, 'e', 00H, 'x', 00H, 't', 00H, 'F', 00H, 'r', 00H, 'a', 00H
	DB	'm', 00H, 'e', 00H, 'T', 00H, 'i', 00H, 'm', 00H, 'e', 00H, ' '
	DB	00H, '>', 00H, ' ', 00H, 't', 00H, 'i', 00H, 'm', 00H, 'e', 00H
	DB	00H, 00H					; `string'
CONST	ENDS
;	COMDAT ??_C@_1CM@DDCNBAFL@?$AAn?$AAe?$AAx?$AAt?$AAD?$AAe?$AAc?$AAo?$AAd?$AAe?$AAT?$AAi?$AAm?$AAe?$AA?5?$AA?$DO?$AA?5?$AAt?$AAi?$AAm?$AAe?$AA?$AA@
CONST	SEGMENT
??_C@_1CM@DDCNBAFL@?$AAn?$AAe?$AAx?$AAt?$AAD?$AAe?$AAc?$AAo?$AAd?$AAe?$AAT?$AAi?$AAm?$AAe?$AA?5?$AA?$DO?$AA?5?$AAt?$AAi?$AAm?$AAe?$AA?$AA@ DB 'n'
	DB	00H, 'e', 00H, 'x', 00H, 't', 00H, 'D', 00H, 'e', 00H, 'c', 00H
	DB	'o', 00H, 'd', 00H, 'e', 00H, 'T', 00H, 'i', 00H, 'm', 00H, 'e'
	DB	00H, ' ', 00H, '>', 00H, ' ', 00H, 't', 00H, 'i', 00H, 'm', 00H
	DB	'e', 00H, 00H, 00H				; `string'
CONST	ENDS
;	COMDAT ??_C@_04KLOEPAKI@C?5F?$FL?$AA@
CONST	SEGMENT
??_C@_04KLOEPAKI@C?5F?$FL?$AA@ DB 'C F[', 00H		; `string'
CONST	ENDS
;	COMDAT ??_C@_05HKAIPFEL@?$FN?5MG?$FL?$AA@
CONST	SEGMENT
??_C@_05HKAIPFEL@?$FN?5MG?$FL?$AA@ DB '] MG[', 00H	; `string'
CONST	ENDS
;	COMDAT ??_C@_02PBFOLPKM@?$FN?5?$AA@
CONST	SEGMENT
??_C@_02PBFOLPKM@?$FN?5?$AA@ DB '] ', 00H		; `string'
CONST	ENDS
;	COMDAT ??_C@_06PIIJMIIG@T?9?$DOC?5?$FL?$AA@
CONST	SEGMENT
??_C@_06PIIJMIIG@T?9?$DOC?5?$FL?$AA@ DB 'T->C [', 00H	; `string'
CONST	ENDS
;	COMDAT ??_C@_04GNFNGMLO@?$FN?5Q?$FL?$AA@
CONST	SEGMENT
??_C@_04GNFNGMLO@?$FN?5Q?$FL?$AA@ DB '] Q[', 00H	; `string'
CONST	ENDS
;	COMDAT ??_C@_01LBDDMOBJ@?$FN?$AA@
CONST	SEGMENT
??_C@_01LBDDMOBJ@?$FN?$AA@ DB ']', 00H			; `string'
CONST	ENDS
;	COMDAT ??_C@_1CE@BGIJBKFE@?$AAt?$AA2?$AAc?$AAR?$AAe?$AAs?$AAu?$AAl?$AAt?$AA?5?$AA?$DN?$AA?$DN?$AA?5?$AAt?$AAr?$AAu?$AAe?$AA?$AA@
CONST	SEGMENT
??_C@_1CE@BGIJBKFE@?$AAt?$AA2?$AAc?$AAR?$AAe?$AAs?$AAu?$AAl?$AAt?$AA?5?$AA?$DN?$AA?$DN?$AA?5?$AAt?$AAr?$AAu?$AAe?$AA?$AA@ DB 't'
	DB	00H, '2', 00H, 'c', 00H, 'R', 00H, 'e', 00H, 's', 00H, 'u', 00H
	DB	'l', 00H, 't', 00H, ' ', 00H, '=', 00H, '=', 00H, ' ', 00H, 't'
	DB	00H, 'r', 00H, 'u', 00H, 'e', 00H, 00H, 00H	; `string'
CONST	ENDS
;	COMDAT ??_C@_1KI@BGDEGIKL@?$AAc?$AA?3?$AA?2?$AAu?$AAs?$AAe?$AAr?$AAs?$AA?2?$AAc?$AAr?$AAi?$AAu?$AAs?$AA?2?$AAd?$AAo?$AAc?$AAu?$AAm?$AAe?$AAn?$AAt?$AAs?$AA?2?$AAv?$AAi?$AAs?$AAu?$AAa?$AAl?$AA?5@
CONST	SEGMENT
??_C@_1KI@BGDEGIKL@?$AAc?$AA?3?$AA?2?$AAu?$AAs?$AAe?$AAr?$AAs?$AA?2?$AAc?$AAr?$AAi?$AAu?$AAs?$AA?2?$AAd?$AAo?$AAc?$AAu?$AAm?$AAe?$AAn?$AAt?$AAs?$AA?2?$AAv?$AAi?$AAs?$AAu?$AAa?$AAl?$AA?5@ DB 'c'
	DB	00H, ':', 00H, '\', 00H, 'u', 00H, 's', 00H, 'e', 00H, 'r', 00H
	DB	's', 00H, '\', 00H, 'c', 00H, 'r', 00H, 'i', 00H, 'u', 00H, 's'
	DB	00H, '\', 00H, 'd', 00H, 'o', 00H, 'c', 00H, 'u', 00H, 'm', 00H
	DB	'e', 00H, 'n', 00H, 't', 00H, 's', 00H, '\', 00H, 'v', 00H, 'i'
	DB	00H, 's', 00H, 'u', 00H, 'a', 00H, 'l', 00H, ' ', 00H, 's', 00H
	DB	't', 00H, 'u', 00H, 'd', 00H, 'i', 00H, 'o', 00H, ' ', 00H, '2'
	DB	00H, '0', 00H, '0', 00H, '8', 00H, '\', 00H, 'p', 00H, 'r', 00H
	DB	'o', 00H, 'j', 00H, 'e', 00H, 'c', 00H, 't', 00H, 's', 00H, '\'
	DB	00H, 'd', 00H, 'r', 00H, 'a', 00H, 'm', 00H, 's', 00H, 'i', 00H
	DB	'm', 00H, 'i', 00H, 'i', 00H, 'h', 00H, 'g', 00H, '\', 00H, 's'
	DB	00H, 'r', 00H, 'c', 00H, '\', 00H, 'f', 00H, 'b', 00H, 'd', 00H
	DB	'c', 00H, 'h', 00H, 'a', 00H, 'n', 00H, 'n', 00H, 'e', 00H, 'l'
	DB	00H, '.', 00H, 'c', 00H, 'p', 00H, 'p', 00H, 00H, 00H ; `string'
CONST	ENDS
;	COMDAT ?__LINE__Var@?1??moveToTime@fbdChannel@DRAMsimII@@IAEI_JAA_J@Z@4JA
_DATA	SEGMENT
?__LINE__Var@?1??moveToTime@fbdChannel@DRAMsimII@@IAEI_JAA_J@Z@4JA DD 0ffH ; `DRAMsimII::fbdChannel::moveToTime'::`2'::__LINE__Var
; Function compile flags: /Odtp /RTCcsu /ZI
_DATA	ENDS
;	COMDAT ?moveToTime@fbdChannel@DRAMsimII@@IAEI_JAA_J@Z
_TEXT	SEGMENT
tv775 = -416						; size = 4
tv767 = -416						; size = 4
tv759 = -416						; size = 4
tv773 = -412						; size = 4
tv765 = -412						; size = 4
tv757 = -412						; size = 4
tv771 = -408						; size = 4
tv763 = -408						; size = 4
tv755 = -408						; size = 4
tv769 = -404						; size = 4
tv761 = -404						; size = 4
tv753 = -404						; size = 4
tv751 = -404						; size = 4
tv736 = -404						; size = 8
tv375 = -400						; size = 4
tv298 = -400						; size = 4
tv221 = -400						; size = 4
tv153 = -400						; size = 4
tv735 = -396						; size = 4
tv701 = -396						; size = 4
tv684 = -396						; size = 4
tv486 = -396						; size = 4
tv416 = -396						; size = 4
tv376 = -396						; size = 4
tv299 = -396						; size = 4
tv222 = -396						; size = 4
tv154 = -396						; size = 4
$T174386 = -388						; size = 8
$T174387 = -372						; size = 8
$T174390 = -356						; size = 8
$T174391 = -340						; size = 8
$T174394 = -324						; size = 8
$T174395 = -308						; size = 8
$T174398 = -292						; size = 4
$T174399 = -280						; size = 4
_nextFrameTime$149042 = -76				; size = 8
_nextDecodeTime$149039 = -60				; size = 8
_nextFrame$148984 = -44					; size = 4
_t2cResult$148971 = -29					; size = 1
_decodedTransaction$148970 = -20			; size = 4
_this$ = -8						; size = 4
_endTime$ = 8						; size = 8
_transFinishTime$ = 16					; size = 4
?moveToTime@fbdChannel@DRAMsimII@@IAEI_JAA_J@Z PROC	; DRAMsimII::fbdChannel::moveToTime, COMDAT
; _this$ = ecx

; 255  : {

	push	ebp
	mov	ebp, esp
	sub	esp, 416				; 000001a0H
	push	ebx
	push	esi
	push	edi
	push	ecx
	lea	edi, DWORD PTR [ebp-416]
	mov	ecx, 104				; 00000068H
	mov	eax, -858993460				; ccccccccH
	rep stosd
	pop	ecx
	mov	DWORD PTR _this$[ebp], ecx
$LN8@moveToTime:

; 256  : 	while (time < endTime)

	mov	eax, DWORD PTR _this$[ebp]
	mov	DWORD PTR tv486[ebp], eax
	mov	ecx, DWORD PTR tv486[ebp]
	mov	edx, DWORD PTR [ecx+12]
	cmp	edx, DWORD PTR _endTime$[ebp+4]
	jg	$LN7@moveToTime
	jl	SHORT $LN25@moveToTime
	mov	eax, DWORD PTR tv486[ebp]
	mov	ecx, DWORD PTR [eax+8]
	cmp	ecx, DWORD PTR _endTime$[ebp]
	jae	$LN7@moveToTime
$LN25@moveToTime:

; 257  : 	{
; 258  : 		// try to convert any transactions into commands first
; 259  : 		if (checkForAvailableCommandSlots(readTransaction(true)))

	push	1
	mov	ecx, DWORD PTR _this$[ebp]
	call	?readTransaction@Channel@DRAMsimII@@IBEPBVTransaction@2@_N@Z ; DRAMsimII::Channel::readTransaction
	push	eax
	mov	ecx, DWORD PTR _this$[ebp]
	call	?checkForAvailableCommandSlots@Channel@DRAMsimII@@IBE_NPBVTransaction@2@@Z ; DRAMsimII::Channel::checkForAvailableCommandSlots
	movzx	eax, al
	test	eax, eax
	je	$LN6@moveToTime

; 260  : 		{
; 261  : 			// actually remove it from the queue now
; 262  : 			Transaction *decodedTransaction = getTransaction();

	mov	ecx, DWORD PTR _this$[ebp]
	call	?getTransaction@Channel@DRAMsimII@@IAEPAVTransaction@2@XZ ; DRAMsimII::Channel::getTransaction
	mov	DWORD PTR _decodedTransaction$148970[ebp], eax

; 263  : 
; 264  : 			// then break into commands and insert into per bank command queues
; 265  : 			bool t2cResult = transaction2commands(decodedTransaction);

	mov	eax, DWORD PTR _decodedTransaction$148970[ebp]
	push	eax
	mov	ecx, DWORD PTR _this$[ebp]
	call	?transaction2commands@Channel@DRAMsimII@@IAE_NPAVTransaction@2@@Z ; DRAMsimII::Channel::transaction2commands
	mov	BYTE PTR _t2cResult$148971[ebp], al

; 266  : 
; 267  : 			assert(t2cResult == true);

	movzx	eax, BYTE PTR _t2cResult$148971[ebp]
	cmp	eax, 1
	je	SHORT $LN11@moveToTime
	mov	ecx, DWORD PTR ?__LINE__Var@?1??moveToTime@fbdChannel@DRAMsimII@@IAEI_JAA_J@Z@4JA
	add	ecx, 12					; 0000000cH
	mov	esi, esp
	push	ecx
	push	OFFSET ??_C@_1KI@BGDEGIKL@?$AAc?$AA?3?$AA?2?$AAu?$AAs?$AAe?$AAr?$AAs?$AA?2?$AAc?$AAr?$AAi?$AAu?$AAs?$AA?2?$AAd?$AAo?$AAc?$AAu?$AAm?$AAe?$AAn?$AAt?$AAs?$AA?2?$AAv?$AAi?$AAs?$AAu?$AAa?$AAl?$AA?5@
	push	OFFSET ??_C@_1CE@BGIJBKFE@?$AAt?$AA2?$AAc?$AAR?$AAe?$AAs?$AAu?$AAl?$AAt?$AA?5?$AA?$DN?$AA?$DN?$AA?5?$AAt?$AAr?$AAu?$AAe?$AA?$AA@
	call	DWORD PTR __imp___wassert
	add	esp, 12					; 0000000cH
	cmp	esi, esp
	call	__RTC_CheckEsp
$LN11@moveToTime:

; 268  : 
; 269  : 			DEBUG_TRANSACTION_LOG("T->C [" << time << "] Q[" << getTransactionQueueCount() << "]" << decodedTransaction);

	mov	eax, DWORD PTR _this$[ebp]
	mov	ecx, DWORD PTR [eax+168]
	mov	DWORD PTR tv154[ebp], ecx
	cmp	DWORD PTR tv154[ebp], 0
	je	SHORT $LN12@moveToTime
	mov	edx, DWORD PTR tv154[ebp]
	add	edx, 8
	mov	DWORD PTR tv153[ebp], edx
	jmp	SHORT $LN13@moveToTime
$LN12@moveToTime:
	mov	DWORD PTR tv153[ebp], 0
$LN13@moveToTime:
	mov	esi, esp
	mov	eax, DWORD PTR __imp_?endl@std@@YAAAV?$basic_ostream@DU?$char_traits@D@std@@@1@AAV21@@Z
	push	eax
	mov	edi, esp
	mov	ecx, DWORD PTR _decodedTransaction$148970[ebp]
	push	ecx
	push	OFFSET ??_C@_01LBDDMOBJ@?$FN?$AA@
	mov	ecx, DWORD PTR _this$[ebp]
	call	?getTransactionQueueCount@Channel@DRAMsimII@@QBEIXZ ; DRAMsimII::Channel::getTransactionQueueCount
	mov	ebx, esp
	push	eax
	push	OFFSET ??_C@_04GNFNGMLO@?$FN?5Q?$FL?$AA@
	mov	eax, esp
	mov	edx, DWORD PTR _this$[ebp]
	mov	ecx, DWORD PTR [edx+12]
	push	ecx
	mov	edx, DWORD PTR [edx+8]
	push	edx
	push	OFFSET ??_C@_06PIIJMIIG@T?9?$DOC?5?$FL?$AA@
	mov	ecx, DWORD PTR tv153[ebp]
	push	ecx
	mov	DWORD PTR tv751[ebp], eax
	call	??$?6U?$char_traits@D@std@@@std@@YAAAV?$basic_ostream@DU?$char_traits@D@std@@@0@AAV10@PBD@Z ; std::operator<<<std::char_traits<char> >
	add	esp, 8
	mov	ecx, eax
	call	DWORD PTR __imp_??6?$basic_ostream@DU?$char_traits@D@std@@@std@@QAEAAV01@_J@Z
	mov	ecx, DWORD PTR tv751[ebp]
	cmp	ecx, esp
	call	__RTC_CheckEsp
	push	eax
	call	??$?6U?$char_traits@D@std@@@std@@YAAAV?$basic_ostream@DU?$char_traits@D@std@@@0@AAV10@PBD@Z ; std::operator<<<std::char_traits<char> >
	add	esp, 8
	mov	ecx, eax
	call	DWORD PTR __imp_??6?$basic_ostream@DU?$char_traits@D@std@@@std@@QAEAAV01@I@Z
	cmp	ebx, esp
	call	__RTC_CheckEsp
	push	eax
	call	??$?6U?$char_traits@D@std@@@std@@YAAAV?$basic_ostream@DU?$char_traits@D@std@@@0@AAV10@PBD@Z ; std::operator<<<std::char_traits<char> >
	add	esp, 8
	mov	ecx, eax
	call	DWORD PTR __imp_??6?$basic_ostream@DU?$char_traits@D@std@@@std@@QAEAAV01@PBX@Z
	cmp	edi, esp
	call	__RTC_CheckEsp
	mov	ecx, eax
	call	DWORD PTR __imp_??6?$basic_ostream@DU?$char_traits@D@std@@@std@@QAEAAV01@P6AAAV01@AAV01@@Z@Z
	cmp	esi, esp
	call	__RTC_CheckEsp

; 270  : 		}
; 271  : 		// if all available transactions are converted to commands, then execute the frame corresponding to this time
; 272  : 		else

	jmp	$LN5@moveToTime
$LN6@moveToTime:

; 273  : 		{
; 274  : 			// move time up by executing frames
; 275  : 			fbdFrame *nextFrame = getNextFrame();

	mov	ecx, DWORD PTR _this$[ebp]
	call	?getNextFrame@fbdChannel@DRAMsimII@@IAEPAVfbdFrame@2@XZ ; DRAMsimII::fbdChannel::getNextFrame
	mov	DWORD PTR _nextFrame$148984[ebp], eax

; 276  : 
; 277  : 			// if there's a frame at this time
; 278  : 			if (nextFrame)

	cmp	DWORD PTR _nextFrame$148984[ebp], 0
	je	$LN4@moveToTime

; 279  : 			{
; 280  : 				// execute any commands in this frame
; 281  : 				if (nextFrame->getCommandAType() != Command::INVALID_COMMAND)

	mov	ecx, DWORD PTR _nextFrame$148984[ebp]
	call	?getCommandAType@fbdFrame@DRAMsimII@@QBE?AW4CommandType@Command@2@XZ ; DRAMsimII::fbdFrame::getCommandAType
	cmp	eax, 16					; 00000010H
	je	$LN3@moveToTime

; 282  : 				{
; 283  : 					statistics.collectCommandStats(nextFrame->getCommandA());

	mov	ecx, DWORD PTR _nextFrame$148984[ebp]
	call	?getCommandA@fbdFrame@DRAMsimII@@QBEPAVCommand@2@XZ ; DRAMsimII::fbdFrame::getCommandA
	push	eax
	mov	eax, DWORD PTR _this$[ebp]
	mov	ecx, DWORD PTR [eax+172]
	call	?collectCommandStats@Statistics@DRAMsimII@@QAEXPBVCommand@2@@Z ; DRAMsimII::Statistics::collectCommandStats

; 284  : 					DEBUG_COMMAND_LOG("C F[" << std::hex << setw(8) << time << "] MG[" << setw(2) << 0 << "] " << nextFrame->getCommandA());

	mov	eax, DWORD PTR _this$[ebp]
	mov	ecx, DWORD PTR [eax+168]
	mov	DWORD PTR tv222[ebp], ecx
	cmp	DWORD PTR tv222[ebp], 0
	je	SHORT $LN14@moveToTime
	mov	edx, DWORD PTR tv222[ebp]
	add	edx, 8
	mov	DWORD PTR tv221[ebp], edx
	jmp	SHORT $LN15@moveToTime
$LN14@moveToTime:
	mov	DWORD PTR tv221[ebp], 0
$LN15@moveToTime:
	mov	esi, esp
	mov	eax, DWORD PTR __imp_?endl@std@@YAAAV?$basic_ostream@DU?$char_traits@D@std@@@1@AAV21@@Z
	push	eax
	mov	ecx, DWORD PTR _nextFrame$148984[ebp]
	call	?getCommandA@fbdFrame@DRAMsimII@@QBEPAVCommand@2@XZ ; DRAMsimII::fbdFrame::getCommandA
	mov	edi, esp
	push	eax
	push	OFFSET ??_C@_02PBFOLPKM@?$FN?5?$AA@
	mov	ebx, esp
	push	0
	mov	eax, esp
	push	2
	lea	ecx, DWORD PTR $T174386[ebp]
	push	ecx
	mov	DWORD PTR tv753[ebp], eax
	call	DWORD PTR __imp_?setw@std@@YA?AU?$_Smanip@H@1@H@Z
	add	esp, 8
	mov	ecx, DWORD PTR tv753[ebp]
	cmp	ecx, esp
	call	__RTC_CheckEsp
	push	eax
	push	OFFSET ??_C@_05HKAIPFEL@?$FN?5MG?$FL?$AA@
	mov	eax, esp
	mov	edx, DWORD PTR _this$[ebp]
	mov	ecx, DWORD PTR [edx+12]
	push	ecx
	mov	edx, DWORD PTR [edx+8]
	push	edx
	mov	ecx, esp
	push	8
	lea	edx, DWORD PTR $T174387[ebp]
	push	edx
	mov	DWORD PTR tv755[ebp], eax
	mov	DWORD PTR tv757[ebp], ecx
	call	DWORD PTR __imp_?setw@std@@YA?AU?$_Smanip@H@1@H@Z
	add	esp, 8
	mov	ecx, DWORD PTR tv757[ebp]
	cmp	ecx, esp
	call	__RTC_CheckEsp
	push	eax
	mov	eax, esp
	push	OFFSET ?hex@std@@YAAAVios_base@1@AAV21@@Z ; std::hex
	push	OFFSET ??_C@_04KLOEPAKI@C?5F?$FL?$AA@
	mov	ecx, DWORD PTR tv221[ebp]
	push	ecx
	mov	DWORD PTR tv759[ebp], eax
	call	??$?6U?$char_traits@D@std@@@std@@YAAAV?$basic_ostream@DU?$char_traits@D@std@@@0@AAV10@PBD@Z ; std::operator<<<std::char_traits<char> >
	add	esp, 8
	mov	ecx, eax
	call	DWORD PTR __imp_??6?$basic_ostream@DU?$char_traits@D@std@@@std@@QAEAAV01@P6AAAVios_base@1@AAV21@@Z@Z
	mov	ecx, DWORD PTR tv759[ebp]
	cmp	ecx, esp
	call	__RTC_CheckEsp
	push	eax
	call	??$?6DU?$char_traits@D@std@@H@std@@YAAAV?$basic_ostream@DU?$char_traits@D@std@@@0@AAV10@ABU?$_Smanip@H@0@@Z ; std::operator<<<char,std::char_traits<char>,int>
	add	esp, 8
	mov	ecx, eax
	call	DWORD PTR __imp_??6?$basic_ostream@DU?$char_traits@D@std@@@std@@QAEAAV01@_J@Z
	mov	ecx, DWORD PTR tv755[ebp]
	cmp	ecx, esp
	call	__RTC_CheckEsp
	push	eax
	call	??$?6U?$char_traits@D@std@@@std@@YAAAV?$basic_ostream@DU?$char_traits@D@std@@@0@AAV10@PBD@Z ; std::operator<<<std::char_traits<char> >
	add	esp, 8
	push	eax
	call	??$?6DU?$char_traits@D@std@@H@std@@YAAAV?$basic_ostream@DU?$char_traits@D@std@@@0@AAV10@ABU?$_Smanip@H@0@@Z ; std::operator<<<char,std::char_traits<char>,int>
	add	esp, 8
	mov	ecx, eax
	call	DWORD PTR __imp_??6?$basic_ostream@DU?$char_traits@D@std@@@std@@QAEAAV01@H@Z
	cmp	ebx, esp
	call	__RTC_CheckEsp
	push	eax
	call	??$?6U?$char_traits@D@std@@@std@@YAAAV?$basic_ostream@DU?$char_traits@D@std@@@0@AAV10@PBD@Z ; std::operator<<<std::char_traits<char> >
	add	esp, 8
	mov	ecx, eax
	call	DWORD PTR __imp_??6?$basic_ostream@DU?$char_traits@D@std@@@std@@QAEAAV01@PBX@Z
	cmp	edi, esp
	call	__RTC_CheckEsp
	mov	ecx, eax
	call	DWORD PTR __imp_??6?$basic_ostream@DU?$char_traits@D@std@@@std@@QAEAAV01@P6AAAV01@AAV01@@Z@Z
	cmp	esi, esp
	call	__RTC_CheckEsp

; 285  : 					executeCommand(nextFrame->getCommandA());

	mov	ecx, DWORD PTR _nextFrame$148984[ebp]
	call	?getCommandA@fbdFrame@DRAMsimII@@QBEPAVCommand@2@XZ ; DRAMsimII::fbdFrame::getCommandA
	push	eax
	mov	ecx, DWORD PTR _this$[ebp]
	call	?executeCommand@Channel@DRAMsimII@@IAEXPAVCommand@2@@Z ; DRAMsimII::Channel::executeCommand
$LN3@moveToTime:

; 286  : 				}
; 287  : 				if (nextFrame->getCommandBType() != Command::INVALID_COMMAND && nextFrame->getCommandBType() != Command::DATA_COMMAND)

	mov	ecx, DWORD PTR _nextFrame$148984[ebp]
	call	?getCommandBType@fbdFrame@DRAMsimII@@QBE?AW4CommandType@Command@2@XZ ; DRAMsimII::fbdFrame::getCommandBType
	cmp	eax, 16					; 00000010H
	je	$LN2@moveToTime
	mov	ecx, DWORD PTR _nextFrame$148984[ebp]
	call	?getCommandBType@fbdFrame@DRAMsimII@@QBE?AW4CommandType@Command@2@XZ ; DRAMsimII::fbdFrame::getCommandBType
	cmp	eax, 10					; 0000000aH
	je	$LN2@moveToTime

; 288  : 				{
; 289  : 					statistics.collectCommandStats(nextFrame->getCommandB());

	mov	ecx, DWORD PTR _nextFrame$148984[ebp]
	call	?getCommandB@fbdFrame@DRAMsimII@@QBEPAVCommand@2@XZ ; DRAMsimII::fbdFrame::getCommandB
	push	eax
	mov	eax, DWORD PTR _this$[ebp]
	mov	ecx, DWORD PTR [eax+172]
	call	?collectCommandStats@Statistics@DRAMsimII@@QAEXPBVCommand@2@@Z ; DRAMsimII::Statistics::collectCommandStats

; 290  : 					DEBUG_COMMAND_LOG("C F[" << std::hex << setw(8) << time << "] MG[" << setw(2) << 0 << "] " << nextFrame->getCommandB());

	mov	eax, DWORD PTR _this$[ebp]
	mov	ecx, DWORD PTR [eax+168]
	mov	DWORD PTR tv299[ebp], ecx
	cmp	DWORD PTR tv299[ebp], 0
	je	SHORT $LN16@moveToTime
	mov	edx, DWORD PTR tv299[ebp]
	add	edx, 8
	mov	DWORD PTR tv298[ebp], edx
	jmp	SHORT $LN17@moveToTime
$LN16@moveToTime:
	mov	DWORD PTR tv298[ebp], 0
$LN17@moveToTime:
	mov	esi, esp
	mov	eax, DWORD PTR __imp_?endl@std@@YAAAV?$basic_ostream@DU?$char_traits@D@std@@@1@AAV21@@Z
	push	eax
	mov	ecx, DWORD PTR _nextFrame$148984[ebp]
	call	?getCommandB@fbdFrame@DRAMsimII@@QBEPAVCommand@2@XZ ; DRAMsimII::fbdFrame::getCommandB
	mov	edi, esp
	push	eax
	push	OFFSET ??_C@_02PBFOLPKM@?$FN?5?$AA@
	mov	ebx, esp
	push	0
	mov	eax, esp
	push	2
	lea	ecx, DWORD PTR $T174390[ebp]
	push	ecx
	mov	DWORD PTR tv761[ebp], eax
	call	DWORD PTR __imp_?setw@std@@YA?AU?$_Smanip@H@1@H@Z
	add	esp, 8
	mov	ecx, DWORD PTR tv761[ebp]
	cmp	ecx, esp
	call	__RTC_CheckEsp
	push	eax
	push	OFFSET ??_C@_05HKAIPFEL@?$FN?5MG?$FL?$AA@
	mov	eax, esp
	mov	edx, DWORD PTR _this$[ebp]
	mov	ecx, DWORD PTR [edx+12]
	push	ecx
	mov	edx, DWORD PTR [edx+8]
	push	edx
	mov	ecx, esp
	push	8
	lea	edx, DWORD PTR $T174391[ebp]
	push	edx
	mov	DWORD PTR tv763[ebp], eax
	mov	DWORD PTR tv765[ebp], ecx
	call	DWORD PTR __imp_?setw@std@@YA?AU?$_Smanip@H@1@H@Z
	add	esp, 8
	mov	ecx, DWORD PTR tv765[ebp]
	cmp	ecx, esp
	call	__RTC_CheckEsp
	push	eax
	mov	eax, esp
	push	OFFSET ?hex@std@@YAAAVios_base@1@AAV21@@Z ; std::hex
	push	OFFSET ??_C@_04KLOEPAKI@C?5F?$FL?$AA@
	mov	ecx, DWORD PTR tv298[ebp]
	push	ecx
	mov	DWORD PTR tv767[ebp], eax
	call	??$?6U?$char_traits@D@std@@@std@@YAAAV?$basic_ostream@DU?$char_traits@D@std@@@0@AAV10@PBD@Z ; std::operator<<<std::char_traits<char> >
	add	esp, 8
	mov	ecx, eax
	call	DWORD PTR __imp_??6?$basic_ostream@DU?$char_traits@D@std@@@std@@QAEAAV01@P6AAAVios_base@1@AAV21@@Z@Z
	mov	ecx, DWORD PTR tv767[ebp]
	cmp	ecx, esp
	call	__RTC_CheckEsp
	push	eax
	call	??$?6DU?$char_traits@D@std@@H@std@@YAAAV?$basic_ostream@DU?$char_traits@D@std@@@0@AAV10@ABU?$_Smanip@H@0@@Z ; std::operator<<<char,std::char_traits<char>,int>
	add	esp, 8
	mov	ecx, eax
	call	DWORD PTR __imp_??6?$basic_ostream@DU?$char_traits@D@std@@@std@@QAEAAV01@_J@Z
	mov	ecx, DWORD PTR tv763[ebp]
	cmp	ecx, esp
	call	__RTC_CheckEsp
	push	eax
	call	??$?6U?$char_traits@D@std@@@std@@YAAAV?$basic_ostream@DU?$char_traits@D@std@@@0@AAV10@PBD@Z ; std::operator<<<std::char_traits<char> >
	add	esp, 8
	push	eax
	call	??$?6DU?$char_traits@D@std@@H@std@@YAAAV?$basic_ostream@DU?$char_traits@D@std@@@0@AAV10@ABU?$_Smanip@H@0@@Z ; std::operator<<<char,std::char_traits<char>,int>
	add	esp, 8
	mov	ecx, eax
	call	DWORD PTR __imp_??6?$basic_ostream@DU?$char_traits@D@std@@@std@@QAEAAV01@H@Z
	cmp	ebx, esp
	call	__RTC_CheckEsp
	push	eax
	call	??$?6U?$char_traits@D@std@@@std@@YAAAV?$basic_ostream@DU?$char_traits@D@std@@@0@AAV10@PBD@Z ; std::operator<<<std::char_traits<char> >
	add	esp, 8
	mov	ecx, eax
	call	DWORD PTR __imp_??6?$basic_ostream@DU?$char_traits@D@std@@@std@@QAEAAV01@PBX@Z
	cmp	edi, esp
	call	__RTC_CheckEsp
	mov	ecx, eax
	call	DWORD PTR __imp_??6?$basic_ostream@DU?$char_traits@D@std@@@std@@QAEAAV01@P6AAAV01@AAV01@@Z@Z
	cmp	esi, esp
	call	__RTC_CheckEsp

; 291  : 					executeCommand(nextFrame->getCommandB());

	mov	ecx, DWORD PTR _nextFrame$148984[ebp]
	call	?getCommandB@fbdFrame@DRAMsimII@@QBEPAVCommand@2@XZ ; DRAMsimII::fbdFrame::getCommandB
	push	eax
	mov	ecx, DWORD PTR _this$[ebp]
	call	?executeCommand@Channel@DRAMsimII@@IAEXPAVCommand@2@@Z ; DRAMsimII::Channel::executeCommand
$LN2@moveToTime:

; 292  : 				}
; 293  : 				if (nextFrame->getCommandCType() != Command::INVALID_COMMAND && nextFrame->getCommandCType() != Command::DATA_COMMAND)

	mov	ecx, DWORD PTR _nextFrame$148984[ebp]
	call	?getCommandCType@fbdFrame@DRAMsimII@@QBE?AW4CommandType@Command@2@XZ ; DRAMsimII::fbdFrame::getCommandCType
	cmp	eax, 16					; 00000010H
	je	$LN4@moveToTime
	mov	ecx, DWORD PTR _nextFrame$148984[ebp]
	call	?getCommandCType@fbdFrame@DRAMsimII@@QBE?AW4CommandType@Command@2@XZ ; DRAMsimII::fbdFrame::getCommandCType
	cmp	eax, 10					; 0000000aH
	je	$LN4@moveToTime

; 294  : 				{
; 295  : 					statistics.collectCommandStats(nextFrame->getCommandC());

	mov	ecx, DWORD PTR _nextFrame$148984[ebp]
	call	?getCommandC@fbdFrame@DRAMsimII@@QBEPAVCommand@2@XZ ; DRAMsimII::fbdFrame::getCommandC
	push	eax
	mov	eax, DWORD PTR _this$[ebp]
	mov	ecx, DWORD PTR [eax+172]
	call	?collectCommandStats@Statistics@DRAMsimII@@QAEXPBVCommand@2@@Z ; DRAMsimII::Statistics::collectCommandStats

; 296  : 					DEBUG_COMMAND_LOG("C F[" << std::hex << setw(8) << time << "] MG[" << setw(2) << 0 << "] " << nextFrame->getCommandC());

	mov	eax, DWORD PTR _this$[ebp]
	mov	ecx, DWORD PTR [eax+168]
	mov	DWORD PTR tv376[ebp], ecx
	cmp	DWORD PTR tv376[ebp], 0
	je	SHORT $LN18@moveToTime
	mov	edx, DWORD PTR tv376[ebp]
	add	edx, 8
	mov	DWORD PTR tv375[ebp], edx
	jmp	SHORT $LN19@moveToTime
$LN18@moveToTime:
	mov	DWORD PTR tv375[ebp], 0
$LN19@moveToTime:
	mov	esi, esp
	mov	eax, DWORD PTR __imp_?endl@std@@YAAAV?$basic_ostream@DU?$char_traits@D@std@@@1@AAV21@@Z
	push	eax
	mov	ecx, DWORD PTR _nextFrame$148984[ebp]
	call	?getCommandC@fbdFrame@DRAMsimII@@QBEPAVCommand@2@XZ ; DRAMsimII::fbdFrame::getCommandC
	mov	edi, esp
	push	eax
	push	OFFSET ??_C@_02PBFOLPKM@?$FN?5?$AA@
	mov	ebx, esp
	push	0
	mov	eax, esp
	push	2
	lea	ecx, DWORD PTR $T174394[ebp]
	push	ecx
	mov	DWORD PTR tv769[ebp], eax
	call	DWORD PTR __imp_?setw@std@@YA?AU?$_Smanip@H@1@H@Z
	add	esp, 8
	mov	ecx, DWORD PTR tv769[ebp]
	cmp	ecx, esp
	call	__RTC_CheckEsp
	push	eax
	push	OFFSET ??_C@_05HKAIPFEL@?$FN?5MG?$FL?$AA@
	mov	eax, esp
	mov	edx, DWORD PTR _this$[ebp]
	mov	ecx, DWORD PTR [edx+12]
	push	ecx
	mov	edx, DWORD PTR [edx+8]
	push	edx
	mov	ecx, esp
	push	8
	lea	edx, DWORD PTR $T174395[ebp]
	push	edx
	mov	DWORD PTR tv771[ebp], eax
	mov	DWORD PTR tv773[ebp], ecx
	call	DWORD PTR __imp_?setw@std@@YA?AU?$_Smanip@H@1@H@Z
	add	esp, 8
	mov	ecx, DWORD PTR tv773[ebp]
	cmp	ecx, esp
	call	__RTC_CheckEsp
	push	eax
	mov	eax, esp
	push	OFFSET ?hex@std@@YAAAVios_base@1@AAV21@@Z ; std::hex
	push	OFFSET ??_C@_04KLOEPAKI@C?5F?$FL?$AA@
	mov	ecx, DWORD PTR tv375[ebp]
	push	ecx
	mov	DWORD PTR tv775[ebp], eax
	call	??$?6U?$char_traits@D@std@@@std@@YAAAV?$basic_ostream@DU?$char_traits@D@std@@@0@AAV10@PBD@Z ; std::operator<<<std::char_traits<char> >
	add	esp, 8
	mov	ecx, eax
	call	DWORD PTR __imp_??6?$basic_ostream@DU?$char_traits@D@std@@@std@@QAEAAV01@P6AAAVios_base@1@AAV21@@Z@Z
	mov	ecx, DWORD PTR tv775[ebp]
	cmp	ecx, esp
	call	__RTC_CheckEsp
	push	eax
