; Listing generated by Microsoft (R) Optimizing Compiler Version 15.00.30729.01 

	TITLE	c:\Users\CriuS\Documents\Visual Studio 2008\Projects\DRAMsimIIhg\src\fbdFrame.cpp
	.686P
	.XMM
	include listing.inc
	.model	flat

INCLUDELIB MSVCRTD
INCLUDELIB OLDNAMES

PUBLIC	??_C@_0P@GHFPNOJB@bad?5allocation?$AA@		; `string'
PUBLIC	?_Value@?$_Is_swap_move@U_Swap_move_tag@std@@@std@@2_NB ; std::_Is_swap_move<std::_Swap_move_tag>::_Value
PUBLIC	?value@integral_c_tag@mpl@boost@@2HB		; boost::mpl::integral_c_tag::value
PUBLIC	?value@?$bool_@$00@mpl@boost@@2_NB		; boost::mpl::bool_<1>::value
PUBLIC	?value@?$bool_@$0A@@mpl@boost@@2_NB		; boost::mpl::bool_<0>::value
PUBLIC	?collate@?$_Locbase@H@std@@2HB			; std::_Locbase<int>::collate
PUBLIC	?ctype@?$_Locbase@H@std@@2HB			; std::_Locbase<int>::ctype
PUBLIC	?monetary@?$_Locbase@H@std@@2HB			; std::_Locbase<int>::monetary
PUBLIC	?numeric@?$_Locbase@H@std@@2HB			; std::_Locbase<int>::numeric
PUBLIC	?time@?$_Locbase@H@std@@2HB			; std::_Locbase<int>::time
PUBLIC	?messages@?$_Locbase@H@std@@2HB			; std::_Locbase<int>::messages
PUBLIC	?all@?$_Locbase@H@std@@2HB			; std::_Locbase<int>::all
PUBLIC	?none@?$_Locbase@H@std@@2HB			; std::_Locbase<int>::none
PUBLIC	?skipws@?$_Iosb@H@std@@2W4_Fmtflags@12@B	; std::_Iosb<int>::skipws
PUBLIC	?unitbuf@?$_Iosb@H@std@@2W4_Fmtflags@12@B	; std::_Iosb<int>::unitbuf
PUBLIC	?uppercase@?$_Iosb@H@std@@2W4_Fmtflags@12@B	; std::_Iosb<int>::uppercase
PUBLIC	?showbase@?$_Iosb@H@std@@2W4_Fmtflags@12@B	; std::_Iosb<int>::showbase
PUBLIC	?showpoint@?$_Iosb@H@std@@2W4_Fmtflags@12@B	; std::_Iosb<int>::showpoint
PUBLIC	?showpos@?$_Iosb@H@std@@2W4_Fmtflags@12@B	; std::_Iosb<int>::showpos
PUBLIC	?left@?$_Iosb@H@std@@2W4_Fmtflags@12@B		; std::_Iosb<int>::left
PUBLIC	?right@?$_Iosb@H@std@@2W4_Fmtflags@12@B		; std::_Iosb<int>::right
PUBLIC	?internal@?$_Iosb@H@std@@2W4_Fmtflags@12@B	; std::_Iosb<int>::internal
PUBLIC	?dec@?$_Iosb@H@std@@2W4_Fmtflags@12@B		; std::_Iosb<int>::dec
PUBLIC	?oct@?$_Iosb@H@std@@2W4_Fmtflags@12@B		; std::_Iosb<int>::oct
PUBLIC	?hex@?$_Iosb@H@std@@2W4_Fmtflags@12@B		; std::_Iosb<int>::hex
PUBLIC	?scientific@?$_Iosb@H@std@@2W4_Fmtflags@12@B	; std::_Iosb<int>::scientific
PUBLIC	?fixed@?$_Iosb@H@std@@2W4_Fmtflags@12@B		; std::_Iosb<int>::fixed
PUBLIC	?hexfloat@?$_Iosb@H@std@@2W4_Fmtflags@12@B	; std::_Iosb<int>::hexfloat
PUBLIC	?boolalpha@?$_Iosb@H@std@@2W4_Fmtflags@12@B	; std::_Iosb<int>::boolalpha
PUBLIC	?_Stdio@?$_Iosb@H@std@@2W4_Fmtflags@12@B	; std::_Iosb<int>::_Stdio
PUBLIC	?adjustfield@?$_Iosb@H@std@@2W4_Fmtflags@12@B	; std::_Iosb<int>::adjustfield
PUBLIC	?basefield@?$_Iosb@H@std@@2W4_Fmtflags@12@B	; std::_Iosb<int>::basefield
PUBLIC	?floatfield@?$_Iosb@H@std@@2W4_Fmtflags@12@B	; std::_Iosb<int>::floatfield
PUBLIC	?goodbit@?$_Iosb@H@std@@2W4_Iostate@12@B	; std::_Iosb<int>::goodbit
PUBLIC	?eofbit@?$_Iosb@H@std@@2W4_Iostate@12@B		; std::_Iosb<int>::eofbit
PUBLIC	?failbit@?$_Iosb@H@std@@2W4_Iostate@12@B	; std::_Iosb<int>::failbit
PUBLIC	?badbit@?$_Iosb@H@std@@2W4_Iostate@12@B		; std::_Iosb<int>::badbit
PUBLIC	?_Hardfail@?$_Iosb@H@std@@2W4_Iostate@12@B	; std::_Iosb<int>::_Hardfail
PUBLIC	?in@?$_Iosb@H@std@@2W4_Openmode@12@B		; std::_Iosb<int>::in
PUBLIC	?out@?$_Iosb@H@std@@2W4_Openmode@12@B		; std::_Iosb<int>::out
PUBLIC	?ate@?$_Iosb@H@std@@2W4_Openmode@12@B		; std::_Iosb<int>::ate
PUBLIC	?app@?$_Iosb@H@std@@2W4_Openmode@12@B		; std::_Iosb<int>::app
PUBLIC	?trunc@?$_Iosb@H@std@@2W4_Openmode@12@B		; std::_Iosb<int>::trunc
PUBLIC	?_Nocreate@?$_Iosb@H@std@@2W4_Openmode@12@B	; std::_Iosb<int>::_Nocreate
PUBLIC	?_Noreplace@?$_Iosb@H@std@@2W4_Openmode@12@B	; std::_Iosb<int>::_Noreplace
PUBLIC	?binary@?$_Iosb@H@std@@2W4_Openmode@12@B	; std::_Iosb<int>::binary
PUBLIC	?beg@?$_Iosb@H@std@@2W4_Seekdir@12@B		; std::_Iosb<int>::beg
PUBLIC	?cur@?$_Iosb@H@std@@2W4_Seekdir@12@B		; std::_Iosb<int>::cur
PUBLIC	?end@?$_Iosb@H@std@@2W4_Seekdir@12@B		; std::_Iosb<int>::end
PUBLIC	?is_integral@?$integer_traits_base@_N$0A@$00@detail@boost@@2_NB ; boost::detail::integer_traits_base<bool,0,1>::is_integral
PUBLIC	?const_min@?$integer_traits_base@_N$0A@$00@detail@boost@@2_NB ; boost::detail::integer_traits_base<bool,0,1>::const_min
PUBLIC	?const_max@?$integer_traits_base@_N$0A@$00@detail@boost@@2_NB ; boost::detail::integer_traits_base<bool,0,1>::const_max
PUBLIC	?is_integral@?$integer_traits_base@D$0?IA@$0HP@@detail@boost@@2_NB ; boost::detail::integer_traits_base<char,-128,127>::is_integral
PUBLIC	?const_min@?$integer_traits_base@D$0?IA@$0HP@@detail@boost@@2DB ; boost::detail::integer_traits_base<char,-128,127>::const_min
PUBLIC	?const_max@?$integer_traits_base@D$0?IA@$0HP@@detail@boost@@2DB ; boost::detail::integer_traits_base<char,-128,127>::const_max
PUBLIC	?is_integral@?$integer_traits_base@C$0?IA@$0HP@@detail@boost@@2_NB ; boost::detail::integer_traits_base<signed char,-128,127>::is_integral
PUBLIC	?const_min@?$integer_traits_base@C$0?IA@$0HP@@detail@boost@@2CB ; boost::detail::integer_traits_base<signed char,-128,127>::const_min
PUBLIC	?const_max@?$integer_traits_base@C$0?IA@$0HP@@detail@boost@@2CB ; boost::detail::integer_traits_base<signed char,-128,127>::const_max
PUBLIC	?is_integral@?$integer_traits_base@E$0A@$0PP@@detail@boost@@2_NB ; boost::detail::integer_traits_base<unsigned char,0,255>::is_integral
PUBLIC	?const_min@?$integer_traits_base@E$0A@$0PP@@detail@boost@@2EB ; boost::detail::integer_traits_base<unsigned char,0,255>::const_min
PUBLIC	?const_max@?$integer_traits_base@E$0A@$0PP@@detail@boost@@2EB ; boost::detail::integer_traits_base<unsigned char,0,255>::const_max
PUBLIC	?is_integral@?$integer_traits_base@_W$0A@$0PPPP@@detail@boost@@2_NB ; boost::detail::integer_traits_base<wchar_t,0,65535>::is_integral
PUBLIC	?const_min@?$integer_traits_base@_W$0A@$0PPPP@@detail@boost@@2_WB ; boost::detail::integer_traits_base<wchar_t,0,65535>::const_min
PUBLIC	?const_max@?$integer_traits_base@_W$0A@$0PPPP@@detail@boost@@2_WB ; boost::detail::integer_traits_base<wchar_t,0,65535>::const_max
PUBLIC	?is_integral@?$integer_traits_base@F$0?IAAA@$0HPPP@@detail@boost@@2_NB ; boost::detail::integer_traits_base<short,-32768,32767>::is_integral
PUBLIC	?const_min@?$integer_traits_base@F$0?IAAA@$0HPPP@@detail@boost@@2FB ; boost::detail::integer_traits_base<short,-32768,32767>::const_min
PUBLIC	?const_max@?$integer_traits_base@F$0?IAAA@$0HPPP@@detail@boost@@2FB ; boost::detail::integer_traits_base<short,-32768,32767>::const_max
PUBLIC	?is_integral@?$integer_traits_base@G$0A@$0PPPP@@detail@boost@@2_NB ; boost::detail::integer_traits_base<unsigned short,0,65535>::is_integral
PUBLIC	?const_min@?$integer_traits_base@G$0A@$0PPPP@@detail@boost@@2GB ; boost::detail::integer_traits_base<unsigned short,0,65535>::const_min
PUBLIC	?const_max@?$integer_traits_base@G$0A@$0PPPP@@detail@boost@@2GB ; boost::detail::integer_traits_base<unsigned short,0,65535>::const_max
PUBLIC	?is_integral@?$integer_traits_base@H$0?IAAAAAAA@$0HPPPPPPP@@detail@boost@@2_NB ; boost::detail::integer_traits_base<int,-2147483648,2147483647>::is_integral
PUBLIC	?const_min@?$integer_traits_base@H$0?IAAAAAAA@$0HPPPPPPP@@detail@boost@@2HB ; boost::detail::integer_traits_base<int,-2147483648,2147483647>::const_min
PUBLIC	?const_max@?$integer_traits_base@H$0?IAAAAAAA@$0HPPPPPPP@@detail@boost@@2HB ; boost::detail::integer_traits_base<int,-2147483648,2147483647>::const_max
PUBLIC	?is_integral@?$integer_traits_base@I$0A@$0PPPPPPPP@@detail@boost@@2_NB ; boost::detail::integer_traits_base<unsigned int,0,4294967295>::is_integral
PUBLIC	?const_min@?$integer_traits_base@I$0A@$0PPPPPPPP@@detail@boost@@2IB ; boost::detail::integer_traits_base<unsigned int,0,4294967295>::const_min
PUBLIC	?const_max@?$integer_traits_base@I$0A@$0PPPPPPPP@@detail@boost@@2IB ; boost::detail::integer_traits_base<unsigned int,0,4294967295>::const_max
PUBLIC	?is_integral@?$integer_traits_base@J$0?IAAAAAAA@$0HPPPPPPP@@detail@boost@@2_NB ; boost::detail::integer_traits_base<long,-2147483648,2147483647>::is_integral
PUBLIC	?const_min@?$integer_traits_base@J$0?IAAAAAAA@$0HPPPPPPP@@detail@boost@@2JB ; boost::detail::integer_traits_base<long,-2147483648,2147483647>::const_min
PUBLIC	?const_max@?$integer_traits_base@J$0?IAAAAAAA@$0HPPPPPPP@@detail@boost@@2JB ; boost::detail::integer_traits_base<long,-2147483648,2147483647>::const_max
PUBLIC	?is_integral@?$integer_traits_base@K$0A@$0PPPPPPPP@@detail@boost@@2_NB ; boost::detail::integer_traits_base<unsigned long,0,4294967295>::is_integral
PUBLIC	?const_min@?$integer_traits_base@K$0A@$0PPPPPPPP@@detail@boost@@2KB ; boost::detail::integer_traits_base<unsigned long,0,4294967295>::const_min
PUBLIC	?const_max@?$integer_traits_base@K$0A@$0PPPPPPPP@@detail@boost@@2KB ; boost::detail::integer_traits_base<unsigned long,0,4294967295>::const_max
PUBLIC	?is_integral@?$integer_traits_base@_J$0?IAAAAAAAAAAAAAAA@$0HPPPPPPPPPPPPPPP@@detail@boost@@2_NB ; boost::detail::integer_traits_base<__int64,-9223372036854775808,9223372036854775807>::is_integral
PUBLIC	?const_min@?$integer_traits_base@_J$0?IAAAAAAAAAAAAAAA@$0HPPPPPPPPPPPPPPP@@detail@boost@@2_JB ; boost::detail::integer_traits_base<__int64,-9223372036854775808,9223372036854775807>::const_min
PUBLIC	?const_max@?$integer_traits_base@_J$0?IAAAAAAAAAAAAAAA@$0HPPPPPPPPPPPPPPP@@detail@boost@@2_JB ; boost::detail::integer_traits_base<__int64,-9223372036854775808,9223372036854775807>::const_max
PUBLIC	?is_integral@?$integer_traits_base@_K$0A@$0?0@detail@boost@@2_NB ; boost::detail::integer_traits_base<unsigned __int64,0,-1>::is_integral
PUBLIC	?const_min@?$integer_traits_base@_K$0A@$0?0@detail@boost@@2_KB ; boost::detail::integer_traits_base<unsigned __int64,0,-1>::const_min
PUBLIC	?const_max@?$integer_traits_base@_K$0A@$0?0@detail@boost@@2_KB ; boost::detail::integer_traits_base<unsigned __int64,0,-1>::const_max
PUBLIC	?value@?$ice_or@$0A@$0A@$0A@$0A@$0A@$0A@$0A@@type_traits@boost@@2_NB ; boost::type_traits::ice_or<0,0,0,0,0,0,0>::value
PUBLIC	?value@?$ice_and@$00$00$00$00$00$00$00@type_traits@boost@@2_NB ; boost::type_traits::ice_and<1,1,1,1,1,1,1>::value
PUBLIC	?value@?$ice_not@$00@type_traits@boost@@2_NB	; boost::type_traits::ice_not<1>::value
PUBLIC	?value@?$is_convertible_impl@XX@detail@boost@@2_NB ; boost::detail::is_convertible_impl<void,void>::value
PUBLIC	?value@?$is_convertible_impl@X$$CBX@detail@boost@@2_NB ; boost::detail::is_convertible_impl<void,void const >::value
PUBLIC	?value@?$is_convertible_impl@X$$CCX@detail@boost@@2_NB ; boost::detail::is_convertible_impl<void,void volatile >::value
PUBLIC	?value@?$is_convertible_impl@X$$CDX@detail@boost@@2_NB ; boost::detail::is_convertible_impl<void,void const volatile >::value
PUBLIC	?value@?$is_convertible_impl@$$CBXX@detail@boost@@2_NB ; boost::detail::is_convertible_impl<void const ,void>::value
PUBLIC	?value@?$is_convertible_impl@$$CBX$$CBX@detail@boost@@2_NB ; boost::detail::is_convertible_impl<void const ,void const >::value
PUBLIC	?value@?$is_convertible_impl@$$CBX$$CCX@detail@boost@@2_NB ; boost::detail::is_convertible_impl<void const ,void volatile >::value
PUBLIC	?value@?$is_convertible_impl@$$CBX$$CDX@detail@boost@@2_NB ; boost::detail::is_convertible_impl<void const ,void const volatile >::value
PUBLIC	?value@?$is_convertible_impl@$$CCXX@detail@boost@@2_NB ; boost::detail::is_convertible_impl<void volatile ,void>::value
PUBLIC	?value@?$is_convertible_impl@$$CCX$$CBX@detail@boost@@2_NB ; boost::detail::is_convertible_impl<void volatile ,void const >::value
PUBLIC	?value@?$is_convertible_impl@$$CCX$$CCX@detail@boost@@2_NB ; boost::detail::is_convertible_impl<void volatile ,void volatile >::value
PUBLIC	?value@?$is_convertible_impl@$$CCX$$CDX@detail@boost@@2_NB ; boost::detail::is_convertible_impl<void volatile ,void const volatile >::value
PUBLIC	?value@?$is_convertible_impl@$$CDXX@detail@boost@@2_NB ; boost::detail::is_convertible_impl<void const volatile ,void>::value
PUBLIC	?value@?$is_convertible_impl@$$CDX$$CBX@detail@boost@@2_NB ; boost::detail::is_convertible_impl<void const volatile ,void const >::value
PUBLIC	?value@?$is_convertible_impl@$$CDX$$CCX@detail@boost@@2_NB ; boost::detail::is_convertible_impl<void const volatile ,void volatile >::value
PUBLIC	?value@?$is_convertible_impl@$$CDX$$CDX@detail@boost@@2_NB ; boost::detail::is_convertible_impl<void const volatile ,void const volatile >::value
PUBLIC	?value@type@?$select_by_size@$00@detail@iostreams@boost@@2HB ; boost::iostreams::detail::select_by_size<1>::type::value
PUBLIC	?value@?$select_by_size@$00@detail@iostreams@boost@@2HB ; boost::iostreams::detail::select_by_size<1>::value
PUBLIC	?value@type@?$select_by_size@$01@detail@iostreams@boost@@2HB ; boost::iostreams::detail::select_by_size<2>::type::value
PUBLIC	?value@?$select_by_size@$01@detail@iostreams@boost@@2HB ; boost::iostreams::detail::select_by_size<2>::value
PUBLIC	?value@type@?$select_by_size@$02@detail@iostreams@boost@@2HB ; boost::iostreams::detail::select_by_size<3>::type::value
PUBLIC	?value@?$select_by_size@$02@detail@iostreams@boost@@2HB ; boost::iostreams::detail::select_by_size<3>::value
PUBLIC	?value@type@?$select_by_size@$03@detail@iostreams@boost@@2HB ; boost::iostreams::detail::select_by_size<4>::type::value
PUBLIC	?value@?$select_by_size@$03@detail@iostreams@boost@@2HB ; boost::iostreams::detail::select_by_size<4>::value
PUBLIC	?value@type@?$select_by_size@$04@detail@iostreams@boost@@2HB ; boost::iostreams::detail::select_by_size<5>::type::value
PUBLIC	?value@?$select_by_size@$04@detail@iostreams@boost@@2HB ; boost::iostreams::detail::select_by_size<5>::value
PUBLIC	?value@type@?$select_by_size@$05@detail@iostreams@boost@@2HB ; boost::iostreams::detail::select_by_size<6>::type::value
PUBLIC	?value@?$select_by_size@$05@detail@iostreams@boost@@2HB ; boost::iostreams::detail::select_by_size<6>::value
PUBLIC	?value@type@?$select_by_size@$06@detail@iostreams@boost@@2HB ; boost::iostreams::detail::select_by_size<7>::type::value
PUBLIC	?value@?$select_by_size@$06@detail@iostreams@boost@@2HB ; boost::iostreams::detail::select_by_size<7>::value
PUBLIC	?value@type@?$select_by_size@$07@detail@iostreams@boost@@2HB ; boost::iostreams::detail::select_by_size<8>::type::value
PUBLIC	?value@?$select_by_size@$07@detail@iostreams@boost@@2HB ; boost::iostreams::detail::select_by_size<8>::value
PUBLIC	?value@type@?$select_by_size@$08@detail@iostreams@boost@@2HB ; boost::iostreams::detail::select_by_size<9>::type::value
PUBLIC	?value@?$select_by_size@$08@detail@iostreams@boost@@2HB ; boost::iostreams::detail::select_by_size<9>::value
PUBLIC	?value@type@?$select_by_size@$09@detail@iostreams@boost@@2HB ; boost::iostreams::detail::select_by_size<10>::type::value
PUBLIC	?value@?$select_by_size@$09@detail@iostreams@boost@@2HB ; boost::iostreams::detail::select_by_size<10>::value
PUBLIC	?value@type@?$select_by_size@$0L@@detail@iostreams@boost@@2HB ; boost::iostreams::detail::select_by_size<11>::type::value
PUBLIC	?value@?$select_by_size@$0L@@detail@iostreams@boost@@2HB ; boost::iostreams::detail::select_by_size<11>::value
PUBLIC	?value@type@?$select_by_size@$0M@@detail@iostreams@boost@@2HB ; boost::iostreams::detail::select_by_size<12>::type::value
PUBLIC	?value@?$select_by_size@$0M@@detail@iostreams@boost@@2HB ; boost::iostreams::detail::select_by_size<12>::value
PUBLIC	?value@type@?$select_by_size@$0N@@detail@iostreams@boost@@2HB ; boost::iostreams::detail::select_by_size<13>::type::value
PUBLIC	?value@?$select_by_size@$0N@@detail@iostreams@boost@@2HB ; boost::iostreams::detail::select_by_size<13>::value
PUBLIC	?value@type@?$select_by_size@$0O@@detail@iostreams@boost@@2HB ; boost::iostreams::detail::select_by_size<14>::type::value
PUBLIC	?value@?$select_by_size@$0O@@detail@iostreams@boost@@2HB ; boost::iostreams::detail::select_by_size<14>::value
PUBLIC	?value@type@?$select_by_size@$0P@@detail@iostreams@boost@@2HB ; boost::iostreams::detail::select_by_size<15>::type::value
PUBLIC	?value@?$select_by_size@$0P@@detail@iostreams@boost@@2HB ; boost::iostreams::detail::select_by_size<15>::value
PUBLIC	?value@type@?$select_by_size@$0BA@@detail@iostreams@boost@@2HB ; boost::iostreams::detail::select_by_size<16>::type::value
PUBLIC	?value@?$select_by_size@$0BA@@detail@iostreams@boost@@2HB ; boost::iostreams::detail::select_by_size<16>::value
PUBLIC	?value@type@?$select_by_size@$0BB@@detail@iostreams@boost@@2HB ; boost::iostreams::detail::select_by_size<17>::type::value
PUBLIC	?value@?$select_by_size@$0BB@@detail@iostreams@boost@@2HB ; boost::iostreams::detail::select_by_size<17>::value
PUBLIC	?value@type@?$select_by_size@$0BC@@detail@iostreams@boost@@2HB ; boost::iostreams::detail::select_by_size<18>::type::value
PUBLIC	?value@?$select_by_size@$0BC@@detail@iostreams@boost@@2HB ; boost::iostreams::detail::select_by_size<18>::value
PUBLIC	?value@type@?$select_by_size@$0BD@@detail@iostreams@boost@@2HB ; boost::iostreams::detail::select_by_size<19>::type::value
PUBLIC	?value@?$select_by_size@$0BD@@detail@iostreams@boost@@2HB ; boost::iostreams::detail::select_by_size<19>::value
PUBLIC	?value@type@?$select_by_size@$0BE@@detail@iostreams@boost@@2HB ; boost::iostreams::detail::select_by_size<20>::type::value
PUBLIC	?value@?$select_by_size@$0BE@@detail@iostreams@boost@@2HB ; boost::iostreams::detail::select_by_size<20>::value
PUBLIC	?value@type@?$select_by_size@$0BF@@detail@iostreams@boost@@2HB ; boost::iostreams::detail::select_by_size<21>::type::value
PUBLIC	?value@?$select_by_size@$0BF@@detail@iostreams@boost@@2HB ; boost::iostreams::detail::select_by_size<21>::value
PUBLIC	?value@?$int_@$00@mpl@boost@@2HB		; boost::mpl::int_<1>::value
PUBLIC	?value@?$int_@$01@mpl@boost@@2HB		; boost::mpl::int_<2>::value
PUBLIC	?value@?$int_@$02@mpl@boost@@2HB		; boost::mpl::int_<3>::value
PUBLIC	?value@?$int_@$03@mpl@boost@@2HB		; boost::mpl::int_<4>::value
PUBLIC	?value@?$int_@$04@mpl@boost@@2HB		; boost::mpl::int_<5>::value
PUBLIC	?value@?$int_@$05@mpl@boost@@2HB		; boost::mpl::int_<6>::value
PUBLIC	?value@?$int_@$06@mpl@boost@@2HB		; boost::mpl::int_<7>::value
PUBLIC	?value@?$int_@$07@mpl@boost@@2HB		; boost::mpl::int_<8>::value
PUBLIC	?value@?$int_@$08@mpl@boost@@2HB		; boost::mpl::int_<9>::value
PUBLIC	?value@?$int_@$09@mpl@boost@@2HB		; boost::mpl::int_<10>::value
PUBLIC	?value@?$int_@$0L@@mpl@boost@@2HB		; boost::mpl::int_<11>::value
PUBLIC	?value@?$int_@$0M@@mpl@boost@@2HB		; boost::mpl::int_<12>::value
PUBLIC	?value@?$arg@$0?0@mpl@boost@@2HB		; boost::mpl::arg<-1>::value
PUBLIC	?value@?$arg@$00@mpl@boost@@2HB			; boost::mpl::arg<1>::value
PUBLIC	?value@?$arg@$01@mpl@boost@@2HB			; boost::mpl::arg<2>::value
PUBLIC	?value@?$arg@$02@mpl@boost@@2HB			; boost::mpl::arg<3>::value
PUBLIC	?value@?$arg@$03@mpl@boost@@2HB			; boost::mpl::arg<4>::value
PUBLIC	?value@?$arg@$04@mpl@boost@@2HB			; boost::mpl::arg<5>::value
PUBLIC	?value@?$is_member_function_pointer_impl@X@detail@boost@@2_NB ; boost::detail::is_member_function_pointer_impl<void>::value
PUBLIC	?value@?$is_member_function_pointer_impl@$$CBX@detail@boost@@2_NB ; boost::detail::is_member_function_pointer_impl<void const >::value
PUBLIC	?value@?$is_member_function_pointer_impl@$$CCX@detail@boost@@2_NB ; boost::detail::is_member_function_pointer_impl<void volatile >::value
PUBLIC	?value@?$is_member_function_pointer_impl@$$CDX@detail@boost@@2_NB ; boost::detail::is_member_function_pointer_impl<void const volatile >::value
PUBLIC	?value@?$is_scalar_impl@X@detail@boost@@2_NB	; boost::detail::is_scalar_impl<void>::value
PUBLIC	?value@?$is_scalar_impl@$$CBX@detail@boost@@2_NB ; boost::detail::is_scalar_impl<void const >::value
PUBLIC	?value@?$is_scalar_impl@$$CCX@detail@boost@@2_NB ; boost::detail::is_scalar_impl<void volatile >::value
PUBLIC	?value@?$is_scalar_impl@$$CDX@detail@boost@@2_NB ; boost::detail::is_scalar_impl<void const volatile >::value
PUBLIC	?value@?$is_pod_impl@X@detail@boost@@2_NB	; boost::detail::is_pod_impl<void>::value
PUBLIC	?value@?$is_pod_impl@$$CBX@detail@boost@@2_NB	; boost::detail::is_pod_impl<void const >::value
PUBLIC	?value@?$is_pod_impl@$$CCX@detail@boost@@2_NB	; boost::detail::is_pod_impl<void volatile >::value
PUBLIC	?value@?$is_pod_impl@$$CDX@detail@boost@@2_NB	; boost::detail::is_pod_impl<void const volatile >::value
PUBLIC	?value@?$integral_constant@_N$0A@@tr1@std@@2_NB	; std::tr1::integral_constant<bool,0>::value
PUBLIC	?value@?$integral_constant@_N$00@tr1@std@@2_NB	; std::tr1::integral_constant<bool,1>::value
PUBLIC	?value@?$integral_c@I$0A@@mpl@boost@@2IB	; boost::mpl::integral_c<unsigned int,0>::value
PUBLIC	?value@?$alignment_logic@$07$07@detail@boost@@2IB ; boost::detail::alignment_logic<8,8>::value
PUBLIC	?value@?$alignment_of_impl@Tmax_align@detail@boost@@@detail@boost@@2IB ; boost::detail::alignment_of_impl<boost::detail::max_align>::value
PUBLIC	?value@?$integral_c@I$07@mpl@boost@@2IB		; boost::mpl::integral_c<unsigned int,8>::value
PUBLIC	?value@?$alignment_logic@$00$00@detail@boost@@2IB ; boost::detail::alignment_logic<1,1>::value
PUBLIC	?value@?$alignment_of_impl@D@detail@boost@@2IB	; boost::detail::alignment_of_impl<char>::value
PUBLIC	?value@?$integral_c@I$00@mpl@boost@@2IB		; boost::mpl::integral_c<unsigned int,1>::value
PUBLIC	?value@?$alignment_logic@$01$01@detail@boost@@2IB ; boost::detail::alignment_logic<2,2>::value
PUBLIC	?value@?$alignment_of_impl@F@detail@boost@@2IB	; boost::detail::alignment_of_impl<short>::value
PUBLIC	?value@?$integral_c@I$01@mpl@boost@@2IB		; boost::mpl::integral_c<unsigned int,2>::value
PUBLIC	?value@?$alignment_logic@$03$03@detail@boost@@2IB ; boost::detail::alignment_logic<4,4>::value
PUBLIC	?value@?$alignment_of_impl@H@detail@boost@@2IB	; boost::detail::alignment_of_impl<int>::value
PUBLIC	?value@?$integral_c@I$03@mpl@boost@@2IB		; boost::mpl::integral_c<unsigned int,4>::value
PUBLIC	?value@?$alignment_of_impl@J@detail@boost@@2IB	; boost::detail::alignment_of_impl<long>::value
PUBLIC	?value@?$alignment_of_impl@_J@detail@boost@@2IB	; boost::detail::alignment_of_impl<__int64>::value
PUBLIC	?value@?$alignment_of_impl@T?$lower_alignment@$07@detail@boost@@@detail@boost@@2IB ; boost::detail::alignment_of_impl<boost::detail::lower_alignment<8> >::value
PUBLIC	?value@?$is_aligned@$07$07@detail@boost@@2_NB	; boost::detail::is_aligned<8,8>::value
PUBLIC	?found@?$type_with_alignment_imp@$07@detail@boost@@0IB ; boost::detail::type_with_alignment_imp<8>::found
PUBLIC	?value@?$is_pod_impl@Ua8@align@boost@@@detail@boost@@2_NB ; boost::detail::is_pod_impl<boost::align::a8>::value
PUBLIC	?value@?$is_pod_impl@Ua16@align@boost@@@detail@boost@@2_NB ; boost::detail::is_pod_impl<boost::align::a16>::value
PUBLIC	?value@?$is_pod_impl@Ua32@align@boost@@@detail@boost@@2_NB ; boost::detail::is_pod_impl<boost::align::a32>::value
PUBLIC	?value@?$is_pod_impl@Ua64@align@boost@@@detail@boost@@2_NB ; boost::detail::is_pod_impl<boost::align::a64>::value
PUBLIC	?value@?$is_pod_impl@Ua128@align@boost@@@detail@boost@@2_NB ; boost::detail::is_pod_impl<boost::align::a128>::value
PUBLIC	?value@?$implementation_level@Ucollection_size_type@serialization@boost@@@serialization@boost@@2HB ; boost::serialization::implementation_level<boost::serialization::collection_size_type>::value
PUBLIC	?value@?$implementation_level@V?$vector@_NV?$allocator@_N@std@@@std@@@serialization@boost@@2HB ; boost::serialization::implementation_level<std::vector<bool,std::allocator<bool> > >::value
PUBLIC	?value@?$implementation_level@V?$vector@DV?$allocator@D@std@@@std@@@serialization@boost@@2HB ; boost::serialization::implementation_level<std::vector<char,std::allocator<char> > >::value
PUBLIC	?value@?$implementation_level@V?$vector@CV?$allocator@C@std@@@std@@@serialization@boost@@2HB ; boost::serialization::implementation_level<std::vector<signed char,std::allocator<signed char> > >::value
PUBLIC	?value@?$implementation_level@V?$vector@EV?$allocator@E@std@@@std@@@serialization@boost@@2HB ; boost::serialization::implementation_level<std::vector<unsigned char,std::allocator<unsigned char> > >::value
PUBLIC	?value@?$implementation_level@V?$vector@HV?$allocator@H@std@@@std@@@serialization@boost@@2HB ; boost::serialization::implementation_level<std::vector<int,std::allocator<int> > >::value
PUBLIC	?value@?$implementation_level@V?$vector@IV?$allocator@I@std@@@std@@@serialization@boost@@2HB ; boost::serialization::implementation_level<std::vector<unsigned int,std::allocator<unsigned int> > >::value
PUBLIC	?value@?$implementation_level@V?$vector@JV?$allocator@J@std@@@std@@@serialization@boost@@2HB ; boost::serialization::implementation_level<std::vector<long,std::allocator<long> > >::value
PUBLIC	?value@?$implementation_level@V?$vector@KV?$allocator@K@std@@@std@@@serialization@boost@@2HB ; boost::serialization::implementation_level<std::vector<unsigned long,std::allocator<unsigned long> > >::value
PUBLIC	?value@?$implementation_level@V?$vector@MV?$allocator@M@std@@@std@@@serialization@boost@@2HB ; boost::serialization::implementation_level<std::vector<float,std::allocator<float> > >::value
PUBLIC	?value@?$implementation_level@V?$vector@NV?$allocator@N@std@@@std@@@serialization@boost@@2HB ; boost::serialization::implementation_level<std::vector<double,std::allocator<double> > >::value
PUBLIC	?value@?$implementation_level@V?$vector@GV?$allocator@G@std@@@std@@@serialization@boost@@2HB ; boost::serialization::implementation_level<std::vector<unsigned short,std::allocator<unsigned short> > >::value
PUBLIC	?value@?$implementation_level@V?$vector@FV?$allocator@F@std@@@std@@@serialization@boost@@2HB ; boost::serialization::implementation_level<std::vector<short,std::allocator<short> > >::value
PUBLIC	?value@?$implementation_level@V?$vector@_JV?$allocator@_J@std@@@std@@@serialization@boost@@2HB ; boost::serialization::implementation_level<std::vector<__int64,std::allocator<__int64> > >::value
PUBLIC	?value@?$implementation_level@V?$vector@_KV?$allocator@_K@std@@@std@@@serialization@boost@@2HB ; boost::serialization::implementation_level<std::vector<unsigned __int64,std::allocator<unsigned __int64> > >::value
PUBLIC	?value@?$implementation_level@V?$vector@_WV?$allocator@_W@std@@@std@@@serialization@boost@@2HB ; boost::serialization::implementation_level<std::vector<wchar_t,std::allocator<wchar_t> > >::value
;	COMDAT ?value@?$implementation_level@V?$vector@_WV?$allocator@_W@std@@@std@@@serialization@boost@@2HB
CONST	SEGMENT
?value@?$implementation_level@V?$vector@_WV?$allocator@_W@std@@@std@@@serialization@boost@@2HB DD 02H ; boost::serialization::implementation_level<std::vector<wchar_t,std::allocator<wchar_t> > >::value
CONST	ENDS
;	COMDAT ?value@?$implementation_level@V?$vector@_KV?$allocator@_K@std@@@std@@@serialization@boost@@2HB
CONST	SEGMENT
?value@?$implementation_level@V?$vector@_KV?$allocator@_K@std@@@std@@@serialization@boost@@2HB DD 02H ; boost::serialization::implementation_level<std::vector<unsigned __int64,std::allocator<unsigned __int64> > >::value
CONST	ENDS
;	COMDAT ?value@?$implementation_level@V?$vector@_JV?$allocator@_J@std@@@std@@@serialization@boost@@2HB
CONST	SEGMENT
?value@?$implementation_level@V?$vector@_JV?$allocator@_J@std@@@std@@@serialization@boost@@2HB DD 02H ; boost::serialization::implementation_level<std::vector<__int64,std::allocator<__int64> > >::value
CONST	ENDS
;	COMDAT ?value@?$implementation_level@V?$vector@FV?$allocator@F@std@@@std@@@serialization@boost@@2HB
CONST	SEGMENT
?value@?$implementation_level@V?$vector@FV?$allocator@F@std@@@std@@@serialization@boost@@2HB DD 02H ; boost::serialization::implementation_level<std::vector<short,std::allocator<short> > >::value
CONST	ENDS
;	COMDAT ?value@?$implementation_level@V?$vector@GV?$allocator@G@std@@@std@@@serialization@boost@@2HB
CONST	SEGMENT
?value@?$implementation_level@V?$vector@GV?$allocator@G@std@@@std@@@serialization@boost@@2HB DD 02H ; boost::serialization::implementation_level<std::vector<unsigned short,std::allocator<unsigned short> > >::value
CONST	ENDS
;	COMDAT ?value@?$implementation_level@V?$vector@NV?$allocator@N@std@@@std@@@serialization@boost@@2HB
CONST	SEGMENT
?value@?$implementation_level@V?$vector@NV?$allocator@N@std@@@std@@@serialization@boost@@2HB DD 02H ; boost::serialization::implementation_level<std::vector<double,std::allocator<double> > >::value
CONST	ENDS
;	COMDAT ?value@?$implementation_level@V?$vector@MV?$allocator@M@std@@@std@@@serialization@boost@@2HB
CONST	SEGMENT
?value@?$implementation_level@V?$vector@MV?$allocator@M@std@@@std@@@serialization@boost@@2HB DD 02H ; boost::serialization::implementation_level<std::vector<float,std::allocator<float> > >::value
CONST	ENDS
;	COMDAT ?value@?$implementation_level@V?$vector@KV?$allocator@K@std@@@std@@@serialization@boost@@2HB
CONST	SEGMENT
?value@?$implementation_level@V?$vector@KV?$allocator@K@std@@@std@@@serialization@boost@@2HB DD 02H ; boost::serialization::implementation_level<std::vector<unsigned long,std::allocator<unsigned long> > >::value
CONST	ENDS
;	COMDAT ?value@?$implementation_level@V?$vector@JV?$allocator@J@std@@@std@@@serialization@boost@@2HB
CONST	SEGMENT
?value@?$implementation_level@V?$vector@JV?$allocator@J@std@@@std@@@serialization@boost@@2HB DD 02H ; boost::serialization::implementation_level<std::vector<long,std::allocator<long> > >::value
CONST	ENDS
;	COMDAT ?value@?$implementation_level@V?$vector@IV?$allocator@I@std@@@std@@@serialization@boost@@2HB
CONST	SEGMENT
?value@?$implementation_level@V?$vector@IV?$allocator@I@std@@@std@@@serialization@boost@@2HB DD 02H ; boost::serialization::implementation_level<std::vector<unsigned int,std::allocator<unsigned int> > >::value
CONST	ENDS
;	COMDAT ?value@?$implementation_level@V?$vector@HV?$allocator@H@std@@@std@@@serialization@boost@@2HB
CONST	SEGMENT
?value@?$implementation_level@V?$vector@HV?$allocator@H@std@@@std@@@serialization@boost@@2HB DD 02H ; boost::serialization::implementation_level<std::vector<int,std::allocator<int> > >::value
CONST	ENDS
;	COMDAT ?value@?$implementation_level@V?$vector@EV?$allocator@E@std@@@std@@@serialization@boost@@2HB
CONST	SEGMENT
?value@?$implementation_level@V?$vector@EV?$allocator@E@std@@@std@@@serialization@boost@@2HB DD 02H ; boost::serialization::implementation_level<std::vector<unsigned char,std::allocator<unsigned char> > >::value
CONST	ENDS
;	COMDAT ?value@?$implementation_level@V?$vector@CV?$allocator@C@std@@@std@@@serialization@boost@@2HB
CONST	SEGMENT
?value@?$implementation_level@V?$vector@CV?$allocator@C@std@@@std@@@serialization@boost@@2HB DD 02H ; boost::serialization::implementation_level<std::vector<signed char,std::allocator<signed char> > >::value
CONST	ENDS
;	COMDAT ?value@?$implementation_level@V?$vector@DV?$allocator@D@std@@@std@@@serialization@boost@@2HB
CONST	SEGMENT
?value@?$implementation_level@V?$vector@DV?$allocator@D@std@@@std@@@serialization@boost@@2HB DD 02H ; boost::serialization::implementation_level<std::vector<char,std::allocator<char> > >::value
CONST	ENDS
;	COMDAT ?value@?$implementation_level@V?$vector@_NV?$allocator@_N@std@@@std@@@serialization@boost@@2HB
CONST	SEGMENT
?value@?$implementation_level@V?$vector@_NV?$allocator@_N@std@@@std@@@serialization@boost@@2HB DD 02H ; boost::serialization::implementation_level<std::vector<bool,std::allocator<bool> > >::value
CONST	ENDS
;	COMDAT ?value@?$implementation_level@Ucollection_size_type@serialization@boost@@@serialization@boost@@2HB
CONST	SEGMENT
?value@?$implementation_level@Ucollection_size_type@serialization@boost@@@serialization@boost@@2HB DD 01H ; boost::serialization::implementation_level<boost::serialization::collection_size_type>::value
CONST	ENDS
;	COMDAT ?value@?$is_pod_impl@Ua128@align@boost@@@detail@boost@@2_NB
CONST	SEGMENT
?value@?$is_pod_impl@Ua128@align@boost@@@detail@boost@@2_NB DB 01H ; boost::detail::is_pod_impl<boost::align::a128>::value
CONST	ENDS
;	COMDAT ?value@?$is_pod_impl@Ua64@align@boost@@@detail@boost@@2_NB
CONST	SEGMENT
?value@?$is_pod_impl@Ua64@align@boost@@@detail@boost@@2_NB DB 01H ; boost::detail::is_pod_impl<boost::align::a64>::value
CONST	ENDS
;	COMDAT ?value@?$is_pod_impl@Ua32@align@boost@@@detail@boost@@2_NB
CONST	SEGMENT
?value@?$is_pod_impl@Ua32@align@boost@@@detail@boost@@2_NB DB 01H ; boost::detail::is_pod_impl<boost::align::a32>::value
CONST	ENDS
;	COMDAT ?value@?$is_pod_impl@Ua16@align@boost@@@detail@boost@@2_NB
CONST	SEGMENT
?value@?$is_pod_impl@Ua16@align@boost@@@detail@boost@@2_NB DB 01H ; boost::detail::is_pod_impl<boost::align::a16>::value
CONST	ENDS
;	COMDAT ?value@?$is_pod_impl@Ua8@align@boost@@@detail@boost@@2_NB
CONST	SEGMENT
?value@?$is_pod_impl@Ua8@align@boost@@@detail@boost@@2_NB DB 01H ; boost::detail::is_pod_impl<boost::align::a8>::value
CONST	ENDS
;	COMDAT ?found@?$type_with_alignment_imp@$07@detail@boost@@0IB
CONST	SEGMENT
?found@?$type_with_alignment_imp@$07@detail@boost@@0IB DD 08H ; boost::detail::type_with_alignment_imp<8>::found
CONST	ENDS
;	COMDAT ?value@?$is_aligned@$07$07@detail@boost@@2_NB
CONST	SEGMENT
?value@?$is_aligned@$07$07@detail@boost@@2_NB DB 01H	; boost::detail::is_aligned<8,8>::value
CONST	ENDS
;	COMDAT ?value@?$alignment_of_impl@T?$lower_alignment@$07@detail@boost@@@detail@boost@@2IB
CONST	SEGMENT
?value@?$alignment_of_impl@T?$lower_alignment@$07@detail@boost@@@detail@boost@@2IB DD 08H ; boost::detail::alignment_of_impl<boost::detail::lower_alignment<8> >::value
CONST	ENDS
;	COMDAT ?value@?$alignment_of_impl@_J@detail@boost@@2IB
CONST	SEGMENT
?value@?$alignment_of_impl@_J@detail@boost@@2IB DD 08H	; boost::detail::alignment_of_impl<__int64>::value
CONST	ENDS
;	COMDAT ?value@?$alignment_of_impl@J@detail@boost@@2IB
CONST	SEGMENT
?value@?$alignment_of_impl@J@detail@boost@@2IB DD 04H	; boost::detail::alignment_of_impl<long>::value
CONST	ENDS
;	COMDAT ?value@?$integral_c@I$03@mpl@boost@@2IB
CONST	SEGMENT
?value@?$integral_c@I$03@mpl@boost@@2IB DD 04H		; boost::mpl::integral_c<unsigned int,4>::value
CONST	ENDS
;	COMDAT ?value@?$alignment_of_impl@H@detail@boost@@2IB
CONST	SEGMENT
?value@?$alignment_of_impl@H@detail@boost@@2IB DD 04H	; boost::detail::alignment_of_impl<int>::value
CONST	ENDS
;	COMDAT ?value@?$alignment_logic@$03$03@detail@boost@@2IB
CONST	SEGMENT
?value@?$alignment_logic@$03$03@detail@boost@@2IB DD 04H ; boost::detail::alignment_logic<4,4>::value
CONST	ENDS
;	COMDAT ?value@?$integral_c@I$01@mpl@boost@@2IB
CONST	SEGMENT
?value@?$integral_c@I$01@mpl@boost@@2IB DD 02H		; boost::mpl::integral_c<unsigned int,2>::value
CONST	ENDS
;	COMDAT ?value@?$alignment_of_impl@F@detail@boost@@2IB
CONST	SEGMENT
?value@?$alignment_of_impl@F@detail@boost@@2IB DD 02H	; boost::detail::alignment_of_impl<short>::value
CONST	ENDS
;	COMDAT ?value@?$alignment_logic@$01$01@detail@boost@@2IB
CONST	SEGMENT
?value@?$alignment_logic@$01$01@detail@boost@@2IB DD 02H ; boost::detail::alignment_logic<2,2>::value
CONST	ENDS
;	COMDAT ?value@?$integral_c@I$00@mpl@boost@@2IB
CONST	SEGMENT
?value@?$integral_c@I$00@mpl@boost@@2IB DD 01H		; boost::mpl::integral_c<unsigned int,1>::value
CONST	ENDS
;	COMDAT ?value@?$alignment_of_impl@D@detail@boost@@2IB
CONST	SEGMENT
?value@?$alignment_of_impl@D@detail@boost@@2IB DD 01H	; boost::detail::alignment_of_impl<char>::value
CONST	ENDS
;	COMDAT ?value@?$alignment_logic@$00$00@detail@boost@@2IB
CONST	SEGMENT
?value@?$alignment_logic@$00$00@detail@boost@@2IB DD 01H ; boost::detail::alignment_logic<1,1>::value
CONST	ENDS
;	COMDAT ?value@?$integral_c@I$07@mpl@boost@@2IB
CONST	SEGMENT
?value@?$integral_c@I$07@mpl@boost@@2IB DD 08H		; boost::mpl::integral_c<unsigned int,8>::value
CONST	ENDS
;	COMDAT ?value@?$alignment_of_impl@Tmax_align@detail@boost@@@detail@boost@@2IB
CONST	SEGMENT
?value@?$alignment_of_impl@Tmax_align@detail@boost@@@detail@boost@@2IB DD 08H ; boost::detail::alignment_of_impl<boost::detail::max_align>::value
CONST	ENDS
;	COMDAT ?value@?$alignment_logic@$07$07@detail@boost@@2IB
CONST	SEGMENT
?value@?$alignment_logic@$07$07@detail@boost@@2IB DD 08H ; boost::detail::alignment_logic<8,8>::value
CONST	ENDS
;	COMDAT ?value@?$integral_c@I$0A@@mpl@boost@@2IB
CONST	SEGMENT
?value@?$integral_c@I$0A@@mpl@boost@@2IB DD 00H		; boost::mpl::integral_c<unsigned int,0>::value
CONST	ENDS
;	COMDAT ?value@?$integral_constant@_N$00@tr1@std@@2_NB
CONST	SEGMENT
?value@?$integral_constant@_N$00@tr1@std@@2_NB DB 01H	; std::tr1::integral_constant<bool,1>::value
CONST	ENDS
;	COMDAT ?value@?$integral_constant@_N$0A@@tr1@std@@2_NB
CONST	SEGMENT
?value@?$integral_constant@_N$0A@@tr1@std@@2_NB DB 00H	; std::tr1::integral_constant<bool,0>::value
CONST	ENDS
;	COMDAT ?value@?$is_pod_impl@$$CDX@detail@boost@@2_NB
CONST	SEGMENT
?value@?$is_pod_impl@$$CDX@detail@boost@@2_NB DB 01H	; boost::detail::is_pod_impl<void const volatile >::value
CONST	ENDS
;	COMDAT ?value@?$is_pod_impl@$$CCX@detail@boost@@2_NB
CONST	SEGMENT
?value@?$is_pod_impl@$$CCX@detail@boost@@2_NB DB 01H	; boost::detail::is_pod_impl<void volatile >::value
CONST	ENDS
;	COMDAT ?value@?$is_pod_impl@$$CBX@detail@boost@@2_NB
CONST	SEGMENT
?value@?$is_pod_impl@$$CBX@detail@boost@@2_NB DB 01H	; boost::detail::is_pod_impl<void const >::value
CONST	ENDS
;	COMDAT ?value@?$is_pod_impl@X@detail@boost@@2_NB
CONST	SEGMENT
?value@?$is_pod_impl@X@detail@boost@@2_NB DB 01H	; boost::detail::is_pod_impl<void>::value
CONST	ENDS
;	COMDAT ?value@?$is_scalar_impl@$$CDX@detail@boost@@2_NB
CONST	SEGMENT
?value@?$is_scalar_impl@$$CDX@detail@boost@@2_NB DB 00H	; boost::detail::is_scalar_impl<void const volatile >::value
CONST	ENDS
;	COMDAT ?value@?$is_scalar_impl@$$CCX@detail@boost@@2_NB
CONST	SEGMENT
?value@?$is_scalar_impl@$$CCX@detail@boost@@2_NB DB 00H	; boost::detail::is_scalar_impl<void volatile >::value
CONST	ENDS
;	COMDAT ?value@?$is_scalar_impl@$$CBX@detail@boost@@2_NB
CONST	SEGMENT
?value@?$is_scalar_impl@$$CBX@detail@boost@@2_NB DB 00H	; boost::detail::is_scalar_impl<void const >::value
CONST	ENDS
;	COMDAT ?value@?$is_scalar_impl@X@detail@boost@@2_NB
CONST	SEGMENT
?value@?$is_scalar_impl@X@detail@boost@@2_NB DB 00H	; boost::detail::is_scalar_impl<void>::value
CONST	ENDS
;	COMDAT ?value@?$is_member_function_pointer_impl@$$CDX@detail@boost@@2_NB
CONST	SEGMENT
?value@?$is_member_function_pointer_impl@$$CDX@detail@boost@@2_NB DB 00H ; boost::detail::is_member_function_pointer_impl<void const volatile >::value
CONST	ENDS
;	COMDAT ?value@?$is_member_function_pointer_impl@$$CCX@detail@boost@@2_NB
CONST	SEGMENT
?value@?$is_member_function_pointer_impl@$$CCX@detail@boost@@2_NB DB 00H ; boost::detail::is_member_function_pointer_impl<void volatile >::value
CONST	ENDS
;	COMDAT ?value@?$is_member_function_pointer_impl@$$CBX@detail@boost@@2_NB
CONST	SEGMENT
?value@?$is_member_function_pointer_impl@$$CBX@detail@boost@@2_NB DB 00H ; boost::detail::is_member_function_pointer_impl<void const >::value
CONST	ENDS
;	COMDAT ?value@?$is_member_function_pointer_impl@X@detail@boost@@2_NB
CONST	SEGMENT
?value@?$is_member_function_pointer_impl@X@detail@boost@@2_NB DB 00H ; boost::detail::is_member_function_pointer_impl<void>::value
CONST	ENDS
;	COMDAT ?value@?$arg@$04@mpl@boost@@2HB
CONST	SEGMENT
?value@?$arg@$04@mpl@boost@@2HB DD 05H			; boost::mpl::arg<5>::value
CONST	ENDS
;	COMDAT ?value@?$arg@$03@mpl@boost@@2HB
CONST	SEGMENT
?value@?$arg@$03@mpl@boost@@2HB DD 04H			; boost::mpl::arg<4>::value
CONST	ENDS
;	COMDAT ?value@?$arg@$02@mpl@boost@@2HB
CONST	SEGMENT
?value@?$arg@$02@mpl@boost@@2HB DD 03H			; boost::mpl::arg<3>::value
CONST	ENDS
;	COMDAT ?value@?$arg@$01@mpl@boost@@2HB
CONST	SEGMENT
?value@?$arg@$01@mpl@boost@@2HB DD 02H			; boost::mpl::arg<2>::value
CONST	ENDS
;	COMDAT ?value@?$arg@$00@mpl@boost@@2HB
CONST	SEGMENT
?value@?$arg@$00@mpl@boost@@2HB DD 01H			; boost::mpl::arg<1>::value
CONST	ENDS
;	COMDAT ?value@?$arg@$0?0@mpl@boost@@2HB
CONST	SEGMENT
?value@?$arg@$0?0@mpl@boost@@2HB DD 0ffffffffH		; boost::mpl::arg<-1>::value
CONST	ENDS
;	COMDAT ?value@?$int_@$0M@@mpl@boost@@2HB
CONST	SEGMENT
?value@?$int_@$0M@@mpl@boost@@2HB DD 0cH		; boost::mpl::int_<12>::value
CONST	ENDS
;	COMDAT ?value@?$int_@$0L@@mpl@boost@@2HB
CONST	SEGMENT
?value@?$int_@$0L@@mpl@boost@@2HB DD 0bH		; boost::mpl::int_<11>::value
CONST	ENDS
;	COMDAT ?value@?$int_@$09@mpl@boost@@2HB
CONST	SEGMENT
?value@?$int_@$09@mpl@boost@@2HB DD 0aH			; boost::mpl::int_<10>::value
CONST	ENDS
;	COMDAT ?value@?$int_@$08@mpl@boost@@2HB
CONST	SEGMENT
?value@?$int_@$08@mpl@boost@@2HB DD 09H			; boost::mpl::int_<9>::value
CONST	ENDS
;	COMDAT ?value@?$int_@$07@mpl@boost@@2HB
CONST	SEGMENT
?value@?$int_@$07@mpl@boost@@2HB DD 08H			; boost::mpl::int_<8>::value
CONST	ENDS
;	COMDAT ?value@?$int_@$06@mpl@boost@@2HB
CONST	SEGMENT
?value@?$int_@$06@mpl@boost@@2HB DD 07H			; boost::mpl::int_<7>::value
CONST	ENDS
;	COMDAT ?value@?$int_@$05@mpl@boost@@2HB
CONST	SEGMENT
?value@?$int_@$05@mpl@boost@@2HB DD 06H			; boost::mpl::int_<6>::value
CONST	ENDS
;	COMDAT ?value@?$int_@$04@mpl@boost@@2HB
CONST	SEGMENT
?value@?$int_@$04@mpl@boost@@2HB DD 05H			; boost::mpl::int_<5>::value
CONST	ENDS
;	COMDAT ?value@?$int_@$03@mpl@boost@@2HB
CONST	SEGMENT
?value@?$int_@$03@mpl@boost@@2HB DD 04H			; boost::mpl::int_<4>::value
CONST	ENDS
;	COMDAT ?value@?$int_@$02@mpl@boost@@2HB
CONST	SEGMENT
?value@?$int_@$02@mpl@boost@@2HB DD 03H			; boost::mpl::int_<3>::value
CONST	ENDS
;	COMDAT ?value@?$int_@$01@mpl@boost@@2HB
CONST	SEGMENT
?value@?$int_@$01@mpl@boost@@2HB DD 02H			; boost::mpl::int_<2>::value
CONST	ENDS
;	COMDAT ?value@?$int_@$00@mpl@boost@@2HB
CONST	SEGMENT
?value@?$int_@$00@mpl@boost@@2HB DD 01H			; boost::mpl::int_<1>::value
CONST	ENDS
;	COMDAT ?value@?$select_by_size@$0BF@@detail@iostreams@boost@@2HB
CONST	SEGMENT
?value@?$select_by_size@$0BF@@detail@iostreams@boost@@2HB DD 013H ; boost::iostreams::detail::select_by_size<21>::value
CONST	ENDS
;	COMDAT ?value@type@?$select_by_size@$0BF@@detail@iostreams@boost@@2HB
CONST	SEGMENT
?value@type@?$select_by_size@$0BF@@detail@iostreams@boost@@2HB DD 013H ; boost::iostreams::detail::select_by_size<21>::type::value
CONST	ENDS
;	COMDAT ?value@?$select_by_size@$0BE@@detail@iostreams@boost@@2HB
CONST	SEGMENT
?value@?$select_by_size@$0BE@@detail@iostreams@boost@@2HB DD 012H ; boost::iostreams::detail::select_by_size<20>::value
CONST	ENDS
;	COMDAT ?value@type@?$select_by_size@$0BE@@detail@iostreams@boost@@2HB
CONST	SEGMENT
?value@type@?$select_by_size@$0BE@@detail@iostreams@boost@@2HB DD 012H ; boost::iostreams::detail::select_by_size<20>::type::value
CONST	ENDS
;	COMDAT ?value@?$select_by_size@$0BD@@detail@iostreams@boost@@2HB
CONST	SEGMENT
?value@?$select_by_size@$0BD@@detail@iostreams@boost@@2HB DD 011H ; boost::iostreams::detail::select_by_size<19>::value
CONST	ENDS
;	COMDAT ?value@type@?$select_by_size@$0BD@@detail@iostreams@boost@@2HB
CONST	SEGMENT
?value@type@?$select_by_size@$0BD@@detail@iostreams@boost@@2HB DD 011H ; boost::iostreams::detail::select_by_size<19>::type::value
CONST	ENDS
;	COMDAT ?value@?$select_by_size@$0BC@@detail@iostreams@boost@@2HB
CONST	SEGMENT
?value@?$select_by_size@$0BC@@detail@iostreams@boost@@2HB DD 010H ; boost::iostreams::detail::select_by_size<18>::value
CONST	ENDS
;	COMDAT ?value@type@?$select_by_size@$0BC@@detail@iostreams@boost@@2HB
CONST	SEGMENT
?value@type@?$select_by_size@$0BC@@detail@iostreams@boost@@2HB DD 010H ; boost::iostreams::detail::select_by_size<18>::type::value
CONST	ENDS
;	COMDAT ?value@?$select_by_size@$0BB@@detail@iostreams@boost@@2HB
CONST	SEGMENT
?value@?$select_by_size@$0BB@@detail@iostreams@boost@@2HB DD 0fH ; boost::iostreams::detail::select_by_size<17>::value
CONST	ENDS
;	COMDAT ?value@type@?$select_by_size@$0BB@@detail@iostreams@boost@@2HB
CONST	SEGMENT
?value@type@?$select_by_size@$0BB@@detail@iostreams@boost@@2HB DD 0fH ; boost::iostreams::detail::select_by_size<17>::type::value
CONST	ENDS
;	COMDAT ?value@?$select_by_size@$0BA@@detail@iostreams@boost@@2HB
CONST	SEGMENT
?value@?$select_by_size@$0BA@@detail@iostreams@boost@@2HB DD 0eH ; boost::iostreams::detail::select_by_size<16>::value
CONST	ENDS
;	COMDAT ?value@type@?$select_by_size@$0BA@@detail@iostreams@boost@@2HB
CONST	SEGMENT
?value@type@?$select_by_size@$0BA@@detail@iostreams@boost@@2HB DD 0eH ; boost::iostreams::detail::select_by_size<16>::type::value
CONST	ENDS
;	COMDAT ?value@?$select_by_size@$0P@@detail@iostreams@boost@@2HB
CONST	SEGMENT
?value@?$select_by_size@$0P@@detail@iostreams@boost@@2HB DD 0dH ; boost::iostreams::detail::select_by_size<15>::value
CONST	ENDS
;	COMDAT ?value@type@?$select_by_size@$0P@@detail@iostreams@boost@@2HB
CONST	SEGMENT
?value@type@?$select_by_size@$0P@@detail@iostreams@boost@@2HB DD 0dH ; boost::iostreams::detail::select_by_size<15>::type::value
CONST	ENDS
;	COMDAT ?value@?$select_by_size@$0O@@detail@iostreams@boost@@2HB
CONST	SEGMENT
?value@?$select_by_size@$0O@@detail@iostreams@boost@@2HB DD 0cH ; boost::iostreams::detail::select_by_size<14>::value
CONST	ENDS
;	COMDAT ?value@type@?$select_by_size@$0O@@detail@iostreams@boost@@2HB
CONST	SEGMENT
?value@type@?$select_by_size@$0O@@detail@iostreams@boost@@2HB DD 0cH ; boost::iostreams::detail::select_by_size<14>::type::value
CONST	ENDS
;	COMDAT ?value@?$select_by_size@$0N@@detail@iostreams@boost@@2HB
CONST	SEGMENT
?value@?$select_by_size@$0N@@detail@iostreams@boost@@2HB DD 0bH ; boost::iostreams::detail::select_by_size<13>::value
CONST	ENDS
;	COMDAT ?value@type@?$select_by_size@$0N@@detail@iostreams@boost@@2HB
CONST	SEGMENT
?value@type@?$select_by_size@$0N@@detail@iostreams@boost@@2HB DD 0bH ; boost::iostreams::detail::select_by_size<13>::type::value
CONST	ENDS
;	COMDAT ?value@?$select_by_size@$0M@@detail@iostreams@boost@@2HB
CONST	SEGMENT
?value@?$select_by_size@$0M@@detail@iostreams@boost@@2HB DD 0aH ; boost::iostreams::detail::select_by_size<12>::value
CONST	ENDS
;	COMDAT ?value@type@?$select_by_size@$0M@@detail@iostreams@boost@@2HB
CONST	SEGMENT
?value@type@?$select_by_size@$0M@@detail@iostreams@boost@@2HB DD 0aH ; boost::iostreams::detail::select_by_size<12>::type::value
CONST	ENDS
;	COMDAT ?value@?$select_by_size@$0L@@detail@iostreams@boost@@2HB
CONST	SEGMENT
?value@?$select_by_size@$0L@@detail@iostreams@boost@@2HB DD 09H ; boost::iostreams::detail::select_by_size<11>::value
CONST	ENDS
;	COMDAT ?value@type@?$select_by_size@$0L@@detail@iostreams@boost@@2HB
CONST	SEGMENT
?value@type@?$select_by_size@$0L@@detail@iostreams@boost@@2HB DD 09H ; boost::iostreams::detail::select_by_size<11>::type::value
CONST	ENDS
;	COMDAT ?value@?$select_by_size@$09@detail@iostreams@boost@@2HB
CONST	SEGMENT
?value@?$select_by_size@$09@detail@iostreams@boost@@2HB DD 08H ; boost::iostreams::detail::select_by_size<10>::value
CONST	ENDS
;	COMDAT ?value@type@?$select_by_size@$09@detail@iostreams@boost@@2HB
CONST	SEGMENT
?value@type@?$select_by_size@$09@detail@iostreams@boost@@2HB DD 08H ; boost::iostreams::detail::select_by_size<10>::type::value
CONST	ENDS
;	COMDAT ?value@?$select_by_size@$08@detail@iostreams@boost@@2HB
CONST	SEGMENT
?value@?$select_by_size@$08@detail@iostreams@boost@@2HB DD 07H ; boost::iostreams::detail::select_by_size<9>::value
CONST	ENDS
;	COMDAT ?value@type@?$select_by_size@$08@detail@iostreams@boost@@2HB
CONST	SEGMENT
?value@type@?$select_by_size@$08@detail@iostreams@boost@@2HB DD 07H ; boost::iostreams::detail::select_by_size<9>::type::value
CONST	ENDS
;	COMDAT ?value@?$select_by_size@$07@detail@iostreams@boost@@2HB
CONST	SEGMENT
?value@?$select_by_size@$07@detail@iostreams@boost@@2HB DD 06H ; boost::iostreams::detail::select_by_size<8>::value
CONST	ENDS
;	COMDAT ?value@type@?$select_by_size@$07@detail@iostreams@boost@@2HB
CONST	SEGMENT
?value@type@?$select_by_size@$07@detail@iostreams@boost@@2HB DD 06H ; boost::iostreams::detail::select_by_size<8>::type::value
CONST	ENDS
;	COMDAT ?value@?$select_by_size@$06@detail@iostreams@boost@@2HB
CONST	SEGMENT
?value@?$select_by_size@$06@detail@iostreams@boost@@2HB DD 05H ; boost::iostreams::detail::select_by_size<7>::value
CONST	ENDS
;	COMDAT ?value@type@?$select_by_size@$06@detail@iostreams@boost@@2HB
CONST	SEGMENT
?value@type@?$select_by_size@$06@detail@iostreams@boost@@2HB DD 05H ; boost::iostreams::detail::select_by_size<7>::type::value
CONST	ENDS
;	COMDAT ?value@?$select_by_size@$05@detail@iostreams@boost@@2HB
CONST	SEGMENT
?value@?$select_by_size@$05@detail@iostreams@boost@@2HB DD 04H ; boost::iostreams::detail::select_by_size<6>::value
CONST	ENDS
;	COMDAT ?value@type@?$select_by_size@$05@detail@iostreams@boost@@2HB
CONST	SEGMENT
?value@type@?$select_by_size@$05@detail@iostreams@boost@@2HB DD 04H ; boost::iostreams::detail::select_by_size<6>::type::value
CONST	ENDS
;	COMDAT ?value@?$select_by_size@$04@detail@iostreams@boost@@2HB
CONST	SEGMENT
?value@?$select_by_size@$04@detail@iostreams@boost@@2HB DD 03H ; boost::iostreams::detail::select_by_size<5>::value
CONST	ENDS
;	COMDAT ?value@type@?$select_by_size@$04@detail@iostreams@boost@@2HB
CONST	SEGMENT
?value@type@?$select_by_size@$04@detail@iostreams@boost@@2HB DD 03H ; boost::iostreams::detail::select_by_size<5>::type::value
CONST	ENDS
;	COMDAT ?value@?$select_by_size@$03@detail@iostreams@boost@@2HB
CONST	SEGMENT
?value@?$select_by_size@$03@detail@iostreams@boost@@2HB DD 02H ; boost::iostreams::detail::select_by_size<4>::value
CONST	ENDS
;	COMDAT ?value@type@?$select_by_size@$03@detail@iostreams@boost@@2HB
CONST	SEGMENT
?value@type@?$select_by_size@$03@detail@iostreams@boost@@2HB DD 02H ; boost::iostreams::detail::select_by_size<4>::type::value
CONST	ENDS
;	COMDAT ?value@?$select_by_size@$02@detail@iostreams@boost@@2HB
CONST	SEGMENT
?value@?$select_by_size@$02@detail@iostreams@boost@@2HB DD 01H ; boost::iostreams::detail::select_by_size<3>::value
CONST	ENDS
;	COMDAT ?value@type@?$select_by_size@$02@detail@iostreams@boost@@2HB
CONST	SEGMENT
?value@type@?$select_by_size@$02@detail@iostreams@boost@@2HB DD 01H ; boost::iostreams::detail::select_by_size<3>::type::value
CONST	ENDS
;	COMDAT ?value@?$select_by_size@$01@detail@iostreams@boost@@2HB
CONST	SEGMENT
?value@?$select_by_size@$01@detail@iostreams@boost@@2HB DD 00H ; boost::iostreams::detail::select_by_size<2>::value
CONST	ENDS
;	COMDAT ?value@type@?$select_by_size@$01@detail@iostreams@boost@@2HB
CONST	SEGMENT
?value@type@?$select_by_size@$01@detail@iostreams@boost@@2HB DD 00H ; boost::iostreams::detail::select_by_size<2>::type::value
CONST	ENDS
;	COMDAT ?value@?$select_by_size@$00@detail@iostreams@boost@@2HB
CONST	SEGMENT
?value@?$select_by_size@$00@detail@iostreams@boost@@2HB DD 0ffffffffH ; boost::iostreams::detail::select_by_size<1>::value
CONST	ENDS
;	COMDAT ?value@type@?$select_by_size@$00@detail@iostreams@boost@@2HB
CONST	SEGMENT
?value@type@?$select_by_size@$00@detail@iostreams@boost@@2HB DD 0ffffffffH ; boost::iostreams::detail::select_by_size<1>::type::value
CONST	ENDS
;	COMDAT ?value@?$is_convertible_impl@$$CDX$$CDX@detail@boost@@2_NB
CONST	SEGMENT
?value@?$is_convertible_impl@$$CDX$$CDX@detail@boost@@2_NB DB 01H ; boost::detail::is_convertible_impl<void const volatile ,void const volatile >::value
CONST	ENDS
;	COMDAT ?value@?$is_convertible_impl@$$CDX$$CCX@detail@boost@@2_NB
CONST	SEGMENT
?value@?$is_convertible_impl@$$CDX$$CCX@detail@boost@@2_NB DB 01H ; boost::detail::is_convertible_impl<void const volatile ,void volatile >::value
CONST	ENDS
;	COMDAT ?value@?$is_convertible_impl@$$CDX$$CBX@detail@boost@@2_NB
CONST	SEGMENT
?value@?$is_convertible_impl@$$CDX$$CBX@detail@boost@@2_NB DB 01H ; boost::detail::is_convertible_impl<void const volatile ,void const >::value
CONST	ENDS
;	COMDAT ?value@?$is_convertible_impl@$$CDXX@detail@boost@@2_NB
CONST	SEGMENT
?value@?$is_convertible_impl@$$CDXX@detail@boost@@2_NB DB 01H ; boost::detail::is_convertible_impl<void const volatile ,void>::value
CONST	ENDS
;	COMDAT ?value@?$is_convertible_impl@$$CCX$$CDX@detail@boost@@2_NB
CONST	SEGMENT
?value@?$is_convertible_impl@$$CCX$$CDX@detail@boost@@2_NB DB 01H ; boost::detail::is_convertible_impl<void volatile ,void const volatile >::value
CONST	ENDS
;	COMDAT ?value@?$is_convertible_impl@$$CCX$$CCX@detail@boost@@2_NB
CONST	SEGMENT
?value@?$is_convertible_impl@$$CCX$$CCX@detail@boost@@2_NB DB 01H ; boost::detail::is_convertible_impl<void volatile ,void volatile >::value
CONST	ENDS
;	COMDAT ?value@?$is_convertible_impl@$$CCX$$CBX@detail@boost@@2_NB
CONST	SEGMENT
?value@?$is_convertible_impl@$$CCX$$CBX@detail@boost@@2_NB DB 01H ; boost::detail::is_convertible_impl<void volatile ,void const >::value
CONST	ENDS
;	COMDAT ?value@?$is_convertible_impl@$$CCXX@detail@boost@@2_NB
CONST	SEGMENT
?value@?$is_convertible_impl@$$CCXX@detail@boost@@2_NB DB 01H ; boost::detail::is_convertible_impl<void volatile ,void>::value
CONST	ENDS
;	COMDAT ?value@?$is_convertible_impl@$$CBX$$CDX@detail@boost@@2_NB
CONST	SEGMENT
?value@?$is_convertible_impl@$$CBX$$CDX@detail@boost@@2_NB DB 01H ; boost::detail::is_convertible_impl<void const ,void const volatile >::value
CONST	ENDS
;	COMDAT ?value@?$is_convertible_impl@$$CBX$$CCX@detail@boost@@2_NB
CONST	SEGMENT
?value@?$is_convertible_impl@$$CBX$$CCX@detail@boost@@2_NB DB 01H ; boost::detail::is_convertible_impl<void const ,void volatile >::value
CONST	ENDS
;	COMDAT ?value@?$is_convertible_impl@$$CBX$$CBX@detail@boost@@2_NB
CONST	SEGMENT
?value@?$is_convertible_impl@$$CBX$$CBX@detail@boost@@2_NB DB 01H ; boost::detail::is_convertible_impl<void const ,void const >::value
CONST	ENDS
;	COMDAT ?value@?$is_convertible_impl@$$CBXX@detail@boost@@2_NB
CONST	SEGMENT
?value@?$is_convertible_impl@$$CBXX@detail@boost@@2_NB DB 01H ; boost::detail::is_convertible_impl<void const ,void>::value
CONST	ENDS
;	COMDAT ?value@?$is_convertible_impl@X$$CDX@detail@boost@@2_NB
CONST	SEGMENT
?value@?$is_convertible_impl@X$$CDX@detail@boost@@2_NB DB 01H ; boost::detail::is_convertible_impl<void,void const volatile >::value
CONST	ENDS
;	COMDAT ?value@?$is_convertible_impl@X$$CCX@detail@boost@@2_NB
CONST	SEGMENT
?value@?$is_convertible_impl@X$$CCX@detail@boost@@2_NB DB 01H ; boost::detail::is_convertible_impl<void,void volatile >::value
CONST	ENDS
;	COMDAT ?value@?$is_convertible_impl@X$$CBX@detail@boost@@2_NB
CONST	SEGMENT
?value@?$is_convertible_impl@X$$CBX@detail@boost@@2_NB DB 01H ; boost::detail::is_convertible_impl<void,void const >::value
CONST	ENDS
;	COMDAT ?value@?$is_convertible_impl@XX@detail@boost@@2_NB
CONST	SEGMENT
?value@?$is_convertible_impl@XX@detail@boost@@2_NB DB 01H ; boost::detail::is_convertible_impl<void,void>::value
CONST	ENDS
;	COMDAT ?value@?$ice_not@$00@type_traits@boost@@2_NB
CONST	SEGMENT
?value@?$ice_not@$00@type_traits@boost@@2_NB DB 00H	; boost::type_traits::ice_not<1>::value
CONST	ENDS
;	COMDAT ?value@?$ice_and@$00$00$00$00$00$00$00@type_traits@boost@@2_NB
CONST	SEGMENT
?value@?$ice_and@$00$00$00$00$00$00$00@type_traits@boost@@2_NB DB 01H ; boost::type_traits::ice_and<1,1,1,1,1,1,1>::value
CONST	ENDS
;	COMDAT ?value@?$ice_or@$0A@$0A@$0A@$0A@$0A@$0A@$0A@@type_traits@boost@@2_NB
CONST	SEGMENT
?value@?$ice_or@$0A@$0A@$0A@$0A@$0A@$0A@$0A@@type_traits@boost@@2_NB DB 00H ; boost::type_traits::ice_or<0,0,0,0,0,0,0>::value
CONST	ENDS
;	COMDAT ?const_max@?$integer_traits_base@_K$0A@$0?0@detail@boost@@2_KB
CONST	SEGMENT
?const_max@?$integer_traits_base@_K$0A@$0?0@detail@boost@@2_KB DQ ffffffffffffffffH ; boost::detail::integer_traits_base<unsigned __int64,0,-1>::const_max
CONST	ENDS
;	COMDAT ?const_min@?$integer_traits_base@_K$0A@$0?0@detail@boost@@2_KB
CONST	SEGMENT
?const_min@?$integer_traits_base@_K$0A@$0?0@detail@boost@@2_KB DQ 0000000000000000H ; boost::detail::integer_traits_base<unsigned __int64,0,-1>::const_min
CONST	ENDS
;	COMDAT ?is_integral@?$integer_traits_base@_K$0A@$0?0@detail@boost@@2_NB
CONST	SEGMENT
?is_integral@?$integer_traits_base@_K$0A@$0?0@detail@boost@@2_NB DB 01H ; boost::detail::integer_traits_base<unsigned __int64,0,-1>::is_integral
CONST	ENDS
;	COMDAT ?const_max@?$integer_traits_base@_J$0?IAAAAAAAAAAAAAAA@$0HPPPPPPPPPPPPPPP@@detail@boost@@2_JB
CONST	SEGMENT
?const_max@?$integer_traits_base@_J$0?IAAAAAAAAAAAAAAA@$0HPPPPPPPPPPPPPPP@@detail@boost@@2_JB DQ 7fffffffffffffffH ; boost::detail::integer_traits_base<__int64,-9223372036854775808,9223372036854775807>::const_max
CONST	ENDS
;	COMDAT ?const_min@?$integer_traits_base@_J$0?IAAAAAAAAAAAAAAA@$0HPPPPPPPPPPPPPPP@@detail@boost@@2_JB
CONST	SEGMENT
?const_min@?$integer_traits_base@_J$0?IAAAAAAAAAAAAAAA@$0HPPPPPPPPPPPPPPP@@detail@boost@@2_JB DQ 8000000000000000H ; boost::detail::integer_traits_base<__int64,-9223372036854775808,9223372036854775807>::const_min
CONST	ENDS
;	COMDAT ?is_integral@?$integer_traits_base@_J$0?IAAAAAAAAAAAAAAA@$0HPPPPPPPPPPPPPPP@@detail@boost@@2_NB
CONST	SEGMENT
?is_integral@?$integer_traits_base@_J$0?IAAAAAAAAAAAAAAA@$0HPPPPPPPPPPPPPPP@@detail@boost@@2_NB DB 01H ; boost::detail::integer_traits_base<__int64,-9223372036854775808,9223372036854775807>::is_integral
CONST	ENDS
;	COMDAT ?const_max@?$integer_traits_base@K$0A@$0PPPPPPPP@@detail@boost@@2KB
CONST	SEGMENT
?const_max@?$integer_traits_base@K$0A@$0PPPPPPPP@@detail@boost@@2KB DD 0ffffffffH ; boost::detail::integer_traits_base<unsigned long,0,4294967295>::const_max
CONST	ENDS
;	COMDAT ?const_min@?$integer_traits_base@K$0A@$0PPPPPPPP@@detail@boost@@2KB
CONST	SEGMENT
?const_min@?$integer_traits_base@K$0A@$0PPPPPPPP@@detail@boost@@2KB DD 00H ; boost::detail::integer_traits_base<unsigned long,0,4294967295>::const_min
CONST	ENDS
;	COMDAT ?is_integral@?$integer_traits_base@K$0A@$0PPPPPPPP@@detail@boost@@2_NB
CONST	SEGMENT
?is_integral@?$integer_traits_base@K$0A@$0PPPPPPPP@@detail@boost@@2_NB DB 01H ; boost::detail::integer_traits_base<unsigned long,0,4294967295>::is_integral
CONST	ENDS
;	COMDAT ?const_max@?$integer_traits_base@J$0?IAAAAAAA@$0HPPPPPPP@@detail@boost@@2JB
CONST	SEGMENT
?const_max@?$integer_traits_base@J$0?IAAAAAAA@$0HPPPPPPP@@detail@boost@@2JB DD 07fffffffH ; boost::detail::integer_traits_base<long,-2147483648,2147483647>::const_max
CONST	ENDS
;	COMDAT ?const_min@?$integer_traits_base@J$0?IAAAAAAA@$0HPPPPPPP@@detail@boost@@2JB
CONST	SEGMENT
?const_min@?$integer_traits_base@J$0?IAAAAAAA@$0HPPPPPPP@@detail@boost@@2JB DD 080000000H ; boost::detail::integer_traits_base<long,-2147483648,2147483647>::const_min
CONST	ENDS
;	COMDAT ?is_integral@?$integer_traits_base@J$0?IAAAAAAA@$0HPPPPPPP@@detail@boost@@2_NB
CONST	SEGMENT
?is_integral@?$integer_traits_base@J$0?IAAAAAAA@$0HPPPPPPP@@detail@boost@@2_NB DB 01H ; boost::detail::integer_traits_base<long,-2147483648,2147483647>::is_integral
CONST	ENDS
;	COMDAT ?const_max@?$integer_traits_base@I$0A@$0PPPPPPPP@@detail@boost@@2IB
CONST	SEGMENT
?const_max@?$integer_traits_base@I$0A@$0PPPPPPPP@@detail@boost@@2IB DD 0ffffffffH ; boost::detail::integer_traits_base<unsigned int,0,4294967295>::const_max
CONST	ENDS
;	COMDAT ?const_min@?$integer_traits_base@I$0A@$0PPPPPPPP@@detail@boost@@2IB
CONST	SEGMENT
?const_min@?$integer_traits_base@I$0A@$0PPPPPPPP@@detail@boost@@2IB DD 00H ; boost::detail::integer_traits_base<unsigned int,0,4294967295>::const_min
CONST	ENDS
;	COMDAT ?is_integral@?$integer_traits_base@I$0A@$0PPPPPPPP@@detail@boost@@2_NB
CONST	SEGMENT
?is_integral@?$integer_traits_base@I$0A@$0PPPPPPPP@@detail@boost@@2_NB DB 01H ; boost::detail::integer_traits_base<unsigned int,0,4294967295>::is_integral
CONST	ENDS
;	COMDAT ?const_max@?$integer_traits_base@H$0?IAAAAAAA@$0HPPPPPPP@@detail@boost@@2HB
CONST	SEGMENT
?const_max@?$integer_traits_base@H$0?IAAAAAAA@$0HPPPPPPP@@detail@boost@@2HB DD 07fffffffH ; boost::detail::integer_traits_base<int,-2147483648,2147483647>::const_max
CONST	ENDS
;	COMDAT ?const_min@?$integer_traits_base@H$0?IAAAAAAA@$0HPPPPPPP@@detail@boost@@2HB
CONST	SEGMENT
?const_min@?$integer_traits_base@H$0?IAAAAAAA@$0HPPPPPPP@@detail@boost@@2HB DD 080000000H ; boost::detail::integer_traits_base<int,-2147483648,2147483647>::const_min
CONST	ENDS
;	COMDAT ?is_integral@?$integer_traits_base@H$0?IAAAAAAA@$0HPPPPPPP@@detail@boost@@2_NB
CONST	SEGMENT
?is_integral@?$integer_traits_base@H$0?IAAAAAAA@$0HPPPPPPP@@detail@boost@@2_NB DB 01H ; boost::detail::integer_traits_base<int,-2147483648,2147483647>::is_integral
CONST	ENDS
;	COMDAT ?const_max@?$integer_traits_base@G$0A@$0PPPP@@detail@boost@@2GB
CONST	SEGMENT
?const_max@?$integer_traits_base@G$0A@$0PPPP@@detail@boost@@2GB DW 0ffffH ; boost::detail::integer_traits_base<unsigned short,0,65535>::const_max
CONST	ENDS
;	COMDAT ?const_min@?$integer_traits_base@G$0A@$0PPPP@@detail@boost@@2GB
CONST	SEGMENT
?const_min@?$integer_traits_base@G$0A@$0PPPP@@detail@boost@@2GB DW 00H ; boost::detail::integer_traits_base<unsigned short,0,65535>::const_min
CONST	ENDS
;	COMDAT ?is_integral@?$integer_traits_base@G$0A@$0PPPP@@detail@boost@@2_NB
CONST	SEGMENT
?is_integral@?$integer_traits_base@G$0A@$0PPPP@@detail@boost@@2_NB DB 01H ; boost::detail::integer_traits_base<unsigned short,0,65535>::is_integral
CONST	ENDS
;	COMDAT ?const_max@?$integer_traits_base@F$0?IAAA@$0HPPP@@detail@boost@@2FB
CONST	SEGMENT
?const_max@?$integer_traits_base@F$0?IAAA@$0HPPP@@detail@boost@@2FB DW 07fffH ; boost::detail::integer_traits_base<short,-32768,32767>::const_max
CONST	ENDS
;	COMDAT ?const_min@?$integer_traits_base@F$0?IAAA@$0HPPP@@detail@boost@@2FB
CONST	SEGMENT
?const_min@?$integer_traits_base@F$0?IAAA@$0HPPP@@detail@boost@@2FB DW 08000H ; boost::detail::integer_traits_base<short,-32768,32767>::const_min
CONST	ENDS
;	COMDAT ?is_integral@?$integer_traits_base@F$0?IAAA@$0HPPP@@detail@boost@@2_NB
CONST	SEGMENT
?is_integral@?$integer_traits_base@F$0?IAAA@$0HPPP@@detail@boost@@2_NB DB 01H ; boost::detail::integer_traits_base<short,-32768,32767>::is_integral
CONST	ENDS
;	COMDAT ?const_max@?$integer_traits_base@_W$0A@$0PPPP@@detail@boost@@2_WB
CONST	SEGMENT
?const_max@?$integer_traits_base@_W$0A@$0PPPP@@detail@boost@@2_WB DW 0ffffH ; boost::detail::integer_traits_base<wchar_t,0,65535>::const_max
CONST	ENDS
;	COMDAT ?const_min@?$integer_traits_base@_W$0A@$0PPPP@@detail@boost@@2_WB
CONST	SEGMENT
?const_min@?$integer_traits_base@_W$0A@$0PPPP@@detail@boost@@2_WB DW 00H ; boost::detail::integer_traits_base<wchar_t,0,65535>::const_min
CONST	ENDS
;	COMDAT ?is_integral@?$integer_traits_base@_W$0A@$0PPPP@@detail@boost@@2_NB
CONST	SEGMENT
?is_integral@?$integer_traits_base@_W$0A@$0PPPP@@detail@boost@@2_NB DB 01H ; boost::detail::integer_traits_base<wchar_t,0,65535>::is_integral
CONST	ENDS
;	COMDAT ?const_max@?$integer_traits_base@E$0A@$0PP@@detail@boost@@2EB
CONST	SEGMENT
?const_max@?$integer_traits_base@E$0A@$0PP@@detail@boost@@2EB DB 0ffH ; boost::detail::integer_traits_base<unsigned char,0,255>::const_max
CONST	ENDS
;	COMDAT ?const_min@?$integer_traits_base@E$0A@$0PP@@detail@boost@@2EB
CONST	SEGMENT
?const_min@?$integer_traits_base@E$0A@$0PP@@detail@boost@@2EB DB 00H ; boost::detail::integer_traits_base<unsigned char,0,255>::const_min
CONST	ENDS
;	COMDAT ?is_integral@?$integer_traits_base@E$0A@$0PP@@detail@boost@@2_NB
CONST	SEGMENT
?is_integral@?$integer_traits_base@E$0A@$0PP@@detail@boost@@2_NB DB 01H ; boost::detail::integer_traits_base<unsigned char,0,255>::is_integral
CONST	ENDS
;	COMDAT ?const_max@?$integer_traits_base@C$0?IA@$0HP@@detail@boost@@2CB
CONST	SEGMENT
?const_max@?$integer_traits_base@C$0?IA@$0HP@@detail@boost@@2CB DB 07fH ; boost::detail::integer_traits_base<signed char,-128,127>::const_max
CONST	ENDS
;	COMDAT ?const_min@?$integer_traits_base@C$0?IA@$0HP@@detail@boost@@2CB
CONST	SEGMENT
?const_min@?$integer_traits_base@C$0?IA@$0HP@@detail@boost@@2CB DB 080H ; boost::detail::integer_traits_base<signed char,-128,127>::const_min
CONST	ENDS
;	COMDAT ?is_integral@?$integer_traits_base@C$0?IA@$0HP@@detail@boost@@2_NB
CONST	SEGMENT
?is_integral@?$integer_traits_base@C$0?IA@$0HP@@detail@boost@@2_NB DB 01H ; boost::detail::integer_traits_base<signed char,-128,127>::is_integral
CONST	ENDS
;	COMDAT ?const_max@?$integer_traits_base@D$0?IA@$0HP@@detail@boost@@2DB
CONST	SEGMENT
?const_max@?$integer_traits_base@D$0?IA@$0HP@@detail@boost@@2DB DB 07fH ; boost::detail::integer_traits_base<char,-128,127>::const_max
CONST	ENDS
;	COMDAT ?const_min@?$integer_traits_base@D$0?IA@$0HP@@detail@boost@@2DB
CONST	SEGMENT
?const_min@?$integer_traits_base@D$0?IA@$0HP@@detail@boost@@2DB DB 080H ; boost::detail::integer_traits_base<char,-128,127>::const_min
CONST	ENDS
;	COMDAT ?is_integral@?$integer_traits_base@D$0?IA@$0HP@@detail@boost@@2_NB
CONST	SEGMENT
?is_integral@?$integer_traits_base@D$0?IA@$0HP@@detail@boost@@2_NB DB 01H ; boost::detail::integer_traits_base<char,-128,127>::is_integral
CONST	ENDS
;	COMDAT ?const_max@?$integer_traits_base@_N$0A@$00@detail@boost@@2_NB
CONST	SEGMENT
?const_max@?$integer_traits_base@_N$0A@$00@detail@boost@@2_NB DB 01H ; boost::detail::integer_traits_base<bool,0,1>::const_max
CONST	ENDS
;	COMDAT ?const_min@?$integer_traits_base@_N$0A@$00@detail@boost@@2_NB
CONST	SEGMENT
?const_min@?$integer_traits_base@_N$0A@$00@detail@boost@@2_NB DB 00H ; boost::detail::integer_traits_base<bool,0,1>::const_min
CONST	ENDS
;	COMDAT ?is_integral@?$integer_traits_base@_N$0A@$00@detail@boost@@2_NB
CONST	SEGMENT
?is_integral@?$integer_traits_base@_N$0A@$00@detail@boost@@2_NB DB 01H ; boost::detail::integer_traits_base<bool,0,1>::is_integral
CONST	ENDS
;	COMDAT ?end@?$_Iosb@H@std@@2W4_Seekdir@12@B
CONST	SEGMENT
?end@?$_Iosb@H@std@@2W4_Seekdir@12@B DD 02H		; std::_Iosb<int>::end
CONST	ENDS
;	COMDAT ?cur@?$_Iosb@H@std@@2W4_Seekdir@12@B
CONST	SEGMENT
?cur@?$_Iosb@H@std@@2W4_Seekdir@12@B DD 01H		; std::_Iosb<int>::cur
CONST	ENDS
;	COMDAT ?beg@?$_Iosb@H@std@@2W4_Seekdir@12@B
CONST	SEGMENT
?beg@?$_Iosb@H@std@@2W4_Seekdir@12@B DD 00H		; std::_Iosb<int>::beg
CONST	ENDS
;	COMDAT ?binary@?$_Iosb@H@std@@2W4_Openmode@12@B
CONST	SEGMENT
?binary@?$_Iosb@H@std@@2W4_Openmode@12@B DD 020H	; std::_Iosb<int>::binary
CONST	ENDS
;	COMDAT ?_Noreplace@?$_Iosb@H@std@@2W4_Openmode@12@B
CONST	SEGMENT
?_Noreplace@?$_Iosb@H@std@@2W4_Openmode@12@B DD 080H	; std::_Iosb<int>::_Noreplace
CONST	ENDS
;	COMDAT ?_Nocreate@?$_Iosb@H@std@@2W4_Openmode@12@B
CONST	SEGMENT
?_Nocreate@?$_Iosb@H@std@@2W4_Openmode@12@B DD 040H	; std::_Iosb<int>::_Nocreate
CONST	ENDS
;	COMDAT ?trunc@?$_Iosb@H@std@@2W4_Openmode@12@B
CONST	SEGMENT
?trunc@?$_Iosb@H@std@@2W4_Openmode@12@B DD 010H		; std::_Iosb<int>::trunc
CONST	ENDS
;	COMDAT ?app@?$_Iosb@H@std@@2W4_Openmode@12@B
CONST	SEGMENT
?app@?$_Iosb@H@std@@2W4_Openmode@12@B DD 08H		; std::_Iosb<int>::app
CONST	ENDS
;	COMDAT ?ate@?$_Iosb@H@std@@2W4_Openmode@12@B
CONST	SEGMENT
?ate@?$_Iosb@H@std@@2W4_Openmode@12@B DD 04H		; std::_Iosb<int>::ate
CONST	ENDS
;	COMDAT ?out@?$_Iosb@H@std@@2W4_Openmode@12@B
CONST	SEGMENT
?out@?$_Iosb@H@std@@2W4_Openmode@12@B DD 02H		; std::_Iosb<int>::out
CONST	ENDS
;	COMDAT ?in@?$_Iosb@H@std@@2W4_Openmode@12@B
CONST	SEGMENT
?in@?$_Iosb@H@std@@2W4_Openmode@12@B DD 01H		; std::_Iosb<int>::in
CONST	ENDS
;	COMDAT ?_Hardfail@?$_Iosb@H@std@@2W4_Iostate@12@B
CONST	SEGMENT
?_Hardfail@?$_Iosb@H@std@@2W4_Iostate@12@B DD 010H	; std::_Iosb<int>::_Hardfail
CONST	ENDS
;	COMDAT ?badbit@?$_Iosb@H@std@@2W4_Iostate@12@B
CONST	SEGMENT
?badbit@?$_Iosb@H@std@@2W4_Iostate@12@B DD 04H		; std::_Iosb<int>::badbit
CONST	ENDS
;	COMDAT ?failbit@?$_Iosb@H@std@@2W4_Iostate@12@B
CONST	SEGMENT
?failbit@?$_Iosb@H@std@@2W4_Iostate@12@B DD 02H		; std::_Iosb<int>::failbit
CONST	ENDS
;	COMDAT ?eofbit@?$_Iosb@H@std@@2W4_Iostate@12@B
CONST	SEGMENT
?eofbit@?$_Iosb@H@std@@2W4_Iostate@12@B DD 01H		; std::_Iosb<int>::eofbit
CONST	ENDS
;	COMDAT ?goodbit@?$_Iosb@H@std@@2W4_Iostate@12@B
CONST	SEGMENT
?goodbit@?$_Iosb@H@std@@2W4_Iostate@12@B DD 00H		; std::_Iosb<int>::goodbit
CONST	ENDS
;	COMDAT ?floatfield@?$_Iosb@H@std@@2W4_Fmtflags@12@B
CONST	SEGMENT
?floatfield@?$_Iosb@H@std@@2W4_Fmtflags@12@B DD 03000H	; std::_Iosb<int>::floatfield
CONST	ENDS
;	COMDAT ?basefield@?$_Iosb@H@std@@2W4_Fmtflags@12@B
CONST	SEGMENT
?basefield@?$_Iosb@H@std@@2W4_Fmtflags@12@B DD 0e00H	; std::_Iosb<int>::basefield
CONST	ENDS
;	COMDAT ?adjustfield@?$_Iosb@H@std@@2W4_Fmtflags@12@B
CONST	SEGMENT
?adjustfield@?$_Iosb@H@std@@2W4_Fmtflags@12@B DD 01c0H	; std::_Iosb<int>::adjustfield
CONST	ENDS
;	COMDAT ?_Stdio@?$_Iosb@H@std@@2W4_Fmtflags@12@B
CONST	SEGMENT
?_Stdio@?$_Iosb@H@std@@2W4_Fmtflags@12@B DD 08000H	; std::_Iosb<int>::_Stdio
CONST	ENDS
;	COMDAT ?boolalpha@?$_Iosb@H@std@@2W4_Fmtflags@12@B
CONST	SEGMENT
?boolalpha@?$_Iosb@H@std@@2W4_Fmtflags@12@B DD 04000H	; std::_Iosb<int>::boolalpha
CONST	ENDS
;	COMDAT ?hexfloat@?$_Iosb@H@std@@2W4_Fmtflags@12@B
CONST	SEGMENT
?hexfloat@?$_Iosb@H@std@@2W4_Fmtflags@12@B DD 03000H	; std::_Iosb<int>::hexfloat
CONST	ENDS
;	COMDAT ?fixed@?$_Iosb@H@std@@2W4_Fmtflags@12@B
CONST	SEGMENT
?fixed@?$_Iosb@H@std@@2W4_Fmtflags@12@B DD 02000H	; std::_Iosb<int>::fixed
CONST	ENDS
;	COMDAT ?scientific@?$_Iosb@H@std@@2W4_Fmtflags@12@B
CONST	SEGMENT
?scientific@?$_Iosb@H@std@@2W4_Fmtflags@12@B DD 01000H	; std::_Iosb<int>::scientific
CONST	ENDS
;	COMDAT ?hex@?$_Iosb@H@std@@2W4_Fmtflags@12@B
CONST	SEGMENT
?hex@?$_Iosb@H@std@@2W4_Fmtflags@12@B DD 0800H		; std::_Iosb<int>::hex
CONST	ENDS
;	COMDAT ?oct@?$_Iosb@H@std@@2W4_Fmtflags@12@B
CONST	SEGMENT
?oct@?$_Iosb@H@std@@2W4_Fmtflags@12@B DD 0400H		; std::_Iosb<int>::oct
CONST	ENDS
;	COMDAT ?dec@?$_Iosb@H@std@@2W4_Fmtflags@12@B
CONST	SEGMENT
?dec@?$_Iosb@H@std@@2W4_Fmtflags@12@B DD 0200H		; std::_Iosb<int>::dec
CONST	ENDS
;	COMDAT ?internal@?$_Iosb@H@std@@2W4_Fmtflags@12@B
CONST	SEGMENT
?internal@?$_Iosb@H@std@@2W4_Fmtflags@12@B DD 0100H	; std::_Iosb<int>::internal
CONST	ENDS
;	COMDAT ?right@?$_Iosb@H@std@@2W4_Fmtflags@12@B
CONST	SEGMENT
?right@?$_Iosb@H@std@@2W4_Fmtflags@12@B DD 080H		; std::_Iosb<int>::right
CONST	ENDS
;	COMDAT ?left@?$_Iosb@H@std@@2W4_Fmtflags@12@B
CONST	SEGMENT
?left@?$_Iosb@H@std@@2W4_Fmtflags@12@B DD 040H		; std::_Iosb<int>::left
CONST	ENDS
;	COMDAT ?showpos@?$_Iosb@H@std@@2W4_Fmtflags@12@B
CONST	SEGMENT
?showpos@?$_Iosb@H@std@@2W4_Fmtflags@12@B DD 020H	; std::_Iosb<int>::showpos
CONST	ENDS
;	COMDAT ?showpoint@?$_Iosb@H@std@@2W4_Fmtflags@12@B
CONST	SEGMENT
?showpoint@?$_Iosb@H@std@@2W4_Fmtflags@12@B DD 010H	; std::_Iosb<int>::showpoint
CONST	ENDS
;	COMDAT ?showbase@?$_Iosb@H@std@@2W4_Fmtflags@12@B
CONST	SEGMENT
?showbase@?$_Iosb@H@std@@2W4_Fmtflags@12@B DD 08H	; std::_Iosb<int>::showbase
CONST	ENDS
;	COMDAT ?uppercase@?$_Iosb@H@std@@2W4_Fmtflags@12@B
CONST	SEGMENT
?uppercase@?$_Iosb@H@std@@2W4_Fmtflags@12@B DD 04H	; std::_Iosb<int>::uppercase
CONST	ENDS
;	COMDAT ?unitbuf@?$_Iosb@H@std@@2W4_Fmtflags@12@B
CONST	SEGMENT
?unitbuf@?$_Iosb@H@std@@2W4_Fmtflags@12@B DD 02H	; std::_Iosb<int>::unitbuf
CONST	ENDS
;	COMDAT ?skipws@?$_Iosb@H@std@@2W4_Fmtflags@12@B
CONST	SEGMENT
?skipws@?$_Iosb@H@std@@2W4_Fmtflags@12@B DD 01H		; std::_Iosb<int>::skipws
CONST	ENDS
;	COMDAT ?none@?$_Locbase@H@std@@2HB
CONST	SEGMENT
?none@?$_Locbase@H@std@@2HB DD 00H			; std::_Locbase<int>::none
CONST	ENDS
;	COMDAT ?all@?$_Locbase@H@std@@2HB
CONST	SEGMENT
?all@?$_Locbase@H@std@@2HB DD 03fH			; std::_Locbase<int>::all
CONST	ENDS
;	COMDAT ?messages@?$_Locbase@H@std@@2HB
CONST	SEGMENT
?messages@?$_Locbase@H@std@@2HB DD 020H			; std::_Locbase<int>::messages
CONST	ENDS
;	COMDAT ?time@?$_Locbase@H@std@@2HB
CONST	SEGMENT
?time@?$_Locbase@H@std@@2HB DD 010H			; std::_Locbase<int>::time
CONST	ENDS
;	COMDAT ?numeric@?$_Locbase@H@std@@2HB
CONST	SEGMENT
?numeric@?$_Locbase@H@std@@2HB DD 08H			; std::_Locbase<int>::numeric
CONST	ENDS
;	COMDAT ?monetary@?$_Locbase@H@std@@2HB
CONST	SEGMENT
?monetary@?$_Locbase@H@std@@2HB DD 04H			; std::_Locbase<int>::monetary
CONST	ENDS
;	COMDAT ?ctype@?$_Locbase@H@std@@2HB
CONST	SEGMENT
?ctype@?$_Locbase@H@std@@2HB DD 02H			; std::_Locbase<int>::ctype
CONST	ENDS
;	COMDAT ?collate@?$_Locbase@H@std@@2HB
CONST	SEGMENT
?collate@?$_Locbase@H@std@@2HB DD 01H			; std::_Locbase<int>::collate
CONST	ENDS
;	COMDAT ?value@?$bool_@$0A@@mpl@boost@@2_NB
CONST	SEGMENT
?value@?$bool_@$0A@@mpl@boost@@2_NB DB 00H		; boost::mpl::bool_<0>::value
CONST	ENDS
;	COMDAT ?value@?$bool_@$00@mpl@boost@@2_NB
CONST	SEGMENT
?value@?$bool_@$00@mpl@boost@@2_NB DB 01H		; boost::mpl::bool_<1>::value
CONST	ENDS
;	COMDAT ?value@integral_c_tag@mpl@boost@@2HB
CONST	SEGMENT
?value@integral_c_tag@mpl@boost@@2HB DD 00H		; boost::mpl::integral_c_tag::value
CONST	ENDS
_DATA	SEGMENT
__bad_alloc_Message DD FLAT:??_C@_0P@GHFPNOJB@bad?5allocation?$AA@
_DATA	ENDS
;	COMDAT ??_C@_0P@GHFPNOJB@bad?5allocation?$AA@
CONST	SEGMENT
??_C@_0P@GHFPNOJB@bad?5allocation?$AA@ DB 'bad allocation', 00H ; `string'
CONST	ENDS
;	COMDAT ?_Value@?$_Is_swap_move@U_Swap_move_tag@std@@@std@@2_NB
CONST	SEGMENT
?_Value@?$_Is_swap_move@U_Swap_move_tag@std@@@std@@2_NB DB 01H ; std::_Is_swap_move<std::_Swap_move_tag>::_Value
CONST	ENDS
PUBLIC	??0fbdFrame@DRAMsimII@@QAE@_J@Z			; DRAMsimII::fbdFrame::fbdFrame
EXTRN	__RTC_Shutdown:PROC
EXTRN	__RTC_InitBase:PROC
;	COMDAT rtc$TMZ
; File c:\users\crius\documents\visual studio 2008\projects\dramsimiihg\src\fbdframe.cpp
rtc$TMZ	SEGMENT
__RTC_Shutdown.rtc$TMZ DD FLAT:__RTC_Shutdown
rtc$TMZ	ENDS
;	COMDAT rtc$IMZ
rtc$IMZ	SEGMENT
__RTC_InitBase.rtc$IMZ DD FLAT:__RTC_InitBase
; Function compile flags: /Odtp /RTCcsu /ZI
rtc$IMZ	ENDS
;	COMDAT ??0fbdFrame@DRAMsimII@@QAE@_J@Z
_TEXT	SEGMENT
_this$ = -8						; size = 4
_time$ = 8						; size = 8
??0fbdFrame@DRAMsimII@@QAE@_J@Z PROC			; DRAMsimII::fbdFrame::fbdFrame, COMDAT
; _this$ = ecx

; 27   : {

	push	ebp
	mov	ebp, esp
	sub	esp, 204				; 000000ccH
	push	ebx
	push	esi
	push	edi
	push	ecx
	lea	edi, DWORD PTR [ebp-204]
	mov	ecx, 51					; 00000033H
	mov	eax, -858993460				; ccccccccH
	rep stosd
	pop	ecx
	mov	DWORD PTR _this$[ebp], ecx
	mov	eax, DWORD PTR _this$[ebp]
	mov	ecx, DWORD PTR _time$[ebp]
	mov	DWORD PTR [eax+40], ecx
	mov	edx, DWORD PTR _time$[ebp+4]
	mov	DWORD PTR [eax+44], edx

; 28   : 	commandSlotType[0] = commandSlotType[1] = commandSlotType[2] = Command::INVALID_COMMAND;

	mov	eax, DWORD PTR _this$[ebp]
	mov	DWORD PTR [eax+24], 16			; 00000010H
	mov	ecx, DWORD PTR _this$[ebp]
	mov	DWORD PTR [ecx+20], 16			; 00000010H
	mov	edx, DWORD PTR _this$[ebp]
	mov	DWORD PTR [edx+16], 16			; 00000010H

; 29   : }

	mov	eax, DWORD PTR _this$[ebp]
	pop	edi
	pop	esi
	pop	ebx
	mov	esp, ebp
	pop	ebp
	ret	8
??0fbdFrame@DRAMsimII@@QAE@_J@Z ENDP			; DRAMsimII::fbdFrame::fbdFrame
_TEXT	ENDS
PUBLIC	??1fbdFrame@DRAMsimII@@QAE@XZ			; DRAMsimII::fbdFrame::~fbdFrame
; Function compile flags: /Odtp /RTCcsu /ZI
;	COMDAT ??1fbdFrame@DRAMsimII@@QAE@XZ
_TEXT	SEGMENT
_this$ = -8						; size = 4
??1fbdFrame@DRAMsimII@@QAE@XZ PROC			; DRAMsimII::fbdFrame::~fbdFrame, COMDAT
; _this$ = ecx

; 32   : {}

	push	ebp
	mov	ebp, esp
	sub	esp, 204				; 000000ccH
	push	ebx
	push	esi
	push	edi
	push	ecx
	lea	edi, DWORD PTR [ebp-204]
	mov	ecx, 51					; 00000033H
	mov	eax, -858993460				; ccccccccH
	rep stosd
	pop	ecx
	mov	DWORD PTR _this$[ebp], ecx
	pop	edi
	pop	esi
	pop	ebx
	mov	esp, ebp
	pop	ebp
	ret	0
??1fbdFrame@DRAMsimII@@QAE@XZ ENDP			; DRAMsimII::fbdFrame::~fbdFrame
_TEXT	ENDS
PUBLIC	?acquireItem@?$Queue@VfbdFrame@DRAMsimII@@@DRAMsimII@@QAEPAVfbdFrame@2@XZ ; DRAMsimII::Queue<DRAMsimII::fbdFrame>::acquireItem
PUBLIC	??_C@_1DC@EOJGAHP@?$AAs?$AAi?$AAz?$AAe?$AA?5?$AA?$DN?$AA?$DN?$AA?5?$AAs?$AAi?$AAz?$AAe?$AAo?$AAf?$AA?$CI?$AAf?$AAb?$AAd?$AAF?$AAr?$AAa?$AAm?$AAe?$AA?$CJ?$AA?$AA@ ; `string'
PUBLIC	??_C@_1KE@BCNBIPAB@?$AAc?$AA?3?$AA?2?$AAu?$AAs?$AAe?$AAr?$AAs?$AA?2?$AAc?$AAr?$AAi?$AAu?$AAs?$AA?2?$AAd?$AAo?$AAc?$AAu?$AAm?$AAe?$AAn?$AAt?$AAs?$AA?2?$AAv?$AAi?$AAs?$AAu?$AAa?$AAl?$AA?5@ ; `string'
PUBLIC	?__LINE__Var@?1???2fbdFrame@DRAMsimII@@SAPAXI@Z@4JA@5959bd52 ; `DRAMsimII::fbdFrame::operator new'::`2'::__LINE__Var
PUBLIC	??2fbdFrame@DRAMsimII@@SAPAXI@Z			; DRAMsimII::fbdFrame::operator new
EXTRN	__imp___wassert:PROC
EXTRN	__RTC_CheckEsp:PROC
;	COMDAT ??_C@_1DC@EOJGAHP@?$AAs?$AAi?$AAz?$AAe?$AA?5?$AA?$DN?$AA?$DN?$AA?5?$AAs?$AAi?$AAz?$AAe?$AAo?$AAf?$AA?$CI?$AAf?$AAb?$AAd?$AAF?$AAr?$AAa?$AAm?$AAe?$AA?$CJ?$AA?$AA@
CONST	SEGMENT
??_C@_1DC@EOJGAHP@?$AAs?$AAi?$AAz?$AAe?$AA?5?$AA?$DN?$AA?$DN?$AA?5?$AAs?$AAi?$AAz?$AAe?$AAo?$AAf?$AA?$CI?$AAf?$AAb?$AAd?$AAF?$AAr?$AAa?$AAm?$AAe?$AA?$CJ?$AA?$AA@ DB 's'
	DB	00H, 'i', 00H, 'z', 00H, 'e', 00H, ' ', 00H, '=', 00H, '=', 00H
	DB	' ', 00H, 's', 00H, 'i', 00H, 'z', 00H, 'e', 00H, 'o', 00H, 'f'
	DB	00H, '(', 00H, 'f', 00H, 'b', 00H, 'd', 00H, 'F', 00H, 'r', 00H
	DB	'a', 00H, 'm', 00H, 'e', 00H, ')', 00H, 00H, 00H ; `string'
CONST	ENDS
;	COMDAT ??_C@_1KE@BCNBIPAB@?$AAc?$AA?3?$AA?2?$AAu?$AAs?$AAe?$AAr?$AAs?$AA?2?$AAc?$AAr?$AAi?$AAu?$AAs?$AA?2?$AAd?$AAo?$AAc?$AAu?$AAm?$AAe?$AAn?$AAt?$AAs?$AA?2?$AAv?$AAi?$AAs?$AAu?$AAa?$AAl?$AA?5@
CONST	SEGMENT
??_C@_1KE@BCNBIPAB@?$AAc?$AA?3?$AA?2?$AAu?$AAs?$AAe?$AAr?$AAs?$AA?2?$AAc?$AAr?$AAi?$AAu?$AAs?$AA?2?$AAd?$AAo?$AAc?$AAu?$AAm?$AAe?$AAn?$AAt?$AAs?$AA?2?$AAv?$AAi?$AAs?$AAu?$AAa?$AAl?$AA?5@ DB 'c'
	DB	00H, ':', 00H, '\', 00H, 'u', 00H, 's', 00H, 'e', 00H, 'r', 00H
	DB	's', 00H, '\', 00H, 'c', 00H, 'r', 00H, 'i', 00H, 'u', 00H, 's'
	DB	00H, '\', 00H, 'd', 00H, 'o', 00H, 'c', 00H, 'u', 00H, 'm', 00H
	DB	'e', 00H, 'n', 00H, 't', 00H, 's', 00H, '\', 00H, 'v', 00H, 'i'
	DB	00H, 's', 00H, 'u', 00H, 'a', 00H, 'l', 00H, ' ', 00H, 's', 00H
	DB	't', 00H, 'u', 00H, 'd', 00H, 'i', 00H, 'o', 00H, ' ', 00H, '2'
	DB	00H, '0', 00H, '0', 00H, '8', 00H, '\', 00H, 'p', 00H, 'r', 00H
	DB	'o', 00H, 'j', 00H, 'e', 00H, 'c', 00H, 't', 00H, 's', 00H, '\'
	DB	00H, 'd', 00H, 'r', 00H, 'a', 00H, 'm', 00H, 's', 00H, 'i', 00H
	DB	'm', 00H, 'i', 00H, 'i', 00H, 'h', 00H, 'g', 00H, '\', 00H, 's'
	DB	00H, 'r', 00H, 'c', 00H, '\', 00H, 'f', 00H, 'b', 00H, 'd', 00H
	DB	'f', 00H, 'r', 00H, 'a', 00H, 'm', 00H, 'e', 00H, '.', 00H, 'c'
	DB	00H, 'p', 00H, 'p', 00H, 00H, 00H		; `string'
CONST	ENDS
;	COMDAT ?__LINE__Var@?1???2fbdFrame@DRAMsimII@@SAPAXI@Z@4JA@5959bd52
_DATA	SEGMENT
?__LINE__Var@?1???2fbdFrame@DRAMsimII@@SAPAXI@Z@4JA@5959bd52 DD 023H ; `DRAMsimII::fbdFrame::operator new'::`2'::__LINE__Var
; Function compile flags: /Odtp /RTCcsu /ZI
_DATA	ENDS
;	COMDAT ??2fbdFrame@DRAMsimII@@SAPAXI@Z
_TEXT	SEGMENT
_size$ = 8						; size = 4
??2fbdFrame@DRAMsimII@@SAPAXI@Z PROC			; DRAMsimII::fbdFrame::operator new, COMDAT

; 35   : {

	push	ebp
	mov	ebp, esp
	sub	esp, 192				; 000000c0H
	push	ebx
	push	esi
	push	edi
	lea	edi, DWORD PTR [ebp-192]
	mov	ecx, 48					; 00000030H
	mov	eax, -858993460				; ccccccccH
	rep stosd

; 36   : 	assert(size == sizeof(fbdFrame));

	cmp	DWORD PTR _size$[ebp], 48		; 00000030H
	je	SHORT $LN3@operator
	mov	eax, DWORD PTR ?__LINE__Var@?1???2fbdFrame@DRAMsimII@@SAPAXI@Z@4JA@5959bd52
	add	eax, 1
	mov	esi, esp
	push	eax
	push	OFFSET ??_C@_1KE@BCNBIPAB@?$AAc?$AA?3?$AA?2?$AAu?$AAs?$AAe?$AAr?$AAs?$AA?2?$AAc?$AAr?$AAi?$AAu?$AAs?$AA?2?$AAd?$AAo?$AAc?$AAu?$AAm?$AAe?$AAn?$AAt?$AAs?$AA?2?$AAv?$AAi?$AAs?$AAu?$AAa?$AAl?$AA?5@
	push	OFFSET ??_C@_1DC@EOJGAHP@?$AAs?$AAi?$AAz?$AAe?$AA?5?$AA?$DN?$AA?$DN?$AA?5?$AAs?$AAi?$AAz?$AAe?$AAo?$AAf?$AA?$CI?$AAf?$AAb?$AAd?$AAF?$AAr?$AAa?$AAm?$AAe?$AA?$CJ?$AA?$AA@
	call	DWORD PTR __imp___wassert
	add	esp, 12					; 0000000cH
	cmp	esi, esp
	call	__RTC_CheckEsp
$LN3@operator:

; 37   : 	return freeFramePool.acquireItem();

	mov	ecx, OFFSET ?freeFramePool@fbdFrame@DRAMsimII@@0V?$Queue@VfbdFrame@DRAMsimII@@@2@A ; DRAMsimII::fbdFrame::freeFramePool
	call	?acquireItem@?$Queue@VfbdFrame@DRAMsimII@@@DRAMsimII@@QAEPAVfbdFrame@2@XZ ; DRAMsimII::Queue<DRAMsimII::fbdFrame>::acquireItem

; 38   : }

	pop	edi
	pop	esi
	pop	ebx
	add	esp, 192				; 000000c0H
	cmp	ebp, esp
	call	__RTC_CheckEsp
	mov	esp, ebp
	pop	ebp
	ret	0
??2fbdFrame@DRAMsimII@@SAPAXI@Z ENDP			; DRAMsimII::fbdFrame::operator new
_TEXT	ENDS
PUBLIC	?releaseItem@?$Queue@VfbdFrame@DRAMsimII@@@DRAMsimII@@QAEXPAVfbdFrame@2@@Z ; DRAMsimII::Queue<DRAMsimII::fbdFrame>::releaseItem
PUBLIC	??3fbdFrame@DRAMsimII@@SAXPAX@Z			; DRAMsimII::fbdFrame::operator delete
; Function compile flags: /Odtp /RTCcsu /ZI
;	COMDAT ??3fbdFrame@DRAMsimII@@SAXPAX@Z
_TEXT	SEGMENT
_frame$ = -8						; size = 4
_mem$ = 8						; size = 4
??3fbdFrame@DRAMsimII@@SAXPAX@Z PROC			; DRAMsimII::fbdFrame::operator delete, COMDAT

; 41   : {

	push	ebp
	mov	ebp, esp
	sub	esp, 204				; 000000ccH
	push	ebx
	push	esi
	push	edi
	lea	edi, DWORD PTR [ebp-204]
	mov	ecx, 51					; 00000033H
	mov	eax, -858993460				; ccccccccH
	rep stosd

; 42   : 	fbdFrame *frame(static_cast<fbdFrame*>(mem));

	mov	eax, DWORD PTR _mem$[ebp]
	mov	DWORD PTR _frame$[ebp], eax

; 43   : 	freeFramePool.releaseItem(frame);

	mov	eax, DWORD PTR _frame$[ebp]
	push	eax
	mov	ecx, OFFSET ?freeFramePool@fbdFrame@DRAMsimII@@0V?$Queue@VfbdFrame@DRAMsimII@@@2@A ; DRAMsimII::fbdFrame::freeFramePool
	call	?releaseItem@?$Queue@VfbdFrame@DRAMsimII@@@DRAMsimII@@QAEXPAVfbdFrame@2@@Z ; DRAMsimII::Queue<DRAMsimII::fbdFrame>::releaseItem

; 44   : }

	pop	edi
	pop	esi
	pop	ebx
	add	esp, 204				; 000000ccH
	cmp	ebp, esp
	call	__RTC_CheckEsp
	mov	esp, ebp
	pop	ebp
	ret	0
??3fbdFrame@DRAMsimII@@SAXPAX@Z ENDP			; DRAMsimII::fbdFrame::operator delete
_TEXT	ENDS
PUBLIC	??6DRAMsimII@@YAAAV?$basic_ostream@DU?$char_traits@D@std@@@std@@AAV12@ABVfbdFrame@0@@Z ; DRAMsimII::operator<<
; Function compile flags: /Odtp /RTCcsu /ZI
;	COMDAT ??6DRAMsimII@@YAAAV?$basic_ostream@DU?$char_traits@D@std@@@std@@AAV12@ABVfbdFrame@0@@Z
_TEXT	SEGMENT
_os$ = 8						; size = 4
_frame$ = 12						; size = 4
??6DRAMsimII@@YAAAV?$basic_ostream@DU?$char_traits@D@std@@@std@@AAV12@ABVfbdFrame@0@@Z PROC ; DRAMsimII::operator<<, COMDAT

; 47   : {

	push	ebp
	mov	ebp, esp
	sub	esp, 192				; 000000c0H
	push	ebx
	push	esi
	push	edi
	lea	edi, DWORD PTR [ebp-192]
	mov	ecx, 48					; 00000030H
	mov	eax, -858993460				; ccccccccH
	rep stosd

; 48   : 	return os;

	mov	eax, DWORD PTR _os$[ebp]

; 49   : }

	pop	edi
	pop	esi
	pop	ebx
	mov	esp, ebp
	pop	ebp
	ret	0
??6DRAMsimII@@YAAAV?$basic_ostream@DU?$char_traits@D@std@@@std@@AAV12@ABVfbdFrame@0@@Z ENDP ; DRAMsimII::operator<<
_TEXT	ENDS
PUBLIC	??_GfbdFrame@DRAMsimII@@QAEPAXI@Z		; DRAMsimII::fbdFrame::`scalar deleting destructor'
PUBLIC	?push@?$Queue@VfbdFrame@DRAMsimII@@@DRAMsimII@@QAE_NPAVfbdFrame@2@@Z ; DRAMsimII::Queue<DRAMsimII::fbdFrame>::push
PUBLIC	??_C@_1BG@MDOLHBJL@?$AAi?$AAt?$AAe?$AAm?$AA?5?$AA?$CB?$AA?$DN?$AA?5?$AA?$CK?$AAi?$AA?$AA@ ; `string'
PUBLIC	??D?$_Vector_iterator@PAVfbdFrame@DRAMsimII@@V?$allocator@PAVfbdFrame@DRAMsimII@@@std@@@std@@QBEAAPAVfbdFrame@DRAMsimII@@XZ ; std::_Vector_iterator<DRAMsimII::fbdFrame *,std::allocator<DRAMsimII::fbdFrame *> >::operator*
PUBLIC	??9?$_Vector_const_iterator@PAVfbdFrame@DRAMsimII@@V?$allocator@PAVfbdFrame@DRAMsimII@@@std@@@std@@QBE_NABV01@@Z ; std::_Vector_const_iterator<DRAMsimII::fbdFrame *,std::allocator<DRAMsimII::fbdFrame *> >::operator!=
PUBLIC	?end@?$vector@PAVfbdFrame@DRAMsimII@@V?$allocator@PAVfbdFrame@DRAMsimII@@@std@@@std@@QAE?AV?$_Vector_iterator@PAVfbdFrame@DRAMsimII@@V?$allocator@PAVfbdFrame@DRAMsimII@@@std@@@2@XZ ; std::vector<DRAMsimII::fbdFrame *,std::allocator<DRAMsimII::fbdFrame *> >::end
PUBLIC	??1?$_Vector_iterator@PAVfbdFrame@DRAMsimII@@V?$allocator@PAVfbdFrame@DRAMsimII@@@std@@@std@@QAE@XZ ; std::_Vector_iterator<DRAMsimII::fbdFrame *,std::allocator<DRAMsimII::fbdFrame *> >::~_Vector_iterator<DRAMsimII::fbdFrame *,std::allocator<DRAMsimII::fbdFrame *> >
PUBLIC	??E?$_Vector_iterator@PAVfbdFrame@DRAMsimII@@V?$allocator@PAVfbdFrame@DRAMsimII@@@std@@@std@@QAE?AV01@H@Z ; std::_Vector_iterator<DRAMsimII::fbdFrame *,std::allocator<DRAMsimII::fbdFrame *> >::operator++
PUBLIC	?begin@?$vector@PAVfbdFrame@DRAMsimII@@V?$allocator@PAVfbdFrame@DRAMsimII@@@std@@@std@@QAE?AV?$_Vector_iterator@PAVfbdFrame@DRAMsimII@@V?$allocator@PAVfbdFrame@DRAMsimII@@@std@@@2@XZ ; std::vector<DRAMsimII::fbdFrame *,std::allocator<DRAMsimII::fbdFrame *> >::begin
PUBLIC	??_C@_19GLKFFFDC@?$AAp?$AAo?$AAo?$AAl?$AA?$AA@	; `string'
PUBLIC	??_C@_1JK@CBHCFOLP@?$AAc?$AA?3?$AA?2?$AAu?$AAs?$AAe?$AAr?$AAs?$AA?2?$AAc?$AAr?$AAi?$AAu?$AAs?$AA?2?$AAd?$AAo?$AAc?$AAu?$AAm?$AAe?$AAn?$AAt?$AAs?$AA?2?$AAv?$AAi?$AAs?$AAu?$AAa?$AAl?$AA?5@ ; `string'
EXTRN	??3@YAXPAX@Z:PROC				; operator delete
EXTRN	___security_cookie:DWORD
EXTRN	___CxxFrameHandler3:PROC
EXTRN	@__security_check_cookie@4:PROC
EXTRN	@_RTC_CheckStackVars@8:PROC
;	COMDAT ??_C@_1BG@MDOLHBJL@?$AAi?$AAt?$AAe?$AAm?$AA?5?$AA?$CB?$AA?$DN?$AA?5?$AA?$CK?$AAi?$AA?$AA@
; File c:\users\crius\documents\visual studio 2008\projects\dramsimiihg\src\queue.h
CONST	SEGMENT
??_C@_1BG@MDOLHBJL@?$AAi?$AAt?$AAe?$AAm?$AA?5?$AA?$CB?$AA?$DN?$AA?5?$AA?$CK?$AAi?$AA?$AA@ DB 'i'
	DB	00H, 't', 00H, 'e', 00H, 'm', 00H, ' ', 00H, '!', 00H, '=', 00H
	DB	' ', 00H, '*', 00H, 'i', 00H, 00H, 00H	; `string'
CONST	ENDS
;	COMDAT ??_C@_19GLKFFFDC@?$AAp?$AAo?$AAo?$AAl?$AA?$AA@
CONST	SEGMENT
??_C@_19GLKFFFDC@?$AAp?$AAo?$AAo?$AAl?$AA?$AA@ DB 'p', 00H, 'o', 00H, 'o', 00H
	DB	'l', 00H, 00H, 00H				; `string'
CONST	ENDS
;	COMDAT ??_C@_1JK@CBHCFOLP@?$AAc?$AA?3?$AA?2?$AAu?$AAs?$AAe?$AAr?$AAs?$AA?2?$AAc?$AAr?$AAi?$AAu?$AAs?$AA?2?$AAd?$AAo?$AAc?$AAu?$AAm?$AAe?$AAn?$AAt?$AAs?$AA?2?$AAv?$AAi?$AAs?$AAu?$AAa?$AAl?$AA?5@
CONST	SEGMENT
??_C@_1JK@CBHCFOLP@?$AAc?$AA?3?$AA?2?$AAu?$AAs?$AAe?$AAr?$AAs?$AA?2?$AAc?$AAr?$AAi?$AAu?$AAs?$AA?2?$AAd?$AAo?$AAc?$AAu?$AAm?$AAe?$AAn?$AAt?$AAs?$AA?2?$AAv?$AAi?$AAs?$AAu?$AAa?$AAl?$AA?5@ DB 'c'
	DB	00H, ':', 00H, '\', 00H, 'u', 00H, 's', 00H, 'e', 00H, 'r', 00H
	DB	's', 00H, '\', 00H, 'c', 00H, 'r', 00H, 'i', 00H, 'u', 00H, 's'
	DB	00H, '\', 00H, 'd', 00H, 'o', 00H, 'c', 00H, 'u', 00H, 'm', 00H
	DB	'e', 00H, 'n', 00H, 't', 00H, 's', 00H, '\', 00H, 'v', 00H, 'i'
	DB	00H, 's', 00H, 'u', 00H, 'a', 00H, 'l', 00H, ' ', 00H, 's', 00H
	DB	't', 00H, 'u', 00H, 'd', 00H, 'i', 00H, 'o', 00H, ' ', 00H, '2'
	DB	00H, '0', 00H, '0', 00H, '8', 00H, '\', 00H, 'p', 00H, 'r', 00H
	DB	'o', 00H, 'j', 00H, 'e', 00H, 'c', 00H, 't', 00H, 's', 00H, '\'
	DB	00H, 'd', 00H, 'r', 00H, 'a', 00H, 'm', 00H, 's', 00H, 'i', 00H
	DB	'm', 00H, 'i', 00H, 'i', 00H, 'h', 00H, 'g', 00H, '\', 00H, 's'
	DB	00H, 'r', 00H, 'c', 00H, '\', 00H, 'q', 00H, 'u', 00H, 'e', 00H
	DB	'u', 00H, 'e', 00H, '.', 00H, 'h', 00H, 00H, 00H ; `string'
CONST	ENDS
;	COMDAT xdata$x
xdata$x	SEGMENT
__unwindtable$?releaseItem@?$Queue@VfbdFrame@DRAMsimII@@@DRAMsimII@@QAEXPAVfbdFrame@2@@Z DD 0ffffffffH
	DD	FLAT:__unwindfunclet$?releaseItem@?$Queue@VfbdFrame@DRAMsimII@@@DRAMsimII@@QAEXPAVfbdFrame@2@@Z$0
	DD	00H
	DD	FLAT:__unwindfunclet$?releaseItem@?$Queue@VfbdFrame@DRAMsimII@@@DRAMsimII@@QAEXPAVfbdFrame@2@@Z$2
__ehfuncinfo$?releaseItem@?$Queue@VfbdFrame@DRAMsimII@@@DRAMsimII@@QAEXPAVfbdFrame@2@@Z DD 019930522H
	DD	02H
	DD	FLAT:__unwindtable$?releaseItem@?$Queue@VfbdFrame@DRAMsimII@@@DRAMsimII@@QAEXPAVfbdFrame@2@@Z
	DD	2 DUP(00H)
	DD	2 DUP(00H)
	DD	00H
	DD	01H
; Function compile flags: /Odtp /RTCcsu /ZI
xdata$x	ENDS
;	COMDAT ?releaseItem@?$Queue@VfbdFrame@DRAMsimII@@@DRAMsimII@@QAEXPAVfbdFrame@2@@Z
_TEXT	SEGMENT
tv160 = -320						; size = 4
tv155 = -316						; size = 4
tv73 = -316						; size = 4
$T115922 = -308						; size = 12
$T115923 = -285						; size = 1
$T115924 = -276						; size = 12
$T115927 = -256						; size = 4
$T115928 = -244						; size = 4
_i$107922 = -40						; size = 12
_this$ = -20						; size = 4
__$EHRec$ = -12						; size = 12
_item$ = 8						; size = 4
?releaseItem@?$Queue@VfbdFrame@DRAMsimII@@@DRAMsimII@@QAEXPAVfbdFrame@2@@Z PROC ; DRAMsimII::Queue<DRAMsimII::fbdFrame>::releaseItem, COMDAT
; _this$ = ecx

; 266  : 		{

	push	ebp
	mov	ebp, esp
	push	-1
	push	__ehhandler$?releaseItem@?$Queue@VfbdFrame@DRAMsimII@@@DRAMsimII@@QAEXPAVfbdFrame@2@@Z
	mov	eax, DWORD PTR fs:0
	push	eax
	sub	esp, 308				; 00000134H
	push	ebx
	push	esi
	push	edi
	push	ecx
	lea	edi, DWORD PTR [ebp-320]
	mov	ecx, 77					; 0000004dH
	mov	eax, -858993460				; ccccccccH
	rep stosd
	pop	ecx
	mov	eax, DWORD PTR ___security_cookie
	xor	eax, ebp
	push	eax
	lea	eax, DWORD PTR __$EHRec$[ebp]
	mov	DWORD PTR fs:0, eax
	mov	DWORD PTR _this$[ebp], ecx

; 267  : 			assert(pool);

	mov	eax, DWORD PTR _this$[ebp]
	movzx	ecx, BYTE PTR [eax+32]
	test	ecx, ecx
	jne	SHORT $LN7@releaseIte
	mov	esi, esp
	push	267					; 0000010bH
	push	OFFSET ??_C@_1JK@CBHCFOLP@?$AAc?$AA?3?$AA?2?$AAu?$AAs?$AAe?$AAr?$AAs?$AA?2?$AAc?$AAr?$AAi?$AAu?$AAs?$AA?2?$AAd?$AAo?$AAc?$AAu?$AAm?$AAe?$AAn?$AAt?$AAs?$AA?2?$AAv?$AAi?$AAs?$AAu?$AAa?$AAl?$AA?5@
	push	OFFSET ??_C@_19GLKFFFDC@?$AAp?$AAo?$AAo?$AAl?$AA?$AA@
	call	DWORD PTR __imp___wassert
	add	esp, 12					; 0000000cH
	cmp	esi, esp
	call	__RTC_CheckEsp
$LN7@releaseIte:

; 268  : 			//#pragma omp critical
; 269  : 			{
; 270  : 
; 271  : #if 1
; 272  : 				// look around to see if this was already in there, slows things down a lot, so use only when this might be a problem
; 273  : 				for (typename std::vector<T *>::iterator i = entry.begin(); i != entry.end(); i++)

	lea	eax, DWORD PTR _i$107922[ebp]
	push	eax
	mov	ecx, DWORD PTR _this$[ebp]
	add	ecx, 12					; 0000000cH
	call	?begin@?$vector@PAVfbdFrame@DRAMsimII@@V?$allocator@PAVfbdFrame@DRAMsimII@@@std@@@std@@QAE?AV?$_Vector_iterator@PAVfbdFrame@DRAMsimII@@V?$allocator@PAVfbdFrame@DRAMsimII@@@std@@@2@XZ ; std::vector<DRAMsimII::fbdFrame *,std::allocator<DRAMsimII::fbdFrame *> >::begin
	mov	DWORD PTR __$EHRec$[ebp+8], 0
	jmp	SHORT $LN4@releaseIte
$LN3@releaseIte:
	push	0
	lea	eax, DWORD PTR $T115922[ebp]
	push	eax
	lea	ecx, DWORD PTR _i$107922[ebp]
	call	??E?$_Vector_iterator@PAVfbdFrame@DRAMsimII@@V?$allocator@PAVfbdFrame@DRAMsimII@@@std@@@std@@QAE?AV01@H@Z ; std::_Vector_iterator<DRAMsimII::fbdFrame *,std::allocator<DRAMsimII::fbdFrame *> >::operator++
	lea	ecx, DWORD PTR $T115922[ebp]
	call	??1?$_Vector_iterator@PAVfbdFrame@DRAMsimII@@V?$allocator@PAVfbdFrame@DRAMsimII@@@std@@@std@@QAE@XZ
$LN4@releaseIte:
	lea	eax, DWORD PTR $T115924[ebp]
	push	eax
	mov	ecx, DWORD PTR _this$[ebp]
	add	ecx, 12					; 0000000cH
	call	?end@?$vector@PAVfbdFrame@DRAMsimII@@V?$allocator@PAVfbdFrame@DRAMsimII@@@std@@@std@@QAE?AV?$_Vector_iterator@PAVfbdFrame@DRAMsimII@@V?$allocator@PAVfbdFrame@DRAMsimII@@@std@@@2@XZ ; std::vector<DRAMsimII::fbdFrame *,std::allocator<DRAMsimII::fbdFrame *> >::end
	mov	DWORD PTR tv73[ebp], eax
	mov	ecx, DWORD PTR tv73[ebp]
	mov	DWORD PTR tv160[ebp], ecx
	mov	BYTE PTR __$EHRec$[ebp+8], 1
	mov	edx, DWORD PTR tv160[ebp]
	push	edx
	lea	ecx, DWORD PTR _i$107922[ebp]
	call	??9?$_Vector_const_iterator@PAVfbdFrame@DRAMsimII@@V?$allocator@PAVfbdFrame@DRAMsimII@@@std@@@std@@QBE_NABV01@@Z ; std::_Vector_const_iterator<DRAMsimII::fbdFrame *,std::allocator<DRAMsimII::fbdFrame *> >::operator!=
	mov	BYTE PTR $T115923[ebp], al
	mov	BYTE PTR __$EHRec$[ebp+8], 0
	lea	ecx, DWORD PTR $T115924[ebp]
	call	??1?$_Vector_iterator@PAVfbdFrame@DRAMsimII@@V?$allocator@PAVfbdFrame@DRAMsimII@@@std@@@std@@QAE@XZ
	movzx	eax, BYTE PTR $T115923[ebp]
	test	eax, eax
	je	SHORT $LN2@releaseIte

; 274  : 				{
; 275  : 					assert(item != *i);

	lea	ecx, DWORD PTR _i$107922[ebp]
	call	??D?$_Vector_iterator@PAVfbdFrame@DRAMsimII@@V?$allocator@PAVfbdFrame@DRAMsimII@@@std@@@std@@QBEAAPAVfbdFrame@DRAMsimII@@XZ ; std::_Vector_iterator<DRAMsimII::fbdFrame *,std::allocator<DRAMsimII::fbdFrame *> >::operator*
	mov	ecx, DWORD PTR _item$[ebp]
	cmp	ecx, DWORD PTR [eax]
	jne	SHORT $LN8@releaseIte
	mov	esi, esp
	push	275					; 00000113H
	push	OFFSET ??_C@_1JK@CBHCFOLP@?$AAc?$AA?3?$AA?2?$AAu?$AAs?$AAe?$AAr?$AAs?$AA?2?$AAc?$AAr?$AAi?$AAu?$AAs?$AA?2?$AAd?$AAo?$AAc?$AAu?$AAm?$AAe?$AAn?$AAt?$AAs?$AA?2?$AAv?$AAi?$AAs?$AAu?$AAa?$AAl?$AA?5@
	push	OFFSET ??_C@_1BG@MDOLHBJL@?$AAi?$AAt?$AAe?$AAm?$AA?5?$AA?$CB?$AA?$DN?$AA?5?$AA?$CK?$AAi?$AA?$AA@
	call	DWORD PTR __imp___wassert
	add	esp, 12					; 0000000cH
	cmp	esi, esp
	call	__RTC_CheckEsp
$LN8@releaseIte:

; 276  : 				}

	jmp	$LN3@releaseIte
$LN2@releaseIte:
	mov	DWORD PTR __$EHRec$[ebp+8], -1
	lea	ecx, DWORD PTR _i$107922[ebp]
	call	??1?$_Vector_iterator@PAVfbdFrame@DRAMsimII@@V?$allocator@PAVfbdFrame@DRAMsimII@@@std@@@std@@QAE@XZ

; 277  : #endif
; 278  : 				assert(pool);

	mov	eax, DWORD PTR _this$[ebp]
	movzx	ecx, BYTE PTR [eax+32]
	test	ecx, ecx
	jne	SHORT $LN9@releaseIte
	mov	esi, esp
	push	278					; 00000116H
	push	OFFSET ??_C@_1JK@CBHCFOLP@?$AAc?$AA?3?$AA?2?$AAu?$AAs?$AAe?$AAr?$AAs?$AA?2?$AAc?$AAr?$AAi?$AAu?$AAs?$AA?2?$AAd?$AAo?$AAc?$AAu?$AAm?$AAe?$AAn?$AAt?$AAs?$AA?2?$AAv?$AAi?$AAs?$AAu?$AAa?$AAl?$AA?5@
	push	OFFSET ??_C@_19GLKFFFDC@?$AAp?$AAo?$AAo?$AAl?$AA?$AA@
	call	DWORD PTR __imp___wassert
	add	esp, 12					; 0000000cH
	cmp	esi, esp
	call	__RTC_CheckEsp
$LN9@releaseIte:

; 279  : 				if (!push(item))

	mov	eax, DWORD PTR _item$[ebp]
	push	eax
	mov	ecx, DWORD PTR _this$[ebp]
	call	?push@?$Queue@VfbdFrame@DRAMsimII@@@DRAMsimII@@QAE_NPAVfbdFrame@2@@Z ; DRAMsimII::Queue<DRAMsimII::fbdFrame>::push
	movzx	ecx, al
	test	ecx, ecx
	jne	SHORT $LN5@releaseIte

; 280  : 				{
; 281  : 					::delete item;

	mov	eax, DWORD PTR _item$[ebp]
	mov	DWORD PTR $T115928[ebp], eax
	mov	ecx, DWORD PTR $T115928[ebp]
	mov	DWORD PTR $T115927[ebp], ecx
	cmp	DWORD PTR $T115927[ebp], 0
	je	SHORT $LN10@releaseIte
	push	0
	mov	ecx, DWORD PTR $T115927[ebp]
	call	??_GfbdFrame@DRAMsimII@@QAEPAXI@Z
	mov	DWORD PTR tv155[ebp], eax
	jmp	SHORT $LN11@releaseIte
$LN10@releaseIte:
	mov	DWORD PTR tv155[ebp], 0
$LN11@releaseIte:
	mov	edx, DWORD PTR tv155[ebp]
	push	edx
	call	??3@YAXPAX@Z				; operator delete
	add	esp, 4

; 282  : 					item = NULL;

	mov	DWORD PTR _item$[ebp], 0
$LN5@releaseIte:

; 283  : 				}
; 284  : 			}
; 285  : 		}

	push	edx
	mov	ecx, ebp
	push	eax
	lea	edx, DWORD PTR $LN18@releaseIte
	call	@_RTC_CheckStackVars@8
	pop	eax
	pop	edx
	mov	ecx, DWORD PTR __$EHRec$[ebp]
	mov	DWORD PTR fs:0, ecx
	pop	ecx
	pop	edi
	pop	esi
	pop	ebx
	add	esp, 320				; 00000140H
	cmp	ebp, esp
	call	__RTC_CheckEsp
	mov	esp, ebp
	pop	ebp
	ret	4
	npad	3
$LN18@releaseIte:
	DD	1
	DD	$LN17@releaseIte
$LN17@releaseIte:
	DD	-40					; ffffffd8H
	DD	12					; 0000000cH
	DD	$LN15@releaseIte
$LN15@releaseIte:
	DB	105					; 00000069H
	DB	0
_TEXT	ENDS
;	COMDAT text$x
text$x	SEGMENT
__unwindfunclet$?releaseItem@?$Queue@VfbdFrame@DRAMsimII@@@DRAMsimII@@QAEXPAVfbdFrame@2@@Z$0:
	lea	ecx, DWORD PTR _i$107922[ebp]
	jmp	??1?$_Vector_iterator@PAVfbdFrame@DRAMsimII@@V?$allocator@PAVfbdFrame@DRAMsimII@@@std@@@std@@QAE@XZ
__unwindfunclet$?releaseItem@?$Queue@VfbdFrame@DRAMsimII@@@DRAMsimII@@QAEXPAVfbdFrame@2@@Z$2:
	lea	ecx, DWORD PTR $T115924[ebp]
	jmp	??1?$_Vector_iterator@PAVfbdFrame@DRAMsimII@@V?$allocator@PAVfbdFrame@DRAMsimII@@@std@@@std@@QAE@XZ
__ehhandler$?releaseItem@?$Queue@VfbdFrame@DRAMsimII@@@DRAMsimII@@QAEXPAVfbdFrame@2@@Z:
	mov	edx, DWORD PTR [esp+8]
	lea	eax, DWORD PTR [edx+12]
	mov	ecx, DWORD PTR [edx-324]
	xor	ecx, eax
	call	@__security_check_cookie@4
	mov	eax, OFFSET __ehfuncinfo$?releaseItem@?$Queue@VfbdFrame@DRAMsimII@@@DRAMsimII@@QAEXPAVfbdFrame@2@@Z
	jmp	___CxxFrameHandler3
text$x	ENDS
?releaseItem@?$Queue@VfbdFrame@DRAMsimII@@@DRAMsimII@@QAEXPAVfbdFrame@2@@Z ENDP ; DRAMsimII::Queue<DRAMsimII::fbdFrame>::releaseItem
PUBLIC	?pop@?$Queue@VfbdFrame@DRAMsimII@@@DRAMsimII@@QAEPAVfbdFrame@2@XZ ; DRAMsimII::Queue<DRAMsimII::fbdFrame>::pop
PUBLIC	??_C@_1CA@IPHACLHA@?$AAn?$AAe?$AAw?$AAI?$AAt?$AAe?$AAm?$AA?5?$AA?$CB?$AA?$DN?$AA?5?$AAN?$AAU?$AAL?$AAL?$AA?$AA@ ; `string'
EXTRN	??2@YAPAXI@Z:PROC				; operator new
;	COMDAT ??_C@_1CA@IPHACLHA@?$AAn?$AAe?$AAw?$AAI?$AAt?$AAe?$AAm?$AA?5?$AA?$CB?$AA?$DN?$AA?5?$AAN?$AAU?$AAL?$AAL?$AA?$AA@
CONST	SEGMENT
??_C@_1CA@IPHACLHA@?$AAn?$AAe?$AAw?$AAI?$AAt?$AAe?$AAm?$AA?5?$AA?$CB?$AA?$DN?$AA?5?$AAN?$AAU?$AAL?$AAL?$AA?$AA@ DB 'n'
	DB	00H, 'e', 00H, 'w', 00H, 'I', 00H, 't', 00H, 'e', 00H, 'm', 00H
	DB	' ', 00H, '!', 00H, '=', 00H, ' ', 00H, 'N', 00H, 'U', 00H, 'L'
	DB	00H, 'L', 00H, 00H, 00H			; `string'
CONST	ENDS
;	COMDAT xdata$x
xdata$x	SEGMENT
__unwindtable$?acquireItem@?$Queue@VfbdFrame@DRAMsimII@@@DRAMsimII@@QAEPAVfbdFrame@2@XZ DD 0ffffffffH
	DD	FLAT:__unwindfunclet$?acquireItem@?$Queue@VfbdFrame@DRAMsimII@@@DRAMsimII@@QAEPAVfbdFrame@2@XZ$0
__ehfuncinfo$?acquireItem@?$Queue@VfbdFrame@DRAMsimII@@@DRAMsimII@@QAEPAVfbdFrame@2@XZ DD 019930522H
	DD	01H
	DD	FLAT:__unwindtable$?acquireItem@?$Queue@VfbdFrame@DRAMsimII@@@DRAMsimII@@QAEPAVfbdFrame@2@XZ
	DD	2 DUP(00H)
	DD	2 DUP(00H)
	DD	00H
	DD	01H
; Function compile flags: /Odtp /RTCcsu /ZI
xdata$x	ENDS
;	COMDAT ?acquireItem@?$Queue@VfbdFrame@DRAMsimII@@@DRAMsimII@@QAEPAVfbdFrame@2@XZ
_TEXT	SEGMENT
tv80 = -256						; size = 4
$T115952 = -248						; size = 4
$T115953 = -236						; size = 4
_newItem$ = -32						; size = 4
_this$ = -20						; size = 4
__$EHRec$ = -12						; size = 12
?acquireItem@?$Queue@VfbdFrame@DRAMsimII@@@DRAMsimII@@QAEPAVfbdFrame@2@XZ PROC ; DRAMsimII::Queue<DRAMsimII::fbdFrame>::acquireItem, COMDAT
; _this$ = ecx

; 291  : 		{

	push	ebp
	mov	ebp, esp
	push	-1
	push	__ehhandler$?acquireItem@?$Queue@VfbdFrame@DRAMsimII@@@DRAMsimII@@QAEPAVfbdFrame@2@XZ
	mov	eax, DWORD PTR fs:0
	push	eax
	sub	esp, 244				; 000000f4H
	push	ebx
	push	esi
	push	edi
	push	ecx
	lea	edi, DWORD PTR [ebp-256]
	mov	ecx, 61					; 0000003dH
	mov	eax, -858993460				; ccccccccH
	rep stosd
	pop	ecx
	mov	eax, DWORD PTR ___security_cookie
	xor	eax, ebp
	push	eax
	lea	eax, DWORD PTR __$EHRec$[ebp]
	mov	DWORD PTR fs:0, eax
	mov	DWORD PTR _this$[ebp], ecx

; 292  : 			assert(pool);

	mov	eax, DWORD PTR _this$[ebp]
	movzx	ecx, BYTE PTR [eax+32]
	test	ecx, ecx
	jne	SHORT $LN5@acquireIte
	mov	esi, esp
	push	292					; 00000124H
	push	OFFSET ??_C@_1JK@CBHCFOLP@?$AAc?$AA?3?$AA?2?$AAu?$AAs?$AAe?$AAr?$AAs?$AA?2?$AAc?$AAr?$AAi?$AAu?$AAs?$AA?2?$AAd?$AAo?$AAc?$AAu?$AAm?$AAe?$AAn?$AAt?$AAs?$AA?2?$AAv?$AAi?$AAs?$AAu?$AAa?$AAl?$AA?5@
	push	OFFSET ??_C@_19GLKFFFDC@?$AAp?$AAo?$AAo?$AAl?$AA?$AA@
	call	DWORD PTR __imp___wassert
	add	esp, 12					; 0000000cH
	cmp	esi, esp
	call	__RTC_CheckEsp
$LN5@acquireIte:

; 293  : 			T* newItem;
; 294  : 			//#pragma omp critical
; 295  : 			{
; 296  : 				if (count == 0)

	mov	eax, DWORD PTR _this$[ebp]
	cmp	DWORD PTR [eax], 0
	jne	$LN2@acquireIte

; 297  : 				{
; 298  : 					newItem = ::new T;

	push	48					; 00000030H
	call	??2@YAPAXI@Z				; operator new
	add	esp, 4
	mov	DWORD PTR $T115953[ebp], eax
	mov	DWORD PTR __$EHRec$[ebp+8], 0
	cmp	DWORD PTR $T115953[ebp], 0
	je	SHORT $LN6@acquireIte
	push	0
	push	0
	mov	ecx, DWORD PTR $T115953[ebp]
	call	??0fbdFrame@DRAMsimII@@QAE@_J@Z		; DRAMsimII::fbdFrame::fbdFrame
	mov	DWORD PTR tv80[ebp], eax
	jmp	SHORT $LN7@acquireIte
$LN6@acquireIte:
	mov	DWORD PTR tv80[ebp], 0
$LN7@acquireIte:
	mov	eax, DWORD PTR tv80[ebp]
	mov	DWORD PTR $T115952[ebp], eax
	mov	DWORD PTR __$EHRec$[ebp+8], -1
	mov	ecx, DWORD PTR $T115952[ebp]
	mov	DWORD PTR _newItem$[ebp], ecx

; 299  : 					assert(newItem != NULL);

	cmp	DWORD PTR _newItem$[ebp], 0
	jne	SHORT $LN8@acquireIte
	mov	esi, esp
	push	299					; 0000012bH
	push	OFFSET ??_C@_1JK@CBHCFOLP@?$AAc?$AA?3?$AA?2?$AAu?$AAs?$AAe?$AAr?$AAs?$AA?2?$AAc?$AAr?$AAi?$AAu?$AAs?$AA?2?$AAd?$AAo?$AAc?$AAu?$AAm?$AAe?$AAn?$AAt?$AAs?$AA?2?$AAv?$AAi?$AAs?$AAu?$AAa?$AAl?$AA?5@
	push	OFFSET ??_C@_1CA@IPHACLHA@?$AAn?$AAe?$AAw?$AAI?$AAt?$AAe?$AAm?$AA?5?$AA?$CB?$AA?$DN?$AA?5?$AAN?$AAU?$AAL?$AAL?$AA?$AA@
	call	DWORD PTR __imp___wassert
	add	esp, 12					; 0000000cH
	cmp	esi, esp
	call	__RTC_CheckEsp
$LN8@acquireIte:

; 300  : 				}
; 301  : 				else

	jmp	SHORT $LN1@acquireIte
$LN2@acquireIte:

; 302  : 					newItem = pop();

	mov	ecx, DWORD PTR _this$[ebp]
	call	?pop@?$Queue@VfbdFrame@DRAMsimII@@@DRAMsimII@@QAEPAVfbdFrame@2@XZ ; DRAMsimII::Queue<DRAMsimII::fbdFrame>::pop
	mov	DWORD PTR _newItem$[ebp], eax
$LN1@acquireIte:

; 303  : 			}
; 304  : 			return newItem;

	mov	eax, DWORD PTR _newItem$[ebp]

; 305  : 		}

	mov	ecx, DWORD PTR __$EHRec$[ebp]
	mov	DWORD PTR fs:0, ecx
	pop	ecx
	pop	edi
	pop	esi
	pop	ebx
	add	esp, 256				; 00000100H
	cmp	ebp, esp
	call	__RTC_CheckEsp
	mov	esp, ebp
	pop	ebp
	ret	0
_TEXT	ENDS
;	COMDAT text$x
text$x	SEGMENT
__unwindfunclet$?acquireItem@?$Queue@VfbdFrame@DRAMsimII@@@DRAMsimII@@QAEPAVfbdFrame@2@XZ$0:
	mov	eax, DWORD PTR $T115953[ebp]
	push	eax
	call	??3@YAXPAX@Z				; operator delete
	pop	ecx
	ret	0
__ehhandler$?acquireItem@?$Queue@VfbdFrame@DRAMsimII@@@DRAMsimII@@QAEPAVfbdFrame@2@XZ:
	mov	edx, DWORD PTR [esp+8]
	lea	eax, DWORD PTR [edx+12]
	mov	ecx, DWORD PTR [edx-260]
	xor	ecx, eax
	call	@__security_check_cookie@4
	mov	eax, OFFSET __ehfuncinfo$?acquireItem@?$Queue@VfbdFrame@DRAMsimII@@@DRAMsimII@@QAEPAVfbdFrame@2@XZ
	jmp	___CxxFrameHandler3
text$x	ENDS
?acquireItem@?$Queue@VfbdFrame@DRAMsimII@@@DRAMsimII@@QAEPAVfbdFrame@2@XZ ENDP ; DRAMsimII::Queue<DRAMsimII::fbdFrame>::acquireItem
; Function compile flags: /Odtp /RTCcsu /ZI
;	COMDAT ??_GfbdFrame@DRAMsimII@@QAEPAXI@Z
_TEXT	SEGMENT
_this$ = -8						; size = 4
___flags$ = 8						; size = 4
??_GfbdFrame@DRAMsimII@@QAEPAXI@Z PROC			; DRAMsimII::fbdFrame::`scalar deleting destructor', COMDAT
; _this$ = ecx
	push	ebp
	mov	ebp, esp
	sub	esp, 204				; 000000ccH
	push	ebx
	push	esi
	push	edi
	push	ecx
	lea	edi, DWORD PTR [ebp-204]
	mov	ecx, 51					; 00000033H
	mov	eax, -858993460				; ccccccccH
	rep stosd
	pop	ecx
	mov	DWORD PTR _this$[ebp], ecx
	mov	ecx, DWORD PTR _this$[ebp]
	call	??1fbdFrame@DRAMsimII@@QAE@XZ		; DRAMsimII::fbdFrame::~fbdFrame
	mov	eax, DWORD PTR ___flags$[ebp]
	and	eax, 1
	je	SHORT $LN1@scalar
	mov	eax, DWORD PTR _this$[ebp]
	push	eax
	call	??3fbdFrame@DRAMsimII@@SAXPAX@Z		; DRAMsimII::fbdFrame::operator delete
	add	esp, 4
$LN1@scalar:
	mov	eax, DWORD PTR _this$[ebp]
	pop	edi
	pop	esi
	pop	ebx
	add	esp, 204				; 000000ccH
	cmp	ebp, esp
	call	__RTC_CheckEsp
	mov	esp, ebp
	pop	ebp
	ret	4
??_GfbdFrame@DRAMsimII@@QAEPAXI@Z ENDP			; DRAMsimII::fbdFrame::`scalar deleting destructor'
_TEXT	ENDS
PUBLIC	??1?$_Vector_const_iterator@PAVfbdFrame@DRAMsimII@@V?$allocator@PAVfbdFrame@DRAMsimII@@@std@@@std@@QAE@XZ ; std::_Vector_const_iterator<DRAMsimII::fbdFrame *,std::allocator<DRAMsimII::fbdFrame *> >::~_Vector_const_iterator<DRAMsimII::fbdFrame *,std::allocator<DRAMsimII::fbdFrame *> >
; Function compile flags: /Odtp /RTCcsu /ZI
;	COMDAT ??1?$_Vector_iterator@PAVfbdFrame@DRAMsimII@@V?$allocator@PAVfbdFrame@DRAMsimII@@@std@@@std@@QAE@XZ
_TEXT	SEGMENT
_this$ = -8						; size = 4
??1?$_Vector_iterator@PAVfbdFrame@DRAMsimII@@V?$allocator@PAVfbdFrame@DRAMsimII@@@std@@@std@@QAE@XZ PROC ; std::_Vector_iterator<DRAMsimII::fbdFrame *,std::allocator<DRAMsimII::fbdFrame *> >::~_Vector_iterator<DRAMsimII::fbdFrame *,std::allocator<DRAMsimII::fbdFrame *> >, COMDAT
; _this$ = ecx
	push	ebp
	mov	ebp, esp
	sub	esp, 204				; 000000ccH
	push	ebx
	push	esi
	push	edi
	push	ecx
	lea	edi, DWORD PTR [ebp-204]
	mov	ecx, 51					; 00000033H
	mov	eax, -858993460				; ccccccccH
	rep stosd
	pop	ecx
	mov	DWORD PTR _this$[ebp], ecx
	mov	ecx, DWORD PTR _this$[ebp]
	call	??1?$_Vector_const_iterator@PAVfbdFrame@DRAMsimII@@V?$allocator@PAVfbdFrame@DRAMsimII@@@std@@@std@@QAE@XZ
	pop	edi
	pop	esi
	pop	ebx
	add	esp, 204				; 000000ccH
	cmp	ebp, esp
	call	__RTC_CheckEsp
	mov	esp, ebp
	pop	ebp
	ret	0
??1?$_Vector_iterator@PAVfbdFrame@DRAMsimII@@V?$allocator@PAVfbdFrame@DRAMsimII@@@std@@@std@@QAE@XZ ENDP ; std::_Vector_iterator<DRAMsimII::fbdFrame *,std::allocator<DRAMsimII::fbdFrame *> >::~_Vector_iterator<DRAMsimII::fbdFrame *,std::allocator<DRAMsimII::fbdFrame *> >
_TEXT	ENDS
PUBLIC	??1?$_Ranit@PAVfbdFrame@DRAMsimII@@HPBQAV12@ABQAV12@@std@@QAE@XZ ; std::_Ranit<DRAMsimII::fbdFrame *,int,DRAMsimII::fbdFrame * const *,DRAMsimII::fbdFrame * const &>::~_Ranit<DRAMsimII::fbdFrame *,int,DRAMsimII::fbdFrame * const *,DRAMsimII::fbdFrame * const &>
; Function compile flags: /Odtp /RTCcsu /ZI
;	COMDAT ??1?$_Vector_const_iterator@PAVfbdFrame@DRAMsimII@@V?$allocator@PAVfbdFrame@DRAMsimII@@@std@@@std@@QAE@XZ
_TEXT	SEGMENT
_this$ = -8						; size = 4
??1?$_Vector_const_iterator@PAVfbdFrame@DRAMsimII@@V?$allocator@PAVfbdFrame@DRAMsimII@@@std@@@std@@QAE@XZ PROC ; std::_Vector_const_iterator<DRAMsimII::fbdFrame *,std::allocator<DRAMsimII::fbdFrame *> >::~_Vector_const_iterator<DRAMsimII::fbdFrame *,std::allocator<DRAMsimII::fbdFrame *> >, COMDAT
; _this$ = ecx
	push	ebp
	mov	ebp, esp
	sub	esp, 204				; 000000ccH
	push	ebx
	push	esi
	push	edi
	push	ecx
	lea	edi, DWORD PTR [ebp-204]
	mov	ecx, 51					; 00000033H
	mov	eax, -858993460				; ccccccccH
	rep stosd
	pop	ecx
	mov	DWORD PTR _this$[ebp], ecx
	mov	ecx, DWORD PTR _this$[ebp]
	call	??1?$_Ranit@PAVfbdFrame@DRAMsimII@@HPBQAV12@ABQAV12@@std@@QAE@XZ
	pop	edi
	pop	esi
	pop	ebx
	add	esp, 204				; 000000ccH
	cmp	ebp, esp
	call	__RTC_CheckEsp
	mov	esp, ebp
	pop	ebp
	ret	0
??1?$_Vector_const_iterator@PAVfbdFrame@DRAMsimII@@V?$allocator@PAVfbdFrame@DRAMsimII@@@std@@@std@@QAE@XZ ENDP ; std::_Vector_const_iterator<DRAMsimII::fbdFrame *,std::allocator<DRAMsimII::fbdFrame *> >::~_Vector_const_iterator<DRAMsimII::fbdFrame *,std::allocator<DRAMsimII::fbdFrame *> >
_TEXT	ENDS
PUBLIC	??1?$_Iterator_with_base@Urandom_access_iterator_tag@std@@PAVfbdFrame@DRAMsimII@@HPBQAV34@ABQAV34@V_Iterator_base@2@@std@@QAE@XZ ; std::_Iterator_with_base<std::random_access_iterator_tag,DRAMsimII::fbdFrame *,int,DRAMsimII::fbdFrame * const *,DRAMsimII::fbdFrame * const &,std::_Iterator_base>::~_Iterator_with_base<std::random_access_iterator_tag,DRAMsimII::fbdFrame *,int,DRAMsimII::fbdFrame * const *,DRAMsimII::fbdFrame * const &,std::_Iterator_base>
; Function compile flags: /Odtp /RTCcsu /ZI
;	COMDAT ??1?$_Ranit@PAVfbdFrame@DRAMsimII@@HPBQAV12@ABQAV12@@std@@QAE@XZ
_TEXT	SEGMENT
_this$ = -8						; size = 4
??1?$_Ranit@PAVfbdFrame@DRAMsimII@@HPBQAV12@ABQAV12@@std@@QAE@XZ PROC ; std::_Ranit<DRAMsimII::fbdFrame *,int,DRAMsimII::fbdFrame * const *,DRAMsimII::fbdFrame * const &>::~_Ranit<DRAMsimII::fbdFrame *,int,DRAMsimII::fbdFrame * const *,DRAMsimII::fbdFrame * const &>, COMDAT
; _this$ = ecx
	push	ebp
	mov	ebp, esp
	sub	esp, 204				; 000000ccH
	push	ebx
	push	esi
	push	edi
	push	ecx
	lea	edi, DWORD PTR [ebp-204]
	mov	ecx, 51					; 00000033H
	mov	eax, -858993460				; ccccccccH
	rep stosd
	pop	ecx
	mov	DWORD PTR _this$[ebp], ecx
	mov	ecx, DWORD PTR _this$[ebp]
	call	??1?$_Iterator_with_base@Urandom_access_iterator_tag@std@@PAVfbdFrame@DRAMsimII@@HPBQAV34@ABQAV34@V_Iterator_base@2@@std@@QAE@XZ
	pop	edi
	pop	esi
	pop	ebx
	add	esp, 204				; 000000ccH
	cmp	ebp, esp
	call	__RTC_CheckEsp
	mov	esp, ebp
	pop	ebp
	ret	0
??1?$_Ranit@PAVfbdFrame@DRAMsimII@@HPBQAV12@ABQAV12@@std@@QAE@XZ ENDP ; std::_Ranit<DRAMsimII::fbdFrame *,int,DRAMsimII::fbdFrame * const *,DRAMsimII::fbdFrame * const &>::~_Ranit<DRAMsimII::fbdFrame *,int,DRAMsimII::fbdFrame * const *,DRAMsimII::fbdFrame * const &>
_TEXT	ENDS
PUBLIC	??1_Iterator_base@std@@QAE@XZ			; std::_Iterator_base::~_Iterator_base
; Function compile flags: /Odtp /RTCcsu /ZI
;	COMDAT ??1?$_Iterator_with_base@Urandom_access_iterator_tag@std@@PAVfbdFrame@DRAMsimII@@HPBQAV34@ABQAV34@V_Iterator_base@2@@std@@QAE@XZ
_TEXT	SEGMENT
_this$ = -8						; size = 4
??1?$_Iterator_with_base@Urandom_access_iterator_tag@std@@PAVfbdFrame@DRAMsimII@@HPBQAV34@ABQAV34@V_Iterator_base@2@@std@@QAE@XZ PROC ; std::_Iterator_with_base<std::random_access_iterator_tag,DRAMsimII::fbdFrame *,int,DRAMsimII::fbdFrame * const *,DRAMsimII::fbdFrame * const &,std::_Iterator_base>::~_Iterator_with_base<std::random_access_iterator_tag,DRAMsimII::fbdFrame *,int,DRAMsimII::fbdFrame * const *,DRAMsimII::fbdFrame * const &,std::_Iterator_base>, COMDAT
; _this$ = ecx
	push	ebp
	mov	ebp, esp
	sub	esp, 204				; 000000ccH
	push	ebx
	push	esi
	push	edi
	push	ecx
	lea	edi, DWORD PTR [ebp-204]
	mov	ecx, 51					; 00000033H
	mov	eax, -858993460				; ccccccccH
	rep stosd
	pop	ecx
	mov	DWORD PTR _this$[ebp], ecx
	mov	ecx, DWORD PTR _this$[ebp]
	call	??1_Iterator_base@std@@QAE@XZ		; std::_Iterator_base::~_Iterator_base
	pop	edi
	pop	esi
	pop	ebx
	add	esp, 204				; 000000ccH
	cmp	ebp, esp
	call	__RTC_CheckEsp
	mov	esp, ebp
	pop	ebp
	ret	0
??1?$_Iterator_with_base@Urandom_access_iterator_tag@std@@PAVfbdFrame@DRAMsimII@@HPBQAV34@ABQAV34@V_Iterator_base@2@@std@@QAE@XZ ENDP ; std::_Iterator_with_base<std::random_access_iterator_tag,DRAMsimII::fbdFrame *,int,DRAMsimII::fbdFrame * const *,DRAMsimII::fbdFrame * const &,std::_Iterator_base>::~_Iterator_with_base<std::random_access_iterator_tag,DRAMsimII::fbdFrame *,int,DRAMsimII::fbdFrame * const *,DRAMsimII::fbdFrame * const &,std::_Iterator_base>
_TEXT	ENDS
PUBLIC	?_Orphan_me@_Iterator_base@std@@QAEXXZ		; std::_Iterator_base::_Orphan_me
EXTRN	__imp_??1_Lockit@std@@QAE@XZ:PROC
EXTRN	__imp_??0_Lockit@std@@QAE@H@Z:PROC
;	COMDAT xdata$x
; File c:\program files\microsoft visual studio 9.0\vc\include\xutility
xdata$x	SEGMENT
__unwindtable$??1_Iterator_base@std@@QAE@XZ DD 0ffffffffH
	DD	FLAT:__unwindfunclet$??1_Iterator_base@std@@QAE@XZ$0
__ehfuncinfo$??1_Iterator_base@std@@QAE@XZ DD 019930522H
	DD	01H
	DD	FLAT:__unwindtable$??1_Iterator_base@std@@QAE@XZ
	DD	2 DUP(00H)
	DD	2 DUP(00H)
	DD	00H
	DD	01H
; Function compile flags: /Odtp /RTCcsu /ZI
xdata$x	ENDS
;	COMDAT ??1_Iterator_base@std@@QAE@XZ
_TEXT	SEGMENT
__Lock$ = -32						; size = 4
_this$ = -20						; size = 4
__$EHRec$ = -12						; size = 12
??1_Iterator_base@std@@QAE@XZ PROC			; std::_Iterator_base::~_Iterator_base, COMDAT
; _this$ = ecx

; 159  : 		{	// destroy the iterator

	push	ebp
	mov	ebp, esp
	push	-1
	push	__ehhandler$??1_Iterator_base@std@@QAE@XZ
	mov	eax, DWORD PTR fs:0
	push	eax
	sub	esp, 216				; 000000d8H
	push	ebx
	push	esi
	push	edi
	push	ecx
	lea	edi, DWORD PTR [ebp-228]
	mov	ecx, 54					; 00000036H
	mov	eax, -858993460				; ccccccccH
	rep stosd
	pop	ecx
	mov	eax, DWORD PTR ___security_cookie
	xor	eax, ebp
	push	eax
	lea	eax, DWORD PTR __$EHRec$[ebp]
	mov	DWORD PTR fs:0, eax
	mov	DWORD PTR _this$[ebp], ecx

; 160  : 		_Lockit _Lock(_LOCK_DEBUG);

	mov	esi, esp
	push	3
	lea	ecx, DWORD PTR __Lock$[ebp]
	call	DWORD PTR __imp_??0_Lockit@std@@QAE@H@Z
	cmp	esi, esp
	call	__RTC_CheckEsp
	mov	DWORD PTR __$EHRec$[ebp+8], 0

; 161  : 		_Orphan_me();

	mov	ecx, DWORD PTR _this$[ebp]
	call	?_Orphan_me@_Iterator_base@std@@QAEXXZ	; std::_Iterator_base::_Orphan_me

; 162  : 		}

	mov	DWORD PTR __$EHRec$[ebp+8], -1
	mov	esi, esp
	lea	ecx, DWORD PTR __Lock$[ebp]
	call	DWORD PTR __imp_??1_Lockit@std@@QAE@XZ
	cmp	esi, esp
	call	__RTC_CheckEsp
	push	edx
	mov	ecx, ebp
	push	eax
	lea	edx, DWORD PTR $LN7@Iterator_b
	call	@_RTC_CheckStackVars@8
	pop	eax
	pop	edx
	mov	ecx, DWORD PTR __$EHRec$[ebp]
	mov	DWORD PTR fs:0, ecx
	pop	ecx
	pop	edi
	pop	esi
	pop	ebx
	add	esp, 228				; 000000e4H
	cmp	ebp, esp
	call	__RTC_CheckEsp
	mov	esp, ebp
	pop	ebp
	ret	0
	npad	2
$LN7@Iterator_b:
	DD	1
	DD	$LN6@Iterator_b
$LN6@Iterator_b:
	DD	-32					; ffffffe0H
	DD	4
	DD	$LN4@Iterator_b
$LN4@Iterator_b:
	DB	95					; 0000005fH
	DB	76					; 0000004cH
	DB	111					; 0000006fH
	DB	99					; 00000063H
	DB	107					; 0000006bH
	DB	0
_TEXT	ENDS
;	COMDAT text$x
text$x	SEGMENT
__unwindfunclet$??1_Iterator_base@std@@QAE@XZ$0:
	mov	esi, esp
	lea	ecx, DWORD PTR __Lock$[ebp]
	call	DWORD PTR __imp_??1_Lockit@std@@QAE@XZ
	cmp	esi, esp
	jmp	__RTC_CheckEsp
__ehhandler$??1_Iterator_base@std@@QAE@XZ:
	mov	edx, DWORD PTR [esp+8]
	lea	eax, DWORD PTR [edx+12]
	mov	ecx, DWORD PTR [edx-232]
	xor	ecx, eax
	call	@__security_check_cookie@4
	mov	eax, OFFSET __ehfuncinfo$??1_Iterator_base@std@@QAE@XZ
	jmp	___CxxFrameHandler3
text$x	ENDS
??1_Iterator_base@std@@QAE@XZ ENDP			; std::_Iterator_base::~_Iterator_base
PUBLIC	??_C@_1DC@POOIKBAO@?$AAI?$AAT?$AAE?$AAR?$AAA?$AAT?$AAO?$AAR?$AA?5?$AAL?$AAI?$AAS?$AAT?$AA?5?$AAC?$AAO?$AAR?$AAR?$AAU?$AAP?$AAT?$AAE?$AAD?$AA?$CB?$AA?$AA@ ; `string'
PUBLIC	??_C@_1IC@MEADOCIB@?$AAc?$AA?3?$AA?2?$AAp?$AAr?$AAo?$AAg?$AAr?$AAa?$AAm?$AA?5?$AAf?$AAi?$AAl?$AAe?$AAs?$AA?2?$AAm?$AAi?$AAc?$AAr?$AAo?$AAs?$AAo?$AAf?$AAt?$AA?5?$AAv?$AAi?$AAs?$AAu?$AAa@ ; `string'
EXTRN	__imp_?_Debug_message@std@@YAXPB_W0I@Z:PROC
;	COMDAT ??_C@_1DC@POOIKBAO@?$AAI?$AAT?$AAE?$AAR?$AAA?$AAT?$AAO?$AAR?$AA?5?$AAL?$AAI?$AAS?$AAT?$AA?5?$AAC?$AAO?$AAR?$AAR?$AAU?$AAP?$AAT?$AAE?$AAD?$AA?$CB?$AA?$AA@
CONST	SEGMENT
??_C@_1DC@POOIKBAO@?$AAI?$AAT?$AAE?$AAR?$AAA?$AAT?$AAO?$AAR?$AA?5?$AAL?$AAI?$AAS?$AAT?$AA?5?$AAC?$AAO?$AAR?$AAR?$AAU?$AAP?$AAT?$AAE?$AAD?$AA?$CB?$AA?$AA@ DB 'I'
	DB	00H, 'T', 00H, 'E', 00H, 'R', 00H, 'A', 00H, 'T', 00H, 'O', 00H
	DB	'R', 00H, ' ', 00H, 'L', 00H, 'I', 00H, 'S', 00H, 'T', 00H, ' '
	DB	00H, 'C', 00H, 'O', 00H, 'R', 00H, 'R', 00H, 'U', 00H, 'P', 00H
	DB	'T', 00H, 'E', 00H, 'D', 00H, '!', 00H, 00H, 00H ; `string'
CONST	ENDS
;	COMDAT ??_C@_1IC@MEADOCIB@?$AAc?$AA?3?$AA?2?$AAp?$AAr?$AAo?$AAg?$AAr?$AAa?$AAm?$AA?5?$AAf?$AAi?$AAl?$AAe?$AAs?$AA?2?$AAm?$AAi?$AAc?$AAr?$AAo?$AAs?$AAo?$AAf?$AAt?$AA?5?$AAv?$AAi?$AAs?$AAu?$AAa@
CONST	SEGMENT
??_C@_1IC@MEADOCIB@?$AAc?$AA?3?$AA?2?$AAp?$AAr?$AAo?$AAg?$AAr?$AAa?$AAm?$AA?5?$AAf?$AAi?$AAl?$AAe?$AAs?$AA?2?$AAm?$AAi?$AAc?$AAr?$AAo?$AAs?$AAo?$AAf?$AAt?$AA?5?$AAv?$AAi?$AAs?$AAu?$AAa@ DB 'c'
	DB	00H, ':', 00H, '\', 00H, 'p', 00H, 'r', 00H, 'o', 00H, 'g', 00H
	DB	'r', 00H, 'a', 00H, 'm', 00H, ' ', 00H, 'f', 00H, 'i', 00H, 'l'
	DB	00H, 'e', 00H, 's', 00H, '\', 00H, 'm', 00H, 'i', 00H, 'c', 00H
	DB	'r', 00H, 'o', 00H, 's', 00H, 'o', 00H, 'f', 00H, 't', 00H, ' '
	DB	00H, 'v', 00H, 'i', 00H, 's', 00H, 'u', 00H, 'a', 00H, 'l', 00H
	DB	' ', 00H, 's', 00H, 't', 00H, 'u', 00H, 'd', 00H, 'i', 00H, 'o'
	DB	00H, ' ', 00H, '9', 00H, '.', 00H, '0', 00H, '\', 00H, 'v', 00H
	DB	'c', 00H, '\', 00H, 'i', 00H, 'n', 00H, 'c', 00H, 'l', 00H, 'u'
	DB	00H, 'd', 00H, 'e', 00H, '\', 00H, 'x', 00H, 'u', 00H, 't', 00H
	DB	'i', 00H, 'l', 00H, 'i', 00H, 't', 00H, 'y', 00H, 00H, 00H ; `string'
; Function compile flags: /Odtp /RTCcsu /ZI
CONST	ENDS
;	COMDAT ?_Orphan_me@_Iterator_base@std@@QAEXXZ
_TEXT	SEGMENT
__Pnext$6734 = -20					; size = 4
_this$ = -8						; size = 4
?_Orphan_me@_Iterator_base@std@@QAEXXZ PROC		; std::_Iterator_base::_Orphan_me, COMDAT
; _this$ = ecx

; 180  : 		{	// cut ties with parent

	push	ebp
	mov	ebp, esp
	sub	esp, 216				; 000000d8H
	push	ebx
	push	esi
	push	edi
	push	ecx
	lea	edi, DWORD PTR [ebp-216]
	mov	ecx, 54					; 00000036H
	mov	eax, -858993460				; ccccccccH
	rep stosd
	pop	ecx
	mov	DWORD PTR _this$[ebp], ecx

; 181  : 		if (_Mycont != 0 && _Mycont->_Myfirstiter != _IGNORE_MYITERLIST)

	mov	eax, DWORD PTR _this$[ebp]
	cmp	DWORD PTR [eax], 0
	je	SHORT $LN5@Orphan_me
	mov	eax, DWORD PTR _this$[ebp]
	mov	ecx, DWORD PTR [eax]
	cmp	DWORD PTR [ecx], -3			; fffffffdH
	je	SHORT $LN5@Orphan_me

; 182  : 			{	// adopted, remove self from list
; 183  : 			_Iterator_base **_Pnext =
; 184  : 				(_Iterator_base **)&_Mycont->_Myfirstiter;

	mov	eax, DWORD PTR _this$[ebp]
	mov	ecx, DWORD PTR [eax]
	mov	DWORD PTR __Pnext$6734[ebp], ecx
$LN3@Orphan_me:

; 185  : 			while (*_Pnext != 0 && *_Pnext != this)

	mov	eax, DWORD PTR __Pnext$6734[ebp]
	cmp	DWORD PTR [eax], 0
	je	SHORT $LN2@Orphan_me
	mov	eax, DWORD PTR __Pnext$6734[ebp]
	mov	ecx, DWORD PTR [eax]
	cmp	ecx, DWORD PTR _this$[ebp]
	je	SHORT $LN2@Orphan_me

; 186  : 				_Pnext = &(*_Pnext)->_Mynextiter;

	mov	eax, DWORD PTR __Pnext$6734[ebp]
	mov	ecx, DWORD PTR [eax]
	add	ecx, 4
	mov	DWORD PTR __Pnext$6734[ebp], ecx
	jmp	SHORT $LN3@Orphan_me
$LN2@Orphan_me:

; 187  : 
; 188  : 			if (*_Pnext == 0)

	mov	eax, DWORD PTR __Pnext$6734[ebp]
	cmp	DWORD PTR [eax], 0
	jne	SHORT $LN1@Orphan_me

; 189  : 				_DEBUG_ERROR("ITERATOR LIST CORRUPTED!");

	mov	esi, esp
	push	189					; 000000bdH
	push	OFFSET ??_C@_1IC@MEADOCIB@?$AAc?$AA?3?$AA?2?$AAp?$AAr?$AAo?$AAg?$AAr?$AAa?$AAm?$AA?5?$AAf?$AAi?$AAl?$AAe?$AAs?$AA?2?$AAm?$AAi?$AAc?$AAr?$AAo?$AAs?$AAo?$AAf?$AAt?$AA?5?$AAv?$AAi?$AAs?$AAu?$AAa@
	push	OFFSET ??_C@_1DC@POOIKBAO@?$AAI?$AAT?$AAE?$AAR?$AAA?$AAT?$AAO?$AAR?$AA?5?$AAL?$AAI?$AAS?$AAT?$AA?5?$AAC?$AAO?$AAR?$AAR?$AAU?$AAP?$AAT?$AAE?$AAD?$AA?$CB?$AA?$AA@
	call	DWORD PTR __imp_?_Debug_message@std@@YAXPB_W0I@Z
	add	esp, 12					; 0000000cH
	cmp	esi, esp
	call	__RTC_CheckEsp
$LN1@Orphan_me:

; 190  : 			*_Pnext = _Mynextiter;

	mov	eax, DWORD PTR __Pnext$6734[ebp]
	mov	ecx, DWORD PTR _this$[ebp]
	mov	edx, DWORD PTR [ecx+4]
	mov	DWORD PTR [eax], edx

; 191  : 			_Mycont = 0;

	mov	eax, DWORD PTR _this$[ebp]
	mov	DWORD PTR [eax], 0
$LN5@Orphan_me:

; 192  : 			}
; 193  : 		}

	pop	edi
	pop	esi
	pop	ebx
	add	esp, 216				; 000000d8H
	cmp	ebp, esp
	call	__RTC_CheckEsp
	mov	esp, ebp
	pop	ebp
	ret	0
?_Orphan_me@_Iterator_base@std@@QAEXXZ ENDP		; std::_Iterator_base::_Orphan_me
_TEXT	ENDS
PUBLIC	??A?$vector@PAVfbdFrame@DRAMsimII@@V?$allocator@PAVfbdFrame@DRAMsimII@@@std@@@std@@QAEAAPAVfbdFrame@DRAMsimII@@I@Z ; std::vector<DRAMsimII::fbdFrame *,std::allocator<DRAMsimII::fbdFrame *> >::operator[]
PUBLIC	??$?6U?$char_traits@D@std@@@std@@YAAAV?$basic_ostream@DU?$char_traits@D@std@@@0@AAV10@PBD@Z ; std::operator<<<std::char_traits<char> >
PUBLIC	??_C@_0BG@KEOIJAJD@Input?5pointer?5is?5NULL?$AA@ ; `string'
PUBLIC	?size@?$vector@PAVfbdFrame@DRAMsimII@@V?$allocator@PAVfbdFrame@DRAMsimII@@@std@@@std@@QBEIXZ ; std::vector<DRAMsimII::fbdFrame *,std::allocator<DRAMsimII::fbdFrame *> >::size
PUBLIC	??_C@_1BK@CDKDBCEF@?$AAi?$AAt?$AAe?$AAm?$AA?5?$AA?$CB?$AA?$DN?$AA?5?$AAN?$AAU?$AAL?$AAL?$AA?$AA@ ; `string'
EXTRN	__imp_??6?$basic_ostream@DU?$char_traits@D@std@@@std@@QAEAAV01@P6AAAV01@AAV01@@Z@Z:PROC
EXTRN	__imp_?cerr@std@@3V?$basic_ostream@DU?$char_traits@D@std@@@1@A:BYTE
EXTRN	__imp_?endl@std@@YAAAV?$basic_ostream@DU?$char_traits@D@std@@@1@AAV21@@Z:PROC
;	COMDAT ??_C@_0BG@KEOIJAJD@Input?5pointer?5is?5NULL?$AA@
; File c:\users\crius\documents\visual studio 2008\projects\dramsimiihg\src\queue.h
CONST	SEGMENT
??_C@_0BG@KEOIJAJD@Input?5pointer?5is?5NULL?$AA@ DB 'Input pointer is NUL'
	DB	'L', 00H					; `string'
CONST	ENDS
;	COMDAT ??_C@_1BK@CDKDBCEF@?$AAi?$AAt?$AAe?$AAm?$AA?5?$AA?$CB?$AA?$DN?$AA?5?$AAN?$AAU?$AAL?$AAL?$AA?$AA@
CONST	SEGMENT
??_C@_1BK@CDKDBCEF@?$AAi?$AAt?$AAe?$AAm?$AA?5?$AA?$CB?$AA?$DN?$AA?5?$AAN?$AAU?$AAL?$AAL?$AA?$AA@ DB 'i'
	DB	00H, 't', 00H, 'e', 00H, 'm', 00H, ' ', 00H, '!', 00H, '=', 00H
	DB	' ', 00H, 'N', 00H, 'U', 00H, 'L', 00H, 'L', 00H, 00H, 00H ; `string'
; Function compile flags: /Odtp /RTCcsu /ZI
CONST	ENDS
;	COMDAT ?push@?$Queue@VfbdFrame@DRAMsimII@@@DRAMsimII@@QAE_NPAVfbdFrame@2@@Z
_TEXT	SEGMENT
_this$ = -8						; size = 4
_item$ = 8						; size = 4
?push@?$Queue@VfbdFrame@DRAMsimII@@@DRAMsimII@@QAE_NPAVfbdFrame@2@@Z PROC ; DRAMsimII::Queue<DRAMsimII::fbdFrame>::push, COMDAT
; _this$ = ecx

; 147  : 		{

	push	ebp
	mov	ebp, esp
	sub	esp, 204				; 000000ccH
	push	ebx
	push	esi
	push	edi
	push	ecx
	lea	edi, DWORD PTR [ebp-204]
	mov	ecx, 51					; 00000033H
	mov	eax, -858993460				; ccccccccH
	rep stosd
	pop	ecx
	mov	DWORD PTR _this$[ebp], ecx

; 148  : 			assert(item != NULL);

	cmp	DWORD PTR _item$[ebp], 0
	jne	SHORT $LN7@push
	mov	esi, esp
	push	148					; 00000094H
	push	OFFSET ??_C@_1JK@CBHCFOLP@?$AAc?$AA?3?$AA?2?$AAu?$AAs?$AAe?$AAr?$AAs?$AA?2?$AAc?$AAr?$AAi?$AAu?$AAs?$AA?2?$AAd?$AAo?$AAc?$AAu?$AAm?$AAe?$AAn?$AAt?$AAs?$AA?2?$AAv?$AAi?$AAs?$AAu?$AAa?$AAl?$AA?5@
	push	OFFSET ??_C@_1BK@CDKDBCEF@?$AAi?$AAt?$AAe?$AAm?$AA?5?$AA?$CB?$AA?$DN?$AA?5?$AAN?$AAU?$AAL?$AAL?$AA?$AA@
	call	DWORD PTR __imp___wassert
	add	esp, 12					; 0000000cH
	cmp	esi, esp
	call	__RTC_CheckEsp
$LN7@push:

; 149  : 			if (count == entry.size())

	mov	ecx, DWORD PTR _this$[ebp]
	add	ecx, 12					; 0000000cH
	call	?size@?$vector@PAVfbdFrame@DRAMsimII@@V?$allocator@PAVfbdFrame@DRAMsimII@@@std@@@std@@QBEIXZ ; std::vector<DRAMsimII::fbdFrame *,std::allocator<DRAMsimII::fbdFrame *> >::size
	mov	ecx, DWORD PTR _this$[ebp]
	cmp	DWORD PTR [ecx], eax
	jne	SHORT $LN4@push

; 150  : 				return false;

	xor	al, al
	jmp	$LN5@push
	jmp	SHORT $LN5@push
$LN4@push:

; 151  : 			else if (item == NULL)

	cmp	DWORD PTR _item$[ebp], 0
	jne	SHORT $LN2@push

; 152  : 			{
; 153  : 				std::cerr << "Input pointer is NULL" << std::endl;

	mov	esi, esp
	mov	eax, DWORD PTR __imp_?endl@std@@YAAAV?$basic_ostream@DU?$char_traits@D@std@@@1@AAV21@@Z
	push	eax
	push	OFFSET ??_C@_0BG@KEOIJAJD@Input?5pointer?5is?5NULL?$AA@
	mov	ecx, DWORD PTR __imp_?cerr@std@@3V?$basic_ostream@DU?$char_traits@D@std@@@1@A
	push	ecx
	call	??$?6U?$char_traits@D@std@@@std@@YAAAV?$basic_ostream@DU?$char_traits@D@std@@@0@AAV10@PBD@Z ; std::operator<<<std::char_traits<char> >
	add	esp, 8
	mov	ecx, eax
	call	DWORD PTR __imp_??6?$basic_ostream@DU?$char_traits@D@std@@@std@@QAEAAV01@P6AAAV01@AAV01@@Z@Z
	cmp	esi, esp
	call	__RTC_CheckEsp

; 154  : 				return false;

	xor	al, al
	jmp	SHORT $LN5@push

; 155  : 			}
; 156  : 			else

	jmp	SHORT $LN5@push
$LN2@push:

; 157  : 			{
; 158  : 				count++;

	mov	eax, DWORD PTR _this$[ebp]
	mov	ecx, DWORD PTR [eax]
	add	ecx, 1
	mov	edx, DWORD PTR _this$[ebp]
	mov	DWORD PTR [edx], ecx

; 159  : 				entry[tail] = item;

	mov	eax, DWORD PTR _this$[ebp]
	mov	ecx, DWORD PTR [eax+8]
	push	ecx
	mov	ecx, DWORD PTR _this$[ebp]
	add	ecx, 12					; 0000000cH
	call	??A?$vector@PAVfbdFrame@DRAMsimII@@V?$allocator@PAVfbdFrame@DRAMsimII@@@std@@@std@@QAEAAPAVfbdFrame@DRAMsimII@@I@Z ; std::vector<DRAMsimII::fbdFrame *,std::allocator<DRAMsimII::fbdFrame *> >::operator[]
	mov	edx, DWORD PTR _item$[ebp]
	mov	DWORD PTR [eax], edx

; 160  : 				tail = (tail + 1) % (unsigned)entry.size(); 	//advance tail_ptr

	mov	eax, DWORD PTR _this$[ebp]
	mov	esi, DWORD PTR [eax+8]
	add	esi, 1
	mov	ecx, DWORD PTR _this$[ebp]
	add	ecx, 12					; 0000000cH
	call	?size@?$vector@PAVfbdFrame@DRAMsimII@@V?$allocator@PAVfbdFrame@DRAMsimII@@@std@@@std@@QBEIXZ ; std::vector<DRAMsimII::fbdFrame *,std::allocator<DRAMsimII::fbdFrame *> >::size
	mov	ecx, eax
	mov	eax, esi
	xor	edx, edx
	div	ecx
	mov	eax, DWORD PTR _this$[ebp]
	mov	DWORD PTR [eax+8], edx

; 161  : 				return true;

	mov	al, 1
$LN5@push:

; 162  : 			}
; 163  : 		}

	pop	edi
	pop	esi
	pop	ebx
	add	esp, 204				; 000000ccH
	cmp	ebp, esp
	call	__RTC_CheckEsp
	mov	esp, ebp
	pop	ebp
	ret	4
?push@?$Queue@VfbdFrame@DRAMsimII@@@DRAMsimII@@QAE_NPAVfbdFrame@2@@Z ENDP ; DRAMsimII::Queue<DRAMsimII::fbdFrame>::push
; Function compile flags: /Odtp /RTCcsu /ZI
_TEXT	ENDS
;	COMDAT ?pop@?$Queue@VfbdFrame@DRAMsimII@@@DRAMsimII@@QAEPAVfbdFrame@2@XZ
_TEXT	SEGMENT
_item$110009 = -20					; size = 4
_this$ = -8						; size = 4
?pop@?$Queue@VfbdFrame@DRAMsimII@@@DRAMsimII@@QAEPAVfbdFrame@2@XZ PROC ; DRAMsimII::Queue<DRAMsimII::fbdFrame>::pop, COMDAT
; _this$ = ecx

; 188  : 		{

	push	ebp
	mov	ebp, esp
	sub	esp, 216				; 000000d8H
	push	ebx
	push	esi
	push	edi
	push	ecx
	lea	edi, DWORD PTR [ebp-216]
	mov	ecx, 54					; 00000036H
	mov	eax, -858993460				; ccccccccH
	rep stosd
	pop	ecx
	mov	DWORD PTR _this$[ebp], ecx

; 189  : 			if (count == 0)

	mov	eax, DWORD PTR _this$[ebp]
	cmp	DWORD PTR [eax], 0
	jne	SHORT $LN2@pop

; 190  : 				return NULL;

	xor	eax, eax
	jmp	SHORT $LN3@pop

; 191  : 			else

	jmp	SHORT $LN3@pop
$LN2@pop:

; 192  : 			{
; 193  : 				count--;

	mov	eax, DWORD PTR _this$[ebp]
	mov	ecx, DWORD PTR [eax]
	sub	ecx, 1
	mov	edx, DWORD PTR _this$[ebp]
	mov	DWORD PTR [edx], ecx

; 194  : 
; 195  : 				T *item = entry[head];

	mov	eax, DWORD PTR _this$[ebp]
	mov	ecx, DWORD PTR [eax+4]
	push	ecx
	mov	ecx, DWORD PTR _this$[ebp]
	add	ecx, 12					; 0000000cH
	call	??A?$vector@PAVfbdFrame@DRAMsimII@@V?$allocator@PAVfbdFrame@DRAMsimII@@@std@@@std@@QAEAAPAVfbdFrame@DRAMsimII@@I@Z ; std::vector<DRAMsimII::fbdFrame *,std::allocator<DRAMsimII::fbdFrame *> >::operator[]
	mov	edx, DWORD PTR [eax]
	mov	DWORD PTR _item$110009[ebp], edx

; 196  : 
; 197  : 				entry[head] = NULL; // ensure this item isn't rhs part of the queue anymore

	mov	eax, DWORD PTR _this$[ebp]
	mov	ecx, DWORD PTR [eax+4]
	push	ecx
	mov	ecx, DWORD PTR _this$[ebp]
	add	ecx, 12					; 0000000cH
	call	??A?$vector@PAVfbdFrame@DRAMsimII@@V?$allocator@PAVfbdFrame@DRAMsimII@@@std@@@std@@QAEAAPAVfbdFrame@DRAMsimII@@I@Z ; std::vector<DRAMsimII::fbdFrame *,std::allocator<DRAMsimII::fbdFrame *> >::operator[]
	mov	DWORD PTR [eax], 0

; 198  : 
; 199  : 				head = (head + 1) % (unsigned)entry.size();	//advance head_ptr

	mov	eax, DWORD PTR _this$[ebp]
	mov	esi, DWORD PTR [eax+4]
	add	esi, 1
	mov	ecx, DWORD PTR _this$[ebp]
	add	ecx, 12					; 0000000cH
	call	?size@?$vector@PAVfbdFrame@DRAMsimII@@V?$allocator@PAVfbdFrame@DRAMsimII@@@std@@@std@@QBEIXZ ; std::vector<DRAMsimII::fbdFrame *,std::allocator<DRAMsimII::fbdFrame *> >::size
	mov	ecx, eax
	mov	eax, esi
	xor	edx, edx
	div	ecx
	mov	eax, DWORD PTR _this$[ebp]
	mov	DWORD PTR [eax+4], edx

; 200  : 
; 201  : 				return item;

	mov	eax, DWORD PTR _item$110009[ebp]
$LN3@pop:

; 202  : 			}
; 203  : 		}

	pop	edi
	pop	esi
	pop	ebx
	add	esp, 216				; 000000d8H
	cmp	ebp, esp
	call	__RTC_CheckEsp
	mov	esp, ebp
	pop	ebp
	ret	0
?pop@?$Queue@VfbdFrame@DRAMsimII@@@DRAMsimII@@QAEPAVfbdFrame@2@XZ ENDP ; DRAMsimII::Queue<DRAMsimII::fbdFrame>::pop
_TEXT	ENDS
PUBLIC	??0?$_Vector_iterator@PAVfbdFrame@DRAMsimII@@V?$allocator@PAVfbdFrame@DRAMsimII@@@std@@@std@@QAE@PAPAVfbdFrame@DRAMsimII@@PBV_Container_base_secure@1@@Z ; std::_Vector_iterator<DRAMsimII::fbdFrame *,std::allocator<DRAMsimII::fbdFrame *> >::_Vector_iterator<DRAMsimII::fbdFrame *,std::allocator<DRAMsimII::fbdFrame *> >
; Function compile flags: /Odtp /RTCcsu /ZI
; File c:\program files\microsoft visual studio 9.0\vc\include\vector
;	COMDAT ?begin@?$vector@PAVfbdFrame@DRAMsimII@@V?$allocator@PAVfbdFrame@DRAMsimII@@@std@@@std@@QAE?AV?$_Vector_iterator@PAVfbdFrame@DRAMsimII@@V?$allocator@PAVfbdFrame@DRAMsimII@@@std@@@2@XZ
_TEXT	SEGMENT
$T116000 = -212						; size = 4
_this$ = -8						; size = 4
___$ReturnUdt$ = 8					; size = 4
?begin@?$vector@PAVfbdFrame@DRAMsimII@@V?$allocator@PAVfbdFrame@DRAMsimII@@@std@@@std@@QAE?AV?$_Vector_iterator@PAVfbdFrame@DRAMsimII@@V?$allocator@PAVfbdFrame@DRAMsimII@@@std@@@2@XZ PROC ; std::vector<DRAMsimII::fbdFrame *,std::allocator<DRAMsimII::fbdFrame *> >::begin, COMDAT
; _this$ = ecx

; 640  : 		{	// return iterator for beginning of mutable sequence

	push	ebp
	mov	ebp, esp
	sub	esp, 216				; 000000d8H
	push	ebx
	push	esi
	push	edi
	push	ecx
	lea	edi, DWORD PTR [ebp-216]
	mov	ecx, 54					; 00000036H
	mov	eax, -858993460				; ccccccccH
	rep stosd
	pop	ecx
	mov	DWORD PTR _this$[ebp], ecx
	mov	DWORD PTR $T116000[ebp], 0

; 641  : 		return (iterator(_Myfirst, this));

	mov	eax, DWORD PTR _this$[ebp]
	push	eax
	mov	ecx, DWORD PTR _this$[ebp]
	mov	edx, DWORD PTR [ecx+8]
	push	edx
	mov	ecx, DWORD PTR ___$ReturnUdt$[ebp]
	call	??0?$_Vector_iterator@PAVfbdFrame@DRAMsimII@@V?$allocator@PAVfbdFrame@DRAMsimII@@@std@@@std@@QAE@PAPAVfbdFrame@DRAMsimII@@PBV_Container_base_secure@1@@Z ; std::_Vector_iterator<DRAMsimII::fbdFrame *,std::allocator<DRAMsimII::fbdFrame *> >::_Vector_iterator<DRAMsimII::fbdFrame *,std::allocator<DRAMsimII::fbdFrame *> >
	mov	eax, DWORD PTR $T116000[ebp]
	or	eax, 1
	mov	DWORD PTR $T116000[ebp], eax
	mov	eax, DWORD PTR ___$ReturnUdt$[ebp]

; 642  : 		}

	pop	edi
	pop	esi
	pop	ebx
	add	esp, 216				; 000000d8H
	cmp	ebp, esp
	call	__RTC_CheckEsp
	mov	esp, ebp
	pop	ebp
	ret	4
?begin@?$vector@PAVfbdFrame@DRAMsimII@@V?$allocator@PAVfbdFrame@DRAMsimII@@@std@@@std@@QAE?AV?$_Vector_iterator@PAVfbdFrame@DRAMsimII@@V?$allocator@PAVfbdFrame@DRAMsimII@@@std@@@2@XZ ENDP ; std::vector<DRAMsimII::fbdFrame *,std::allocator<DRAMsimII::fbdFrame *> >::begin
; Function compile flags: /Odtp /RTCcsu /ZI
_TEXT	ENDS
;	COMDAT ?end@?$vector@PAVfbdFrame@DRAMsimII@@V?$allocator@PAVfbdFrame@DRAMsimII@@@std@@@std@@QAE?AV?$_Vector_iterator@PAVfbdFrame@DRAMsimII@@V?$allocator@PAVfbdFrame@DRAMsimII@@@std@@@2@XZ
_TEXT	SEGMENT
$T116005 = -212						; size = 4
_this$ = -8						; size = 4
___$ReturnUdt$ = 8					; size = 4
?end@?$vector@PAVfbdFrame@DRAMsimII@@V?$allocator@PAVfbdFrame@DRAMsimII@@@std@@@std@@QAE?AV?$_Vector_iterator@PAVfbdFrame@DRAMsimII@@V?$allocator@PAVfbdFrame@DRAMsimII@@@std@@@2@XZ PROC ; std::vector<DRAMsimII::fbdFrame *,std::allocator<DRAMsimII::fbdFrame *> >::end, COMDAT
; _this$ = ecx

; 650  : 		{	// return iterator for end of mutable sequence

	push	ebp
	mov	ebp, esp
	sub	esp, 216				; 000000d8H
	push	ebx
	push	esi
	push	edi
	push	ecx
	lea	edi, DWORD PTR [ebp-216]
	mov	ecx, 54					; 00000036H
	mov	eax, -858993460				; ccccccccH
	rep stosd
	pop	ecx
	mov	DWORD PTR _this$[ebp], ecx
	mov	DWORD PTR $T116005[ebp], 0

; 651  : 		return (iterator(_Mylast, this));

	mov	eax, DWORD PTR _this$[ebp]
	push	eax
	mov	ecx, DWORD PTR _this$[ebp]
	mov	edx, DWORD PTR [ecx+12]
	push	edx
	mov	ecx, DWORD PTR ___$ReturnUdt$[ebp]
	call	??0?$_Vector_iterator@PAVfbdFrame@DRAMsimII@@V?$allocator@PAVfbdFrame@DRAMsimII@@@std@@@std@@QAE@PAPAVfbdFrame@DRAMsimII@@PBV_Container_base_secure@1@@Z ; std::_Vector_iterator<DRAMsimII::fbdFrame *,std::allocator<DRAMsimII::fbdFrame *> >::_Vector_iterator<DRAMsimII::fbdFrame *,std::allocator<DRAMsimII::fbdFrame *> >
	mov	eax, DWORD PTR $T116005[ebp]
	or	eax, 1
	mov	DWORD PTR $T116005[ebp], eax
	mov	eax, DWORD PTR ___$ReturnUdt$[ebp]

; 652  : 		}

	pop	edi
	pop	esi
	pop	ebx
	add	esp, 216				; 000000d8H
	cmp	ebp, esp
	call	__RTC_CheckEsp
	mov	esp, ebp
	pop	ebp
	ret	4
?end@?$vector@PAVfbdFrame@DRAMsimII@@V?$allocator@PAVfbdFrame@DRAMsimII@@@std@@@std@@QAE?AV?$_Vector_iterator@PAVfbdFrame@DRAMsimII@@V?$allocator@PAVfbdFrame@DRAMsimII@@@std@@@2@XZ ENDP ; std::vector<DRAMsimII::fbdFrame *,std::allocator<DRAMsimII::fbdFrame *> >::end
_TEXT	ENDS
PUBLIC	??D?$_Vector_const_iterator@PAVfbdFrame@DRAMsimII@@V?$allocator@PAVfbdFrame@DRAMsimII@@@std@@@std@@QBEABQAVfbdFrame@DRAMsimII@@XZ ; std::_Vector_const_iterator<DRAMsimII::fbdFrame *,std::allocator<DRAMsimII::fbdFrame *> >::operator*
; Function compile flags: /Odtp /RTCcsu /ZI
;	COMDAT ??D?$_Vector_iterator@PAVfbdFrame@DRAMsimII@@V?$allocator@PAVfbdFrame@DRAMsimII@@@std@@@std@@QBEAAPAVfbdFrame@DRAMsimII@@XZ
_TEXT	SEGMENT
_this$ = -8						; size = 4
??D?$_Vector_iterator@PAVfbdFrame@DRAMsimII@@V?$allocator@PAVfbdFrame@DRAMsimII@@@std@@@std@@QBEAAPAVfbdFrame@DRAMsimII@@XZ PROC ; std::_Vector_iterator<DRAMsimII::fbdFrame *,std::allocator<DRAMsimII::fbdFrame *> >::operator*, COMDAT
; _this$ = ecx

; 338  : 		{	// return designated object

	push	ebp
	mov	ebp, esp
	sub	esp, 204				; 000000ccH
	push	ebx
	push	esi
	push	edi
	push	ecx
	lea	edi, DWORD PTR [ebp-204]
	mov	ecx, 51					; 00000033H
	mov	eax, -858993460				; ccccccccH
	rep stosd
	pop	ecx
	mov	DWORD PTR _this$[ebp], ecx

; 339  : 		return ((reference)**(_Mybase *)this);

	mov	ecx, DWORD PTR _this$[ebp]
	call	??D?$_Vector_const_iterator@PAVfbdFrame@DRAMsimII@@V?$allocator@PAVfbdFrame@DRAMsimII@@@std@@@std@@QBEABQAVfbdFrame@DRAMsimII@@XZ ; std::_Vector_const_iterator<DRAMsimII::fbdFrame *,std::allocator<DRAMsimII::fbdFrame *> >::operator*

; 340  : 		}

	pop	edi
	pop	esi
	pop	ebx
	add	esp, 204				; 000000ccH
	cmp	ebp, esp
	call	__RTC_CheckEsp
	mov	esp, ebp
	pop	ebp
	ret	0
??D?$_Vector_iterator@PAVfbdFrame@DRAMsimII@@V?$allocator@PAVfbdFrame@DRAMsimII@@@std@@@std@@QBEAAPAVfbdFrame@DRAMsimII@@XZ ENDP ; std::_Vector_iterator<DRAMsimII::fbdFrame *,std::allocator<DRAMsimII::fbdFrame *> >::operator*
_TEXT	ENDS
PUBLIC	??E?$_Vector_iterator@PAVfbdFrame@DRAMsimII@@V?$allocator@PAVfbdFrame@DRAMsimII@@@std@@@std@@QAEAAV01@XZ ; std::_Vector_iterator<DRAMsimII::fbdFrame *,std::allocator<DRAMsimII::fbdFrame *> >::operator++
PUBLIC	??0?$_Vector_iterator@PAVfbdFrame@DRAMsimII@@V?$allocator@PAVfbdFrame@DRAMsimII@@@std@@@std@@QAE@ABV01@@Z ; std::_Vector_iterator<DRAMsimII::fbdFrame *,std::allocator<DRAMsimII::fbdFrame *> >::_Vector_iterator<DRAMsimII::fbdFrame *,std::allocator<DRAMsimII::fbdFrame *> >
;	COMDAT xdata$x
xdata$x	SEGMENT
__unwindtable$??E?$_Vector_iterator@PAVfbdFrame@DRAMsimII@@V?$allocator@PAVfbdFrame@DRAMsimII@@@std@@@std@@QAE?AV01@H@Z DD 0ffffffffH
	DD	FLAT:__unwindfunclet$??E?$_Vector_iterator@PAVfbdFrame@DRAMsimII@@V?$allocator@PAVfbdFrame@DRAMsimII@@@std@@@std@@QAE?AV01@H@Z$1
	DD	00H
	DD	FLAT:__unwindfunclet$??E?$_Vector_iterator@PAVfbdFrame@DRAMsimII@@V?$allocator@PAVfbdFrame@DRAMsimII@@@std@@@std@@QAE?AV01@H@Z$0
__ehfuncinfo$??E?$_Vector_iterator@PAVfbdFrame@DRAMsimII@@V?$allocator@PAVfbdFrame@DRAMsimII@@@std@@@std@@QAE?AV01@H@Z DD 019930522H
	DD	02H
	DD	FLAT:__unwindtable$??E?$_Vector_iterator@PAVfbdFrame@DRAMsimII@@V?$allocator@PAVfbdFrame@DRAMsimII@@@std@@@std@@QAE?AV01@H@Z
	DD	2 DUP(00H)
	DD	2 DUP(00H)
	DD	00H
	DD	01H
; Function compile flags: /Odtp /RTCcsu /ZI
xdata$x	ENDS
;	COMDAT ??E?$_Vector_iterator@PAVfbdFrame@DRAMsimII@@V?$allocator@PAVfbdFrame@DRAMsimII@@@std@@@std@@QAE?AV01@H@Z
_TEXT	SEGMENT
$T116013 = -244						; size = 4
__Tmp$ = -40						; size = 12
_this$ = -20						; size = 4
__$EHRec$ = -12						; size = 12
___$ReturnUdt$ = 8					; size = 4
___formal$ = 12						; size = 4
??E?$_Vector_iterator@PAVfbdFrame@DRAMsimII@@V?$allocator@PAVfbdFrame@DRAMsimII@@@std@@@std@@QAE?AV01@H@Z PROC ; std::_Vector_iterator<DRAMsimII::fbdFrame *,std::allocator<DRAMsimII::fbdFrame *> >::operator++, COMDAT
; _this$ = ecx

; 354  : 		{	// postincrement

	push	ebp
	mov	ebp, esp
	push	-1
	push	__ehhandler$??E?$_Vector_iterator@PAVfbdFrame@DRAMsimII@@V?$allocator@PAVfbdFrame@DRAMsimII@@@std@@@std@@QAE?AV01@H@Z
	mov	eax, DWORD PTR fs:0
	push	eax
	sub	esp, 236				; 000000ecH
	push	ebx
	push	esi
	push	edi
	push	ecx
	lea	edi, DWORD PTR [ebp-248]
	mov	ecx, 59					; 0000003bH
	mov	eax, -858993460				; ccccccccH
	rep stosd
	pop	ecx
	mov	eax, DWORD PTR ___security_cookie
	xor	eax, ebp
	push	eax
	lea	eax, DWORD PTR __$EHRec$[ebp]
	mov	DWORD PTR fs:0, eax
	mov	DWORD PTR _this$[ebp], ecx
	mov	DWORD PTR $T116013[ebp], 0

; 355  : 		_Myt _Tmp = *this;

	mov	eax, DWORD PTR _this$[ebp]
	push	eax
	lea	ecx, DWORD PTR __Tmp$[ebp]
	call	??0?$_Vector_iterator@PAVfbdFrame@DRAMsimII@@V?$allocator@PAVfbdFrame@DRAMsimII@@@std@@@std@@QAE@ABV01@@Z
	mov	DWORD PTR __$EHRec$[ebp+8], 1

; 356  : 		++*this;

	mov	ecx, DWORD PTR _this$[ebp]
	call	??E?$_Vector_iterator@PAVfbdFrame@DRAMsimII@@V?$allocator@PAVfbdFrame@DRAMsimII@@@std@@@std@@QAEAAV01@XZ ; std::_Vector_iterator<DRAMsimII::fbdFrame *,std::allocator<DRAMsimII::fbdFrame *> >::operator++

; 357  : 		return (_Tmp);

	lea	eax, DWORD PTR __Tmp$[ebp]
	push	eax
	mov	ecx, DWORD PTR ___$ReturnUdt$[ebp]
	call	??0?$_Vector_iterator@PAVfbdFrame@DRAMsimII@@V?$allocator@PAVfbdFrame@DRAMsimII@@@std@@@std@@QAE@ABV01@@Z
	mov	ecx, DWORD PTR $T116013[ebp]
	or	ecx, 1
	mov	DWORD PTR $T116013[ebp], ecx
	mov	BYTE PTR __$EHRec$[ebp+8], 0
	lea	ecx, DWORD PTR __Tmp$[ebp]
	call	??1?$_Vector_iterator@PAVfbdFrame@DRAMsimII@@V?$allocator@PAVfbdFrame@DRAMsimII@@@std@@@std@@QAE@XZ
	mov	eax, DWORD PTR ___$ReturnUdt$[ebp]

; 358  : 		}

	push	edx
	mov	ecx, ebp
	push	eax
	lea	edx, DWORD PTR $LN9@operator@2
	call	@_RTC_CheckStackVars@8
	pop	eax
	pop	edx
	mov	ecx, DWORD PTR __$EHRec$[ebp]
	mov	DWORD PTR fs:0, ecx
	pop	ecx
	pop	edi
	pop	esi
	pop	ebx
	add	esp, 248				; 000000f8H
	cmp	ebp, esp
	call	__RTC_CheckEsp
	mov	esp, ebp
	pop	ebp
	ret	8
	npad	1
$LN9@operator@2:
	DD	1
	DD	$LN8@operator@2
$LN8@operator@2:
	DD	-40					; ffffffd8H
	DD	12					; 0000000cH
	DD	$LN6@operator@2
$LN6@operator@2:
	DB	95					; 0000005fH
	DB	84					; 00000054H
	DB	109					; 0000006dH
	DB	112					; 00000070H
	DB	0
_TEXT	ENDS
;	COMDAT text$x
text$x	SEGMENT
__unwindfunclet$??E?$_Vector_iterator@PAVfbdFrame@DRAMsimII@@V?$allocator@PAVfbdFrame@DRAMsimII@@@std@@@std@@QAE?AV01@H@Z$0:
	lea	ecx, DWORD PTR __Tmp$[ebp]
	jmp	??1?$_Vector_iterator@PAVfbdFrame@DRAMsimII@@V?$allocator@PAVfbdFrame@DRAMsimII@@@std@@@std@@QAE@XZ
__unwindfunclet$??E?$_Vector_iterator@PAVfbdFrame@DRAMsimII@@V?$allocator@PAVfbdFrame@DRAMsimII@@@std@@@std@@QAE?AV01@H@Z$1:
	mov	eax, DWORD PTR $T116013[ebp]
	and	eax, 1
	je	$LN5@operator@2
	and	DWORD PTR $T116013[ebp], -2		; fffffffeH
	mov	ecx, DWORD PTR ___$ReturnUdt$[ebp]
	jmp	??1?$_Vector_iterator@PAVfbdFrame@DRAMsimII@@V?$allocator@PAVfbdFrame@DRAMsimII@@@std@@@std@@QAE@XZ
$LN5@operator@2:
	ret	0
__ehhandler$??E?$_Vector_iterator@PAVfbdFrame@DRAMsimII@@V?$allocator@PAVfbdFrame@DRAMsimII@@@std@@@std@@QAE?AV01@H@Z:
	mov	edx, DWORD PTR [esp+8]
	lea	eax, DWORD PTR [edx+12]
	mov	ecx, DWORD PTR [edx-252]
	xor	ecx, eax
	call	@__security_check_cookie@4
	mov	eax, OFFSET __ehfuncinfo$??E?$_Vector_iterator@PAVfbdFrame@DRAMsimII@@V?$allocator@PAVfbdFrame@DRAMsimII@@@std@@@std@@QAE?AV01@H@Z
	jmp	___CxxFrameHandler3
text$x	ENDS
??E?$_Vector_iterator@PAVfbdFrame@DRAMsimII@@V?$allocator@PAVfbdFrame@DRAMsimII@@@std@@@std@@QAE?AV01@H@Z ENDP ; std::_Vector_iterator<DRAMsimII::fbdFrame *,std::allocator<DRAMsimII::fbdFrame *> >::operator++
PUBLIC	??8?$_Vector_const_iterator@PAVfbdFrame@DRAMsimII@@V?$allocator@PAVfbdFrame@DRAMsimII@@@std@@@std@@QBE_NABV01@@Z ; std::_Vector_const_iterator<DRAMsimII::fbdFrame *,std::allocator<DRAMsimII::fbdFrame *> >::operator==
EXTRN	@_RTC_Check_4_to_1@4:PROC
; Function compile flags: /Odtp /RTCcsu /ZI
;	COMDAT ??9?$_Vector_const_iterator@PAVfbdFrame@DRAMsimII@@V?$allocator@PAVfbdFrame@DRAMsimII@@@std@@@std@@QBE_NABV01@@Z
_TEXT	SEGMENT
_this$ = -8						; size = 4
__Right$ = 8						; size = 4
??9?$_Vector_const_iterator@PAVfbdFrame@DRAMsimII@@V?$allocator@PAVfbdFrame@DRAMsimII@@@std@@@std@@QBE_NABV01@@Z PROC ; std::_Vector_const_iterator<DRAMsimII::fbdFrame *,std::allocator<DRAMsimII::fbdFrame *> >::operator!=, COMDAT
; _this$ = ecx

; 215  : 		{	// test for iterator inequality

	push	ebp
	mov	ebp, esp
	sub	esp, 204				; 000000ccH
	push	ebx
	push	esi
	push	edi
	push	ecx
	lea	edi, DWORD PTR [ebp-204]
	mov	ecx, 51					; 00000033H
	mov	eax, -858993460				; ccccccccH
	rep stosd
	pop	ecx
	mov	DWORD PTR _this$[ebp], ecx

; 216  : 		return (!(*this == _Right));

	mov	eax, DWORD PTR __Right$[ebp]
	push	eax
	mov	ecx, DWORD PTR _this$[ebp]
	call	??8?$_Vector_const_iterator@PAVfbdFrame@DRAMsimII@@V?$allocator@PAVfbdFrame@DRAMsimII@@@std@@@std@@QBE_NABV01@@Z ; std::_Vector_const_iterator<DRAMsimII::fbdFrame *,std::allocator<DRAMsimII::fbdFrame *> >::operator==
	movzx	ecx, al
	neg	ecx
	sbb	ecx, ecx
	add	ecx, 1
	call	@_RTC_Check_4_to_1@4

; 217  : 		}

	pop	edi
	pop	esi
	pop	ebx
	add	esp, 204				; 000000ccH
	cmp	ebp, esp
	call	__RTC_CheckEsp
	mov	esp, ebp
	pop	ebp
	ret	4
??9?$_Vector_const_iterator@PAVfbdFrame@DRAMsimII@@V?$allocator@PAVfbdFrame@DRAMsimII@@@std@@@std@@QBE_NABV01@@Z ENDP ; std::_Vector_const_iterator<DRAMsimII::fbdFrame *,std::allocator<DRAMsimII::fbdFrame *> >::operator!=
_TEXT	ENDS
PUBLIC	??0?$_Vector_const_iterator@PAVfbdFrame@DRAMsimII@@V?$allocator@PAVfbdFrame@DRAMsimII@@@std@@@std@@QAE@ABV01@@Z ; std::_Vector_const_iterator<DRAMsimII::fbdFrame *,std::allocator<DRAMsimII::fbdFrame *> >::_Vector_const_iterator<DRAMsimII::fbdFrame *,std::allocator<DRAMsimII::fbdFrame *> >
; Function compile flags: /Odtp /RTCcsu /ZI
;	COMDAT ??0?$_Vector_iterator@PAVfbdFrame@DRAMsimII@@V?$allocator@PAVfbdFrame@DRAMsimII@@@std@@@std@@QAE@ABV01@@Z
_TEXT	SEGMENT
_this$ = -8						; size = 4
___that$ = 8						; size = 4
??0?$_Vector_iterator@PAVfbdFrame@DRAMsimII@@V?$allocator@PAVfbdFrame@DRAMsimII@@@std@@@std@@QAE@ABV01@@Z PROC ; std::_Vector_iterator<DRAMsimII::fbdFrame *,std::allocator<DRAMsimII::fbdFrame *> >::_Vector_iterator<DRAMsimII::fbdFrame *,std::allocator<DRAMsimII::fbdFrame *> >, COMDAT
; _this$ = ecx
	push	ebp
	mov	ebp, esp
	sub	esp, 204				; 000000ccH
	push	ebx
	push	esi
	push	edi
	push	ecx
	lea	edi, DWORD PTR [ebp-204]
	mov	ecx, 51					; 00000033H
	mov	eax, -858993460				; ccccccccH
	rep stosd
	pop	ecx
	mov	DWORD PTR _this$[ebp], ecx
	mov	eax, DWORD PTR ___that$[ebp]
	push	eax
	mov	ecx, DWORD PTR _this$[ebp]
	call	??0?$_Vector_const_iterator@PAVfbdFrame@DRAMsimII@@V?$allocator@PAVfbdFrame@DRAMsimII@@@std@@@std@@QAE@ABV01@@Z
	mov	eax, DWORD PTR _this$[ebp]
	pop	edi
	pop	esi
	pop	ebx
	add	esp, 204				; 000000ccH
	cmp	ebp, esp
	call	__RTC_CheckEsp
	mov	esp, ebp
	pop	ebp
	ret	4
??0?$_Vector_iterator@PAVfbdFrame@DRAMsimII@@V?$allocator@PAVfbdFrame@DRAMsimII@@@std@@@std@@QAE@ABV01@@Z ENDP ; std::_Vector_iterator<DRAMsimII::fbdFrame *,std::allocator<DRAMsimII::fbdFrame *> >::_Vector_iterator<DRAMsimII::fbdFrame *,std::allocator<DRAMsimII::fbdFrame *> >
_TEXT	ENDS
PUBLIC	??0?$_Ranit@PAVfbdFrame@DRAMsimII@@HPBQAV12@ABQAV12@@std@@QAE@ABU01@@Z ; std::_Ranit<DRAMsimII::fbdFrame *,int,DRAMsimII::fbdFrame * const *,DRAMsimII::fbdFrame * const &>::_Ranit<DRAMsimII::fbdFrame *,int,DRAMsimII::fbdFrame * const *,DRAMsimII::fbdFrame * const &>
; Function compile flags: /Odtp /RTCcsu /ZI
;	COMDAT ??0?$_Vector_const_iterator@PAVfbdFrame@DRAMsimII@@V?$allocator@PAVfbdFrame@DRAMsimII@@@std@@@std@@QAE@ABV01@@Z
_TEXT	SEGMENT
_this$ = -8						; size = 4
___that$ = 8						; size = 4
??0?$_Vector_const_iterator@PAVfbdFrame@DRAMsimII@@V?$allocator@PAVfbdFrame@DRAMsimII@@@std@@@std@@QAE@ABV01@@Z PROC ; std::_Vector_const_iterator<DRAMsimII::fbdFrame *,std::allocator<DRAMsimII::fbdFrame *> >::_Vector_const_iterator<DRAMsimII::fbdFrame *,std::allocator<DRAMsimII::fbdFrame *> >, COMDAT
; _this$ = ecx
	push	ebp
	mov	ebp, esp
	sub	esp, 204				; 000000ccH
	push	ebx
	push	esi
	push	edi
	push	ecx
	lea	edi, DWORD PTR [ebp-204]
	mov	ecx, 51					; 00000033H
	mov	eax, -858993460				; ccccccccH
	rep stosd
	pop	ecx
	mov	DWORD PTR _this$[ebp], ecx
	mov	eax, DWORD PTR ___that$[ebp]
	push	eax
	mov	ecx, DWORD PTR _this$[ebp]
	call	??0?$_Ranit@PAVfbdFrame@DRAMsimII@@HPBQAV12@ABQAV12@@std@@QAE@ABU01@@Z
	mov	eax, DWORD PTR _this$[ebp]
	mov	ecx, DWORD PTR ___that$[ebp]
	mov	edx, DWORD PTR [ecx+8]
	mov	DWORD PTR [eax+8], edx
	mov	eax, DWORD PTR _this$[ebp]
	pop	edi
	pop	esi
	pop	ebx
	add	esp, 204				; 000000ccH
	cmp	ebp, esp
	call	__RTC_CheckEsp
	mov	esp, ebp
	pop	ebp
	ret	4
??0?$_Vector_const_iterator@PAVfbdFrame@DRAMsimII@@V?$allocator@PAVfbdFrame@DRAMsimII@@@std@@@std@@QAE@ABV01@@Z ENDP ; std::_Vector_const_iterator<DRAMsimII::fbdFrame *,std::allocator<DRAMsimII::fbdFrame *> >::_Vector_const_iterator<DRAMsimII::fbdFrame *,std::allocator<DRAMsimII::fbdFrame *> >
_TEXT	ENDS
PUBLIC	??0?$_Iterator_with_base@Urandom_access_iterator_tag@std@@PAVfbdFrame@DRAMsimII@@HPBQAV34@ABQAV34@V_Iterator_base@2@@std@@QAE@ABU01@@Z ; std::_Iterator_with_base<std::random_access_iterator_tag,DRAMsimII::fbdFrame *,int,DRAMsimII::fbdFrame * const *,DRAMsimII::fbdFrame * const &,std::_Iterator_base>::_Iterator_with_base<std::random_access_iterator_tag,DRAMsimII::fbdFrame *,int,DRAMsimII::fbdFrame * const *,DRAMsimII::fbdFrame * const &,std::_Iterator_base>
; Function compile flags: /Odtp /RTCcsu /ZI
;	COMDAT ??0?$_Ranit@PAVfbdFrame@DRAMsimII@@HPBQAV12@ABQAV12@@std@@QAE@ABU01@@Z
_TEXT	SEGMENT
_this$ = -8						; size = 4
___that$ = 8						; size = 4
??0?$_Ranit@PAVfbdFrame@DRAMsimII@@HPBQAV12@ABQAV12@@std@@QAE@ABU01@@Z PROC ; std::_Ranit<DRAMsimII::fbdFrame *,int,DRAMsimII::fbdFrame * const *,DRAMsimII::fbdFrame * const &>::_Ranit<DRAMsimII::fbdFrame *,int,DRAMsimII::fbdFrame * const *,DRAMsimII::fbdFrame * const &>, COMDAT
; _this$ = ecx
	push	ebp
	mov	ebp, esp
	sub	esp, 204				; 000000ccH
	push	ebx
	push	esi
	push	edi
	push	ecx
	lea	edi, DWORD PTR [ebp-204]
	mov	ecx, 51					; 00000033H
	mov	eax, -858993460				; ccccccccH
	rep stosd
	pop	ecx
	mov	DWORD PTR _this$[ebp], ecx
	mov	eax, DWORD PTR ___that$[ebp]
	push	eax
	mov	ecx, DWORD PTR _this$[ebp]
	call	??0?$_Iterator_with_base@Urandom_access_iterator_tag@std@@PAVfbdFrame@DRAMsimII@@HPBQAV34@ABQAV34@V_Iterator_base@2@@std@@QAE@ABU01@@Z
	mov	eax, DWORD PTR _this$[ebp]
	pop	edi
	pop	esi
	pop	ebx
	add	esp, 204				; 000000ccH
	cmp	ebp, esp
	call	__RTC_CheckEsp
	mov	esp, ebp
	pop	ebp
	ret	4
??0?$_Ranit@PAVfbdFrame@DRAMsimII@@HPBQAV12@ABQAV12@@std@@QAE@ABU01@@Z ENDP ; std::_Ranit<DRAMsimII::fbdFrame *,int,DRAMsimII::fbdFrame * const *,DRAMsimII::fbdFrame * const &>::_Ranit<DRAMsimII::fbdFrame *,int,DRAMsimII::fbdFrame * const *,DRAMsimII::fbdFrame * const &>
_TEXT	ENDS
PUBLIC	??0_Iterator_base@std@@QAE@ABV01@@Z		; std::_Iterator_base::_Iterator_base
; Function compile flags: /Odtp /RTCcsu /ZI
;	COMDAT ??0?$_Iterator_with_base@Urandom_access_iterator_tag@std@@PAVfbdFrame@DRAMsimII@@HPBQAV34@ABQAV34@V_Iterator_base@2@@std@@QAE@ABU01@@Z
_TEXT	SEGMENT
_this$ = -8						; size = 4
___that$ = 8						; size = 4
??0?$_Iterator_with_base@Urandom_access_iterator_tag@std@@PAVfbdFrame@DRAMsimII@@HPBQAV34@ABQAV34@V_Iterator_base@2@@std@@QAE@ABU01@@Z PROC ; std::_Iterator_with_base<std::random_access_iterator_tag,DRAMsimII::fbdFrame *,int,DRAMsimII::fbdFrame * const *,DRAMsimII::fbdFrame * const &,std::_Iterator_base>::_Iterator_with_base<std::random_access_iterator_tag,DRAMsimII::fbdFrame *,int,DRAMsimII::fbdFrame * const *,DRAMsimII::fbdFrame * const &,std::_Iterator_base>, COMDAT
; _this$ = ecx
	push	ebp
	mov	ebp, esp
	sub	esp, 204				; 000000ccH
	push	ebx
	push	esi
	push	edi
	push	ecx
	lea	edi, DWORD PTR [ebp-204]
	mov	ecx, 51					; 00000033H
	mov	eax, -858993460				; ccccccccH
	rep stosd
	pop	ecx
	mov	DWORD PTR _this$[ebp], ecx
	mov	eax, DWORD PTR ___that$[ebp]
	push	eax
	mov	ecx, DWORD PTR _this$[ebp]
	call	??0_Iterator_base@std@@QAE@ABV01@@Z	; std::_Iterator_base::_Iterator_base
	mov	eax, DWORD PTR _this$[ebp]
	pop	edi
	pop	esi
	pop	ebx
	add	esp, 204				; 000000ccH
	cmp	ebp, esp
	call	__RTC_CheckEsp
	mov	esp, ebp
	pop	ebp
	ret	4
??0?$_Iterator_with_base@Urandom_access_iterator_tag@std@@PAVfbdFrame@DRAMsimII@@HPBQAV34@ABQAV34@V_Iterator_base@2@@std@@QAE@ABU01@@Z ENDP ; std::_Iterator_with_base<std::random_access_iterator_tag,DRAMsimII::fbdFrame *,int,DRAMsimII::fbdFrame * const *,DRAMsimII::fbdFrame * const &,std::_Iterator_base>::_Iterator_with_base<std::random_access_iterator_tag,DRAMsimII::fbdFrame *,int,DRAMsimII::fbdFrame * const *,DRAMsimII::fbdFrame * const &,std::_Iterator_base>
_TEXT	ENDS
PUBLIC	??4_Iterator_base@std@@QAEAAV01@ABV01@@Z	; std::_Iterator_base::operator=
; Function compile flags: /Odtp /RTCcsu /ZI
; File c:\program files\microsoft visual studio 9.0\vc\include\xutility
;	COMDAT ??0_Iterator_base@std@@QAE@ABV01@@Z
_TEXT	SEGMENT
_this$ = -8						; size = 4
__Right$ = 8						; size = 4
??0_Iterator_base@std@@QAE@ABV01@@Z PROC		; std::_Iterator_base::_Iterator_base, COMDAT
; _this$ = ecx

; 143  : 		{	// copy an iterator

	push	ebp
	mov	ebp, esp
	sub	esp, 204				; 000000ccH
	push	ebx
	push	esi
	push	edi
	push	ecx
	lea	edi, DWORD PTR [ebp-204]
	mov	ecx, 51					; 00000033H
	mov	eax, -858993460				; ccccccccH
	rep stosd
	pop	ecx
	mov	DWORD PTR _this$[ebp], ecx
	mov	eax, DWORD PTR _this$[ebp]
	mov	DWORD PTR [eax], 0
	mov	eax, DWORD PTR _this$[ebp]
	mov	DWORD PTR [eax+4], 0

; 144  : 		*this = _Right;

	mov	eax, DWORD PTR __Right$[ebp]
	push	eax
	mov	ecx, DWORD PTR _this$[ebp]
	call	??4_Iterator_base@std@@QAEAAV01@ABV01@@Z ; std::_Iterator_base::operator=

; 145  : 		}

	mov	eax, DWORD PTR _this$[ebp]
	pop	edi
	pop	esi
	pop	ebx
	add	esp, 204				; 000000ccH
	cmp	ebp, esp
	call	__RTC_CheckEsp
	mov	esp, ebp
	pop	ebp
	ret	4
??0_Iterator_base@std@@QAE@ABV01@@Z ENDP		; std::_Iterator_base::_Iterator_base
_TEXT	ENDS
PUBLIC	?_Adopt@_Iterator_base@std@@QAEXPBV_Container_base_secure@2@@Z ; std::_Iterator_base::_Adopt
;	COMDAT xdata$x
xdata$x	SEGMENT
__unwindtable$??4_Iterator_base@std@@QAEAAV01@ABV01@@Z DD 0ffffffffH
	DD	FLAT:__unwindfunclet$??4_Iterator_base@std@@QAEAAV01@ABV01@@Z$0
__ehfuncinfo$??4_Iterator_base@std@@QAEAAV01@ABV01@@Z DD 019930522H
	DD	01H
	DD	FLAT:__unwindtable$??4_Iterator_base@std@@QAEAAV01@ABV01@@Z
	DD	2 DUP(00H)
	DD	2 DUP(00H)
	DD	00H
	DD	01H
; Function compile flags: /Odtp /RTCcsu /ZI
xdata$x	ENDS
;	COMDAT ??4_Iterator_base@std@@QAEAAV01@ABV01@@Z
_TEXT	SEGMENT
__Lock$6719 = -32					; size = 4
_this$ = -20						; size = 4
__$EHRec$ = -12						; size = 12
__Right$ = 8						; size = 4
??4_Iterator_base@std@@QAEAAV01@ABV01@@Z PROC		; std::_Iterator_base::operator=, COMDAT
; _this$ = ecx

; 148  : 		{	// assign an iterator

	push	ebp
	mov	ebp, esp
	push	-1
	push	__ehhandler$??4_Iterator_base@std@@QAEAAV01@ABV01@@Z
	mov	eax, DWORD PTR fs:0
	push	eax
	sub	esp, 216				; 000000d8H
	push	ebx
	push	esi
	push	edi
	push	ecx
	lea	edi, DWORD PTR [ebp-228]
	mov	ecx, 54					; 00000036H
	mov	eax, -858993460				; ccccccccH
	rep stosd
	pop	ecx
	mov	eax, DWORD PTR ___security_cookie
	xor	eax, ebp
	push	eax
	lea	eax, DWORD PTR __$EHRec$[ebp]
	mov	DWORD PTR fs:0, eax
	mov	DWORD PTR _this$[ebp], ecx

; 149  : 		if (_Mycont != _Right._Mycont)

	mov	eax, DWORD PTR _this$[ebp]
	mov	ecx, DWORD PTR __Right$[ebp]
	mov	edx, DWORD PTR [eax]
	cmp	edx, DWORD PTR [ecx]
	je	SHORT $LN1@operator@3

; 150  : 			{	// change parentage
; 151  : 			_Lockit _Lock(_LOCK_DEBUG);

	mov	esi, esp
	push	3
	lea	ecx, DWORD PTR __Lock$6719[ebp]
	call	DWORD PTR __imp_??0_Lockit@std@@QAE@H@Z
	cmp	esi, esp
	call	__RTC_CheckEsp
	mov	DWORD PTR __$EHRec$[ebp+8], 0

; 152  : 			_Orphan_me();

	mov	ecx, DWORD PTR _this$[ebp]
	call	?_Orphan_me@_Iterator_base@std@@QAEXXZ	; std::_Iterator_base::_Orphan_me

; 153  : 			_Adopt(_Right._Mycont);

	mov	eax, DWORD PTR __Right$[ebp]
	mov	ecx, DWORD PTR [eax]
	push	ecx
	mov	ecx, DWORD PTR _this$[ebp]
	call	?_Adopt@_Iterator_base@std@@QAEXPBV_Container_base_secure@2@@Z ; std::_Iterator_base::_Adopt

; 154  : 			}

	mov	DWORD PTR __$EHRec$[ebp+8], -1
	mov	esi, esp
	lea	ecx, DWORD PTR __Lock$6719[ebp]
	call	DWORD PTR __imp_??1_Lockit@std@@QAE@XZ
	cmp	esi, esp
	call	__RTC_CheckEsp
$LN1@operator@3:

; 155  : 		return (*this);

	mov	eax, DWORD PTR _this$[ebp]

; 156  : 		}

	push	edx
	mov	ecx, ebp
	push	eax
	lea	edx, DWORD PTR $LN8@operator@3
	call	@_RTC_CheckStackVars@8
	pop	eax
	pop	edx
	mov	ecx, DWORD PTR __$EHRec$[ebp]
	mov	DWORD PTR fs:0, ecx
	pop	ecx
	pop	edi
	pop	esi
	pop	ebx
	add	esp, 228				; 000000e4H
	cmp	ebp, esp
	call	__RTC_CheckEsp
	mov	esp, ebp
	pop	ebp
	ret	4
	npad	3
$LN8@operator@3:
	DD	1
	DD	$LN7@operator@3
$LN7@operator@3:
	DD	-32					; ffffffe0H
	DD	4
	DD	$LN5@operator@3
$LN5@operator@3:
	DB	95					; 0000005fH
	DB	76					; 0000004cH
	DB	111					; 0000006fH
	DB	99					; 00000063H
	DB	107					; 0000006bH
	DB	0
_TEXT	ENDS
;	COMDAT text$x
text$x	SEGMENT
__unwindfunclet$??4_Iterator_base@std@@QAEAAV01@ABV01@@Z$0:
	mov	esi, esp
	lea	ecx, DWORD PTR __Lock$6719[ebp]
	call	DWORD PTR __imp_??1_Lockit@std@@QAE@XZ
	cmp	esi, esp
	jmp	__RTC_CheckEsp
__ehhandler$??4_Iterator_base@std@@QAEAAV01@ABV01@@Z:
	mov	edx, DWORD PTR [esp+8]
	lea	eax, DWORD PTR [edx+12]
	mov	ecx, DWORD PTR [edx-232]
	xor	ecx, eax
	call	@__security_check_cookie@4
	mov	eax, OFFSET __ehfuncinfo$??4_Iterator_base@std@@QAEAAV01@ABV01@@Z
	jmp	___CxxFrameHandler3
text$x	ENDS
??4_Iterator_base@std@@QAEAAV01@ABV01@@Z ENDP		; std::_Iterator_base::operator=
;	COMDAT xdata$x
xdata$x	SEGMENT
__unwindtable$?_Adopt@_Iterator_base@std@@QAEXPBV_Container_base_secure@2@@Z DD 0ffffffffH
	DD	FLAT:__unwindfunclet$?_Adopt@_Iterator_base@std@@QAEXPBV_Container_base_secure@2@@Z$0
__ehfuncinfo$?_Adopt@_Iterator_base@std@@QAEXPBV_Container_base_secure@2@@Z DD 019930522H
	DD	01H
	DD	FLAT:__unwindtable$?_Adopt@_Iterator_base@std@@QAEXPBV_Container_base_secure@2@@Z
	DD	2 DUP(00H)
	DD	2 DUP(00H)
	DD	00H
	DD	01H
; Function compile flags: /Odtp /RTCcsu /ZI
xdata$x	ENDS
;	COMDAT ?_Adopt@_Iterator_base@std@@QAEXPBV_Container_base_secure@2@@Z
_TEXT	SEGMENT
__Lock$6726 = -32					; size = 4
_this$ = -20						; size = 4
__$EHRec$ = -12						; size = 12
__Parent$ = 8						; size = 4
?_Adopt@_Iterator_base@std@@QAEXPBV_Container_base_secure@2@@Z PROC ; std::_Iterator_base::_Adopt, COMDAT
; _this$ = ecx

; 165  : 		{	// adopt this iterator by parent

	push	ebp
	mov	ebp, esp
	push	-1
	push	__ehhandler$?_Adopt@_Iterator_base@std@@QAEXPBV_Container_base_secure@2@@Z
	mov	eax, DWORD PTR fs:0
	push	eax
	sub	esp, 216				; 000000d8H
	push	ebx
	push	esi
	push	edi
	push	ecx
	lea	edi, DWORD PTR [ebp-228]
	mov	ecx, 54					; 00000036H
	mov	eax, -858993460				; ccccccccH
	rep stosd
	pop	ecx
	mov	eax, DWORD PTR ___security_cookie
	xor	eax, ebp
	push	eax
	lea	eax, DWORD PTR __$EHRec$[ebp]
	mov	DWORD PTR fs:0, eax
	mov	DWORD PTR _this$[ebp], ecx

; 166  : 		if (_Mycont != _Parent)

	mov	eax, DWORD PTR _this$[ebp]
	mov	ecx, DWORD PTR [eax]
	cmp	ecx, DWORD PTR __Parent$[ebp]
	je	SHORT $LN3@Adopt

; 167  : 			{	// change parentage
; 168  : 			_Lockit _Lock(_LOCK_DEBUG);

	mov	esi, esp
	push	3
	lea	ecx, DWORD PTR __Lock$6726[ebp]
	call	DWORD PTR __imp_??0_Lockit@std@@QAE@H@Z
	cmp	esi, esp
	call	__RTC_CheckEsp
	mov	DWORD PTR __$EHRec$[ebp+8], 0

; 169  : 			_Orphan_me();

	mov	ecx, DWORD PTR _this$[ebp]
	call	?_Orphan_me@_Iterator_base@std@@QAEXXZ	; std::_Iterator_base::_Orphan_me

; 170  : 			if (_Parent != 0 && _Parent->_Myfirstiter != _IGNORE_MYITERLIST)

	cmp	DWORD PTR __Parent$[ebp], 0
	je	SHORT $LN1@Adopt
	mov	eax, DWORD PTR __Parent$[ebp]
	cmp	DWORD PTR [eax], -3			; fffffffdH
	je	SHORT $LN1@Adopt

; 171  : 				{	// switch to new parent
; 172  : 				_Mynextiter = _Parent->_Myfirstiter;

	mov	eax, DWORD PTR _this$[ebp]
	mov	ecx, DWORD PTR __Parent$[ebp]
	mov	edx, DWORD PTR [ecx]
	mov	DWORD PTR [eax+4], edx

; 173  : 				((_Container_base_secure *)_Parent)->_Myfirstiter = this;

	mov	eax, DWORD PTR __Parent$[ebp]
	mov	ecx, DWORD PTR _this$[ebp]
	mov	DWORD PTR [eax], ecx
$LN1@Adopt:

; 174  : 				}
; 175  : 			_Mycont = _Parent;

	mov	eax, DWORD PTR _this$[ebp]
	mov	ecx, DWORD PTR __Parent$[ebp]
	mov	DWORD PTR [eax], ecx

; 176  : 			}

	mov	DWORD PTR __$EHRec$[ebp+8], -1
	mov	esi, esp
	lea	ecx, DWORD PTR __Lock$6726[ebp]
	call	DWORD PTR __imp_??1_Lockit@std@@QAE@XZ
	cmp	esi, esp
	call	__RTC_CheckEsp
$LN3@Adopt:

; 177  : 		}

	push	edx
	mov	ecx, ebp
	push	eax
	lea	edx, DWORD PTR $LN9@Adopt
	call	@_RTC_CheckStackVars@8
	pop	eax
	pop	edx
	mov	ecx, DWORD PTR __$EHRec$[ebp]
	mov	DWORD PTR fs:0, ecx
	pop	ecx
	pop	edi
	pop	esi
	pop	ebx
	add	esp, 228				; 000000e4H
	cmp	ebp, esp
	call	__RTC_CheckEsp
	mov	esp, ebp
	pop	ebp
	ret	4
	npad	1
$LN9@Adopt:
	DD	1
	DD	$LN8@Adopt
$LN8@Adopt:
	DD	-32					; ffffffe0H
	DD	4
	DD	$LN6@Adopt
$LN6@Adopt:
	DB	95					; 0000005fH
	DB	76					; 0000004cH
	DB	111					; 0000006fH
	DB	99					; 00000063H
	DB	107					; 0000006bH
	DB	0
_TEXT	ENDS
;	COMDAT text$x
text$x	SEGMENT
__unwindfunclet$?_Adopt@_Iterator_base@std@@QAEXPBV_Container_base_secure@2@@Z$0:
	mov	esi, esp
	lea	ecx, DWORD PTR __Lock$6726[ebp]
	call	DWORD PTR __imp_??1_Lockit@std@@QAE@XZ
	cmp	esi, esp
	jmp	__RTC_CheckEsp
__ehhandler$?_Adopt@_Iterator_base@std@@QAEXPBV_Container_base_secure@2@@Z:
	mov	edx, DWORD PTR [esp+8]
	lea	eax, DWORD PTR [edx+12]
	mov	ecx, DWORD PTR [edx-232]
	xor	ecx, eax
	call	@__security_check_cookie@4
	mov	eax, OFFSET __ehfuncinfo$?_Adopt@_Iterator_base@std@@QAEXPBV_Container_base_secure@2@@Z
	jmp	___CxxFrameHandler3
text$x	ENDS
?_Adopt@_Iterator_base@std@@QAEXPBV_Container_base_secure@2@@Z ENDP ; std::_Iterator_base::_Adopt
; Function compile flags: /Odtp /RTCcsu /ZI
; File c:\program files\microsoft visual studio 9.0\vc\include\vector
;	COMDAT ?size@?$vector@PAVfbdFrame@DRAMsimII@@V?$allocator@PAVfbdFrame@DRAMsimII@@@std@@@std@@QBEIXZ
_TEXT	SEGMENT
_this$ = -8						; size = 4
?size@?$vector@PAVfbdFrame@DRAMsimII@@V?$allocator@PAVfbdFrame@DRAMsimII@@@std@@@std@@QBEIXZ PROC ; std::vector<DRAMsimII::fbdFrame *,std::allocator<DRAMsimII::fbdFrame *> >::size, COMDAT
; _this$ = ecx

; 725  : 		{	// return length of sequence

	push	ebp
	mov	ebp, esp
	sub	esp, 204				; 000000ccH
	push	ebx
	push	esi
	push	edi
	push	ecx
	lea	edi, DWORD PTR [ebp-204]
	mov	ecx, 51					; 00000033H
	mov	eax, -858993460				; ccccccccH
	rep stosd
	pop	ecx
	mov	DWORD PTR _this$[ebp], ecx

; 726  : 		return (_Mylast - _Myfirst);

	mov	eax, DWORD PTR _this$[ebp]
	mov	ecx, DWORD PTR _this$[ebp]
	mov	eax, DWORD PTR [eax+12]
	sub	eax, DWORD PTR [ecx+8]
	sar	eax, 2

; 727  : 		}

	pop	edi
	pop	esi
	pop	ebx
	mov	esp, ebp
	pop	ebp
	ret	0
?size@?$vector@PAVfbdFrame@DRAMsimII@@V?$allocator@PAVfbdFrame@DRAMsimII@@@std@@@std@@QBEIXZ ENDP ; std::vector<DRAMsimII::fbdFrame *,std::allocator<DRAMsimII::fbdFrame *> >::size
_TEXT	ENDS
PUBLIC	??_C@_1CK@POGJDOKA@?$AA?$CI?$AA?$CC?$AA_?$AAP?$AAo?$AAs?$AA?5?$AA?$DM?$AA?5?$AAs?$AAi?$AAz?$AAe?$AA?$CI?$AA?$CJ?$AA?$CC?$AA?0?$AA?5?$AA0?$AA?$CJ?$AA?$AA@ ; `string'
PUBLIC	??_C@_1BO@MEPPHOO@?$AA?$CC?$AAo?$AAu?$AAt?$AA?5?$AAo?$AAf?$AA?5?$AAr?$AAa?$AAn?$AAg?$AAe?$AA?$CC?$AA?$AA@ ; `string'
PUBLIC	??_C@_1NC@PGLGIDOK@?$AAs?$AAt?$AAd?$AA?3?$AA?3?$AAv?$AAe?$AAc?$AAt?$AAo?$AAr?$AA?$DM?$AAc?$AAl?$AAa?$AAs?$AAs?$AA?5?$AAD?$AAR?$AAA?$AAM?$AAs?$AAi?$AAm?$AAI?$AAI?$AA?3?$AA?3?$AAf?$AAb?$AAd@ ; `string'
PUBLIC	??_C@_1FG@CMLDHNON@?$AA?$CI?$AA?$CC?$AAS?$AAt?$AAa?$AAn?$AAd?$AAa?$AAr?$AAd?$AA?5?$AAC?$AA?$CL?$AA?$CL?$AA?5?$AAL?$AAi?$AAb?$AAr?$AAa?$AAr?$AAi?$AAe?$AAs?$AA?5?$AAO?$AAu?$AAt?$AA?5?$AAo?$AAf?$AA?5@ ; `string'
PUBLIC	??_C@_1DM@LHGCHCBA@?$AAv?$AAe?$AAc?$AAt?$AAo?$AAr?$AA?5?$AAs?$AAu?$AAb?$AAs?$AAc?$AAr?$AAi?$AAp?$AAt?$AA?5?$AAo?$AAu?$AAt?$AA?5?$AAo?$AAf?$AA?5?$AAr?$AAa?$AAn?$AAg?$AAe?$AA?$AA@ ; `string'
PUBLIC	??_C@_1HO@CONDIOEO@?$AAc?$AA?3?$AA?2?$AAp?$AAr?$AAo?$AAg?$AAr?$AAa?$AAm?$AA?5?$AAf?$AAi?$AAl?$AAe?$AAs?$AA?2?$AAm?$AAi?$AAc?$AAr?$AAo?$AAs?$AAo?$AAf?$AAt?$AA?5?$AAv?$AAi?$AAs?$AAu?$AAa@ ; `string'
EXTRN	__imp___invalid_parameter:PROC
EXTRN	__imp___CrtDbgReportW:PROC
;	COMDAT ??_C@_1CK@POGJDOKA@?$AA?$CI?$AA?$CC?$AA_?$AAP?$AAo?$AAs?$AA?5?$AA?$DM?$AA?5?$AAs?$AAi?$AAz?$AAe?$AA?$CI?$AA?$CJ?$AA?$CC?$AA?0?$AA?5?$AA0?$AA?$CJ?$AA?$AA@
CONST	SEGMENT
??_C@_1CK@POGJDOKA@?$AA?$CI?$AA?$CC?$AA_?$AAP?$AAo?$AAs?$AA?5?$AA?$DM?$AA?5?$AAs?$AAi?$AAz?$AAe?$AA?$CI?$AA?$CJ?$AA?$CC?$AA?0?$AA?5?$AA0?$AA?$CJ?$AA?$AA@ DB '('
	DB	00H, '"', 00H, '_', 00H, 'P', 00H, 'o', 00H, 's', 00H, ' ', 00H
	DB	'<', 00H, ' ', 00H, 's', 00H, 'i', 00H, 'z', 00H, 'e', 00H, '('
	DB	00H, ')', 00H, '"', 00H, ',', 00H, ' ', 00H, '0', 00H, ')', 00H
	DB	00H, 00H					; `string'
CONST	ENDS
;	COMDAT ??_C@_1BO@MEPPHOO@?$AA?$CC?$AAo?$AAu?$AAt?$AA?5?$AAo?$AAf?$AA?5?$AAr?$AAa?$AAn?$AAg?$AAe?$AA?$CC?$AA?$AA@
CONST	SEGMENT
??_C@_1BO@MEPPHOO@?$AA?$CC?$AAo?$AAu?$AAt?$AA?5?$AAo?$AAf?$AA?5?$AAr?$AAa?$AAn?$AAg?$AAe?$AA?$CC?$AA?$AA@ DB '"'
	DB	00H, 'o', 00H, 'u', 00H, 't', 00H, ' ', 00H, 'o', 00H, 'f', 00H
	DB	' ', 00H, 'r', 00H, 'a', 00H, 'n', 00H, 'g', 00H, 'e', 00H, '"'
	DB	00H, 00H, 00H				; `string'
CONST	ENDS
;	COMDAT ??_C@_1NC@PGLGIDOK@?$AAs?$AAt?$AAd?$AA?3?$AA?3?$AAv?$AAe?$AAc?$AAt?$AAo?$AAr?$AA?$DM?$AAc?$AAl?$AAa?$AAs?$AAs?$AA?5?$AAD?$AAR?$AAA?$AAM?$AAs?$AAi?$AAm?$AAI?$AAI?$AA?3?$AA?3?$AAf?$AAb?$AAd@
CONST	SEGMENT
??_C@_1NC@PGLGIDOK@?$AAs?$AAt?$AAd?$AA?3?$AA?3?$AAv?$AAe?$AAc?$AAt?$AAo?$AAr?$AA?$DM?$AAc?$AAl?$AAa?$AAs?$AAs?$AA?5?$AAD?$AAR?$AAA?$AAM?$AAs?$AAi?$AAm?$AAI?$AAI?$AA?3?$AA?3?$AAf?$AAb?$AAd@ DB 's'
	DB	00H, 't', 00H, 'd', 00H, ':', 00H, ':', 00H, 'v', 00H, 'e', 00H
	DB	'c', 00H, 't', 00H, 'o', 00H, 'r', 00H, '<', 00H, 'c', 00H, 'l'
	DB	00H, 'a', 00H, 's', 00H, 's', 00H, ' ', 00H, 'D', 00H, 'R', 00H
	DB	'A', 00H, 'M', 00H, 's', 00H, 'i', 00H, 'm', 00H, 'I', 00H, 'I'
	DB	00H, ':', 00H, ':', 00H, 'f', 00H, 'b', 00H, 'd', 00H, 'F', 00H
	DB	'r', 00H, 'a', 00H, 'm', 00H, 'e', 00H, ' ', 00H, '*', 00H, ','
	DB	00H, 'c', 00H, 'l', 00H, 'a', 00H, 's', 00H, 's', 00H, ' ', 00H
	DB	's', 00H, 't', 00H, 'd', 00H, ':', 00H, ':', 00H, 'a', 00H, 'l'
	DB	00H, 'l', 00H, 'o', 00H, 'c', 00H, 'a', 00H, 't', 00H, 'o', 00H
	DB	'r', 00H, '<', 00H, 'c', 00H, 'l', 00H, 'a', 00H, 's', 00H, 's'
	DB	00H, ' ', 00H, 'D', 00H, 'R', 00H, 'A', 00H, 'M', 00H, 's', 00H
	DB	'i', 00H, 'm', 00H, 'I', 00H, 'I', 00H, ':', 00H, ':', 00H, 'f'
	DB	00H, 'b', 00H, 'd', 00H, 'F', 00H, 'r', 00H, 'a', 00H, 'm', 00H
	DB	'e', 00H, ' ', 00H, '*', 00H, '>', 00H, ' ', 00H, '>', 00H, ':'
	DB	00H, ':', 00H, 'o', 00H, 'p', 00H, 'e', 00H, 'r', 00H, 'a', 00H
	DB	't', 00H, 'o', 00H, 'r', 00H, ' ', 00H, '[', 00H, ']', 00H, 00H
	DB	00H						; `string'
CONST	ENDS
;	COMDAT ??_C@_1FG@CMLDHNON@?$AA?$CI?$AA?$CC?$AAS?$AAt?$AAa?$AAn?$AAd?$AAa?$AAr?$AAd?$AA?5?$AAC?$AA?$CL?$AA?$CL?$AA?5?$AAL?$AAi?$AAb?$AAr?$AAa?$AAr?$AAi?$AAe?$AAs?$AA?5?$AAO?$AAu?$AAt?$AA?5?$AAo?$AAf?$AA?5@
CONST	SEGMENT
??_C@_1FG@CMLDHNON@?$AA?$CI?$AA?$CC?$AAS?$AAt?$AAa?$AAn?$AAd?$AAa?$AAr?$AAd?$AA?5?$AAC?$AA?$CL?$AA?$CL?$AA?5?$AAL?$AAi?$AAb?$AAr?$AAa?$AAr?$AAi?$AAe?$AAs?$AA?5?$AAO?$AAu?$AAt?$AA?5?$AAo?$AAf?$AA?5@ DB '('
	DB	00H, '"', 00H, 'S', 00H, 't', 00H, 'a', 00H, 'n', 00H, 'd', 00H
	DB	'a', 00H, 'r', 00H, 'd', 00H, ' ', 00H, 'C', 00H, '+', 00H, '+'
	DB	00H, ' ', 00H, 'L', 00H, 'i', 00H, 'b', 00H, 'r', 00H, 'a', 00H
	DB	'r', 00H, 'i', 00H, 'e', 00H, 's', 00H, ' ', 00H, 'O', 00H, 'u'
	DB	00H, 't', 00H, ' ', 00H, 'o', 00H, 'f', 00H, ' ', 00H, 'R', 00H
	DB	'a', 00H, 'n', 00H, 'g', 00H, 'e', 00H, '"', 00H, ',', 00H, ' '
	DB	00H, '0', 00H, ')', 00H, 00H, 00H		; `string'
CONST	ENDS
;	COMDAT ??_C@_1DM@LHGCHCBA@?$AAv?$AAe?$AAc?$AAt?$AAo?$AAr?$AA?5?$AAs?$AAu?$AAb?$AAs?$AAc?$AAr?$AAi?$AAp?$AAt?$AA?5?$AAo?$AAu?$AAt?$AA?5?$AAo?$AAf?$AA?5?$AAr?$AAa?$AAn?$AAg?$AAe?$AA?$AA@
CONST	SEGMENT
??_C@_1DM@LHGCHCBA@?$AAv?$AAe?$AAc?$AAt?$AAo?$AAr?$AA?5?$AAs?$AAu?$AAb?$AAs?$AAc?$AAr?$AAi?$AAp?$AAt?$AA?5?$AAo?$AAu?$AAt?$AA?5?$AAo?$AAf?$AA?5?$AAr?$AAa?$AAn?$AAg?$AAe?$AA?$AA@ DB 'v'
	DB	00H, 'e', 00H, 'c', 00H, 't', 00H, 'o', 00H, 'r', 00H, ' ', 00H
	DB	's', 00H, 'u', 00H, 'b', 00H, 's', 00H, 'c', 00H, 'r', 00H, 'i'
	DB	00H, 'p', 00H, 't', 00H, ' ', 00H, 'o', 00H, 'u', 00H, 't', 00H
	DB	' ', 00H, 'o', 00H, 'f', 00H, ' ', 00H, 'r', 00H, 'a', 00H, 'n'
	DB	00H, 'g', 00H, 'e', 00H, 00H, 00H		; `string'
CONST	ENDS
;	COMDAT ??_C@_1HO@CONDIOEO@?$AAc?$AA?3?$AA?2?$AAp?$AAr?$AAo?$AAg?$AAr?$AAa?$AAm?$AA?5?$AAf?$AAi?$AAl?$AAe?$AAs?$AA?2?$AAm?$AAi?$AAc?$AAr?$AAo?$AAs?$AAo?$AAf?$AAt?$AA?5?$AAv?$AAi?$AAs?$AAu?$AAa@
CONST	SEGMENT
??_C@_1HO@CONDIOEO@?$AAc?$AA?3?$AA?2?$AAp?$AAr?$AAo?$AAg?$AAr?$AAa?$AAm?$AA?5?$AAf?$AAi?$AAl?$AAe?$AAs?$AA?2?$AAm?$AAi?$AAc?$AAr?$AAo?$AAs?$AAo?$AAf?$AAt?$AA?5?$AAv?$AAi?$AAs?$AAu?$AAa@ DB 'c'
	DB	00H, ':', 00H, '\', 00H, 'p', 00H, 'r', 00H, 'o', 00H, 'g', 00H
	DB	'r', 00H, 'a', 00H, 'm', 00H, ' ', 00H, 'f', 00H, 'i', 00H, 'l'
	DB	00H, 'e', 00H, 's', 00H, '\', 00H, 'm', 00H, 'i', 00H, 'c', 00H
	DB	'r', 00H, 'o', 00H, 's', 00H, 'o', 00H, 'f', 00H, 't', 00H, ' '
	DB	00H, 'v', 00H, 'i', 00H, 's', 00H, 'u', 00H, 'a', 00H, 'l', 00H
	DB	' ', 00H, 's', 00H, 't', 00H, 'u', 00H, 'd', 00H, 'i', 00H, 'o'
	DB	00H, ' ', 00H, '9', 00H, '.', 00H, '0', 00H, '\', 00H, 'v', 00H
	DB	'c', 00H, '\', 00H, 'i', 00H, 'n', 00H, 'c', 00H, 'l', 00H, 'u'
	DB	00H, 'd', 00H, 'e', 00H, '\', 00H, 'v', 00H, 'e', 00H, 'c', 00H
	DB	't', 00H, 'o', 00H, 'r', 00H, 00H, 00H	; `string'
; Function compile flags: /Odtp /RTCcsu /ZI
CONST	ENDS
;	COMDAT ??A?$vector@PAVfbdFrame@DRAMsimII@@V?$allocator@PAVfbdFrame@DRAMsimII@@@std@@@std@@QAEAAPAVfbdFrame@DRAMsimII@@I@Z
_TEXT	SEGMENT
_this$ = -8						; size = 4
__Pos$ = 8						; size = 4
??A?$vector@PAVfbdFrame@DRAMsimII@@V?$allocator@PAVfbdFrame@DRAMsimII@@@std@@@std@@QAEAAPAVfbdFrame@DRAMsimII@@I@Z PROC ; std::vector<DRAMsimII::fbdFrame *,std::allocator<DRAMsimII::fbdFrame *> >::operator[], COMDAT
; _this$ = ecx

; 774  : 		{	// subscript mutable sequence

	push	ebp
	mov	ebp, esp
	sub	esp, 204				; 000000ccH
	push	ebx
	push	esi
	push	edi
	push	ecx
	lea	edi, DWORD PTR [ebp-204]
	mov	ecx, 51					; 00000033H
	mov	eax, -858993460				; ccccccccH
	rep stosd
	pop	ecx
	mov	DWORD PTR _this$[ebp], ecx

; 775  : 
; 776  :  #if _HAS_ITERATOR_DEBUGGING
; 777  : 		if (size() <= _Pos)

	mov	ecx, DWORD PTR _this$[ebp]
	call	?size@?$vector@PAVfbdFrame@DRAMsimII@@V?$allocator@PAVfbdFrame@DRAMsimII@@@std@@@std@@QBEIXZ ; std::vector<DRAMsimII::fbdFrame *,std::allocator<DRAMsimII::fbdFrame *> >::size
	cmp	eax, DWORD PTR __Pos$[ebp]
	ja	SHORT $LN2@operator@4

; 778  : 			{
; 779  : 			_DEBUG_ERROR("vector subscript out of range");

	mov	esi, esp
	push	779					; 0000030bH
	push	OFFSET ??_C@_1HO@CONDIOEO@?$AAc?$AA?3?$AA?2?$AAp?$AAr?$AAo?$AAg?$AAr?$AAa?$AAm?$AA?5?$AAf?$AAi?$AAl?$AAe?$AAs?$AA?2?$AAm?$AAi?$AAc?$AAr?$AAo?$AAs?$AAo?$AAf?$AAt?$AA?5?$AAv?$AAi?$AAs?$AAu?$AAa@
	push	OFFSET ??_C@_1DM@LHGCHCBA@?$AAv?$AAe?$AAc?$AAt?$AAo?$AAr?$AA?5?$AAs?$AAu?$AAb?$AAs?$AAc?$AAr?$AAi?$AAp?$AAt?$AA?5?$AAo?$AAu?$AAt?$AA?5?$AAo?$AAf?$AA?5?$AAr?$AAa?$AAn?$AAg?$AAe?$AA?$AA@
	call	DWORD PTR __imp_?_Debug_message@std@@YAXPB_W0I@Z
	add	esp, 12					; 0000000cH
	cmp	esi, esp
	call	__RTC_CheckEsp

; 780  : 			_SCL_SECURE_OUT_OF_RANGE;

	xor	eax, eax
	jne	SHORT $LN5@operator@4
	mov	esi, esp
	push	OFFSET ??_C@_1FG@CMLDHNON@?$AA?$CI?$AA?$CC?$AAS?$AAt?$AAa?$AAn?$AAd?$AAa?$AAr?$AAd?$AA?5?$AAC?$AA?$CL?$AA?$CL?$AA?5?$AAL?$AAi?$AAb?$AAr?$AAa?$AAr?$AAi?$AAe?$AAs?$AA?5?$AAO?$AAu?$AAt?$AA?5?$AAo?$AAf?$AA?5@
	push	0
	push	780					; 0000030cH
	push	OFFSET ??_C@_1HO@CONDIOEO@?$AAc?$AA?3?$AA?2?$AAp?$AAr?$AAo?$AAg?$AAr?$AAa?$AAm?$AA?5?$AAf?$AAi?$AAl?$AAe?$AAs?$AA?2?$AAm?$AAi?$AAc?$AAr?$AAo?$AAs?$AAo?$AAf?$AAt?$AA?5?$AAv?$AAi?$AAs?$AAu?$AAa@
	push	2
	call	DWORD PTR __imp___CrtDbgReportW
	add	esp, 20					; 00000014H
	cmp	esi, esp
	call	__RTC_CheckEsp
	cmp	eax, 1
	jne	SHORT $LN5@operator@4
	int	3
$LN5@operator@4:
	mov	esi, esp
	push	0
	push	780					; 0000030cH
	push	OFFSET ??_C@_1HO@CONDIOEO@?$AAc?$AA?3?$AA?2?$AAp?$AAr?$AAo?$AAg?$AAr?$AAa?$AAm?$AA?5?$AAf?$AAi?$AAl?$AAe?$AAs?$AA?2?$AAm?$AAi?$AAc?$AAr?$AAo?$AAs?$AAo?$AAf?$AAt?$AA?5?$AAv?$AAi?$AAs?$AAu?$AAa@
	push	OFFSET ??_C@_1NC@PGLGIDOK@?$AAs?$AAt?$AAd?$AA?3?$AA?3?$AAv?$AAe?$AAc?$AAt?$AAo?$AAr?$AA?$DM?$AAc?$AAl?$AAa?$AAs?$AAs?$AA?5?$AAD?$AAR?$AAA?$AAM?$AAs?$AAi?$AAm?$AAI?$AAI?$AA?3?$AA?3?$AAf?$AAb?$AAd@
	push	OFFSET ??_C@_1BO@MEPPHOO@?$AA?$CC?$AAo?$AAu?$AAt?$AA?5?$AAo?$AAf?$AA?5?$AAr?$AAa?$AAn?$AAg?$AAe?$AA?$CC?$AA?$AA@
	call	DWORD PTR __imp___invalid_parameter
	add	esp, 20					; 00000014H
	cmp	esi, esp
	call	__RTC_CheckEsp
$LN2@operator@4:

; 781  : 			}
; 782  :  #endif /* _HAS_ITERATOR_DEBUGGING */
; 783  : 		_SCL_SECURE_VALIDATE_RANGE(_Pos < size());

	mov	ecx, DWORD PTR _this$[ebp]
	call	?size@?$vector@PAVfbdFrame@DRAMsimII@@V?$allocator@PAVfbdFrame@DRAMsimII@@@std@@@std@@QBEIXZ ; std::vector<DRAMsimII::fbdFrame *,std::allocator<DRAMsimII::fbdFrame *> >::size
	cmp	DWORD PTR __Pos$[ebp], eax
	jb	SHORT $LN1@operator@4
	xor	eax, eax
	jne	SHORT $LN6@operator@4
	mov	esi, esp
	push	OFFSET ??_C@_1CK@POGJDOKA@?$AA?$CI?$AA?$CC?$AA_?$AAP?$AAo?$AAs?$AA?5?$AA?$DM?$AA?5?$AAs?$AAi?$AAz?$AAe?$AA?$CI?$AA?$CJ?$AA?$CC?$AA?0?$AA?5?$AA0?$AA?$CJ?$AA?$AA@
	push	0
	push	783					; 0000030fH
	push	OFFSET ??_C@_1HO@CONDIOEO@?$AAc?$AA?3?$AA?2?$AAp?$AAr?$AAo?$AAg?$AAr?$AAa?$AAm?$AA?5?$AAf?$AAi?$AAl?$AAe?$AAs?$AA?2?$AAm?$AAi?$AAc?$AAr?$AAo?$AAs?$AAo?$AAf?$AAt?$AA?5?$AAv?$AAi?$AAs?$AAu?$AAa@
	push	2
	call	DWORD PTR __imp___CrtDbgReportW
	add	esp, 20					; 00000014H
	cmp	esi, esp
	call	__RTC_CheckEsp
	cmp	eax, 1
	jne	SHORT $LN6@operator@4
	int	3
$LN6@operator@4:
	mov	esi, esp
	push	0
	push	783					; 0000030fH
	push	OFFSET ??_C@_1HO@CONDIOEO@?$AAc?$AA?3?$AA?2?$AAp?$AAr?$AAo?$AAg?$AAr?$AAa?$AAm?$AA?5?$AAf?$AAi?$AAl?$AAe?$AAs?$AA?2?$AAm?$AAi?$AAc?$AAr?$AAo?$AAs?$AAo?$AAf?$AAt?$AA?5?$AAv?$AAi?$AAs?$AAu?$AAa@
	push	OFFSET ??_C@_1NC@PGLGIDOK@?$AAs?$AAt?$AAd?$AA?3?$AA?3?$AAv?$AAe?$AAc?$AAt?$AAo?$AAr?$AA?$DM?$AAc?$AAl?$AAa?$AAs?$AAs?$AA?5?$AAD?$AAR?$AAA?$AAM?$AAs?$AAi?$AAm?$AAI?$AAI?$AA?3?$AA?3?$AAf?$AAb?$AAd@
	push	OFFSET ??_C@_1BO@MEPPHOO@?$AA?$CC?$AAo?$AAu?$AAt?$AA?5?$AAo?$AAf?$AA?5?$AAr?$AAa?$AAn?$AAg?$AAe?$AA?$CC?$AA?$AA@
	call	DWORD PTR __imp___invalid_parameter
	add	esp, 20					; 00000014H
	cmp	esi, esp
	call	__RTC_CheckEsp
$LN1@operator@4:

; 784  : 
; 785  : 		return (*(_Myfirst + _Pos));

	mov	eax, DWORD PTR _this$[ebp]
	mov	ecx, DWORD PTR [eax+8]
	mov	edx, DWORD PTR __Pos$[ebp]
	lea	eax, DWORD PTR [ecx+edx*4]

; 786  : 		}

	pop	edi
	pop	esi
	pop	ebx
	add	esp, 204				; 000000ccH
	cmp	ebp, esp
	call	__RTC_CheckEsp
	mov	esp, ebp
	pop	ebp
	ret	4
??A?$vector@PAVfbdFrame@DRAMsimII@@V?$allocator@PAVfbdFrame@DRAMsimII@@@std@@@std@@QAEAAPAVfbdFrame@DRAMsimII@@I@Z ENDP ; std::vector<DRAMsimII::fbdFrame *,std::allocator<DRAMsimII::fbdFrame *> >::operator[]
_TEXT	ENDS
PUBLIC	??0?$_Vector_const_iterator@PAVfbdFrame@DRAMsimII@@V?$allocator@PAVfbdFrame@DRAMsimII@@@std@@@std@@QAE@PAPAVfbdFrame@DRAMsimII@@PBV_Container_base_secure@1@@Z ; std::_Vector_const_iterator<DRAMsimII::fbdFrame *,std::allocator<DRAMsimII::fbdFrame *> >::_Vector_const_iterator<DRAMsimII::fbdFrame *,std::allocator<DRAMsimII::fbdFrame *> >
; Function compile flags: /Odtp /RTCcsu /ZI
;	COMDAT ??0?$_Vector_iterator@PAVfbdFrame@DRAMsimII@@V?$allocator@PAVfbdFrame@DRAMsimII@@@std@@@std@@QAE@PAPAVfbdFrame@DRAMsimII@@PBV_Container_base_secure@1@@Z
_TEXT	SEGMENT
_this$ = -8						; size = 4
__Ptr$ = 8						; size = 4
__Pvector$ = 12						; size = 4
??0?$_Vector_iterator@PAVfbdFrame@DRAMsimII@@V?$allocator@PAVfbdFrame@DRAMsimII@@@std@@@std@@QAE@PAPAVfbdFrame@DRAMsimII@@PBV_Container_base_secure@1@@Z PROC ; std::_Vector_iterator<DRAMsimII::fbdFrame *,std::allocator<DRAMsimII::fbdFrame *> >::_Vector_iterator<DRAMsimII::fbdFrame *,std::allocator<DRAMsimII::fbdFrame *> >, COMDAT
; _this$ = ecx

; 321  : 		{	// construct with pointer _Ptr

	push	ebp
	mov	ebp, esp
	sub	esp, 204				; 000000ccH
	push	ebx
	push	esi
	push	edi
	push	ecx
	lea	edi, DWORD PTR [ebp-204]
	mov	ecx, 51					; 00000033H
	mov	eax, -858993460				; ccccccccH
	rep stosd
	pop	ecx
	mov	DWORD PTR _this$[ebp], ecx
	mov	eax, DWORD PTR __Pvector$[ebp]
	push	eax
	mov	ecx, DWORD PTR __Ptr$[ebp]
	push	ecx
	mov	ecx, DWORD PTR _this$[ebp]
	call	??0?$_Vector_const_iterator@PAVfbdFrame@DRAMsimII@@V?$allocator@PAVfbdFrame@DRAMsimII@@@std@@@std@@QAE@PAPAVfbdFrame@DRAMsimII@@PBV_Container_base_secure@1@@Z ; std::_Vector_const_iterator<DRAMsimII::fbdFrame *,std::allocator<DRAMsimII::fbdFrame *> >::_Vector_const_iterator<DRAMsimII::fbdFrame *,std::allocator<DRAMsimII::fbdFrame *> >

; 322  : 		}

	mov	eax, DWORD PTR _this$[ebp]
	pop	edi
	pop	esi
	pop	ebx
	add	esp, 204				; 000000ccH
	cmp	ebp, esp
	call	__RTC_CheckEsp
	mov	esp, ebp
	pop	ebp
	ret	8
??0?$_Vector_iterator@PAVfbdFrame@DRAMsimII@@V?$allocator@PAVfbdFrame@DRAMsimII@@@std@@@std@@QAE@PAPAVfbdFrame@DRAMsimII@@PBV_Container_base_secure@1@@Z ENDP ; std::_Vector_iterator<DRAMsimII::fbdFrame *,std::allocator<DRAMsimII::fbdFrame *> >::_Vector_iterator<DRAMsimII::fbdFrame *,std::allocator<DRAMsimII::fbdFrame *> >
_TEXT	ENDS
PUBLIC	??E?$_Vector_const_iterator@PAVfbdFrame@DRAMsimII@@V?$allocator@PAVfbdFrame@DRAMsimII@@@std@@@std@@QAEAAV01@XZ ; std::_Vector_const_iterator<DRAMsimII::fbdFrame *,std::allocator<DRAMsimII::fbdFrame *> >::operator++
; Function compile flags: /Odtp /RTCcsu /ZI
;	COMDAT ??E?$_Vector_iterator@PAVfbdFrame@DRAMsimII@@V?$allocator@PAVfbdFrame@DRAMsimII@@@std@@@std@@QAEAAV01@XZ
_TEXT	SEGMENT
_this$ = -8						; size = 4
??E?$_Vector_iterator@PAVfbdFrame@DRAMsimII@@V?$allocator@PAVfbdFrame@DRAMsimII@@@std@@@std@@QAEAAV01@XZ PROC ; std::_Vector_iterator<DRAMsimII::fbdFrame *,std::allocator<DRAMsimII::fbdFrame *> >::operator++, COMDAT
; _this$ = ecx

; 348  : 		{	// preincrement

	push	ebp
	mov	ebp, esp
	sub	esp, 204				; 000000ccH
	push	ebx
	push	esi
	push	edi
	push	ecx
	lea	edi, DWORD PTR [ebp-204]
	mov	ecx, 51					; 00000033H
	mov	eax, -858993460				; ccccccccH
	rep stosd
	pop	ecx
	mov	DWORD PTR _this$[ebp], ecx

; 349  : 		++(*(_Mybase *)this);

	mov	ecx, DWORD PTR _this$[ebp]
	call	??E?$_Vector_const_iterator@PAVfbdFrame@DRAMsimII@@V?$allocator@PAVfbdFrame@DRAMsimII@@@std@@@std@@QAEAAV01@XZ ; std::_Vector_const_iterator<DRAMsimII::fbdFrame *,std::allocator<DRAMsimII::fbdFrame *> >::operator++

; 350  : 		return (*this);

	mov	eax, DWORD PTR _this$[ebp]

; 351  : 		}

	pop	edi
	pop	esi
	pop	ebx
	add	esp, 204				; 000000ccH
	cmp	ebp, esp
	call	__RTC_CheckEsp
	mov	esp, ebp
	pop	ebp
	ret	0
??E?$_Vector_iterator@PAVfbdFrame@DRAMsimII@@V?$allocator@PAVfbdFrame@DRAMsimII@@@std@@@std@@QAEAAV01@XZ ENDP ; std::_Vector_iterator<DRAMsimII::fbdFrame *,std::allocator<DRAMsimII::fbdFrame *> >::operator++
_TEXT	ENDS
PUBLIC	??_C@_1PA@CAJMBLNM@?$AAs?$AAt?$AAd?$AA?3?$AA?3?$AA_?$AAV?$AAe?$AAc?$AAt?$AAo?$AAr?$AA_?$AAc?$AAo?$AAn?$AAs?$AAt?$AA_?$AAi?$AAt?$AAe?$AAr?$AAa?$AAt?$AAo?$AAr?$AA?$DM?$AAc?$AAl?$AAa?$AAs@ ; `string'
PUBLIC	??_C@_1EG@FOHJJHAC@?$AAv?$AAe?$AAc?$AAt?$AAo?$AAr?$AA?5?$AAi?$AAt?$AAe?$AAr?$AAa?$AAt?$AAo?$AAr?$AA?5?$AAn?$AAo?$AAt?$AA?5?$AAd?$AAe?$AAr?$AAe?$AAf?$AAe?$AAr?$AAe?$AAn?$AAc?$AAa?$AAb@ ; `string'
;	COMDAT ??_C@_1PA@CAJMBLNM@?$AAs?$AAt?$AAd?$AA?3?$AA?3?$AA_?$AAV?$AAe?$AAc?$AAt?$AAo?$AAr?$AA_?$AAc?$AAo?$AAn?$AAs?$AAt?$AA_?$AAi?$AAt?$AAe?$AAr?$AAa?$AAt?$AAo?$AAr?$AA?$DM?$AAc?$AAl?$AAa?$AAs@
CONST	SEGMENT
??_C@_1PA@CAJMBLNM@?$AAs?$AAt?$AAd?$AA?3?$AA?3?$AA_?$AAV?$AAe?$AAc?$AAt?$AAo?$AAr?$AA_?$AAc?$AAo?$AAn?$AAs?$AAt?$AA_?$AAi?$AAt?$AAe?$AAr?$AAa?$AAt?$AAo?$AAr?$AA?$DM?$AAc?$AAl?$AAa?$AAs@ DB 's'
	DB	00H, 't', 00H, 'd', 00H, ':', 00H, ':', 00H, '_', 00H, 'V', 00H
	DB	'e', 00H, 'c', 00H, 't', 00H, 'o', 00H, 'r', 00H, '_', 00H, 'c'
	DB	00H, 'o', 00H, 'n', 00H, 's', 00H, 't', 00H, '_', 00H, 'i', 00H
	DB	't', 00H, 'e', 00H, 'r', 00H, 'a', 00H, 't', 00H, 'o', 00H, 'r'
	DB	00H, '<', 00H, 'c', 00H, 'l', 00H, 'a', 00H, 's', 00H, 's', 00H
	DB	' ', 00H, 'D', 00H, 'R', 00H, 'A', 00H, 'M', 00H, 's', 00H, 'i'
	DB	00H, 'm', 00H, 'I', 00H, 'I', 00H, ':', 00H, ':', 00H, 'f', 00H
	DB	'b', 00H, 'd', 00H, 'F', 00H, 'r', 00H, 'a', 00H, 'm', 00H, 'e'
	DB	00H, ' ', 00H, '*', 00H, ',', 00H, 'c', 00H, 'l', 00H, 'a', 00H
	DB	's', 00H, 's', 00H, ' ', 00H, 's', 00H, 't', 00H, 'd', 00H, ':'
	DB	00H, ':', 00H, 'a', 00H, 'l', 00H, 'l', 00H, 'o', 00H, 'c', 00H
	DB	'a', 00H, 't', 00H, 'o', 00H, 'r', 00H, '<', 00H, 'c', 00H, 'l'
	DB	00H, 'a', 00H, 's', 00H, 's', 00H, ' ', 00H, 'D', 00H, 'R', 00H
	DB	'A', 00H, 'M', 00H, 's', 00H, 'i', 00H, 'm', 00H, 'I', 00H, 'I'
	DB	00H, ':', 00H, ':', 00H, 'f', 00H, 'b', 00H, 'd', 00H, 'F', 00H
	DB	'r', 00H, 'a', 00H, 'm', 00H, 'e', 00H, ' ', 00H, '*', 00H, '>'
	DB	00H, ' ', 00H, '>', 00H, ':', 00H, ':', 00H, 'o', 00H, 'p', 00H
	DB	'e', 00H, 'r', 00H, 'a', 00H, 't', 00H, 'o', 00H, 'r', 00H, ' '
	DB	00H, '*', 00H, 00H, 00H			; `string'
CONST	ENDS
;	COMDAT ??_C@_1EG@FOHJJHAC@?$AAv?$AAe?$AAc?$AAt?$AAo?$AAr?$AA?5?$AAi?$AAt?$AAe?$AAr?$AAa?$AAt?$AAo?$AAr?$AA?5?$AAn?$AAo?$AAt?$AA?5?$AAd?$AAe?$AAr?$AAe?$AAf?$AAe?$AAr?$AAe?$AAn?$AAc?$AAa?$AAb@
CONST	SEGMENT
??_C@_1EG@FOHJJHAC@?$AAv?$AAe?$AAc?$AAt?$AAo?$AAr?$AA?5?$AAi?$AAt?$AAe?$AAr?$AAa?$AAt?$AAo?$AAr?$AA?5?$AAn?$AAo?$AAt?$AA?5?$AAd?$AAe?$AAr?$AAe?$AAf?$AAe?$AAr?$AAe?$AAn?$AAc?$AAa?$AAb@ DB 'v'
	DB	00H, 'e', 00H, 'c', 00H, 't', 00H, 'o', 00H, 'r', 00H, ' ', 00H
	DB	'i', 00H, 't', 00H, 'e', 00H, 'r', 00H, 'a', 00H, 't', 00H, 'o'
	DB	00H, 'r', 00H, ' ', 00H, 'n', 00H, 'o', 00H, 't', 00H, ' ', 00H
	DB	'd', 00H, 'e', 00H, 'r', 00H, 'e', 00H, 'f', 00H, 'e', 00H, 'r'
	DB	00H, 'e', 00H, 'n', 00H, 'c', 00H, 'a', 00H, 'b', 00H, 'l', 00H
	DB	'e', 00H, 00H, 00H				; `string'
; Function compile flags: /Odtp /RTCcsu /ZI
CONST	ENDS
;	COMDAT ??D?$_Vector_const_iterator@PAVfbdFrame@DRAMsimII@@V?$allocator@PAVfbdFrame@DRAMsimII@@@std@@@std@@QBEABQAVfbdFrame@DRAMsimII@@XZ
_TEXT	SEGMENT
_this$ = -8						; size = 4
??D?$_Vector_const_iterator@PAVfbdFrame@DRAMsimII@@V?$allocator@PAVfbdFrame@DRAMsimII@@@std@@@std@@QBEABQAVfbdFrame@DRAMsimII@@XZ PROC ; std::_Vector_const_iterator<DRAMsimII::fbdFrame *,std::allocator<DRAMsimII::fbdFrame *> >::operator*, COMDAT
; _this$ = ecx

; 91   : 		{	// return designated object

	push	ebp
	mov	ebp, esp
	sub	esp, 204				; 000000ccH
	push	ebx
	push	esi
	push	edi
	push	ecx
	lea	edi, DWORD PTR [ebp-204]
	mov	ecx, 51					; 00000033H
	mov	eax, -858993460				; ccccccccH
	rep stosd
	pop	ecx
	mov	DWORD PTR _this$[ebp], ecx

; 92   : 
; 93   :  #if _HAS_ITERATOR_DEBUGGING
; 94   : 		if (this->_Mycont == 0
; 95   : 			|| _Myptr < ((_Myvec *)this->_Mycont)->_Myfirst
; 96   : 			|| ((_Myvec *)this->_Mycont)->_Mylast <= _Myptr)

	mov	eax, DWORD PTR _this$[ebp]
	cmp	DWORD PTR [eax], 0
	je	SHORT $LN1@operator@5
	mov	eax, DWORD PTR _this$[ebp]
	mov	ecx, DWORD PTR [eax]
	mov	edx, DWORD PTR _this$[ebp]
	mov	eax, DWORD PTR [edx+8]
	cmp	eax, DWORD PTR [ecx+8]
	jb	SHORT $LN1@operator@5
	mov	eax, DWORD PTR _this$[ebp]
	mov	ecx, DWORD PTR [eax]
	mov	edx, DWORD PTR _this$[ebp]
	mov	eax, DWORD PTR [ecx+12]
	cmp	eax, DWORD PTR [edx+8]
	ja	SHORT $LN2@operator@5
$LN1@operator@5:

; 97   : 			{
; 98   : 			_DEBUG_ERROR("vector iterator not dereferencable");

	mov	esi, esp
	push	98					; 00000062H
	push	OFFSET ??_C@_1HO@CONDIOEO@?$AAc?$AA?3?$AA?2?$AAp?$AAr?$AAo?$AAg?$AAr?$AAa?$AAm?$AA?5?$AAf?$AAi?$AAl?$AAe?$AAs?$AA?2?$AAm?$AAi?$AAc?$AAr?$AAo?$AAs?$AAo?$AAf?$AAt?$AA?5?$AAv?$AAi?$AAs?$AAu?$AAa@
	push	OFFSET ??_C@_1EG@FOHJJHAC@?$AAv?$AAe?$AAc?$AAt?$AAo?$AAr?$AA?5?$AAi?$AAt?$AAe?$AAr?$AAa?$AAt?$AAo?$AAr?$AA?5?$AAn?$AAo?$AAt?$AA?5?$AAd?$AAe?$AAr?$AAe?$AAf?$AAe?$AAr?$AAe?$AAn?$AAc?$AAa?$AAb@
	call	DWORD PTR __imp_?_Debug_message@std@@YAXPB_W0I@Z
	add	esp, 12					; 0000000cH
	cmp	esi, esp
	call	__RTC_CheckEsp

; 99   : 			_SCL_SECURE_OUT_OF_RANGE;

	xor	eax, eax
	jne	SHORT $LN5@operator@5
	mov	esi, esp
	push	OFFSET ??_C@_1FG@CMLDHNON@?$AA?$CI?$AA?$CC?$AAS?$AAt?$AAa?$AAn?$AAd?$AAa?$AAr?$AAd?$AA?5?$AAC?$AA?$CL?$AA?$CL?$AA?5?$AAL?$AAi?$AAb?$AAr?$AAa?$AAr?$AAi?$AAe?$AAs?$AA?5?$AAO?$AAu?$AAt?$AA?5?$AAo?$AAf?$AA?5@
	push	0
	push	99					; 00000063H
	push	OFFSET ??_C@_1HO@CONDIOEO@?$AAc?$AA?3?$AA?2?$AAp?$AAr?$AAo?$AAg?$AAr?$AAa?$AAm?$AA?5?$AAf?$AAi?$AAl?$AAe?$AAs?$AA?2?$AAm?$AAi?$AAc?$AAr?$AAo?$AAs?$AAo?$AAf?$AAt?$AA?5?$AAv?$AAi?$AAs?$AAu?$AAa@
	push	2
	call	DWORD PTR __imp___CrtDbgReportW
	add	esp, 20					; 00000014H
	cmp	esi, esp
	call	__RTC_CheckEsp
	cmp	eax, 1
	jne	SHORT $LN5@operator@5
	int	3
$LN5@operator@5:
	mov	esi, esp
	push	0
	push	99					; 00000063H
	push	OFFSET ??_C@_1HO@CONDIOEO@?$AAc?$AA?3?$AA?2?$AAp?$AAr?$AAo?$AAg?$AAr?$AAa?$AAm?$AA?5?$AAf?$AAi?$AAl?$AAe?$AAs?$AA?2?$AAm?$AAi?$AAc?$AAr?$AAo?$AAs?$AAo?$AAf?$AAt?$AA?5?$AAv?$AAi?$AAs?$AAu?$AAa@
	push	OFFSET ??_C@_1PA@CAJMBLNM@?$AAs?$AAt?$AAd?$AA?3?$AA?3?$AA_?$AAV?$AAe?$AAc?$AAt?$AAo?$AAr?$AA_?$AAc?$AAo?$AAn?$AAs?$AAt?$AA_?$AAi?$AAt?$AAe?$AAr?$AAa?$AAt?$AAo?$AAr?$AA?$DM?$AAc?$AAl?$AAa?$AAs@
	push	OFFSET ??_C@_1BO@MEPPHOO@?$AA?$CC?$AAo?$AAu?$AAt?$AA?5?$AAo?$AAf?$AA?5?$AAr?$AAa?$AAn?$AAg?$AAe?$AA?$CC?$AA?$AA@
	call	DWORD PTR __imp___invalid_parameter
	add	esp, 20					; 00000014H
	cmp	esi, esp
	call	__RTC_CheckEsp
$LN2@operator@5:

; 100  : 			}
; 101  :  #else
; 102  :  		_SCL_SECURE_VALIDATE(this->_Has_container());
; 103  : 		_SCL_SECURE_VALIDATE_RANGE(_Myptr < ((_Myvec *)(this->_Getmycont()))->_Mylast);
; 104  :  #endif /* _HAS_ITERATOR_DEBUGGING */
; 105  : 
; 106  : 		return (*_Myptr);

	mov	eax, DWORD PTR _this$[ebp]
	mov	eax, DWORD PTR [eax+8]

; 107  : 		}

	pop	edi
	pop	esi
	pop	ebx
	add	esp, 204				; 000000ccH
	cmp	ebp, esp
	call	__RTC_CheckEsp
	mov	esp, ebp
	pop	ebp
	ret	0
??D?$_Vector_const_iterator@PAVfbdFrame@DRAMsimII@@V?$allocator@PAVfbdFrame@DRAMsimII@@@std@@@std@@QBEABQAVfbdFrame@DRAMsimII@@XZ ENDP ; std::_Vector_const_iterator<DRAMsimII::fbdFrame *,std::allocator<DRAMsimII::fbdFrame *> >::operator*
_TEXT	ENDS
PUBLIC	?_Compat@?$_Vector_const_iterator@PAVfbdFrame@DRAMsimII@@V?$allocator@PAVfbdFrame@DRAMsimII@@@std@@@std@@QBEXABV12@@Z ; std::_Vector_const_iterator<DRAMsimII::fbdFrame *,std::allocator<DRAMsimII::fbdFrame *> >::_Compat
; Function compile flags: /Odtp /RTCcsu /ZI
;	COMDAT ??8?$_Vector_const_iterator@PAVfbdFrame@DRAMsimII@@V?$allocator@PAVfbdFrame@DRAMsimII@@@std@@@std@@QBE_NABV01@@Z
_TEXT	SEGMENT
_this$ = -8						; size = 4
__Right$ = 8						; size = 4
??8?$_Vector_const_iterator@PAVfbdFrame@DRAMsimII@@V?$allocator@PAVfbdFrame@DRAMsimII@@@std@@@std@@QBE_NABV01@@Z PROC ; std::_Vector_const_iterator<DRAMsimII::fbdFrame *,std::allocator<DRAMsimII::fbdFrame *> >::operator==, COMDAT
; _this$ = ecx

; 203  : 		{	// test for iterator equality

	push	ebp
	mov	ebp, esp
	sub	esp, 204				; 000000ccH
	push	ebx
	push	esi
	push	edi
	push	ecx
	lea	edi, DWORD PTR [ebp-204]
	mov	ecx, 51					; 00000033H
	mov	eax, -858993460				; ccccccccH
	rep stosd
	pop	ecx
	mov	DWORD PTR _this$[ebp], ecx

; 204  : 
; 205  :  #if _HAS_ITERATOR_DEBUGGING
; 206  : 		_Compat(_Right);

	mov	eax, DWORD PTR __Right$[ebp]
	push	eax
	mov	ecx, DWORD PTR _this$[ebp]
	call	?_Compat@?$_Vector_const_iterator@PAVfbdFrame@DRAMsimII@@V?$allocator@PAVfbdFrame@DRAMsimII@@@std@@@std@@QBEXABV12@@Z ; std::_Vector_const_iterator<DRAMsimII::fbdFrame *,std::allocator<DRAMsimII::fbdFrame *> >::_Compat

; 207  :  #else
; 208  : 		_SCL_SECURE_VALIDATE(this->_Has_container() && this->_Same_container(_Right));
; 209  :  #endif /* _HAS_ITERATOR_DEBUGGING */
; 210  : 
; 211  : 		return (_Myptr == _Right._Myptr);

	mov	eax, DWORD PTR _this$[ebp]
	mov	ecx, DWORD PTR __Right$[ebp]
	mov	edx, DWORD PTR [eax+8]
	xor	eax, eax
	cmp	edx, DWORD PTR [ecx+8]
	sete	al
	mov	ecx, eax
	call	@_RTC_Check_4_to_1@4

; 212  : 		}

	pop	edi
	pop	esi
	pop	ebx
	add	esp, 204				; 000000ccH
	cmp	ebp, esp
	call	__RTC_CheckEsp
	mov	esp, ebp
	pop	ebp
	ret	4
??8?$_Vector_const_iterator@PAVfbdFrame@DRAMsimII@@V?$allocator@PAVfbdFrame@DRAMsimII@@@std@@@std@@QBE_NABV01@@Z ENDP ; std::_Vector_const_iterator<DRAMsimII::fbdFrame *,std::allocator<DRAMsimII::fbdFrame *> >::operator==
_TEXT	ENDS
PUBLIC	??_C@_1CG@JNLFBNGN@?$AA?$CC?$AAi?$AAn?$AAv?$AAa?$AAl?$AAi?$AAd?$AA?5?$AAa?$AAr?$AAg?$AAu?$AAm?$AAe?$AAn?$AAt?$AA?$CC?$AA?$AA@ ; `string'
PUBLIC	??_C@_1BAI@GJELONEF@?$AAs?$AAt?$AAd?$AA?3?$AA?3?$AA_?$AAV?$AAe?$AAc?$AAt?$AAo?$AAr?$AA_?$AAc?$AAo?$AAn?$AAs?$AAt?$AA_?$AAi?$AAt?$AAe?$AAr?$AAa?$AAt?$AAo?$AAr?$AA?$DM?$AAc?$AAl?$AAa?$AAs@ ; `string'
PUBLIC	??_C@_1NK@JLHOCNGO@?$AA?$CI?$AA?$CC?$AA_?$AAP?$AAv?$AAe?$AAc?$AAt?$AAo?$AAr?$AA?5?$AA?$DN?$AA?$DN?$AA?5?$AAN?$AAU?$AAL?$AAL?$AA?5?$AA?$HM?$AA?$HM?$AA?5?$AA?$CI?$AA?$CI?$AA?$CI?$AA_?$AAM?$AAy?$AAv?$AAe?$AAc?$AA?5@ ; `string'
PUBLIC	??0?$_Ranit@PAVfbdFrame@DRAMsimII@@HPBQAV12@ABQAV12@@std@@QAE@XZ ; std::_Ranit<DRAMsimII::fbdFrame *,int,DRAMsimII::fbdFrame * const *,DRAMsimII::fbdFrame * const &>::_Ranit<DRAMsimII::fbdFrame *,int,DRAMsimII::fbdFrame * const *,DRAMsimII::fbdFrame * const &>
;	COMDAT ??_C@_1CG@JNLFBNGN@?$AA?$CC?$AAi?$AAn?$AAv?$AAa?$AAl?$AAi?$AAd?$AA?5?$AAa?$AAr?$AAg?$AAu?$AAm?$AAe?$AAn?$AAt?$AA?$CC?$AA?$AA@
CONST	SEGMENT
??_C@_1CG@JNLFBNGN@?$AA?$CC?$AAi?$AAn?$AAv?$AAa?$AAl?$AAi?$AAd?$AA?5?$AAa?$AAr?$AAg?$AAu?$AAm?$AAe?$AAn?$AAt?$AA?$CC?$AA?$AA@ DB '"'
	DB	00H, 'i', 00H, 'n', 00H, 'v', 00H, 'a', 00H, 'l', 00H, 'i', 00H
	DB	'd', 00H, ' ', 00H, 'a', 00H, 'r', 00H, 'g', 00H, 'u', 00H, 'm'
	DB	00H, 'e', 00H, 'n', 00H, 't', 00H, '"', 00H, 00H, 00H ; `string'
CONST	ENDS
;	COMDAT ??_C@_1BAI@GJELONEF@?$AAs?$AAt?$AAd?$AA?3?$AA?3?$AA_?$AAV?$AAe?$AAc?$AAt?$AAo?$AAr?$AA_?$AAc?$AAo?$AAn?$AAs?$AAt?$AA_?$AAi?$AAt?$AAe?$AAr?$AAa?$AAt?$AAo?$AAr?$AA?$DM?$AAc?$AAl?$AAa?$AAs@
CONST	SEGMENT
??_C@_1BAI@GJELONEF@?$AAs?$AAt?$AAd?$AA?3?$AA?3?$AA_?$AAV?$AAe?$AAc?$AAt?$AAo?$AAr?$AA_?$AAc?$AAo?$AAn?$AAs?$AAt?$AA_?$AAi?$AAt?$AAe?$AAr?$AAa?$AAt?$AAo?$AAr?$AA?$DM?$AAc?$AAl?$AAa?$AAs@ DB 's'
	DB	00H, 't', 00H, 'd', 00H, ':', 00H, ':', 00H, '_', 00H, 'V', 00H
	DB	'e', 00H, 'c', 00H, 't', 00H, 'o', 00H, 'r', 00H, '_', 00H, 'c'
	DB	00H, 'o', 00H, 'n', 00H, 's', 00H, 't', 00H, '_', 00H, 'i', 00H
	DB	't', 00H, 'e', 00H, 'r', 00H, 'a', 00H, 't', 00H, 'o', 00H, 'r'
	DB	00H, '<', 00H, 'c', 00H, 'l', 00H, 'a', 00H, 's', 00H, 's', 00H
	DB	' ', 00H, 'D', 00H, 'R', 00H, 'A', 00H, 'M', 00H, 's', 00H, 'i'
	DB	00H, 'm', 00H, 'I', 00H, 'I', 00H, ':', 00H, ':', 00H, 'f', 00H
	DB	'b', 00H, 'd', 00H, 'F', 00H, 'r', 00H, 'a', 00H, 'm', 00H, 'e'
	DB	00H, ' ', 00H, '*', 00H, ',', 00H, 'c', 00H, 'l', 00H, 'a', 00H
	DB	's', 00H, 's', 00H, ' ', 00H, 's', 00H, 't', 00H, 'd', 00H, ':'
	DB	00H, ':', 00H, 'a', 00H, 'l', 00H, 'l', 00H, 'o', 00H, 'c', 00H
	DB	'a', 00H, 't', 00H, 'o', 00H, 'r', 00H, '<', 00H, 'c', 00H, 'l'
	DB	00H, 'a', 00H, 's', 00H, 's', 00H, ' ', 00H, 'D', 00H, 'R', 00H
	DB	'A', 00H, 'M', 00H, 's', 00H, 'i', 00H, 'm', 00H, 'I', 00H, 'I'
	DB	00H, ':', 00H, ':', 00H, 'f', 00H, 'b', 00H, 'd', 00H, 'F', 00H
	DB	'r', 00H, 'a', 00H, 'm', 00H, 'e', 00H, ' ', 00H, '*', 00H, '>'
	DB	00H, ' ', 00H, '>', 00H, ':', 00H, ':', 00H, '_', 00H, 'V', 00H
	DB	'e', 00H, 'c', 00H, 't', 00H, 'o', 00H, 'r', 00H, '_', 00H, 'c'
	DB	00H, 'o', 00H, 'n', 00H, 's', 00H, 't', 00H, '_', 00H, 'i', 00H
	DB	't', 00H, 'e', 00H, 'r', 00H, 'a', 00H, 't', 00H, 'o', 00H, 'r'
	DB	00H, 00H, 00H				; `string'
CONST	ENDS
;	COMDAT ??_C@_1NK@JLHOCNGO@?$AA?$CI?$AA?$CC?$AA_?$AAP?$AAv?$AAe?$AAc?$AAt?$AAo?$AAr?$AA?5?$AA?$DN?$AA?$DN?$AA?5?$AAN?$AAU?$AAL?$AAL?$AA?5?$AA?$HM?$AA?$HM?$AA?5?$AA?$CI?$AA?$CI?$AA?$CI?$AA_?$AAM?$AAy?$AAv?$AAe?$AAc?$AA?5@
CONST	SEGMENT
??_C@_1NK@JLHOCNGO@?$AA?$CI?$AA?$CC?$AA_?$AAP?$AAv?$AAe?$AAc?$AAt?$AAo?$AAr?$AA?5?$AA?$DN?$AA?$DN?$AA?5?$AAN?$AAU?$AAL?$AAL?$AA?5?$AA?$HM?$AA?$HM?$AA?5?$AA?$CI?$AA?$CI?$AA?$CI?$AA_?$AAM?$AAy?$AAv?$AAe?$AAc?$AA?5@ DB '('
	DB	00H, '"', 00H, '_', 00H, 'P', 00H, 'v', 00H, 'e', 00H, 'c', 00H
	DB	't', 00H, 'o', 00H, 'r', 00H, ' ', 00H, '=', 00H, '=', 00H, ' '
	DB	00H, 'N', 00H, 'U', 00H, 'L', 00H, 'L', 00H, ' ', 00H, '|', 00H
	DB	'|', 00H, ' ', 00H, '(', 00H, '(', 00H, '(', 00H, '_', 00H, 'M'
	DB	00H, 'y', 00H, 'v', 00H, 'e', 00H, 'c', 00H, ' ', 00H, '*', 00H
	DB	')', 00H, '_', 00H, 'P', 00H, 'v', 00H, 'e', 00H, 'c', 00H, 't'
	DB	00H, 'o', 00H, 'r', 00H, ')', 00H, '-', 00H, '>', 00H, '_', 00H
	DB	'M', 00H, 'y', 00H, 'f', 00H, 'i', 00H, 'r', 00H, 's', 00H, 't'
	DB	00H, ' ', 00H, '<', 00H, '=', 00H, ' ', 00H, '_', 00H, 'P', 00H
	DB	't', 00H, 'r', 00H, ' ', 00H, '&', 00H, '&', 00H, ' ', 00H, '_'
	DB	00H, 'P', 00H, 't', 00H, 'r', 00H, ' ', 00H, '<', 00H, '=', 00H
	DB	' ', 00H, '(', 00H, '(', 00H, '_', 00H, 'M', 00H, 'y', 00H, 'v'
	DB	00H, 'e', 00H, 'c', 00H, ' ', 00H, '*', 00H, ')', 00H, '_', 00H
	DB	'P', 00H, 'v', 00H, 'e', 00H, 'c', 00H, 't', 00H, 'o', 00H, 'r'
	DB	00H, ')', 00H, '-', 00H, '>', 00H, '_', 00H, 'M', 00H, 'y', 00H
	DB	'l', 00H, 'a', 00H, 's', 00H, 't', 00H, ')', 00H, '"', 00H, ','
	DB	00H, ' ', 00H, '0', 00H, ')', 00H, 00H, 00H	; `string'
CONST	ENDS
;	COMDAT xdata$x
xdata$x	SEGMENT
__unwindtable$??0?$_Vector_const_iterator@PAVfbdFrame@DRAMsimII@@V?$allocator@PAVfbdFrame@DRAMsimII@@@std@@@std@@QAE@PAPAVfbdFrame@DRAMsimII@@PBV_Container_base_secure@1@@Z DD 0ffffffffH
	DD	FLAT:__unwindfunclet$??0?$_Vector_const_iterator@PAVfbdFrame@DRAMsimII@@V?$allocator@PAVfbdFrame@DRAMsimII@@@std@@@std@@QAE@PAPAVfbdFrame@DRAMsimII@@PBV_Container_base_secure@1@@Z$0
__ehfuncinfo$??0?$_Vector_const_iterator@PAVfbdFrame@DRAMsimII@@V?$allocator@PAVfbdFrame@DRAMsimII@@@std@@@std@@QAE@PAPAVfbdFrame@DRAMsimII@@PBV_Container_base_secure@1@@Z DD 019930522H
	DD	01H
	DD	FLAT:__unwindtable$??0?$_Vector_const_iterator@PAVfbdFrame@DRAMsimII@@V?$allocator@PAVfbdFrame@DRAMsimII@@@std@@@std@@QAE@PAPAVfbdFrame@DRAMsimII@@PBV_Container_base_secure@1@@Z
	DD	2 DUP(00H)
	DD	2 DUP(00H)
	DD	00H
	DD	01H
; Function compile flags: /Odtp /RTCcsu /ZI
xdata$x	ENDS
;	COMDAT ??0?$_Vector_const_iterator@PAVfbdFrame@DRAMsimII@@V?$allocator@PAVfbdFrame@DRAMsimII@@@std@@@std@@QAE@PAPAVfbdFrame@DRAMsimII@@PBV_Container_base_secure@1@@Z
_TEXT	SEGMENT
_this$ = -20						; size = 4
__$EHRec$ = -12						; size = 12
__Ptr$ = 8						; size = 4
__Pvector$ = 12						; size = 4
??0?$_Vector_const_iterator@PAVfbdFrame@DRAMsimII@@V?$allocator@PAVfbdFrame@DRAMsimII@@@std@@@std@@QAE@PAPAVfbdFrame@DRAMsimII@@PBV_Container_base_secure@1@@Z PROC ; std::_Vector_const_iterator<DRAMsimII::fbdFrame *,std::allocator<DRAMsimII::fbdFrame *> >::_Vector_const_iterator<DRAMsimII::fbdFrame *,std::allocator<DRAMsimII::fbdFrame *> >, COMDAT
; _this$ = ecx

; 68   : 	_Vector_const_iterator(_Tptr _Ptr, const _Container_base *_Pvector)

	push	ebp
	mov	ebp, esp
	push	-1
	push	__ehhandler$??0?$_Vector_const_iterator@PAVfbdFrame@DRAMsimII@@V?$allocator@PAVfbdFrame@DRAMsimII@@@std@@@std@@QAE@PAPAVfbdFrame@DRAMsimII@@PBV_Container_base_secure@1@@Z
	mov	eax, DWORD PTR fs:0
	push	eax
	sub	esp, 204				; 000000ccH
	push	ebx
	push	esi
	push	edi
	push	ecx
	lea	edi, DWORD PTR [ebp-216]
	mov	ecx, 51					; 00000033H
	mov	eax, -858993460				; ccccccccH
	rep stosd
	pop	ecx
	mov	eax, DWORD PTR ___security_cookie
	xor	eax, ebp
	push	eax
	lea	eax, DWORD PTR __$EHRec$[ebp]
	mov	DWORD PTR fs:0, eax
	mov	DWORD PTR _this$[ebp], ecx
	mov	ecx, DWORD PTR _this$[ebp]
	call	??0?$_Ranit@PAVfbdFrame@DRAMsimII@@HPBQAV12@ABQAV12@@std@@QAE@XZ
	mov	DWORD PTR __$EHRec$[ebp+8], 0

; 69   : 		{	// construct with pointer _Ptr
; 70   : 		_SCL_SECURE_VALIDATE(_Pvector == NULL || (((_Myvec *)_Pvector)->_Myfirst <= _Ptr && _Ptr <= ((_Myvec *)_Pvector)->_Mylast));

	cmp	DWORD PTR __Pvector$[ebp], 0
	je	SHORT $LN2@Vector_con
	mov	eax, DWORD PTR __Pvector$[ebp]
	mov	ecx, DWORD PTR [eax+8]
	cmp	ecx, DWORD PTR __Ptr$[ebp]
	ja	SHORT $LN1@Vector_con
	mov	eax, DWORD PTR __Pvector$[ebp]
	mov	ecx, DWORD PTR __Ptr$[ebp]
	cmp	ecx, DWORD PTR [eax+12]
	jbe	SHORT $LN2@Vector_con
$LN1@Vector_con:
	xor	eax, eax
	jne	SHORT $LN5@Vector_con
	mov	esi, esp
	push	OFFSET ??_C@_1NK@JLHOCNGO@?$AA?$CI?$AA?$CC?$AA_?$AAP?$AAv?$AAe?$AAc?$AAt?$AAo?$AAr?$AA?5?$AA?$DN?$AA?$DN?$AA?5?$AAN?$AAU?$AAL?$AAL?$AA?5?$AA?$HM?$AA?$HM?$AA?5?$AA?$CI?$AA?$CI?$AA?$CI?$AA_?$AAM?$AAy?$AAv?$AAe?$AAc?$AA?5@
	push	0
	push	70					; 00000046H
	push	OFFSET ??_C@_1HO@CONDIOEO@?$AAc?$AA?3?$AA?2?$AAp?$AAr?$AAo?$AAg?$AAr?$AAa?$AAm?$AA?5?$AAf?$AAi?$AAl?$AAe?$AAs?$AA?2?$AAm?$AAi?$AAc?$AAr?$AAo?$AAs?$AAo?$AAf?$AAt?$AA?5?$AAv?$AAi?$AAs?$AAu?$AAa@
	push	2
	call	DWORD PTR __imp___CrtDbgReportW
	add	esp, 20					; 00000014H
	cmp	esi, esp
	call	__RTC_CheckEsp
	cmp	eax, 1
	jne	SHORT $LN5@Vector_con
	int	3
$LN5@Vector_con:
	mov	esi, esp
	push	0
	push	70					; 00000046H
	push	OFFSET ??_C@_1HO@CONDIOEO@?$AAc?$AA?3?$AA?2?$AAp?$AAr?$AAo?$AAg?$AAr?$AAa?$AAm?$AA?5?$AAf?$AAi?$AAl?$AAe?$AAs?$AA?2?$AAm?$AAi?$AAc?$AAr?$AAo?$AAs?$AAo?$AAf?$AAt?$AA?5?$AAv?$AAi?$AAs?$AAu?$AAa@
	push	OFFSET ??_C@_1BAI@GJELONEF@?$AAs?$AAt?$AAd?$AA?3?$AA?3?$AA_?$AAV?$AAe?$AAc?$AAt?$AAo?$AAr?$AA_?$AAc?$AAo?$AAn?$AAs?$AAt?$AA_?$AAi?$AAt?$AAe?$AAr?$AAa?$AAt?$AAo?$AAr?$AA?$DM?$AAc?$AAl?$AAa?$AAs@
	push	OFFSET ??_C@_1CG@JNLFBNGN@?$AA?$CC?$AAi?$AAn?$AAv?$AAa?$AAl?$AAi?$AAd?$AA?5?$AAa?$AAr?$AAg?$AAu?$AAm?$AAe?$AAn?$AAt?$AA?$CC?$AA?$AA@
	call	DWORD PTR __imp___invalid_parameter
	add	esp, 20					; 00000014H
	cmp	esi, esp
	call	__RTC_CheckEsp
$LN2@Vector_con:

; 71   : 		this->_Adopt(_Pvector);

	mov	eax, DWORD PTR __Pvector$[ebp]
	push	eax
	mov	ecx, DWORD PTR _this$[ebp]
	call	?_Adopt@_Iterator_base@std@@QAEXPBV_Container_base_secure@2@@Z ; std::_Iterator_base::_Adopt

; 72   : 		_Myptr = _Ptr;

	mov	eax, DWORD PTR _this$[ebp]
	mov	ecx, DWORD PTR __Ptr$[ebp]
	mov	DWORD PTR [eax+8], ecx

; 73   : 		}

	mov	DWORD PTR __$EHRec$[ebp+8], -1
	mov	eax, DWORD PTR _this$[ebp]
	mov	ecx, DWORD PTR __$EHRec$[ebp]
	mov	DWORD PTR fs:0, ecx
	pop	ecx
	pop	edi
	pop	esi
	pop	ebx
	add	esp, 216				; 000000d8H
	cmp	ebp, esp
	call	__RTC_CheckEsp
	mov	esp, ebp
	pop	ebp
	ret	8
_TEXT	ENDS
;	COMDAT text$x
text$x	SEGMENT
__unwindfunclet$??0?$_Vector_const_iterator@PAVfbdFrame@DRAMsimII@@V?$allocator@PAVfbdFrame@DRAMsimII@@@std@@@std@@QAE@PAPAVfbdFrame@DRAMsimII@@PBV_Container_base_secure@1@@Z$0:
	mov	ecx, DWORD PTR _this$[ebp]
	jmp	??1?$_Ranit@PAVfbdFrame@DRAMsimII@@HPBQAV12@ABQAV12@@std@@QAE@XZ
__ehhandler$??0?$_Vector_const_iterator@PAVfbdFrame@DRAMsimII@@V?$allocator@PAVfbdFrame@DRAMsimII@@@std@@@std@@QAE@PAPAVfbdFrame@DRAMsimII@@PBV_Container_base_secure@1@@Z:
	mov	edx, DWORD PTR [esp+8]
	lea	eax, DWORD PTR [edx+12]
	mov	ecx, DWORD PTR [edx-220]
	xor	ecx, eax
	call	@__security_check_cookie@4
	mov	eax, OFFSET __ehfuncinfo$??0?$_Vector_const_iterator@PAVfbdFrame@DRAMsimII@@V?$allocator@PAVfbdFrame@DRAMsimII@@@std@@@std@@QAE@PAPAVfbdFrame@DRAMsimII@@PBV_Container_base_secure@1@@Z
	jmp	___CxxFrameHandler3
text$x	ENDS
??0?$_Vector_const_iterator@PAVfbdFrame@DRAMsimII@@V?$allocator@PAVfbdFrame@DRAMsimII@@@std@@@std@@QAE@PAPAVfbdFrame@DRAMsimII@@PBV_Container_base_secure@1@@Z ENDP ; std::_Vector_const_iterator<DRAMsimII::fbdFrame *,std::allocator<DRAMsimII::fbdFrame *> >::_Vector_const_iterator<DRAMsimII::fbdFrame *,std::allocator<DRAMsimII::fbdFrame *> >
PUBLIC	??_C@_1EE@EJDKCLKB@?$AAv?$AAe?$AAc?$AAt?$AAo?$AAr?$AA?5?$AAi?$AAt?$AAe?$AAr?$AAa?$AAt?$AAo?$AAr?$AA?5?$AAn?$AAo?$AAt?$AA?5?$AAi?$AAn?$AAc?$AAr?$AAe?$AAm?$AAe?$AAn?$AAt?$AAa?$AAb?$AAl@ ; `string'
PUBLIC	??_C@_1HE@NMBDDEHP@?$AA?$CI?$AA?$CC?$AA_?$AAM?$AAy?$AAp?$AAt?$AAr?$AA?5?$AA?$DM?$AA?5?$AA?$CI?$AA?$CI?$AA_?$AAM?$AAy?$AAv?$AAe?$AAc?$AA?5?$AA?$CK?$AA?$CJ?$AA?$CI?$AAt?$AAh?$AAi?$AAs?$AA?9?$AA?$DO?$AA_?$AAG?$AAe@ ; `string'
PUBLIC	?_Getmycont@_Iterator_base@std@@QBEPBV_Container_base_secure@2@XZ ; std::_Iterator_base::_Getmycont
PUBLIC	??_C@_1PC@BLIHJIPJ@?$AAs?$AAt?$AAd?$AA?3?$AA?3?$AA_?$AAV?$AAe?$AAc?$AAt?$AAo?$AAr?$AA_?$AAc?$AAo?$AAn?$AAs?$AAt?$AA_?$AAi?$AAt?$AAe?$AAr?$AAa?$AAt?$AAo?$AAr?$AA?$DM?$AAc?$AAl?$AAa?$AAs@ ; `string'
PUBLIC	??_C@_1DM@LBMEEJPP@?$AA?$CI?$AA?$CC?$AAt?$AAh?$AAi?$AAs?$AA?9?$AA?$DO?$AA_?$AAH?$AAa?$AAs?$AA_?$AAc?$AAo?$AAn?$AAt?$AAa?$AAi?$AAn?$AAe?$AAr?$AA?$CI?$AA?$CJ?$AA?$CC?$AA?0?$AA?5?$AA0?$AA?$CJ?$AA?$AA@ ; `string'
PUBLIC	?_Has_container@_Iterator_base@std@@QBE_NXZ	; std::_Iterator_base::_Has_container
;	COMDAT ??_C@_1EE@EJDKCLKB@?$AAv?$AAe?$AAc?$AAt?$AAo?$AAr?$AA?5?$AAi?$AAt?$AAe?$AAr?$AAa?$AAt?$AAo?$AAr?$AA?5?$AAn?$AAo?$AAt?$AA?5?$AAi?$AAn?$AAc?$AAr?$AAe?$AAm?$AAe?$AAn?$AAt?$AAa?$AAb?$AAl@
CONST	SEGMENT
??_C@_1EE@EJDKCLKB@?$AAv?$AAe?$AAc?$AAt?$AAo?$AAr?$AA?5?$AAi?$AAt?$AAe?$AAr?$AAa?$AAt?$AAo?$AAr?$AA?5?$AAn?$AAo?$AAt?$AA?5?$AAi?$AAn?$AAc?$AAr?$AAe?$AAm?$AAe?$AAn?$AAt?$AAa?$AAb?$AAl@ DB 'v'
	DB	00H, 'e', 00H, 'c', 00H, 't', 00H, 'o', 00H, 'r', 00H, ' ', 00H
	DB	'i', 00H, 't', 00H, 'e', 00H, 'r', 00H, 'a', 00H, 't', 00H, 'o'
	DB	00H, 'r', 00H, ' ', 00H, 'n', 00H, 'o', 00H, 't', 00H, ' ', 00H
	DB	'i', 00H, 'n', 00H, 'c', 00H, 'r', 00H, 'e', 00H, 'm', 00H, 'e'
	DB	00H, 'n', 00H, 't', 00H, 'a', 00H, 'b', 00H, 'l', 00H, 'e', 00H
	DB	00H, 00H					; `string'
CONST	ENDS
;	COMDAT ??_C@_1HE@NMBDDEHP@?$AA?$CI?$AA?$CC?$AA_?$AAM?$AAy?$AAp?$AAt?$AAr?$AA?5?$AA?$DM?$AA?5?$AA?$CI?$AA?$CI?$AA_?$AAM?$AAy?$AAv?$AAe?$AAc?$AA?5?$AA?$CK?$AA?$CJ?$AA?$CI?$AAt?$AAh?$AAi?$AAs?$AA?9?$AA?$DO?$AA_?$AAG?$AAe@
CONST	SEGMENT
??_C@_1HE@NMBDDEHP@?$AA?$CI?$AA?$CC?$AA_?$AAM?$AAy?$AAp?$AAt?$AAr?$AA?5?$AA?$DM?$AA?5?$AA?$CI?$AA?$CI?$AA_?$AAM?$AAy?$AAv?$AAe?$AAc?$AA?5?$AA?$CK?$AA?$CJ?$AA?$CI?$AAt?$AAh?$AAi?$AAs?$AA?9?$AA?$DO?$AA_?$AAG?$AAe@ DB '('
	DB	00H, '"', 00H, '_', 00H, 'M', 00H, 'y', 00H, 'p', 00H, 't', 00H
	DB	'r', 00H, ' ', 00H, '<', 00H, ' ', 00H, '(', 00H, '(', 00H, '_'
	DB	00H, 'M', 00H, 'y', 00H, 'v', 00H, 'e', 00H, 'c', 00H, ' ', 00H
	DB	'*', 00H, ')', 00H, '(', 00H, 't', 00H, 'h', 00H, 'i', 00H, 's'
	DB	00H, '-', 00H, '>', 00H, '_', 00H, 'G', 00H, 'e', 00H, 't', 00H
	DB	'm', 00H, 'y', 00H, 'c', 00H, 'o', 00H, 'n', 00H, 't', 00H, '('
	DB	00H, ')', 00H, ')', 00H, ')', 00H, '-', 00H, '>', 00H, '_', 00H
	DB	'M', 00H, 'y', 00H, 'l', 00H, 'a', 00H, 's', 00H, 't', 00H, '"'
	DB	00H, ',', 00H, ' ', 00H, '0', 00H, ')', 00H, 00H, 00H ; `string'
CONST	ENDS
;	COMDAT ??_C@_1PC@BLIHJIPJ@?$AAs?$AAt?$AAd?$AA?3?$AA?3?$AA_?$AAV?$AAe?$AAc?$AAt?$AAo?$AAr?$AA_?$AAc?$AAo?$AAn?$AAs?$AAt?$AA_?$AAi?$AAt?$AAe?$AAr?$AAa?$AAt?$AAo?$AAr?$AA?$DM?$AAc?$AAl?$AAa?$AAs@
CONST	SEGMENT
??_C@_1PC@BLIHJIPJ@?$AAs?$AAt?$AAd?$AA?3?$AA?3?$AA_?$AAV?$AAe?$AAc?$AAt?$AAo?$AAr?$AA_?$AAc?$AAo?$AAn?$AAs?$AAt?$AA_?$AAi?$AAt?$AAe?$AAr?$AAa?$AAt?$AAo?$AAr?$AA?$DM?$AAc?$AAl?$AAa?$AAs@ DB 's'
	DB	00H, 't', 00H, 'd', 00H, ':', 00H, ':', 00H, '_', 00H, 'V', 00H
	DB	'e', 00H, 'c', 00H, 't', 00H, 'o', 00H, 'r', 00H, '_', 00H, 'c'
	DB	00H, 'o', 00H, 'n', 00H, 's', 00H, 't', 00H, '_', 00H, 'i', 00H
	DB	't', 00H, 'e', 00H, 'r', 00H, 'a', 00H, 't', 00H, 'o', 00H, 'r'
	DB	00H, '<', 00H, 'c', 00H, 'l', 00H, 'a', 00H, 's', 00H, 's', 00H
	DB	' ', 00H, 'D', 00H, 'R', 00H, 'A', 00H, 'M', 00H, 's', 00H, 'i'
	DB	00H, 'm', 00H, 'I', 00H, 'I', 00H, ':', 00H, ':', 00H, 'f', 00H
	DB	'b', 00H, 'd', 00H, 'F', 00H, 'r', 00H, 'a', 00H, 'm', 00H, 'e'
	DB	00H, ' ', 00H, '*', 00H, ',', 00H, 'c', 00H, 'l', 00H, 'a', 00H
	DB	's', 00H, 's', 00H, ' ', 00H, 's', 00H, 't', 00H, 'd', 00H, ':'
	DB	00H, ':', 00H, 'a', 00H, 'l', 00H, 'l', 00H, 'o', 00H, 'c', 00H
	DB	'a', 00H, 't', 00H, 'o', 00H, 'r', 00H, '<', 00H, 'c', 00H, 'l'
	DB	00H, 'a', 00H, 's', 00H, 's', 00H, ' ', 00H, 'D', 00H, 'R', 00H
	DB	'A', 00H, 'M', 00H, 's', 00H, 'i', 00H, 'm', 00H, 'I', 00H, 'I'
	DB	00H, ':', 00H, ':', 00H, 'f', 00H, 'b', 00H, 'd', 00H, 'F', 00H
	DB	'r', 00H, 'a', 00H, 'm', 00H, 'e', 00H, ' ', 00H, '*', 00H, '>'
	DB	00H, ' ', 00H, '>', 00H, ':', 00H, ':', 00H, 'o', 00H, 'p', 00H
	DB	'e', 00H, 'r', 00H, 'a', 00H, 't', 00H, 'o', 00H, 'r', 00H, ' '
	DB	00H, '+', 00H, '+', 00H, 00H, 00H		; `string'
CONST	ENDS
;	COMDAT ??_C@_1DM@LBMEEJPP@?$AA?$CI?$AA?$CC?$AAt?$AAh?$AAi?$AAs?$AA?9?$AA?$DO?$AA_?$AAH?$AAa?$AAs?$AA_?$AAc?$AAo?$AAn?$AAt?$AAa?$AAi?$AAn?$AAe?$AAr?$AA?$CI?$AA?$CJ?$AA?$CC?$AA?0?$AA?5?$AA0?$AA?$CJ?$AA?$AA@
CONST	SEGMENT
??_C@_1DM@LBMEEJPP@?$AA?$CI?$AA?$CC?$AAt?$AAh?$AAi?$AAs?$AA?9?$AA?$DO?$AA_?$AAH?$AAa?$AAs?$AA_?$AAc?$AAo?$AAn?$AAt?$AAa?$AAi?$AAn?$AAe?$AAr?$AA?$CI?$AA?$CJ?$AA?$CC?$AA?0?$AA?5?$AA0?$AA?$CJ?$AA?$AA@ DB '('
	DB	00H, '"', 00H, 't', 00H, 'h', 00H, 'i', 00H, 's', 00H, '-', 00H
	DB	'>', 00H, '_', 00H, 'H', 00H, 'a', 00H, 's', 00H, '_', 00H, 'c'
	DB	00H, 'o', 00H, 'n', 00H, 't', 00H, 'a', 00H, 'i', 00H, 'n', 00H
	DB	'e', 00H, 'r', 00H, '(', 00H, ')', 00H, '"', 00H, ',', 00H, ' '
	DB	00H, '0', 00H, ')', 00H, 00H, 00H		; `string'
; Function compile flags: /Odtp /RTCcsu /ZI
CONST	ENDS
;	COMDAT ??E?$_Vector_const_iterator@PAVfbdFrame@DRAMsimII@@V?$allocator@PAVfbdFrame@DRAMsimII@@@std@@@std@@QAEAAV01@XZ
_TEXT	SEGMENT
_this$ = -8						; size = 4
??E?$_Vector_const_iterator@PAVfbdFrame@DRAMsimII@@V?$allocator@PAVfbdFrame@DRAMsimII@@@std@@@std@@QAEAAV01@XZ PROC ; std::_Vector_const_iterator<DRAMsimII::fbdFrame *,std::allocator<DRAMsimII::fbdFrame *> >::operator++, COMDAT
; _this$ = ecx

; 115  : 		{	// preincrement

	push	ebp
	mov	ebp, esp
	sub	esp, 204				; 000000ccH
	push	ebx
	push	esi
	push	edi
	push	ecx
	lea	edi, DWORD PTR [ebp-204]
	mov	ecx, 51					; 00000033H
	mov	eax, -858993460				; ccccccccH
	rep stosd
	pop	ecx
	mov	DWORD PTR _this$[ebp], ecx

; 116  : 		_SCL_SECURE_VALIDATE(this->_Has_container());

	mov	ecx, DWORD PTR _this$[ebp]
	call	?_Has_container@_Iterator_base@std@@QBE_NXZ ; std::_Iterator_base::_Has_container
	movzx	eax, al
	test	eax, eax
	jne	SHORT $LN4@operator@6
	xor	eax, eax
	jne	SHORT $LN7@operator@6
	mov	esi, esp
	push	OFFSET ??_C@_1DM@LBMEEJPP@?$AA?$CI?$AA?$CC?$AAt?$AAh?$AAi?$AAs?$AA?9?$AA?$DO?$AA_?$AAH?$AAa?$AAs?$AA_?$AAc?$AAo?$AAn?$AAt?$AAa?$AAi?$AAn?$AAe?$AAr?$AA?$CI?$AA?$CJ?$AA?$CC?$AA?0?$AA?5?$AA0?$AA?$CJ?$AA?$AA@
	push	0
	push	116					; 00000074H
	push	OFFSET ??_C@_1HO@CONDIOEO@?$AAc?$AA?3?$AA?2?$AAp?$AAr?$AAo?$AAg?$AAr?$AAa?$AAm?$AA?5?$AAf?$AAi?$AAl?$AAe?$AAs?$AA?2?$AAm?$AAi?$AAc?$AAr?$AAo?$AAs?$AAo?$AAf?$AAt?$AA?5?$AAv?$AAi?$AAs?$AAu?$AAa@
	push	2
	call	DWORD PTR __imp___CrtDbgReportW
	add	esp, 20					; 00000014H
	cmp	esi, esp
	call	__RTC_CheckEsp
	cmp	eax, 1
	jne	SHORT $LN7@operator@6
	int	3
$LN7@operator@6:
	mov	esi, esp
	push	0
	push	116					; 00000074H
	push	OFFSET ??_C@_1HO@CONDIOEO@?$AAc?$AA?3?$AA?2?$AAp?$AAr?$AAo?$AAg?$AAr?$AAa?$AAm?$AA?5?$AAf?$AAi?$AAl?$AAe?$AAs?$AA?2?$AAm?$AAi?$AAc?$AAr?$AAo?$AAs?$AAo?$AAf?$AAt?$AA?5?$AAv?$AAi?$AAs?$AAu?$AAa@
	push	OFFSET ??_C@_1PC@BLIHJIPJ@?$AAs?$AAt?$AAd?$AA?3?$AA?3?$AA_?$AAV?$AAe?$AAc?$AAt?$AAo?$AAr?$AA_?$AAc?$AAo?$AAn?$AAs?$AAt?$AA_?$AAi?$AAt?$AAe?$AAr?$AAa?$AAt?$AAo?$AAr?$AA?$DM?$AAc?$AAl?$AAa?$AAs@
	push	OFFSET ??_C@_1CG@JNLFBNGN@?$AA?$CC?$AAi?$AAn?$AAv?$AAa?$AAl?$AAi?$AAd?$AA?5?$AAa?$AAr?$AAg?$AAu?$AAm?$AAe?$AAn?$AAt?$AA?$CC?$AA?$AA@
	call	DWORD PTR __imp___invalid_parameter
	add	esp, 20					; 00000014H
	cmp	esi, esp
	call	__RTC_CheckEsp
$LN4@operator@6:

; 117  : 		_SCL_SECURE_VALIDATE_RANGE(_Myptr < ((_Myvec *)(this->_Getmycont()))->_Mylast);

	mov	ecx, DWORD PTR _this$[ebp]
	call	?_Getmycont@_Iterator_base@std@@QBEPBV_Container_base_secure@2@XZ ; std::_Iterator_base::_Getmycont
	mov	ecx, DWORD PTR _this$[ebp]
	mov	edx, DWORD PTR [ecx+8]
	cmp	edx, DWORD PTR [eax+12]
	jb	SHORT $LN3@operator@6
	xor	eax, eax
	jne	SHORT $LN8@operator@6
	mov	esi, esp
	push	OFFSET ??_C@_1HE@NMBDDEHP@?$AA?$CI?$AA?$CC?$AA_?$AAM?$AAy?$AAp?$AAt?$AAr?$AA?5?$AA?$DM?$AA?5?$AA?$CI?$AA?$CI?$AA_?$AAM?$AAy?$AAv?$AAe?$AAc?$AA?5?$AA?$CK?$AA?$CJ?$AA?$CI?$AAt?$AAh?$AAi?$AAs?$AA?9?$AA?$DO?$AA_?$AAG?$AAe@
	push	0
	push	117					; 00000075H
	push	OFFSET ??_C@_1HO@CONDIOEO@?$AAc?$AA?3?$AA?2?$AAp?$AAr?$AAo?$AAg?$AAr?$AAa?$AAm?$AA?5?$AAf?$AAi?$AAl?$AAe?$AAs?$AA?2?$AAm?$AAi?$AAc?$AAr?$AAo?$AAs?$AAo?$AAf?$AAt?$AA?5?$AAv?$AAi?$AAs?$AAu?$AAa@
	push	2
	call	DWORD PTR __imp___CrtDbgReportW
	add	esp, 20					; 00000014H
	cmp	esi, esp
	call	__RTC_CheckEsp
	cmp	eax, 1
	jne	SHORT $LN8@operator@6
	int	3
$LN8@operator@6:
	mov	esi, esp
	push	0
	push	117					; 00000075H
	push	OFFSET ??_C@_1HO@CONDIOEO@?$AAc?$AA?3?$AA?2?$AAp?$AAr?$AAo?$AAg?$AAr?$AAa?$AAm?$AA?5?$AAf?$AAi?$AAl?$AAe?$AAs?$AA?2?$AAm?$AAi?$AAc?$AAr?$AAo?$AAs?$AAo?$AAf?$AAt?$AA?5?$AAv?$AAi?$AAs?$AAu?$AAa@
	push	OFFSET ??_C@_1PC@BLIHJIPJ@?$AAs?$AAt?$AAd?$AA?3?$AA?3?$AA_?$AAV?$AAe?$AAc?$AAt?$AAo?$AAr?$AA_?$AAc?$AAo?$AAn?$AAs?$AAt?$AA_?$AAi?$AAt?$AAe?$AAr?$AAa?$AAt?$AAo?$AAr?$AA?$DM?$AAc?$AAl?$AAa?$AAs@
	push	OFFSET ??_C@_1BO@MEPPHOO@?$AA?$CC?$AAo?$AAu?$AAt?$AA?5?$AAo?$AAf?$AA?5?$AAr?$AAa?$AAn?$AAg?$AAe?$AA?$CC?$AA?$AA@
	call	DWORD PTR __imp___invalid_parameter
	add	esp, 20					; 00000014H
	cmp	esi, esp
	call	__RTC_CheckEsp
$LN3@operator@6:

; 118  : 
; 119  :  #if _HAS_ITERATOR_DEBUGGING
; 120  : 		if (this->_Mycont == 0
; 121  : 			|| ((_Myvec *)this->_Mycont)->_Mylast <= _Myptr)

	mov	eax, DWORD PTR _this$[ebp]
	cmp	DWORD PTR [eax], 0
	je	SHORT $LN1@operator@6
	mov	eax, DWORD PTR _this$[ebp]
	mov	ecx, DWORD PTR [eax]
	mov	edx, DWORD PTR _this$[ebp]
	mov	eax, DWORD PTR [ecx+12]
	cmp	eax, DWORD PTR [edx+8]
	ja	SHORT $LN2@operator@6
$LN1@operator@6:

; 122  : 			_DEBUG_ERROR("vector iterator not incrementable");

	mov	esi, esp
	push	122					; 0000007aH
	push	OFFSET ??_C@_1HO@CONDIOEO@?$AAc?$AA?3?$AA?2?$AAp?$AAr?$AAo?$AAg?$AAr?$AAa?$AAm?$AA?5?$AAf?$AAi?$AAl?$AAe?$AAs?$AA?2?$AAm?$AAi?$AAc?$AAr?$AAo?$AAs?$AAo?$AAf?$AAt?$AA?5?$AAv?$AAi?$AAs?$AAu?$AAa@
	push	OFFSET ??_C@_1EE@EJDKCLKB@?$AAv?$AAe?$AAc?$AAt?$AAo?$AAr?$AA?5?$AAi?$AAt?$AAe?$AAr?$AAa?$AAt?$AAo?$AAr?$AA?5?$AAn?$AAo?$AAt?$AA?5?$AAi?$AAn?$AAc?$AAr?$AAe?$AAm?$AAe?$AAn?$AAt?$AAa?$AAb?$AAl@
	call	DWORD PTR __imp_?_Debug_message@std@@YAXPB_W0I@Z
	add	esp, 12					; 0000000cH
	cmp	esi, esp
	call	__RTC_CheckEsp
$LN2@operator@6:

; 123  :  #endif /* _HAS_ITERATOR_DEBUGGING */
; 124  : 
; 125  : 		++_Myptr;

	mov	eax, DWORD PTR _this$[ebp]
	mov	ecx, DWORD PTR [eax+8]
	add	ecx, 4
	mov	edx, DWORD PTR _this$[ebp]
	mov	DWORD PTR [edx+8], ecx

; 126  : 		return (*this);

	mov	eax, DWORD PTR _this$[ebp]

; 127  : 		}

	pop	edi
	pop	esi
	pop	ebx
	add	esp, 204				; 000000ccH
	cmp	ebp, esp
	call	__RTC_CheckEsp
	mov	esp, ebp
	pop	ebp
	ret	0
??E?$_Vector_const_iterator@PAVfbdFrame@DRAMsimII@@V?$allocator@PAVfbdFrame@DRAMsimII@@@std@@@std@@QAEAAV01@XZ ENDP ; std::_Vector_const_iterator<DRAMsimII::fbdFrame *,std::allocator<DRAMsimII::fbdFrame *> >::operator++
; Function compile flags: /Odtp /RTCcsu /ZI
; File c:\program files\microsoft visual studio 9.0\vc\include\xutility
_TEXT	ENDS
;	COMDAT ?_Getmycont@_Iterator_base@std@@QBEPBV_Container_base_secure@2@XZ
_TEXT	SEGMENT
_this$ = -8						; size = 4
?_Getmycont@_Iterator_base@std@@QBEPBV_Container_base_secure@2@XZ PROC ; std::_Iterator_base::_Getmycont, COMDAT
; _this$ = ecx

; 196  : 		{	// This member function always exists when we can get a container pointer

	push	ebp
	mov	ebp, esp
	sub	esp, 204				; 000000ccH
	push	ebx
	push	esi
	push	edi
	push	ecx
	lea	edi, DWORD PTR [ebp-204]
	mov	ecx, 51					; 00000033H
	mov	eax, -858993460				; ccccccccH
	rep stosd
	pop	ecx
	mov	DWORD PTR _this$[ebp], ecx

; 197  : 		return _Mycont;

	mov	eax, DWORD PTR _this$[ebp]
	mov	eax, DWORD PTR [eax]

; 198  : 		}

	pop	edi
	pop	esi
	pop	ebx
	mov	esp, ebp
	pop	ebp
	ret	0
?_Getmycont@_Iterator_base@std@@QBEPBV_Container_base_secure@2@XZ ENDP ; std::_Iterator_base::_Getmycont
; Function compile flags: /Odtp /RTCcsu /ZI
_TEXT	ENDS
;	COMDAT ?_Has_container@_Iterator_base@std@@QBE_NXZ
_TEXT	SEGMENT
_this$ = -8						; size = 4
?_Has_container@_Iterator_base@std@@QBE_NXZ PROC	; std::_Iterator_base::_Has_container, COMDAT
; _this$ = ecx

; 206  : 		{	// This member function always exists when we can get a container pointer

	push	ebp
	mov	ebp, esp
	sub	esp, 204				; 000000ccH
	push	ebx
	push	esi
	push	edi
	push	ecx
	lea	edi, DWORD PTR [ebp-204]
	mov	ecx, 51					; 00000033H
	mov	eax, -858993460				; ccccccccH
	rep stosd
	pop	ecx
	mov	DWORD PTR _this$[ebp], ecx

; 207  : 		return _Mycont != 0;

	mov	eax, DWORD PTR _this$[ebp]
	xor	ecx, ecx
	cmp	DWORD PTR [eax], 0
	setne	cl
	call	@_RTC_Check_4_to_1@4

; 208  : 		}

	pop	edi
	pop	esi
	pop	ebx
	add	esp, 204				; 000000ccH
	cmp	ebp, esp
	call	__RTC_CheckEsp
	mov	esp, ebp
	pop	ebp
	ret	0
?_Has_container@_Iterator_base@std@@QBE_NXZ ENDP	; std::_Iterator_base::_Has_container
_TEXT	ENDS
PUBLIC	??_C@_1OK@LMOFOJFN@?$AAs?$AAt?$AAd?$AA?3?$AA?3?$AA_?$AAV?$AAe?$AAc?$AAt?$AAo?$AAr?$AA_?$AAc?$AAo?$AAn?$AAs?$AAt?$AA_?$AAi?$AAt?$AAe?$AAr?$AAa?$AAt?$AAo?$AAr?$AA?$DM?$AAc?$AAl?$AAa?$AAs@ ; `string'
PUBLIC	??_C@_1FO@OCPOOAIA@?$AA?$CI?$AA?$CC?$AAS?$AAt?$AAa?$AAn?$AAd?$AAa?$AAr?$AAd?$AA?5?$AAC?$AA?$CL?$AA?$CL?$AA?5?$AAL?$AAi?$AAb?$AAr?$AAa?$AAr?$AAi?$AAe?$AAs?$AA?5?$AAI?$AAn?$AAv?$AAa?$AAl?$AAi?$AAd@ ; `string'
PUBLIC	??_C@_1DM@HINDPMBP@?$AAv?$AAe?$AAc?$AAt?$AAo?$AAr?$AA?5?$AAi?$AAt?$AAe?$AAr?$AAa?$AAt?$AAo?$AAr?$AAs?$AA?5?$AAi?$AAn?$AAc?$AAo?$AAm?$AAp?$AAa?$AAt?$AAi?$AAb?$AAl?$AAe?$AA?$AA@ ; `string'
;	COMDAT ??_C@_1OK@LMOFOJFN@?$AAs?$AAt?$AAd?$AA?3?$AA?3?$AA_?$AAV?$AAe?$AAc?$AAt?$AAo?$AAr?$AA_?$AAc?$AAo?$AAn?$AAs?$AAt?$AA_?$AAi?$AAt?$AAe?$AAr?$AAa?$AAt?$AAo?$AAr?$AA?$DM?$AAc?$AAl?$AAa?$AAs@
; File c:\program files\microsoft visual studio 9.0\vc\include\vector
CONST	SEGMENT
??_C@_1OK@LMOFOJFN@?$AAs?$AAt?$AAd?$AA?3?$AA?3?$AA_?$AAV?$AAe?$AAc?$AAt?$AAo?$AAr?$AA_?$AAc?$AAo?$AAn?$AAs?$AAt?$AA_?$AAi?$AAt?$AAe?$AAr?$AAa?$AAt?$AAo?$AAr?$AA?$DM?$AAc?$AAl?$AAa?$AAs@ DB 's'
	DB	00H, 't', 00H, 'd', 00H, ':', 00H, ':', 00H, '_', 00H, 'V', 00H
	DB	'e', 00H, 'c', 00H, 't', 00H, 'o', 00H, 'r', 00H, '_', 00H, 'c'
	DB	00H, 'o', 00H, 'n', 00H, 's', 00H, 't', 00H, '_', 00H, 'i', 00H
	DB	't', 00H, 'e', 00H, 'r', 00H, 'a', 00H, 't', 00H, 'o', 00H, 'r'
	DB	00H, '<', 00H, 'c', 00H, 'l', 00H, 'a', 00H, 's', 00H, 's', 00H
	DB	' ', 00H, 'D', 00H, 'R', 00H, 'A', 00H, 'M', 00H, 's', 00H, 'i'
	DB	00H, 'm', 00H, 'I', 00H, 'I', 00H, ':', 00H, ':', 00H, 'f', 00H
	DB	'b', 00H, 'd', 00H, 'F', 00H, 'r', 00H, 'a', 00H, 'm', 00H, 'e'
	DB	00H, ' ', 00H, '*', 00H, ',', 00H, 'c', 00H, 'l', 00H, 'a', 00H
	DB	's', 00H, 's', 00H, ' ', 00H, 's', 00H, 't', 00H, 'd', 00H, ':'
	DB	00H, ':', 00H, 'a', 00H, 'l', 00H, 'l', 00H, 'o', 00H, 'c', 00H
	DB	'a', 00H, 't', 00H, 'o', 00H, 'r', 00H, '<', 00H, 'c', 00H, 'l'
	DB	00H, 'a', 00H, 's', 00H, 's', 00H, ' ', 00H, 'D', 00H, 'R', 00H
	DB	'A', 00H, 'M', 00H, 's', 00H, 'i', 00H, 'm', 00H, 'I', 00H, 'I'
	DB	00H, ':', 00H, ':', 00H, 'f', 00H, 'b', 00H, 'd', 00H, 'F', 00H
	DB	'r', 00H, 'a', 00H, 'm', 00H, 'e', 00H, ' ', 00H, '*', 00H, '>'
	DB	00H, ' ', 00H, '>', 00H, ':', 00H, ':', 00H, '_', 00H, 'C', 00H
	DB	'o', 00H, 'm', 00H, 'p', 00H, 'a', 00H, 't', 00H, 00H, 00H ; `string'
CONST	ENDS
;	COMDAT ??_C@_1FO@OCPOOAIA@?$AA?$CI?$AA?$CC?$AAS?$AAt?$AAa?$AAn?$AAd?$AAa?$AAr?$AAd?$AA?5?$AAC?$AA?$CL?$AA?$CL?$AA?5?$AAL?$AAi?$AAb?$AAr?$AAa?$AAr?$AAi?$AAe?$AAs?$AA?5?$AAI?$AAn?$AAv?$AAa?$AAl?$AAi?$AAd@
CONST	SEGMENT
??_C@_1FO@OCPOOAIA@?$AA?$CI?$AA?$CC?$AAS?$AAt?$AAa?$AAn?$AAd?$AAa?$AAr?$AAd?$AA?5?$AAC?$AA?$CL?$AA?$CL?$AA?5?$AAL?$AAi?$AAb?$AAr?$AAa?$AAr?$AAi?$AAe?$AAs?$AA?5?$AAI?$AAn?$AAv?$AAa?$AAl?$AAi?$AAd@ DB '('
	DB	00H, '"', 00H, 'S', 00H, 't', 00H, 'a', 00H, 'n', 00H, 'd', 00H
	DB	'a', 00H, 'r', 00H, 'd', 00H, ' ', 00H, 'C', 00H, '+', 00H, '+'
	DB	00H, ' ', 00H, 'L', 00H, 'i', 00H, 'b', 00H, 'r', 00H, 'a', 00H
	DB	'r', 00H, 'i', 00H, 'e', 00H, 's', 00H, ' ', 00H, 'I', 00H, 'n'
	DB	00H, 'v', 00H, 'a', 00H, 'l', 00H, 'i', 00H, 'd', 00H, ' ', 00H
	DB	'A', 00H, 'r', 00H, 'g', 00H, 'u', 00H, 'm', 00H, 'e', 00H, 'n'
	DB	00H, 't', 00H, '"', 00H, ',', 00H, ' ', 00H, '0', 00H, ')', 00H
	DB	00H, 00H					; `string'
CONST	ENDS
;	COMDAT ??_C@_1DM@HINDPMBP@?$AAv?$AAe?$AAc?$AAt?$AAo?$AAr?$AA?5?$AAi?$AAt?$AAe?$AAr?$AAa?$AAt?$AAo?$AAr?$AAs?$AA?5?$AAi?$AAn?$AAc?$AAo?$AAm?$AAp?$AAa?$AAt?$AAi?$AAb?$AAl?$AAe?$AA?$AA@
CONST	SEGMENT
??_C@_1DM@HINDPMBP@?$AAv?$AAe?$AAc?$AAt?$AAo?$AAr?$AA?5?$AAi?$AAt?$AAe?$AAr?$AAa?$AAt?$AAo?$AAr?$AAs?$AA?5?$AAi?$AAn?$AAc?$AAo?$AAm?$AAp?$AAa?$AAt?$AAi?$AAb?$AAl?$AAe?$AA?$AA@ DB 'v'
	DB	00H, 'e', 00H, 'c', 00H, 't', 00H, 'o', 00H, 'r', 00H, ' ', 00H
	DB	'i', 00H, 't', 00H, 'e', 00H, 'r', 00H, 'a', 00H, 't', 00H, 'o'
	DB	00H, 'r', 00H, 's', 00H, ' ', 00H, 'i', 00H, 'n', 00H, 'c', 00H
	DB	'o', 00H, 'm', 00H, 'p', 00H, 'a', 00H, 't', 00H, 'i', 00H, 'b'
	DB	00H, 'l', 00H, 'e', 00H, 00H, 00H		; `string'
; Function compile flags: /Odtp /RTCcsu /ZI
CONST	ENDS
;	COMDAT ?_Compat@?$_Vector_const_iterator@PAVfbdFrame@DRAMsimII@@V?$allocator@PAVfbdFrame@DRAMsimII@@@std@@@std@@QBEXABV12@@Z
_TEXT	SEGMENT
_this$ = -8						; size = 4
__Right$ = 8						; size = 4
?_Compat@?$_Vector_const_iterator@PAVfbdFrame@DRAMsimII@@V?$allocator@PAVfbdFrame@DRAMsimII@@@std@@@std@@QBEXABV12@@Z PROC ; std::_Vector_const_iterator<DRAMsimII::fbdFrame *,std::allocator<DRAMsimII::fbdFrame *> >::_Compat, COMDAT
; _this$ = ecx

; 248  : 		{	// test for compatible iterator pair

	push	ebp
	mov	ebp, esp
	sub	esp, 204				; 000000ccH
	push	ebx
	push	esi
	push	edi
	push	ecx
	lea	edi, DWORD PTR [ebp-204]
	mov	ecx, 51					; 00000033H
	mov	eax, -858993460				; ccccccccH
	rep stosd
	pop	ecx
	mov	DWORD PTR _this$[ebp], ecx

; 249  : 		if (this->_Mycont == 0 || this->_Mycont != _Right._Mycont)

	mov	eax, DWORD PTR _this$[ebp]
	cmp	DWORD PTR [eax], 0
	je	SHORT $LN1@Compat
	mov	eax, DWORD PTR _this$[ebp]
	mov	ecx, DWORD PTR __Right$[ebp]
	mov	edx, DWORD PTR [eax]
	cmp	edx, DWORD PTR [ecx]
	je	SHORT $LN3@Compat
$LN1@Compat:

; 250  : 			{
; 251  : 			_DEBUG_ERROR("vector iterators incompatible");

	mov	esi, esp
	push	251					; 000000fbH
	push	OFFSET ??_C@_1HO@CONDIOEO@?$AAc?$AA?3?$AA?2?$AAp?$AAr?$AAo?$AAg?$AAr?$AAa?$AAm?$AA?5?$AAf?$AAi?$AAl?$AAe?$AAs?$AA?2?$AAm?$AAi?$AAc?$AAr?$AAo?$AAs?$AAo?$AAf?$AAt?$AA?5?$AAv?$AAi?$AAs?$AAu?$AAa@
	push	OFFSET ??_C@_1DM@HINDPMBP@?$AAv?$AAe?$AAc?$AAt?$AAo?$AAr?$AA?5?$AAi?$AAt?$AAe?$AAr?$AAa?$AAt?$AAo?$AAr?$AAs?$AA?5?$AAi?$AAn?$AAc?$AAo?$AAm?$AAp?$AAa?$AAt?$AAi?$AAb?$AAl?$AAe?$AA?$AA@
	call	DWORD PTR __imp_?_Debug_message@std@@YAXPB_W0I@Z
	add	esp, 12					; 0000000cH
	cmp	esi, esp
	call	__RTC_CheckEsp

; 252  : 			_SCL_SECURE_INVALID_ARGUMENT;

	xor	eax, eax
	jne	SHORT $LN5@Compat
	mov	esi, esp
	push	OFFSET ??_C@_1FO@OCPOOAIA@?$AA?$CI?$AA?$CC?$AAS?$AAt?$AAa?$AAn?$AAd?$AAa?$AAr?$AAd?$AA?5?$AAC?$AA?$CL?$AA?$CL?$AA?5?$AAL?$AAi?$AAb?$AAr?$AAa?$AAr?$AAi?$AAe?$AAs?$AA?5?$AAI?$AAn?$AAv?$AAa?$AAl?$AAi?$AAd@
	push	0
	push	252					; 000000fcH
	push	OFFSET ??_C@_1HO@CONDIOEO@?$AAc?$AA?3?$AA?2?$AAp?$AAr?$AAo?$AAg?$AAr?$AAa?$AAm?$AA?5?$AAf?$AAi?$AAl?$AAe?$AAs?$AA?2?$AAm?$AAi?$AAc?$AAr?$AAo?$AAs?$AAo?$AAf?$AAt?$AA?5?$AAv?$AAi?$AAs?$AAu?$AAa@
	push	2
	call	DWORD PTR __imp___CrtDbgReportW
	add	esp, 20					; 00000014H
	cmp	esi, esp
	call	__RTC_CheckEsp
	cmp	eax, 1
	jne	SHORT $LN5@Compat
	int	3
$LN5@Compat:
	mov	esi, esp
	push	0
	push	252					; 000000fcH
	push	OFFSET ??_C@_1HO@CONDIOEO@?$AAc?$AA?3?$AA?2?$AAp?$AAr?$AAo?$AAg?$AAr?$AAa?$AAm?$AA?5?$AAf?$AAi?$AAl?$AAe?$AAs?$AA?2?$AAm?$AAi?$AAc?$AAr?$AAo?$AAs?$AAo?$AAf?$AAt?$AA?5?$AAv?$AAi?$AAs?$AAu?$AAa@
	push	OFFSET ??_C@_1OK@LMOFOJFN@?$AAs?$AAt?$AAd?$AA?3?$AA?3?$AA_?$AAV?$AAe?$AAc?$AAt?$AAo?$AAr?$AA_?$AAc?$AAo?$AAn?$AAs?$AAt?$AA_?$AAi?$AAt?$AAe?$AAr?$AAa?$AAt?$AAo?$AAr?$AA?$DM?$AAc?$AAl?$AAa?$AAs@
	push	OFFSET ??_C@_1CG@JNLFBNGN@?$AA?$CC?$AAi?$AAn?$AAv?$AAa?$AAl?$AAi?$AAd?$AA?5?$AAa?$AAr?$AAg?$AAu?$AAm?$AAe?$AAn?$AAt?$AA?$CC?$AA?$AA@
	call	DWORD PTR __imp___invalid_parameter
	add	esp, 20					; 00000014H
	cmp	esi, esp
	call	__RTC_CheckEsp
$LN3@Compat:

; 253  : 			}
; 254  : 		}

	pop	edi
	pop	esi
	pop	ebx
	add	esp, 204				; 000000ccH
	cmp	ebp, esp
	call	__RTC_CheckEsp
	mov	esp, ebp
	pop	ebp
	ret	4
?_Compat@?$_Vector_const_iterator@PAVfbdFrame@DRAMsimII@@V?$allocator@PAVfbdFrame@DRAMsimII@@@std@@@std@@QBEXABV12@@Z ENDP ; std::_Vector_const_iterator<DRAMsimII::fbdFrame *,std::allocator<DRAMsimII::fbdFrame *> >::_Compat
_TEXT	ENDS
PUBLIC	??0?$_Iterator_with_base@Urandom_access_iterator_tag@std@@PAVfbdFrame@DRAMsimII@@HPBQAV34@ABQAV34@V_Iterator_base@2@@std@@QAE@XZ ; std::_Iterator_with_base<std::random_access_iterator_tag,DRAMsimII::fbdFrame *,int,DRAMsimII::fbdFrame * const *,DRAMsimII::fbdFrame * const &,std::_Iterator_base>::_Iterator_with_base<std::random_access_iterator_tag,DRAMsimII::fbdFrame *,int,DRAMsimII::fbdFrame * const *,DRAMsimII::fbdFrame * const &,std::_Iterator_base>
; Function compile flags: /Odtp /RTCcsu /ZI
;	COMDAT ??0?$_Ranit@PAVfbdFrame@DRAMsimII@@HPBQAV12@ABQAV12@@std@@QAE@XZ
_TEXT	SEGMENT
_this$ = -8						; size = 4
??0?$_Ranit@PAVfbdFrame@DRAMsimII@@HPBQAV12@ABQAV12@@std@@QAE@XZ PROC ; std::_Ranit<DRAMsimII::fbdFrame *,int,DRAMsimII::fbdFrame * const *,DRAMsimII::fbdFrame * const &>::_Ranit<DRAMsimII::fbdFrame *,int,DRAMsimII::fbdFrame * const *,DRAMsimII::fbdFrame * const &>, COMDAT
; _this$ = ecx
	push	ebp
	mov	ebp, esp
	sub	esp, 204				; 000000ccH
	push	ebx
	push	esi
	push	edi
	push	ecx
	lea	edi, DWORD PTR [ebp-204]
	mov	ecx, 51					; 00000033H
	mov	eax, -858993460				; ccccccccH
	rep stosd
	pop	ecx
	mov	DWORD PTR _this$[ebp], ecx
	mov	ecx, DWORD PTR _this$[ebp]
	call	??0?$_Iterator_with_base@Urandom_access_iterator_tag@std@@PAVfbdFrame@DRAMsimII@@HPBQAV34@ABQAV34@V_Iterator_base@2@@std@@QAE@XZ
	mov	eax, DWORD PTR _this$[ebp]
	pop	edi
	pop	esi
	pop	ebx
	add	esp, 204				; 000000ccH
	cmp	ebp, esp
	call	__RTC_CheckEsp
	mov	esp, ebp
	pop	ebp
	ret	0
??0?$_Ranit@PAVfbdFrame@DRAMsimII@@HPBQAV12@ABQAV12@@std@@QAE@XZ ENDP ; std::_Ranit<DRAMsimII::fbdFrame *,int,DRAMsimII::fbdFrame * const *,DRAMsimII::fbdFrame * const &>::_Ranit<DRAMsimII::fbdFrame *,int,DRAMsimII::fbdFrame * const *,DRAMsimII::fbdFrame * const &>
_TEXT	ENDS
PUBLIC	??0_Iterator_base@std@@QAE@XZ			; std::_Iterator_base::_Iterator_base
; Function compile flags: /Odtp /RTCcsu /ZI
;	COMDAT ??0?$_Iterator_with_base@Urandom_access_iterator_tag@std@@PAVfbdFrame@DRAMsimII@@HPBQAV34@ABQAV34@V_Iterator_base@2@@std@@QAE@XZ
_TEXT	SEGMENT
_this$ = -8						; size = 4
??0?$_Iterator_with_base@Urandom_access_iterator_tag@std@@PAVfbdFrame@DRAMsimII@@HPBQAV34@ABQAV34@V_Iterator_base@2@@std@@QAE@XZ PROC ; std::_Iterator_with_base<std::random_access_iterator_tag,DRAMsimII::fbdFrame *,int,DRAMsimII::fbdFrame * const *,DRAMsimII::fbdFrame * const &,std::_Iterator_base>::_Iterator_with_base<std::random_access_iterator_tag,DRAMsimII::fbdFrame *,int,DRAMsimII::fbdFrame * const *,DRAMsimII::fbdFrame * const &,std::_Iterator_base>, COMDAT
; _this$ = ecx
	push	ebp
	mov	ebp, esp
	sub	esp, 204				; 000000ccH
	push	ebx
	push	esi
	push	edi
	push	ecx
	lea	edi, DWORD PTR [ebp-204]
	mov	ecx, 51					; 00000033H
	mov	eax, -858993460				; ccccccccH
	rep stosd
	pop	ecx
	mov	DWORD PTR _this$[ebp], ecx
	mov	ecx, DWORD PTR _this$[ebp]
	call	??0_Iterator_base@std@@QAE@XZ		; std::_Iterator_base::_Iterator_base
	mov	eax, DWORD PTR _this$[ebp]
	pop	edi
	pop	esi
	pop	ebx
	add	esp, 204				; 000000ccH
	cmp	ebp, esp
	call	__RTC_CheckEsp
	mov	esp, ebp
	pop	ebp
	ret	0
??0?$_Iterator_with_base@Urandom_access_iterator_tag@std@@PAVfbdFrame@DRAMsimII@@HPBQAV34@ABQAV34@V_Iterator_base@2@@std@@QAE@XZ ENDP ; std::_Iterator_with_base<std::random_access_iterator_tag,DRAMsimII::fbdFrame *,int,DRAMsimII::fbdFrame * const *,DRAMsimII::fbdFrame * const &,std::_Iterator_base>::_Iterator_with_base<std::random_access_iterator_tag,DRAMsimII::fbdFrame *,int,DRAMsimII::fbdFrame * const *,DRAMsimII::fbdFrame * const &,std::_Iterator_base>
; Function compile flags: /Odtp /RTCcsu /ZI
; File c:\program files\microsoft visual studio 9.0\vc\include\xutility
_TEXT	ENDS
;	COMDAT ??0_Iterator_base@std@@QAE@XZ
_TEXT	SEGMENT
_this$ = -8						; size = 4
??0_Iterator_base@std@@QAE@XZ PROC			; std::_Iterator_base::_Iterator_base, COMDAT
; _this$ = ecx

; 138  : 		{	// construct orphaned iterator

	push	ebp
	mov	ebp, esp
	sub	esp, 204				; 000000ccH
	push	ebx
	push	esi
	push	edi
	push	ecx
	lea	edi, DWORD PTR [ebp-204]
	mov	ecx, 51					; 00000033H
	mov	eax, -858993460				; ccccccccH
	rep stosd
	pop	ecx
	mov	DWORD PTR _this$[ebp], ecx
	mov	eax, DWORD PTR _this$[ebp]
	mov	DWORD PTR [eax], 0
	mov	eax, DWORD PTR _this$[ebp]
	mov	DWORD PTR [eax+4], 0

; 139  : 		}

	mov	eax, DWORD PTR _this$[ebp]
	pop	edi
	pop	esi
	pop	ebx
	mov	esp, ebp
	pop	ebp
	ret	0
??0_Iterator_base@std@@QAE@XZ ENDP			; std::_Iterator_base::_Iterator_base
_TEXT	ENDS
PUBLIC	??1sentry@?$basic_ostream@DU?$char_traits@D@std@@@std@@QAE@XZ ; std::basic_ostream<char,std::char_traits<char> >::sentry::~sentry
PUBLIC	??Bsentry@?$basic_ostream@DU?$char_traits@D@std@@@std@@QBE_NXZ ; std::basic_ostream<char,std::char_traits<char> >::sentry::operator bool
PUBLIC	??0sentry@?$basic_ostream@DU?$char_traits@D@std@@@std@@QAE@AAV12@@Z ; std::basic_ostream<char,std::char_traits<char> >::sentry::sentry
EXTRN	__imp_?setstate@?$basic_ios@DU?$char_traits@D@std@@@std@@QAEXH_N@Z:PROC
EXTRN	__imp_?width@ios_base@std@@QAEHH@Z:PROC
EXTRN	__imp_?sputn@?$basic_streambuf@DU?$char_traits@D@std@@@std@@QAEHPBDH@Z:PROC
EXTRN	__imp_?eq_int_type@?$char_traits@D@std@@SA_NABH0@Z:PROC
EXTRN	__imp_?eof@?$char_traits@D@std@@SAHXZ:PROC
EXTRN	__imp_?sputc@?$basic_streambuf@DU?$char_traits@D@std@@@std@@QAEHD@Z:PROC
EXTRN	__imp_?rdbuf@?$basic_ios@DU?$char_traits@D@std@@@std@@QBEPAV?$basic_streambuf@DU?$char_traits@D@std@@@2@XZ:PROC
EXTRN	__imp_?fill@?$basic_ios@DU?$char_traits@D@std@@@std@@QBEDXZ:PROC
EXTRN	__imp_?flags@ios_base@std@@QBEHXZ:PROC
EXTRN	__imp_?width@ios_base@std@@QBEHXZ:PROC
EXTRN	__imp_?length@?$char_traits@D@std@@SAIPBD@Z:PROC
;	COMDAT xdata$x
; File c:\program files\microsoft visual studio 9.0\vc\include\ostream
xdata$x	SEGMENT
__catchsym$??$?6U?$char_traits@D@std@@@std@@YAAAV?$basic_ostream@DU?$char_traits@D@std@@@0@AAV10@PBD@Z$3 DD 040H
	DD	00H
	DD	00H
	DD	FLAT:__catch$??$?6U?$char_traits@D@std@@@std@@YAAAV?$basic_ostream@DU?$char_traits@D@std@@@0@AAV10@PBD@Z$0
__tryblocktable$??$?6U?$char_traits@D@std@@@std@@YAAAV?$basic_ostream@DU?$char_traits@D@std@@@0@AAV10@PBD@Z DD 01H
	DD	01H
	DD	02H
	DD	01H
	DD	FLAT:__catchsym$??$?6U?$char_traits@D@std@@@std@@YAAAV?$basic_ostream@DU?$char_traits@D@std@@@0@AAV10@PBD@Z$3
__unwindtable$??$?6U?$char_traits@D@std@@@std@@YAAAV?$basic_ostream@DU?$char_traits@D@std@@@0@AAV10@PBD@Z DD 0ffffffffH
	DD	FLAT:__unwindfunclet$??$?6U?$char_traits@D@std@@@std@@YAAAV?$basic_ostream@DU?$char_traits@D@std@@@0@AAV10@PBD@Z$2
	DD	00H
	DD	00H
	DD	00H
	DD	00H
__ehfuncinfo$??$?6U?$char_traits@D@std@@@std@@YAAAV?$basic_ostream@DU?$char_traits@D@std@@@0@AAV10@PBD@Z DD 019930522H
	DD	03H
	DD	FLAT:__unwindtable$??$?6U?$char_traits@D@std@@@std@@YAAAV?$basic_ostream@DU?$char_traits@D@std@@@0@AAV10@PBD@Z
	DD	01H
	DD	FLAT:__tryblocktable$??$?6U?$char_traits@D@std@@@std@@YAAAV?$basic_ostream@DU?$char_traits@D@std@@@0@AAV10@PBD@Z
	DD	2 DUP(00H)
	DD	00H
	DD	01H
; Function compile flags: /Odtp /RTCcsu /ZI
xdata$x	ENDS
;	COMDAT ??$?6U?$char_traits@D@std@@@std@@YAAAV?$basic_ostream@DU?$char_traits@D@std@@@0@AAV10@PBD@Z
_TEXT	SEGMENT
tv293 = -337						; size = 1
tv286 = -337						; size = 1
tv292 = -336						; size = 4
tv285 = -336						; size = 4
tv291 = -332						; size = 4
tv284 = -332						; size = 4
tv290 = -328						; size = 4
tv288 = -328						; size = 4
tv283 = -328						; size = 4
tv287 = -324						; size = 4
tv136 = -324						; size = 4
tv134 = -324						; size = 4
tv289 = -321						; size = 1
tv282 = -321						; size = 1
$T116114 = -316						; size = 4
$T116115 = -304						; size = 4
$T116116 = -292						; size = 4
$T116117 = -280						; size = 4
$T116118 = -268						; size = 4
__Ok$ = -64						; size = 8
__Pad$ = -48						; size = 4
__Count$ = -36						; size = 4
__State$ = -24						; size = 4
__$EHRec$ = -16						; size = 16
__Ostr$ = 8						; size = 4
__Val$ = 12						; size = 4
??$?6U?$char_traits@D@std@@@std@@YAAAV?$basic_ostream@DU?$char_traits@D@std@@@0@AAV10@PBD@Z PROC ; std::operator<<<std::char_traits<char> >, COMDAT

; 741  : 	{	// insert NTBS into char stream

	push	ebp
	mov	ebp, esp
	push	-1
	push	__ehhandler$??$?6U?$char_traits@D@std@@@std@@YAAAV?$basic_ostream@DU?$char_traits@D@std@@@0@AAV10@PBD@Z
	mov	eax, DWORD PTR fs:0
	push	eax
	push	ecx
	sub	esp, 324				; 00000144H
	push	ebx
	push	esi
	push	edi
	lea	edi, DWORD PTR [ebp-340]
	mov	ecx, 81					; 00000051H
	mov	eax, -858993460				; ccccccccH
	rep stosd
	mov	eax, DWORD PTR ___security_cookie
	xor	eax, ebp
	push	eax
	lea	eax, DWORD PTR __$EHRec$[ebp+4]
	mov	DWORD PTR fs:0, eax
	mov	DWORD PTR __$EHRec$[ebp], esp

; 742  : 	typedef char _Elem;
; 743  : 	typedef basic_ostream<_Elem, _Traits> _Myos;
; 744  : 	ios_base::iostate _State = ios_base::goodbit;

	mov	DWORD PTR __State$[ebp], 0

; 745  : 	streamsize _Count = (streamsize)_Traits::length(_Val);	// may overflow

	mov	esi, esp
	mov	eax, DWORD PTR __Val$[ebp]
	push	eax
	call	DWORD PTR __imp_?length@?$char_traits@D@std@@SAIPBD@Z
	add	esp, 4
	cmp	esi, esp
	call	__RTC_CheckEsp
	mov	DWORD PTR __Count$[ebp], eax

; 746  : 	streamsize _Pad = _Ostr.width() <= 0 || _Ostr.width() <= _Count
; 747  : 		? 0 : _Ostr.width() - _Count;

	mov	eax, DWORD PTR __Ostr$[ebp]
	mov	ecx, DWORD PTR [eax]
	mov	edx, DWORD PTR __Ostr$[ebp]
	add	edx, DWORD PTR [ecx+4]
	mov	esi, esp
	mov	ecx, edx
	call	DWORD PTR __imp_?width@ios_base@std@@QBEHXZ
	cmp	esi, esp
	call	__RTC_CheckEsp
	test	eax, eax
	jle	SHORT $LN17@operator@7
	mov	eax, DWORD PTR __Ostr$[ebp]
	mov	ecx, DWORD PTR [eax]
	mov	edx, DWORD PTR __Ostr$[ebp]
	add	edx, DWORD PTR [ecx+4]
	mov	esi, esp
	mov	ecx, edx
	call	DWORD PTR __imp_?width@ios_base@std@@QBEHXZ
	cmp	esi, esp
	call	__RTC_CheckEsp
	cmp	eax, DWORD PTR __Count$[ebp]
	jle	SHORT $LN17@operator@7
	mov	eax, DWORD PTR __Ostr$[ebp]
	mov	ecx, DWORD PTR [eax]
	mov	edx, DWORD PTR __Ostr$[ebp]
	add	edx, DWORD PTR [ecx+4]
	mov	esi, esp
	mov	ecx, edx
	call	DWORD PTR __imp_?width@ios_base@std@@QBEHXZ
	cmp	esi, esp
	call	__RTC_CheckEsp
	sub	eax, DWORD PTR __Count$[ebp]
	mov	DWORD PTR tv134[ebp], eax
	jmp	SHORT $LN18@operator@7
$LN17@operator@7:
	mov	DWORD PTR tv134[ebp], 0
$LN18@operator@7:
	mov	eax, DWORD PTR tv134[ebp]
	mov	DWORD PTR __Pad$[ebp], eax

; 748  : 	const typename _Myos::sentry _Ok(_Ostr);

	mov	eax, DWORD PTR __Ostr$[ebp]
	push	eax
	lea	ecx, DWORD PTR __Ok$[ebp]
	call	??0sentry@?$basic_ostream@DU?$char_traits@D@std@@@std@@QAE@AAV12@@Z ; std::basic_ostream<char,std::char_traits<char> >::sentry::sentry
	mov	DWORD PTR __$EHRec$[ebp+12], 0

; 749  : 
; 750  : 	if (!_Ok)

	lea	ecx, DWORD PTR __Ok$[ebp]
	call	??Bsentry@?$basic_ostream@DU?$char_traits@D@std@@@std@@QBE_NXZ ; std::basic_ostream<char,std::char_traits<char> >::sentry::operator bool
	movzx	eax, al
	test	eax, eax
	jne	SHORT $LN14@operator@7

; 751  : 		_State |= ios_base::badbit;

	mov	eax, DWORD PTR __State$[ebp]
	or	eax, 4
	mov	DWORD PTR __State$[ebp], eax

; 752  : 	else

	jmp	$LN13@operator@7
$LN14@operator@7:

; 753  : 		{	// state okay, insert
; 754  : 		_TRY_IO_BEGIN

	mov	BYTE PTR __$EHRec$[ebp+12], 1

; 755  : 		if ((_Ostr.flags() & ios_base::adjustfield) != ios_base::left)

	mov	eax, DWORD PTR __Ostr$[ebp]
	mov	ecx, DWORD PTR [eax]
	mov	edx, DWORD PTR __Ostr$[ebp]
	add	edx, DWORD PTR [ecx+4]
	mov	esi, esp
	mov	ecx, edx
	call	DWORD PTR __imp_?flags@ios_base@std@@QBEHXZ
	cmp	esi, esp
	call	__RTC_CheckEsp
	mov	DWORD PTR tv136[ebp], eax
	mov	eax, DWORD PTR tv136[ebp]
	and	eax, 448				; 000001c0H
	cmp	eax, 64					; 00000040H
	je	$LN11@operator@7
	jmp	SHORT $LN10@operator@7
$LN9@operator@7:

; 756  : 			for (; 0 < _Pad; --_Pad)	// pad on left

	mov	eax, DWORD PTR __Pad$[ebp]
	sub	eax, 1
	mov	DWORD PTR __Pad$[ebp], eax
$LN10@operator@7:
	cmp	DWORD PTR __Pad$[ebp], 0
	jle	$LN11@operator@7

; 757  : 				if (_Traits::eq_int_type(_Traits::eof(),
; 758  : 					_Ostr.rdbuf()->sputc(_Ostr.fill())))

	mov	eax, DWORD PTR __Ostr$[ebp]
	mov	ecx, DWORD PTR [eax]
	mov	edx, DWORD PTR __Ostr$[ebp]
	add	edx, DWORD PTR [ecx+4]
	mov	esi, esp
	mov	ecx, edx
	call	DWORD PTR __imp_?fill@?$basic_ios@DU?$char_traits@D@std@@@std@@QBEDXZ
	cmp	esi, esp
	call	__RTC_CheckEsp
	mov	BYTE PTR tv282[ebp], al
	mov	eax, DWORD PTR __Ostr$[ebp]
	mov	ecx, DWORD PTR [eax]
	mov	edx, DWORD PTR __Ostr$[ebp]
	add	edx, DWORD PTR [ecx+4]
	mov	esi, esp
	mov	ecx, edx
	call	DWORD PTR __imp_?rdbuf@?$basic_ios@DU?$char_traits@D@std@@@std@@QBEPAV?$basic_streambuf@DU?$char_traits@D@std@@@2@XZ
	cmp	esi, esp
	call	__RTC_CheckEsp
	mov	DWORD PTR tv283[ebp], eax
	mov	esi, esp
	movzx	eax, BYTE PTR tv282[ebp]
	push	eax
	mov	ecx, DWORD PTR tv283[ebp]
	call	DWORD PTR __imp_?sputc@?$basic_streambuf@DU?$char_traits@D@std@@@std@@QAEHD@Z
	cmp	esi, esp
	call	__RTC_CheckEsp
	mov	DWORD PTR tv284[ebp], eax
	mov	ecx, DWORD PTR tv284[ebp]
	mov	DWORD PTR $T116114[ebp], ecx
	mov	esi, esp
	call	DWORD PTR __imp_?eof@?$char_traits@D@std@@SAHXZ
	cmp	esi, esp
	call	__RTC_CheckEsp
	mov	DWORD PTR tv285[ebp], eax
	mov	edx, DWORD PTR tv285[ebp]
	mov	DWORD PTR $T116115[ebp], edx
	mov	esi, esp
	lea	eax, DWORD PTR $T116114[ebp]
	push	eax
	lea	ecx, DWORD PTR $T116115[ebp]
	push	ecx
	call	DWORD PTR __imp_?eq_int_type@?$char_traits@D@std@@SA_NABH0@Z
	add	esp, 8
	cmp	esi, esp
	call	__RTC_CheckEsp
	mov	BYTE PTR tv286[ebp], al
	movzx	edx, BYTE PTR tv286[ebp]
	test	edx, edx
	je	SHORT $LN7@operator@7

; 759  : 					{	// insertion failed, quit
; 760  : 					_State |= ios_base::badbit;

	mov	eax, DWORD PTR __State$[ebp]
	or	eax, 4
	mov	DWORD PTR __State$[ebp], eax

; 761  : 					break;

	jmp	SHORT $LN11@operator@7
$LN7@operator@7:

; 762  : 					}
; 763  : 
; 764  : 		if (_State == ios_base::goodbit

	jmp	$LN9@operator@7
$LN11@operator@7:

; 765  : 			&& _Ostr.rdbuf()->sputn(_Val, _Count) != _Count)

	cmp	DWORD PTR __State$[ebp], 0
	jne	SHORT $LN6@operator@7
	mov	eax, DWORD PTR __Ostr$[ebp]
	mov	ecx, DWORD PTR [eax]
	mov	edx, DWORD PTR __Ostr$[ebp]
	add	edx, DWORD PTR [ecx+4]
	mov	esi, esp
	mov	ecx, edx
	call	DWORD PTR __imp_?rdbuf@?$basic_ios@DU?$char_traits@D@std@@@std@@QBEPAV?$basic_streambuf@DU?$char_traits@D@std@@@2@XZ
	cmp	esi, esp
	call	__RTC_CheckEsp
	mov	DWORD PTR tv287[ebp], eax
	mov	esi, esp
	mov	eax, DWORD PTR __Count$[ebp]
	push	eax
	mov	ecx, DWORD PTR __Val$[ebp]
	push	ecx
	mov	ecx, DWORD PTR tv287[ebp]
	call	DWORD PTR __imp_?sputn@?$basic_streambuf@DU?$char_traits@D@std@@@std@@QAEHPBDH@Z
	cmp	esi, esp
	call	__RTC_CheckEsp
	mov	DWORD PTR tv288[ebp], eax
	mov	edx, DWORD PTR tv288[ebp]
	cmp	edx, DWORD PTR __Count$[ebp]
	je	SHORT $LN6@operator@7

; 766  : 			_State |= ios_base::badbit;

	mov	eax, DWORD PTR __State$[ebp]
	or	eax, 4
	mov	DWORD PTR __State$[ebp], eax
$LN6@operator@7:

; 767  : 
; 768  : 		if (_State == ios_base::goodbit)

	cmp	DWORD PTR __State$[ebp], 0
	jne	$LN5@operator@7
	jmp	SHORT $LN4@operator@7
$LN3@operator@7:

; 769  : 			for (; 0 < _Pad; --_Pad)	// pad on right

	mov	eax, DWORD PTR __Pad$[ebp]
	sub	eax, 1
	mov	DWORD PTR __Pad$[ebp], eax
$LN4@operator@7:
	cmp	DWORD PTR __Pad$[ebp], 0
	jle	$LN5@operator@7

; 770  : 				if (_Traits::eq_int_type(_Traits::eof(),
; 771  : 					_Ostr.rdbuf()->sputc(_Ostr.fill())))

	mov	eax, DWORD PTR __Ostr$[ebp]
	mov	ecx, DWORD PTR [eax]
	mov	edx, DWORD PTR __Ostr$[ebp]
	add	edx, DWORD PTR [ecx+4]
	mov	esi, esp
	mov	ecx, edx
	call	DWORD PTR __imp_?fill@?$basic_ios@DU?$char_traits@D@std@@@std@@QBEDXZ
	cmp	esi, esp
	call	__RTC_CheckEsp
	mov	BYTE PTR tv289[ebp], al
	mov	eax, DWORD PTR __Ostr$[ebp]
	mov	ecx, DWORD PTR [eax]
	mov	edx, DWORD PTR __Ostr$[ebp]
	add	edx, DWORD PTR [ecx+4]
	mov	esi, esp
	mov	ecx, edx
	call	DWORD PTR __imp_?rdbuf@?$basic_ios@DU?$char_traits@D@std@@@std@@QBEPAV?$basic_streambuf@DU?$char_traits@D@std@@@2@XZ
	cmp	esi, esp
	call	__RTC_CheckEsp
	mov	DWORD PTR tv290[ebp], eax
	mov	esi, esp
	movzx	eax, BYTE PTR tv289[ebp]
	push	eax
	mov	ecx, DWORD PTR tv290[ebp]
	call	DWORD PTR __imp_?sputc@?$basic_streambuf@DU?$char_traits@D@std@@@std@@QAEHD@Z
	cmp	esi, esp
	call	__RTC_CheckEsp
	mov	DWORD PTR tv291[ebp], eax
	mov	ecx, DWORD PTR tv291[ebp]
	mov	DWORD PTR $T116116[ebp], ecx
	mov	esi, esp
	call	DWORD PTR __imp_?eof@?$char_traits@D@std@@SAHXZ
	cmp	esi, esp
	call	__RTC_CheckEsp
	mov	DWORD PTR tv292[ebp], eax
	mov	edx, DWORD PTR tv292[ebp]
	mov	DWORD PTR $T116117[ebp], edx
	mov	esi, esp
	lea	eax, DWORD PTR $T116116[ebp]
	push	eax
	lea	ecx, DWORD PTR $T116117[ebp]
	push	ecx
	call	DWORD PTR __imp_?eq_int_type@?$char_traits@D@std@@SA_NABH0@Z
	add	esp, 8
	cmp	esi, esp
	call	__RTC_CheckEsp
	mov	BYTE PTR tv293[ebp], al
	movzx	edx, BYTE PTR tv293[ebp]
	test	edx, edx
	je	SHORT $LN1@operator@7

; 772  : 					{	// insertion failed, quit
; 773  : 					_State |= ios_base::badbit;

	mov	eax, DWORD PTR __State$[ebp]
	or	eax, 4
	mov	DWORD PTR __State$[ebp], eax

; 774  : 					break;

	jmp	SHORT $LN5@operator@7
$LN1@operator@7:

; 775  : 					}

	jmp	$LN3@operator@7
$LN5@operator@7:

; 776  : 		_Ostr.width(0);

	mov	esi, esp
	push	0
	mov	eax, DWORD PTR __Ostr$[ebp]
	mov	ecx, DWORD PTR [eax]
	mov	edx, DWORD PTR __Ostr$[ebp]
	add	edx, DWORD PTR [ecx+4]
	mov	ecx, edx
	call	DWORD PTR __imp_?width@ios_base@std@@QAEHH@Z
	cmp	esi, esp
	call	__RTC_CheckEsp
	jmp	SHORT $LN19@operator@7
__catch$??$?6U?$char_traits@D@std@@@std@@YAAAV?$basic_ostream@DU?$char_traits@D@std@@@0@AAV10@PBD@Z$0:

; 777  : 		_CATCH_IO_(_Ostr)

	mov	esi, esp
	push	1
	push	4
	mov	eax, DWORD PTR __Ostr$[ebp]
	mov	ecx, DWORD PTR [eax]
	mov	edx, DWORD PTR __Ostr$[ebp]
	add	edx, DWORD PTR [ecx+4]
	mov	ecx, edx
	call	DWORD PTR __imp_?setstate@?$basic_ios@DU?$char_traits@D@std@@@std@@QAEXH_N@Z
	cmp	esi, esp
	call	__RTC_CheckEsp
	mov	DWORD PTR __$EHRec$[ebp+12], 0
	mov	eax, $LN13@operator@7
	ret	0
$LN19@operator@7:
	mov	DWORD PTR __$EHRec$[ebp+12], 0
$LN13@operator@7:

; 778  : 		}
; 779  : 
; 780  : 	_Ostr.setstate(_State);

	mov	esi, esp
	push	0
	mov	eax, DWORD PTR __State$[ebp]
	push	eax
	mov	ecx, DWORD PTR __Ostr$[ebp]
	mov	edx, DWORD PTR [ecx]
	mov	ecx, DWORD PTR __Ostr$[ebp]
	add	ecx, DWORD PTR [edx+4]
	call	DWORD PTR __imp_?setstate@?$basic_ios@DU?$char_traits@D@std@@@std@@QAEXH_N@Z
	cmp	esi, esp
	call	__RTC_CheckEsp

; 781  : 	return (_Ostr);

	mov	eax, DWORD PTR __Ostr$[ebp]
	mov	DWORD PTR $T116118[ebp], eax
	mov	DWORD PTR __$EHRec$[ebp+12], -1
	lea	ecx, DWORD PTR __Ok$[ebp]
	call	??1sentry@?$basic_ostream@DU?$char_traits@D@std@@@std@@QAE@XZ ; std::basic_ostream<char,std::char_traits<char> >::sentry::~sentry
	mov	eax, DWORD PTR $T116118[ebp]

; 782  : 	}

	push	edx
	mov	ecx, ebp
	push	eax
	lea	edx, DWORD PTR $LN28@operator@7
	call	@_RTC_CheckStackVars@8
	pop	eax
	pop	edx
	mov	ecx, DWORD PTR __$EHRec$[ebp+4]
	mov	DWORD PTR fs:0, ecx
	pop	ecx
	pop	edi
	pop	esi
	pop	ebx
	add	esp, 340				; 00000154H
	cmp	ebp, esp
	call	__RTC_CheckEsp
	mov	esp, ebp
	pop	ebp
	ret	0
	npad	3
$LN28@operator@7:
	DD	1
	DD	$LN27@operator@7
$LN27@operator@7:
	DD	-64					; ffffffc0H
	DD	8
	DD	$LN25@operator@7
$LN25@operator@7:
	DB	95					; 0000005fH
	DB	79					; 0000004fH
	DB	107					; 0000006bH
	DB	0
_TEXT	ENDS
;	COMDAT text$x
text$x	SEGMENT
__unwindfunclet$??$?6U?$char_traits@D@std@@@std@@YAAAV?$basic_ostream@DU?$char_traits@D@std@@@0@AAV10@PBD@Z$2:
	lea	ecx, DWORD PTR __Ok$[ebp]
	jmp	??1sentry@?$basic_ostream@DU?$char_traits@D@std@@@std@@QAE@XZ ; std::basic_ostream<char,std::char_traits<char> >::sentry::~sentry
__ehhandler$??$?6U?$char_traits@D@std@@@std@@YAAAV?$basic_ostream@DU?$char_traits@D@std@@@0@AAV10@PBD@Z:
	mov	edx, DWORD PTR [esp+8]
	lea	eax, DWORD PTR [edx+12]
	mov	ecx, DWORD PTR [edx-344]
	xor	ecx, eax
	call	@__security_check_cookie@4
	mov	eax, OFFSET __ehfuncinfo$??$?6U?$char_traits@D@std@@@std@@YAAAV?$basic_ostream@DU?$char_traits@D@std@@@0@AAV10@PBD@Z
	jmp	___CxxFrameHandler3
text$x	ENDS
??$?6U?$char_traits@D@std@@@std@@YAAAV?$basic_ostream@DU?$char_traits@D@std@@@0@AAV10@PBD@Z ENDP ; std::operator<<<std::char_traits<char> >
PUBLIC	??1_Sentry_base@?$basic_ostream@DU?$char_traits@D@std@@@std@@QAE@XZ ; std::basic_ostream<char,std::char_traits<char> >::_Sentry_base::~_Sentry_base
PUBLIC	??0_Sentry_base@?$basic_ostream@DU?$char_traits@D@std@@@std@@QAE@AAV12@@Z ; std::basic_ostream<char,std::char_traits<char> >::_Sentry_base::_Sentry_base
EXTRN	__imp_?flush@?$basic_ostream@DU?$char_traits@D@std@@@std@@QAEAAV12@XZ:PROC
EXTRN	__imp_?tie@?$basic_ios@DU?$char_traits@D@std@@@std@@QBEPAV?$basic_ostream@DU?$char_traits@D@std@@@2@XZ:PROC
EXTRN	__imp_?good@ios_base@std@@QBE_NXZ:PROC
;	COMDAT xdata$x
xdata$x	SEGMENT
__unwindtable$??0sentry@?$basic_ostream@DU?$char_traits@D@std@@@std@@QAE@AAV12@@Z DD 0ffffffffH
	DD	FLAT:__unwindfunclet$??0sentry@?$basic_ostream@DU?$char_traits@D@std@@@std@@QAE@AAV12@@Z$0
__ehfuncinfo$??0sentry@?$basic_ostream@DU?$char_traits@D@std@@@std@@QAE@AAV12@@Z DD 019930522H
	DD	01H
	DD	FLAT:__unwindtable$??0sentry@?$basic_ostream@DU?$char_traits@D@std@@@std@@QAE@AAV12@@Z
	DD	2 DUP(00H)
	DD	2 DUP(00H)
	DD	00H
	DD	01H
; Function compile flags: /Odtp /RTCcsu /ZI
xdata$x	ENDS
;	COMDAT ??0sentry@?$basic_ostream@DU?$char_traits@D@std@@@std@@QAE@AAV12@@Z
_TEXT	SEGMENT
_this$ = -20						; size = 4
__$EHRec$ = -12						; size = 12
__Ostr$ = 8						; size = 4
??0sentry@?$basic_ostream@DU?$char_traits@D@std@@@std@@QAE@AAV12@@Z PROC ; std::basic_ostream<char,std::char_traits<char> >::sentry::sentry, COMDAT
; _this$ = ecx

; 95   : 			{	// construct locking and testing stream

	push	ebp
	mov	ebp, esp
	push	-1
	push	__ehhandler$??0sentry@?$basic_ostream@DU?$char_traits@D@std@@@std@@QAE@AAV12@@Z
	mov	eax, DWORD PTR fs:0
	push	eax
	sub	esp, 204				; 000000ccH
	push	ebx
	push	esi
	push	edi
	push	ecx
	lea	edi, DWORD PTR [ebp-216]
	mov	ecx, 51					; 00000033H
	mov	eax, -858993460				; ccccccccH
	rep stosd
	pop	ecx
	mov	eax, DWORD PTR ___security_cookie
	xor	eax, ebp
	push	eax
	lea	eax, DWORD PTR __$EHRec$[ebp]
	mov	DWORD PTR fs:0, eax
	mov	DWORD PTR _this$[ebp], ecx
	mov	eax, DWORD PTR __Ostr$[ebp]
	push	eax
	mov	ecx, DWORD PTR _this$[ebp]
	call	??0_Sentry_base@?$basic_ostream@DU?$char_traits@D@std@@@std@@QAE@AAV12@@Z ; std::basic_ostream<char,std::char_traits<char> >::_Sentry_base::_Sentry_base
	mov	DWORD PTR __$EHRec$[ebp+8], 0

; 96   : 			if (_Ostr.good() && _Ostr.tie() != 0)

	mov	eax, DWORD PTR __Ostr$[ebp]
	mov	ecx, DWORD PTR [eax]
	mov	edx, DWORD PTR __Ostr$[ebp]
	add	edx, DWORD PTR [ecx+4]
	mov	esi, esp
	mov	ecx, edx
	call	DWORD PTR __imp_?good@ios_base@std@@QBE_NXZ
	cmp	esi, esp
	call	__RTC_CheckEsp
	movzx	eax, al
	test	eax, eax
	je	SHORT $LN1@sentry
	mov	eax, DWORD PTR __Ostr$[ebp]
	mov	ecx, DWORD PTR [eax]
	mov	edx, DWORD PTR __Ostr$[ebp]
	add	edx, DWORD PTR [ecx+4]
	mov	esi, esp
	mov	ecx, edx
	call	DWORD PTR __imp_?tie@?$basic_ios@DU?$char_traits@D@std@@@std@@QBEPAV?$basic_ostream@DU?$char_traits@D@std@@@2@XZ
	cmp	esi, esp
	call	__RTC_CheckEsp
	test	eax, eax
	je	SHORT $LN1@sentry

; 97   : 				_Ostr.tie()->flush();

	mov	eax, DWORD PTR __Ostr$[ebp]
	mov	ecx, DWORD PTR [eax]
	mov	edx, DWORD PTR __Ostr$[ebp]
	add	edx, DWORD PTR [ecx+4]
	mov	esi, esp
	mov	ecx, edx
	call	DWORD PTR __imp_?tie@?$basic_ios@DU?$char_traits@D@std@@@std@@QBEPAV?$basic_ostream@DU?$char_traits@D@std@@@2@XZ
	cmp	esi, esp
	call	__RTC_CheckEsp
	mov	esi, esp
	mov	ecx, eax
	call	DWORD PTR __imp_?flush@?$basic_ostream@DU?$char_traits@D@std@@@std@@QAEAAV12@XZ
	cmp	esi, esp
	call	__RTC_CheckEsp
$LN1@sentry:

; 98   : 			_Ok = _Ostr.good();	// store test only after flushing tie

	mov	eax, DWORD PTR __Ostr$[ebp]
	mov	ecx, DWORD PTR [eax]
	mov	edx, DWORD PTR __Ostr$[ebp]
	add	edx, DWORD PTR [ecx+4]
	mov	esi, esp
	mov	ecx, edx
	call	DWORD PTR __imp_?good@ios_base@std@@QBE_NXZ
	cmp	esi, esp
	call	__RTC_CheckEsp
	mov	ecx, DWORD PTR _this$[ebp]
	mov	BYTE PTR [ecx+4], al

; 99   : 			}

	mov	DWORD PTR __$EHRec$[ebp+8], -1
	mov	eax, DWORD PTR _this$[ebp]
	mov	ecx, DWORD PTR __$EHRec$[ebp]
	mov	DWORD PTR fs:0, ecx
	pop	ecx
	pop	edi
	pop	esi
	pop	ebx
	add	esp, 216				; 000000d8H
	cmp	ebp, esp
	call	__RTC_CheckEsp
	mov	esp, ebp
	pop	ebp
	ret	4
_TEXT	ENDS
;	COMDAT text$x
text$x	SEGMENT
__unwindfunclet$??0sentry@?$basic_ostream@DU?$char_traits@D@std@@@std@@QAE@AAV12@@Z$0:
	mov	ecx, DWORD PTR _this$[ebp]
	jmp	??1_Sentry_base@?$basic_ostream@DU?$char_traits@D@std@@@std@@QAE@XZ ; std::basic_ostream<char,std::char_traits<char> >::_Sentry_base::~_Sentry_base
__ehhandler$??0sentry@?$basic_ostream@DU?$char_traits@D@std@@@std@@QAE@AAV12@@Z:
	mov	edx, DWORD PTR [esp+8]
	lea	eax, DWORD PTR [edx+12]
	mov	ecx, DWORD PTR [edx-220]
	xor	ecx, eax
	call	@__security_check_cookie@4
	mov	eax, OFFSET __ehfuncinfo$??0sentry@?$basic_ostream@DU?$char_traits@D@std@@@std@@QAE@AAV12@@Z
	jmp	___CxxFrameHandler3
text$x	ENDS
??0sentry@?$basic_ostream@DU?$char_traits@D@std@@@std@@QAE@AAV12@@Z ENDP ; std::basic_ostream<char,std::char_traits<char> >::sentry::sentry
EXTRN	__imp_?_Osfx@?$basic_ostream@DU?$char_traits@D@std@@@std@@QAEXXZ:PROC
EXTRN	__imp_?uncaught_exception@std@@YA_NXZ:PROC
;	COMDAT xdata$x
xdata$x	SEGMENT
__unwindtable$??1sentry@?$basic_ostream@DU?$char_traits@D@std@@@std@@QAE@XZ DD 0ffffffffH
	DD	FLAT:__unwindfunclet$??1sentry@?$basic_ostream@DU?$char_traits@D@std@@@std@@QAE@XZ$0
__ehfuncinfo$??1sentry@?$basic_ostream@DU?$char_traits@D@std@@@std@@QAE@XZ DD 019930522H
	DD	01H
	DD	FLAT:__unwindtable$??1sentry@?$basic_ostream@DU?$char_traits@D@std@@@std@@QAE@XZ
	DD	2 DUP(00H)
	DD	2 DUP(00H)
	DD	00H
	DD	01H
; Function compile flags: /Odtp /RTCcsu /ZI
xdata$x	ENDS
;	COMDAT ??1sentry@?$basic_ostream@DU?$char_traits@D@std@@@std@@QAE@XZ
_TEXT	SEGMENT
_this$ = -20						; size = 4
__$EHRec$ = -12						; size = 12
??1sentry@?$basic_ostream@DU?$char_traits@D@std@@@std@@QAE@XZ PROC ; std::basic_ostream<char,std::char_traits<char> >::sentry::~sentry, COMDAT
; _this$ = ecx

; 102  : 			{	// destroy the object

	push	ebp
	mov	ebp, esp
	push	-1
	push	__ehhandler$??1sentry@?$basic_ostream@DU?$char_traits@D@std@@@std@@QAE@XZ
	mov	eax, DWORD PTR fs:0
	push	eax
	sub	esp, 204				; 000000ccH
	push	ebx
	push	esi
	push	edi
	push	ecx
	lea	edi, DWORD PTR [ebp-216]
	mov	ecx, 51					; 00000033H
	mov	eax, -858993460				; ccccccccH
	rep stosd
	pop	ecx
	mov	eax, DWORD PTR ___security_cookie
	xor	eax, ebp
	push	eax
	lea	eax, DWORD PTR __$EHRec$[ebp]
	mov	DWORD PTR fs:0, eax
	mov	DWORD PTR _this$[ebp], ecx
	mov	DWORD PTR __$EHRec$[ebp+8], 0

; 103  : 
; 104  :  #if _HAS_EXCEPTIONS
; 105  : 			if (!_XSTD uncaught_exception())

	mov	esi, esp
	call	DWORD PTR __imp_?uncaught_exception@std@@YA_NXZ
	cmp	esi, esp
	call	__RTC_CheckEsp
	movzx	eax, al
	test	eax, eax
	jne	SHORT $LN2@sentry@2

; 106  : 				this->_Myostr._Osfx();

	mov	esi, esp
	mov	eax, DWORD PTR _this$[ebp]
	mov	ecx, DWORD PTR [eax]
	call	DWORD PTR __imp_?_Osfx@?$basic_ostream@DU?$char_traits@D@std@@@std@@QAEXXZ
	cmp	esi, esp
	call	__RTC_CheckEsp
$LN2@sentry@2:

; 107  : 			}

	mov	DWORD PTR __$EHRec$[ebp+8], -1
	mov	ecx, DWORD PTR _this$[ebp]
	call	??1_Sentry_base@?$basic_ostream@DU?$char_traits@D@std@@@std@@QAE@XZ ; std::basic_ostream<char,std::char_traits<char> >::_Sentry_base::~_Sentry_base
	mov	ecx, DWORD PTR __$EHRec$[ebp]
	mov	DWORD PTR fs:0, ecx
	pop	ecx
	pop	edi
	pop	esi
	pop	ebx
	add	esp, 216				; 000000d8H
	cmp	ebp, esp
	call	__RTC_CheckEsp
	mov	esp, ebp
	pop	ebp
	ret	0
_TEXT	ENDS
;	COMDAT text$x
text$x	SEGMENT
__unwindfunclet$??1sentry@?$basic_ostream@DU?$char_traits@D@std@@@std@@QAE@XZ$0:
	mov	ecx, DWORD PTR _this$[ebp]
	jmp	??1_Sentry_base@?$basic_ostream@DU?$char_traits@D@std@@@std@@QAE@XZ ; std::basic_ostream<char,std::char_traits<char> >::_Sentry_base::~_Sentry_base
__ehhandler$??1sentry@?$basic_ostream@DU?$char_traits@D@std@@@std@@QAE@XZ:
	mov	edx, DWORD PTR [esp+8]
	lea	eax, DWORD PTR [edx+12]
	mov	ecx, DWORD PTR [edx-220]
	xor	ecx, eax
	call	@__security_check_cookie@4
	mov	eax, OFFSET __ehfuncinfo$??1sentry@?$basic_ostream@DU?$char_traits@D@std@@@std@@QAE@XZ
	jmp	___CxxFrameHandler3
text$x	ENDS
??1sentry@?$basic_ostream@DU?$char_traits@D@std@@@std@@QAE@XZ ENDP ; std::basic_ostream<char,std::char_traits<char> >::sentry::~sentry
; Function compile flags: /Odtp /RTCcsu /ZI
;	COMDAT ??Bsentry@?$basic_ostream@DU?$char_traits@D@std@@@std@@QBE_NXZ
_TEXT	SEGMENT
_this$ = -8						; size = 4
??Bsentry@?$basic_ostream@DU?$char_traits@D@std@@@std@@QBE_NXZ PROC ; std::basic_ostream<char,std::char_traits<char> >::sentry::operator bool, COMDAT
; _this$ = ecx

; 115  : 			{	// test if stream state okay

	push	ebp
	mov	ebp, esp
	sub	esp, 204				; 000000ccH
	push	ebx
	push	esi
	push	edi
	push	ecx
	lea	edi, DWORD PTR [ebp-204]
	mov	ecx, 51					; 00000033H
	mov	eax, -858993460				; ccccccccH
	rep stosd
	pop	ecx
	mov	DWORD PTR _this$[ebp], ecx

; 116  : 			return (_Ok);

	mov	eax, DWORD PTR _this$[ebp]
	mov	al, BYTE PTR [eax+4]

; 117  : 			}

	pop	edi
	pop	esi
	pop	ebx
	mov	esp, ebp
	pop	ebp
	ret	0
??Bsentry@?$basic_ostream@DU?$char_traits@D@std@@@std@@QBE_NXZ ENDP ; std::basic_ostream<char,std::char_traits<char> >::sentry::operator bool
_TEXT	ENDS
EXTRN	__imp_?_Lock@?$basic_streambuf@DU?$char_traits@D@std@@@std@@QAEXXZ:PROC
; Function compile flags: /Odtp /RTCcsu /ZI
;	COMDAT ??0_Sentry_base@?$basic_ostream@DU?$char_traits@D@std@@@std@@QAE@AAV12@@Z
_TEXT	SEGMENT
_this$ = -8						; size = 4
__Ostr$ = 8						; size = 4
??0_Sentry_base@?$basic_ostream@DU?$char_traits@D@std@@@std@@QAE@AAV12@@Z PROC ; std::basic_ostream<char,std::char_traits<char> >::_Sentry_base::_Sentry_base, COMDAT
; _this$ = ecx

; 75   : 			{	// lock the stream buffer, if there

	push	ebp
	mov	ebp, esp
	sub	esp, 204				; 000000ccH
	push	ebx
	push	esi
	push	edi
	push	ecx
	lea	edi, DWORD PTR [ebp-204]
	mov	ecx, 51					; 00000033H
	mov	eax, -858993460				; ccccccccH
	rep stosd
	pop	ecx
	mov	DWORD PTR _this$[ebp], ecx
	mov	eax, DWORD PTR _this$[ebp]
	mov	ecx, DWORD PTR __Ostr$[ebp]
	mov	DWORD PTR [eax], ecx

; 76   : 			if (_Myostr.rdbuf() != 0)

	mov	eax, DWORD PTR _this$[ebp]
	mov	ecx, DWORD PTR [eax]
	mov	edx, DWORD PTR [ecx]
	mov	eax, DWORD PTR _this$[ebp]
	mov	ecx, DWORD PTR [eax]
	add	ecx, DWORD PTR [edx+4]
	mov	esi, esp
	call	DWORD PTR __imp_?rdbuf@?$basic_ios@DU?$char_traits@D@std@@@std@@QBEPAV?$basic_streambuf@DU?$char_traits@D@std@@@2@XZ
	cmp	esi, esp
	call	__RTC_CheckEsp
	test	eax, eax
	je	SHORT $LN2@Sentry_bas

; 77   : 				_Myostr.rdbuf()->_Lock();

	mov	eax, DWORD PTR _this$[ebp]
	mov	ecx, DWORD PTR [eax]
	mov	edx, DWORD PTR [ecx]
	mov	eax, DWORD PTR _this$[ebp]
	mov	ecx, DWORD PTR [eax]
	add	ecx, DWORD PTR [edx+4]
	mov	esi, esp
	call	DWORD PTR __imp_?rdbuf@?$basic_ios@DU?$char_traits@D@std@@@std@@QBEPAV?$basic_streambuf@DU?$char_traits@D@std@@@2@XZ
	cmp	esi, esp
	call	__RTC_CheckEsp
	mov	esi, esp
	mov	ecx, eax
	call	DWORD PTR __imp_?_Lock@?$basic_streambuf@DU?$char_traits@D@std@@@std@@QAEXXZ
	cmp	esi, esp
	call	__RTC_CheckEsp
$LN2@Sentry_bas:

; 78   : 			}

	mov	eax, DWORD PTR _this$[ebp]
	pop	edi
	pop	esi
	pop	ebx
	add	esp, 204				; 000000ccH
	cmp	ebp, esp
	call	__RTC_CheckEsp
	mov	esp, ebp
	pop	ebp
	ret	4
??0_Sentry_base@?$basic_ostream@DU?$char_traits@D@std@@@std@@QAE@AAV12@@Z ENDP ; std::basic_ostream<char,std::char_traits<char> >::_Sentry_base::_Sentry_base
_TEXT	ENDS
EXTRN	__imp_?_Unlock@?$basic_streambuf@DU?$char_traits@D@std@@@std@@QAEXXZ:PROC
; Function compile flags: /Odtp /RTCcsu /ZI
;	COMDAT ??1_Sentry_base@?$basic_ostream@DU?$char_traits@D@std@@@std@@QAE@XZ
_TEXT	SEGMENT
_this$ = -8						; size = 4
??1_Sentry_base@?$basic_ostream@DU?$char_traits@D@std@@@std@@QAE@XZ PROC ; std::basic_ostream<char,std::char_traits<char> >::_Sentry_base::~_Sentry_base, COMDAT
; _this$ = ecx

; 81   : 			{	// destroy after unlocking

	push	ebp
	mov	ebp, esp
	sub	esp, 204				; 000000ccH
	push	ebx
	push	esi
	push	edi
	push	ecx
	lea	edi, DWORD PTR [ebp-204]
	mov	ecx, 51					; 00000033H
	mov	eax, -858993460				; ccccccccH
	rep stosd
	pop	ecx
	mov	DWORD PTR _this$[ebp], ecx

; 82   : 			if (_Myostr.rdbuf() != 0)

	mov	eax, DWORD PTR _this$[ebp]
	mov	ecx, DWORD PTR [eax]
	mov	edx, DWORD PTR [ecx]
	mov	eax, DWORD PTR _this$[ebp]
	mov	ecx, DWORD PTR [eax]
	add	ecx, DWORD PTR [edx+4]
	mov	esi, esp
	call	DWORD PTR __imp_?rdbuf@?$basic_ios@DU?$char_traits@D@std@@@std@@QBEPAV?$basic_streambuf@DU?$char_traits@D@std@@@2@XZ
	cmp	esi, esp
	call	__RTC_CheckEsp
	test	eax, eax
	je	SHORT $LN2@Sentry_bas@2

; 83   : 				_Myostr.rdbuf()->_Unlock();

	mov	eax, DWORD PTR _this$[ebp]
	mov	ecx, DWORD PTR [eax]
	mov	edx, DWORD PTR [ecx]
	mov	eax, DWORD PTR _this$[ebp]
	mov	ecx, DWORD PTR [eax]
	add	ecx, DWORD PTR [edx+4]
	mov	esi, esp
	call	DWORD PTR __imp_?rdbuf@?$basic_ios@DU?$char_traits@D@std@@@std@@QBEPAV?$basic_streambuf@DU?$char_traits@D@std@@@2@XZ
	cmp	esi, esp
	call	__RTC_CheckEsp
	mov	esi, esp
	mov	ecx, eax
	call	DWORD PTR __imp_?_Unlock@?$basic_streambuf@DU?$char_traits@D@std@@@std@@QAEXXZ
	cmp	esi, esp
	call	__RTC_CheckEsp
$LN2@Sentry_bas@2:

; 84   : 			}

	pop	edi
	pop	esi
	pop	ebx
	add	esp, 204				; 000000ccH
	cmp	ebp, esp
	call	__RTC_CheckEsp
	mov	esp, ebp
	pop	ebp
	ret	0
??1_Sentry_base@?$basic_ostream@DU?$char_traits@D@std@@@std@@QAE@XZ ENDP ; std::basic_ostream<char,std::char_traits<char> >::_Sentry_base::~_Sentry_base
_TEXT	ENDS
PUBLIC	??0?$Queue@VfbdFrame@DRAMsimII@@@DRAMsimII@@QAE@I_N@Z ; DRAMsimII::Queue<DRAMsimII::fbdFrame>::Queue<DRAMsimII::fbdFrame>
EXTRN	_atexit:PROC
; Function compile flags: /Odtp /RTCcsu /ZI
; File c:\users\crius\documents\visual studio 2008\projects\dramsimiihg\src\fbdframe.cpp
;	COMDAT ??__E?freeFramePool@fbdFrame@DRAMsimII@@0V?$Queue@VfbdFrame@DRAMsimII@@@2@A@@YAXXZ
text$yc	SEGMENT
??__E?freeFramePool@fbdFrame@DRAMsimII@@0V?$Queue@VfbdFrame@DRAMsimII@@@2@A@@YAXXZ PROC ; `dynamic initializer for 'DRAMsimII::fbdFrame::freeFramePool'', COMDAT

; 23   : Queue<fbdFrame> fbdFrame::freeFramePool(4*POOL_SIZE,true);

	push	ebp
	mov	ebp, esp
	sub	esp, 192				; 000000c0H
	push	ebx
	push	esi
	push	edi
	lea	edi, DWORD PTR [ebp-192]
	mov	ecx, 48					; 00000030H
	mov	eax, -858993460				; ccccccccH
	rep stosd
	push	1
	push	256					; 00000100H
	mov	ecx, OFFSET ?freeFramePool@fbdFrame@DRAMsimII@@0V?$Queue@VfbdFrame@DRAMsimII@@@2@A ; DRAMsimII::fbdFrame::freeFramePool
	call	??0?$Queue@VfbdFrame@DRAMsimII@@@DRAMsimII@@QAE@I_N@Z ; DRAMsimII::Queue<DRAMsimII::fbdFrame>::Queue<DRAMsimII::fbdFrame>
	push	OFFSET ??__F?freeFramePool@fbdFrame@DRAMsimII@@0V?$Queue@VfbdFrame@DRAMsimII@@@2@A@@YAXXZ ; `dynamic atexit destructor for 'DRAMsimII::fbdFrame::freeFramePool''
	call	_atexit
	add	esp, 4
	pop	edi
	pop	esi
	pop	ebx
	add	esp, 192				; 000000c0H
	cmp	ebp, esp
	call	__RTC_CheckEsp
	mov	esp, ebp
	pop	ebp
	ret	0
??__E?freeFramePool@fbdFrame@DRAMsimII@@0V?$Queue@VfbdFrame@DRAMsimII@@@2@A@@YAXXZ ENDP ; `dynamic initializer for 'DRAMsimII::fbdFrame::freeFramePool''
text$yc	ENDS
