; Listing generated by Microsoft (R) Optimizing Compiler Version 15.00.30729.01 

	TITLE	c:\Users\CriuS\Documents\Visual Studio 2008\Projects\DRAMsimIIhg\src\InputStream.cpp
	.686P
	.XMM
	include listing.inc
	.model	flat

INCLUDELIB MSVCRTD
INCLUDELIB OLDNAMES

PUBLIC	??_C@_0P@GHFPNOJB@bad?5allocation?$AA@		; `string'
PUBLIC	?_Value@?$_Is_swap_move@U_Swap_move_tag@std@@@std@@2_NB ; std::_Is_swap_move<std::_Swap_move_tag>::_Value
PUBLIC	?collate@?$_Locbase@H@std@@2HB			; std::_Locbase<int>::collate
PUBLIC	?ctype@?$_Locbase@H@std@@2HB			; std::_Locbase<int>::ctype
PUBLIC	?monetary@?$_Locbase@H@std@@2HB			; std::_Locbase<int>::monetary
PUBLIC	?numeric@?$_Locbase@H@std@@2HB			; std::_Locbase<int>::numeric
PUBLIC	?time@?$_Locbase@H@std@@2HB			; std::_Locbase<int>::time
PUBLIC	?messages@?$_Locbase@H@std@@2HB			; std::_Locbase<int>::messages
PUBLIC	?all@?$_Locbase@H@std@@2HB			; std::_Locbase<int>::all
PUBLIC	?none@?$_Locbase@H@std@@2HB			; std::_Locbase<int>::none
PUBLIC	?skipws@?$_Iosb@H@std@@2W4_Fmtflags@12@B	; std::_Iosb<int>::skipws
PUBLIC	?unitbuf@?$_Iosb@H@std@@2W4_Fmtflags@12@B	; std::_Iosb<int>::unitbuf
PUBLIC	?uppercase@?$_Iosb@H@std@@2W4_Fmtflags@12@B	; std::_Iosb<int>::uppercase
PUBLIC	?showbase@?$_Iosb@H@std@@2W4_Fmtflags@12@B	; std::_Iosb<int>::showbase
PUBLIC	?showpoint@?$_Iosb@H@std@@2W4_Fmtflags@12@B	; std::_Iosb<int>::showpoint
PUBLIC	?showpos@?$_Iosb@H@std@@2W4_Fmtflags@12@B	; std::_Iosb<int>::showpos
PUBLIC	?left@?$_Iosb@H@std@@2W4_Fmtflags@12@B		; std::_Iosb<int>::left
PUBLIC	?right@?$_Iosb@H@std@@2W4_Fmtflags@12@B		; std::_Iosb<int>::right
PUBLIC	?internal@?$_Iosb@H@std@@2W4_Fmtflags@12@B	; std::_Iosb<int>::internal
PUBLIC	?dec@?$_Iosb@H@std@@2W4_Fmtflags@12@B		; std::_Iosb<int>::dec
PUBLIC	?oct@?$_Iosb@H@std@@2W4_Fmtflags@12@B		; std::_Iosb<int>::oct
PUBLIC	?hex@?$_Iosb@H@std@@2W4_Fmtflags@12@B		; std::_Iosb<int>::hex
PUBLIC	?scientific@?$_Iosb@H@std@@2W4_Fmtflags@12@B	; std::_Iosb<int>::scientific
PUBLIC	?fixed@?$_Iosb@H@std@@2W4_Fmtflags@12@B		; std::_Iosb<int>::fixed
PUBLIC	?hexfloat@?$_Iosb@H@std@@2W4_Fmtflags@12@B	; std::_Iosb<int>::hexfloat
PUBLIC	?boolalpha@?$_Iosb@H@std@@2W4_Fmtflags@12@B	; std::_Iosb<int>::boolalpha
PUBLIC	?_Stdio@?$_Iosb@H@std@@2W4_Fmtflags@12@B	; std::_Iosb<int>::_Stdio
PUBLIC	?adjustfield@?$_Iosb@H@std@@2W4_Fmtflags@12@B	; std::_Iosb<int>::adjustfield
PUBLIC	?basefield@?$_Iosb@H@std@@2W4_Fmtflags@12@B	; std::_Iosb<int>::basefield
PUBLIC	?floatfield@?$_Iosb@H@std@@2W4_Fmtflags@12@B	; std::_Iosb<int>::floatfield
PUBLIC	?goodbit@?$_Iosb@H@std@@2W4_Iostate@12@B	; std::_Iosb<int>::goodbit
PUBLIC	?eofbit@?$_Iosb@H@std@@2W4_Iostate@12@B		; std::_Iosb<int>::eofbit
PUBLIC	?failbit@?$_Iosb@H@std@@2W4_Iostate@12@B	; std::_Iosb<int>::failbit
PUBLIC	?badbit@?$_Iosb@H@std@@2W4_Iostate@12@B		; std::_Iosb<int>::badbit
PUBLIC	?_Hardfail@?$_Iosb@H@std@@2W4_Iostate@12@B	; std::_Iosb<int>::_Hardfail
PUBLIC	?in@?$_Iosb@H@std@@2W4_Openmode@12@B		; std::_Iosb<int>::in
PUBLIC	?out@?$_Iosb@H@std@@2W4_Openmode@12@B		; std::_Iosb<int>::out
PUBLIC	?ate@?$_Iosb@H@std@@2W4_Openmode@12@B		; std::_Iosb<int>::ate
PUBLIC	?app@?$_Iosb@H@std@@2W4_Openmode@12@B		; std::_Iosb<int>::app
PUBLIC	?trunc@?$_Iosb@H@std@@2W4_Openmode@12@B		; std::_Iosb<int>::trunc
PUBLIC	?_Nocreate@?$_Iosb@H@std@@2W4_Openmode@12@B	; std::_Iosb<int>::_Nocreate
PUBLIC	?_Noreplace@?$_Iosb@H@std@@2W4_Openmode@12@B	; std::_Iosb<int>::_Noreplace
PUBLIC	?binary@?$_Iosb@H@std@@2W4_Openmode@12@B	; std::_Iosb<int>::binary
PUBLIC	?beg@?$_Iosb@H@std@@2W4_Seekdir@12@B		; std::_Iosb<int>::beg
PUBLIC	?cur@?$_Iosb@H@std@@2W4_Seekdir@12@B		; std::_Iosb<int>::cur
PUBLIC	?end@?$_Iosb@H@std@@2W4_Seekdir@12@B		; std::_Iosb<int>::end
PUBLIC	?value@?$integral_constant@_N$0A@@tr1@std@@2_NB	; std::tr1::integral_constant<bool,0>::value
PUBLIC	?value@?$integral_constant@_N$00@tr1@std@@2_NB	; std::tr1::integral_constant<bool,1>::value
PUBLIC	?value@?$is_error_condition_enum@W4errc_t@errc@system@boost@@@system@boost@@2_NB ; boost::system::is_error_condition_enum<enum boost::system::errc::errc_t>::value
PUBLIC	?value@?$is_error_condition_enum@Verror_condition@system@boost@@@system@boost@@2_NB ; boost::system::is_error_condition_enum<boost::system::error_condition>::value
PUBLIC	?value@?$is_error_code_enum@H@system@boost@@2_NB ; boost::system::is_error_code_enum<int>::value
PUBLIC	?value@?$is_error_code_enum@Verror_condition@system@boost@@@system@boost@@2_NB ; boost::system::is_error_code_enum<boost::system::error_condition>::value
PUBLIC	?value@?$is_error_condition_enum@Verror_code@system@boost@@@system@boost@@2_NB ; boost::system::is_error_condition_enum<boost::system::error_code>::value
PUBLIC	?value@?$is_error_code_enum@W4errc_t@errc@system@boost@@@system@boost@@2_NB ; boost::system::is_error_code_enum<enum boost::system::errc::errc_t>::value
PUBLIC	?value@?$is_error_code_enum@Verror_code@system@boost@@@system@boost@@2_NB ; boost::system::is_error_code_enum<boost::system::error_code>::value
PUBLIC	?value@?$is_error_condition_enum@H@system@boost@@2_NB ; boost::system::is_error_condition_enum<int>::value
PUBLIC	?value@?$is_error_condition_enum@Verror_category@system@boost@@@system@boost@@2_NB ; boost::system::is_error_condition_enum<boost::system::error_category>::value
PUBLIC	?value@?$is_error_code_enum@Verror_category@system@boost@@@system@boost@@2_NB ; boost::system::is_error_code_enum<boost::system::error_category>::value
PUBLIC	?value@integral_c_tag@mpl@boost@@2HB		; boost::mpl::integral_c_tag::value
PUBLIC	?value@?$bool_@$0A@@mpl@boost@@2_NB		; boost::mpl::bool_<0>::value
PUBLIC	?value@?$bool_@$00@mpl@boost@@2_NB		; boost::mpl::bool_<1>::value
PUBLIC	?value@?$ice_or@$0A@$0A@$0A@$0A@$0A@$0A@$0A@@type_traits@boost@@2_NB ; boost::type_traits::ice_or<0,0,0,0,0,0,0>::value
PUBLIC	?value@?$ice_and@$00$00$00$00$00$00$00@type_traits@boost@@2_NB ; boost::type_traits::ice_and<1,1,1,1,1,1,1>::value
PUBLIC	?value@?$ice_not@$00@type_traits@boost@@2_NB	; boost::type_traits::ice_not<1>::value
PUBLIC	?value@?$is_convertible_impl@XX@detail@boost@@2_NB ; boost::detail::is_convertible_impl<void,void>::value
PUBLIC	?value@?$is_convertible_impl@X$$CBX@detail@boost@@2_NB ; boost::detail::is_convertible_impl<void,void const >::value
PUBLIC	?value@?$is_convertible_impl@X$$CCX@detail@boost@@2_NB ; boost::detail::is_convertible_impl<void,void volatile >::value
PUBLIC	?value@?$is_convertible_impl@X$$CDX@detail@boost@@2_NB ; boost::detail::is_convertible_impl<void,void const volatile >::value
PUBLIC	?value@?$is_convertible_impl@$$CBXX@detail@boost@@2_NB ; boost::detail::is_convertible_impl<void const ,void>::value
PUBLIC	?value@?$is_convertible_impl@$$CBX$$CBX@detail@boost@@2_NB ; boost::detail::is_convertible_impl<void const ,void const >::value
PUBLIC	?value@?$is_convertible_impl@$$CBX$$CCX@detail@boost@@2_NB ; boost::detail::is_convertible_impl<void const ,void volatile >::value
PUBLIC	?value@?$is_convertible_impl@$$CBX$$CDX@detail@boost@@2_NB ; boost::detail::is_convertible_impl<void const ,void const volatile >::value
PUBLIC	?value@?$is_convertible_impl@$$CCXX@detail@boost@@2_NB ; boost::detail::is_convertible_impl<void volatile ,void>::value
PUBLIC	?value@?$is_convertible_impl@$$CCX$$CBX@detail@boost@@2_NB ; boost::detail::is_convertible_impl<void volatile ,void const >::value
PUBLIC	?value@?$is_convertible_impl@$$CCX$$CCX@detail@boost@@2_NB ; boost::detail::is_convertible_impl<void volatile ,void volatile >::value
PUBLIC	?value@?$is_convertible_impl@$$CCX$$CDX@detail@boost@@2_NB ; boost::detail::is_convertible_impl<void volatile ,void const volatile >::value
PUBLIC	?value@?$is_convertible_impl@$$CDXX@detail@boost@@2_NB ; boost::detail::is_convertible_impl<void const volatile ,void>::value
PUBLIC	?value@?$is_convertible_impl@$$CDX$$CBX@detail@boost@@2_NB ; boost::detail::is_convertible_impl<void const volatile ,void const >::value
PUBLIC	?value@?$is_convertible_impl@$$CDX$$CCX@detail@boost@@2_NB ; boost::detail::is_convertible_impl<void const volatile ,void volatile >::value
PUBLIC	?value@?$is_convertible_impl@$$CDX$$CDX@detail@boost@@2_NB ; boost::detail::is_convertible_impl<void const volatile ,void const volatile >::value
PUBLIC	?value@?$arg@$0?0@mpl@boost@@2HB		; boost::mpl::arg<-1>::value
PUBLIC	?value@?$arg@$00@mpl@boost@@2HB			; boost::mpl::arg<1>::value
PUBLIC	?value@?$arg@$01@mpl@boost@@2HB			; boost::mpl::arg<2>::value
PUBLIC	?value@?$arg@$02@mpl@boost@@2HB			; boost::mpl::arg<3>::value
PUBLIC	?value@?$arg@$03@mpl@boost@@2HB			; boost::mpl::arg<4>::value
PUBLIC	?value@?$arg@$04@mpl@boost@@2HB			; boost::mpl::arg<5>::value
PUBLIC	?value@?$is_member_function_pointer_impl@X@detail@boost@@2_NB ; boost::detail::is_member_function_pointer_impl<void>::value
PUBLIC	?value@?$is_member_function_pointer_impl@$$CBX@detail@boost@@2_NB ; boost::detail::is_member_function_pointer_impl<void const >::value
PUBLIC	?value@?$is_member_function_pointer_impl@$$CCX@detail@boost@@2_NB ; boost::detail::is_member_function_pointer_impl<void volatile >::value
PUBLIC	?value@?$is_member_function_pointer_impl@$$CDX@detail@boost@@2_NB ; boost::detail::is_member_function_pointer_impl<void const volatile >::value
PUBLIC	?value@?$is_scalar_impl@X@detail@boost@@2_NB	; boost::detail::is_scalar_impl<void>::value
PUBLIC	?value@?$is_scalar_impl@$$CBX@detail@boost@@2_NB ; boost::detail::is_scalar_impl<void const >::value
PUBLIC	?value@?$is_scalar_impl@$$CCX@detail@boost@@2_NB ; boost::detail::is_scalar_impl<void volatile >::value
PUBLIC	?value@?$is_scalar_impl@$$CDX@detail@boost@@2_NB ; boost::detail::is_scalar_impl<void const volatile >::value
PUBLIC	?value@?$is_pod_impl@X@detail@boost@@2_NB	; boost::detail::is_pod_impl<void>::value
PUBLIC	?value@?$is_pod_impl@$$CBX@detail@boost@@2_NB	; boost::detail::is_pod_impl<void const >::value
PUBLIC	?value@?$is_pod_impl@$$CCX@detail@boost@@2_NB	; boost::detail::is_pod_impl<void volatile >::value
PUBLIC	?value@?$is_pod_impl@$$CDX@detail@boost@@2_NB	; boost::detail::is_pod_impl<void const volatile >::value
PUBLIC	?value@?$is_basic_path@V?$basic_path@V?$basic_string@DU?$char_traits@D@std@@V?$allocator@D@2@@std@@Upath_traits@filesystem@boost@@@filesystem@boost@@@filesystem@boost@@2_NB ; boost::filesystem::is_basic_path<boost::filesystem::basic_path<std::basic_string<char,std::char_traits<char>,std::allocator<char> >,boost::filesystem::path_traits> >::value
PUBLIC	?value@?$is_basic_path@V?$basic_path@V?$basic_string@_WU?$char_traits@_W@std@@V?$allocator@_W@2@@std@@Uwpath_traits@filesystem@boost@@@filesystem@boost@@@filesystem@boost@@2_NB ; boost::filesystem::is_basic_path<boost::filesystem::basic_path<std::basic_string<wchar_t,std::char_traits<wchar_t>,std::allocator<wchar_t> >,boost::filesystem::wpath_traits> >::value
PUBLIC	?value@?$slash@V?$basic_path@V?$basic_string@_WU?$char_traits@_W@std@@V?$allocator@_W@2@@std@@Uwpath_traits@filesystem@boost@@@filesystem@boost@@@filesystem@boost@@2_WB ; boost::filesystem::slash<boost::filesystem::basic_path<std::basic_string<wchar_t,std::char_traits<wchar_t>,std::allocator<wchar_t> >,boost::filesystem::wpath_traits> >::value
PUBLIC	?value@?$dot@V?$basic_path@V?$basic_string@_WU?$char_traits@_W@std@@V?$allocator@_W@2@@std@@Uwpath_traits@filesystem@boost@@@filesystem@boost@@@filesystem@boost@@2_WB ; boost::filesystem::dot<boost::filesystem::basic_path<std::basic_string<wchar_t,std::char_traits<wchar_t>,std::allocator<wchar_t> >,boost::filesystem::wpath_traits> >::value
PUBLIC	?value@?$colon@V?$basic_path@V?$basic_string@_WU?$char_traits@_W@std@@V?$allocator@_W@2@@std@@Uwpath_traits@filesystem@boost@@@filesystem@boost@@@filesystem@boost@@2_WB ; boost::filesystem::colon<boost::filesystem::basic_path<std::basic_string<wchar_t,std::char_traits<wchar_t>,std::allocator<wchar_t> >,boost::filesystem::wpath_traits> >::value
PUBLIC	?value@?$path_alt_separator@V?$basic_path@V?$basic_string@_WU?$char_traits@_W@std@@V?$allocator@_W@2@@std@@Uwpath_traits@filesystem@boost@@@filesystem@boost@@@filesystem@boost@@2_WB ; boost::filesystem::path_alt_separator<boost::filesystem::basic_path<std::basic_string<wchar_t,std::char_traits<wchar_t>,std::allocator<wchar_t> >,boost::filesystem::wpath_traits> >::value
PUBLIC	?is_integral@?$integer_traits_base@_N$0A@$00@detail@boost@@2_NB ; boost::detail::integer_traits_base<bool,0,1>::is_integral
PUBLIC	?const_min@?$integer_traits_base@_N$0A@$00@detail@boost@@2_NB ; boost::detail::integer_traits_base<bool,0,1>::const_min
PUBLIC	?const_max@?$integer_traits_base@_N$0A@$00@detail@boost@@2_NB ; boost::detail::integer_traits_base<bool,0,1>::const_max
PUBLIC	?is_integral@?$integer_traits_base@D$0?IA@$0HP@@detail@boost@@2_NB ; boost::detail::integer_traits_base<char,-128,127>::is_integral
PUBLIC	?const_min@?$integer_traits_base@D$0?IA@$0HP@@detail@boost@@2DB ; boost::detail::integer_traits_base<char,-128,127>::const_min
PUBLIC	?const_max@?$integer_traits_base@D$0?IA@$0HP@@detail@boost@@2DB ; boost::detail::integer_traits_base<char,-128,127>::const_max
PUBLIC	?is_integral@?$integer_traits_base@C$0?IA@$0HP@@detail@boost@@2_NB ; boost::detail::integer_traits_base<signed char,-128,127>::is_integral
PUBLIC	?const_min@?$integer_traits_base@C$0?IA@$0HP@@detail@boost@@2CB ; boost::detail::integer_traits_base<signed char,-128,127>::const_min
PUBLIC	?const_max@?$integer_traits_base@C$0?IA@$0HP@@detail@boost@@2CB ; boost::detail::integer_traits_base<signed char,-128,127>::const_max
PUBLIC	?is_integral@?$integer_traits_base@E$0A@$0PP@@detail@boost@@2_NB ; boost::detail::integer_traits_base<unsigned char,0,255>::is_integral
PUBLIC	?const_min@?$integer_traits_base@E$0A@$0PP@@detail@boost@@2EB ; boost::detail::integer_traits_base<unsigned char,0,255>::const_min
PUBLIC	?const_max@?$integer_traits_base@E$0A@$0PP@@detail@boost@@2EB ; boost::detail::integer_traits_base<unsigned char,0,255>::const_max
PUBLIC	?is_integral@?$integer_traits_base@_W$0A@$0PPPP@@detail@boost@@2_NB ; boost::detail::integer_traits_base<wchar_t,0,65535>::is_integral
PUBLIC	?const_min@?$integer_traits_base@_W$0A@$0PPPP@@detail@boost@@2_WB ; boost::detail::integer_traits_base<wchar_t,0,65535>::const_min
PUBLIC	?const_max@?$integer_traits_base@_W$0A@$0PPPP@@detail@boost@@2_WB ; boost::detail::integer_traits_base<wchar_t,0,65535>::const_max
PUBLIC	?is_integral@?$integer_traits_base@F$0?IAAA@$0HPPP@@detail@boost@@2_NB ; boost::detail::integer_traits_base<short,-32768,32767>::is_integral
PUBLIC	?const_min@?$integer_traits_base@F$0?IAAA@$0HPPP@@detail@boost@@2FB ; boost::detail::integer_traits_base<short,-32768,32767>::const_min
PUBLIC	?const_max@?$integer_traits_base@F$0?IAAA@$0HPPP@@detail@boost@@2FB ; boost::detail::integer_traits_base<short,-32768,32767>::const_max
PUBLIC	?is_integral@?$integer_traits_base@G$0A@$0PPPP@@detail@boost@@2_NB ; boost::detail::integer_traits_base<unsigned short,0,65535>::is_integral
PUBLIC	?const_min@?$integer_traits_base@G$0A@$0PPPP@@detail@boost@@2GB ; boost::detail::integer_traits_base<unsigned short,0,65535>::const_min
PUBLIC	?const_max@?$integer_traits_base@G$0A@$0PPPP@@detail@boost@@2GB ; boost::detail::integer_traits_base<unsigned short,0,65535>::const_max
PUBLIC	?is_integral@?$integer_traits_base@H$0?IAAAAAAA@$0HPPPPPPP@@detail@boost@@2_NB ; boost::detail::integer_traits_base<int,-2147483648,2147483647>::is_integral
PUBLIC	?const_min@?$integer_traits_base@H$0?IAAAAAAA@$0HPPPPPPP@@detail@boost@@2HB ; boost::detail::integer_traits_base<int,-2147483648,2147483647>::const_min
PUBLIC	?const_max@?$integer_traits_base@H$0?IAAAAAAA@$0HPPPPPPP@@detail@boost@@2HB ; boost::detail::integer_traits_base<int,-2147483648,2147483647>::const_max
PUBLIC	?is_integral@?$integer_traits_base@I$0A@$0PPPPPPPP@@detail@boost@@2_NB ; boost::detail::integer_traits_base<unsigned int,0,4294967295>::is_integral
PUBLIC	?const_min@?$integer_traits_base@I$0A@$0PPPPPPPP@@detail@boost@@2IB ; boost::detail::integer_traits_base<unsigned int,0,4294967295>::const_min
PUBLIC	?const_max@?$integer_traits_base@I$0A@$0PPPPPPPP@@detail@boost@@2IB ; boost::detail::integer_traits_base<unsigned int,0,4294967295>::const_max
PUBLIC	?is_integral@?$integer_traits_base@J$0?IAAAAAAA@$0HPPPPPPP@@detail@boost@@2_NB ; boost::detail::integer_traits_base<long,-2147483648,2147483647>::is_integral
PUBLIC	?const_min@?$integer_traits_base@J$0?IAAAAAAA@$0HPPPPPPP@@detail@boost@@2JB ; boost::detail::integer_traits_base<long,-2147483648,2147483647>::const_min
PUBLIC	?const_max@?$integer_traits_base@J$0?IAAAAAAA@$0HPPPPPPP@@detail@boost@@2JB ; boost::detail::integer_traits_base<long,-2147483648,2147483647>::const_max
PUBLIC	?is_integral@?$integer_traits_base@K$0A@$0PPPPPPPP@@detail@boost@@2_NB ; boost::detail::integer_traits_base<unsigned long,0,4294967295>::is_integral
PUBLIC	?const_min@?$integer_traits_base@K$0A@$0PPPPPPPP@@detail@boost@@2KB ; boost::detail::integer_traits_base<unsigned long,0,4294967295>::const_min
PUBLIC	?const_max@?$integer_traits_base@K$0A@$0PPPPPPPP@@detail@boost@@2KB ; boost::detail::integer_traits_base<unsigned long,0,4294967295>::const_max
PUBLIC	?is_integral@?$integer_traits_base@_J$0?IAAAAAAAAAAAAAAA@$0HPPPPPPPPPPPPPPP@@detail@boost@@2_NB ; boost::detail::integer_traits_base<__int64,-9223372036854775808,9223372036854775807>::is_integral
PUBLIC	?const_min@?$integer_traits_base@_J$0?IAAAAAAAAAAAAAAA@$0HPPPPPPPPPPPPPPP@@detail@boost@@2_JB ; boost::detail::integer_traits_base<__int64,-9223372036854775808,9223372036854775807>::const_min
PUBLIC	?const_max@?$integer_traits_base@_J$0?IAAAAAAAAAAAAAAA@$0HPPPPPPPPPPPPPPP@@detail@boost@@2_JB ; boost::detail::integer_traits_base<__int64,-9223372036854775808,9223372036854775807>::const_max
PUBLIC	?is_integral@?$integer_traits_base@_K$0A@$0?0@detail@boost@@2_NB ; boost::detail::integer_traits_base<unsigned __int64,0,-1>::is_integral
PUBLIC	?const_min@?$integer_traits_base@_K$0A@$0?0@detail@boost@@2_KB ; boost::detail::integer_traits_base<unsigned __int64,0,-1>::const_min
PUBLIC	?const_max@?$integer_traits_base@_K$0A@$0?0@detail@boost@@2_KB ; boost::detail::integer_traits_base<unsigned __int64,0,-1>::const_max
PUBLIC	?value@type@?$select_by_size@$00@detail@iostreams@boost@@2HB ; boost::iostreams::detail::select_by_size<1>::type::value
PUBLIC	?value@?$select_by_size@$00@detail@iostreams@boost@@2HB ; boost::iostreams::detail::select_by_size<1>::value
PUBLIC	?value@type@?$select_by_size@$01@detail@iostreams@boost@@2HB ; boost::iostreams::detail::select_by_size<2>::type::value
PUBLIC	?value@?$select_by_size@$01@detail@iostreams@boost@@2HB ; boost::iostreams::detail::select_by_size<2>::value
PUBLIC	?value@type@?$select_by_size@$02@detail@iostreams@boost@@2HB ; boost::iostreams::detail::select_by_size<3>::type::value
PUBLIC	?value@?$select_by_size@$02@detail@iostreams@boost@@2HB ; boost::iostreams::detail::select_by_size<3>::value
PUBLIC	?value@type@?$select_by_size@$03@detail@iostreams@boost@@2HB ; boost::iostreams::detail::select_by_size<4>::type::value
PUBLIC	?value@?$select_by_size@$03@detail@iostreams@boost@@2HB ; boost::iostreams::detail::select_by_size<4>::value
PUBLIC	?value@type@?$select_by_size@$04@detail@iostreams@boost@@2HB ; boost::iostreams::detail::select_by_size<5>::type::value
PUBLIC	?value@?$select_by_size@$04@detail@iostreams@boost@@2HB ; boost::iostreams::detail::select_by_size<5>::value
PUBLIC	?value@type@?$select_by_size@$05@detail@iostreams@boost@@2HB ; boost::iostreams::detail::select_by_size<6>::type::value
PUBLIC	?value@?$select_by_size@$05@detail@iostreams@boost@@2HB ; boost::iostreams::detail::select_by_size<6>::value
PUBLIC	?value@type@?$select_by_size@$06@detail@iostreams@boost@@2HB ; boost::iostreams::detail::select_by_size<7>::type::value
PUBLIC	?value@?$select_by_size@$06@detail@iostreams@boost@@2HB ; boost::iostreams::detail::select_by_size<7>::value
PUBLIC	?value@type@?$select_by_size@$07@detail@iostreams@boost@@2HB ; boost::iostreams::detail::select_by_size<8>::type::value
PUBLIC	?value@?$select_by_size@$07@detail@iostreams@boost@@2HB ; boost::iostreams::detail::select_by_size<8>::value
PUBLIC	?value@type@?$select_by_size@$08@detail@iostreams@boost@@2HB ; boost::iostreams::detail::select_by_size<9>::type::value
PUBLIC	?value@?$select_by_size@$08@detail@iostreams@boost@@2HB ; boost::iostreams::detail::select_by_size<9>::value
PUBLIC	?value@type@?$select_by_size@$09@detail@iostreams@boost@@2HB ; boost::iostreams::detail::select_by_size<10>::type::value
PUBLIC	?value@?$select_by_size@$09@detail@iostreams@boost@@2HB ; boost::iostreams::detail::select_by_size<10>::value
PUBLIC	?value@type@?$select_by_size@$0L@@detail@iostreams@boost@@2HB ; boost::iostreams::detail::select_by_size<11>::type::value
PUBLIC	?value@?$select_by_size@$0L@@detail@iostreams@boost@@2HB ; boost::iostreams::detail::select_by_size<11>::value
PUBLIC	?value@type@?$select_by_size@$0M@@detail@iostreams@boost@@2HB ; boost::iostreams::detail::select_by_size<12>::type::value
PUBLIC	?value@?$select_by_size@$0M@@detail@iostreams@boost@@2HB ; boost::iostreams::detail::select_by_size<12>::value
PUBLIC	?value@type@?$select_by_size@$0N@@detail@iostreams@boost@@2HB ; boost::iostreams::detail::select_by_size<13>::type::value
PUBLIC	?value@?$select_by_size@$0N@@detail@iostreams@boost@@2HB ; boost::iostreams::detail::select_by_size<13>::value
PUBLIC	?value@type@?$select_by_size@$0O@@detail@iostreams@boost@@2HB ; boost::iostreams::detail::select_by_size<14>::type::value
PUBLIC	?value@?$select_by_size@$0O@@detail@iostreams@boost@@2HB ; boost::iostreams::detail::select_by_size<14>::value
PUBLIC	?value@type@?$select_by_size@$0P@@detail@iostreams@boost@@2HB ; boost::iostreams::detail::select_by_size<15>::type::value
PUBLIC	?value@?$select_by_size@$0P@@detail@iostreams@boost@@2HB ; boost::iostreams::detail::select_by_size<15>::value
PUBLIC	?value@type@?$select_by_size@$0BA@@detail@iostreams@boost@@2HB ; boost::iostreams::detail::select_by_size<16>::type::value
PUBLIC	?value@?$select_by_size@$0BA@@detail@iostreams@boost@@2HB ; boost::iostreams::detail::select_by_size<16>::value
PUBLIC	?value@type@?$select_by_size@$0BB@@detail@iostreams@boost@@2HB ; boost::iostreams::detail::select_by_size<17>::type::value
PUBLIC	?value@?$select_by_size@$0BB@@detail@iostreams@boost@@2HB ; boost::iostreams::detail::select_by_size<17>::value
PUBLIC	?value@type@?$select_by_size@$0BC@@detail@iostreams@boost@@2HB ; boost::iostreams::detail::select_by_size<18>::type::value
PUBLIC	?value@?$select_by_size@$0BC@@detail@iostreams@boost@@2HB ; boost::iostreams::detail::select_by_size<18>::value
PUBLIC	?value@type@?$select_by_size@$0BD@@detail@iostreams@boost@@2HB ; boost::iostreams::detail::select_by_size<19>::type::value
PUBLIC	?value@?$select_by_size@$0BD@@detail@iostreams@boost@@2HB ; boost::iostreams::detail::select_by_size<19>::value
PUBLIC	?value@type@?$select_by_size@$0BE@@detail@iostreams@boost@@2HB ; boost::iostreams::detail::select_by_size<20>::type::value
PUBLIC	?value@?$select_by_size@$0BE@@detail@iostreams@boost@@2HB ; boost::iostreams::detail::select_by_size<20>::value
PUBLIC	?value@type@?$select_by_size@$0BF@@detail@iostreams@boost@@2HB ; boost::iostreams::detail::select_by_size<21>::type::value
PUBLIC	?value@?$select_by_size@$0BF@@detail@iostreams@boost@@2HB ; boost::iostreams::detail::select_by_size<21>::value
PUBLIC	?value@?$int_@$00@mpl@boost@@2HB		; boost::mpl::int_<1>::value
PUBLIC	?value@?$int_@$01@mpl@boost@@2HB		; boost::mpl::int_<2>::value
PUBLIC	?value@?$int_@$02@mpl@boost@@2HB		; boost::mpl::int_<3>::value
PUBLIC	?value@?$int_@$03@mpl@boost@@2HB		; boost::mpl::int_<4>::value
PUBLIC	?value@?$int_@$04@mpl@boost@@2HB		; boost::mpl::int_<5>::value
PUBLIC	?value@?$int_@$05@mpl@boost@@2HB		; boost::mpl::int_<6>::value
PUBLIC	?value@?$int_@$06@mpl@boost@@2HB		; boost::mpl::int_<7>::value
PUBLIC	?value@?$int_@$07@mpl@boost@@2HB		; boost::mpl::int_<8>::value
PUBLIC	?value@?$int_@$08@mpl@boost@@2HB		; boost::mpl::int_<9>::value
PUBLIC	?value@?$int_@$09@mpl@boost@@2HB		; boost::mpl::int_<10>::value
PUBLIC	?value@?$int_@$0L@@mpl@boost@@2HB		; boost::mpl::int_<11>::value
PUBLIC	?value@?$int_@$0M@@mpl@boost@@2HB		; boost::mpl::int_<12>::value
PUBLIC	?value@?$integral_c@I$0A@@mpl@boost@@2IB	; boost::mpl::integral_c<unsigned int,0>::value
PUBLIC	?value@?$alignment_logic@$07$07@detail@boost@@2IB ; boost::detail::alignment_logic<8,8>::value
PUBLIC	?value@?$alignment_of_impl@Tmax_align@detail@boost@@@detail@boost@@2IB ; boost::detail::alignment_of_impl<boost::detail::max_align>::value
PUBLIC	?value@?$integral_c@I$07@mpl@boost@@2IB		; boost::mpl::integral_c<unsigned int,8>::value
PUBLIC	?value@?$alignment_logic@$00$00@detail@boost@@2IB ; boost::detail::alignment_logic<1,1>::value
PUBLIC	?value@?$alignment_of_impl@D@detail@boost@@2IB	; boost::detail::alignment_of_impl<char>::value
PUBLIC	?value@?$integral_c@I$00@mpl@boost@@2IB		; boost::mpl::integral_c<unsigned int,1>::value
PUBLIC	?value@?$alignment_logic@$01$01@detail@boost@@2IB ; boost::detail::alignment_logic<2,2>::value
PUBLIC	?value@?$alignment_of_impl@F@detail@boost@@2IB	; boost::detail::alignment_of_impl<short>::value
PUBLIC	?value@?$integral_c@I$01@mpl@boost@@2IB		; boost::mpl::integral_c<unsigned int,2>::value
PUBLIC	?value@?$alignment_logic@$03$03@detail@boost@@2IB ; boost::detail::alignment_logic<4,4>::value
PUBLIC	?value@?$alignment_of_impl@H@detail@boost@@2IB	; boost::detail::alignment_of_impl<int>::value
PUBLIC	?value@?$integral_c@I$03@mpl@boost@@2IB		; boost::mpl::integral_c<unsigned int,4>::value
PUBLIC	?value@?$alignment_of_impl@J@detail@boost@@2IB	; boost::detail::alignment_of_impl<long>::value
PUBLIC	?value@?$alignment_of_impl@_J@detail@boost@@2IB	; boost::detail::alignment_of_impl<__int64>::value
PUBLIC	?value@?$alignment_of_impl@T?$lower_alignment@$07@detail@boost@@@detail@boost@@2IB ; boost::detail::alignment_of_impl<boost::detail::lower_alignment<8> >::value
PUBLIC	?value@?$is_aligned@$07$07@detail@boost@@2_NB	; boost::detail::is_aligned<8,8>::value
PUBLIC	?found@?$type_with_alignment_imp@$07@detail@boost@@0IB ; boost::detail::type_with_alignment_imp<8>::found
PUBLIC	?value@?$is_pod_impl@Ua8@align@boost@@@detail@boost@@2_NB ; boost::detail::is_pod_impl<boost::align::a8>::value
PUBLIC	?value@?$is_pod_impl@Ua16@align@boost@@@detail@boost@@2_NB ; boost::detail::is_pod_impl<boost::align::a16>::value
PUBLIC	?value@?$is_pod_impl@Ua32@align@boost@@@detail@boost@@2_NB ; boost::detail::is_pod_impl<boost::align::a32>::value
PUBLIC	?value@?$is_pod_impl@Ua64@align@boost@@@detail@boost@@2_NB ; boost::detail::is_pod_impl<boost::align::a64>::value
PUBLIC	?value@?$is_pod_impl@Ua128@align@boost@@@detail@boost@@2_NB ; boost::detail::is_pod_impl<boost::align::a128>::value
PUBLIC	?has_fixed_range@rand48@boost@@2_NB		; boost::rand48::has_fixed_range
PUBLIC	?min_value@rand48@boost@@2JB			; boost::rand48::min_value
PUBLIC	?max_value@rand48@boost@@2JB			; boost::rand48::max_value
PUBLIC	?has_fixed_range@?$linear_congruential@_K$0FNOOMOGGN@$0L@$0BAAAAAAAAAAAA@$0A@@random@boost@@2_NB ; boost::random::linear_congruential<unsigned __int64,25214903917,11,281474976710656,0>::has_fixed_range
PUBLIC	?min_value@?$linear_congruential@_K$0FNOOMOGGN@$0L@$0BAAAAAAAAAAAA@$0A@@random@boost@@2_KB ; boost::random::linear_congruential<unsigned __int64,25214903917,11,281474976710656,0>::min_value
PUBLIC	?max_value@?$linear_congruential@_K$0FNOOMOGGN@$0L@$0BAAAAAAAAAAAA@$0A@@random@boost@@2_KB ; boost::random::linear_congruential<unsigned __int64,25214903917,11,281474976710656,0>::max_value
PUBLIC	?multiplier@?$linear_congruential@_K$0FNOOMOGGN@$0L@$0BAAAAAAAAAAAA@$0A@@random@boost@@2_KB ; boost::random::linear_congruential<unsigned __int64,25214903917,11,281474976710656,0>::multiplier
PUBLIC	?increment@?$linear_congruential@_K$0FNOOMOGGN@$0L@$0BAAAAAAAAAAAA@$0A@@random@boost@@2_KB ; boost::random::linear_congruential<unsigned __int64,25214903917,11,281474976710656,0>::increment
PUBLIC	?modulus@?$linear_congruential@_K$0FNOOMOGGN@$0L@$0BAAAAAAAAAAAA@$0A@@random@boost@@2_KB ; boost::random::linear_congruential<unsigned __int64,25214903917,11,281474976710656,0>::modulus
PUBLIC	?has_fixed_range@?$linear_congruential@J$0JMEO@$0A@$0HPPPPPKL@$0A@@random@boost@@2_NB ; boost::random::linear_congruential<long,40014,0,2147483563,0>::has_fixed_range
PUBLIC	?min_value@?$linear_congruential@J$0JMEO@$0A@$0HPPPPPKL@$0A@@random@boost@@2JB ; boost::random::linear_congruential<long,40014,0,2147483563,0>::min_value
PUBLIC	?max_value@?$linear_congruential@J$0JMEO@$0A@$0HPPPPPKL@$0A@@random@boost@@2JB ; boost::random::linear_congruential<long,40014,0,2147483563,0>::max_value
PUBLIC	?multiplier@?$linear_congruential@J$0JMEO@$0A@$0HPPPPPKL@$0A@@random@boost@@2JB ; boost::random::linear_congruential<long,40014,0,2147483563,0>::multiplier
PUBLIC	?increment@?$linear_congruential@J$0JMEO@$0A@$0HPPPPPKL@$0A@@random@boost@@2JB ; boost::random::linear_congruential<long,40014,0,2147483563,0>::increment
PUBLIC	?modulus@?$linear_congruential@J$0JMEO@$0A@$0HPPPPPKL@$0A@@random@boost@@2JB ; boost::random::linear_congruential<long,40014,0,2147483563,0>::modulus
PUBLIC	?has_fixed_range@?$linear_congruential@K$0FFG@$0CENGJ@$0KOFCJ@$0A@@random@boost@@2_NB ; boost::random::linear_congruential<unsigned long,1366,150889,714025,0>::has_fixed_range
PUBLIC	?min_value@?$linear_congruential@K$0FFG@$0CENGJ@$0KOFCJ@$0A@@random@boost@@2KB ; boost::random::linear_congruential<unsigned long,1366,150889,714025,0>::min_value
PUBLIC	?max_value@?$linear_congruential@K$0FFG@$0CENGJ@$0KOFCJ@$0A@@random@boost@@2KB ; boost::random::linear_congruential<unsigned long,1366,150889,714025,0>::max_value
PUBLIC	?multiplier@?$linear_congruential@K$0FFG@$0CENGJ@$0KOFCJ@$0A@@random@boost@@2KB ; boost::random::linear_congruential<unsigned long,1366,150889,714025,0>::multiplier
PUBLIC	?increment@?$linear_congruential@K$0FFG@$0CENGJ@$0KOFCJ@$0A@@random@boost@@2KB ; boost::random::linear_congruential<unsigned long,1366,150889,714025,0>::increment
PUBLIC	?modulus@?$linear_congruential@K$0FFG@$0CENGJ@$0KOFCJ@$0A@@random@boost@@2KB ; boost::random::linear_congruential<unsigned long,1366,150889,714025,0>::modulus
PUBLIC	?is_specialized@?$fibonacci_validation@N$0CFP@$0BBB@@random@boost@@2_NB ; boost::random::fibonacci_validation<double,607,273>::is_specialized
PUBLIC	?is_specialized@?$fibonacci_validation@N$0EPP@$0BKC@@random@boost@@2_NB ; boost::random::fibonacci_validation<double,1279,418>::is_specialized
PUBLIC	?is_specialized@?$fibonacci_validation@N$0IOJ@$0EOE@@random@boost@@2_NB ; boost::random::fibonacci_validation<double,2281,1252>::is_specialized
PUBLIC	?is_specialized@?$fibonacci_validation@N$0MJB@$0CEA@@random@boost@@2_NB ; boost::random::fibonacci_validation<double,3217,576>::is_specialized
PUBLIC	?is_specialized@?$fibonacci_validation@N$0BBEH@$0IDC@@random@boost@@2_NB ; boost::random::fibonacci_validation<double,4423,2098>::is_specialized
PUBLIC	?is_specialized@?$fibonacci_validation@N$0CFNJ@$0BFHO@@random@boost@@2_NB ; boost::random::fibonacci_validation<double,9689,5502>::is_specialized
PUBLIC	?is_specialized@?$fibonacci_validation@N$0ENOB@$0CGHC@@random@boost@@2_NB ; boost::random::fibonacci_validation<double,19937,9842>::is_specialized
PUBLIC	?is_specialized@?$fibonacci_validation@N$0FKKJ@$0DEJO@@random@boost@@2_NB ; boost::random::fibonacci_validation<double,23209,13470>::is_specialized
PUBLIC	?is_specialized@?$fibonacci_validation@N$0KNNB@$0FCCK@@random@boost@@2_NB ; boost::random::fibonacci_validation<double,44497,21034>::is_specialized
PUBLIC	?has_fixed_range@?$linear_feedback_shift@K$0CA@$0BP@$0N@$0M@$0A@@random@boost@@2_NB ; boost::random::linear_feedback_shift<unsigned long,32,31,13,12,0>::has_fixed_range
PUBLIC	?word_size@?$linear_feedback_shift@K$0CA@$0BP@$0N@$0M@$0A@@random@boost@@2HB ; boost::random::linear_feedback_shift<unsigned long,32,31,13,12,0>::word_size
PUBLIC	?exponent1@?$linear_feedback_shift@K$0CA@$0BP@$0N@$0M@$0A@@random@boost@@2HB ; boost::random::linear_feedback_shift<unsigned long,32,31,13,12,0>::exponent1
PUBLIC	?exponent2@?$linear_feedback_shift@K$0CA@$0BP@$0N@$0M@$0A@@random@boost@@2HB ; boost::random::linear_feedback_shift<unsigned long,32,31,13,12,0>::exponent2
PUBLIC	?step_size@?$linear_feedback_shift@K$0CA@$0BP@$0N@$0M@$0A@@random@boost@@2HB ; boost::random::linear_feedback_shift<unsigned long,32,31,13,12,0>::step_size
PUBLIC	?has_fixed_range@?$xor_combine@V?$linear_feedback_shift@K$0CA@$0BP@$0N@$0M@$0A@@random@boost@@$0A@V?$linear_feedback_shift@K$0CA@$0BN@$01$03$0A@@23@$0A@$0A@@random@boost@@2_NB ; boost::random::xor_combine<boost::random::linear_feedback_shift<unsigned long,32,31,13,12,0>,0,boost::random::linear_feedback_shift<unsigned long,32,29,2,4,0>,0,0>::has_fixed_range
PUBLIC	?shift1@?$xor_combine@V?$linear_feedback_shift@K$0CA@$0BP@$0N@$0M@$0A@@random@boost@@$0A@V?$linear_feedback_shift@K$0CA@$0BN@$01$03$0A@@23@$0A@$0A@@random@boost@@2HB ; boost::random::xor_combine<boost::random::linear_feedback_shift<unsigned long,32,31,13,12,0>,0,boost::random::linear_feedback_shift<unsigned long,32,29,2,4,0>,0,0>::shift1
PUBLIC	?shift2@?$xor_combine@V?$linear_feedback_shift@K$0CA@$0BP@$0N@$0M@$0A@@random@boost@@$0A@V?$linear_feedback_shift@K$0CA@$0BN@$01$03$0A@@23@$0A@$0A@@random@boost@@2HB ; boost::random::xor_combine<boost::random::linear_feedback_shift<unsigned long,32,31,13,12,0>,0,boost::random::linear_feedback_shift<unsigned long,32,29,2,4,0>,0,0>::shift2
PUBLIC	?has_fixed_range@?$linear_feedback_shift@K$0CA@$0BN@$01$03$0A@@random@boost@@2_NB ; boost::random::linear_feedback_shift<unsigned long,32,29,2,4,0>::has_fixed_range
PUBLIC	?word_size@?$linear_feedback_shift@K$0CA@$0BN@$01$03$0A@@random@boost@@2HB ; boost::random::linear_feedback_shift<unsigned long,32,29,2,4,0>::word_size
PUBLIC	?exponent1@?$linear_feedback_shift@K$0CA@$0BN@$01$03$0A@@random@boost@@2HB ; boost::random::linear_feedback_shift<unsigned long,32,29,2,4,0>::exponent1
PUBLIC	?exponent2@?$linear_feedback_shift@K$0CA@$0BN@$01$03$0A@@random@boost@@2HB ; boost::random::linear_feedback_shift<unsigned long,32,29,2,4,0>::exponent2
PUBLIC	?step_size@?$linear_feedback_shift@K$0CA@$0BN@$01$03$0A@@random@boost@@2HB ; boost::random::linear_feedback_shift<unsigned long,32,29,2,4,0>::step_size
PUBLIC	?value@?$implementation_level@Ucollection_size_type@serialization@boost@@@serialization@boost@@2HB ; boost::serialization::implementation_level<boost::serialization::collection_size_type>::value
PUBLIC	?value@?$implementation_level@V?$vector@_NV?$allocator@_N@std@@@std@@@serialization@boost@@2HB ; boost::serialization::implementation_level<std::vector<bool,std::allocator<bool> > >::value
PUBLIC	?value@?$implementation_level@V?$vector@DV?$allocator@D@std@@@std@@@serialization@boost@@2HB ; boost::serialization::implementation_level<std::vector<char,std::allocator<char> > >::value
PUBLIC	?value@?$implementation_level@V?$vector@CV?$allocator@C@std@@@std@@@serialization@boost@@2HB ; boost::serialization::implementation_level<std::vector<signed char,std::allocator<signed char> > >::value
PUBLIC	?value@?$implementation_level@V?$vector@EV?$allocator@E@std@@@std@@@serialization@boost@@2HB ; boost::serialization::implementation_level<std::vector<unsigned char,std::allocator<unsigned char> > >::value
PUBLIC	?value@?$implementation_level@V?$vector@HV?$allocator@H@std@@@std@@@serialization@boost@@2HB ; boost::serialization::implementation_level<std::vector<int,std::allocator<int> > >::value
PUBLIC	?value@?$implementation_level@V?$vector@IV?$allocator@I@std@@@std@@@serialization@boost@@2HB ; boost::serialization::implementation_level<std::vector<unsigned int,std::allocator<unsigned int> > >::value
PUBLIC	?value@?$implementation_level@V?$vector@JV?$allocator@J@std@@@std@@@serialization@boost@@2HB ; boost::serialization::implementation_level<std::vector<long,std::allocator<long> > >::value
PUBLIC	?value@?$implementation_level@V?$vector@KV?$allocator@K@std@@@std@@@serialization@boost@@2HB ; boost::serialization::implementation_level<std::vector<unsigned long,std::allocator<unsigned long> > >::value
PUBLIC	?value@?$implementation_level@V?$vector@MV?$allocator@M@std@@@std@@@serialization@boost@@2HB ; boost::serialization::implementation_level<std::vector<float,std::allocator<float> > >::value
PUBLIC	?value@?$implementation_level@V?$vector@NV?$allocator@N@std@@@std@@@serialization@boost@@2HB ; boost::serialization::implementation_level<std::vector<double,std::allocator<double> > >::value
PUBLIC	?value@?$implementation_level@V?$vector@GV?$allocator@G@std@@@std@@@serialization@boost@@2HB ; boost::serialization::implementation_level<std::vector<unsigned short,std::allocator<unsigned short> > >::value
PUBLIC	?value@?$implementation_level@V?$vector@FV?$allocator@F@std@@@std@@@serialization@boost@@2HB ; boost::serialization::implementation_level<std::vector<short,std::allocator<short> > >::value
PUBLIC	?value@?$implementation_level@V?$vector@_JV?$allocator@_J@std@@@std@@@serialization@boost@@2HB ; boost::serialization::implementation_level<std::vector<__int64,std::allocator<__int64> > >::value
PUBLIC	?value@?$implementation_level@V?$vector@_KV?$allocator@_K@std@@@std@@@serialization@boost@@2HB ; boost::serialization::implementation_level<std::vector<unsigned __int64,std::allocator<unsigned __int64> > >::value
PUBLIC	?value@?$implementation_level@V?$vector@_WV?$allocator@_W@std@@@std@@@serialization@boost@@2HB ; boost::serialization::implementation_level<std::vector<wchar_t,std::allocator<wchar_t> > >::value
PUBLIC	?value@?$is_arithmetic_impl@Uinput@iostreams@boost@@@detail@boost@@2_NB ; boost::detail::is_arithmetic_impl<boost::iostreams::input>::value
PUBLIC	?value@?$is_abstract_imp@Uinput@iostreams@boost@@@detail@boost@@2_NB ; boost::detail::is_abstract_imp<boost::iostreams::input>::value
PUBLIC	?value@?$is_convertible_basic_impl@AAUinput@iostreams@boost@@U123@@detail@boost@@2_NB ; boost::detail::is_convertible_basic_impl<boost::iostreams::input &,boost::iostreams::input>::value
PUBLIC	?value@?$ice_or@$00$0A@$0A@$0A@$0A@$0A@$0A@@type_traits@boost@@2_NB ; boost::type_traits::ice_or<1,0,0,0,0,0,0>::value
PUBLIC	?value@?$ice_not@$0A@@type_traits@boost@@2_NB	; boost::type_traits::ice_not<0>::value
PUBLIC	?value@?$is_convertible_impl@Uinput@iostreams@boost@@U123@@detail@boost@@2_NB ; boost::detail::is_convertible_impl<boost::iostreams::input,boost::iostreams::input>::value
PUBLIC	?value@?$is_arithmetic_impl@Uoutput@iostreams@boost@@@detail@boost@@2_NB ; boost::detail::is_arithmetic_impl<boost::iostreams::output>::value
PUBLIC	?value@?$is_abstract_imp@Uoutput@iostreams@boost@@@detail@boost@@2_NB ; boost::detail::is_abstract_imp<boost::iostreams::output>::value
PUBLIC	?value@?$is_convertible_basic_impl@AAUinput@iostreams@boost@@Uoutput@23@@detail@boost@@2_NB ; boost::detail::is_convertible_basic_impl<boost::iostreams::input &,boost::iostreams::output>::value
PUBLIC	?value@?$ice_and@$0A@$00$00$00$00$00$00@type_traits@boost@@2_NB ; boost::type_traits::ice_and<0,1,1,1,1,1,1>::value
PUBLIC	?value@?$is_convertible_impl@Uinput@iostreams@boost@@Uoutput@23@@detail@boost@@2_NB ; boost::detail::is_convertible_impl<boost::iostreams::input,boost::iostreams::output>::value
PUBLIC	?word_size@?$mersenne_twister@K$0CA@$0CHA@$0BIN@$0BP@$0JJAILANP@$0L@$06$0JNCMFGIA@$0P@$0OPMGAAAA@$0BC@$0MHHGGGNO@@random@boost@@2HB ; boost::random::mersenne_twister<unsigned long,32,624,397,31,2567483615,11,7,2636928640,15,4022730752,18,3346425566>::word_size
PUBLIC	?state_size@?$mersenne_twister@K$0CA@$0CHA@$0BIN@$0BP@$0JJAILANP@$0L@$06$0JNCMFGIA@$0P@$0OPMGAAAA@$0BC@$0MHHGGGNO@@random@boost@@2HB ; boost::random::mersenne_twister<unsigned long,32,624,397,31,2567483615,11,7,2636928640,15,4022730752,18,3346425566>::state_size
PUBLIC	?shift_size@?$mersenne_twister@K$0CA@$0CHA@$0BIN@$0BP@$0JJAILANP@$0L@$06$0JNCMFGIA@$0P@$0OPMGAAAA@$0BC@$0MHHGGGNO@@random@boost@@2HB ; boost::random::mersenne_twister<unsigned long,32,624,397,31,2567483615,11,7,2636928640,15,4022730752,18,3346425566>::shift_size
PUBLIC	?mask_bits@?$mersenne_twister@K$0CA@$0CHA@$0BIN@$0BP@$0JJAILANP@$0L@$06$0JNCMFGIA@$0P@$0OPMGAAAA@$0BC@$0MHHGGGNO@@random@boost@@2HB ; boost::random::mersenne_twister<unsigned long,32,624,397,31,2567483615,11,7,2636928640,15,4022730752,18,3346425566>::mask_bits
PUBLIC	?parameter_a@?$mersenne_twister@K$0CA@$0CHA@$0BIN@$0BP@$0JJAILANP@$0L@$06$0JNCMFGIA@$0P@$0OPMGAAAA@$0BC@$0MHHGGGNO@@random@boost@@2KB ; boost::random::mersenne_twister<unsigned long,32,624,397,31,2567483615,11,7,2636928640,15,4022730752,18,3346425566>::parameter_a
PUBLIC	?output_u@?$mersenne_twister@K$0CA@$0CHA@$0BIN@$0BP@$0JJAILANP@$0L@$06$0JNCMFGIA@$0P@$0OPMGAAAA@$0BC@$0MHHGGGNO@@random@boost@@2HB ; boost::random::mersenne_twister<unsigned long,32,624,397,31,2567483615,11,7,2636928640,15,4022730752,18,3346425566>::output_u
PUBLIC	?output_s@?$mersenne_twister@K$0CA@$0CHA@$0BIN@$0BP@$0JJAILANP@$0L@$06$0JNCMFGIA@$0P@$0OPMGAAAA@$0BC@$0MHHGGGNO@@random@boost@@2HB ; boost::random::mersenne_twister<unsigned long,32,624,397,31,2567483615,11,7,2636928640,15,4022730752,18,3346425566>::output_s
PUBLIC	?output_b@?$mersenne_twister@K$0CA@$0CHA@$0BIN@$0BP@$0JJAILANP@$0L@$06$0JNCMFGIA@$0P@$0OPMGAAAA@$0BC@$0MHHGGGNO@@random@boost@@2KB ; boost::random::mersenne_twister<unsigned long,32,624,397,31,2567483615,11,7,2636928640,15,4022730752,18,3346425566>::output_b
PUBLIC	?output_t@?$mersenne_twister@K$0CA@$0CHA@$0BIN@$0BP@$0JJAILANP@$0L@$06$0JNCMFGIA@$0P@$0OPMGAAAA@$0BC@$0MHHGGGNO@@random@boost@@2HB ; boost::random::mersenne_twister<unsigned long,32,624,397,31,2567483615,11,7,2636928640,15,4022730752,18,3346425566>::output_t
PUBLIC	?output_c@?$mersenne_twister@K$0CA@$0CHA@$0BIN@$0BP@$0JJAILANP@$0L@$06$0JNCMFGIA@$0P@$0OPMGAAAA@$0BC@$0MHHGGGNO@@random@boost@@2KB ; boost::random::mersenne_twister<unsigned long,32,624,397,31,2567483615,11,7,2636928640,15,4022730752,18,3346425566>::output_c
PUBLIC	?output_l@?$mersenne_twister@K$0CA@$0CHA@$0BIN@$0BP@$0JJAILANP@$0L@$06$0JNCMFGIA@$0P@$0OPMGAAAA@$0BC@$0MHHGGGNO@@random@boost@@2HB ; boost::random::mersenne_twister<unsigned long,32,624,397,31,2567483615,11,7,2636928640,15,4022730752,18,3346425566>::output_l
PUBLIC	?has_fixed_range@?$mersenne_twister@K$0CA@$0CHA@$0BIN@$0BP@$0JJAILANP@$0L@$06$0JNCMFGIA@$0P@$0OPMGAAAA@$0BC@$0MHHGGGNO@@random@boost@@2_NB ; boost::random::mersenne_twister<unsigned long,32,624,397,31,2567483615,11,7,2636928640,15,4022730752,18,3346425566>::has_fixed_range
PUBLIC	?is_const@?$cv_traits_imp@PAH@detail@boost@@2_NB ; boost::detail::cv_traits_imp<int *>::is_const
PUBLIC	?is_volatile@?$cv_traits_imp@PAH@detail@boost@@2_NB ; boost::detail::cv_traits_imp<int *>::is_volatile
PUBLIC	?value@?$is_ununsigned_helper@H@detail@boost@@2_NB ; boost::detail::is_ununsigned_helper<int>::value
PUBLIC	?value@?$is_unsigned_imp@H@detail@boost@@2_NB	; boost::detail::is_unsigned_imp<int>::value
PUBLIC	?has_fixed_range@?$backward_compatible_uniform_01@V?$pass_through_engine@AAV?$mersenne_twister@K$0CA@$0CHA@$0BIN@$0BP@$0JJAILANP@$0L@$06$0JNCMFGIA@$0P@$0OPMGAAAA@$0BC@$0MHHGGGNO@@random@boost@@@detail@random@boost@@N@detail@boost@@2_NB ; boost::detail::backward_compatible_uniform_01<boost::random::detail::pass_through_engine<boost::random::mersenne_twister<unsigned long,32,624,397,31,2567483615,11,7,2636928640,15,4022730752,18,3346425566> &>,double>::has_fixed_range
PUBLIC	?has_fixed_range@?$backward_compatible_uniform_01@V?$pass_through_engine@V?$mersenne_twister@K$0CA@$0CHA@$0BIN@$0BP@$0JJAILANP@$0L@$06$0JNCMFGIA@$0P@$0OPMGAAAA@$0BC@$0MHHGGGNO@@random@boost@@@detail@random@boost@@N@detail@boost@@2_NB ; boost::detail::backward_compatible_uniform_01<boost::random::detail::pass_through_engine<boost::random::mersenne_twister<unsigned long,32,624,397,31,2567483615,11,7,2636928640,15,4022730752,18,3346425566> >,double>::has_fixed_range
PUBLIC	?value@?$implementation_level@V?$list@_NV?$allocator@_N@std@@@std@@@serialization@boost@@2HB ; boost::serialization::implementation_level<std::list<bool,std::allocator<bool> > >::value
PUBLIC	?value@?$implementation_level@V?$list@DV?$allocator@D@std@@@std@@@serialization@boost@@2HB ; boost::serialization::implementation_level<std::list<char,std::allocator<char> > >::value
PUBLIC	?value@?$implementation_level@V?$list@CV?$allocator@C@std@@@std@@@serialization@boost@@2HB ; boost::serialization::implementation_level<std::list<signed char,std::allocator<signed char> > >::value
PUBLIC	?value@?$implementation_level@V?$list@EV?$allocator@E@std@@@std@@@serialization@boost@@2HB ; boost::serialization::implementation_level<std::list<unsigned char,std::allocator<unsigned char> > >::value
PUBLIC	?value@?$implementation_level@V?$list@HV?$allocator@H@std@@@std@@@serialization@boost@@2HB ; boost::serialization::implementation_level<std::list<int,std::allocator<int> > >::value
PUBLIC	?value@?$implementation_level@V?$list@IV?$allocator@I@std@@@std@@@serialization@boost@@2HB ; boost::serialization::implementation_level<std::list<unsigned int,std::allocator<unsigned int> > >::value
PUBLIC	?value@?$implementation_level@V?$list@JV?$allocator@J@std@@@std@@@serialization@boost@@2HB ; boost::serialization::implementation_level<std::list<long,std::allocator<long> > >::value
PUBLIC	?value@?$implementation_level@V?$list@KV?$allocator@K@std@@@std@@@serialization@boost@@2HB ; boost::serialization::implementation_level<std::list<unsigned long,std::allocator<unsigned long> > >::value
PUBLIC	?value@?$implementation_level@V?$list@MV?$allocator@M@std@@@std@@@serialization@boost@@2HB ; boost::serialization::implementation_level<std::list<float,std::allocator<float> > >::value
PUBLIC	?value@?$implementation_level@V?$list@NV?$allocator@N@std@@@std@@@serialization@boost@@2HB ; boost::serialization::implementation_level<std::list<double,std::allocator<double> > >::value
PUBLIC	?value@?$implementation_level@V?$list@GV?$allocator@G@std@@@std@@@serialization@boost@@2HB ; boost::serialization::implementation_level<std::list<unsigned short,std::allocator<unsigned short> > >::value
PUBLIC	?value@?$implementation_level@V?$list@FV?$allocator@F@std@@@std@@@serialization@boost@@2HB ; boost::serialization::implementation_level<std::list<short,std::allocator<short> > >::value
PUBLIC	?value@?$implementation_level@V?$list@_JV?$allocator@_J@std@@@std@@@serialization@boost@@2HB ; boost::serialization::implementation_level<std::list<__int64,std::allocator<__int64> > >::value
PUBLIC	?value@?$implementation_level@V?$list@_KV?$allocator@_K@std@@@std@@@serialization@boost@@2HB ; boost::serialization::implementation_level<std::list<unsigned __int64,std::allocator<unsigned __int64> > >::value
PUBLIC	?value@?$implementation_level@V?$list@_WV?$allocator@_W@std@@@std@@@serialization@boost@@2HB ; boost::serialization::implementation_level<std::list<wchar_t,std::allocator<wchar_t> > >::value
PUBLIC	?value@?$implementation_level@Uversion_type@archive@boost@@@serialization@boost@@2HB ; boost::serialization::implementation_level<boost::archive::version_type>::value
PUBLIC	?value@?$implementation_level@Uclass_id_type@archive@boost@@@serialization@boost@@2HB ; boost::serialization::implementation_level<boost::archive::class_id_type>::value
PUBLIC	?value@?$implementation_level@Uclass_id_reference_type@archive@boost@@@serialization@boost@@2HB ; boost::serialization::implementation_level<boost::archive::class_id_reference_type>::value
PUBLIC	?value@?$implementation_level@Uclass_id_optional_type@archive@boost@@@serialization@boost@@2HB ; boost::serialization::implementation_level<boost::archive::class_id_optional_type>::value
PUBLIC	?value@?$implementation_level@Uclass_name_type@archive@boost@@@serialization@boost@@2HB ; boost::serialization::implementation_level<boost::archive::class_name_type>::value
PUBLIC	?value@?$implementation_level@Uobject_id_type@archive@boost@@@serialization@boost@@2HB ; boost::serialization::implementation_level<boost::archive::object_id_type>::value
PUBLIC	?value@?$implementation_level@Uobject_reference_type@archive@boost@@@serialization@boost@@2HB ; boost::serialization::implementation_level<boost::archive::object_reference_type>::value
PUBLIC	?value@?$implementation_level@Utracking_type@archive@boost@@@serialization@boost@@2HB ; boost::serialization::implementation_level<boost::archive::tracking_type>::value
PUBLIC	?value@?$implementation_level@V?$basic_string@DU?$char_traits@D@std@@V?$allocator@D@2@@std@@@serialization@boost@@2HB ; boost::serialization::implementation_level<std::basic_string<char,std::char_traits<char>,std::allocator<char> > >::value
PUBLIC	?value@?$implementation_level@V?$basic_string@_WU?$char_traits@_W@std@@V?$allocator@_W@2@@std@@@serialization@boost@@2HB ; boost::serialization::implementation_level<std::basic_string<wchar_t,std::char_traits<wchar_t>,std::allocator<wchar_t> > >::value
PUBLIC	?value@?$int_@$0A@@mpl@boost@@2HB		; boost::mpl::int_<0>::value
PUBLIC	?value@?$is_convertible_basic_impl@AAUoutput@iostreams@boost@@Uinput@23@@detail@boost@@2_NB ; boost::detail::is_convertible_basic_impl<boost::iostreams::output &,boost::iostreams::input>::value
PUBLIC	?value@?$is_convertible_impl@Uoutput@iostreams@boost@@Uinput@23@@detail@boost@@2_NB ; boost::detail::is_convertible_impl<boost::iostreams::output,boost::iostreams::input>::value
PUBLIC	?value@?$is_empty_impl@X@detail@boost@@2_NB	; boost::detail::is_empty_impl<void>::value
PUBLIC	?value@?$is_empty_impl@$$CBX@detail@boost@@2_NB	; boost::detail::is_empty_impl<void const >::value
PUBLIC	?value@?$is_empty_impl@$$CCX@detail@boost@@2_NB	; boost::detail::is_empty_impl<void volatile >::value
PUBLIC	?value@?$is_empty_impl@$$CDX@detail@boost@@2_NB	; boost::detail::is_empty_impl<void const volatile >::value
PUBLIC	?value@?$not_satisfied@U?$usage_requirements@U?$SGIAssignable@_J@boost@@@concept@boost@@@concept@boost@@2_NB ; boost::concept::not_satisfied<boost::concept::usage_requirements<boost::SGIAssignable<__int64> > >::value
PUBLIC	?value@?$not_satisfied@U?$SGIAssignableConcept@_J@boost@@@concept@boost@@2_NB ; boost::concept::not_satisfied<boost::SGIAssignableConcept<__int64> >::value
PUBLIC	?is_const@?$cv_traits_imp@PA_J@detail@boost@@2_NB ; boost::detail::cv_traits_imp<__int64 *>::is_const
PUBLIC	?is_volatile@?$cv_traits_imp@PA_J@detail@boost@@2_NB ; boost::detail::cv_traits_imp<__int64 *>::is_volatile
PUBLIC	?value@?$is_pointer_helper@_J@detail@boost@@2_NB ; boost::detail::is_pointer_helper<__int64>::value
PUBLIC	?value@?$result_@_J@?$is_mem_fun_pointer_select@$0A@@detail@boost@@2_NB ; boost::detail::is_mem_fun_pointer_select<0>::result_<__int64>::value
PUBLIC	?value@?$is_pointer_impl@_J@detail@boost@@2_NB	; boost::detail::is_pointer_impl<__int64>::value
PUBLIC	?value@?$is_arithmetic_impl@_J@detail@boost@@2_NB ; boost::detail::is_arithmetic_impl<__int64>::value
PUBLIC	?_EEM_DS@?$deque@U?$pair@I_J@std@@V?$allocator@U?$pair@I_J@std@@@2@@std@@2HB ; std::deque<std::pair<unsigned int,__int64>,std::allocator<std::pair<unsigned int,__int64> > >::_EEM_DS
PUBLIC	?value@?$impl@U?$basic_file_source@D@iostreams@boost@@@is_istream_impl_@iostreams@boost@@2_NB ; boost::iostreams::is_istream_impl_::impl<boost::iostreams::basic_file_source<char> >::value
PUBLIC	?value@?$impl@U?$basic_file_source@D@iostreams@boost@@@is_ostream_impl_@iostreams@boost@@2_NB ; boost::iostreams::is_ostream_impl_::impl<boost::iostreams::basic_file_source<char> >::value
PUBLIC	?value@?$impl@U?$basic_file_source@D@iostreams@boost@@@is_streambuf_impl_@iostreams@boost@@2_NB ; boost::iostreams::is_streambuf_impl_::impl<boost::iostreams::basic_file_source<char> >::value
PUBLIC	?value@?$is_arithmetic_impl@$$CBV?$mersenne_twister@K$0CA@$0CHA@$0BIN@$0BP@$0JJAILANP@$0L@$06$0JNCMFGIA@$0P@$0OPMGAAAA@$0BC@$0MHHGGGNO@@random@boost@@@detail@boost@@2_NB ; boost::detail::is_arithmetic_impl<boost::random::mersenne_twister<unsigned long,32,624,397,31,2567483615,11,7,2636928640,15,4022730752,18,3346425566> const >::value
PUBLIC	?value@?$is_arithmetic_impl@$$CBK@detail@boost@@2_NB ; boost::detail::is_arithmetic_impl<unsigned long const >::value
PUBLIC	?value@?$is_arithmetic_impl@$$CBV?$pass_through_engine@V?$mersenne_twister@K$0CA@$0CHA@$0BIN@$0BP@$0JJAILANP@$0L@$06$0JNCMFGIA@$0P@$0OPMGAAAA@$0BC@$0MHHGGGNO@@random@boost@@@detail@random@boost@@@detail@boost@@2_NB ; boost::detail::is_arithmetic_impl<boost::random::detail::pass_through_engine<boost::random::mersenne_twister<unsigned long,32,624,397,31,2567483615,11,7,2636928640,15,4022730752,18,3346425566> > const >::value
PUBLIC	?value@?$slash@V?$basic_path@V?$basic_string@DU?$char_traits@D@std@@V?$allocator@D@2@@std@@Upath_traits@filesystem@boost@@@filesystem@boost@@@filesystem@boost@@2DB ; boost::filesystem::slash<boost::filesystem::basic_path<std::basic_string<char,std::char_traits<char>,std::allocator<char> >,boost::filesystem::path_traits> >::value
PUBLIC	?value@?$colon@V?$basic_path@V?$basic_string@DU?$char_traits@D@std@@V?$allocator@D@2@@std@@Upath_traits@filesystem@boost@@@filesystem@boost@@@filesystem@boost@@2DB ; boost::filesystem::colon<boost::filesystem::basic_path<std::basic_string<char,std::char_traits<char>,std::allocator<char> >,boost::filesystem::path_traits> >::value
PUBLIC	?value@?$path_alt_separator@V?$basic_path@V?$basic_string@DU?$char_traits@D@std@@V?$allocator@D@2@@std@@Upath_traits@filesystem@boost@@@filesystem@boost@@@filesystem@boost@@2DB ; boost::filesystem::path_alt_separator<boost::filesystem::basic_path<std::basic_string<char,std::char_traits<char>,std::allocator<char> >,boost::filesystem::path_traits> >::value
PUBLIC	?value@?$is_basic_path@Vfile_status@filesystem@boost@@@filesystem@boost@@2_NB ; boost::filesystem::is_basic_path<boost::filesystem::file_status>::value
PUBLIC	?is_const@?$cv_traits_imp@PBV?$basic_string@DU?$char_traits@D@std@@V?$allocator@D@2@@std@@@detail@boost@@2_NB ; boost::detail::cv_traits_imp<std::basic_string<char,std::char_traits<char>,std::allocator<char> > const *>::is_const
PUBLIC	?is_volatile@?$cv_traits_imp@PBV?$basic_string@DU?$char_traits@D@std@@V?$allocator@D@2@@std@@@detail@boost@@2_NB ; boost::detail::cv_traits_imp<std::basic_string<char,std::char_traits<char>,std::allocator<char> > const *>::is_volatile
PUBLIC	?is_const@?$cv_traits_imp@PAV?$basic_string@DU?$char_traits@D@std@@V?$allocator@D@2@@std@@@detail@boost@@2_NB ; boost::detail::cv_traits_imp<std::basic_string<char,std::char_traits<char>,std::allocator<char> > *>::is_const
PUBLIC	?is_volatile@?$cv_traits_imp@PAV?$basic_string@DU?$char_traits@D@std@@V?$allocator@D@2@@std@@@detail@boost@@2_NB ; boost::detail::cv_traits_imp<std::basic_string<char,std::char_traits<char>,std::allocator<char> > *>::is_volatile
PUBLIC	?value@?$is_abstract_imp@D@detail@boost@@2_NB	; boost::detail::is_abstract_imp<char>::value
PUBLIC	?is_const@?$cv_traits_imp@PAU?$basic_file_source@D@iostreams@boost@@@detail@boost@@2_NB ; boost::detail::cv_traits_imp<boost::iostreams::basic_file_source<char> *>::is_const
PUBLIC	?is_volatile@?$cv_traits_imp@PAU?$basic_file_source@D@iostreams@boost@@@detail@boost@@2_NB ; boost::detail::cv_traits_imp<boost::iostreams::basic_file_source<char> *>::is_volatile
PUBLIC	?value@?$impl@U?$basic_file_source@D@iostreams@boost@@@is_incrementable_@detail@boost@@2_NB ; boost::detail::is_incrementable_::impl<boost::iostreams::basic_file_source<char> >::value
PUBLIC	?value@?$impl@V?$filtering_stream@Uinput@iostreams@boost@@DU?$char_traits@D@std@@V?$allocator@D@5@Upublic_@23@@iostreams@boost@@@is_istream_impl_@iostreams@boost@@2_NB ; boost::iostreams::is_istream_impl_::impl<boost::iostreams::filtering_stream<boost::iostreams::input,char,std::char_traits<char>,std::allocator<char>,boost::iostreams::public_> >::value
PUBLIC	?value@?$impl@V?$filtering_stream@Uinput@iostreams@boost@@DU?$char_traits@D@std@@V?$allocator@D@5@Upublic_@23@@iostreams@boost@@@is_boost_stream_impl_@detail@iostreams@boost@@2_NB ; boost::iostreams::detail::is_boost_stream_impl_::impl<boost::iostreams::filtering_stream<boost::iostreams::input,char,std::char_traits<char>,std::allocator<char>,boost::iostreams::public_> >::value
PUBLIC	?value@?$impl@V?$filtering_stream@Uinput@iostreams@boost@@DU?$char_traits@D@std@@V?$allocator@D@5@Upublic_@23@@iostreams@boost@@@is_boost_stream_buffer_impl_@detail@iostreams@boost@@2_NB ; boost::iostreams::detail::is_boost_stream_buffer_impl_::impl<boost::iostreams::filtering_stream<boost::iostreams::input,char,std::char_traits<char>,std::allocator<char>,boost::iostreams::public_> >::value
PUBLIC	?value@?$impl@V?$filtering_stream@Uinput@iostreams@boost@@DU?$char_traits@D@std@@V?$allocator@D@5@Upublic_@23@@iostreams@boost@@@is_filtering_stream_impl_impl_@detail@iostreams@boost@@2_NB ; boost::iostreams::detail::is_filtering_stream_impl_impl_::impl<boost::iostreams::filtering_stream<boost::iostreams::input,char,std::char_traits<char>,std::allocator<char>,boost::iostreams::public_> >::value
PUBLIC	?value@?$is_arithmetic_impl@Ucategory@?$filtering_stream@Uinput@iostreams@boost@@DU?$char_traits@D@std@@V?$allocator@D@5@Upublic_@23@@iostreams@boost@@@detail@boost@@2_NB ; boost::detail::is_arithmetic_impl<boost::iostreams::filtering_stream<boost::iostreams::input,char,std::char_traits<char>,std::allocator<char>,boost::iostreams::public_>::category>::value
PUBLIC	?value@?$is_arithmetic_impl@Uclosable_tag@iostreams@boost@@@detail@boost@@2_NB ; boost::detail::is_arithmetic_impl<boost::iostreams::closable_tag>::value
PUBLIC	?value@?$is_abstract_imp@Uclosable_tag@iostreams@boost@@@detail@boost@@2_NB ; boost::detail::is_abstract_imp<boost::iostreams::closable_tag>::value
PUBLIC	?value@?$is_convertible_basic_impl@AAUcategory@?$filtering_stream@Uinput@iostreams@boost@@DU?$char_traits@D@std@@V?$allocator@D@5@Upublic_@23@@iostreams@boost@@Uclosable_tag@34@@detail@boost@@2_NB ; boost::detail::is_convertible_basic_impl<boost::iostreams::filtering_stream<boost::iostreams::input,char,std::char_traits<char>,std::allocator<char>,boost::iostreams::public_>::category &,boost::iostreams::closable_tag>::value
PUBLIC	?value@?$is_convertible_impl@Ucategory@?$filtering_stream@Uinput@iostreams@boost@@DU?$char_traits@D@std@@V?$allocator@D@5@Upublic_@23@@iostreams@boost@@Uclosable_tag@34@@detail@boost@@2_NB ; boost::detail::is_convertible_impl<boost::iostreams::filtering_stream<boost::iostreams::input,char,std::char_traits<char>,std::allocator<char>,boost::iostreams::public_>::category,boost::iostreams::closable_tag>::value
PUBLIC	?value@?$is_base_and_derived_impl@Ucustom_tag@detail@iostreams@boost@@U?$operations@V?$filtering_stream@Uinput@iostreams@boost@@DU?$char_traits@D@std@@V?$allocator@D@5@Upublic_@23@@iostreams@boost@@@34@@detail@boost@@2_NB ; boost::detail::is_base_and_derived_impl<boost::iostreams::detail::custom_tag,boost::iostreams::operations<boost::iostreams::filtering_stream<boost::iostreams::input,char,std::char_traits<char>,std::allocator<char>,boost::iostreams::public_> > >::value
PUBLIC	?value@?$is_arithmetic_impl@Ubidirectional_traversal_tag@boost@@@detail@boost@@2_NB ; boost::detail::is_arithmetic_impl<boost::bidirectional_traversal_tag>::value
PUBLIC	?value@?$is_arithmetic_impl@Uinput_iterator_tag@std@@@detail@boost@@2_NB ; boost::detail::is_arithmetic_impl<std::input_iterator_tag>::value
PUBLIC	?value@?$is_abstract_imp@Uinput_iterator_tag@std@@@detail@boost@@2_NB ; boost::detail::is_abstract_imp<std::input_iterator_tag>::value
PUBLIC	?value@?$is_convertible_basic_impl@AAUbidirectional_traversal_tag@boost@@Uinput_iterator_tag@std@@@detail@boost@@2_NB ; boost::detail::is_convertible_basic_impl<boost::bidirectional_traversal_tag &,std::input_iterator_tag>::value
PUBLIC	?value@?$is_convertible_impl@Ubidirectional_traversal_tag@boost@@Uinput_iterator_tag@std@@@detail@boost@@2_NB ; boost::detail::is_convertible_impl<boost::bidirectional_traversal_tag,std::input_iterator_tag>::value
PUBLIC	?value@?$is_arithmetic_impl@Uoutput_iterator_tag@std@@@detail@boost@@2_NB ; boost::detail::is_arithmetic_impl<std::output_iterator_tag>::value
PUBLIC	?value@?$is_abstract_imp@Uoutput_iterator_tag@std@@@detail@boost@@2_NB ; boost::detail::is_abstract_imp<std::output_iterator_tag>::value
PUBLIC	?value@?$is_convertible_basic_impl@AAUbidirectional_traversal_tag@boost@@Uoutput_iterator_tag@std@@@detail@boost@@2_NB ; boost::detail::is_convertible_basic_impl<boost::bidirectional_traversal_tag &,std::output_iterator_tag>::value
PUBLIC	?value@?$is_convertible_impl@Ubidirectional_traversal_tag@boost@@Uoutput_iterator_tag@std@@@detail@boost@@2_NB ; boost::detail::is_convertible_impl<boost::bidirectional_traversal_tag,std::output_iterator_tag>::value
PUBLIC	?p@?$assert_arg_pred_not@U?$is_iterator_category@Ubidirectional_traversal_tag@boost@@@detail@boost@@@mpl@boost@@2_NB ; boost::mpl::assert_arg_pred_not<boost::detail::is_iterator_category<boost::bidirectional_traversal_tag> >::p
PUBLIC	?mpl_assertion_in_line_10@?$facade_iterator_category_impl@Ubidirectional_traversal_tag@boost@@$$CBV?$basic_string@DU?$char_traits@D@std@@V?$allocator@D@2@@std@@ABV34@@detail@boost@@2IB ; boost::detail::facade_iterator_category_impl<boost::bidirectional_traversal_tag,std::basic_string<char,std::char_traits<char>,std::allocator<char> > const ,std::basic_string<char,std::char_traits<char>,std::allocator<char> > const &>::mpl_assertion_in_line_10
PUBLIC	?value@?$is_arithmetic_impl@Uforward_traversal_tag@boost@@@detail@boost@@2_NB ; boost::detail::is_arithmetic_impl<boost::forward_traversal_tag>::value
PUBLIC	?value@?$is_abstract_imp@Uforward_traversal_tag@boost@@@detail@boost@@2_NB ; boost::detail::is_abstract_imp<boost::forward_traversal_tag>::value
PUBLIC	?value@?$is_convertible_basic_impl@AAUbidirectional_traversal_tag@boost@@Uforward_traversal_tag@2@@detail@boost@@2_NB ; boost::detail::is_convertible_basic_impl<boost::bidirectional_traversal_tag &,boost::forward_traversal_tag>::value
PUBLIC	?value@?$is_convertible_impl@Ubidirectional_traversal_tag@boost@@Uforward_traversal_tag@2@@detail@boost@@2_NB ; boost::detail::is_convertible_impl<boost::bidirectional_traversal_tag,boost::forward_traversal_tag>::value
PUBLIC	?value@?$is_arithmetic_impl@Urandom_access_traversal_tag@boost@@@detail@boost@@2_NB ; boost::detail::is_arithmetic_impl<boost::random_access_traversal_tag>::value
PUBLIC	?value@?$is_abstract_imp@Urandom_access_traversal_tag@boost@@@detail@boost@@2_NB ; boost::detail::is_abstract_imp<boost::random_access_traversal_tag>::value
PUBLIC	?value@?$is_convertible_basic_impl@AAUbidirectional_traversal_tag@boost@@Urandom_access_traversal_tag@2@@detail@boost@@2_NB ; boost::detail::is_convertible_basic_impl<boost::bidirectional_traversal_tag &,boost::random_access_traversal_tag>::value
PUBLIC	?value@?$is_convertible_impl@Ubidirectional_traversal_tag@boost@@Urandom_access_traversal_tag@2@@detail@boost@@2_NB ; boost::detail::is_convertible_impl<boost::bidirectional_traversal_tag,boost::random_access_traversal_tag>::value
PUBLIC	?value@?$is_abstract_imp@Ubidirectional_traversal_tag@boost@@@detail@boost@@2_NB ; boost::detail::is_abstract_imp<boost::bidirectional_traversal_tag>::value
PUBLIC	?value@?$is_convertible_basic_impl@AAUbidirectional_traversal_tag@boost@@U12@@detail@boost@@2_NB ; boost::detail::is_convertible_basic_impl<boost::bidirectional_traversal_tag &,boost::bidirectional_traversal_tag>::value
PUBLIC	?value@?$is_convertible_impl@Ubidirectional_traversal_tag@boost@@U12@@detail@boost@@2_NB ; boost::detail::is_convertible_impl<boost::bidirectional_traversal_tag,boost::bidirectional_traversal_tag>::value
PUBLIC	?value@?$is_arithmetic_impl@Ubidirectional_iterator_tag@std@@@detail@boost@@2_NB ; boost::detail::is_arithmetic_impl<std::bidirectional_iterator_tag>::value
PUBLIC	?value@?$is_arithmetic_impl@Uincrementable_traversal_tag@boost@@@detail@boost@@2_NB ; boost::detail::is_arithmetic_impl<boost::incrementable_traversal_tag>::value
PUBLIC	?value@?$is_abstract_imp@Uincrementable_traversal_tag@boost@@@detail@boost@@2_NB ; boost::detail::is_abstract_imp<boost::incrementable_traversal_tag>::value
PUBLIC	?value@?$is_convertible_basic_impl@AAUbidirectional_iterator_tag@std@@Uincrementable_traversal_tag@boost@@@detail@boost@@2_NB ; boost::detail::is_convertible_basic_impl<std::bidirectional_iterator_tag &,boost::incrementable_traversal_tag>::value
PUBLIC	?value@?$is_convertible_impl@Ubidirectional_iterator_tag@std@@Uincrementable_traversal_tag@boost@@@detail@boost@@2_NB ; boost::detail::is_convertible_impl<std::bidirectional_iterator_tag,boost::incrementable_traversal_tag>::value
PUBLIC	?value@?$is_arithmetic_impl@Urandom_access_iterator_tag@std@@@detail@boost@@2_NB ; boost::detail::is_arithmetic_impl<std::random_access_iterator_tag>::value
PUBLIC	?value@?$is_abstract_imp@Urandom_access_iterator_tag@std@@@detail@boost@@2_NB ; boost::detail::is_abstract_imp<std::random_access_iterator_tag>::value
PUBLIC	?value@?$is_convertible_basic_impl@AAUbidirectional_iterator_tag@std@@Urandom_access_iterator_tag@2@@detail@boost@@2_NB ; boost::detail::is_convertible_basic_impl<std::bidirectional_iterator_tag &,std::random_access_iterator_tag>::value
PUBLIC	?value@?$is_convertible_impl@Ubidirectional_iterator_tag@std@@Urandom_access_iterator_tag@2@@detail@boost@@2_NB ; boost::detail::is_convertible_impl<std::bidirectional_iterator_tag,std::random_access_iterator_tag>::value
PUBLIC	?value@?$is_abstract_imp@Ubidirectional_iterator_tag@std@@@detail@boost@@2_NB ; boost::detail::is_abstract_imp<std::bidirectional_iterator_tag>::value
PUBLIC	?value@?$is_convertible_basic_impl@AAUbidirectional_iterator_tag@std@@U12@@detail@boost@@2_NB ; boost::detail::is_convertible_basic_impl<std::bidirectional_iterator_tag &,std::bidirectional_iterator_tag>::value
PUBLIC	?value@?$is_convertible_impl@Ubidirectional_iterator_tag@std@@U12@@detail@boost@@2_NB ; boost::detail::is_convertible_impl<std::bidirectional_iterator_tag,std::bidirectional_iterator_tag>::value
PUBLIC	?value@?$is_arithmetic_impl@$$CBV?$basic_string@DU?$char_traits@D@std@@V?$allocator@D@2@@std@@@detail@boost@@2_NB ; boost::detail::is_arithmetic_impl<std::basic_string<char,std::char_traits<char>,std::allocator<char> > const >::value
PUBLIC	?value@?$is_pointer_helper@V?$basic_string@DU?$char_traits@D@std@@V?$allocator@D@2@@std@@@detail@boost@@2_NB ; boost::detail::is_pointer_helper<std::basic_string<char,std::char_traits<char>,std::allocator<char> > >::value
PUBLIC	?value@?$result_@$$CBV?$basic_string@DU?$char_traits@D@std@@V?$allocator@D@2@@std@@@?$is_mem_fun_pointer_select@$0A@@detail@boost@@2_NB ; boost::detail::is_mem_fun_pointer_select<0>::result_<std::basic_string<char,std::char_traits<char>,std::allocator<char> > const >::value
PUBLIC	?value@?$is_pointer_impl@$$CBV?$basic_string@DU?$char_traits@D@std@@V?$allocator@D@2@@std@@@detail@boost@@2_NB ; boost::detail::is_pointer_impl<std::basic_string<char,std::char_traits<char>,std::allocator<char> > const >::value
PUBLIC	?value@?$is_scalar_impl@$$CBV?$basic_string@DU?$char_traits@D@std@@V?$allocator@D@2@@std@@@detail@boost@@2_NB ; boost::detail::is_scalar_impl<std::basic_string<char,std::char_traits<char>,std::allocator<char> > const >::value
PUBLIC	?value@?$is_pod_impl@$$CBV?$basic_string@DU?$char_traits@D@std@@V?$allocator@D@2@@std@@@detail@boost@@2_NB ; boost::detail::is_pod_impl<std::basic_string<char,std::char_traits<char>,std::allocator<char> > const >::value
PUBLIC	?mpl_assertion_in_line_10@?$facade_iterator_category_impl@Ubidirectional_traversal_tag@boost@@$$CBV?$basic_string@_WU?$char_traits@_W@std@@V?$allocator@_W@2@@std@@ABV34@@detail@boost@@2IB ; boost::detail::facade_iterator_category_impl<boost::bidirectional_traversal_tag,std::basic_string<wchar_t,std::char_traits<wchar_t>,std::allocator<wchar_t> > const ,std::basic_string<wchar_t,std::char_traits<wchar_t>,std::allocator<wchar_t> > const &>::mpl_assertion_in_line_10
PUBLIC	?is_const@?$cv_traits_imp@PBV?$basic_string@_WU?$char_traits@_W@std@@V?$allocator@_W@2@@std@@@detail@boost@@2_NB ; boost::detail::cv_traits_imp<std::basic_string<wchar_t,std::char_traits<wchar_t>,std::allocator<wchar_t> > const *>::is_const
PUBLIC	?is_volatile@?$cv_traits_imp@PBV?$basic_string@_WU?$char_traits@_W@std@@V?$allocator@_W@2@@std@@@detail@boost@@2_NB ; boost::detail::cv_traits_imp<std::basic_string<wchar_t,std::char_traits<wchar_t>,std::allocator<wchar_t> > const *>::is_volatile
PUBLIC	?value@?$is_arithmetic_impl@$$CBV?$basic_string@_WU?$char_traits@_W@std@@V?$allocator@_W@2@@std@@@detail@boost@@2_NB ; boost::detail::is_arithmetic_impl<std::basic_string<wchar_t,std::char_traits<wchar_t>,std::allocator<wchar_t> > const >::value
PUBLIC	?value@?$is_pointer_helper@V?$basic_string@_WU?$char_traits@_W@std@@V?$allocator@_W@2@@std@@@detail@boost@@2_NB ; boost::detail::is_pointer_helper<std::basic_string<wchar_t,std::char_traits<wchar_t>,std::allocator<wchar_t> > >::value
PUBLIC	?value@?$result_@$$CBV?$basic_string@_WU?$char_traits@_W@std@@V?$allocator@_W@2@@std@@@?$is_mem_fun_pointer_select@$0A@@detail@boost@@2_NB ; boost::detail::is_mem_fun_pointer_select<0>::result_<std::basic_string<wchar_t,std::char_traits<wchar_t>,std::allocator<wchar_t> > const >::value
PUBLIC	?value@?$is_pointer_impl@$$CBV?$basic_string@_WU?$char_traits@_W@std@@V?$allocator@_W@2@@std@@@detail@boost@@2_NB ; boost::detail::is_pointer_impl<std::basic_string<wchar_t,std::char_traits<wchar_t>,std::allocator<wchar_t> > const >::value
PUBLIC	?value@?$is_scalar_impl@$$CBV?$basic_string@_WU?$char_traits@_W@std@@V?$allocator@_W@2@@std@@@detail@boost@@2_NB ; boost::detail::is_scalar_impl<std::basic_string<wchar_t,std::char_traits<wchar_t>,std::allocator<wchar_t> > const >::value
PUBLIC	?value@?$is_pod_impl@$$CBV?$basic_string@_WU?$char_traits@_W@std@@V?$allocator@_W@2@@std@@@detail@boost@@2_NB ; boost::detail::is_pod_impl<std::basic_string<wchar_t,std::char_traits<wchar_t>,std::allocator<wchar_t> > const >::value
PUBLIC	?value@?$is_arithmetic_impl@Usingle_pass_traversal_tag@boost@@@detail@boost@@2_NB ; boost::detail::is_arithmetic_impl<boost::single_pass_traversal_tag>::value
PUBLIC	?value@?$is_convertible_basic_impl@AAUsingle_pass_traversal_tag@boost@@Uinput_iterator_tag@std@@@detail@boost@@2_NB ; boost::detail::is_convertible_basic_impl<boost::single_pass_traversal_tag &,std::input_iterator_tag>::value
PUBLIC	?value@?$is_convertible_impl@Usingle_pass_traversal_tag@boost@@Uinput_iterator_tag@std@@@detail@boost@@2_NB ; boost::detail::is_convertible_impl<boost::single_pass_traversal_tag,std::input_iterator_tag>::value
PUBLIC	?value@?$is_convertible_basic_impl@AAUsingle_pass_traversal_tag@boost@@Uoutput_iterator_tag@std@@@detail@boost@@2_NB ; boost::detail::is_convertible_basic_impl<boost::single_pass_traversal_tag &,std::output_iterator_tag>::value
PUBLIC	?value@?$is_convertible_impl@Usingle_pass_traversal_tag@boost@@Uoutput_iterator_tag@std@@@detail@boost@@2_NB ; boost::detail::is_convertible_impl<boost::single_pass_traversal_tag,std::output_iterator_tag>::value
PUBLIC	?p@?$assert_arg_pred_not@U?$is_iterator_category@Usingle_pass_traversal_tag@boost@@@detail@boost@@@mpl@boost@@2_NB ; boost::mpl::assert_arg_pred_not<boost::detail::is_iterator_category<boost::single_pass_traversal_tag> >::p
PUBLIC	?mpl_assertion_in_line_10@?$facade_iterator_category_impl@Usingle_pass_traversal_tag@boost@@V?$basic_directory_entry@V?$basic_path@V?$basic_string@DU?$char_traits@D@std@@V?$allocator@D@2@@std@@Upath_traits@filesystem@boost@@@filesystem@boost@@@filesystem@2@AAV342@@detail@boost@@2IB ; boost::detail::facade_iterator_category_impl<boost::single_pass_traversal_tag,boost::filesystem::basic_directory_entry<boost::filesystem::basic_path<std::basic_string<char,std::char_traits<char>,std::allocator<char> >,boost::filesystem::path_traits> >,boost::filesystem::basic_directory_entry<boost::filesystem::basic_path<std::basic_string<char,std::char_traits<char>,std::allocator<char> >,boost::filesystem::path_traits> > &>::mpl_assertion_in_line_10
PUBLIC	?value@?$is_convertible_basic_impl@AAUsingle_pass_traversal_tag@boost@@Uforward_traversal_tag@2@@detail@boost@@2_NB ; boost::detail::is_convertible_basic_impl<boost::single_pass_traversal_tag &,boost::forward_traversal_tag>::value
PUBLIC	?value@?$is_convertible_impl@Usingle_pass_traversal_tag@boost@@Uforward_traversal_tag@2@@detail@boost@@2_NB ; boost::detail::is_convertible_impl<boost::single_pass_traversal_tag,boost::forward_traversal_tag>::value
PUBLIC	?value@?$is_abstract_imp@Usingle_pass_traversal_tag@boost@@@detail@boost@@2_NB ; boost::detail::is_abstract_imp<boost::single_pass_traversal_tag>::value
PUBLIC	?value@?$is_convertible_basic_impl@AAUsingle_pass_traversal_tag@boost@@U12@@detail@boost@@2_NB ; boost::detail::is_convertible_basic_impl<boost::single_pass_traversal_tag &,boost::single_pass_traversal_tag>::value
PUBLIC	?value@?$is_convertible_impl@Usingle_pass_traversal_tag@boost@@U12@@detail@boost@@2_NB ; boost::detail::is_convertible_impl<boost::single_pass_traversal_tag,boost::single_pass_traversal_tag>::value
PUBLIC	?value@?$is_arithmetic_impl@AAV?$basic_directory_entry@V?$basic_path@V?$basic_string@DU?$char_traits@D@std@@V?$allocator@D@2@@std@@Upath_traits@filesystem@boost@@@filesystem@boost@@@filesystem@boost@@@detail@boost@@2_NB ; boost::detail::is_arithmetic_impl<boost::filesystem::basic_directory_entry<boost::filesystem::basic_path<std::basic_string<char,std::char_traits<char>,std::allocator<char> >,boost::filesystem::path_traits> > &>::value
PUBLIC	?value@?$is_arithmetic_impl@V?$basic_directory_entry@V?$basic_path@V?$basic_string@DU?$char_traits@D@std@@V?$allocator@D@2@@std@@Upath_traits@filesystem@boost@@@filesystem@boost@@@filesystem@boost@@@detail@boost@@2_NB ; boost::detail::is_arithmetic_impl<boost::filesystem::basic_directory_entry<boost::filesystem::basic_path<std::basic_string<char,std::char_traits<char>,std::allocator<char> >,boost::filesystem::path_traits> > >::value
PUBLIC	?value@?$is_abstract_imp@V?$basic_directory_entry@V?$basic_path@V?$basic_string@DU?$char_traits@D@std@@V?$allocator@D@2@@std@@Upath_traits@filesystem@boost@@@filesystem@boost@@@filesystem@boost@@@detail@boost@@2_NB ; boost::detail::is_abstract_imp<boost::filesystem::basic_directory_entry<boost::filesystem::basic_path<std::basic_string<char,std::char_traits<char>,std::allocator<char> >,boost::filesystem::path_traits> > >::value
PUBLIC	?value@?$is_convertible_basic_impl@AAV?$basic_directory_entry@V?$basic_path@V?$basic_string@DU?$char_traits@D@std@@V?$allocator@D@2@@std@@Upath_traits@filesystem@boost@@@filesystem@boost@@@filesystem@boost@@V123@@detail@boost@@2_NB ; boost::detail::is_convertible_basic_impl<boost::filesystem::basic_directory_entry<boost::filesystem::basic_path<std::basic_string<char,std::char_traits<char>,std::allocator<char> >,boost::filesystem::path_traits> > &,boost::filesystem::basic_directory_entry<boost::filesystem::basic_path<std::basic_string<char,std::char_traits<char>,std::allocator<char> >,boost::filesystem::path_traits> > >::value
PUBLIC	?value@?$is_convertible_impl@AAV?$basic_directory_entry@V?$basic_path@V?$basic_string@DU?$char_traits@D@std@@V?$allocator@D@2@@std@@Upath_traits@filesystem@boost@@@filesystem@boost@@@filesystem@boost@@V123@@detail@boost@@2_NB ; boost::detail::is_convertible_impl<boost::filesystem::basic_directory_entry<boost::filesystem::basic_path<std::basic_string<char,std::char_traits<char>,std::allocator<char> >,boost::filesystem::path_traits> > &,boost::filesystem::basic_directory_entry<boost::filesystem::basic_path<std::basic_string<char,std::char_traits<char>,std::allocator<char> >,boost::filesystem::path_traits> > >::value
PUBLIC	?value@?$is_convertible_basic_impl@AAUinput_iterator_tag@std@@Uincrementable_traversal_tag@boost@@@detail@boost@@2_NB ; boost::detail::is_convertible_basic_impl<std::input_iterator_tag &,boost::incrementable_traversal_tag>::value
PUBLIC	?value@?$is_convertible_impl@Uinput_iterator_tag@std@@Uincrementable_traversal_tag@boost@@@detail@boost@@2_NB ; boost::detail::is_convertible_impl<std::input_iterator_tag,boost::incrementable_traversal_tag>::value
PUBLIC	?value@?$is_convertible_basic_impl@AAUinput_iterator_tag@std@@Urandom_access_iterator_tag@2@@detail@boost@@2_NB ; boost::detail::is_convertible_basic_impl<std::input_iterator_tag &,std::random_access_iterator_tag>::value
PUBLIC	?value@?$is_convertible_impl@Uinput_iterator_tag@std@@Urandom_access_iterator_tag@2@@detail@boost@@2_NB ; boost::detail::is_convertible_impl<std::input_iterator_tag,std::random_access_iterator_tag>::value
PUBLIC	?value@?$is_convertible_basic_impl@AAUinput_iterator_tag@std@@Ubidirectional_iterator_tag@2@@detail@boost@@2_NB ; boost::detail::is_convertible_basic_impl<std::input_iterator_tag &,std::bidirectional_iterator_tag>::value
PUBLIC	?value@?$is_convertible_impl@Uinput_iterator_tag@std@@Ubidirectional_iterator_tag@2@@detail@boost@@2_NB ; boost::detail::is_convertible_impl<std::input_iterator_tag,std::bidirectional_iterator_tag>::value
PUBLIC	?value@?$is_arithmetic_impl@Uforward_iterator_tag@std@@@detail@boost@@2_NB ; boost::detail::is_arithmetic_impl<std::forward_iterator_tag>::value
PUBLIC	?value@?$is_abstract_imp@Uforward_iterator_tag@std@@@detail@boost@@2_NB ; boost::detail::is_abstract_imp<std::forward_iterator_tag>::value
PUBLIC	?value@?$is_convertible_basic_impl@AAUinput_iterator_tag@std@@Uforward_iterator_tag@2@@detail@boost@@2_NB ; boost::detail::is_convertible_basic_impl<std::input_iterator_tag &,std::forward_iterator_tag>::value
PUBLIC	?value@?$is_convertible_impl@Uinput_iterator_tag@std@@Uforward_iterator_tag@2@@detail@boost@@2_NB ; boost::detail::is_convertible_impl<std::input_iterator_tag,std::forward_iterator_tag>::value
PUBLIC	?value@?$is_convertible_basic_impl@AAUinput_iterator_tag@std@@U12@@detail@boost@@2_NB ; boost::detail::is_convertible_basic_impl<std::input_iterator_tag &,std::input_iterator_tag>::value
PUBLIC	?value@?$is_convertible_impl@Uinput_iterator_tag@std@@U12@@detail@boost@@2_NB ; boost::detail::is_convertible_impl<std::input_iterator_tag,std::input_iterator_tag>::value
PUBLIC	?is_const@?$cv_traits_imp@PAV?$basic_directory_entry@V?$basic_path@V?$basic_string@DU?$char_traits@D@std@@V?$allocator@D@2@@std@@Upath_traits@filesystem@boost@@@filesystem@boost@@@filesystem@boost@@@detail@boost@@2_NB ; boost::detail::cv_traits_imp<boost::filesystem::basic_directory_entry<boost::filesystem::basic_path<std::basic_string<char,std::char_traits<char>,std::allocator<char> >,boost::filesystem::path_traits> > *>::is_const
PUBLIC	?is_volatile@?$cv_traits_imp@PAV?$basic_directory_entry@V?$basic_path@V?$basic_string@DU?$char_traits@D@std@@V?$allocator@D@2@@std@@Upath_traits@filesystem@boost@@@filesystem@boost@@@filesystem@boost@@@detail@boost@@2_NB ; boost::detail::cv_traits_imp<boost::filesystem::basic_directory_entry<boost::filesystem::basic_path<std::basic_string<char,std::char_traits<char>,std::allocator<char> >,boost::filesystem::path_traits> > *>::is_volatile
PUBLIC	?value@?$is_pointer_helper@V?$basic_directory_entry@V?$basic_path@V?$basic_string@DU?$char_traits@D@std@@V?$allocator@D@2@@std@@Upath_traits@filesystem@boost@@@filesystem@boost@@@filesystem@boost@@@detail@boost@@2_NB ; boost::detail::is_pointer_helper<boost::filesystem::basic_directory_entry<boost::filesystem::basic_path<std::basic_string<char,std::char_traits<char>,std::allocator<char> >,boost::filesystem::path_traits> > >::value
PUBLIC	?value@?$result_@V?$basic_directory_entry@V?$basic_path@V?$basic_string@DU?$char_traits@D@std@@V?$allocator@D@2@@std@@Upath_traits@filesystem@boost@@@filesystem@boost@@@filesystem@boost@@@?$is_mem_fun_pointer_select@$0A@@detail@boost@@2_NB ; boost::detail::is_mem_fun_pointer_select<0>::result_<boost::filesystem::basic_directory_entry<boost::filesystem::basic_path<std::basic_string<char,std::char_traits<char>,std::allocator<char> >,boost::filesystem::path_traits> > >::value
PUBLIC	?value@?$is_pointer_impl@V?$basic_directory_entry@V?$basic_path@V?$basic_string@DU?$char_traits@D@std@@V?$allocator@D@2@@std@@Upath_traits@filesystem@boost@@@filesystem@boost@@@filesystem@boost@@@detail@boost@@2_NB ; boost::detail::is_pointer_impl<boost::filesystem::basic_directory_entry<boost::filesystem::basic_path<std::basic_string<char,std::char_traits<char>,std::allocator<char> >,boost::filesystem::path_traits> > >::value
PUBLIC	?value@?$is_scalar_impl@V?$basic_directory_entry@V?$basic_path@V?$basic_string@DU?$char_traits@D@std@@V?$allocator@D@2@@std@@Upath_traits@filesystem@boost@@@filesystem@boost@@@filesystem@boost@@@detail@boost@@2_NB ; boost::detail::is_scalar_impl<boost::filesystem::basic_directory_entry<boost::filesystem::basic_path<std::basic_string<char,std::char_traits<char>,std::allocator<char> >,boost::filesystem::path_traits> > >::value
PUBLIC	?value@?$is_pod_impl@V?$basic_directory_entry@V?$basic_path@V?$basic_string@DU?$char_traits@D@std@@V?$allocator@D@2@@std@@Upath_traits@filesystem@boost@@@filesystem@boost@@@filesystem@boost@@@detail@boost@@2_NB ; boost::detail::is_pod_impl<boost::filesystem::basic_directory_entry<boost::filesystem::basic_path<std::basic_string<char,std::char_traits<char>,std::allocator<char> >,boost::filesystem::path_traits> > >::value
PUBLIC	?value@?$is_arithmetic_impl@V?$basic_directory_iterator@V?$basic_path@V?$basic_string@DU?$char_traits@D@std@@V?$allocator@D@2@@std@@Upath_traits@filesystem@boost@@@filesystem@boost@@@filesystem@boost@@@detail@boost@@2_NB ; boost::detail::is_arithmetic_impl<boost::filesystem::basic_directory_iterator<boost::filesystem::basic_path<std::basic_string<char,std::char_traits<char>,std::allocator<char> >,boost::filesystem::path_traits> > >::value
PUBLIC	?value@?$is_abstract_imp@V?$basic_directory_iterator@V?$basic_path@V?$basic_string@DU?$char_traits@D@std@@V?$allocator@D@2@@std@@Upath_traits@filesystem@boost@@@filesystem@boost@@@filesystem@boost@@@detail@boost@@2_NB ; boost::detail::is_abstract_imp<boost::filesystem::basic_directory_iterator<boost::filesystem::basic_path<std::basic_string<char,std::char_traits<char>,std::allocator<char> >,boost::filesystem::path_traits> > >::value
PUBLIC	?value@?$is_convertible_basic_impl@AAV?$basic_directory_iterator@V?$basic_path@V?$basic_string@DU?$char_traits@D@std@@V?$allocator@D@2@@std@@Upath_traits@filesystem@boost@@@filesystem@boost@@@filesystem@boost@@V123@@detail@boost@@2_NB ; boost::detail::is_convertible_basic_impl<boost::filesystem::basic_directory_iterator<boost::filesystem::basic_path<std::basic_string<char,std::char_traits<char>,std::allocator<char> >,boost::filesystem::path_traits> > &,boost::filesystem::basic_directory_iterator<boost::filesystem::basic_path<std::basic_string<char,std::char_traits<char>,std::allocator<char> >,boost::filesystem::path_traits> > >::value
PUBLIC	?value@?$is_convertible_impl@V?$basic_directory_iterator@V?$basic_path@V?$basic_string@DU?$char_traits@D@std@@V?$allocator@D@2@@std@@Upath_traits@filesystem@boost@@@filesystem@boost@@@filesystem@boost@@V123@@detail@boost@@2_NB ; boost::detail::is_convertible_impl<boost::filesystem::basic_directory_iterator<boost::filesystem::basic_path<std::basic_string<char,std::char_traits<char>,std::allocator<char> >,boost::filesystem::path_traits> >,boost::filesystem::basic_directory_iterator<boost::filesystem::basic_path<std::basic_string<char,std::char_traits<char>,std::allocator<char> >,boost::filesystem::path_traits> > >::value
PUBLIC	?mpl_assertion_in_line_10@?$facade_iterator_category_impl@Usingle_pass_traversal_tag@boost@@V?$basic_directory_entry@V?$basic_path@V?$basic_string@_WU?$char_traits@_W@std@@V?$allocator@_W@2@@std@@Uwpath_traits@filesystem@boost@@@filesystem@boost@@@filesystem@2@AAV342@@detail@boost@@2IB ; boost::detail::facade_iterator_category_impl<boost::single_pass_traversal_tag,boost::filesystem::basic_directory_entry<boost::filesystem::basic_path<std::basic_string<wchar_t,std::char_traits<wchar_t>,std::allocator<wchar_t> >,boost::filesystem::wpath_traits> >,boost::filesystem::basic_directory_entry<boost::filesystem::basic_path<std::basic_string<wchar_t,std::char_traits<wchar_t>,std::allocator<wchar_t> >,boost::filesystem::wpath_traits> > &>::mpl_assertion_in_line_10
PUBLIC	?value@?$is_arithmetic_impl@AAV?$basic_directory_entry@V?$basic_path@V?$basic_string@_WU?$char_traits@_W@std@@V?$allocator@_W@2@@std@@Uwpath_traits@filesystem@boost@@@filesystem@boost@@@filesystem@boost@@@detail@boost@@2_NB ; boost::detail::is_arithmetic_impl<boost::filesystem::basic_directory_entry<boost::filesystem::basic_path<std::basic_string<wchar_t,std::char_traits<wchar_t>,std::allocator<wchar_t> >,boost::filesystem::wpath_traits> > &>::value
PUBLIC	?value@?$is_arithmetic_impl@V?$basic_directory_entry@V?$basic_path@V?$basic_string@_WU?$char_traits@_W@std@@V?$allocator@_W@2@@std@@Uwpath_traits@filesystem@boost@@@filesystem@boost@@@filesystem@boost@@@detail@boost@@2_NB ; boost::detail::is_arithmetic_impl<boost::filesystem::basic_directory_entry<boost::filesystem::basic_path<std::basic_string<wchar_t,std::char_traits<wchar_t>,std::allocator<wchar_t> >,boost::filesystem::wpath_traits> > >::value
PUBLIC	?value@?$is_abstract_imp@V?$basic_directory_entry@V?$basic_path@V?$basic_string@_WU?$char_traits@_W@std@@V?$allocator@_W@2@@std@@Uwpath_traits@filesystem@boost@@@filesystem@boost@@@filesystem@boost@@@detail@boost@@2_NB ; boost::detail::is_abstract_imp<boost::filesystem::basic_directory_entry<boost::filesystem::basic_path<std::basic_string<wchar_t,std::char_traits<wchar_t>,std::allocator<wchar_t> >,boost::filesystem::wpath_traits> > >::value
PUBLIC	?value@?$is_convertible_basic_impl@AAV?$basic_directory_entry@V?$basic_path@V?$basic_string@_WU?$char_traits@_W@std@@V?$allocator@_W@2@@std@@Uwpath_traits@filesystem@boost@@@filesystem@boost@@@filesystem@boost@@V123@@detail@boost@@2_NB ; boost::detail::is_convertible_basic_impl<boost::filesystem::basic_directory_entry<boost::filesystem::basic_path<std::basic_string<wchar_t,std::char_traits<wchar_t>,std::allocator<wchar_t> >,boost::filesystem::wpath_traits> > &,boost::filesystem::basic_directory_entry<boost::filesystem::basic_path<std::basic_string<wchar_t,std::char_traits<wchar_t>,std::allocator<wchar_t> >,boost::filesystem::wpath_traits> > >::value
PUBLIC	?value@?$is_convertible_impl@AAV?$basic_directory_entry@V?$basic_path@V?$basic_string@_WU?$char_traits@_W@std@@V?$allocator@_W@2@@std@@Uwpath_traits@filesystem@boost@@@filesystem@boost@@@filesystem@boost@@V123@@detail@boost@@2_NB ; boost::detail::is_convertible_impl<boost::filesystem::basic_directory_entry<boost::filesystem::basic_path<std::basic_string<wchar_t,std::char_traits<wchar_t>,std::allocator<wchar_t> >,boost::filesystem::wpath_traits> > &,boost::filesystem::basic_directory_entry<boost::filesystem::basic_path<std::basic_string<wchar_t,std::char_traits<wchar_t>,std::allocator<wchar_t> >,boost::filesystem::wpath_traits> > >::value
PUBLIC	?is_const@?$cv_traits_imp@PAV?$basic_directory_entry@V?$basic_path@V?$basic_string@_WU?$char_traits@_W@std@@V?$allocator@_W@2@@std@@Uwpath_traits@filesystem@boost@@@filesystem@boost@@@filesystem@boost@@@detail@boost@@2_NB ; boost::detail::cv_traits_imp<boost::filesystem::basic_directory_entry<boost::filesystem::basic_path<std::basic_string<wchar_t,std::char_traits<wchar_t>,std::allocator<wchar_t> >,boost::filesystem::wpath_traits> > *>::is_const
PUBLIC	?is_volatile@?$cv_traits_imp@PAV?$basic_directory_entry@V?$basic_path@V?$basic_string@_WU?$char_traits@_W@std@@V?$allocator@_W@2@@std@@Uwpath_traits@filesystem@boost@@@filesystem@boost@@@filesystem@boost@@@detail@boost@@2_NB ; boost::detail::cv_traits_imp<boost::filesystem::basic_directory_entry<boost::filesystem::basic_path<std::basic_string<wchar_t,std::char_traits<wchar_t>,std::allocator<wchar_t> >,boost::filesystem::wpath_traits> > *>::is_volatile
PUBLIC	?value@?$is_pointer_helper@V?$basic_directory_entry@V?$basic_path@V?$basic_string@_WU?$char_traits@_W@std@@V?$allocator@_W@2@@std@@Uwpath_traits@filesystem@boost@@@filesystem@boost@@@filesystem@boost@@@detail@boost@@2_NB ; boost::detail::is_pointer_helper<boost::filesystem::basic_directory_entry<boost::filesystem::basic_path<std::basic_string<wchar_t,std::char_traits<wchar_t>,std::allocator<wchar_t> >,boost::filesystem::wpath_traits> > >::value
PUBLIC	?value@?$result_@V?$basic_directory_entry@V?$basic_path@V?$basic_string@_WU?$char_traits@_W@std@@V?$allocator@_W@2@@std@@Uwpath_traits@filesystem@boost@@@filesystem@boost@@@filesystem@boost@@@?$is_mem_fun_pointer_select@$0A@@detail@boost@@2_NB ; boost::detail::is_mem_fun_pointer_select<0>::result_<boost::filesystem::basic_directory_entry<boost::filesystem::basic_path<std::basic_string<wchar_t,std::char_traits<wchar_t>,std::allocator<wchar_t> >,boost::filesystem::wpath_traits> > >::value
PUBLIC	?value@?$is_pointer_impl@V?$basic_directory_entry@V?$basic_path@V?$basic_string@_WU?$char_traits@_W@std@@V?$allocator@_W@2@@std@@Uwpath_traits@filesystem@boost@@@filesystem@boost@@@filesystem@boost@@@detail@boost@@2_NB ; boost::detail::is_pointer_impl<boost::filesystem::basic_directory_entry<boost::filesystem::basic_path<std::basic_string<wchar_t,std::char_traits<wchar_t>,std::allocator<wchar_t> >,boost::filesystem::wpath_traits> > >::value
PUBLIC	?value@?$is_scalar_impl@V?$basic_directory_entry@V?$basic_path@V?$basic_string@_WU?$char_traits@_W@std@@V?$allocator@_W@2@@std@@Uwpath_traits@filesystem@boost@@@filesystem@boost@@@filesystem@boost@@@detail@boost@@2_NB ; boost::detail::is_scalar_impl<boost::filesystem::basic_directory_entry<boost::filesystem::basic_path<std::basic_string<wchar_t,std::char_traits<wchar_t>,std::allocator<wchar_t> >,boost::filesystem::wpath_traits> > >::value
PUBLIC	?value@?$is_pod_impl@V?$basic_directory_entry@V?$basic_path@V?$basic_string@_WU?$char_traits@_W@std@@V?$allocator@_W@2@@std@@Uwpath_traits@filesystem@boost@@@filesystem@boost@@@filesystem@boost@@@detail@boost@@2_NB ; boost::detail::is_pod_impl<boost::filesystem::basic_directory_entry<boost::filesystem::basic_path<std::basic_string<wchar_t,std::char_traits<wchar_t>,std::allocator<wchar_t> >,boost::filesystem::wpath_traits> > >::value
PUBLIC	?value@?$is_arithmetic_impl@V?$basic_directory_iterator@V?$basic_path@V?$basic_string@_WU?$char_traits@_W@std@@V?$allocator@_W@2@@std@@Uwpath_traits@filesystem@boost@@@filesystem@boost@@@filesystem@boost@@@detail@boost@@2_NB ; boost::detail::is_arithmetic_impl<boost::filesystem::basic_directory_iterator<boost::filesystem::basic_path<std::basic_string<wchar_t,std::char_traits<wchar_t>,std::allocator<wchar_t> >,boost::filesystem::wpath_traits> > >::value
PUBLIC	?value@?$is_abstract_imp@V?$basic_directory_iterator@V?$basic_path@V?$basic_string@_WU?$char_traits@_W@std@@V?$allocator@_W@2@@std@@Uwpath_traits@filesystem@boost@@@filesystem@boost@@@filesystem@boost@@@detail@boost@@2_NB ; boost::detail::is_abstract_imp<boost::filesystem::basic_directory_iterator<boost::filesystem::basic_path<std::basic_string<wchar_t,std::char_traits<wchar_t>,std::allocator<wchar_t> >,boost::filesystem::wpath_traits> > >::value
PUBLIC	?value@?$is_convertible_basic_impl@AAV?$basic_directory_iterator@V?$basic_path@V?$basic_string@_WU?$char_traits@_W@std@@V?$allocator@_W@2@@std@@Uwpath_traits@filesystem@boost@@@filesystem@boost@@@filesystem@boost@@V123@@detail@boost@@2_NB ; boost::detail::is_convertible_basic_impl<boost::filesystem::basic_directory_iterator<boost::filesystem::basic_path<std::basic_string<wchar_t,std::char_traits<wchar_t>,std::allocator<wchar_t> >,boost::filesystem::wpath_traits> > &,boost::filesystem::basic_directory_iterator<boost::filesystem::basic_path<std::basic_string<wchar_t,std::char_traits<wchar_t>,std::allocator<wchar_t> >,boost::filesystem::wpath_traits> > >::value
PUBLIC	?value@?$is_convertible_impl@V?$basic_directory_iterator@V?$basic_path@V?$basic_string@_WU?$char_traits@_W@std@@V?$allocator@_W@2@@std@@Uwpath_traits@filesystem@boost@@@filesystem@boost@@@filesystem@boost@@V123@@detail@boost@@2_NB ; boost::detail::is_convertible_impl<boost::filesystem::basic_directory_iterator<boost::filesystem::basic_path<std::basic_string<wchar_t,std::char_traits<wchar_t>,std::allocator<wchar_t> >,boost::filesystem::wpath_traits> >,boost::filesystem::basic_directory_iterator<boost::filesystem::basic_path<std::basic_string<wchar_t,std::char_traits<wchar_t>,std::allocator<wchar_t> >,boost::filesystem::wpath_traits> > >::value
PUBLIC	?is_const@?$cv_traits_imp@PBV?$iterator_range@V?$_String_iterator@DU?$char_traits@D@std@@V?$allocator@D@2@@std@@@boost@@@detail@boost@@2_NB ; boost::detail::cv_traits_imp<boost::iterator_range<std::_String_iterator<char,std::char_traits<char>,std::allocator<char> > > const *>::is_const
PUBLIC	?is_volatile@?$cv_traits_imp@PBV?$iterator_range@V?$_String_iterator@DU?$char_traits@D@std@@V?$allocator@D@2@@std@@@boost@@@detail@boost@@2_NB ; boost::detail::cv_traits_imp<boost::iterator_range<std::_String_iterator<char,std::char_traits<char>,std::allocator<char> > > const *>::is_volatile
PUBLIC	?value@?$is_convertible_impl@Ucategory@?$filtering_stream@Uinput@iostreams@boost@@DU?$char_traits@D@std@@V?$allocator@D@5@Upublic_@23@@iostreams@boost@@Uoutput@34@@detail@boost@@2_NB ; boost::detail::is_convertible_impl<boost::iostreams::filtering_stream<boost::iostreams::input,char,std::char_traits<char>,std::allocator<char>,boost::iostreams::public_>::category,boost::iostreams::output>::value
PUBLIC	?value@?$is_convertible_basic_impl@AAUcategory@?$filtering_stream@Uinput@iostreams@boost@@DU?$char_traits@D@std@@V?$allocator@D@5@Upublic_@23@@iostreams@boost@@Uoutput@34@@detail@boost@@2_NB ; boost::detail::is_convertible_basic_impl<boost::iostreams::filtering_stream<boost::iostreams::input,char,std::char_traits<char>,std::allocator<char>,boost::iostreams::public_>::category &,boost::iostreams::output>::value
PUBLIC	?value@?$is_convertible_impl@Ucategory@?$filtering_stream@Uinput@iostreams@boost@@DU?$char_traits@D@std@@V?$allocator@D@5@Upublic_@23@@iostreams@boost@@Uinput@34@@detail@boost@@2_NB ; boost::detail::is_convertible_impl<boost::iostreams::filtering_stream<boost::iostreams::input,char,std::char_traits<char>,std::allocator<char>,boost::iostreams::public_>::category,boost::iostreams::input>::value
PUBLIC	?value@?$is_convertible_basic_impl@AAUcategory@?$filtering_stream@Uinput@iostreams@boost@@DU?$char_traits@D@std@@V?$allocator@D@5@Upublic_@23@@iostreams@boost@@Uinput@34@@detail@boost@@2_NB ; boost::detail::is_convertible_basic_impl<boost::iostreams::filtering_stream<boost::iostreams::input,char,std::char_traits<char>,std::allocator<char>,boost::iostreams::public_>::category &,boost::iostreams::input>::value
PUBLIC	?is_const@?$cv_traits_imp@PAK@detail@boost@@2_NB ; boost::detail::cv_traits_imp<unsigned long *>::is_const
PUBLIC	?is_volatile@?$cv_traits_imp@PAK@detail@boost@@2_NB ; boost::detail::cv_traits_imp<unsigned long *>::is_volatile
PUBLIC	?value@?$is_ununsigned_helper@K@detail@boost@@2_NB ; boost::detail::is_ununsigned_helper<unsigned long>::value
PUBLIC	?value@?$is_unsigned_imp@K@detail@boost@@2_NB	; boost::detail::is_unsigned_imp<unsigned long>::value
PUBLIC	?value@?$is_unsigned_imp@I@detail@boost@@2_NB	; boost::detail::is_unsigned_imp<unsigned int>::value
PUBLIC	?value@?$is_ununsigned_helper@I@detail@boost@@2_NB ; boost::detail::is_ununsigned_helper<unsigned int>::value
PUBLIC	?is_volatile@?$cv_traits_imp@PAI@detail@boost@@2_NB ; boost::detail::cv_traits_imp<unsigned int *>::is_volatile
PUBLIC	?is_const@?$cv_traits_imp@PAI@detail@boost@@2_NB ; boost::detail::cv_traits_imp<unsigned int *>::is_const
PUBLIC	?value@?$is_error_code_enum@V?$basic_filesystem_error@V?$basic_path@V?$basic_string@DU?$char_traits@D@std@@V?$allocator@D@2@@std@@Upath_traits@filesystem@boost@@@filesystem@boost@@@filesystem@boost@@@system@boost@@2_NB ; boost::system::is_error_code_enum<boost::filesystem::basic_filesystem_error<boost::filesystem::basic_path<std::basic_string<char,std::char_traits<char>,std::allocator<char> >,boost::filesystem::path_traits> > >::value
PUBLIC	?value@?$is_error_code_enum@V?$basic_filesystem_error@V?$basic_path@V?$basic_string@_WU?$char_traits@_W@std@@V?$allocator@_W@2@@std@@Uwpath_traits@filesystem@boost@@@filesystem@boost@@@filesystem@boost@@@system@boost@@2_NB ; boost::system::is_error_code_enum<boost::filesystem::basic_filesystem_error<boost::filesystem::basic_path<std::basic_string<wchar_t,std::char_traits<wchar_t>,std::allocator<wchar_t> >,boost::filesystem::wpath_traits> > >::value
PUBLIC	?value@?$impl@V?$basic_null_device@DUinput@iostreams@boost@@@iostreams@boost@@@is_istream_impl_@iostreams@boost@@2_NB ; boost::iostreams::is_istream_impl_::impl<boost::iostreams::basic_null_device<char,boost::iostreams::input> >::value
PUBLIC	?value@?$impl@V?$basic_null_device@DUinput@iostreams@boost@@@iostreams@boost@@@is_ostream_impl_@iostreams@boost@@2_NB ; boost::iostreams::is_ostream_impl_::impl<boost::iostreams::basic_null_device<char,boost::iostreams::input> >::value
PUBLIC	?value@?$impl@V?$basic_null_device@DUinput@iostreams@boost@@@iostreams@boost@@@is_streambuf_impl_@iostreams@boost@@2_NB ; boost::iostreams::is_streambuf_impl_::impl<boost::iostreams::basic_null_device<char,boost::iostreams::input> >::value
PUBLIC	?boost_select_by_size_temp_value@?$io_mode_id@V?$basic_null_device@DUinput@iostreams@boost@@@iostreams@boost@@@detail@iostreams@boost@@2IB ; boost::iostreams::detail::io_mode_id<boost::iostreams::basic_null_device<char,boost::iostreams::input> >::boost_select_by_size_temp_value
PUBLIC	?value@?$io_mode_id@V?$basic_null_device@DUinput@iostreams@boost@@@iostreams@boost@@@detail@iostreams@boost@@2HB ; boost::iostreams::detail::io_mode_id<boost::iostreams::basic_null_device<char,boost::iostreams::input> >::value
PUBLIC	?value@?$is_arithmetic_impl@Ucategory@?$basic_null_device@DUinput@iostreams@boost@@@iostreams@boost@@@detail@boost@@2_NB ; boost::detail::is_arithmetic_impl<boost::iostreams::basic_null_device<char,boost::iostreams::input>::category>::value
PUBLIC	?value@?$is_arithmetic_impl@Udirect_tag@iostreams@boost@@@detail@boost@@2_NB ; boost::detail::is_arithmetic_impl<boost::iostreams::direct_tag>::value
PUBLIC	?value@?$is_abstract_imp@Udirect_tag@iostreams@boost@@@detail@boost@@2_NB ; boost::detail::is_abstract_imp<boost::iostreams::direct_tag>::value
PUBLIC	?value@?$is_convertible_basic_impl@AAUcategory@?$basic_null_device@DUinput@iostreams@boost@@@iostreams@boost@@Udirect_tag@34@@detail@boost@@2_NB ; boost::detail::is_convertible_basic_impl<boost::iostreams::basic_null_device<char,boost::iostreams::input>::category &,boost::iostreams::direct_tag>::value
PUBLIC	?value@?$is_convertible_impl@Ucategory@?$basic_null_device@DUinput@iostreams@boost@@@iostreams@boost@@Udirect_tag@34@@detail@boost@@2_NB ; boost::detail::is_convertible_impl<boost::iostreams::basic_null_device<char,boost::iostreams::input>::category,boost::iostreams::direct_tag>::value
PUBLIC	?value@?$is_convertible_basic_impl@AAUcategory@?$basic_null_device@DUinput@iostreams@boost@@@iostreams@boost@@Uinput@34@@detail@boost@@2_NB ; boost::detail::is_convertible_basic_impl<boost::iostreams::basic_null_device<char,boost::iostreams::input>::category &,boost::iostreams::input>::value
PUBLIC	?value@?$is_convertible_impl@Ucategory@?$basic_null_device@DUinput@iostreams@boost@@@iostreams@boost@@Uinput@34@@detail@boost@@2_NB ; boost::detail::is_convertible_impl<boost::iostreams::basic_null_device<char,boost::iostreams::input>::category,boost::iostreams::input>::value
PUBLIC	?value@?$is_convertible_basic_impl@AAUcategory@?$basic_null_device@DUinput@iostreams@boost@@@iostreams@boost@@Uoutput@34@@detail@boost@@2_NB ; boost::detail::is_convertible_basic_impl<boost::iostreams::basic_null_device<char,boost::iostreams::input>::category &,boost::iostreams::output>::value
PUBLIC	?value@?$is_convertible_impl@Ucategory@?$basic_null_device@DUinput@iostreams@boost@@@iostreams@boost@@Uoutput@34@@detail@boost@@2_NB ; boost::detail::is_convertible_impl<boost::iostreams::basic_null_device<char,boost::iostreams::input>::category,boost::iostreams::output>::value
PUBLIC	?value@?$is_arithmetic_impl@Udevice_tag@iostreams@boost@@@detail@boost@@2_NB ; boost::detail::is_arithmetic_impl<boost::iostreams::device_tag>::value
PUBLIC	?value@?$is_abstract_imp@Udevice_tag@iostreams@boost@@@detail@boost@@2_NB ; boost::detail::is_abstract_imp<boost::iostreams::device_tag>::value
PUBLIC	?value@?$is_convertible_basic_impl@AAUcategory@?$basic_null_device@DUinput@iostreams@boost@@@iostreams@boost@@Udevice_tag@34@@detail@boost@@2_NB ; boost::detail::is_convertible_basic_impl<boost::iostreams::basic_null_device<char,boost::iostreams::input>::category &,boost::iostreams::device_tag>::value
PUBLIC	?value@?$is_convertible_impl@Ucategory@?$basic_null_device@DUinput@iostreams@boost@@@iostreams@boost@@Udevice_tag@34@@detail@boost@@2_NB ; boost::detail::is_convertible_impl<boost::iostreams::basic_null_device<char,boost::iostreams::input>::category,boost::iostreams::device_tag>::value
PUBLIC	?value@?$has_trait_impl@V?$basic_null_device@DUinput@iostreams@boost@@@iostreams@boost@@Udevice_tag@23@@detail@iostreams@boost@@2_NB ; boost::iostreams::detail::has_trait_impl<boost::iostreams::basic_null_device<char,boost::iostreams::input>,boost::iostreams::device_tag>::value
PUBLIC	?value@?$alignment_of_impl@V?$concept_adapter@V?$basic_null_device@DUinput@iostreams@boost@@@iostreams@boost@@@detail@iostreams@boost@@@detail@boost@@2IB ; boost::detail::alignment_of_impl<boost::iostreams::detail::concept_adapter<boost::iostreams::basic_null_device<char,boost::iostreams::input> > >::value
PUBLIC	?value@?$alignment_of_impl@T?$lower_alignment@$00@detail@boost@@@detail@boost@@2IB ; boost::detail::alignment_of_impl<boost::detail::lower_alignment<1> >::value
PUBLIC	?value@?$is_aligned@$00$00@detail@boost@@2_NB	; boost::detail::is_aligned<1,1>::value
PUBLIC	?found@?$type_with_alignment_imp@$00@detail@boost@@0IB ; boost::detail::type_with_alignment_imp<1>::found
PUBLIC	?value@?$is_arithmetic_impl@Utwo_sequence@detail@iostreams@boost@@@detail@boost@@2_NB ; boost::detail::is_arithmetic_impl<boost::iostreams::detail::two_sequence>::value
PUBLIC	?value@?$is_abstract_imp@Utwo_sequence@detail@iostreams@boost@@@detail@boost@@2_NB ; boost::detail::is_abstract_imp<boost::iostreams::detail::two_sequence>::value
PUBLIC	?value@?$is_convertible_basic_impl@AAUinput@iostreams@boost@@Utwo_sequence@detail@23@@detail@boost@@2_NB ; boost::detail::is_convertible_basic_impl<boost::iostreams::input &,boost::iostreams::detail::two_sequence>::value
PUBLIC	?value@?$is_convertible_impl@Uinput@iostreams@boost@@Utwo_sequence@detail@23@@detail@boost@@2_NB ; boost::detail::is_convertible_impl<boost::iostreams::input,boost::iostreams::detail::two_sequence>::value
PUBLIC	?is_const@?$cv_traits_imp@PAV?$basic_buffer@DV?$allocator@D@std@@@detail@iostreams@boost@@@detail@boost@@2_NB ; boost::detail::cv_traits_imp<boost::iostreams::detail::basic_buffer<char,std::allocator<char> > *>::is_const
PUBLIC	?is_volatile@?$cv_traits_imp@PAV?$basic_buffer@DV?$allocator@D@std@@@detail@iostreams@boost@@@detail@boost@@2_NB ; boost::detail::cv_traits_imp<boost::iostreams::detail::basic_buffer<char,std::allocator<char> > *>::is_volatile
PUBLIC	?value@?$is_pointer_helper@V?$basic_buffer@DV?$allocator@D@std@@@detail@iostreams@boost@@@detail@boost@@2_NB ; boost::detail::is_pointer_helper<boost::iostreams::detail::basic_buffer<char,std::allocator<char> > >::value
PUBLIC	?value@?$result_@V?$basic_buffer@DV?$allocator@D@std@@@detail@iostreams@boost@@@?$is_mem_fun_pointer_select@$0A@@detail@boost@@2_NB ; boost::detail::is_mem_fun_pointer_select<0>::result_<boost::iostreams::detail::basic_buffer<char,std::allocator<char> > >::value
PUBLIC	?value@?$is_pointer_impl@V?$basic_buffer@DV?$allocator@D@std@@@detail@iostreams@boost@@@detail@boost@@2_NB ; boost::detail::is_pointer_impl<boost::iostreams::detail::basic_buffer<char,std::allocator<char> > >::value
PUBLIC	?value@?$is_arithmetic_impl@V?$basic_buffer@DV?$allocator@D@std@@@detail@iostreams@boost@@@detail@boost@@2_NB ; boost::detail::is_arithmetic_impl<boost::iostreams::detail::basic_buffer<char,std::allocator<char> > >::value
PUBLIC	?value@?$impl@$$CBV?$basic_null_device@DUinput@iostreams@boost@@@iostreams@boost@@@is_istream_impl_@iostreams@boost@@2_NB ; boost::iostreams::is_istream_impl_::impl<boost::iostreams::basic_null_device<char,boost::iostreams::input> const >::value
PUBLIC	?value@?$impl@$$CBV?$basic_null_device@DUinput@iostreams@boost@@@iostreams@boost@@@is_ostream_impl_@iostreams@boost@@2_NB ; boost::iostreams::is_ostream_impl_::impl<boost::iostreams::basic_null_device<char,boost::iostreams::input> const >::value
PUBLIC	?value@?$impl@$$CBV?$basic_null_device@DUinput@iostreams@boost@@@iostreams@boost@@@is_streambuf_impl_@iostreams@boost@@2_NB ; boost::iostreams::is_streambuf_impl_::impl<boost::iostreams::basic_null_device<char,boost::iostreams::input> const >::value
PUBLIC	?value@?$dot@V?$basic_path@V?$basic_string@DU?$char_traits@D@std@@V?$allocator@D@2@@std@@Upath_traits@filesystem@boost@@@filesystem@boost@@@filesystem@boost@@2DB ; boost::filesystem::dot<boost::filesystem::basic_path<std::basic_string<char,std::char_traits<char>,std::allocator<char> >,boost::filesystem::path_traits> >::value
PUBLIC	?value@?$is_arithmetic_impl@Ucategory@?$basic_file_source@D@iostreams@boost@@@detail@boost@@2_NB ; boost::detail::is_arithmetic_impl<boost::iostreams::basic_file_source<char>::category>::value
PUBLIC	?value@?$is_convertible_basic_impl@AAUcategory@?$basic_file_source@D@iostreams@boost@@Uinput@34@@detail@boost@@2_NB ; boost::detail::is_convertible_basic_impl<boost::iostreams::basic_file_source<char>::category &,boost::iostreams::input>::value
PUBLIC	?value@?$is_convertible_impl@Ucategory@?$basic_file_source@D@iostreams@boost@@Uinput@34@@detail@boost@@2_NB ; boost::detail::is_convertible_impl<boost::iostreams::basic_file_source<char>::category,boost::iostreams::input>::value
PUBLIC	?value@?$is_convertible_basic_impl@AAUcategory@?$basic_file_source@D@iostreams@boost@@Udirect_tag@34@@detail@boost@@2_NB ; boost::detail::is_convertible_basic_impl<boost::iostreams::basic_file_source<char>::category &,boost::iostreams::direct_tag>::value
PUBLIC	?value@?$is_convertible_impl@Ucategory@?$basic_file_source@D@iostreams@boost@@Udirect_tag@34@@detail@boost@@2_NB ; boost::detail::is_convertible_impl<boost::iostreams::basic_file_source<char>::category,boost::iostreams::direct_tag>::value
PUBLIC	?value@?$is_convertible_basic_impl@AAUcategory@?$basic_file_source@D@iostreams@boost@@Uoutput@34@@detail@boost@@2_NB ; boost::detail::is_convertible_basic_impl<boost::iostreams::basic_file_source<char>::category &,boost::iostreams::output>::value
PUBLIC	?value@?$is_convertible_impl@Ucategory@?$basic_file_source@D@iostreams@boost@@Uoutput@34@@detail@boost@@2_NB ; boost::detail::is_convertible_impl<boost::iostreams::basic_file_source<char>::category,boost::iostreams::output>::value
PUBLIC	?value@?$is_convertible_basic_impl@AAUcategory@?$basic_file_source@D@iostreams@boost@@Udevice_tag@34@@detail@boost@@2_NB ; boost::detail::is_convertible_basic_impl<boost::iostreams::basic_file_source<char>::category &,boost::iostreams::device_tag>::value
PUBLIC	?value@?$is_convertible_impl@Ucategory@?$basic_file_source@D@iostreams@boost@@Udevice_tag@34@@detail@boost@@2_NB ; boost::detail::is_convertible_impl<boost::iostreams::basic_file_source<char>::category,boost::iostreams::device_tag>::value
PUBLIC	?value@?$has_trait_impl@U?$basic_file_source@D@iostreams@boost@@Udevice_tag@23@@detail@iostreams@boost@@2_NB ; boost::iostreams::detail::has_trait_impl<boost::iostreams::basic_file_source<char>,boost::iostreams::device_tag>::value
PUBLIC	?value@?$alignment_of_impl@V?$concept_adapter@U?$basic_file_source@D@iostreams@boost@@@detail@iostreams@boost@@@detail@boost@@2IB ; boost::detail::alignment_of_impl<boost::iostreams::detail::concept_adapter<boost::iostreams::basic_file_source<char> > >::value
PUBLIC	?value@?$alignment_of_impl@T?$lower_alignment@$03@detail@boost@@@detail@boost@@2IB ; boost::detail::alignment_of_impl<boost::detail::lower_alignment<4> >::value
PUBLIC	?value@?$is_aligned@$03$03@detail@boost@@2_NB	; boost::detail::is_aligned<4,4>::value
PUBLIC	?found@?$type_with_alignment_imp@$03@detail@boost@@0IB ; boost::detail::type_with_alignment_imp<4>::found
PUBLIC	?is_const@?$cv_traits_imp@PAUtracking_type@archive@boost@@@detail@boost@@2_NB ; boost::detail::cv_traits_imp<boost::archive::tracking_type *>::is_const
PUBLIC	?is_volatile@?$cv_traits_imp@PAUtracking_type@archive@boost@@@detail@boost@@2_NB ; boost::detail::cv_traits_imp<boost::archive::tracking_type *>::is_volatile
PUBLIC	?value@?$is_pointer_helper@Utracking_type@archive@boost@@@detail@boost@@2_NB ; boost::detail::is_pointer_helper<boost::archive::tracking_type>::value
PUBLIC	?value@?$result_@Utracking_type@archive@boost@@@?$is_mem_fun_pointer_select@$0A@@detail@boost@@2_NB ; boost::detail::is_mem_fun_pointer_select<0>::result_<boost::archive::tracking_type>::value
PUBLIC	?value@?$is_pointer_impl@Utracking_type@archive@boost@@@detail@boost@@2_NB ; boost::detail::is_pointer_impl<boost::archive::tracking_type>::value
PUBLIC	?value@?$has_result_type_impl_@V?$member_close_operation@V?$linked_streambuf@DU?$char_traits@D@std@@@detail@iostreams@boost@@@detail@iostreams@boost@@X@detail@boost@@2_NB ; boost::detail::has_result_type_impl_<boost::iostreams::detail::member_close_operation<boost::iostreams::detail::linked_streambuf<char,std::char_traits<char> > >,void>::value
PUBLIC	?value@?$is_arithmetic_impl@Udual_use@iostreams@boost@@@detail@boost@@2_NB ; boost::detail::is_arithmetic_impl<boost::iostreams::dual_use>::value
PUBLIC	?value@?$is_abstract_imp@Udual_use@iostreams@boost@@@detail@boost@@2_NB ; boost::detail::is_abstract_imp<boost::iostreams::dual_use>::value
PUBLIC	?value@?$is_convertible_basic_impl@AAUcategory@?$basic_null_device@DUinput@iostreams@boost@@@iostreams@boost@@Udual_use@34@@detail@boost@@2_NB ; boost::detail::is_convertible_basic_impl<boost::iostreams::basic_null_device<char,boost::iostreams::input>::category &,boost::iostreams::dual_use>::value
PUBLIC	?value@?$is_convertible_impl@Ucategory@?$basic_null_device@DUinput@iostreams@boost@@@iostreams@boost@@Udual_use@34@@detail@boost@@2_NB ; boost::detail::is_convertible_impl<boost::iostreams::basic_null_device<char,boost::iostreams::input>::category,boost::iostreams::dual_use>::value
PUBLIC	?value@?$is_arithmetic_impl@Useekable@iostreams@boost@@@detail@boost@@2_NB ; boost::detail::is_arithmetic_impl<boost::iostreams::seekable>::value
PUBLIC	?value@?$is_abstract_imp@Useekable@iostreams@boost@@@detail@boost@@2_NB ; boost::detail::is_abstract_imp<boost::iostreams::seekable>::value
PUBLIC	?value@?$is_convertible_basic_impl@AAUinput@iostreams@boost@@Useekable@23@@detail@boost@@2_NB ; boost::detail::is_convertible_basic_impl<boost::iostreams::input &,boost::iostreams::seekable>::value
PUBLIC	?value@?$is_convertible_impl@Uinput@iostreams@boost@@Useekable@23@@detail@boost@@2_NB ; boost::detail::is_convertible_impl<boost::iostreams::input,boost::iostreams::seekable>::value
PUBLIC	?value@?$impl@$$CBU?$basic_file_source@D@iostreams@boost@@@is_istream_impl_@iostreams@boost@@2_NB ; boost::iostreams::is_istream_impl_::impl<boost::iostreams::basic_file_source<char> const >::value
PUBLIC	?value@?$impl@$$CBU?$basic_file_source@D@iostreams@boost@@@is_ostream_impl_@iostreams@boost@@2_NB ; boost::iostreams::is_ostream_impl_::impl<boost::iostreams::basic_file_source<char> const >::value
PUBLIC	?value@?$impl@$$CBU?$basic_file_source@D@iostreams@boost@@@is_streambuf_impl_@iostreams@boost@@2_NB ; boost::iostreams::is_streambuf_impl_::impl<boost::iostreams::basic_file_source<char> const >::value
PUBLIC	?value@?$is_arithmetic_impl@Uoptimally_buffered_tag@iostreams@boost@@@detail@boost@@2_NB ; boost::detail::is_arithmetic_impl<boost::iostreams::optimally_buffered_tag>::value
PUBLIC	?value@?$is_abstract_imp@Uoptimally_buffered_tag@iostreams@boost@@@detail@boost@@2_NB ; boost::detail::is_abstract_imp<boost::iostreams::optimally_buffered_tag>::value
PUBLIC	?value@?$is_convertible_basic_impl@AAUcategory@?$basic_file_source@D@iostreams@boost@@Uoptimally_buffered_tag@34@@detail@boost@@2_NB ; boost::detail::is_convertible_basic_impl<boost::iostreams::basic_file_source<char>::category &,boost::iostreams::optimally_buffered_tag>::value
PUBLIC	?value@?$is_convertible_impl@Ucategory@?$basic_file_source@D@iostreams@boost@@Uoptimally_buffered_tag@34@@detail@boost@@2_NB ; boost::detail::is_convertible_impl<boost::iostreams::basic_file_source<char>::category,boost::iostreams::optimally_buffered_tag>::value
PUBLIC	?value@?$is_base_and_derived_impl@Ucustom_tag@detail@iostreams@boost@@U?$operations@U?$basic_file_source@D@iostreams@boost@@@34@@detail@boost@@2_NB ; boost::detail::is_base_and_derived_impl<boost::iostreams::detail::custom_tag,boost::iostreams::operations<boost::iostreams::basic_file_source<char> > >::value
PUBLIC	?value@?$is_convertible_basic_impl@AAUcategory@?$basic_file_source@D@iostreams@boost@@Udual_use@34@@detail@boost@@2_NB ; boost::detail::is_convertible_basic_impl<boost::iostreams::basic_file_source<char>::category &,boost::iostreams::dual_use>::value
PUBLIC	?value@?$is_convertible_impl@Ucategory@?$basic_file_source@D@iostreams@boost@@Udual_use@34@@detail@boost@@2_NB ; boost::detail::is_convertible_impl<boost::iostreams::basic_file_source<char>::category,boost::iostreams::dual_use>::value
PUBLIC	?is_const@?$cv_traits_imp@PAUversion_type@archive@boost@@@detail@boost@@2_NB ; boost::detail::cv_traits_imp<boost::archive::version_type *>::is_const
PUBLIC	?is_volatile@?$cv_traits_imp@PAUversion_type@archive@boost@@@detail@boost@@2_NB ; boost::detail::cv_traits_imp<boost::archive::version_type *>::is_volatile
PUBLIC	?value@?$is_pointer_helper@Uversion_type@archive@boost@@@detail@boost@@2_NB ; boost::detail::is_pointer_helper<boost::archive::version_type>::value
PUBLIC	?value@?$result_@Uversion_type@archive@boost@@@?$is_mem_fun_pointer_select@$0A@@detail@boost@@2_NB ; boost::detail::is_mem_fun_pointer_select<0>::result_<boost::archive::version_type>::value
PUBLIC	?value@?$is_pointer_impl@Uversion_type@archive@boost@@@detail@boost@@2_NB ; boost::detail::is_pointer_impl<boost::archive::version_type>::value
PUBLIC	?is_const@?$cv_traits_imp@PAUobject_id_type@archive@boost@@@detail@boost@@2_NB ; boost::detail::cv_traits_imp<boost::archive::object_id_type *>::is_const
PUBLIC	?is_volatile@?$cv_traits_imp@PAUobject_id_type@archive@boost@@@detail@boost@@2_NB ; boost::detail::cv_traits_imp<boost::archive::object_id_type *>::is_volatile
PUBLIC	?value@?$is_pointer_helper@Uobject_id_type@archive@boost@@@detail@boost@@2_NB ; boost::detail::is_pointer_helper<boost::archive::object_id_type>::value
PUBLIC	?value@?$result_@Uobject_id_type@archive@boost@@@?$is_mem_fun_pointer_select@$0A@@detail@boost@@2_NB ; boost::detail::is_mem_fun_pointer_select<0>::result_<boost::archive::object_id_type>::value
PUBLIC	?value@?$is_pointer_impl@Uobject_id_type@archive@boost@@@detail@boost@@2_NB ; boost::detail::is_pointer_impl<boost::archive::object_id_type>::value
PUBLIC	?is_const@?$cv_traits_imp@PAUclass_id_type@archive@boost@@@detail@boost@@2_NB ; boost::detail::cv_traits_imp<boost::archive::class_id_type *>::is_const
PUBLIC	?is_volatile@?$cv_traits_imp@PAUclass_id_type@archive@boost@@@detail@boost@@2_NB ; boost::detail::cv_traits_imp<boost::archive::class_id_type *>::is_volatile
PUBLIC	?value@?$is_pointer_helper@Uclass_id_type@archive@boost@@@detail@boost@@2_NB ; boost::detail::is_pointer_helper<boost::archive::class_id_type>::value
PUBLIC	?value@?$result_@Uclass_id_type@archive@boost@@@?$is_mem_fun_pointer_select@$0A@@detail@boost@@2_NB ; boost::detail::is_mem_fun_pointer_select<0>::result_<boost::archive::class_id_type>::value
PUBLIC	?value@?$is_pointer_impl@Uclass_id_type@archive@boost@@@detail@boost@@2_NB ; boost::detail::is_pointer_impl<boost::archive::class_id_type>::value
PUBLIC	?value@?$is_pointer_helper@I@detail@boost@@2_NB	; boost::detail::is_pointer_helper<unsigned int>::value
PUBLIC	?value@?$result_@I@?$is_mem_fun_pointer_select@$0A@@detail@boost@@2_NB ; boost::detail::is_mem_fun_pointer_select<0>::result_<unsigned int>::value
PUBLIC	?value@?$is_pointer_impl@I@detail@boost@@2_NB	; boost::detail::is_pointer_impl<unsigned int>::value
PUBLIC	?value@?$is_base_and_derived_impl@Ubasic_traits@serialization@boost@@I@detail@boost@@2_NB ; boost::detail::is_base_and_derived_impl<boost::serialization::basic_traits,unsigned int>::value
PUBLIC	?value@?$is_arithmetic_impl@I@detail@boost@@2_NB ; boost::detail::is_arithmetic_impl<unsigned int>::value
PUBLIC	?value@?$implementation_level@I@serialization@boost@@2HB ; boost::serialization::implementation_level<unsigned int>::value
PUBLIC	?value@?$is_pointer_helper@H@detail@boost@@2_NB	; boost::detail::is_pointer_helper<int>::value
PUBLIC	?value@?$result_@H@?$is_mem_fun_pointer_select@$0A@@detail@boost@@2_NB ; boost::detail::is_mem_fun_pointer_select<0>::result_<int>::value
PUBLIC	?value@?$is_pointer_impl@H@detail@boost@@2_NB	; boost::detail::is_pointer_impl<int>::value
PUBLIC	?value@?$is_base_and_derived_impl@Ubasic_traits@serialization@boost@@H@detail@boost@@2_NB ; boost::detail::is_base_and_derived_impl<boost::serialization::basic_traits,int>::value
PUBLIC	?value@?$is_arithmetic_impl@H@detail@boost@@2_NB ; boost::detail::is_arithmetic_impl<int>::value
PUBLIC	?value@?$implementation_level@H@serialization@boost@@2HB ; boost::serialization::implementation_level<int>::value
PUBLIC	?value@?$result_@V?$basic_string@DU?$char_traits@D@std@@V?$allocator@D@2@@std@@@?$is_mem_fun_pointer_select@$0A@@detail@boost@@2_NB ; boost::detail::is_mem_fun_pointer_select<0>::result_<std::basic_string<char,std::char_traits<char>,std::allocator<char> > >::value
PUBLIC	?value@?$is_pointer_impl@V?$basic_string@DU?$char_traits@D@std@@V?$allocator@D@2@@std@@@detail@boost@@2_NB ; boost::detail::is_pointer_impl<std::basic_string<char,std::char_traits<char>,std::allocator<char> > >::value
PUBLIC	?value@?$is_convertible_basic_impl@AAUcategory@?$basic_null_device@DUinput@iostreams@boost@@@iostreams@boost@@Uoptimally_buffered_tag@34@@detail@boost@@2_NB ; boost::detail::is_convertible_basic_impl<boost::iostreams::basic_null_device<char,boost::iostreams::input>::category &,boost::iostreams::optimally_buffered_tag>::value
PUBLIC	?value@?$is_convertible_impl@Ucategory@?$basic_null_device@DUinput@iostreams@boost@@@iostreams@boost@@Uoptimally_buffered_tag@34@@detail@boost@@2_NB ; boost::detail::is_convertible_impl<boost::iostreams::basic_null_device<char,boost::iostreams::input>::category,boost::iostreams::optimally_buffered_tag>::value
PUBLIC	?value@?$is_base_and_derived_impl@Ucustom_tag@detail@iostreams@boost@@U?$operations@V?$basic_null_device@DUinput@iostreams@boost@@@iostreams@boost@@@34@@detail@boost@@2_NB ; boost::detail::is_base_and_derived_impl<boost::iostreams::detail::custom_tag,boost::iostreams::operations<boost::iostreams::basic_null_device<char,boost::iostreams::input> > >::value
PUBLIC	?value@?$is_arithmetic_impl@Ustreambuf_tag@iostreams@boost@@@detail@boost@@2_NB ; boost::detail::is_arithmetic_impl<boost::iostreams::streambuf_tag>::value
PUBLIC	?value@?$is_abstract_imp@Ustreambuf_tag@iostreams@boost@@@detail@boost@@2_NB ; boost::detail::is_abstract_imp<boost::iostreams::streambuf_tag>::value
PUBLIC	?value@?$is_convertible_basic_impl@AAUcategory@?$basic_null_device@DUinput@iostreams@boost@@@iostreams@boost@@Ustreambuf_tag@34@@detail@boost@@2_NB ; boost::detail::is_convertible_basic_impl<boost::iostreams::basic_null_device<char,boost::iostreams::input>::category &,boost::iostreams::streambuf_tag>::value
PUBLIC	?value@?$is_convertible_impl@Ucategory@?$basic_null_device@DUinput@iostreams@boost@@@iostreams@boost@@Ustreambuf_tag@34@@detail@boost@@2_NB ; boost::detail::is_convertible_impl<boost::iostreams::basic_null_device<char,boost::iostreams::input>::category,boost::iostreams::streambuf_tag>::value
PUBLIC	?value@?$is_arithmetic_impl@Ulocalizable_tag@iostreams@boost@@@detail@boost@@2_NB ; boost::detail::is_arithmetic_impl<boost::iostreams::localizable_tag>::value
PUBLIC	?value@?$is_abstract_imp@Ulocalizable_tag@iostreams@boost@@@detail@boost@@2_NB ; boost::detail::is_abstract_imp<boost::iostreams::localizable_tag>::value
PUBLIC	?value@?$is_convertible_basic_impl@AAUcategory@?$basic_null_device@DUinput@iostreams@boost@@@iostreams@boost@@Ulocalizable_tag@34@@detail@boost@@2_NB ; boost::detail::is_convertible_basic_impl<boost::iostreams::basic_null_device<char,boost::iostreams::input>::category &,boost::iostreams::localizable_tag>::value
PUBLIC	?value@?$is_convertible_impl@Ucategory@?$basic_null_device@DUinput@iostreams@boost@@@iostreams@boost@@Ulocalizable_tag@34@@detail@boost@@2_NB ; boost::detail::is_convertible_impl<boost::iostreams::basic_null_device<char,boost::iostreams::input>::category,boost::iostreams::localizable_tag>::value
PUBLIC	?value@?$is_arithmetic_impl@Uany_tag@iostreams@boost@@@detail@boost@@2_NB ; boost::detail::is_arithmetic_impl<boost::iostreams::any_tag>::value
PUBLIC	?value@?$is_abstract_imp@Uany_tag@iostreams@boost@@@detail@boost@@2_NB ; boost::detail::is_abstract_imp<boost::iostreams::any_tag>::value
PUBLIC	?value@?$is_convertible_basic_impl@AAUcategory@?$basic_null_device@DUinput@iostreams@boost@@@iostreams@boost@@Uany_tag@34@@detail@boost@@2_NB ; boost::detail::is_convertible_basic_impl<boost::iostreams::basic_null_device<char,boost::iostreams::input>::category &,boost::iostreams::any_tag>::value
PUBLIC	?value@?$is_convertible_impl@Ucategory@?$basic_null_device@DUinput@iostreams@boost@@@iostreams@boost@@Uany_tag@34@@detail@boost@@2_NB ; boost::detail::is_convertible_impl<boost::iostreams::basic_null_device<char,boost::iostreams::input>::category,boost::iostreams::any_tag>::value
PUBLIC	?value@?$is_arithmetic_impl@Uostream_tag@iostreams@boost@@@detail@boost@@2_NB ; boost::detail::is_arithmetic_impl<boost::iostreams::ostream_tag>::value
PUBLIC	?value@?$is_abstract_imp@Uostream_tag@iostreams@boost@@@detail@boost@@2_NB ; boost::detail::is_abstract_imp<boost::iostreams::ostream_tag>::value
PUBLIC	?value@?$is_convertible_basic_impl@AAUcategory@?$basic_null_device@DUinput@iostreams@boost@@@iostreams@boost@@Uostream_tag@34@@detail@boost@@2_NB ; boost::detail::is_convertible_basic_impl<boost::iostreams::basic_null_device<char,boost::iostreams::input>::category &,boost::iostreams::ostream_tag>::value
PUBLIC	?value@?$is_convertible_impl@Ucategory@?$basic_null_device@DUinput@iostreams@boost@@@iostreams@boost@@Uostream_tag@34@@detail@boost@@2_NB ; boost::detail::is_convertible_impl<boost::iostreams::basic_null_device<char,boost::iostreams::input>::category,boost::iostreams::ostream_tag>::value
PUBLIC	?value@?$is_arithmetic_impl@Uflushable_tag@iostreams@boost@@@detail@boost@@2_NB ; boost::detail::is_arithmetic_impl<boost::iostreams::flushable_tag>::value
PUBLIC	?value@?$is_abstract_imp@Uflushable_tag@iostreams@boost@@@detail@boost@@2_NB ; boost::detail::is_abstract_imp<boost::iostreams::flushable_tag>::value
PUBLIC	?value@?$is_convertible_basic_impl@AAUcategory@?$basic_null_device@DUinput@iostreams@boost@@@iostreams@boost@@Uflushable_tag@34@@detail@boost@@2_NB ; boost::detail::is_convertible_basic_impl<boost::iostreams::basic_null_device<char,boost::iostreams::input>::category &,boost::iostreams::flushable_tag>::value
PUBLIC	?value@?$is_convertible_impl@Ucategory@?$basic_null_device@DUinput@iostreams@boost@@@iostreams@boost@@Uflushable_tag@34@@detail@boost@@2_NB ; boost::detail::is_convertible_impl<boost::iostreams::basic_null_device<char,boost::iostreams::input>::category,boost::iostreams::flushable_tag>::value
PUBLIC	?value@?$is_convertible_basic_impl@AAUcategory@?$basic_file_source@D@iostreams@boost@@Ustreambuf_tag@34@@detail@boost@@2_NB ; boost::detail::is_convertible_basic_impl<boost::iostreams::basic_file_source<char>::category &,boost::iostreams::streambuf_tag>::value
PUBLIC	?value@?$is_convertible_impl@Ucategory@?$basic_file_source@D@iostreams@boost@@Ustreambuf_tag@34@@detail@boost@@2_NB ; boost::detail::is_convertible_impl<boost::iostreams::basic_file_source<char>::category,boost::iostreams::streambuf_tag>::value
PUBLIC	?value@?$is_convertible_basic_impl@AAUcategory@?$basic_file_source@D@iostreams@boost@@Ulocalizable_tag@34@@detail@boost@@2_NB ; boost::detail::is_convertible_basic_impl<boost::iostreams::basic_file_source<char>::category &,boost::iostreams::localizable_tag>::value
PUBLIC	?value@?$is_convertible_impl@Ucategory@?$basic_file_source@D@iostreams@boost@@Ulocalizable_tag@34@@detail@boost@@2_NB ; boost::detail::is_convertible_impl<boost::iostreams::basic_file_source<char>::category,boost::iostreams::localizable_tag>::value
PUBLIC	?value@?$is_convertible_basic_impl@AAUcategory@?$basic_file_source@D@iostreams@boost@@Uany_tag@34@@detail@boost@@2_NB ; boost::detail::is_convertible_basic_impl<boost::iostreams::basic_file_source<char>::category &,boost::iostreams::any_tag>::value
PUBLIC	?value@?$is_convertible_impl@Ucategory@?$basic_file_source@D@iostreams@boost@@Uany_tag@34@@detail@boost@@2_NB ; boost::detail::is_convertible_impl<boost::iostreams::basic_file_source<char>::category,boost::iostreams::any_tag>::value
PUBLIC	?value@?$is_arithmetic_impl@Uistream_tag@iostreams@boost@@@detail@boost@@2_NB ; boost::detail::is_arithmetic_impl<boost::iostreams::istream_tag>::value
PUBLIC	?value@?$is_abstract_imp@Uistream_tag@iostreams@boost@@@detail@boost@@2_NB ; boost::detail::is_abstract_imp<boost::iostreams::istream_tag>::value
PUBLIC	?value@?$is_convertible_basic_impl@AAUcategory@?$basic_null_device@DUinput@iostreams@boost@@@iostreams@boost@@Uistream_tag@34@@detail@boost@@2_NB ; boost::detail::is_convertible_basic_impl<boost::iostreams::basic_null_device<char,boost::iostreams::input>::category &,boost::iostreams::istream_tag>::value
PUBLIC	?value@?$is_convertible_impl@Ucategory@?$basic_null_device@DUinput@iostreams@boost@@@iostreams@boost@@Uistream_tag@34@@detail@boost@@2_NB ; boost::detail::is_convertible_impl<boost::iostreams::basic_null_device<char,boost::iostreams::input>::category,boost::iostreams::istream_tag>::value
PUBLIC	?value@?$is_convertible_basic_impl@AAUcategory@?$basic_null_device@DUinput@iostreams@boost@@@iostreams@boost@@Uclosable_tag@34@@detail@boost@@2_NB ; boost::detail::is_convertible_basic_impl<boost::iostreams::basic_null_device<char,boost::iostreams::input>::category &,boost::iostreams::closable_tag>::value
PUBLIC	?value@?$is_convertible_impl@Ucategory@?$basic_null_device@DUinput@iostreams@boost@@@iostreams@boost@@Uclosable_tag@34@@detail@boost@@2_NB ; boost::detail::is_convertible_impl<boost::iostreams::basic_null_device<char,boost::iostreams::input>::category,boost::iostreams::closable_tag>::value
PUBLIC	?value@?$impl@V?$basic_null_device@DUinput@iostreams@boost@@@iostreams@boost@@@is_boost_stream_impl_@detail@iostreams@boost@@2_NB ; boost::iostreams::detail::is_boost_stream_impl_::impl<boost::iostreams::basic_null_device<char,boost::iostreams::input> >::value
PUBLIC	?value@?$impl@V?$basic_null_device@DUinput@iostreams@boost@@@iostreams@boost@@@is_boost_stream_buffer_impl_@detail@iostreams@boost@@2_NB ; boost::iostreams::detail::is_boost_stream_buffer_impl_::impl<boost::iostreams::basic_null_device<char,boost::iostreams::input> >::value
PUBLIC	?value@?$impl@V?$basic_null_device@DUinput@iostreams@boost@@@iostreams@boost@@@is_filtering_stream_impl_impl_@detail@iostreams@boost@@2_NB ; boost::iostreams::detail::is_filtering_stream_impl_impl_::impl<boost::iostreams::basic_null_device<char,boost::iostreams::input> >::value
PUBLIC	?value@?$impl@V?$basic_null_device@DUinput@iostreams@boost@@@iostreams@boost@@@is_filtering_wstream_impl_impl_@detail@iostreams@boost@@2_NB ; boost::iostreams::detail::is_filtering_wstream_impl_impl_::impl<boost::iostreams::basic_null_device<char,boost::iostreams::input> >::value
PUBLIC	?value@?$impl@V?$basic_null_device@DUinput@iostreams@boost@@@iostreams@boost@@@is_filtering_streambuf_impl_impl_@detail@iostreams@boost@@2_NB ; boost::iostreams::detail::is_filtering_streambuf_impl_impl_::impl<boost::iostreams::basic_null_device<char,boost::iostreams::input> >::value
PUBLIC	?value@?$impl@V?$basic_null_device@DUinput@iostreams@boost@@@iostreams@boost@@@is_filtering_wstreambuf_impl_impl_@detail@iostreams@boost@@2_NB ; boost::iostreams::detail::is_filtering_wstreambuf_impl_impl_::impl<boost::iostreams::basic_null_device<char,boost::iostreams::input> >::value
PUBLIC	?value@?$is_convertible_basic_impl@AAUcategory@?$basic_null_device@DUinput@iostreams@boost@@@iostreams@boost@@Utwo_sequence@detail@34@@detail@boost@@2_NB ; boost::detail::is_convertible_basic_impl<boost::iostreams::basic_null_device<char,boost::iostreams::input>::category &,boost::iostreams::detail::two_sequence>::value
PUBLIC	?value@?$is_convertible_impl@Ucategory@?$basic_null_device@DUinput@iostreams@boost@@@iostreams@boost@@Utwo_sequence@detail@34@@detail@boost@@2_NB ; boost::detail::is_convertible_impl<boost::iostreams::basic_null_device<char,boost::iostreams::input>::category,boost::iostreams::detail::two_sequence>::value
PUBLIC	?value@?$is_convertible_basic_impl@AAUcategory@?$basic_file_source@D@iostreams@boost@@Uostream_tag@34@@detail@boost@@2_NB ; boost::detail::is_convertible_basic_impl<boost::iostreams::basic_file_source<char>::category &,boost::iostreams::ostream_tag>::value
PUBLIC	?value@?$is_convertible_impl@Ucategory@?$basic_file_source@D@iostreams@boost@@Uostream_tag@34@@detail@boost@@2_NB ; boost::detail::is_convertible_impl<boost::iostreams::basic_file_source<char>::category,boost::iostreams::ostream_tag>::value
PUBLIC	?value@?$is_convertible_basic_impl@AAUcategory@?$basic_file_source@D@iostreams@boost@@Uflushable_tag@34@@detail@boost@@2_NB ; boost::detail::is_convertible_basic_impl<boost::iostreams::basic_file_source<char>::category &,boost::iostreams::flushable_tag>::value
PUBLIC	?value@?$is_convertible_impl@Ucategory@?$basic_file_source@D@iostreams@boost@@Uflushable_tag@34@@detail@boost@@2_NB ; boost::detail::is_convertible_impl<boost::iostreams::basic_file_source<char>::category,boost::iostreams::flushable_tag>::value
PUBLIC	?value@?$is_convertible_basic_impl@AAUcategory@?$basic_file_source@D@iostreams@boost@@Uistream_tag@34@@detail@boost@@2_NB ; boost::detail::is_convertible_basic_impl<boost::iostreams::basic_file_source<char>::category &,boost::iostreams::istream_tag>::value
PUBLIC	?value@?$is_convertible_impl@Ucategory@?$basic_file_source@D@iostreams@boost@@Uistream_tag@34@@detail@boost@@2_NB ; boost::detail::is_convertible_impl<boost::iostreams::basic_file_source<char>::category,boost::iostreams::istream_tag>::value
PUBLIC	?value@?$is_convertible_basic_impl@AAUcategory@?$basic_file_source@D@iostreams@boost@@Uclosable_tag@34@@detail@boost@@2_NB ; boost::detail::is_convertible_basic_impl<boost::iostreams::basic_file_source<char>::category &,boost::iostreams::closable_tag>::value
PUBLIC	?value@?$is_convertible_impl@Ucategory@?$basic_file_source@D@iostreams@boost@@Uclosable_tag@34@@detail@boost@@2_NB ; boost::detail::is_convertible_impl<boost::iostreams::basic_file_source<char>::category,boost::iostreams::closable_tag>::value
PUBLIC	?value@?$impl@U?$basic_file_source@D@iostreams@boost@@@is_boost_stream_impl_@detail@iostreams@boost@@2_NB ; boost::iostreams::detail::is_boost_stream_impl_::impl<boost::iostreams::basic_file_source<char> >::value
PUBLIC	?value@?$impl@U?$basic_file_source@D@iostreams@boost@@@is_boost_stream_buffer_impl_@detail@iostreams@boost@@2_NB ; boost::iostreams::detail::is_boost_stream_buffer_impl_::impl<boost::iostreams::basic_file_source<char> >::value
PUBLIC	?value@?$impl@U?$basic_file_source@D@iostreams@boost@@@is_filtering_stream_impl_impl_@detail@iostreams@boost@@2_NB ; boost::iostreams::detail::is_filtering_stream_impl_impl_::impl<boost::iostreams::basic_file_source<char> >::value
PUBLIC	?value@?$impl@U?$basic_file_source@D@iostreams@boost@@@is_filtering_wstream_impl_impl_@detail@iostreams@boost@@2_NB ; boost::iostreams::detail::is_filtering_wstream_impl_impl_::impl<boost::iostreams::basic_file_source<char> >::value
PUBLIC	?value@?$impl@U?$basic_file_source@D@iostreams@boost@@@is_filtering_streambuf_impl_impl_@detail@iostreams@boost@@2_NB ; boost::iostreams::detail::is_filtering_streambuf_impl_impl_::impl<boost::iostreams::basic_file_source<char> >::value
PUBLIC	?value@?$impl@U?$basic_file_source@D@iostreams@boost@@@is_filtering_wstreambuf_impl_impl_@detail@iostreams@boost@@2_NB ; boost::iostreams::detail::is_filtering_wstreambuf_impl_impl_::impl<boost::iostreams::basic_file_source<char> >::value
PUBLIC	?value@?$is_convertible_basic_impl@AAUcategory@?$basic_file_source@D@iostreams@boost@@Utwo_sequence@detail@34@@detail@boost@@2_NB ; boost::detail::is_convertible_basic_impl<boost::iostreams::basic_file_source<char>::category &,boost::iostreams::detail::two_sequence>::value
PUBLIC	?value@?$is_convertible_impl@Ucategory@?$basic_file_source@D@iostreams@boost@@Utwo_sequence@detail@34@@detail@boost@@2_NB ; boost::detail::is_convertible_impl<boost::iostreams::basic_file_source<char>::category,boost::iostreams::detail::two_sequence>::value
PUBLIC	?value@?$is_arithmetic_impl@Uiostream_tag@iostreams@boost@@@detail@boost@@2_NB ; boost::detail::is_arithmetic_impl<boost::iostreams::iostream_tag>::value
PUBLIC	?value@?$is_abstract_imp@Uiostream_tag@iostreams@boost@@@detail@boost@@2_NB ; boost::detail::is_abstract_imp<boost::iostreams::iostream_tag>::value
PUBLIC	?value@?$is_convertible_basic_impl@AAUcategory@?$basic_file_source@D@iostreams@boost@@Uiostream_tag@34@@detail@boost@@2_NB ; boost::detail::is_convertible_basic_impl<boost::iostreams::basic_file_source<char>::category &,boost::iostreams::iostream_tag>::value
PUBLIC	?value@?$is_convertible_impl@Ucategory@?$basic_file_source@D@iostreams@boost@@Uiostream_tag@34@@detail@boost@@2_NB ; boost::detail::is_convertible_impl<boost::iostreams::basic_file_source<char>::category,boost::iostreams::iostream_tag>::value
PUBLIC	?value@?$is_arithmetic_impl@Utwo_head@detail@iostreams@boost@@@detail@boost@@2_NB ; boost::detail::is_arithmetic_impl<boost::iostreams::detail::two_head>::value
PUBLIC	?value@?$is_abstract_imp@Utwo_head@detail@iostreams@boost@@@detail@boost@@2_NB ; boost::detail::is_abstract_imp<boost::iostreams::detail::two_head>::value
PUBLIC	?value@?$is_convertible_basic_impl@AAUcategory@?$basic_file_source@D@iostreams@boost@@Utwo_head@detail@34@@detail@boost@@2_NB ; boost::detail::is_convertible_basic_impl<boost::iostreams::basic_file_source<char>::category &,boost::iostreams::detail::two_head>::value
PUBLIC	?value@?$is_convertible_impl@Ucategory@?$basic_file_source@D@iostreams@boost@@Utwo_head@detail@34@@detail@boost@@2_NB ; boost::detail::is_convertible_impl<boost::iostreams::basic_file_source<char>::category,boost::iostreams::detail::two_head>::value
PUBLIC	?value@?$impl@V?$basic_filebuf@DU?$char_traits@D@std@@@std@@@is_istream_impl_@iostreams@boost@@2_NB ; boost::iostreams::is_istream_impl_::impl<std::basic_filebuf<char,std::char_traits<char> > >::value
PUBLIC	?value@?$impl@V?$basic_filebuf@DU?$char_traits@D@std@@@std@@@is_ostream_impl_@iostreams@boost@@2_NB ; boost::iostreams::is_ostream_impl_::impl<std::basic_filebuf<char,std::char_traits<char> > >::value
PUBLIC	?value@?$impl@V?$basic_filebuf@DU?$char_traits@D@std@@@std@@@is_streambuf_impl_@iostreams@boost@@2_NB ; boost::iostreams::is_streambuf_impl_::impl<std::basic_filebuf<char,std::char_traits<char> > >::value
PUBLIC	?value@?$impl@V?$basic_filebuf@DU?$char_traits@D@std@@@std@@@is_boost_stream_impl_@detail@iostreams@boost@@2_NB ; boost::iostreams::detail::is_boost_stream_impl_::impl<std::basic_filebuf<char,std::char_traits<char> > >::value
PUBLIC	?value@?$impl@V?$basic_filebuf@DU?$char_traits@D@std@@@std@@@is_boost_stream_buffer_impl_@detail@iostreams@boost@@2_NB ; boost::iostreams::detail::is_boost_stream_buffer_impl_::impl<std::basic_filebuf<char,std::char_traits<char> > >::value
PUBLIC	?value@?$impl@V?$basic_filebuf@DU?$char_traits@D@std@@@std@@@is_filtering_stream_impl_impl_@detail@iostreams@boost@@2_NB ; boost::iostreams::detail::is_filtering_stream_impl_impl_::impl<std::basic_filebuf<char,std::char_traits<char> > >::value
PUBLIC	?value@?$impl@V?$basic_filebuf@DU?$char_traits@D@std@@@std@@@is_filtering_wstream_impl_impl_@detail@iostreams@boost@@2_NB ; boost::iostreams::detail::is_filtering_wstream_impl_impl_::impl<std::basic_filebuf<char,std::char_traits<char> > >::value
PUBLIC	?value@?$impl@V?$basic_filebuf@DU?$char_traits@D@std@@@std@@@is_filtering_streambuf_impl_impl_@detail@iostreams@boost@@2_NB ; boost::iostreams::detail::is_filtering_streambuf_impl_impl_::impl<std::basic_filebuf<char,std::char_traits<char> > >::value
PUBLIC	?value@?$impl@V?$basic_filebuf@DU?$char_traits@D@std@@@std@@@is_filtering_wstreambuf_impl_impl_@detail@iostreams@boost@@2_NB ; boost::iostreams::detail::is_filtering_wstreambuf_impl_impl_::impl<std::basic_filebuf<char,std::char_traits<char> > >::value
PUBLIC	?value@?$impl@V?$basic_filebuf@DU?$char_traits@D@std@@@std@@@is_filebuf_impl_@iostreams@boost@@2_NB ; boost::iostreams::is_filebuf_impl_::impl<std::basic_filebuf<char,std::char_traits<char> > >::value
PUBLIC	?value@?$is_arithmetic_impl@Ufilebuf_tag@iostreams@boost@@@detail@boost@@2_NB ; boost::detail::is_arithmetic_impl<boost::iostreams::filebuf_tag>::value
PUBLIC	?value@?$is_convertible_basic_impl@AAUfilebuf_tag@iostreams@boost@@Uiostream_tag@23@@detail@boost@@2_NB ; boost::detail::is_convertible_basic_impl<boost::iostreams::filebuf_tag &,boost::iostreams::iostream_tag>::value
PUBLIC	?value@?$is_convertible_impl@Ufilebuf_tag@iostreams@boost@@Uiostream_tag@23@@detail@boost@@2_NB ; boost::detail::is_convertible_impl<boost::iostreams::filebuf_tag,boost::iostreams::iostream_tag>::value
PUBLIC	?value@?$is_convertible_basic_impl@AAUfilebuf_tag@iostreams@boost@@Uistream_tag@23@@detail@boost@@2_NB ; boost::detail::is_convertible_basic_impl<boost::iostreams::filebuf_tag &,boost::iostreams::istream_tag>::value
PUBLIC	?value@?$is_convertible_impl@Ufilebuf_tag@iostreams@boost@@Uistream_tag@23@@detail@boost@@2_NB ; boost::detail::is_convertible_impl<boost::iostreams::filebuf_tag,boost::iostreams::istream_tag>::value
PUBLIC	?value@?$is_convertible_basic_impl@AAUfilebuf_tag@iostreams@boost@@Uostream_tag@23@@detail@boost@@2_NB ; boost::detail::is_convertible_basic_impl<boost::iostreams::filebuf_tag &,boost::iostreams::ostream_tag>::value
PUBLIC	?value@?$is_convertible_impl@Ufilebuf_tag@iostreams@boost@@Uostream_tag@23@@detail@boost@@2_NB ; boost::detail::is_convertible_impl<boost::iostreams::filebuf_tag,boost::iostreams::ostream_tag>::value
PUBLIC	?value@?$is_convertible_basic_impl@AAUfilebuf_tag@iostreams@boost@@Ustreambuf_tag@23@@detail@boost@@2_NB ; boost::detail::is_convertible_basic_impl<boost::iostreams::filebuf_tag &,boost::iostreams::streambuf_tag>::value
PUBLIC	?value@?$is_convertible_impl@Ufilebuf_tag@iostreams@boost@@Ustreambuf_tag@23@@detail@boost@@2_NB ; boost::detail::is_convertible_impl<boost::iostreams::filebuf_tag,boost::iostreams::streambuf_tag>::value
PUBLIC	?value@?$is_base_and_derived_impl@Ucustom_tag@detail@iostreams@boost@@U?$operations@V?$basic_filebuf@DU?$char_traits@D@std@@@std@@@34@@detail@boost@@2_NB ; boost::detail::is_base_and_derived_impl<boost::iostreams::detail::custom_tag,boost::iostreams::operations<std::basic_filebuf<char,std::char_traits<char> > > >::value
_BSS	SEGMENT
?use_last@?1??boxMuller@InputStream@DRAMsimII@@QBEMMM@Z@4_NA DB 01H DUP (?) ; `DRAMsimII::InputStream::boxMuller'::`2'::use_last
_BSS	ENDS
;	COMDAT ?value@?$is_base_and_derived_impl@Ucustom_tag@detail@iostreams@boost@@U?$operations@V?$basic_filebuf@DU?$char_traits@D@std@@@std@@@34@@detail@boost@@2_NB
CONST	SEGMENT
?value@?$is_base_and_derived_impl@Ucustom_tag@detail@iostreams@boost@@U?$operations@V?$basic_filebuf@DU?$char_traits@D@std@@@std@@@34@@detail@boost@@2_NB DB 01H ; boost::detail::is_base_and_derived_impl<boost::iostreams::detail::custom_tag,boost::iostreams::operations<std::basic_filebuf<char,std::char_traits<char> > > >::value
CONST	ENDS
;	COMDAT ?value@?$is_convertible_impl@Ufilebuf_tag@iostreams@boost@@Ustreambuf_tag@23@@detail@boost@@2_NB
CONST	SEGMENT
?value@?$is_convertible_impl@Ufilebuf_tag@iostreams@boost@@Ustreambuf_tag@23@@detail@boost@@2_NB DB 01H ; boost::detail::is_convertible_impl<boost::iostreams::filebuf_tag,boost::iostreams::streambuf_tag>::value
CONST	ENDS
;	COMDAT ?value@?$is_convertible_basic_impl@AAUfilebuf_tag@iostreams@boost@@Ustreambuf_tag@23@@detail@boost@@2_NB
CONST	SEGMENT
?value@?$is_convertible_basic_impl@AAUfilebuf_tag@iostreams@boost@@Ustreambuf_tag@23@@detail@boost@@2_NB DB 01H ; boost::detail::is_convertible_basic_impl<boost::iostreams::filebuf_tag &,boost::iostreams::streambuf_tag>::value
CONST	ENDS
;	COMDAT ?value@?$is_convertible_impl@Ufilebuf_tag@iostreams@boost@@Uostream_tag@23@@detail@boost@@2_NB
CONST	SEGMENT
?value@?$is_convertible_impl@Ufilebuf_tag@iostreams@boost@@Uostream_tag@23@@detail@boost@@2_NB DB 00H ; boost::detail::is_convertible_impl<boost::iostreams::filebuf_tag,boost::iostreams::ostream_tag>::value
CONST	ENDS
;	COMDAT ?value@?$is_convertible_basic_impl@AAUfilebuf_tag@iostreams@boost@@Uostream_tag@23@@detail@boost@@2_NB
CONST	SEGMENT
?value@?$is_convertible_basic_impl@AAUfilebuf_tag@iostreams@boost@@Uostream_tag@23@@detail@boost@@2_NB DB 00H ; boost::detail::is_convertible_basic_impl<boost::iostreams::filebuf_tag &,boost::iostreams::ostream_tag>::value
CONST	ENDS
;	COMDAT ?value@?$is_convertible_impl@Ufilebuf_tag@iostreams@boost@@Uistream_tag@23@@detail@boost@@2_NB
CONST	SEGMENT
?value@?$is_convertible_impl@Ufilebuf_tag@iostreams@boost@@Uistream_tag@23@@detail@boost@@2_NB DB 00H ; boost::detail::is_convertible_impl<boost::iostreams::filebuf_tag,boost::iostreams::istream_tag>::value
CONST	ENDS
;	COMDAT ?value@?$is_convertible_basic_impl@AAUfilebuf_tag@iostreams@boost@@Uistream_tag@23@@detail@boost@@2_NB
CONST	SEGMENT
?value@?$is_convertible_basic_impl@AAUfilebuf_tag@iostreams@boost@@Uistream_tag@23@@detail@boost@@2_NB DB 00H ; boost::detail::is_convertible_basic_impl<boost::iostreams::filebuf_tag &,boost::iostreams::istream_tag>::value
CONST	ENDS
;	COMDAT ?value@?$is_convertible_impl@Ufilebuf_tag@iostreams@boost@@Uiostream_tag@23@@detail@boost@@2_NB
CONST	SEGMENT
?value@?$is_convertible_impl@Ufilebuf_tag@iostreams@boost@@Uiostream_tag@23@@detail@boost@@2_NB DB 00H ; boost::detail::is_convertible_impl<boost::iostreams::filebuf_tag,boost::iostreams::iostream_tag>::value
CONST	ENDS
;	COMDAT ?value@?$is_convertible_basic_impl@AAUfilebuf_tag@iostreams@boost@@Uiostream_tag@23@@detail@boost@@2_NB
CONST	SEGMENT
?value@?$is_convertible_basic_impl@AAUfilebuf_tag@iostreams@boost@@Uiostream_tag@23@@detail@boost@@2_NB DB 00H ; boost::detail::is_convertible_basic_impl<boost::iostreams::filebuf_tag &,boost::iostreams::iostream_tag>::value
CONST	ENDS
;	COMDAT ?value@?$is_arithmetic_impl@Ufilebuf_tag@iostreams@boost@@@detail@boost@@2_NB
CONST	SEGMENT
?value@?$is_arithmetic_impl@Ufilebuf_tag@iostreams@boost@@@detail@boost@@2_NB DB 00H ; boost::detail::is_arithmetic_impl<boost::iostreams::filebuf_tag>::value
CONST	ENDS
;	COMDAT ?value@?$impl@V?$basic_filebuf@DU?$char_traits@D@std@@@std@@@is_filebuf_impl_@iostreams@boost@@2_NB
CONST	SEGMENT
?value@?$impl@V?$basic_filebuf@DU?$char_traits@D@std@@@std@@@is_filebuf_impl_@iostreams@boost@@2_NB DB 01H ; boost::iostreams::is_filebuf_impl_::impl<std::basic_filebuf<char,std::char_traits<char> > >::value
CONST	ENDS
;	COMDAT ?value@?$impl@V?$basic_filebuf@DU?$char_traits@D@std@@@std@@@is_filtering_wstreambuf_impl_impl_@detail@iostreams@boost@@2_NB
CONST	SEGMENT
?value@?$impl@V?$basic_filebuf@DU?$char_traits@D@std@@@std@@@is_filtering_wstreambuf_impl_impl_@detail@iostreams@boost@@2_NB DB 00H ; boost::iostreams::detail::is_filtering_wstreambuf_impl_impl_::impl<std::basic_filebuf<char,std::char_traits<char> > >::value
CONST	ENDS
;	COMDAT ?value@?$impl@V?$basic_filebuf@DU?$char_traits@D@std@@@std@@@is_filtering_streambuf_impl_impl_@detail@iostreams@boost@@2_NB
CONST	SEGMENT
?value@?$impl@V?$basic_filebuf@DU?$char_traits@D@std@@@std@@@is_filtering_streambuf_impl_impl_@detail@iostreams@boost@@2_NB DB 00H ; boost::iostreams::detail::is_filtering_streambuf_impl_impl_::impl<std::basic_filebuf<char,std::char_traits<char> > >::value
CONST	ENDS
;	COMDAT ?value@?$impl@V?$basic_filebuf@DU?$char_traits@D@std@@@std@@@is_filtering_wstream_impl_impl_@detail@iostreams@boost@@2_NB
CONST	SEGMENT
?value@?$impl@V?$basic_filebuf@DU?$char_traits@D@std@@@std@@@is_filtering_wstream_impl_impl_@detail@iostreams@boost@@2_NB DB 00H ; boost::iostreams::detail::is_filtering_wstream_impl_impl_::impl<std::basic_filebuf<char,std::char_traits<char> > >::value
CONST	ENDS
;	COMDAT ?value@?$impl@V?$basic_filebuf@DU?$char_traits@D@std@@@std@@@is_filtering_stream_impl_impl_@detail@iostreams@boost@@2_NB
CONST	SEGMENT
?value@?$impl@V?$basic_filebuf@DU?$char_traits@D@std@@@std@@@is_filtering_stream_impl_impl_@detail@iostreams@boost@@2_NB DB 00H ; boost::iostreams::detail::is_filtering_stream_impl_impl_::impl<std::basic_filebuf<char,std::char_traits<char> > >::value
CONST	ENDS
;	COMDAT ?value@?$impl@V?$basic_filebuf@DU?$char_traits@D@std@@@std@@@is_boost_stream_buffer_impl_@detail@iostreams@boost@@2_NB
CONST	SEGMENT
?value@?$impl@V?$basic_filebuf@DU?$char_traits@D@std@@@std@@@is_boost_stream_buffer_impl_@detail@iostreams@boost@@2_NB DB 00H ; boost::iostreams::detail::is_boost_stream_buffer_impl_::impl<std::basic_filebuf<char,std::char_traits<char> > >::value
CONST	ENDS
;	COMDAT ?value@?$impl@V?$basic_filebuf@DU?$char_traits@D@std@@@std@@@is_boost_stream_impl_@detail@iostreams@boost@@2_NB
CONST	SEGMENT
?value@?$impl@V?$basic_filebuf@DU?$char_traits@D@std@@@std@@@is_boost_stream_impl_@detail@iostreams@boost@@2_NB DB 00H ; boost::iostreams::detail::is_boost_stream_impl_::impl<std::basic_filebuf<char,std::char_traits<char> > >::value
CONST	ENDS
;	COMDAT ?value@?$impl@V?$basic_filebuf@DU?$char_traits@D@std@@@std@@@is_streambuf_impl_@iostreams@boost@@2_NB
CONST	SEGMENT
?value@?$impl@V?$basic_filebuf@DU?$char_traits@D@std@@@std@@@is_streambuf_impl_@iostreams@boost@@2_NB DB 01H ; boost::iostreams::is_streambuf_impl_::impl<std::basic_filebuf<char,std::char_traits<char> > >::value
CONST	ENDS
;	COMDAT ?value@?$impl@V?$basic_filebuf@DU?$char_traits@D@std@@@std@@@is_ostream_impl_@iostreams@boost@@2_NB
CONST	SEGMENT
?value@?$impl@V?$basic_filebuf@DU?$char_traits@D@std@@@std@@@is_ostream_impl_@iostreams@boost@@2_NB DB 00H ; boost::iostreams::is_ostream_impl_::impl<std::basic_filebuf<char,std::char_traits<char> > >::value
CONST	ENDS
;	COMDAT ?value@?$impl@V?$basic_filebuf@DU?$char_traits@D@std@@@std@@@is_istream_impl_@iostreams@boost@@2_NB
CONST	SEGMENT
?value@?$impl@V?$basic_filebuf@DU?$char_traits@D@std@@@std@@@is_istream_impl_@iostreams@boost@@2_NB DB 00H ; boost::iostreams::is_istream_impl_::impl<std::basic_filebuf<char,std::char_traits<char> > >::value
CONST	ENDS
;	COMDAT ?value@?$is_convertible_impl@Ucategory@?$basic_file_source@D@iostreams@boost@@Utwo_head@detail@34@@detail@boost@@2_NB
CONST	SEGMENT
?value@?$is_convertible_impl@Ucategory@?$basic_file_source@D@iostreams@boost@@Utwo_head@detail@34@@detail@boost@@2_NB DB 00H ; boost::detail::is_convertible_impl<boost::iostreams::basic_file_source<char>::category,boost::iostreams::detail::two_head>::value
CONST	ENDS
;	COMDAT ?value@?$is_convertible_basic_impl@AAUcategory@?$basic_file_source@D@iostreams@boost@@Utwo_head@detail@34@@detail@boost@@2_NB
CONST	SEGMENT
?value@?$is_convertible_basic_impl@AAUcategory@?$basic_file_source@D@iostreams@boost@@Utwo_head@detail@34@@detail@boost@@2_NB DB 00H ; boost::detail::is_convertible_basic_impl<boost::iostreams::basic_file_source<char>::category &,boost::iostreams::detail::two_head>::value
CONST	ENDS
;	COMDAT ?value@?$is_abstract_imp@Utwo_head@detail@iostreams@boost@@@detail@boost@@2_NB
CONST	SEGMENT
?value@?$is_abstract_imp@Utwo_head@detail@iostreams@boost@@@detail@boost@@2_NB DB 00H ; boost::detail::is_abstract_imp<boost::iostreams::detail::two_head>::value
CONST	ENDS
;	COMDAT ?value@?$is_arithmetic_impl@Utwo_head@detail@iostreams@boost@@@detail@boost@@2_NB
CONST	SEGMENT
?value@?$is_arithmetic_impl@Utwo_head@detail@iostreams@boost@@@detail@boost@@2_NB DB 00H ; boost::detail::is_arithmetic_impl<boost::iostreams::detail::two_head>::value
CONST	ENDS
;	COMDAT ?value@?$is_convertible_impl@Ucategory@?$basic_file_source@D@iostreams@boost@@Uiostream_tag@34@@detail@boost@@2_NB
CONST	SEGMENT
?value@?$is_convertible_impl@Ucategory@?$basic_file_source@D@iostreams@boost@@Uiostream_tag@34@@detail@boost@@2_NB DB 00H ; boost::detail::is_convertible_impl<boost::iostreams::basic_file_source<char>::category,boost::iostreams::iostream_tag>::value
CONST	ENDS
;	COMDAT ?value@?$is_convertible_basic_impl@AAUcategory@?$basic_file_source@D@iostreams@boost@@Uiostream_tag@34@@detail@boost@@2_NB
CONST	SEGMENT
?value@?$is_convertible_basic_impl@AAUcategory@?$basic_file_source@D@iostreams@boost@@Uiostream_tag@34@@detail@boost@@2_NB DB 00H ; boost::detail::is_convertible_basic_impl<boost::iostreams::basic_file_source<char>::category &,boost::iostreams::iostream_tag>::value
CONST	ENDS
;	COMDAT ?value@?$is_abstract_imp@Uiostream_tag@iostreams@boost@@@detail@boost@@2_NB
CONST	SEGMENT
?value@?$is_abstract_imp@Uiostream_tag@iostreams@boost@@@detail@boost@@2_NB DB 00H ; boost::detail::is_abstract_imp<boost::iostreams::iostream_tag>::value
CONST	ENDS
;	COMDAT ?value@?$is_arithmetic_impl@Uiostream_tag@iostreams@boost@@@detail@boost@@2_NB
CONST	SEGMENT
?value@?$is_arithmetic_impl@Uiostream_tag@iostreams@boost@@@detail@boost@@2_NB DB 00H ; boost::detail::is_arithmetic_impl<boost::iostreams::iostream_tag>::value
CONST	ENDS
;	COMDAT ?value@?$is_convertible_impl@Ucategory@?$basic_file_source@D@iostreams@boost@@Utwo_sequence@detail@34@@detail@boost@@2_NB
CONST	SEGMENT
?value@?$is_convertible_impl@Ucategory@?$basic_file_source@D@iostreams@boost@@Utwo_sequence@detail@34@@detail@boost@@2_NB DB 00H ; boost::detail::is_convertible_impl<boost::iostreams::basic_file_source<char>::category,boost::iostreams::detail::two_sequence>::value
CONST	ENDS
;	COMDAT ?value@?$is_convertible_basic_impl@AAUcategory@?$basic_file_source@D@iostreams@boost@@Utwo_sequence@detail@34@@detail@boost@@2_NB
CONST	SEGMENT
?value@?$is_convertible_basic_impl@AAUcategory@?$basic_file_source@D@iostreams@boost@@Utwo_sequence@detail@34@@detail@boost@@2_NB DB 00H ; boost::detail::is_convertible_basic_impl<boost::iostreams::basic_file_source<char>::category &,boost::iostreams::detail::two_sequence>::value
CONST	ENDS
;	COMDAT ?value@?$impl@U?$basic_file_source@D@iostreams@boost@@@is_filtering_wstreambuf_impl_impl_@detail@iostreams@boost@@2_NB
CONST	SEGMENT
?value@?$impl@U?$basic_file_source@D@iostreams@boost@@@is_filtering_wstreambuf_impl_impl_@detail@iostreams@boost@@2_NB DB 00H ; boost::iostreams::detail::is_filtering_wstreambuf_impl_impl_::impl<boost::iostreams::basic_file_source<char> >::value
CONST	ENDS
;	COMDAT ?value@?$impl@U?$basic_file_source@D@iostreams@boost@@@is_filtering_streambuf_impl_impl_@detail@iostreams@boost@@2_NB
CONST	SEGMENT
?value@?$impl@U?$basic_file_source@D@iostreams@boost@@@is_filtering_streambuf_impl_impl_@detail@iostreams@boost@@2_NB DB 00H ; boost::iostreams::detail::is_filtering_streambuf_impl_impl_::impl<boost::iostreams::basic_file_source<char> >::value
CONST	ENDS
;	COMDAT ?value@?$impl@U?$basic_file_source@D@iostreams@boost@@@is_filtering_wstream_impl_impl_@detail@iostreams@boost@@2_NB
CONST	SEGMENT
?value@?$impl@U?$basic_file_source@D@iostreams@boost@@@is_filtering_wstream_impl_impl_@detail@iostreams@boost@@2_NB DB 00H ; boost::iostreams::detail::is_filtering_wstream_impl_impl_::impl<boost::iostreams::basic_file_source<char> >::value
CONST	ENDS
;	COMDAT ?value@?$impl@U?$basic_file_source@D@iostreams@boost@@@is_filtering_stream_impl_impl_@detail@iostreams@boost@@2_NB
CONST	SEGMENT
?value@?$impl@U?$basic_file_source@D@iostreams@boost@@@is_filtering_stream_impl_impl_@detail@iostreams@boost@@2_NB DB 00H ; boost::iostreams::detail::is_filtering_stream_impl_impl_::impl<boost::iostreams::basic_file_source<char> >::value
CONST	ENDS
;	COMDAT ?value@?$impl@U?$basic_file_source@D@iostreams@boost@@@is_boost_stream_buffer_impl_@detail@iostreams@boost@@2_NB
CONST	SEGMENT
?value@?$impl@U?$basic_file_source@D@iostreams@boost@@@is_boost_stream_buffer_impl_@detail@iostreams@boost@@2_NB DB 00H ; boost::iostreams::detail::is_boost_stream_buffer_impl_::impl<boost::iostreams::basic_file_source<char> >::value
CONST	ENDS
;	COMDAT ?value@?$impl@U?$basic_file_source@D@iostreams@boost@@@is_boost_stream_impl_@detail@iostreams@boost@@2_NB
CONST	SEGMENT
?value@?$impl@U?$basic_file_source@D@iostreams@boost@@@is_boost_stream_impl_@detail@iostreams@boost@@2_NB DB 00H ; boost::iostreams::detail::is_boost_stream_impl_::impl<boost::iostreams::basic_file_source<char> >::value
CONST	ENDS
;	COMDAT ?value@?$is_convertible_impl@Ucategory@?$basic_file_source@D@iostreams@boost@@Uclosable_tag@34@@detail@boost@@2_NB
CONST	SEGMENT
?value@?$is_convertible_impl@Ucategory@?$basic_file_source@D@iostreams@boost@@Uclosable_tag@34@@detail@boost@@2_NB DB 01H ; boost::detail::is_convertible_impl<boost::iostreams::basic_file_source<char>::category,boost::iostreams::closable_tag>::value
CONST	ENDS
;	COMDAT ?value@?$is_convertible_basic_impl@AAUcategory@?$basic_file_source@D@iostreams@boost@@Uclosable_tag@34@@detail@boost@@2_NB
CONST	SEGMENT
?value@?$is_convertible_basic_impl@AAUcategory@?$basic_file_source@D@iostreams@boost@@Uclosable_tag@34@@detail@boost@@2_NB DB 01H ; boost::detail::is_convertible_basic_impl<boost::iostreams::basic_file_source<char>::category &,boost::iostreams::closable_tag>::value
CONST	ENDS
;	COMDAT ?value@?$is_convertible_impl@Ucategory@?$basic_file_source@D@iostreams@boost@@Uistream_tag@34@@detail@boost@@2_NB
CONST	SEGMENT
?value@?$is_convertible_impl@Ucategory@?$basic_file_source@D@iostreams@boost@@Uistream_tag@34@@detail@boost@@2_NB DB 00H ; boost::detail::is_convertible_impl<boost::iostreams::basic_file_source<char>::category,boost::iostreams::istream_tag>::value
CONST	ENDS
;	COMDAT ?value@?$is_convertible_basic_impl@AAUcategory@?$basic_file_source@D@iostreams@boost@@Uistream_tag@34@@detail@boost@@2_NB
CONST	SEGMENT
?value@?$is_convertible_basic_impl@AAUcategory@?$basic_file_source@D@iostreams@boost@@Uistream_tag@34@@detail@boost@@2_NB DB 00H ; boost::detail::is_convertible_basic_impl<boost::iostreams::basic_file_source<char>::category &,boost::iostreams::istream_tag>::value
CONST	ENDS
;	COMDAT ?value@?$is_convertible_impl@Ucategory@?$basic_file_source@D@iostreams@boost@@Uflushable_tag@34@@detail@boost@@2_NB
CONST	SEGMENT
?value@?$is_convertible_impl@Ucategory@?$basic_file_source@D@iostreams@boost@@Uflushable_tag@34@@detail@boost@@2_NB DB 00H ; boost::detail::is_convertible_impl<boost::iostreams::basic_file_source<char>::category,boost::iostreams::flushable_tag>::value
CONST	ENDS
;	COMDAT ?value@?$is_convertible_basic_impl@AAUcategory@?$basic_file_source@D@iostreams@boost@@Uflushable_tag@34@@detail@boost@@2_NB
CONST	SEGMENT
?value@?$is_convertible_basic_impl@AAUcategory@?$basic_file_source@D@iostreams@boost@@Uflushable_tag@34@@detail@boost@@2_NB DB 00H ; boost::detail::is_convertible_basic_impl<boost::iostreams::basic_file_source<char>::category &,boost::iostreams::flushable_tag>::value
CONST	ENDS
;	COMDAT ?value@?$is_convertible_impl@Ucategory@?$basic_file_source@D@iostreams@boost@@Uostream_tag@34@@detail@boost@@2_NB
CONST	SEGMENT
?value@?$is_convertible_impl@Ucategory@?$basic_file_source@D@iostreams@boost@@Uostream_tag@34@@detail@boost@@2_NB DB 00H ; boost::detail::is_convertible_impl<boost::iostreams::basic_file_source<char>::category,boost::iostreams::ostream_tag>::value
CONST	ENDS
;	COMDAT ?value@?$is_convertible_basic_impl@AAUcategory@?$basic_file_source@D@iostreams@boost@@Uostream_tag@34@@detail@boost@@2_NB
CONST	SEGMENT
?value@?$is_convertible_basic_impl@AAUcategory@?$basic_file_source@D@iostreams@boost@@Uostream_tag@34@@detail@boost@@2_NB DB 00H ; boost::detail::is_convertible_basic_impl<boost::iostreams::basic_file_source<char>::category &,boost::iostreams::ostream_tag>::value
CONST	ENDS
;	COMDAT ?value@?$is_convertible_impl@Ucategory@?$basic_null_device@DUinput@iostreams@boost@@@iostreams@boost@@Utwo_sequence@detail@34@@detail@boost@@2_NB
CONST	SEGMENT
?value@?$is_convertible_impl@Ucategory@?$basic_null_device@DUinput@iostreams@boost@@@iostreams@boost@@Utwo_sequence@detail@34@@detail@boost@@2_NB DB 00H ; boost::detail::is_convertible_impl<boost::iostreams::basic_null_device<char,boost::iostreams::input>::category,boost::iostreams::detail::two_sequence>::value
CONST	ENDS
;	COMDAT ?value@?$is_convertible_basic_impl@AAUcategory@?$basic_null_device@DUinput@iostreams@boost@@@iostreams@boost@@Utwo_sequence@detail@34@@detail@boost@@2_NB
CONST	SEGMENT
?value@?$is_convertible_basic_impl@AAUcategory@?$basic_null_device@DUinput@iostreams@boost@@@iostreams@boost@@Utwo_sequence@detail@34@@detail@boost@@2_NB DB 00H ; boost::detail::is_convertible_basic_impl<boost::iostreams::basic_null_device<char,boost::iostreams::input>::category &,boost::iostreams::detail::two_sequence>::value
CONST	ENDS
;	COMDAT ?value@?$impl@V?$basic_null_device@DUinput@iostreams@boost@@@iostreams@boost@@@is_filtering_wstreambuf_impl_impl_@detail@iostreams@boost@@2_NB
CONST	SEGMENT
?value@?$impl@V?$basic_null_device@DUinput@iostreams@boost@@@iostreams@boost@@@is_filtering_wstreambuf_impl_impl_@detail@iostreams@boost@@2_NB DB 00H ; boost::iostreams::detail::is_filtering_wstreambuf_impl_impl_::impl<boost::iostreams::basic_null_device<char,boost::iostreams::input> >::value
CONST	ENDS
;	COMDAT ?value@?$impl@V?$basic_null_device@DUinput@iostreams@boost@@@iostreams@boost@@@is_filtering_streambuf_impl_impl_@detail@iostreams@boost@@2_NB
CONST	SEGMENT
?value@?$impl@V?$basic_null_device@DUinput@iostreams@boost@@@iostreams@boost@@@is_filtering_streambuf_impl_impl_@detail@iostreams@boost@@2_NB DB 00H ; boost::iostreams::detail::is_filtering_streambuf_impl_impl_::impl<boost::iostreams::basic_null_device<char,boost::iostreams::input> >::value
CONST	ENDS
;	COMDAT ?value@?$impl@V?$basic_null_device@DUinput@iostreams@boost@@@iostreams@boost@@@is_filtering_wstream_impl_impl_@detail@iostreams@boost@@2_NB
CONST	SEGMENT
?value@?$impl@V?$basic_null_device@DUinput@iostreams@boost@@@iostreams@boost@@@is_filtering_wstream_impl_impl_@detail@iostreams@boost@@2_NB DB 00H ; boost::iostreams::detail::is_filtering_wstream_impl_impl_::impl<boost::iostreams::basic_null_device<char,boost::iostreams::input> >::value
CONST	ENDS
;	COMDAT ?value@?$impl@V?$basic_null_device@DUinput@iostreams@boost@@@iostreams@boost@@@is_filtering_stream_impl_impl_@detail@iostreams@boost@@2_NB
CONST	SEGMENT
?value@?$impl@V?$basic_null_device@DUinput@iostreams@boost@@@iostreams@boost@@@is_filtering_stream_impl_impl_@detail@iostreams@boost@@2_NB DB 00H ; boost::iostreams::detail::is_filtering_stream_impl_impl_::impl<boost::iostreams::basic_null_device<char,boost::iostreams::input> >::value
CONST	ENDS
;	COMDAT ?value@?$impl@V?$basic_null_device@DUinput@iostreams@boost@@@iostreams@boost@@@is_boost_stream_buffer_impl_@detail@iostreams@boost@@2_NB
CONST	SEGMENT
?value@?$impl@V?$basic_null_device@DUinput@iostreams@boost@@@iostreams@boost@@@is_boost_stream_buffer_impl_@detail@iostreams@boost@@2_NB DB 00H ; boost::iostreams::detail::is_boost_stream_buffer_impl_::impl<boost::iostreams::basic_null_device<char,boost::iostreams::input> >::value
CONST	ENDS
;	COMDAT ?value@?$impl@V?$basic_null_device@DUinput@iostreams@boost@@@iostreams@boost@@@is_boost_stream_impl_@detail@iostreams@boost@@2_NB
CONST	SEGMENT
?value@?$impl@V?$basic_null_device@DUinput@iostreams@boost@@@iostreams@boost@@@is_boost_stream_impl_@detail@iostreams@boost@@2_NB DB 00H ; boost::iostreams::detail::is_boost_stream_impl_::impl<boost::iostreams::basic_null_device<char,boost::iostreams::input> >::value
CONST	ENDS
;	COMDAT ?value@?$is_convertible_impl@Ucategory@?$basic_null_device@DUinput@iostreams@boost@@@iostreams@boost@@Uclosable_tag@34@@detail@boost@@2_NB
CONST	SEGMENT
?value@?$is_convertible_impl@Ucategory@?$basic_null_device@DUinput@iostreams@boost@@@iostreams@boost@@Uclosable_tag@34@@detail@boost@@2_NB DB 01H ; boost::detail::is_convertible_impl<boost::iostreams::basic_null_device<char,boost::iostreams::input>::category,boost::iostreams::closable_tag>::value
CONST	ENDS
;	COMDAT ?value@?$is_convertible_basic_impl@AAUcategory@?$basic_null_device@DUinput@iostreams@boost@@@iostreams@boost@@Uclosable_tag@34@@detail@boost@@2_NB
CONST	SEGMENT
?value@?$is_convertible_basic_impl@AAUcategory@?$basic_null_device@DUinput@iostreams@boost@@@iostreams@boost@@Uclosable_tag@34@@detail@boost@@2_NB DB 01H ; boost::detail::is_convertible_basic_impl<boost::iostreams::basic_null_device<char,boost::iostreams::input>::category &,boost::iostreams::closable_tag>::value
CONST	ENDS
;	COMDAT ?value@?$is_convertible_impl@Ucategory@?$basic_null_device@DUinput@iostreams@boost@@@iostreams@boost@@Uistream_tag@34@@detail@boost@@2_NB
CONST	SEGMENT
?value@?$is_convertible_impl@Ucategory@?$basic_null_device@DUinput@iostreams@boost@@@iostreams@boost@@Uistream_tag@34@@detail@boost@@2_NB DB 00H ; boost::detail::is_convertible_impl<boost::iostreams::basic_null_device<char,boost::iostreams::input>::category,boost::iostreams::istream_tag>::value
CONST	ENDS
;	COMDAT ?value@?$is_convertible_basic_impl@AAUcategory@?$basic_null_device@DUinput@iostreams@boost@@@iostreams@boost@@Uistream_tag@34@@detail@boost@@2_NB
CONST	SEGMENT
?value@?$is_convertible_basic_impl@AAUcategory@?$basic_null_device@DUinput@iostreams@boost@@@iostreams@boost@@Uistream_tag@34@@detail@boost@@2_NB DB 00H ; boost::detail::is_convertible_basic_impl<boost::iostreams::basic_null_device<char,boost::iostreams::input>::category &,boost::iostreams::istream_tag>::value
CONST	ENDS
;	COMDAT ?value@?$is_abstract_imp@Uistream_tag@iostreams@boost@@@detail@boost@@2_NB
CONST	SEGMENT
?value@?$is_abstract_imp@Uistream_tag@iostreams@boost@@@detail@boost@@2_NB DB 00H ; boost::detail::is_abstract_imp<boost::iostreams::istream_tag>::value
CONST	ENDS
;	COMDAT ?value@?$is_arithmetic_impl@Uistream_tag@iostreams@boost@@@detail@boost@@2_NB
CONST	SEGMENT
?value@?$is_arithmetic_impl@Uistream_tag@iostreams@boost@@@detail@boost@@2_NB DB 00H ; boost::detail::is_arithmetic_impl<boost::iostreams::istream_tag>::value
CONST	ENDS
;	COMDAT ?value@?$is_convertible_impl@Ucategory@?$basic_file_source@D@iostreams@boost@@Uany_tag@34@@detail@boost@@2_NB
CONST	SEGMENT
?value@?$is_convertible_impl@Ucategory@?$basic_file_source@D@iostreams@boost@@Uany_tag@34@@detail@boost@@2_NB DB 01H ; boost::detail::is_convertible_impl<boost::iostreams::basic_file_source<char>::category,boost::iostreams::any_tag>::value
CONST	ENDS
;	COMDAT ?value@?$is_convertible_basic_impl@AAUcategory@?$basic_file_source@D@iostreams@boost@@Uany_tag@34@@detail@boost@@2_NB
CONST	SEGMENT
?value@?$is_convertible_basic_impl@AAUcategory@?$basic_file_source@D@iostreams@boost@@Uany_tag@34@@detail@boost@@2_NB DB 01H ; boost::detail::is_convertible_basic_impl<boost::iostreams::basic_file_source<char>::category &,boost::iostreams::any_tag>::value
CONST	ENDS
;	COMDAT ?value@?$is_convertible_impl@Ucategory@?$basic_file_source@D@iostreams@boost@@Ulocalizable_tag@34@@detail@boost@@2_NB
CONST	SEGMENT
?value@?$is_convertible_impl@Ucategory@?$basic_file_source@D@iostreams@boost@@Ulocalizable_tag@34@@detail@boost@@2_NB DB 00H ; boost::detail::is_convertible_impl<boost::iostreams::basic_file_source<char>::category,boost::iostreams::localizable_tag>::value
CONST	ENDS
;	COMDAT ?value@?$is_convertible_basic_impl@AAUcategory@?$basic_file_source@D@iostreams@boost@@Ulocalizable_tag@34@@detail@boost@@2_NB
CONST	SEGMENT
?value@?$is_convertible_basic_impl@AAUcategory@?$basic_file_source@D@iostreams@boost@@Ulocalizable_tag@34@@detail@boost@@2_NB DB 00H ; boost::detail::is_convertible_basic_impl<boost::iostreams::basic_file_source<char>::category &,boost::iostreams::localizable_tag>::value
CONST	ENDS
;	COMDAT ?value@?$is_convertible_impl@Ucategory@?$basic_file_source@D@iostreams@boost@@Ustreambuf_tag@34@@detail@boost@@2_NB
CONST	SEGMENT
?value@?$is_convertible_impl@Ucategory@?$basic_file_source@D@iostreams@boost@@Ustreambuf_tag@34@@detail@boost@@2_NB DB 00H ; boost::detail::is_convertible_impl<boost::iostreams::basic_file_source<char>::category,boost::iostreams::streambuf_tag>::value
CONST	ENDS
;	COMDAT ?value@?$is_convertible_basic_impl@AAUcategory@?$basic_file_source@D@iostreams@boost@@Ustreambuf_tag@34@@detail@boost@@2_NB
CONST	SEGMENT
?value@?$is_convertible_basic_impl@AAUcategory@?$basic_file_source@D@iostreams@boost@@Ustreambuf_tag@34@@detail@boost@@2_NB DB 00H ; boost::detail::is_convertible_basic_impl<boost::iostreams::basic_file_source<char>::category &,boost::iostreams::streambuf_tag>::value
CONST	ENDS
;	COMDAT ?value@?$is_convertible_impl@Ucategory@?$basic_null_device@DUinput@iostreams@boost@@@iostreams@boost@@Uflushable_tag@34@@detail@boost@@2_NB
CONST	SEGMENT
?value@?$is_convertible_impl@Ucategory@?$basic_null_device@DUinput@iostreams@boost@@@iostreams@boost@@Uflushable_tag@34@@detail@boost@@2_NB DB 00H ; boost::detail::is_convertible_impl<boost::iostreams::basic_null_device<char,boost::iostreams::input>::category,boost::iostreams::flushable_tag>::value
CONST	ENDS
;	COMDAT ?value@?$is_convertible_basic_impl@AAUcategory@?$basic_null_device@DUinput@iostreams@boost@@@iostreams@boost@@Uflushable_tag@34@@detail@boost@@2_NB
CONST	SEGMENT
?value@?$is_convertible_basic_impl@AAUcategory@?$basic_null_device@DUinput@iostreams@boost@@@iostreams@boost@@Uflushable_tag@34@@detail@boost@@2_NB DB 00H ; boost::detail::is_convertible_basic_impl<boost::iostreams::basic_null_device<char,boost::iostreams::input>::category &,boost::iostreams::flushable_tag>::value
CONST	ENDS
;	COMDAT ?value@?$is_abstract_imp@Uflushable_tag@iostreams@boost@@@detail@boost@@2_NB
CONST	SEGMENT
?value@?$is_abstract_imp@Uflushable_tag@iostreams@boost@@@detail@boost@@2_NB DB 00H ; boost::detail::is_abstract_imp<boost::iostreams::flushable_tag>::value
CONST	ENDS
;	COMDAT ?value@?$is_arithmetic_impl@Uflushable_tag@iostreams@boost@@@detail@boost@@2_NB
CONST	SEGMENT
?value@?$is_arithmetic_impl@Uflushable_tag@iostreams@boost@@@detail@boost@@2_NB DB 00H ; boost::detail::is_arithmetic_impl<boost::iostreams::flushable_tag>::value
CONST	ENDS
;	COMDAT ?value@?$is_convertible_impl@Ucategory@?$basic_null_device@DUinput@iostreams@boost@@@iostreams@boost@@Uostream_tag@34@@detail@boost@@2_NB
CONST	SEGMENT
?value@?$is_convertible_impl@Ucategory@?$basic_null_device@DUinput@iostreams@boost@@@iostreams@boost@@Uostream_tag@34@@detail@boost@@2_NB DB 00H ; boost::detail::is_convertible_impl<boost::iostreams::basic_null_device<char,boost::iostreams::input>::category,boost::iostreams::ostream_tag>::value
CONST	ENDS
;	COMDAT ?value@?$is_convertible_basic_impl@AAUcategory@?$basic_null_device@DUinput@iostreams@boost@@@iostreams@boost@@Uostream_tag@34@@detail@boost@@2_NB
CONST	SEGMENT
?value@?$is_convertible_basic_impl@AAUcategory@?$basic_null_device@DUinput@iostreams@boost@@@iostreams@boost@@Uostream_tag@34@@detail@boost@@2_NB DB 00H ; boost::detail::is_convertible_basic_impl<boost::iostreams::basic_null_device<char,boost::iostreams::input>::category &,boost::iostreams::ostream_tag>::value
CONST	ENDS
;	COMDAT ?value@?$is_abstract_imp@Uostream_tag@iostreams@boost@@@detail@boost@@2_NB
CONST	SEGMENT
?value@?$is_abstract_imp@Uostream_tag@iostreams@boost@@@detail@boost@@2_NB DB 00H ; boost::detail::is_abstract_imp<boost::iostreams::ostream_tag>::value
CONST	ENDS
;	COMDAT ?value@?$is_arithmetic_impl@Uostream_tag@iostreams@boost@@@detail@boost@@2_NB
CONST	SEGMENT
?value@?$is_arithmetic_impl@Uostream_tag@iostreams@boost@@@detail@boost@@2_NB DB 00H ; boost::detail::is_arithmetic_impl<boost::iostreams::ostream_tag>::value
CONST	ENDS
;	COMDAT ?value@?$is_convertible_impl@Ucategory@?$basic_null_device@DUinput@iostreams@boost@@@iostreams@boost@@Uany_tag@34@@detail@boost@@2_NB
CONST	SEGMENT
?value@?$is_convertible_impl@Ucategory@?$basic_null_device@DUinput@iostreams@boost@@@iostreams@boost@@Uany_tag@34@@detail@boost@@2_NB DB 01H ; boost::detail::is_convertible_impl<boost::iostreams::basic_null_device<char,boost::iostreams::input>::category,boost::iostreams::any_tag>::value
CONST	ENDS
;	COMDAT ?value@?$is_convertible_basic_impl@AAUcategory@?$basic_null_device@DUinput@iostreams@boost@@@iostreams@boost@@Uany_tag@34@@detail@boost@@2_NB
CONST	SEGMENT
?value@?$is_convertible_basic_impl@AAUcategory@?$basic_null_device@DUinput@iostreams@boost@@@iostreams@boost@@Uany_tag@34@@detail@boost@@2_NB DB 01H ; boost::detail::is_convertible_basic_impl<boost::iostreams::basic_null_device<char,boost::iostreams::input>::category &,boost::iostreams::any_tag>::value
CONST	ENDS
;	COMDAT ?value@?$is_abstract_imp@Uany_tag@iostreams@boost@@@detail@boost@@2_NB
CONST	SEGMENT
?value@?$is_abstract_imp@Uany_tag@iostreams@boost@@@detail@boost@@2_NB DB 00H ; boost::detail::is_abstract_imp<boost::iostreams::any_tag>::value
CONST	ENDS
;	COMDAT ?value@?$is_arithmetic_impl@Uany_tag@iostreams@boost@@@detail@boost@@2_NB
CONST	SEGMENT
?value@?$is_arithmetic_impl@Uany_tag@iostreams@boost@@@detail@boost@@2_NB DB 00H ; boost::detail::is_arithmetic_impl<boost::iostreams::any_tag>::value
CONST	ENDS
;	COMDAT ?value@?$is_convertible_impl@Ucategory@?$basic_null_device@DUinput@iostreams@boost@@@iostreams@boost@@Ulocalizable_tag@34@@detail@boost@@2_NB
CONST	SEGMENT
?value@?$is_convertible_impl@Ucategory@?$basic_null_device@DUinput@iostreams@boost@@@iostreams@boost@@Ulocalizable_tag@34@@detail@boost@@2_NB DB 00H ; boost::detail::is_convertible_impl<boost::iostreams::basic_null_device<char,boost::iostreams::input>::category,boost::iostreams::localizable_tag>::value
CONST	ENDS
;	COMDAT ?value@?$is_convertible_basic_impl@AAUcategory@?$basic_null_device@DUinput@iostreams@boost@@@iostreams@boost@@Ulocalizable_tag@34@@detail@boost@@2_NB
CONST	SEGMENT
?value@?$is_convertible_basic_impl@AAUcategory@?$basic_null_device@DUinput@iostreams@boost@@@iostreams@boost@@Ulocalizable_tag@34@@detail@boost@@2_NB DB 00H ; boost::detail::is_convertible_basic_impl<boost::iostreams::basic_null_device<char,boost::iostreams::input>::category &,boost::iostreams::localizable_tag>::value
CONST	ENDS
;	COMDAT ?value@?$is_abstract_imp@Ulocalizable_tag@iostreams@boost@@@detail@boost@@2_NB
CONST	SEGMENT
?value@?$is_abstract_imp@Ulocalizable_tag@iostreams@boost@@@detail@boost@@2_NB DB 00H ; boost::detail::is_abstract_imp<boost::iostreams::localizable_tag>::value
CONST	ENDS
;	COMDAT ?value@?$is_arithmetic_impl@Ulocalizable_tag@iostreams@boost@@@detail@boost@@2_NB
CONST	SEGMENT
?value@?$is_arithmetic_impl@Ulocalizable_tag@iostreams@boost@@@detail@boost@@2_NB DB 00H ; boost::detail::is_arithmetic_impl<boost::iostreams::localizable_tag>::value
CONST	ENDS
;	COMDAT ?value@?$is_convertible_impl@Ucategory@?$basic_null_device@DUinput@iostreams@boost@@@iostreams@boost@@Ustreambuf_tag@34@@detail@boost@@2_NB
CONST	SEGMENT
?value@?$is_convertible_impl@Ucategory@?$basic_null_device@DUinput@iostreams@boost@@@iostreams@boost@@Ustreambuf_tag@34@@detail@boost@@2_NB DB 00H ; boost::detail::is_convertible_impl<boost::iostreams::basic_null_device<char,boost::iostreams::input>::category,boost::iostreams::streambuf_tag>::value
CONST	ENDS
;	COMDAT ?value@?$is_convertible_basic_impl@AAUcategory@?$basic_null_device@DUinput@iostreams@boost@@@iostreams@boost@@Ustreambuf_tag@34@@detail@boost@@2_NB
CONST	SEGMENT
?value@?$is_convertible_basic_impl@AAUcategory@?$basic_null_device@DUinput@iostreams@boost@@@iostreams@boost@@Ustreambuf_tag@34@@detail@boost@@2_NB DB 00H ; boost::detail::is_convertible_basic_impl<boost::iostreams::basic_null_device<char,boost::iostreams::input>::category &,boost::iostreams::streambuf_tag>::value
CONST	ENDS
;	COMDAT ?value@?$is_abstract_imp@Ustreambuf_tag@iostreams@boost@@@detail@boost@@2_NB
CONST	SEGMENT
?value@?$is_abstract_imp@Ustreambuf_tag@iostreams@boost@@@detail@boost@@2_NB DB 00H ; boost::detail::is_abstract_imp<boost::iostreams::streambuf_tag>::value
CONST	ENDS
;	COMDAT ?value@?$is_arithmetic_impl@Ustreambuf_tag@iostreams@boost@@@detail@boost@@2_NB
CONST	SEGMENT
?value@?$is_arithmetic_impl@Ustreambuf_tag@iostreams@boost@@@detail@boost@@2_NB DB 00H ; boost::detail::is_arithmetic_impl<boost::iostreams::streambuf_tag>::value
CONST	ENDS
;	COMDAT ?value@?$is_base_and_derived_impl@Ucustom_tag@detail@iostreams@boost@@U?$operations@V?$basic_null_device@DUinput@iostreams@boost@@@iostreams@boost@@@34@@detail@boost@@2_NB
CONST	SEGMENT
?value@?$is_base_and_derived_impl@Ucustom_tag@detail@iostreams@boost@@U?$operations@V?$basic_null_device@DUinput@iostreams@boost@@@iostreams@boost@@@34@@detail@boost@@2_NB DB 01H ; boost::detail::is_base_and_derived_impl<boost::iostreams::detail::custom_tag,boost::iostreams::operations<boost::iostreams::basic_null_device<char,boost::iostreams::input> > >::value
CONST	ENDS
;	COMDAT ?value@?$is_convertible_impl@Ucategory@?$basic_null_device@DUinput@iostreams@boost@@@iostreams@boost@@Uoptimally_buffered_tag@34@@detail@boost@@2_NB
CONST	SEGMENT
?value@?$is_convertible_impl@Ucategory@?$basic_null_device@DUinput@iostreams@boost@@@iostreams@boost@@Uoptimally_buffered_tag@34@@detail@boost@@2_NB DB 00H ; boost::detail::is_convertible_impl<boost::iostreams::basic_null_device<char,boost::iostreams::input>::category,boost::iostreams::optimally_buffered_tag>::value
CONST	ENDS
;	COMDAT ?value@?$is_convertible_basic_impl@AAUcategory@?$basic_null_device@DUinput@iostreams@boost@@@iostreams@boost@@Uoptimally_buffered_tag@34@@detail@boost@@2_NB
CONST	SEGMENT
?value@?$is_convertible_basic_impl@AAUcategory@?$basic_null_device@DUinput@iostreams@boost@@@iostreams@boost@@Uoptimally_buffered_tag@34@@detail@boost@@2_NB DB 00H ; boost::detail::is_convertible_basic_impl<boost::iostreams::basic_null_device<char,boost::iostreams::input>::category &,boost::iostreams::optimally_buffered_tag>::value
CONST	ENDS
;	COMDAT ?value@?$is_pointer_impl@V?$basic_string@DU?$char_traits@D@std@@V?$allocator@D@2@@std@@@detail@boost@@2_NB
CONST	SEGMENT
?value@?$is_pointer_impl@V?$basic_string@DU?$char_traits@D@std@@V?$allocator@D@2@@std@@@detail@boost@@2_NB DB 00H ; boost::detail::is_pointer_impl<std::basic_string<char,std::char_traits<char>,std::allocator<char> > >::value
CONST	ENDS
;	COMDAT ?value@?$result_@V?$basic_string@DU?$char_traits@D@std@@V?$allocator@D@2@@std@@@?$is_mem_fun_pointer_select@$0A@@detail@boost@@2_NB
CONST	SEGMENT
?value@?$result_@V?$basic_string@DU?$char_traits@D@std@@V?$allocator@D@2@@std@@@?$is_mem_fun_pointer_select@$0A@@detail@boost@@2_NB DB 00H ; boost::detail::is_mem_fun_pointer_select<0>::result_<std::basic_string<char,std::char_traits<char>,std::allocator<char> > >::value
CONST	ENDS
;	COMDAT ?value@?$implementation_level@H@serialization@boost@@2HB
CONST	SEGMENT
?value@?$implementation_level@H@serialization@boost@@2HB DD 01H ; boost::serialization::implementation_level<int>::value
CONST	ENDS
;	COMDAT ?value@?$is_arithmetic_impl@H@detail@boost@@2_NB
CONST	SEGMENT
?value@?$is_arithmetic_impl@H@detail@boost@@2_NB DB 01H	; boost::detail::is_arithmetic_impl<int>::value
CONST	ENDS
;	COMDAT ?value@?$is_base_and_derived_impl@Ubasic_traits@serialization@boost@@H@detail@boost@@2_NB
CONST	SEGMENT
?value@?$is_base_and_derived_impl@Ubasic_traits@serialization@boost@@H@detail@boost@@2_NB DB 00H ; boost::detail::is_base_and_derived_impl<boost::serialization::basic_traits,int>::value
CONST	ENDS
;	COMDAT ?value@?$is_pointer_impl@H@detail@boost@@2_NB
CONST	SEGMENT
?value@?$is_pointer_impl@H@detail@boost@@2_NB DB 00H	; boost::detail::is_pointer_impl<int>::value
CONST	ENDS
;	COMDAT ?value@?$result_@H@?$is_mem_fun_pointer_select@$0A@@detail@boost@@2_NB
CONST	SEGMENT
?value@?$result_@H@?$is_mem_fun_pointer_select@$0A@@detail@boost@@2_NB DB 00H ; boost::detail::is_mem_fun_pointer_select<0>::result_<int>::value
CONST	ENDS
;	COMDAT ?value@?$is_pointer_helper@H@detail@boost@@2_NB
CONST	SEGMENT
?value@?$is_pointer_helper@H@detail@boost@@2_NB DB 00H	; boost::detail::is_pointer_helper<int>::value
CONST	ENDS
;	COMDAT ?value@?$implementation_level@I@serialization@boost@@2HB
CONST	SEGMENT
?value@?$implementation_level@I@serialization@boost@@2HB DD 01H ; boost::serialization::implementation_level<unsigned int>::value
CONST	ENDS
;	COMDAT ?value@?$is_arithmetic_impl@I@detail@boost@@2_NB
CONST	SEGMENT
?value@?$is_arithmetic_impl@I@detail@boost@@2_NB DB 01H	; boost::detail::is_arithmetic_impl<unsigned int>::value
CONST	ENDS
;	COMDAT ?value@?$is_base_and_derived_impl@Ubasic_traits@serialization@boost@@I@detail@boost@@2_NB
CONST	SEGMENT
?value@?$is_base_and_derived_impl@Ubasic_traits@serialization@boost@@I@detail@boost@@2_NB DB 00H ; boost::detail::is_base_and_derived_impl<boost::serialization::basic_traits,unsigned int>::value
CONST	ENDS
;	COMDAT ?value@?$is_pointer_impl@I@detail@boost@@2_NB
CONST	SEGMENT
?value@?$is_pointer_impl@I@detail@boost@@2_NB DB 00H	; boost::detail::is_pointer_impl<unsigned int>::value
CONST	ENDS
;	COMDAT ?value@?$result_@I@?$is_mem_fun_pointer_select@$0A@@detail@boost@@2_NB
CONST	SEGMENT
?value@?$result_@I@?$is_mem_fun_pointer_select@$0A@@detail@boost@@2_NB DB 00H ; boost::detail::is_mem_fun_pointer_select<0>::result_<unsigned int>::value
CONST	ENDS
;	COMDAT ?value@?$is_pointer_helper@I@detail@boost@@2_NB
CONST	SEGMENT
?value@?$is_pointer_helper@I@detail@boost@@2_NB DB 00H	; boost::detail::is_pointer_helper<unsigned int>::value
CONST	ENDS
;	COMDAT ?value@?$is_pointer_impl@Uclass_id_type@archive@boost@@@detail@boost@@2_NB
CONST	SEGMENT
?value@?$is_pointer_impl@Uclass_id_type@archive@boost@@@detail@boost@@2_NB DB 00H ; boost::detail::is_pointer_impl<boost::archive::class_id_type>::value
CONST	ENDS
;	COMDAT ?value@?$result_@Uclass_id_type@archive@boost@@@?$is_mem_fun_pointer_select@$0A@@detail@boost@@2_NB
CONST	SEGMENT
?value@?$result_@Uclass_id_type@archive@boost@@@?$is_mem_fun_pointer_select@$0A@@detail@boost@@2_NB DB 00H ; boost::detail::is_mem_fun_pointer_select<0>::result_<boost::archive::class_id_type>::value
CONST	ENDS
;	COMDAT ?value@?$is_pointer_helper@Uclass_id_type@archive@boost@@@detail@boost@@2_NB
CONST	SEGMENT
?value@?$is_pointer_helper@Uclass_id_type@archive@boost@@@detail@boost@@2_NB DB 00H ; boost::detail::is_pointer_helper<boost::archive::class_id_type>::value
CONST	ENDS
;	COMDAT ?is_volatile@?$cv_traits_imp@PAUclass_id_type@archive@boost@@@detail@boost@@2_NB
CONST	SEGMENT
?is_volatile@?$cv_traits_imp@PAUclass_id_type@archive@boost@@@detail@boost@@2_NB DB 00H ; boost::detail::cv_traits_imp<boost::archive::class_id_type *>::is_volatile
CONST	ENDS
;	COMDAT ?is_const@?$cv_traits_imp@PAUclass_id_type@archive@boost@@@detail@boost@@2_NB
CONST	SEGMENT
?is_const@?$cv_traits_imp@PAUclass_id_type@archive@boost@@@detail@boost@@2_NB DB 00H ; boost::detail::cv_traits_imp<boost::archive::class_id_type *>::is_const
CONST	ENDS
;	COMDAT ?value@?$is_pointer_impl@Uobject_id_type@archive@boost@@@detail@boost@@2_NB
CONST	SEGMENT
?value@?$is_pointer_impl@Uobject_id_type@archive@boost@@@detail@boost@@2_NB DB 00H ; boost::detail::is_pointer_impl<boost::archive::object_id_type>::value
CONST	ENDS
;	COMDAT ?value@?$result_@Uobject_id_type@archive@boost@@@?$is_mem_fun_pointer_select@$0A@@detail@boost@@2_NB
CONST	SEGMENT
?value@?$result_@Uobject_id_type@archive@boost@@@?$is_mem_fun_pointer_select@$0A@@detail@boost@@2_NB DB 00H ; boost::detail::is_mem_fun_pointer_select<0>::result_<boost::archive::object_id_type>::value
CONST	ENDS
;	COMDAT ?value@?$is_pointer_helper@Uobject_id_type@archive@boost@@@detail@boost@@2_NB
CONST	SEGMENT
?value@?$is_pointer_helper@Uobject_id_type@archive@boost@@@detail@boost@@2_NB DB 00H ; boost::detail::is_pointer_helper<boost::archive::object_id_type>::value
CONST	ENDS
;	COMDAT ?is_volatile@?$cv_traits_imp@PAUobject_id_type@archive@boost@@@detail@boost@@2_NB
CONST	SEGMENT
?is_volatile@?$cv_traits_imp@PAUobject_id_type@archive@boost@@@detail@boost@@2_NB DB 00H ; boost::detail::cv_traits_imp<boost::archive::object_id_type *>::is_volatile
CONST	ENDS
;	COMDAT ?is_const@?$cv_traits_imp@PAUobject_id_type@archive@boost@@@detail@boost@@2_NB
CONST	SEGMENT
?is_const@?$cv_traits_imp@PAUobject_id_type@archive@boost@@@detail@boost@@2_NB DB 00H ; boost::detail::cv_traits_imp<boost::archive::object_id_type *>::is_const
CONST	ENDS
;	COMDAT ?value@?$is_pointer_impl@Uversion_type@archive@boost@@@detail@boost@@2_NB
CONST	SEGMENT
?value@?$is_pointer_impl@Uversion_type@archive@boost@@@detail@boost@@2_NB DB 00H ; boost::detail::is_pointer_impl<boost::archive::version_type>::value
CONST	ENDS
;	COMDAT ?value@?$result_@Uversion_type@archive@boost@@@?$is_mem_fun_pointer_select@$0A@@detail@boost@@2_NB
CONST	SEGMENT
?value@?$result_@Uversion_type@archive@boost@@@?$is_mem_fun_pointer_select@$0A@@detail@boost@@2_NB DB 00H ; boost::detail::is_mem_fun_pointer_select<0>::result_<boost::archive::version_type>::value
CONST	ENDS
;	COMDAT ?value@?$is_pointer_helper@Uversion_type@archive@boost@@@detail@boost@@2_NB
CONST	SEGMENT
?value@?$is_pointer_helper@Uversion_type@archive@boost@@@detail@boost@@2_NB DB 00H ; boost::detail::is_pointer_helper<boost::archive::version_type>::value
CONST	ENDS
;	COMDAT ?is_volatile@?$cv_traits_imp@PAUversion_type@archive@boost@@@detail@boost@@2_NB
CONST	SEGMENT
?is_volatile@?$cv_traits_imp@PAUversion_type@archive@boost@@@detail@boost@@2_NB DB 00H ; boost::detail::cv_traits_imp<boost::archive::version_type *>::is_volatile
CONST	ENDS
;	COMDAT ?is_const@?$cv_traits_imp@PAUversion_type@archive@boost@@@detail@boost@@2_NB
CONST	SEGMENT
?is_const@?$cv_traits_imp@PAUversion_type@archive@boost@@@detail@boost@@2_NB DB 00H ; boost::detail::cv_traits_imp<boost::archive::version_type *>::is_const
CONST	ENDS
;	COMDAT ?value@?$is_convertible_impl@Ucategory@?$basic_file_source@D@iostreams@boost@@Udual_use@34@@detail@boost@@2_NB
CONST	SEGMENT
?value@?$is_convertible_impl@Ucategory@?$basic_file_source@D@iostreams@boost@@Udual_use@34@@detail@boost@@2_NB DB 00H ; boost::detail::is_convertible_impl<boost::iostreams::basic_file_source<char>::category,boost::iostreams::dual_use>::value
CONST	ENDS
;	COMDAT ?value@?$is_convertible_basic_impl@AAUcategory@?$basic_file_source@D@iostreams@boost@@Udual_use@34@@detail@boost@@2_NB
CONST	SEGMENT
?value@?$is_convertible_basic_impl@AAUcategory@?$basic_file_source@D@iostreams@boost@@Udual_use@34@@detail@boost@@2_NB DB 00H ; boost::detail::is_convertible_basic_impl<boost::iostreams::basic_file_source<char>::category &,boost::iostreams::dual_use>::value
CONST	ENDS
;	COMDAT ?value@?$is_base_and_derived_impl@Ucustom_tag@detail@iostreams@boost@@U?$operations@U?$basic_file_source@D@iostreams@boost@@@34@@detail@boost@@2_NB
CONST	SEGMENT
?value@?$is_base_and_derived_impl@Ucustom_tag@detail@iostreams@boost@@U?$operations@U?$basic_file_source@D@iostreams@boost@@@34@@detail@boost@@2_NB DB 01H ; boost::detail::is_base_and_derived_impl<boost::iostreams::detail::custom_tag,boost::iostreams::operations<boost::iostreams::basic_file_source<char> > >::value
CONST	ENDS
;	COMDAT ?value@?$is_convertible_impl@Ucategory@?$basic_file_source@D@iostreams@boost@@Uoptimally_buffered_tag@34@@detail@boost@@2_NB
CONST	SEGMENT
?value@?$is_convertible_impl@Ucategory@?$basic_file_source@D@iostreams@boost@@Uoptimally_buffered_tag@34@@detail@boost@@2_NB DB 00H ; boost::detail::is_convertible_impl<boost::iostreams::basic_file_source<char>::category,boost::iostreams::optimally_buffered_tag>::value
CONST	ENDS
;	COMDAT ?value@?$is_convertible_basic_impl@AAUcategory@?$basic_file_source@D@iostreams@boost@@Uoptimally_buffered_tag@34@@detail@boost@@2_NB
CONST	SEGMENT
?value@?$is_convertible_basic_impl@AAUcategory@?$basic_file_source@D@iostreams@boost@@Uoptimally_buffered_tag@34@@detail@boost@@2_NB DB 00H ; boost::detail::is_convertible_basic_impl<boost::iostreams::basic_file_source<char>::category &,boost::iostreams::optimally_buffered_tag>::value
CONST	ENDS
;	COMDAT ?value@?$is_abstract_imp@Uoptimally_buffered_tag@iostreams@boost@@@detail@boost@@2_NB
CONST	SEGMENT
?value@?$is_abstract_imp@Uoptimally_buffered_tag@iostreams@boost@@@detail@boost@@2_NB DB 00H ; boost::detail::is_abstract_imp<boost::iostreams::optimally_buffered_tag>::value
CONST	ENDS
;	COMDAT ?value@?$is_arithmetic_impl@Uoptimally_buffered_tag@iostreams@boost@@@detail@boost@@2_NB
CONST	SEGMENT
?value@?$is_arithmetic_impl@Uoptimally_buffered_tag@iostreams@boost@@@detail@boost@@2_NB DB 00H ; boost::detail::is_arithmetic_impl<boost::iostreams::optimally_buffered_tag>::value
CONST	ENDS
;	COMDAT ?value@?$impl@$$CBU?$basic_file_source@D@iostreams@boost@@@is_streambuf_impl_@iostreams@boost@@2_NB
CONST	SEGMENT
?value@?$impl@$$CBU?$basic_file_source@D@iostreams@boost@@@is_streambuf_impl_@iostreams@boost@@2_NB DB 00H ; boost::iostreams::is_streambuf_impl_::impl<boost::iostreams::basic_file_source<char> const >::value
CONST	ENDS
;	COMDAT ?value@?$impl@$$CBU?$basic_file_source@D@iostreams@boost@@@is_ostream_impl_@iostreams@boost@@2_NB
CONST	SEGMENT
?value@?$impl@$$CBU?$basic_file_source@D@iostreams@boost@@@is_ostream_impl_@iostreams@boost@@2_NB DB 00H ; boost::iostreams::is_ostream_impl_::impl<boost::iostreams::basic_file_source<char> const >::value
CONST	ENDS
;	COMDAT ?value@?$impl@$$CBU?$basic_file_source@D@iostreams@boost@@@is_istream_impl_@iostreams@boost@@2_NB
CONST	SEGMENT
?value@?$impl@$$CBU?$basic_file_source@D@iostreams@boost@@@is_istream_impl_@iostreams@boost@@2_NB DB 00H ; boost::iostreams::is_istream_impl_::impl<boost::iostreams::basic_file_source<char> const >::value
CONST	ENDS
;	COMDAT ?value@?$is_convertible_impl@Uinput@iostreams@boost@@Useekable@23@@detail@boost@@2_NB
CONST	SEGMENT
?value@?$is_convertible_impl@Uinput@iostreams@boost@@Useekable@23@@detail@boost@@2_NB DB 00H ; boost::detail::is_convertible_impl<boost::iostreams::input,boost::iostreams::seekable>::value
CONST	ENDS
;	COMDAT ?value@?$is_convertible_basic_impl@AAUinput@iostreams@boost@@Useekable@23@@detail@boost@@2_NB
CONST	SEGMENT
?value@?$is_convertible_basic_impl@AAUinput@iostreams@boost@@Useekable@23@@detail@boost@@2_NB DB 00H ; boost::detail::is_convertible_basic_impl<boost::iostreams::input &,boost::iostreams::seekable>::value
CONST	ENDS
;	COMDAT ?value@?$is_abstract_imp@Useekable@iostreams@boost@@@detail@boost@@2_NB
CONST	SEGMENT
?value@?$is_abstract_imp@Useekable@iostreams@boost@@@detail@boost@@2_NB DB 00H ; boost::detail::is_abstract_imp<boost::iostreams::seekable>::value
CONST	ENDS
;	COMDAT ?value@?$is_arithmetic_impl@Useekable@iostreams@boost@@@detail@boost@@2_NB
CONST	SEGMENT
?value@?$is_arithmetic_impl@Useekable@iostreams@boost@@@detail@boost@@2_NB DB 00H ; boost::detail::is_arithmetic_impl<boost::iostreams::seekable>::value
CONST	ENDS
;	COMDAT ?value@?$is_convertible_impl@Ucategory@?$basic_null_device@DUinput@iostreams@boost@@@iostreams@boost@@Udual_use@34@@detail@boost@@2_NB
CONST	SEGMENT
?value@?$is_convertible_impl@Ucategory@?$basic_null_device@DUinput@iostreams@boost@@@iostreams@boost@@Udual_use@34@@detail@boost@@2_NB DB 00H ; boost::detail::is_convertible_impl<boost::iostreams::basic_null_device<char,boost::iostreams::input>::category,boost::iostreams::dual_use>::value
CONST	ENDS
;	COMDAT ?value@?$is_convertible_basic_impl@AAUcategory@?$basic_null_device@DUinput@iostreams@boost@@@iostreams@boost@@Udual_use@34@@detail@boost@@2_NB
CONST	SEGMENT
?value@?$is_convertible_basic_impl@AAUcategory@?$basic_null_device@DUinput@iostreams@boost@@@iostreams@boost@@Udual_use@34@@detail@boost@@2_NB DB 00H ; boost::detail::is_convertible_basic_impl<boost::iostreams::basic_null_device<char,boost::iostreams::input>::category &,boost::iostreams::dual_use>::value
CONST	ENDS
;	COMDAT ?value@?$is_abstract_imp@Udual_use@iostreams@boost@@@detail@boost@@2_NB
CONST	SEGMENT
?value@?$is_abstract_imp@Udual_use@iostreams@boost@@@detail@boost@@2_NB DB 00H ; boost::detail::is_abstract_imp<boost::iostreams::dual_use>::value
CONST	ENDS
;	COMDAT ?value@?$is_arithmetic_impl@Udual_use@iostreams@boost@@@detail@boost@@2_NB
CONST	SEGMENT
?value@?$is_arithmetic_impl@Udual_use@iostreams@boost@@@detail@boost@@2_NB DB 00H ; boost::detail::is_arithmetic_impl<boost::iostreams::dual_use>::value
CONST	ENDS
;	COMDAT ?value@?$has_result_type_impl_@V?$member_close_operation@V?$linked_streambuf@DU?$char_traits@D@std@@@detail@iostreams@boost@@@detail@iostreams@boost@@X@detail@boost@@2_NB
CONST	SEGMENT
?value@?$has_result_type_impl_@V?$member_close_operation@V?$linked_streambuf@DU?$char_traits@D@std@@@detail@iostreams@boost@@@detail@iostreams@boost@@X@detail@boost@@2_NB DB 01H ; boost::detail::has_result_type_impl_<boost::iostreams::detail::member_close_operation<boost::iostreams::detail::linked_streambuf<char,std::char_traits<char> > >,void>::value
CONST	ENDS
;	COMDAT ?value@?$is_pointer_impl@Utracking_type@archive@boost@@@detail@boost@@2_NB
CONST	SEGMENT
?value@?$is_pointer_impl@Utracking_type@archive@boost@@@detail@boost@@2_NB DB 00H ; boost::detail::is_pointer_impl<boost::archive::tracking_type>::value
CONST	ENDS
;	COMDAT ?value@?$result_@Utracking_type@archive@boost@@@?$is_mem_fun_pointer_select@$0A@@detail@boost@@2_NB
CONST	SEGMENT
?value@?$result_@Utracking_type@archive@boost@@@?$is_mem_fun_pointer_select@$0A@@detail@boost@@2_NB DB 00H ; boost::detail::is_mem_fun_pointer_select<0>::result_<boost::archive::tracking_type>::value
CONST	ENDS
;	COMDAT ?value@?$is_pointer_helper@Utracking_type@archive@boost@@@detail@boost@@2_NB
CONST	SEGMENT
?value@?$is_pointer_helper@Utracking_type@archive@boost@@@detail@boost@@2_NB DB 00H ; boost::detail::is_pointer_helper<boost::archive::tracking_type>::value
CONST	ENDS
;	COMDAT ?is_volatile@?$cv_traits_imp@PAUtracking_type@archive@boost@@@detail@boost@@2_NB
CONST	SEGMENT
?is_volatile@?$cv_traits_imp@PAUtracking_type@archive@boost@@@detail@boost@@2_NB DB 00H ; boost::detail::cv_traits_imp<boost::archive::tracking_type *>::is_volatile
CONST	ENDS
;	COMDAT ?is_const@?$cv_traits_imp@PAUtracking_type@archive@boost@@@detail@boost@@2_NB
CONST	SEGMENT
?is_const@?$cv_traits_imp@PAUtracking_type@archive@boost@@@detail@boost@@2_NB DB 00H ; boost::detail::cv_traits_imp<boost::archive::tracking_type *>::is_const
CONST	ENDS
;	COMDAT ?found@?$type_with_alignment_imp@$03@detail@boost@@0IB
CONST	SEGMENT
?found@?$type_with_alignment_imp@$03@detail@boost@@0IB DD 04H ; boost::detail::type_with_alignment_imp<4>::found
CONST	ENDS
;	COMDAT ?value@?$is_aligned@$03$03@detail@boost@@2_NB
CONST	SEGMENT
?value@?$is_aligned@$03$03@detail@boost@@2_NB DB 01H	; boost::detail::is_aligned<4,4>::value
CONST	ENDS
;	COMDAT ?value@?$alignment_of_impl@T?$lower_alignment@$03@detail@boost@@@detail@boost@@2IB
CONST	SEGMENT
?value@?$alignment_of_impl@T?$lower_alignment@$03@detail@boost@@@detail@boost@@2IB DD 04H ; boost::detail::alignment_of_impl<boost::detail::lower_alignment<4> >::value
CONST	ENDS
;	COMDAT ?value@?$alignment_of_impl@V?$concept_adapter@U?$basic_file_source@D@iostreams@boost@@@detail@iostreams@boost@@@detail@boost@@2IB
CONST	SEGMENT
?value@?$alignment_of_impl@V?$concept_adapter@U?$basic_file_source@D@iostreams@boost@@@detail@iostreams@boost@@@detail@boost@@2IB DD 04H ; boost::detail::alignment_of_impl<boost::iostreams::detail::concept_adapter<boost::iostreams::basic_file_source<char> > >::value
CONST	ENDS
;	COMDAT ?value@?$has_trait_impl@U?$basic_file_source@D@iostreams@boost@@Udevice_tag@23@@detail@iostreams@boost@@2_NB
CONST	SEGMENT
?value@?$has_trait_impl@U?$basic_file_source@D@iostreams@boost@@Udevice_tag@23@@detail@iostreams@boost@@2_NB DB 01H ; boost::iostreams::detail::has_trait_impl<boost::iostreams::basic_file_source<char>,boost::iostreams::device_tag>::value
CONST	ENDS
;	COMDAT ?value@?$is_convertible_impl@Ucategory@?$basic_file_source@D@iostreams@boost@@Udevice_tag@34@@detail@boost@@2_NB
CONST	SEGMENT
?value@?$is_convertible_impl@Ucategory@?$basic_file_source@D@iostreams@boost@@Udevice_tag@34@@detail@boost@@2_NB DB 01H ; boost::detail::is_convertible_impl<boost::iostreams::basic_file_source<char>::category,boost::iostreams::device_tag>::value
CONST	ENDS
;	COMDAT ?value@?$is_convertible_basic_impl@AAUcategory@?$basic_file_source@D@iostreams@boost@@Udevice_tag@34@@detail@boost@@2_NB
CONST	SEGMENT
?value@?$is_convertible_basic_impl@AAUcategory@?$basic_file_source@D@iostreams@boost@@Udevice_tag@34@@detail@boost@@2_NB DB 01H ; boost::detail::is_convertible_basic_impl<boost::iostreams::basic_file_source<char>::category &,boost::iostreams::device_tag>::value
CONST	ENDS
;	COMDAT ?value@?$is_convertible_impl@Ucategory@?$basic_file_source@D@iostreams@boost@@Uoutput@34@@detail@boost@@2_NB
CONST	SEGMENT
?value@?$is_convertible_impl@Ucategory@?$basic_file_source@D@iostreams@boost@@Uoutput@34@@detail@boost@@2_NB DB 00H ; boost::detail::is_convertible_impl<boost::iostreams::basic_file_source<char>::category,boost::iostreams::output>::value
CONST	ENDS
;	COMDAT ?value@?$is_convertible_basic_impl@AAUcategory@?$basic_file_source@D@iostreams@boost@@Uoutput@34@@detail@boost@@2_NB
CONST	SEGMENT
?value@?$is_convertible_basic_impl@AAUcategory@?$basic_file_source@D@iostreams@boost@@Uoutput@34@@detail@boost@@2_NB DB 00H ; boost::detail::is_convertible_basic_impl<boost::iostreams::basic_file_source<char>::category &,boost::iostreams::output>::value
CONST	ENDS
;	COMDAT ?value@?$is_convertible_impl@Ucategory@?$basic_file_source@D@iostreams@boost@@Udirect_tag@34@@detail@boost@@2_NB
CONST	SEGMENT
?value@?$is_convertible_impl@Ucategory@?$basic_file_source@D@iostreams@boost@@Udirect_tag@34@@detail@boost@@2_NB DB 00H ; boost::detail::is_convertible_impl<boost::iostreams::basic_file_source<char>::category,boost::iostreams::direct_tag>::value
CONST	ENDS
;	COMDAT ?value@?$is_convertible_basic_impl@AAUcategory@?$basic_file_source@D@iostreams@boost@@Udirect_tag@34@@detail@boost@@2_NB
CONST	SEGMENT
?value@?$is_convertible_basic_impl@AAUcategory@?$basic_file_source@D@iostreams@boost@@Udirect_tag@34@@detail@boost@@2_NB DB 00H ; boost::detail::is_convertible_basic_impl<boost::iostreams::basic_file_source<char>::category &,boost::iostreams::direct_tag>::value
CONST	ENDS
;	COMDAT ?value@?$is_convertible_impl@Ucategory@?$basic_file_source@D@iostreams@boost@@Uinput@34@@detail@boost@@2_NB
CONST	SEGMENT
?value@?$is_convertible_impl@Ucategory@?$basic_file_source@D@iostreams@boost@@Uinput@34@@detail@boost@@2_NB DB 01H ; boost::detail::is_convertible_impl<boost::iostreams::basic_file_source<char>::category,boost::iostreams::input>::value
CONST	ENDS
;	COMDAT ?value@?$is_convertible_basic_impl@AAUcategory@?$basic_file_source@D@iostreams@boost@@Uinput@34@@detail@boost@@2_NB
CONST	SEGMENT
?value@?$is_convertible_basic_impl@AAUcategory@?$basic_file_source@D@iostreams@boost@@Uinput@34@@detail@boost@@2_NB DB 01H ; boost::detail::is_convertible_basic_impl<boost::iostreams::basic_file_source<char>::category &,boost::iostreams::input>::value
CONST	ENDS
;	COMDAT ?value@?$is_arithmetic_impl@Ucategory@?$basic_file_source@D@iostreams@boost@@@detail@boost@@2_NB
CONST	SEGMENT
?value@?$is_arithmetic_impl@Ucategory@?$basic_file_source@D@iostreams@boost@@@detail@boost@@2_NB DB 00H ; boost::detail::is_arithmetic_impl<boost::iostreams::basic_file_source<char>::category>::value
CONST	ENDS
;	COMDAT ?value@?$dot@V?$basic_path@V?$basic_string@DU?$char_traits@D@std@@V?$allocator@D@2@@std@@Upath_traits@filesystem@boost@@@filesystem@boost@@@filesystem@boost@@2DB
CONST	SEGMENT
?value@?$dot@V?$basic_path@V?$basic_string@DU?$char_traits@D@std@@V?$allocator@D@2@@std@@Upath_traits@filesystem@boost@@@filesystem@boost@@@filesystem@boost@@2DB DB 02eH ; boost::filesystem::dot<boost::filesystem::basic_path<std::basic_string<char,std::char_traits<char>,std::allocator<char> >,boost::filesystem::path_traits> >::value
CONST	ENDS
;	COMDAT ?value@?$impl@$$CBV?$basic_null_device@DUinput@iostreams@boost@@@iostreams@boost@@@is_streambuf_impl_@iostreams@boost@@2_NB
CONST	SEGMENT
?value@?$impl@$$CBV?$basic_null_device@DUinput@iostreams@boost@@@iostreams@boost@@@is_streambuf_impl_@iostreams@boost@@2_NB DB 00H ; boost::iostreams::is_streambuf_impl_::impl<boost::iostreams::basic_null_device<char,boost::iostreams::input> const >::value
CONST	ENDS
;	COMDAT ?value@?$impl@$$CBV?$basic_null_device@DUinput@iostreams@boost@@@iostreams@boost@@@is_ostream_impl_@iostreams@boost@@2_NB
CONST	SEGMENT
?value@?$impl@$$CBV?$basic_null_device@DUinput@iostreams@boost@@@iostreams@boost@@@is_ostream_impl_@iostreams@boost@@2_NB DB 00H ; boost::iostreams::is_ostream_impl_::impl<boost::iostreams::basic_null_device<char,boost::iostreams::input> const >::value
CONST	ENDS
;	COMDAT ?value@?$impl@$$CBV?$basic_null_device@DUinput@iostreams@boost@@@iostreams@boost@@@is_istream_impl_@iostreams@boost@@2_NB
CONST	SEGMENT
?value@?$impl@$$CBV?$basic_null_device@DUinput@iostreams@boost@@@iostreams@boost@@@is_istream_impl_@iostreams@boost@@2_NB DB 00H ; boost::iostreams::is_istream_impl_::impl<boost::iostreams::basic_null_device<char,boost::iostreams::input> const >::value
CONST	ENDS
;	COMDAT ?value@?$is_arithmetic_impl@V?$basic_buffer@DV?$allocator@D@std@@@detail@iostreams@boost@@@detail@boost@@2_NB
CONST	SEGMENT
?value@?$is_arithmetic_impl@V?$basic_buffer@DV?$allocator@D@std@@@detail@iostreams@boost@@@detail@boost@@2_NB DB 00H ; boost::detail::is_arithmetic_impl<boost::iostreams::detail::basic_buffer<char,std::allocator<char> > >::value
CONST	ENDS
;	COMDAT ?value@?$is_pointer_impl@V?$basic_buffer@DV?$allocator@D@std@@@detail@iostreams@boost@@@detail@boost@@2_NB
CONST	SEGMENT
?value@?$is_pointer_impl@V?$basic_buffer@DV?$allocator@D@std@@@detail@iostreams@boost@@@detail@boost@@2_NB DB 00H ; boost::detail::is_pointer_impl<boost::iostreams::detail::basic_buffer<char,std::allocator<char> > >::value
CONST	ENDS
;	COMDAT ?value@?$result_@V?$basic_buffer@DV?$allocator@D@std@@@detail@iostreams@boost@@@?$is_mem_fun_pointer_select@$0A@@detail@boost@@2_NB
CONST	SEGMENT
?value@?$result_@V?$basic_buffer@DV?$allocator@D@std@@@detail@iostreams@boost@@@?$is_mem_fun_pointer_select@$0A@@detail@boost@@2_NB DB 00H ; boost::detail::is_mem_fun_pointer_select<0>::result_<boost::iostreams::detail::basic_buffer<char,std::allocator<char> > >::value
CONST	ENDS
;	COMDAT ?value@?$is_pointer_helper@V?$basic_buffer@DV?$allocator@D@std@@@detail@iostreams@boost@@@detail@boost@@2_NB
CONST	SEGMENT
?value@?$is_pointer_helper@V?$basic_buffer@DV?$allocator@D@std@@@detail@iostreams@boost@@@detail@boost@@2_NB DB 00H ; boost::detail::is_pointer_helper<boost::iostreams::detail::basic_buffer<char,std::allocator<char> > >::value
CONST	ENDS
;	COMDAT ?is_volatile@?$cv_traits_imp@PAV?$basic_buffer@DV?$allocator@D@std@@@detail@iostreams@boost@@@detail@boost@@2_NB
CONST	SEGMENT
?is_volatile@?$cv_traits_imp@PAV?$basic_buffer@DV?$allocator@D@std@@@detail@iostreams@boost@@@detail@boost@@2_NB DB 00H ; boost::detail::cv_traits_imp<boost::iostreams::detail::basic_buffer<char,std::allocator<char> > *>::is_volatile
CONST	ENDS
;	COMDAT ?is_const@?$cv_traits_imp@PAV?$basic_buffer@DV?$allocator@D@std@@@detail@iostreams@boost@@@detail@boost@@2_NB
CONST	SEGMENT
?is_const@?$cv_traits_imp@PAV?$basic_buffer@DV?$allocator@D@std@@@detail@iostreams@boost@@@detail@boost@@2_NB DB 00H ; boost::detail::cv_traits_imp<boost::iostreams::detail::basic_buffer<char,std::allocator<char> > *>::is_const
CONST	ENDS
;	COMDAT ?value@?$is_convertible_impl@Uinput@iostreams@boost@@Utwo_sequence@detail@23@@detail@boost@@2_NB
CONST	SEGMENT
?value@?$is_convertible_impl@Uinput@iostreams@boost@@Utwo_sequence@detail@23@@detail@boost@@2_NB DB 00H ; boost::detail::is_convertible_impl<boost::iostreams::input,boost::iostreams::detail::two_sequence>::value
CONST	ENDS
;	COMDAT ?value@?$is_convertible_basic_impl@AAUinput@iostreams@boost@@Utwo_sequence@detail@23@@detail@boost@@2_NB
CONST	SEGMENT
?value@?$is_convertible_basic_impl@AAUinput@iostreams@boost@@Utwo_sequence@detail@23@@detail@boost@@2_NB DB 00H ; boost::detail::is_convertible_basic_impl<boost::iostreams::input &,boost::iostreams::detail::two_sequence>::value
CONST	ENDS
;	COMDAT ?value@?$is_abstract_imp@Utwo_sequence@detail@iostreams@boost@@@detail@boost@@2_NB
CONST	SEGMENT
?value@?$is_abstract_imp@Utwo_sequence@detail@iostreams@boost@@@detail@boost@@2_NB DB 00H ; boost::detail::is_abstract_imp<boost::iostreams::detail::two_sequence>::value
CONST	ENDS
;	COMDAT ?value@?$is_arithmetic_impl@Utwo_sequence@detail@iostreams@boost@@@detail@boost@@2_NB
CONST	SEGMENT
?value@?$is_arithmetic_impl@Utwo_sequence@detail@iostreams@boost@@@detail@boost@@2_NB DB 00H ; boost::detail::is_arithmetic_impl<boost::iostreams::detail::two_sequence>::value
CONST	ENDS
;	COMDAT ?found@?$type_with_alignment_imp@$00@detail@boost@@0IB
CONST	SEGMENT
?found@?$type_with_alignment_imp@$00@detail@boost@@0IB DD 01H ; boost::detail::type_with_alignment_imp<1>::found
CONST	ENDS
;	COMDAT ?value@?$is_aligned@$00$00@detail@boost@@2_NB
CONST	SEGMENT
?value@?$is_aligned@$00$00@detail@boost@@2_NB DB 01H	; boost::detail::is_aligned<1,1>::value
CONST	ENDS
;	COMDAT ?value@?$alignment_of_impl@T?$lower_alignment@$00@detail@boost@@@detail@boost@@2IB
CONST	SEGMENT
?value@?$alignment_of_impl@T?$lower_alignment@$00@detail@boost@@@detail@boost@@2IB DD 01H ; boost::detail::alignment_of_impl<boost::detail::lower_alignment<1> >::value
CONST	ENDS
;	COMDAT ?value@?$alignment_of_impl@V?$concept_adapter@V?$basic_null_device@DUinput@iostreams@boost@@@iostreams@boost@@@detail@iostreams@boost@@@detail@boost@@2IB
CONST	SEGMENT
?value@?$alignment_of_impl@V?$concept_adapter@V?$basic_null_device@DUinput@iostreams@boost@@@iostreams@boost@@@detail@iostreams@boost@@@detail@boost@@2IB DD 01H ; boost::detail::alignment_of_impl<boost::iostreams::detail::concept_adapter<boost::iostreams::basic_null_device<char,boost::iostreams::input> > >::value
CONST	ENDS
;	COMDAT ?value@?$has_trait_impl@V?$basic_null_device@DUinput@iostreams@boost@@@iostreams@boost@@Udevice_tag@23@@detail@iostreams@boost@@2_NB
CONST	SEGMENT
?value@?$has_trait_impl@V?$basic_null_device@DUinput@iostreams@boost@@@iostreams@boost@@Udevice_tag@23@@detail@iostreams@boost@@2_NB DB 01H ; boost::iostreams::detail::has_trait_impl<boost::iostreams::basic_null_device<char,boost::iostreams::input>,boost::iostreams::device_tag>::value
CONST	ENDS
;	COMDAT ?value@?$is_convertible_impl@Ucategory@?$basic_null_device@DUinput@iostreams@boost@@@iostreams@boost@@Udevice_tag@34@@detail@boost@@2_NB
CONST	SEGMENT
?value@?$is_convertible_impl@Ucategory@?$basic_null_device@DUinput@iostreams@boost@@@iostreams@boost@@Udevice_tag@34@@detail@boost@@2_NB DB 01H ; boost::detail::is_convertible_impl<boost::iostreams::basic_null_device<char,boost::iostreams::input>::category,boost::iostreams::device_tag>::value
CONST	ENDS
;	COMDAT ?value@?$is_convertible_basic_impl@AAUcategory@?$basic_null_device@DUinput@iostreams@boost@@@iostreams@boost@@Udevice_tag@34@@detail@boost@@2_NB
CONST	SEGMENT
?value@?$is_convertible_basic_impl@AAUcategory@?$basic_null_device@DUinput@iostreams@boost@@@iostreams@boost@@Udevice_tag@34@@detail@boost@@2_NB DB 01H ; boost::detail::is_convertible_basic_impl<boost::iostreams::basic_null_device<char,boost::iostreams::input>::category &,boost::iostreams::device_tag>::value
CONST	ENDS
;	COMDAT ?value@?$is_abstract_imp@Udevice_tag@iostreams@boost@@@detail@boost@@2_NB
CONST	SEGMENT
?value@?$is_abstract_imp@Udevice_tag@iostreams@boost@@@detail@boost@@2_NB DB 00H ; boost::detail::is_abstract_imp<boost::iostreams::device_tag>::value
CONST	ENDS
;	COMDAT ?value@?$is_arithmetic_impl@Udevice_tag@iostreams@boost@@@detail@boost@@2_NB
CONST	SEGMENT
?value@?$is_arithmetic_impl@Udevice_tag@iostreams@boost@@@detail@boost@@2_NB DB 00H ; boost::detail::is_arithmetic_impl<boost::iostreams::device_tag>::value
CONST	ENDS
;	COMDAT ?value@?$is_convertible_impl@Ucategory@?$basic_null_device@DUinput@iostreams@boost@@@iostreams@boost@@Uoutput@34@@detail@boost@@2_NB
CONST	SEGMENT
?value@?$is_convertible_impl@Ucategory@?$basic_null_device@DUinput@iostreams@boost@@@iostreams@boost@@Uoutput@34@@detail@boost@@2_NB DB 00H ; boost::detail::is_convertible_impl<boost::iostreams::basic_null_device<char,boost::iostreams::input>::category,boost::iostreams::output>::value
CONST	ENDS
;	COMDAT ?value@?$is_convertible_basic_impl@AAUcategory@?$basic_null_device@DUinput@iostreams@boost@@@iostreams@boost@@Uoutput@34@@detail@boost@@2_NB
CONST	SEGMENT
?value@?$is_convertible_basic_impl@AAUcategory@?$basic_null_device@DUinput@iostreams@boost@@@iostreams@boost@@Uoutput@34@@detail@boost@@2_NB DB 00H ; boost::detail::is_convertible_basic_impl<boost::iostreams::basic_null_device<char,boost::iostreams::input>::category &,boost::iostreams::output>::value
CONST	ENDS
;	COMDAT ?value@?$is_convertible_impl@Ucategory@?$basic_null_device@DUinput@iostreams@boost@@@iostreams@boost@@Uinput@34@@detail@boost@@2_NB
CONST	SEGMENT
?value@?$is_convertible_impl@Ucategory@?$basic_null_device@DUinput@iostreams@boost@@@iostreams@boost@@Uinput@34@@detail@boost@@2_NB DB 01H ; boost::detail::is_convertible_impl<boost::iostreams::basic_null_device<char,boost::iostreams::input>::category,boost::iostreams::input>::value
CONST	ENDS
;	COMDAT ?value@?$is_convertible_basic_impl@AAUcategory@?$basic_null_device@DUinput@iostreams@boost@@@iostreams@boost@@Uinput@34@@detail@boost@@2_NB
CONST	SEGMENT
?value@?$is_convertible_basic_impl@AAUcategory@?$basic_null_device@DUinput@iostreams@boost@@@iostreams@boost@@Uinput@34@@detail@boost@@2_NB DB 01H ; boost::detail::is_convertible_basic_impl<boost::iostreams::basic_null_device<char,boost::iostreams::input>::category &,boost::iostreams::input>::value
CONST	ENDS
;	COMDAT ?value@?$is_convertible_impl@Ucategory@?$basic_null_device@DUinput@iostreams@boost@@@iostreams@boost@@Udirect_tag@34@@detail@boost@@2_NB
CONST	SEGMENT
?value@?$is_convertible_impl@Ucategory@?$basic_null_device@DUinput@iostreams@boost@@@iostreams@boost@@Udirect_tag@34@@detail@boost@@2_NB DB 00H ; boost::detail::is_convertible_impl<boost::iostreams::basic_null_device<char,boost::iostreams::input>::category,boost::iostreams::direct_tag>::value
CONST	ENDS
;	COMDAT ?value@?$is_convertible_basic_impl@AAUcategory@?$basic_null_device@DUinput@iostreams@boost@@@iostreams@boost@@Udirect_tag@34@@detail@boost@@2_NB
CONST	SEGMENT
?value@?$is_convertible_basic_impl@AAUcategory@?$basic_null_device@DUinput@iostreams@boost@@@iostreams@boost@@Udirect_tag@34@@detail@boost@@2_NB DB 00H ; boost::detail::is_convertible_basic_impl<boost::iostreams::basic_null_device<char,boost::iostreams::input>::category &,boost::iostreams::direct_tag>::value
CONST	ENDS
;	COMDAT ?value@?$is_abstract_imp@Udirect_tag@iostreams@boost@@@detail@boost@@2_NB
CONST	SEGMENT
?value@?$is_abstract_imp@Udirect_tag@iostreams@boost@@@detail@boost@@2_NB DB 00H ; boost::detail::is_abstract_imp<boost::iostreams::direct_tag>::value
CONST	ENDS
;	COMDAT ?value@?$is_arithmetic_impl@Udirect_tag@iostreams@boost@@@detail@boost@@2_NB
CONST	SEGMENT
?value@?$is_arithmetic_impl@Udirect_tag@iostreams@boost@@@detail@boost@@2_NB DB 00H ; boost::detail::is_arithmetic_impl<boost::iostreams::direct_tag>::value
CONST	ENDS
;	COMDAT ?value@?$is_arithmetic_impl@Ucategory@?$basic_null_device@DUinput@iostreams@boost@@@iostreams@boost@@@detail@boost@@2_NB
CONST	SEGMENT
?value@?$is_arithmetic_impl@Ucategory@?$basic_null_device@DUinput@iostreams@boost@@@iostreams@boost@@@detail@boost@@2_NB DB 00H ; boost::detail::is_arithmetic_impl<boost::iostreams::basic_null_device<char,boost::iostreams::input>::category>::value
CONST	ENDS
;	COMDAT ?value@?$io_mode_id@V?$basic_null_device@DUinput@iostreams@boost@@@iostreams@boost@@@detail@iostreams@boost@@2HB
CONST	SEGMENT
?value@?$io_mode_id@V?$basic_null_device@DUinput@iostreams@boost@@@iostreams@boost@@@detail@iostreams@boost@@2HB DD 01H ; boost::iostreams::detail::io_mode_id<boost::iostreams::basic_null_device<char,boost::iostreams::input> >::value
CONST	ENDS
;	COMDAT ?boost_select_by_size_temp_value@?$io_mode_id@V?$basic_null_device@DUinput@iostreams@boost@@@iostreams@boost@@@detail@iostreams@boost@@2IB
CONST	SEGMENT
?boost_select_by_size_temp_value@?$io_mode_id@V?$basic_null_device@DUinput@iostreams@boost@@@iostreams@boost@@@detail@iostreams@boost@@2IB DD 03H ; boost::iostreams::detail::io_mode_id<boost::iostreams::basic_null_device<char,boost::iostreams::input> >::boost_select_by_size_temp_value
CONST	ENDS
;	COMDAT ?value@?$impl@V?$basic_null_device@DUinput@iostreams@boost@@@iostreams@boost@@@is_streambuf_impl_@iostreams@boost@@2_NB
CONST	SEGMENT
?value@?$impl@V?$basic_null_device@DUinput@iostreams@boost@@@iostreams@boost@@@is_streambuf_impl_@iostreams@boost@@2_NB DB 00H ; boost::iostreams::is_streambuf_impl_::impl<boost::iostreams::basic_null_device<char,boost::iostreams::input> >::value
CONST	ENDS
;	COMDAT ?value@?$impl@V?$basic_null_device@DUinput@iostreams@boost@@@iostreams@boost@@@is_ostream_impl_@iostreams@boost@@2_NB
CONST	SEGMENT
?value@?$impl@V?$basic_null_device@DUinput@iostreams@boost@@@iostreams@boost@@@is_ostream_impl_@iostreams@boost@@2_NB DB 00H ; boost::iostreams::is_ostream_impl_::impl<boost::iostreams::basic_null_device<char,boost::iostreams::input> >::value
CONST	ENDS
;	COMDAT ?value@?$impl@V?$basic_null_device@DUinput@iostreams@boost@@@iostreams@boost@@@is_istream_impl_@iostreams@boost@@2_NB
CONST	SEGMENT
?value@?$impl@V?$basic_null_device@DUinput@iostreams@boost@@@iostreams@boost@@@is_istream_impl_@iostreams@boost@@2_NB DB 00H ; boost::iostreams::is_istream_impl_::impl<boost::iostreams::basic_null_device<char,boost::iostreams::input> >::value
CONST	ENDS
;	COMDAT ?value@?$is_error_code_enum@V?$basic_filesystem_error@V?$basic_path@V?$basic_string@_WU?$char_traits@_W@std@@V?$allocator@_W@2@@std@@Uwpath_traits@filesystem@boost@@@filesystem@boost@@@filesystem@boost@@@system@boost@@2_NB
CONST	SEGMENT
?value@?$is_error_code_enum@V?$basic_filesystem_error@V?$basic_path@V?$basic_string@_WU?$char_traits@_W@std@@V?$allocator@_W@2@@std@@Uwpath_traits@filesystem@boost@@@filesystem@boost@@@filesystem@boost@@@system@boost@@2_NB DB 00H ; boost::system::is_error_code_enum<boost::filesystem::basic_filesystem_error<boost::filesystem::basic_path<std::basic_string<wchar_t,std::char_traits<wchar_t>,std::allocator<wchar_t> >,boost::filesystem::wpath_traits> > >::value
CONST	ENDS
;	COMDAT ?value@?$is_error_code_enum@V?$basic_filesystem_error@V?$basic_path@V?$basic_string@DU?$char_traits@D@std@@V?$allocator@D@2@@std@@Upath_traits@filesystem@boost@@@filesystem@boost@@@filesystem@boost@@@system@boost@@2_NB
CONST	SEGMENT
?value@?$is_error_code_enum@V?$basic_filesystem_error@V?$basic_path@V?$basic_string@DU?$char_traits@D@std@@V?$allocator@D@2@@std@@Upath_traits@filesystem@boost@@@filesystem@boost@@@filesystem@boost@@@system@boost@@2_NB DB 00H ; boost::system::is_error_code_enum<boost::filesystem::basic_filesystem_error<boost::filesystem::basic_path<std::basic_string<char,std::char_traits<char>,std::allocator<char> >,boost::filesystem::path_traits> > >::value
CONST	ENDS
;	COMDAT ?is_const@?$cv_traits_imp@PAI@detail@boost@@2_NB
CONST	SEGMENT
?is_const@?$cv_traits_imp@PAI@detail@boost@@2_NB DB 00H	; boost::detail::cv_traits_imp<unsigned int *>::is_const
CONST	ENDS
;	COMDAT ?is_volatile@?$cv_traits_imp@PAI@detail@boost@@2_NB
CONST	SEGMENT
?is_volatile@?$cv_traits_imp@PAI@detail@boost@@2_NB DB 00H ; boost::detail::cv_traits_imp<unsigned int *>::is_volatile
CONST	ENDS
;	COMDAT ?value@?$is_ununsigned_helper@I@detail@boost@@2_NB
CONST	SEGMENT
?value@?$is_ununsigned_helper@I@detail@boost@@2_NB DB 01H ; boost::detail::is_ununsigned_helper<unsigned int>::value
CONST	ENDS
;	COMDAT ?value@?$is_unsigned_imp@I@detail@boost@@2_NB
CONST	SEGMENT
?value@?$is_unsigned_imp@I@detail@boost@@2_NB DB 01H	; boost::detail::is_unsigned_imp<unsigned int>::value
CONST	ENDS
;	COMDAT ?value@?$is_unsigned_imp@K@detail@boost@@2_NB
CONST	SEGMENT
?value@?$is_unsigned_imp@K@detail@boost@@2_NB DB 01H	; boost::detail::is_unsigned_imp<unsigned long>::value
CONST	ENDS
;	COMDAT ?value@?$is_ununsigned_helper@K@detail@boost@@2_NB
CONST	SEGMENT
?value@?$is_ununsigned_helper@K@detail@boost@@2_NB DB 01H ; boost::detail::is_ununsigned_helper<unsigned long>::value
CONST	ENDS
;	COMDAT ?is_volatile@?$cv_traits_imp@PAK@detail@boost@@2_NB
CONST	SEGMENT
?is_volatile@?$cv_traits_imp@PAK@detail@boost@@2_NB DB 00H ; boost::detail::cv_traits_imp<unsigned long *>::is_volatile
CONST	ENDS
;	COMDAT ?is_const@?$cv_traits_imp@PAK@detail@boost@@2_NB
CONST	SEGMENT
?is_const@?$cv_traits_imp@PAK@detail@boost@@2_NB DB 00H	; boost::detail::cv_traits_imp<unsigned long *>::is_const
CONST	ENDS
;	COMDAT ?value@?$is_convertible_basic_impl@AAUcategory@?$filtering_stream@Uinput@iostreams@boost@@DU?$char_traits@D@std@@V?$allocator@D@5@Upublic_@23@@iostreams@boost@@Uinput@34@@detail@boost@@2_NB
CONST	SEGMENT
?value@?$is_convertible_basic_impl@AAUcategory@?$filtering_stream@Uinput@iostreams@boost@@DU?$char_traits@D@std@@V?$allocator@D@5@Upublic_@23@@iostreams@boost@@Uinput@34@@detail@boost@@2_NB DB 01H ; boost::detail::is_convertible_basic_impl<boost::iostreams::filtering_stream<boost::iostreams::input,char,std::char_traits<char>,std::allocator<char>,boost::iostreams::public_>::category &,boost::iostreams::input>::value
CONST	ENDS
;	COMDAT ?value@?$is_convertible_impl@Ucategory@?$filtering_stream@Uinput@iostreams@boost@@DU?$char_traits@D@std@@V?$allocator@D@5@Upublic_@23@@iostreams@boost@@Uinput@34@@detail@boost@@2_NB
CONST	SEGMENT
?value@?$is_convertible_impl@Ucategory@?$filtering_stream@Uinput@iostreams@boost@@DU?$char_traits@D@std@@V?$allocator@D@5@Upublic_@23@@iostreams@boost@@Uinput@34@@detail@boost@@2_NB DB 01H ; boost::detail::is_convertible_impl<boost::iostreams::filtering_stream<boost::iostreams::input,char,std::char_traits<char>,std::allocator<char>,boost::iostreams::public_>::category,boost::iostreams::input>::value
CONST	ENDS
;	COMDAT ?value@?$is_convertible_basic_impl@AAUcategory@?$filtering_stream@Uinput@iostreams@boost@@DU?$char_traits@D@std@@V?$allocator@D@5@Upublic_@23@@iostreams@boost@@Uoutput@34@@detail@boost@@2_NB
CONST	SEGMENT
?value@?$is_convertible_basic_impl@AAUcategory@?$filtering_stream@Uinput@iostreams@boost@@DU?$char_traits@D@std@@V?$allocator@D@5@Upublic_@23@@iostreams@boost@@Uoutput@34@@detail@boost@@2_NB DB 00H ; boost::detail::is_convertible_basic_impl<boost::iostreams::filtering_stream<boost::iostreams::input,char,std::char_traits<char>,std::allocator<char>,boost::iostreams::public_>::category &,boost::iostreams::output>::value
CONST	ENDS
;	COMDAT ?value@?$is_convertible_impl@Ucategory@?$filtering_stream@Uinput@iostreams@boost@@DU?$char_traits@D@std@@V?$allocator@D@5@Upublic_@23@@iostreams@boost@@Uoutput@34@@detail@boost@@2_NB
CONST	SEGMENT
?value@?$is_convertible_impl@Ucategory@?$filtering_stream@Uinput@iostreams@boost@@DU?$char_traits@D@std@@V?$allocator@D@5@Upublic_@23@@iostreams@boost@@Uoutput@34@@detail@boost@@2_NB DB 00H ; boost::detail::is_convertible_impl<boost::iostreams::filtering_stream<boost::iostreams::input,char,std::char_traits<char>,std::allocator<char>,boost::iostreams::public_>::category,boost::iostreams::output>::value
CONST	ENDS
;	COMDAT ?is_volatile@?$cv_traits_imp@PBV?$iterator_range@V?$_String_iterator@DU?$char_traits@D@std@@V?$allocator@D@2@@std@@@boost@@@detail@boost@@2_NB
CONST	SEGMENT
?is_volatile@?$cv_traits_imp@PBV?$iterator_range@V?$_String_iterator@DU?$char_traits@D@std@@V?$allocator@D@2@@std@@@boost@@@detail@boost@@2_NB DB 00H ; boost::detail::cv_traits_imp<boost::iterator_range<std::_String_iterator<char,std::char_traits<char>,std::allocator<char> > > const *>::is_volatile
CONST	ENDS
;	COMDAT ?is_const@?$cv_traits_imp@PBV?$iterator_range@V?$_String_iterator@DU?$char_traits@D@std@@V?$allocator@D@2@@std@@@boost@@@detail@boost@@2_NB
CONST	SEGMENT
?is_const@?$cv_traits_imp@PBV?$iterator_range@V?$_String_iterator@DU?$char_traits@D@std@@V?$allocator@D@2@@std@@@boost@@@detail@boost@@2_NB DB 01H ; boost::detail::cv_traits_imp<boost::iterator_range<std::_String_iterator<char,std::char_traits<char>,std::allocator<char> > > const *>::is_const
CONST	ENDS
;	COMDAT ?value@?$is_convertible_impl@V?$basic_directory_iterator@V?$basic_path@V?$basic_string@_WU?$char_traits@_W@std@@V?$allocator@_W@2@@std@@Uwpath_traits@filesystem@boost@@@filesystem@boost@@@filesystem@boost@@V123@@detail@boost@@2_NB
CONST	SEGMENT
?value@?$is_convertible_impl@V?$basic_directory_iterator@V?$basic_path@V?$basic_string@_WU?$char_traits@_W@std@@V?$allocator@_W@2@@std@@Uwpath_traits@filesystem@boost@@@filesystem@boost@@@filesystem@boost@@V123@@detail@boost@@2_NB DB 01H ; boost::detail::is_convertible_impl<boost::filesystem::basic_directory_iterator<boost::filesystem::basic_path<std::basic_string<wchar_t,std::char_traits<wchar_t>,std::allocator<wchar_t> >,boost::filesystem::wpath_traits> >,boost::filesystem::basic_directory_iterator<boost::filesystem::basic_path<std::basic_string<wchar_t,std::char_traits<wchar_t>,std::allocator<wchar_t> >,boost::filesystem::wpath_traits> > >::value
CONST	ENDS
;	COMDAT ?value@?$is_convertible_basic_impl@AAV?$basic_directory_iterator@V?$basic_path@V?$basic_string@_WU?$char_traits@_W@std@@V?$allocator@_W@2@@std@@Uwpath_traits@filesystem@boost@@@filesystem@boost@@@filesystem@boost@@V123@@detail@boost@@2_NB
CONST	SEGMENT
?value@?$is_convertible_basic_impl@AAV?$basic_directory_iterator@V?$basic_path@V?$basic_string@_WU?$char_traits@_W@std@@V?$allocator@_W@2@@std@@Uwpath_traits@filesystem@boost@@@filesystem@boost@@@filesystem@boost@@V123@@detail@boost@@2_NB DB 01H ; boost::detail::is_convertible_basic_impl<boost::filesystem::basic_directory_iterator<boost::filesystem::basic_path<std::basic_string<wchar_t,std::char_traits<wchar_t>,std::allocator<wchar_t> >,boost::filesystem::wpath_traits> > &,boost::filesystem::basic_directory_iterator<boost::filesystem::basic_path<std::basic_string<wchar_t,std::char_traits<wchar_t>,std::allocator<wchar_t> >,boost::filesystem::wpath_traits> > >::value
CONST	ENDS
;	COMDAT ?value@?$is_abstract_imp@V?$basic_directory_iterator@V?$basic_path@V?$basic_string@_WU?$char_traits@_W@std@@V?$allocator@_W@2@@std@@Uwpath_traits@filesystem@boost@@@filesystem@boost@@@filesystem@boost@@@detail@boost@@2_NB
CONST	SEGMENT
?value@?$is_abstract_imp@V?$basic_directory_iterator@V?$basic_path@V?$basic_string@_WU?$char_traits@_W@std@@V?$allocator@_W@2@@std@@Uwpath_traits@filesystem@boost@@@filesystem@boost@@@filesystem@boost@@@detail@boost@@2_NB DB 00H ; boost::detail::is_abstract_imp<boost::filesystem::basic_directory_iterator<boost::filesystem::basic_path<std::basic_string<wchar_t,std::char_traits<wchar_t>,std::allocator<wchar_t> >,boost::filesystem::wpath_traits> > >::value
CONST	ENDS
;	COMDAT ?value@?$is_arithmetic_impl@V?$basic_directory_iterator@V?$basic_path@V?$basic_string@_WU?$char_traits@_W@std@@V?$allocator@_W@2@@std@@Uwpath_traits@filesystem@boost@@@filesystem@boost@@@filesystem@boost@@@detail@boost@@2_NB
CONST	SEGMENT
?value@?$is_arithmetic_impl@V?$basic_directory_iterator@V?$basic_path@V?$basic_string@_WU?$char_traits@_W@std@@V?$allocator@_W@2@@std@@Uwpath_traits@filesystem@boost@@@filesystem@boost@@@filesystem@boost@@@detail@boost@@2_NB DB 00H ; boost::detail::is_arithmetic_impl<boost::filesystem::basic_directory_iterator<boost::filesystem::basic_path<std::basic_string<wchar_t,std::char_traits<wchar_t>,std::allocator<wchar_t> >,boost::filesystem::wpath_traits> > >::value
CONST	ENDS
;	COMDAT ?value@?$is_pod_impl@V?$basic_directory_entry@V?$basic_path@V?$basic_string@_WU?$char_traits@_W@std@@V?$allocator@_W@2@@std@@Uwpath_traits@filesystem@boost@@@filesystem@boost@@@filesystem@boost@@@detail@boost@@2_NB
CONST	SEGMENT
?value@?$is_pod_impl@V?$basic_directory_entry@V?$basic_path@V?$basic_string@_WU?$char_traits@_W@std@@V?$allocator@_W@2@@std@@Uwpath_traits@filesystem@boost@@@filesystem@boost@@@filesystem@boost@@@detail@boost@@2_NB DB 00H ; boost::detail::is_pod_impl<boost::filesystem::basic_directory_entry<boost::filesystem::basic_path<std::basic_string<wchar_t,std::char_traits<wchar_t>,std::allocator<wchar_t> >,boost::filesystem::wpath_traits> > >::value
CONST	ENDS
;	COMDAT ?value@?$is_scalar_impl@V?$basic_directory_entry@V?$basic_path@V?$basic_string@_WU?$char_traits@_W@std@@V?$allocator@_W@2@@std@@Uwpath_traits@filesystem@boost@@@filesystem@boost@@@filesystem@boost@@@detail@boost@@2_NB
CONST	SEGMENT
?value@?$is_scalar_impl@V?$basic_directory_entry@V?$basic_path@V?$basic_string@_WU?$char_traits@_W@std@@V?$allocator@_W@2@@std@@Uwpath_traits@filesystem@boost@@@filesystem@boost@@@filesystem@boost@@@detail@boost@@2_NB DB 00H ; boost::detail::is_scalar_impl<boost::filesystem::basic_directory_entry<boost::filesystem::basic_path<std::basic_string<wchar_t,std::char_traits<wchar_t>,std::allocator<wchar_t> >,boost::filesystem::wpath_traits> > >::value
CONST	ENDS
;	COMDAT ?value@?$is_pointer_impl@V?$basic_directory_entry@V?$basic_path@V?$basic_string@_WU?$char_traits@_W@std@@V?$allocator@_W@2@@std@@Uwpath_traits@filesystem@boost@@@filesystem@boost@@@filesystem@boost@@@detail@boost@@2_NB
CONST	SEGMENT
?value@?$is_pointer_impl@V?$basic_directory_entry@V?$basic_path@V?$basic_string@_WU?$char_traits@_W@std@@V?$allocator@_W@2@@std@@Uwpath_traits@filesystem@boost@@@filesystem@boost@@@filesystem@boost@@@detail@boost@@2_NB DB 00H ; boost::detail::is_pointer_impl<boost::filesystem::basic_directory_entry<boost::filesystem::basic_path<std::basic_string<wchar_t,std::char_traits<wchar_t>,std::allocator<wchar_t> >,boost::filesystem::wpath_traits> > >::value
CONST	ENDS
;	COMDAT ?value@?$result_@V?$basic_directory_entry@V?$basic_path@V?$basic_string@_WU?$char_traits@_W@std@@V?$allocator@_W@2@@std@@Uwpath_traits@filesystem@boost@@@filesystem@boost@@@filesystem@boost@@@?$is_mem_fun_pointer_select@$0A@@detail@boost@@2_NB
CONST	SEGMENT
?value@?$result_@V?$basic_directory_entry@V?$basic_path@V?$basic_string@_WU?$char_traits@_W@std@@V?$allocator@_W@2@@std@@Uwpath_traits@filesystem@boost@@@filesystem@boost@@@filesystem@boost@@@?$is_mem_fun_pointer_select@$0A@@detail@boost@@2_NB DB 00H ; boost::detail::is_mem_fun_pointer_select<0>::result_<boost::filesystem::basic_directory_entry<boost::filesystem::basic_path<std::basic_string<wchar_t,std::char_traits<wchar_t>,std::allocator<wchar_t> >,boost::filesystem::wpath_traits> > >::value
CONST	ENDS
;	COMDAT ?value@?$is_pointer_helper@V?$basic_directory_entry@V?$basic_path@V?$basic_string@_WU?$char_traits@_W@std@@V?$allocator@_W@2@@std@@Uwpath_traits@filesystem@boost@@@filesystem@boost@@@filesystem@boost@@@detail@boost@@2_NB
CONST	SEGMENT
?value@?$is_pointer_helper@V?$basic_directory_entry@V?$basic_path@V?$basic_string@_WU?$char_traits@_W@std@@V?$allocator@_W@2@@std@@Uwpath_traits@filesystem@boost@@@filesystem@boost@@@filesystem@boost@@@detail@boost@@2_NB DB 00H ; boost::detail::is_pointer_helper<boost::filesystem::basic_directory_entry<boost::filesystem::basic_path<std::basic_string<wchar_t,std::char_traits<wchar_t>,std::allocator<wchar_t> >,boost::filesystem::wpath_traits> > >::value
CONST	ENDS
;	COMDAT ?is_volatile@?$cv_traits_imp@PAV?$basic_directory_entry@V?$basic_path@V?$basic_string@_WU?$char_traits@_W@std@@V?$allocator@_W@2@@std@@Uwpath_traits@filesystem@boost@@@filesystem@boost@@@filesystem@boost@@@detail@boost@@2_NB
CONST	SEGMENT
?is_volatile@?$cv_traits_imp@PAV?$basic_directory_entry@V?$basic_path@V?$basic_string@_WU?$char_traits@_W@std@@V?$allocator@_W@2@@std@@Uwpath_traits@filesystem@boost@@@filesystem@boost@@@filesystem@boost@@@detail@boost@@2_NB DB 00H ; boost::detail::cv_traits_imp<boost::filesystem::basic_directory_entry<boost::filesystem::basic_path<std::basic_string<wchar_t,std::char_traits<wchar_t>,std::allocator<wchar_t> >,boost::filesystem::wpath_traits> > *>::is_volatile
CONST	ENDS
;	COMDAT ?is_const@?$cv_traits_imp@PAV?$basic_directory_entry@V?$basic_path@V?$basic_string@_WU?$char_traits@_W@std@@V?$allocator@_W@2@@std@@Uwpath_traits@filesystem@boost@@@filesystem@boost@@@filesystem@boost@@@detail@boost@@2_NB
CONST	SEGMENT
?is_const@?$cv_traits_imp@PAV?$basic_directory_entry@V?$basic_path@V?$basic_string@_WU?$char_traits@_W@std@@V?$allocator@_W@2@@std@@Uwpath_traits@filesystem@boost@@@filesystem@boost@@@filesystem@boost@@@detail@boost@@2_NB DB 00H ; boost::detail::cv_traits_imp<boost::filesystem::basic_directory_entry<boost::filesystem::basic_path<std::basic_string<wchar_t,std::char_traits<wchar_t>,std::allocator<wchar_t> >,boost::filesystem::wpath_traits> > *>::is_const
CONST	ENDS
;	COMDAT ?value@?$is_convertible_impl@AAV?$basic_directory_entry@V?$basic_path@V?$basic_string@_WU?$char_traits@_W@std@@V?$allocator@_W@2@@std@@Uwpath_traits@filesystem@boost@@@filesystem@boost@@@filesystem@boost@@V123@@detail@boost@@2_NB
CONST	SEGMENT
?value@?$is_convertible_impl@AAV?$basic_directory_entry@V?$basic_path@V?$basic_string@_WU?$char_traits@_W@std@@V?$allocator@_W@2@@std@@Uwpath_traits@filesystem@boost@@@filesystem@boost@@@filesystem@boost@@V123@@detail@boost@@2_NB DB 01H ; boost::detail::is_convertible_impl<boost::filesystem::basic_directory_entry<boost::filesystem::basic_path<std::basic_string<wchar_t,std::char_traits<wchar_t>,std::allocator<wchar_t> >,boost::filesystem::wpath_traits> > &,boost::filesystem::basic_directory_entry<boost::filesystem::basic_path<std::basic_string<wchar_t,std::char_traits<wchar_t>,std::allocator<wchar_t> >,boost::filesystem::wpath_traits> > >::value
CONST	ENDS
;	COMDAT ?value@?$is_convertible_basic_impl@AAV?$basic_directory_entry@V?$basic_path@V?$basic_string@_WU?$char_traits@_W@std@@V?$allocator@_W@2@@std@@Uwpath_traits@filesystem@boost@@@filesystem@boost@@@filesystem@boost@@V123@@detail@boost@@2_NB
CONST	SEGMENT
?value@?$is_convertible_basic_impl@AAV?$basic_directory_entry@V?$basic_path@V?$basic_string@_WU?$char_traits@_W@std@@V?$allocator@_W@2@@std@@Uwpath_traits@filesystem@boost@@@filesystem@boost@@@filesystem@boost@@V123@@detail@boost@@2_NB DB 01H ; boost::detail::is_convertible_basic_impl<boost::filesystem::basic_directory_entry<boost::filesystem::basic_path<std::basic_string<wchar_t,std::char_traits<wchar_t>,std::allocator<wchar_t> >,boost::filesystem::wpath_traits> > &,boost::filesystem::basic_directory_entry<boost::filesystem::basic_path<std::basic_string<wchar_t,std::char_traits<wchar_t>,std::allocator<wchar_t> >,boost::filesystem::wpath_traits> > >::value
CONST	ENDS
;	COMDAT ?value@?$is_abstract_imp@V?$basic_directory_entry@V?$basic_path@V?$basic_string@_WU?$char_traits@_W@std@@V?$allocator@_W@2@@std@@Uwpath_traits@filesystem@boost@@@filesystem@boost@@@filesystem@boost@@@detail@boost@@2_NB
CONST	SEGMENT
?value@?$is_abstract_imp@V?$basic_directory_entry@V?$basic_path@V?$basic_string@_WU?$char_traits@_W@std@@V?$allocator@_W@2@@std@@Uwpath_traits@filesystem@boost@@@filesystem@boost@@@filesystem@boost@@@detail@boost@@2_NB DB 00H ; boost::detail::is_abstract_imp<boost::filesystem::basic_directory_entry<boost::filesystem::basic_path<std::basic_string<wchar_t,std::char_traits<wchar_t>,std::allocator<wchar_t> >,boost::filesystem::wpath_traits> > >::value
CONST	ENDS
;	COMDAT ?value@?$is_arithmetic_impl@V?$basic_directory_entry@V?$basic_path@V?$basic_string@_WU?$char_traits@_W@std@@V?$allocator@_W@2@@std@@Uwpath_traits@filesystem@boost@@@filesystem@boost@@@filesystem@boost@@@detail@boost@@2_NB
CONST	SEGMENT
?value@?$is_arithmetic_impl@V?$basic_directory_entry@V?$basic_path@V?$basic_string@_WU?$char_traits@_W@std@@V?$allocator@_W@2@@std@@Uwpath_traits@filesystem@boost@@@filesystem@boost@@@filesystem@boost@@@detail@boost@@2_NB DB 00H ; boost::detail::is_arithmetic_impl<boost::filesystem::basic_directory_entry<boost::filesystem::basic_path<std::basic_string<wchar_t,std::char_traits<wchar_t>,std::allocator<wchar_t> >,boost::filesystem::wpath_traits> > >::value
CONST	ENDS
;	COMDAT ?value@?$is_arithmetic_impl@AAV?$basic_directory_entry@V?$basic_path@V?$basic_string@_WU?$char_traits@_W@std@@V?$allocator@_W@2@@std@@Uwpath_traits@filesystem@boost@@@filesystem@boost@@@filesystem@boost@@@detail@boost@@2_NB
CONST	SEGMENT
?value@?$is_arithmetic_impl@AAV?$basic_directory_entry@V?$basic_path@V?$basic_string@_WU?$char_traits@_W@std@@V?$allocator@_W@2@@std@@Uwpath_traits@filesystem@boost@@@filesystem@boost@@@filesystem@boost@@@detail@boost@@2_NB DB 00H ; boost::detail::is_arithmetic_impl<boost::filesystem::basic_directory_entry<boost::filesystem::basic_path<std::basic_string<wchar_t,std::char_traits<wchar_t>,std::allocator<wchar_t> >,boost::filesystem::wpath_traits> > &>::value
CONST	ENDS
;	COMDAT ?mpl_assertion_in_line_10@?$facade_iterator_category_impl@Usingle_pass_traversal_tag@boost@@V?$basic_directory_entry@V?$basic_path@V?$basic_string@_WU?$char_traits@_W@std@@V?$allocator@_W@2@@std@@Uwpath_traits@filesystem@boost@@@filesystem@boost@@@filesystem@2@AAV342@@detail@boost@@2IB
CONST	SEGMENT
?mpl_assertion_in_line_10@?$facade_iterator_category_impl@Usingle_pass_traversal_tag@boost@@V?$basic_directory_entry@V?$basic_path@V?$basic_string@_WU?$char_traits@_W@std@@V?$allocator@_W@2@@std@@Uwpath_traits@filesystem@boost@@@filesystem@boost@@@filesystem@2@AAV342@@detail@boost@@2IB DD 04H ; boost::detail::facade_iterator_category_impl<boost::single_pass_traversal_tag,boost::filesystem::basic_directory_entry<boost::filesystem::basic_path<std::basic_string<wchar_t,std::char_traits<wchar_t>,std::allocator<wchar_t> >,boost::filesystem::wpath_traits> >,boost::filesystem::basic_directory_entry<boost::filesystem::basic_path<std::basic_string<wchar_t,std::char_traits<wchar_t>,std::allocator<wchar_t> >,boost::filesystem::wpath_traits> > &>::mpl_assertion_in_line_10
CONST	ENDS
;	COMDAT ?value@?$is_convertible_impl@V?$basic_directory_iterator@V?$basic_path@V?$basic_string@DU?$char_traits@D@std@@V?$allocator@D@2@@std@@Upath_traits@filesystem@boost@@@filesystem@boost@@@filesystem@boost@@V123@@detail@boost@@2_NB
CONST	SEGMENT
?value@?$is_convertible_impl@V?$basic_directory_iterator@V?$basic_path@V?$basic_string@DU?$char_traits@D@std@@V?$allocator@D@2@@std@@Upath_traits@filesystem@boost@@@filesystem@boost@@@filesystem@boost@@V123@@detail@boost@@2_NB DB 01H ; boost::detail::is_convertible_impl<boost::filesystem::basic_directory_iterator<boost::filesystem::basic_path<std::basic_string<char,std::char_traits<char>,std::allocator<char> >,boost::filesystem::path_traits> >,boost::filesystem::basic_directory_iterator<boost::filesystem::basic_path<std::basic_string<char,std::char_traits<char>,std::allocator<char> >,boost::filesystem::path_traits> > >::value
CONST	ENDS
;	COMDAT ?value@?$is_convertible_basic_impl@AAV?$basic_directory_iterator@V?$basic_path@V?$basic_string@DU?$char_traits@D@std@@V?$allocator@D@2@@std@@Upath_traits@filesystem@boost@@@filesystem@boost@@@filesystem@boost@@V123@@detail@boost@@2_NB
CONST	SEGMENT
?value@?$is_convertible_basic_impl@AAV?$basic_directory_iterator@V?$basic_path@V?$basic_string@DU?$char_traits@D@std@@V?$allocator@D@2@@std@@Upath_traits@filesystem@boost@@@filesystem@boost@@@filesystem@boost@@V123@@detail@boost@@2_NB DB 01H ; boost::detail::is_convertible_basic_impl<boost::filesystem::basic_directory_iterator<boost::filesystem::basic_path<std::basic_string<char,std::char_traits<char>,std::allocator<char> >,boost::filesystem::path_traits> > &,boost::filesystem::basic_directory_iterator<boost::filesystem::basic_path<std::basic_string<char,std::char_traits<char>,std::allocator<char> >,boost::filesystem::path_traits> > >::value
CONST	ENDS
;	COMDAT ?value@?$is_abstract_imp@V?$basic_directory_iterator@V?$basic_path@V?$basic_string@DU?$char_traits@D@std@@V?$allocator@D@2@@std@@Upath_traits@filesystem@boost@@@filesystem@boost@@@filesystem@boost@@@detail@boost@@2_NB
CONST	SEGMENT
?value@?$is_abstract_imp@V?$basic_directory_iterator@V?$basic_path@V?$basic_string@DU?$char_traits@D@std@@V?$allocator@D@2@@std@@Upath_traits@filesystem@boost@@@filesystem@boost@@@filesystem@boost@@@detail@boost@@2_NB DB 00H ; boost::detail::is_abstract_imp<boost::filesystem::basic_directory_iterator<boost::filesystem::basic_path<std::basic_string<char,std::char_traits<char>,std::allocator<char> >,boost::filesystem::path_traits> > >::value
CONST	ENDS
;	COMDAT ?value@?$is_arithmetic_impl@V?$basic_directory_iterator@V?$basic_path@V?$basic_string@DU?$char_traits@D@std@@V?$allocator@D@2@@std@@Upath_traits@filesystem@boost@@@filesystem@boost@@@filesystem@boost@@@detail@boost@@2_NB
CONST	SEGMENT
?value@?$is_arithmetic_impl@V?$basic_directory_iterator@V?$basic_path@V?$basic_string@DU?$char_traits@D@std@@V?$allocator@D@2@@std@@Upath_traits@filesystem@boost@@@filesystem@boost@@@filesystem@boost@@@detail@boost@@2_NB DB 00H ; boost::detail::is_arithmetic_impl<boost::filesystem::basic_directory_iterator<boost::filesystem::basic_path<std::basic_string<char,std::char_traits<char>,std::allocator<char> >,boost::filesystem::path_traits> > >::value
CONST	ENDS
;	COMDAT ?value@?$is_pod_impl@V?$basic_directory_entry@V?$basic_path@V?$basic_string@DU?$char_traits@D@std@@V?$allocator@D@2@@std@@Upath_traits@filesystem@boost@@@filesystem@boost@@@filesystem@boost@@@detail@boost@@2_NB
CONST	SEGMENT
?value@?$is_pod_impl@V?$basic_directory_entry@V?$basic_path@V?$basic_string@DU?$char_traits@D@std@@V?$allocator@D@2@@std@@Upath_traits@filesystem@boost@@@filesystem@boost@@@filesystem@boost@@@detail@boost@@2_NB DB 00H ; boost::detail::is_pod_impl<boost::filesystem::basic_directory_entry<boost::filesystem::basic_path<std::basic_string<char,std::char_traits<char>,std::allocator<char> >,boost::filesystem::path_traits> > >::value
CONST	ENDS
;	COMDAT ?value@?$is_scalar_impl@V?$basic_directory_entry@V?$basic_path@V?$basic_string@DU?$char_traits@D@std@@V?$allocator@D@2@@std@@Upath_traits@filesystem@boost@@@filesystem@boost@@@filesystem@boost@@@detail@boost@@2_NB
CONST	SEGMENT
?value@?$is_scalar_impl@V?$basic_directory_entry@V?$basic_path@V?$basic_string@DU?$char_traits@D@std@@V?$allocator@D@2@@std@@Upath_traits@filesystem@boost@@@filesystem@boost@@@filesystem@boost@@@detail@boost@@2_NB DB 00H ; boost::detail::is_scalar_impl<boost::filesystem::basic_directory_entry<boost::filesystem::basic_path<std::basic_string<char,std::char_traits<char>,std::allocator<char> >,boost::filesystem::path_traits> > >::value
CONST	ENDS
;	COMDAT ?value@?$is_pointer_impl@V?$basic_directory_entry@V?$basic_path@V?$basic_string@DU?$char_traits@D@std@@V?$allocator@D@2@@std@@Upath_traits@filesystem@boost@@@filesystem@boost@@@filesystem@boost@@@detail@boost@@2_NB
CONST	SEGMENT
?value@?$is_pointer_impl@V?$basic_directory_entry@V?$basic_path@V?$basic_string@DU?$char_traits@D@std@@V?$allocator@D@2@@std@@Upath_traits@filesystem@boost@@@filesystem@boost@@@filesystem@boost@@@detail@boost@@2_NB DB 00H ; boost::detail::is_pointer_impl<boost::filesystem::basic_directory_entry<boost::filesystem::basic_path<std::basic_string<char,std::char_traits<char>,std::allocator<char> >,boost::filesystem::path_traits> > >::value
CONST	ENDS
;	COMDAT ?value@?$result_@V?$basic_directory_entry@V?$basic_path@V?$basic_string@DU?$char_traits@D@std@@V?$allocator@D@2@@std@@Upath_traits@filesystem@boost@@@filesystem@boost@@@filesystem@boost@@@?$is_mem_fun_pointer_select@$0A@@detail@boost@@2_NB
CONST	SEGMENT
?value@?$result_@V?$basic_directory_entry@V?$basic_path@V?$basic_string@DU?$char_traits@D@std@@V?$allocator@D@2@@std@@Upath_traits@filesystem@boost@@@filesystem@boost@@@filesystem@boost@@@?$is_mem_fun_pointer_select@$0A@@detail@boost@@2_NB DB 00H ; boost::detail::is_mem_fun_pointer_select<0>::result_<boost::filesystem::basic_directory_entry<boost::filesystem::basic_path<std::basic_string<char,std::char_traits<char>,std::allocator<char> >,boost::filesystem::path_traits> > >::value
CONST	ENDS
;	COMDAT ?value@?$is_pointer_helper@V?$basic_directory_entry@V?$basic_path@V?$basic_string@DU?$char_traits@D@std@@V?$allocator@D@2@@std@@Upath_traits@filesystem@boost@@@filesystem@boost@@@filesystem@boost@@@detail@boost@@2_NB
CONST	SEGMENT
?value@?$is_pointer_helper@V?$basic_directory_entry@V?$basic_path@V?$basic_string@DU?$char_traits@D@std@@V?$allocator@D@2@@std@@Upath_traits@filesystem@boost@@@filesystem@boost@@@filesystem@boost@@@detail@boost@@2_NB DB 00H ; boost::detail::is_pointer_helper<boost::filesystem::basic_directory_entry<boost::filesystem::basic_path<std::basic_string<char,std::char_traits<char>,std::allocator<char> >,boost::filesystem::path_traits> > >::value
CONST	ENDS
;	COMDAT ?is_volatile@?$cv_traits_imp@PAV?$basic_directory_entry@V?$basic_path@V?$basic_string@DU?$char_traits@D@std@@V?$allocator@D@2@@std@@Upath_traits@filesystem@boost@@@filesystem@boost@@@filesystem@boost@@@detail@boost@@2_NB
CONST	SEGMENT
?is_volatile@?$cv_traits_imp@PAV?$basic_directory_entry@V?$basic_path@V?$basic_string@DU?$char_traits@D@std@@V?$allocator@D@2@@std@@Upath_traits@filesystem@boost@@@filesystem@boost@@@filesystem@boost@@@detail@boost@@2_NB DB 00H ; boost::detail::cv_traits_imp<boost::filesystem::basic_directory_entry<boost::filesystem::basic_path<std::basic_string<char,std::char_traits<char>,std::allocator<char> >,boost::filesystem::path_traits> > *>::is_volatile
CONST	ENDS
;	COMDAT ?is_const@?$cv_traits_imp@PAV?$basic_directory_entry@V?$basic_path@V?$basic_string@DU?$char_traits@D@std@@V?$allocator@D@2@@std@@Upath_traits@filesystem@boost@@@filesystem@boost@@@filesystem@boost@@@detail@boost@@2_NB
CONST	SEGMENT
?is_const@?$cv_traits_imp@PAV?$basic_directory_entry@V?$basic_path@V?$basic_string@DU?$char_traits@D@std@@V?$allocator@D@2@@std@@Upath_traits@filesystem@boost@@@filesystem@boost@@@filesystem@boost@@@detail@boost@@2_NB DB 00H ; boost::detail::cv_traits_imp<boost::filesystem::basic_directory_entry<boost::filesystem::basic_path<std::basic_string<char,std::char_traits<char>,std::allocator<char> >,boost::filesystem::path_traits> > *>::is_const
CONST	ENDS
;	COMDAT ?value@?$is_convertible_impl@Uinput_iterator_tag@std@@U12@@detail@boost@@2_NB
CONST	SEGMENT
?value@?$is_convertible_impl@Uinput_iterator_tag@std@@U12@@detail@boost@@2_NB DB 01H ; boost::detail::is_convertible_impl<std::input_iterator_tag,std::input_iterator_tag>::value
CONST	ENDS
;	COMDAT ?value@?$is_convertible_basic_impl@AAUinput_iterator_tag@std@@U12@@detail@boost@@2_NB
CONST	SEGMENT
?value@?$is_convertible_basic_impl@AAUinput_iterator_tag@std@@U12@@detail@boost@@2_NB DB 01H ; boost::detail::is_convertible_basic_impl<std::input_iterator_tag &,std::input_iterator_tag>::value
CONST	ENDS
;	COMDAT ?value@?$is_convertible_impl@Uinput_iterator_tag@std@@Uforward_iterator_tag@2@@detail@boost@@2_NB
CONST	SEGMENT
?value@?$is_convertible_impl@Uinput_iterator_tag@std@@Uforward_iterator_tag@2@@detail@boost@@2_NB DB 00H ; boost::detail::is_convertible_impl<std::input_iterator_tag,std::forward_iterator_tag>::value
CONST	ENDS
;	COMDAT ?value@?$is_convertible_basic_impl@AAUinput_iterator_tag@std@@Uforward_iterator_tag@2@@detail@boost@@2_NB
CONST	SEGMENT
?value@?$is_convertible_basic_impl@AAUinput_iterator_tag@std@@Uforward_iterator_tag@2@@detail@boost@@2_NB DB 00H ; boost::detail::is_convertible_basic_impl<std::input_iterator_tag &,std::forward_iterator_tag>::value
CONST	ENDS
;	COMDAT ?value@?$is_abstract_imp@Uforward_iterator_tag@std@@@detail@boost@@2_NB
CONST	SEGMENT
?value@?$is_abstract_imp@Uforward_iterator_tag@std@@@detail@boost@@2_NB DB 00H ; boost::detail::is_abstract_imp<std::forward_iterator_tag>::value
CONST	ENDS
;	COMDAT ?value@?$is_arithmetic_impl@Uforward_iterator_tag@std@@@detail@boost@@2_NB
CONST	SEGMENT
?value@?$is_arithmetic_impl@Uforward_iterator_tag@std@@@detail@boost@@2_NB DB 00H ; boost::detail::is_arithmetic_impl<std::forward_iterator_tag>::value
CONST	ENDS
;	COMDAT ?value@?$is_convertible_impl@Uinput_iterator_tag@std@@Ubidirectional_iterator_tag@2@@detail@boost@@2_NB
CONST	SEGMENT
?value@?$is_convertible_impl@Uinput_iterator_tag@std@@Ubidirectional_iterator_tag@2@@detail@boost@@2_NB DB 00H ; boost::detail::is_convertible_impl<std::input_iterator_tag,std::bidirectional_iterator_tag>::value
CONST	ENDS
;	COMDAT ?value@?$is_convertible_basic_impl@AAUinput_iterator_tag@std@@Ubidirectional_iterator_tag@2@@detail@boost@@2_NB
CONST	SEGMENT
?value@?$is_convertible_basic_impl@AAUinput_iterator_tag@std@@Ubidirectional_iterator_tag@2@@detail@boost@@2_NB DB 00H ; boost::detail::is_convertible_basic_impl<std::input_iterator_tag &,std::bidirectional_iterator_tag>::value
CONST	ENDS
;	COMDAT ?value@?$is_convertible_impl@Uinput_iterator_tag@std@@Urandom_access_iterator_tag@2@@detail@boost@@2_NB
CONST	SEGMENT
?value@?$is_convertible_impl@Uinput_iterator_tag@std@@Urandom_access_iterator_tag@2@@detail@boost@@2_NB DB 00H ; boost::detail::is_convertible_impl<std::input_iterator_tag,std::random_access_iterator_tag>::value
CONST	ENDS
;	COMDAT ?value@?$is_convertible_basic_impl@AAUinput_iterator_tag@std@@Urandom_access_iterator_tag@2@@detail@boost@@2_NB
CONST	SEGMENT
?value@?$is_convertible_basic_impl@AAUinput_iterator_tag@std@@Urandom_access_iterator_tag@2@@detail@boost@@2_NB DB 00H ; boost::detail::is_convertible_basic_impl<std::input_iterator_tag &,std::random_access_iterator_tag>::value
CONST	ENDS
;	COMDAT ?value@?$is_convertible_impl@Uinput_iterator_tag@std@@Uincrementable_traversal_tag@boost@@@detail@boost@@2_NB
CONST	SEGMENT
?value@?$is_convertible_impl@Uinput_iterator_tag@std@@Uincrementable_traversal_tag@boost@@@detail@boost@@2_NB DB 00H ; boost::detail::is_convertible_impl<std::input_iterator_tag,boost::incrementable_traversal_tag>::value
CONST	ENDS
;	COMDAT ?value@?$is_convertible_basic_impl@AAUinput_iterator_tag@std@@Uincrementable_traversal_tag@boost@@@detail@boost@@2_NB
CONST	SEGMENT
?value@?$is_convertible_basic_impl@AAUinput_iterator_tag@std@@Uincrementable_traversal_tag@boost@@@detail@boost@@2_NB DB 00H ; boost::detail::is_convertible_basic_impl<std::input_iterator_tag &,boost::incrementable_traversal_tag>::value
CONST	ENDS
;	COMDAT ?value@?$is_convertible_impl@AAV?$basic_directory_entry@V?$basic_path@V?$basic_string@DU?$char_traits@D@std@@V?$allocator@D@2@@std@@Upath_traits@filesystem@boost@@@filesystem@boost@@@filesystem@boost@@V123@@detail@boost@@2_NB
CONST	SEGMENT
?value@?$is_convertible_impl@AAV?$basic_directory_entry@V?$basic_path@V?$basic_string@DU?$char_traits@D@std@@V?$allocator@D@2@@std@@Upath_traits@filesystem@boost@@@filesystem@boost@@@filesystem@boost@@V123@@detail@boost@@2_NB DB 01H ; boost::detail::is_convertible_impl<boost::filesystem::basic_directory_entry<boost::filesystem::basic_path<std::basic_string<char,std::char_traits<char>,std::allocator<char> >,boost::filesystem::path_traits> > &,boost::filesystem::basic_directory_entry<boost::filesystem::basic_path<std::basic_string<char,std::char_traits<char>,std::allocator<char> >,boost::filesystem::path_traits> > >::value
CONST	ENDS
;	COMDAT ?value@?$is_convertible_basic_impl@AAV?$basic_directory_entry@V?$basic_path@V?$basic_string@DU?$char_traits@D@std@@V?$allocator@D@2@@std@@Upath_traits@filesystem@boost@@@filesystem@boost@@@filesystem@boost@@V123@@detail@boost@@2_NB
CONST	SEGMENT
?value@?$is_convertible_basic_impl@AAV?$basic_directory_entry@V?$basic_path@V?$basic_string@DU?$char_traits@D@std@@V?$allocator@D@2@@std@@Upath_traits@filesystem@boost@@@filesystem@boost@@@filesystem@boost@@V123@@detail@boost@@2_NB DB 01H ; boost::detail::is_convertible_basic_impl<boost::filesystem::basic_directory_entry<boost::filesystem::basic_path<std::basic_string<char,std::char_traits<char>,std::allocator<char> >,boost::filesystem::path_traits> > &,boost::filesystem::basic_directory_entry<boost::filesystem::basic_path<std::basic_string<char,std::char_traits<char>,std::allocator<char> >,boost::filesystem::path_traits> > >::value
CONST	ENDS
;	COMDAT ?value@?$is_abstract_imp@V?$basic_directory_entry@V?$basic_path@V?$basic_string@DU?$char_traits@D@std@@V?$allocator@D@2@@std@@Upath_traits@filesystem@boost@@@filesystem@boost@@@filesystem@boost@@@detail@boost@@2_NB
CONST	SEGMENT
?value@?$is_abstract_imp@V?$basic_directory_entry@V?$basic_path@V?$basic_string@DU?$char_traits@D@std@@V?$allocator@D@2@@std@@Upath_traits@filesystem@boost@@@filesystem@boost@@@filesystem@boost@@@detail@boost@@2_NB DB 00H ; boost::detail::is_abstract_imp<boost::filesystem::basic_directory_entry<boost::filesystem::basic_path<std::basic_string<char,std::char_traits<char>,std::allocator<char> >,boost::filesystem::path_traits> > >::value
CONST	ENDS
;	COMDAT ?value@?$is_arithmetic_impl@V?$basic_directory_entry@V?$basic_path@V?$basic_string@DU?$char_traits@D@std@@V?$allocator@D@2@@std@@Upath_traits@filesystem@boost@@@filesystem@boost@@@filesystem@boost@@@detail@boost@@2_NB
CONST	SEGMENT
?value@?$is_arithmetic_impl@V?$basic_directory_entry@V?$basic_path@V?$basic_string@DU?$char_traits@D@std@@V?$allocator@D@2@@std@@Upath_traits@filesystem@boost@@@filesystem@boost@@@filesystem@boost@@@detail@boost@@2_NB DB 00H ; boost::detail::is_arithmetic_impl<boost::filesystem::basic_directory_entry<boost::filesystem::basic_path<std::basic_string<char,std::char_traits<char>,std::allocator<char> >,boost::filesystem::path_traits> > >::value
CONST	ENDS
;	COMDAT ?value@?$is_arithmetic_impl@AAV?$basic_directory_entry@V?$basic_path@V?$basic_string@DU?$char_traits@D@std@@V?$allocator@D@2@@std@@Upath_traits@filesystem@boost@@@filesystem@boost@@@filesystem@boost@@@detail@boost@@2_NB
CONST	SEGMENT
?value@?$is_arithmetic_impl@AAV?$basic_directory_entry@V?$basic_path@V?$basic_string@DU?$char_traits@D@std@@V?$allocator@D@2@@std@@Upath_traits@filesystem@boost@@@filesystem@boost@@@filesystem@boost@@@detail@boost@@2_NB DB 00H ; boost::detail::is_arithmetic_impl<boost::filesystem::basic_directory_entry<boost::filesystem::basic_path<std::basic_string<char,std::char_traits<char>,std::allocator<char> >,boost::filesystem::path_traits> > &>::value
CONST	ENDS
;	COMDAT ?value@?$is_convertible_impl@Usingle_pass_traversal_tag@boost@@U12@@detail@boost@@2_NB
CONST	SEGMENT
?value@?$is_convertible_impl@Usingle_pass_traversal_tag@boost@@U12@@detail@boost@@2_NB DB 01H ; boost::detail::is_convertible_impl<boost::single_pass_traversal_tag,boost::single_pass_traversal_tag>::value
CONST	ENDS
;	COMDAT ?value@?$is_convertible_basic_impl@AAUsingle_pass_traversal_tag@boost@@U12@@detail@boost@@2_NB
CONST	SEGMENT
?value@?$is_convertible_basic_impl@AAUsingle_pass_traversal_tag@boost@@U12@@detail@boost@@2_NB DB 01H ; boost::detail::is_convertible_basic_impl<boost::single_pass_traversal_tag &,boost::single_pass_traversal_tag>::value
CONST	ENDS
;	COMDAT ?value@?$is_abstract_imp@Usingle_pass_traversal_tag@boost@@@detail@boost@@2_NB
CONST	SEGMENT
?value@?$is_abstract_imp@Usingle_pass_traversal_tag@boost@@@detail@boost@@2_NB DB 00H ; boost::detail::is_abstract_imp<boost::single_pass_traversal_tag>::value
CONST	ENDS
;	COMDAT ?value@?$is_convertible_impl@Usingle_pass_traversal_tag@boost@@Uforward_traversal_tag@2@@detail@boost@@2_NB
CONST	SEGMENT
?value@?$is_convertible_impl@Usingle_pass_traversal_tag@boost@@Uforward_traversal_tag@2@@detail@boost@@2_NB DB 00H ; boost::detail::is_convertible_impl<boost::single_pass_traversal_tag,boost::forward_traversal_tag>::value
CONST	ENDS
;	COMDAT ?value@?$is_convertible_basic_impl@AAUsingle_pass_traversal_tag@boost@@Uforward_traversal_tag@2@@detail@boost@@2_NB
CONST	SEGMENT
?value@?$is_convertible_basic_impl@AAUsingle_pass_traversal_tag@boost@@Uforward_traversal_tag@2@@detail@boost@@2_NB DB 00H ; boost::detail::is_convertible_basic_impl<boost::single_pass_traversal_tag &,boost::forward_traversal_tag>::value
CONST	ENDS
;	COMDAT ?mpl_assertion_in_line_10@?$facade_iterator_category_impl@Usingle_pass_traversal_tag@boost@@V?$basic_directory_entry@V?$basic_path@V?$basic_string@DU?$char_traits@D@std@@V?$allocator@D@2@@std@@Upath_traits@filesystem@boost@@@filesystem@boost@@@filesystem@2@AAV342@@detail@boost@@2IB
CONST	SEGMENT
?mpl_assertion_in_line_10@?$facade_iterator_category_impl@Usingle_pass_traversal_tag@boost@@V?$basic_directory_entry@V?$basic_path@V?$basic_string@DU?$char_traits@D@std@@V?$allocator@D@2@@std@@Upath_traits@filesystem@boost@@@filesystem@boost@@@filesystem@2@AAV342@@detail@boost@@2IB DD 04H ; boost::detail::facade_iterator_category_impl<boost::single_pass_traversal_tag,boost::filesystem::basic_directory_entry<boost::filesystem::basic_path<std::basic_string<char,std::char_traits<char>,std::allocator<char> >,boost::filesystem::path_traits> >,boost::filesystem::basic_directory_entry<boost::filesystem::basic_path<std::basic_string<char,std::char_traits<char>,std::allocator<char> >,boost::filesystem::path_traits> > &>::mpl_assertion_in_line_10
CONST	ENDS
;	COMDAT ?p@?$assert_arg_pred_not@U?$is_iterator_category@Usingle_pass_traversal_tag@boost@@@detail@boost@@@mpl@boost@@2_NB
CONST	SEGMENT
?p@?$assert_arg_pred_not@U?$is_iterator_category@Usingle_pass_traversal_tag@boost@@@detail@boost@@@mpl@boost@@2_NB DB 01H ; boost::mpl::assert_arg_pred_not<boost::detail::is_iterator_category<boost::single_pass_traversal_tag> >::p
CONST	ENDS
;	COMDAT ?value@?$is_convertible_impl@Usingle_pass_traversal_tag@boost@@Uoutput_iterator_tag@std@@@detail@boost@@2_NB
CONST	SEGMENT
?value@?$is_convertible_impl@Usingle_pass_traversal_tag@boost@@Uoutput_iterator_tag@std@@@detail@boost@@2_NB DB 00H ; boost::detail::is_convertible_impl<boost::single_pass_traversal_tag,std::output_iterator_tag>::value
CONST	ENDS
;	COMDAT ?value@?$is_convertible_basic_impl@AAUsingle_pass_traversal_tag@boost@@Uoutput_iterator_tag@std@@@detail@boost@@2_NB
CONST	SEGMENT
