; Listing generated by Microsoft (R) Optimizing Compiler Version 15.00.30729.01 

	TITLE	c:\Users\CriuS\Documents\Visual Studio 2008\Projects\DRAMsimIIhg\src\main.cpp
	.686P
	.XMM
	include listing.inc
	.model	flat

INCLUDELIB MSVCRTD
INCLUDELIB OLDNAMES

PUBLIC	??_C@_0P@GHFPNOJB@bad?5allocation?$AA@		; `string'
PUBLIC	?_Value@?$_Is_swap_move@U_Swap_move_tag@std@@@std@@2_NB ; std::_Is_swap_move<std::_Swap_move_tag>::_Value
PUBLIC	?collate@?$_Locbase@H@std@@2HB			; std::_Locbase<int>::collate
PUBLIC	?ctype@?$_Locbase@H@std@@2HB			; std::_Locbase<int>::ctype
PUBLIC	?monetary@?$_Locbase@H@std@@2HB			; std::_Locbase<int>::monetary
PUBLIC	?numeric@?$_Locbase@H@std@@2HB			; std::_Locbase<int>::numeric
PUBLIC	?time@?$_Locbase@H@std@@2HB			; std::_Locbase<int>::time
PUBLIC	?messages@?$_Locbase@H@std@@2HB			; std::_Locbase<int>::messages
PUBLIC	?all@?$_Locbase@H@std@@2HB			; std::_Locbase<int>::all
PUBLIC	?none@?$_Locbase@H@std@@2HB			; std::_Locbase<int>::none
PUBLIC	?skipws@?$_Iosb@H@std@@2W4_Fmtflags@12@B	; std::_Iosb<int>::skipws
PUBLIC	?unitbuf@?$_Iosb@H@std@@2W4_Fmtflags@12@B	; std::_Iosb<int>::unitbuf
PUBLIC	?uppercase@?$_Iosb@H@std@@2W4_Fmtflags@12@B	; std::_Iosb<int>::uppercase
PUBLIC	?showbase@?$_Iosb@H@std@@2W4_Fmtflags@12@B	; std::_Iosb<int>::showbase
PUBLIC	?showpoint@?$_Iosb@H@std@@2W4_Fmtflags@12@B	; std::_Iosb<int>::showpoint
PUBLIC	?showpos@?$_Iosb@H@std@@2W4_Fmtflags@12@B	; std::_Iosb<int>::showpos
PUBLIC	?left@?$_Iosb@H@std@@2W4_Fmtflags@12@B		; std::_Iosb<int>::left
PUBLIC	?right@?$_Iosb@H@std@@2W4_Fmtflags@12@B		; std::_Iosb<int>::right
PUBLIC	?internal@?$_Iosb@H@std@@2W4_Fmtflags@12@B	; std::_Iosb<int>::internal
PUBLIC	?dec@?$_Iosb@H@std@@2W4_Fmtflags@12@B		; std::_Iosb<int>::dec
PUBLIC	?oct@?$_Iosb@H@std@@2W4_Fmtflags@12@B		; std::_Iosb<int>::oct
PUBLIC	?hex@?$_Iosb@H@std@@2W4_Fmtflags@12@B		; std::_Iosb<int>::hex
PUBLIC	?scientific@?$_Iosb@H@std@@2W4_Fmtflags@12@B	; std::_Iosb<int>::scientific
PUBLIC	?fixed@?$_Iosb@H@std@@2W4_Fmtflags@12@B		; std::_Iosb<int>::fixed
PUBLIC	?hexfloat@?$_Iosb@H@std@@2W4_Fmtflags@12@B	; std::_Iosb<int>::hexfloat
PUBLIC	?boolalpha@?$_Iosb@H@std@@2W4_Fmtflags@12@B	; std::_Iosb<int>::boolalpha
PUBLIC	?_Stdio@?$_Iosb@H@std@@2W4_Fmtflags@12@B	; std::_Iosb<int>::_Stdio
PUBLIC	?adjustfield@?$_Iosb@H@std@@2W4_Fmtflags@12@B	; std::_Iosb<int>::adjustfield
PUBLIC	?basefield@?$_Iosb@H@std@@2W4_Fmtflags@12@B	; std::_Iosb<int>::basefield
PUBLIC	?floatfield@?$_Iosb@H@std@@2W4_Fmtflags@12@B	; std::_Iosb<int>::floatfield
PUBLIC	?goodbit@?$_Iosb@H@std@@2W4_Iostate@12@B	; std::_Iosb<int>::goodbit
PUBLIC	?eofbit@?$_Iosb@H@std@@2W4_Iostate@12@B		; std::_Iosb<int>::eofbit
PUBLIC	?failbit@?$_Iosb@H@std@@2W4_Iostate@12@B	; std::_Iosb<int>::failbit
PUBLIC	?badbit@?$_Iosb@H@std@@2W4_Iostate@12@B		; std::_Iosb<int>::badbit
PUBLIC	?_Hardfail@?$_Iosb@H@std@@2W4_Iostate@12@B	; std::_Iosb<int>::_Hardfail
PUBLIC	?in@?$_Iosb@H@std@@2W4_Openmode@12@B		; std::_Iosb<int>::in
PUBLIC	?out@?$_Iosb@H@std@@2W4_Openmode@12@B		; std::_Iosb<int>::out
PUBLIC	?ate@?$_Iosb@H@std@@2W4_Openmode@12@B		; std::_Iosb<int>::ate
PUBLIC	?app@?$_Iosb@H@std@@2W4_Openmode@12@B		; std::_Iosb<int>::app
PUBLIC	?trunc@?$_Iosb@H@std@@2W4_Openmode@12@B		; std::_Iosb<int>::trunc
PUBLIC	?_Nocreate@?$_Iosb@H@std@@2W4_Openmode@12@B	; std::_Iosb<int>::_Nocreate
PUBLIC	?_Noreplace@?$_Iosb@H@std@@2W4_Openmode@12@B	; std::_Iosb<int>::_Noreplace
PUBLIC	?binary@?$_Iosb@H@std@@2W4_Openmode@12@B	; std::_Iosb<int>::binary
PUBLIC	?beg@?$_Iosb@H@std@@2W4_Seekdir@12@B		; std::_Iosb<int>::beg
PUBLIC	?cur@?$_Iosb@H@std@@2W4_Seekdir@12@B		; std::_Iosb<int>::cur
PUBLIC	?end@?$_Iosb@H@std@@2W4_Seekdir@12@B		; std::_Iosb<int>::end
PUBLIC	?value@integral_c_tag@mpl@boost@@2HB		; boost::mpl::integral_c_tag::value
PUBLIC	?value@?$bool_@$00@mpl@boost@@2_NB		; boost::mpl::bool_<1>::value
PUBLIC	?value@?$bool_@$0A@@mpl@boost@@2_NB		; boost::mpl::bool_<0>::value
PUBLIC	?is_integral@?$integer_traits_base@_N$0A@$00@detail@boost@@2_NB ; boost::detail::integer_traits_base<bool,0,1>::is_integral
PUBLIC	?const_min@?$integer_traits_base@_N$0A@$00@detail@boost@@2_NB ; boost::detail::integer_traits_base<bool,0,1>::const_min
PUBLIC	?const_max@?$integer_traits_base@_N$0A@$00@detail@boost@@2_NB ; boost::detail::integer_traits_base<bool,0,1>::const_max
PUBLIC	?is_integral@?$integer_traits_base@D$0?IA@$0HP@@detail@boost@@2_NB ; boost::detail::integer_traits_base<char,-128,127>::is_integral
PUBLIC	?const_min@?$integer_traits_base@D$0?IA@$0HP@@detail@boost@@2DB ; boost::detail::integer_traits_base<char,-128,127>::const_min
PUBLIC	?const_max@?$integer_traits_base@D$0?IA@$0HP@@detail@boost@@2DB ; boost::detail::integer_traits_base<char,-128,127>::const_max
PUBLIC	?is_integral@?$integer_traits_base@C$0?IA@$0HP@@detail@boost@@2_NB ; boost::detail::integer_traits_base<signed char,-128,127>::is_integral
PUBLIC	?const_min@?$integer_traits_base@C$0?IA@$0HP@@detail@boost@@2CB ; boost::detail::integer_traits_base<signed char,-128,127>::const_min
PUBLIC	?const_max@?$integer_traits_base@C$0?IA@$0HP@@detail@boost@@2CB ; boost::detail::integer_traits_base<signed char,-128,127>::const_max
PUBLIC	?is_integral@?$integer_traits_base@E$0A@$0PP@@detail@boost@@2_NB ; boost::detail::integer_traits_base<unsigned char,0,255>::is_integral
PUBLIC	?const_min@?$integer_traits_base@E$0A@$0PP@@detail@boost@@2EB ; boost::detail::integer_traits_base<unsigned char,0,255>::const_min
PUBLIC	?const_max@?$integer_traits_base@E$0A@$0PP@@detail@boost@@2EB ; boost::detail::integer_traits_base<unsigned char,0,255>::const_max
PUBLIC	?is_integral@?$integer_traits_base@_W$0A@$0PPPP@@detail@boost@@2_NB ; boost::detail::integer_traits_base<wchar_t,0,65535>::is_integral
PUBLIC	?const_min@?$integer_traits_base@_W$0A@$0PPPP@@detail@boost@@2_WB ; boost::detail::integer_traits_base<wchar_t,0,65535>::const_min
PUBLIC	?const_max@?$integer_traits_base@_W$0A@$0PPPP@@detail@boost@@2_WB ; boost::detail::integer_traits_base<wchar_t,0,65535>::const_max
PUBLIC	?is_integral@?$integer_traits_base@F$0?IAAA@$0HPPP@@detail@boost@@2_NB ; boost::detail::integer_traits_base<short,-32768,32767>::is_integral
PUBLIC	?const_min@?$integer_traits_base@F$0?IAAA@$0HPPP@@detail@boost@@2FB ; boost::detail::integer_traits_base<short,-32768,32767>::const_min
PUBLIC	?const_max@?$integer_traits_base@F$0?IAAA@$0HPPP@@detail@boost@@2FB ; boost::detail::integer_traits_base<short,-32768,32767>::const_max
PUBLIC	?is_integral@?$integer_traits_base@G$0A@$0PPPP@@detail@boost@@2_NB ; boost::detail::integer_traits_base<unsigned short,0,65535>::is_integral
PUBLIC	?const_min@?$integer_traits_base@G$0A@$0PPPP@@detail@boost@@2GB ; boost::detail::integer_traits_base<unsigned short,0,65535>::const_min
PUBLIC	?const_max@?$integer_traits_base@G$0A@$0PPPP@@detail@boost@@2GB ; boost::detail::integer_traits_base<unsigned short,0,65535>::const_max
PUBLIC	?is_integral@?$integer_traits_base@H$0?IAAAAAAA@$0HPPPPPPP@@detail@boost@@2_NB ; boost::detail::integer_traits_base<int,-2147483648,2147483647>::is_integral
PUBLIC	?const_min@?$integer_traits_base@H$0?IAAAAAAA@$0HPPPPPPP@@detail@boost@@2HB ; boost::detail::integer_traits_base<int,-2147483648,2147483647>::const_min
PUBLIC	?const_max@?$integer_traits_base@H$0?IAAAAAAA@$0HPPPPPPP@@detail@boost@@2HB ; boost::detail::integer_traits_base<int,-2147483648,2147483647>::const_max
PUBLIC	?is_integral@?$integer_traits_base@I$0A@$0PPPPPPPP@@detail@boost@@2_NB ; boost::detail::integer_traits_base<unsigned int,0,4294967295>::is_integral
PUBLIC	?const_min@?$integer_traits_base@I$0A@$0PPPPPPPP@@detail@boost@@2IB ; boost::detail::integer_traits_base<unsigned int,0,4294967295>::const_min
PUBLIC	?const_max@?$integer_traits_base@I$0A@$0PPPPPPPP@@detail@boost@@2IB ; boost::detail::integer_traits_base<unsigned int,0,4294967295>::const_max
PUBLIC	?is_integral@?$integer_traits_base@J$0?IAAAAAAA@$0HPPPPPPP@@detail@boost@@2_NB ; boost::detail::integer_traits_base<long,-2147483648,2147483647>::is_integral
PUBLIC	?const_min@?$integer_traits_base@J$0?IAAAAAAA@$0HPPPPPPP@@detail@boost@@2JB ; boost::detail::integer_traits_base<long,-2147483648,2147483647>::const_min
PUBLIC	?const_max@?$integer_traits_base@J$0?IAAAAAAA@$0HPPPPPPP@@detail@boost@@2JB ; boost::detail::integer_traits_base<long,-2147483648,2147483647>::const_max
PUBLIC	?is_integral@?$integer_traits_base@K$0A@$0PPPPPPPP@@detail@boost@@2_NB ; boost::detail::integer_traits_base<unsigned long,0,4294967295>::is_integral
PUBLIC	?const_min@?$integer_traits_base@K$0A@$0PPPPPPPP@@detail@boost@@2KB ; boost::detail::integer_traits_base<unsigned long,0,4294967295>::const_min
PUBLIC	?const_max@?$integer_traits_base@K$0A@$0PPPPPPPP@@detail@boost@@2KB ; boost::detail::integer_traits_base<unsigned long,0,4294967295>::const_max
PUBLIC	?is_integral@?$integer_traits_base@_J$0?IAAAAAAAAAAAAAAA@$0HPPPPPPPPPPPPPPP@@detail@boost@@2_NB ; boost::detail::integer_traits_base<__int64,-9223372036854775808,9223372036854775807>::is_integral
PUBLIC	?const_min@?$integer_traits_base@_J$0?IAAAAAAAAAAAAAAA@$0HPPPPPPPPPPPPPPP@@detail@boost@@2_JB ; boost::detail::integer_traits_base<__int64,-9223372036854775808,9223372036854775807>::const_min
PUBLIC	?const_max@?$integer_traits_base@_J$0?IAAAAAAAAAAAAAAA@$0HPPPPPPPPPPPPPPP@@detail@boost@@2_JB ; boost::detail::integer_traits_base<__int64,-9223372036854775808,9223372036854775807>::const_max
PUBLIC	?is_integral@?$integer_traits_base@_K$0A@$0?0@detail@boost@@2_NB ; boost::detail::integer_traits_base<unsigned __int64,0,-1>::is_integral
PUBLIC	?const_min@?$integer_traits_base@_K$0A@$0?0@detail@boost@@2_KB ; boost::detail::integer_traits_base<unsigned __int64,0,-1>::const_min
PUBLIC	?const_max@?$integer_traits_base@_K$0A@$0?0@detail@boost@@2_KB ; boost::detail::integer_traits_base<unsigned __int64,0,-1>::const_max
PUBLIC	?value@?$ice_or@$0A@$0A@$0A@$0A@$0A@$0A@$0A@@type_traits@boost@@2_NB ; boost::type_traits::ice_or<0,0,0,0,0,0,0>::value
PUBLIC	?value@?$ice_and@$00$00$00$00$00$00$00@type_traits@boost@@2_NB ; boost::type_traits::ice_and<1,1,1,1,1,1,1>::value
PUBLIC	?value@?$ice_not@$00@type_traits@boost@@2_NB	; boost::type_traits::ice_not<1>::value
PUBLIC	?value@?$is_convertible_impl@XX@detail@boost@@2_NB ; boost::detail::is_convertible_impl<void,void>::value
PUBLIC	?value@?$is_convertible_impl@X$$CBX@detail@boost@@2_NB ; boost::detail::is_convertible_impl<void,void const >::value
PUBLIC	?value@?$is_convertible_impl@X$$CCX@detail@boost@@2_NB ; boost::detail::is_convertible_impl<void,void volatile >::value
PUBLIC	?value@?$is_convertible_impl@X$$CDX@detail@boost@@2_NB ; boost::detail::is_convertible_impl<void,void const volatile >::value
PUBLIC	?value@?$is_convertible_impl@$$CBXX@detail@boost@@2_NB ; boost::detail::is_convertible_impl<void const ,void>::value
PUBLIC	?value@?$is_convertible_impl@$$CBX$$CBX@detail@boost@@2_NB ; boost::detail::is_convertible_impl<void const ,void const >::value
PUBLIC	?value@?$is_convertible_impl@$$CBX$$CCX@detail@boost@@2_NB ; boost::detail::is_convertible_impl<void const ,void volatile >::value
PUBLIC	?value@?$is_convertible_impl@$$CBX$$CDX@detail@boost@@2_NB ; boost::detail::is_convertible_impl<void const ,void const volatile >::value
PUBLIC	?value@?$is_convertible_impl@$$CCXX@detail@boost@@2_NB ; boost::detail::is_convertible_impl<void volatile ,void>::value
PUBLIC	?value@?$is_convertible_impl@$$CCX$$CBX@detail@boost@@2_NB ; boost::detail::is_convertible_impl<void volatile ,void const >::value
PUBLIC	?value@?$is_convertible_impl@$$CCX$$CCX@detail@boost@@2_NB ; boost::detail::is_convertible_impl<void volatile ,void volatile >::value
PUBLIC	?value@?$is_convertible_impl@$$CCX$$CDX@detail@boost@@2_NB ; boost::detail::is_convertible_impl<void volatile ,void const volatile >::value
PUBLIC	?value@?$is_convertible_impl@$$CDXX@detail@boost@@2_NB ; boost::detail::is_convertible_impl<void const volatile ,void>::value
PUBLIC	?value@?$is_convertible_impl@$$CDX$$CBX@detail@boost@@2_NB ; boost::detail::is_convertible_impl<void const volatile ,void const >::value
PUBLIC	?value@?$is_convertible_impl@$$CDX$$CCX@detail@boost@@2_NB ; boost::detail::is_convertible_impl<void const volatile ,void volatile >::value
PUBLIC	?value@?$is_convertible_impl@$$CDX$$CDX@detail@boost@@2_NB ; boost::detail::is_convertible_impl<void const volatile ,void const volatile >::value
PUBLIC	?value@type@?$select_by_size@$00@detail@iostreams@boost@@2HB ; boost::iostreams::detail::select_by_size<1>::type::value
PUBLIC	?value@?$select_by_size@$00@detail@iostreams@boost@@2HB ; boost::iostreams::detail::select_by_size<1>::value
PUBLIC	?value@type@?$select_by_size@$01@detail@iostreams@boost@@2HB ; boost::iostreams::detail::select_by_size<2>::type::value
PUBLIC	?value@?$select_by_size@$01@detail@iostreams@boost@@2HB ; boost::iostreams::detail::select_by_size<2>::value
PUBLIC	?value@type@?$select_by_size@$02@detail@iostreams@boost@@2HB ; boost::iostreams::detail::select_by_size<3>::type::value
PUBLIC	?value@?$select_by_size@$02@detail@iostreams@boost@@2HB ; boost::iostreams::detail::select_by_size<3>::value
PUBLIC	?value@type@?$select_by_size@$03@detail@iostreams@boost@@2HB ; boost::iostreams::detail::select_by_size<4>::type::value
PUBLIC	?value@?$select_by_size@$03@detail@iostreams@boost@@2HB ; boost::iostreams::detail::select_by_size<4>::value
PUBLIC	?value@type@?$select_by_size@$04@detail@iostreams@boost@@2HB ; boost::iostreams::detail::select_by_size<5>::type::value
PUBLIC	?value@?$select_by_size@$04@detail@iostreams@boost@@2HB ; boost::iostreams::detail::select_by_size<5>::value
PUBLIC	?value@type@?$select_by_size@$05@detail@iostreams@boost@@2HB ; boost::iostreams::detail::select_by_size<6>::type::value
PUBLIC	?value@?$select_by_size@$05@detail@iostreams@boost@@2HB ; boost::iostreams::detail::select_by_size<6>::value
PUBLIC	?value@type@?$select_by_size@$06@detail@iostreams@boost@@2HB ; boost::iostreams::detail::select_by_size<7>::type::value
PUBLIC	?value@?$select_by_size@$06@detail@iostreams@boost@@2HB ; boost::iostreams::detail::select_by_size<7>::value
PUBLIC	?value@type@?$select_by_size@$07@detail@iostreams@boost@@2HB ; boost::iostreams::detail::select_by_size<8>::type::value
PUBLIC	?value@?$select_by_size@$07@detail@iostreams@boost@@2HB ; boost::iostreams::detail::select_by_size<8>::value
PUBLIC	?value@type@?$select_by_size@$08@detail@iostreams@boost@@2HB ; boost::iostreams::detail::select_by_size<9>::type::value
PUBLIC	?value@?$select_by_size@$08@detail@iostreams@boost@@2HB ; boost::iostreams::detail::select_by_size<9>::value
PUBLIC	?value@type@?$select_by_size@$09@detail@iostreams@boost@@2HB ; boost::iostreams::detail::select_by_size<10>::type::value
PUBLIC	?value@?$select_by_size@$09@detail@iostreams@boost@@2HB ; boost::iostreams::detail::select_by_size<10>::value
PUBLIC	?value@type@?$select_by_size@$0L@@detail@iostreams@boost@@2HB ; boost::iostreams::detail::select_by_size<11>::type::value
PUBLIC	?value@?$select_by_size@$0L@@detail@iostreams@boost@@2HB ; boost::iostreams::detail::select_by_size<11>::value
PUBLIC	?value@type@?$select_by_size@$0M@@detail@iostreams@boost@@2HB ; boost::iostreams::detail::select_by_size<12>::type::value
PUBLIC	?value@?$select_by_size@$0M@@detail@iostreams@boost@@2HB ; boost::iostreams::detail::select_by_size<12>::value
PUBLIC	?value@type@?$select_by_size@$0N@@detail@iostreams@boost@@2HB ; boost::iostreams::detail::select_by_size<13>::type::value
PUBLIC	?value@?$select_by_size@$0N@@detail@iostreams@boost@@2HB ; boost::iostreams::detail::select_by_size<13>::value
PUBLIC	?value@type@?$select_by_size@$0O@@detail@iostreams@boost@@2HB ; boost::iostreams::detail::select_by_size<14>::type::value
PUBLIC	?value@?$select_by_size@$0O@@detail@iostreams@boost@@2HB ; boost::iostreams::detail::select_by_size<14>::value
PUBLIC	?value@type@?$select_by_size@$0P@@detail@iostreams@boost@@2HB ; boost::iostreams::detail::select_by_size<15>::type::value
PUBLIC	?value@?$select_by_size@$0P@@detail@iostreams@boost@@2HB ; boost::iostreams::detail::select_by_size<15>::value
PUBLIC	?value@type@?$select_by_size@$0BA@@detail@iostreams@boost@@2HB ; boost::iostreams::detail::select_by_size<16>::type::value
PUBLIC	?value@?$select_by_size@$0BA@@detail@iostreams@boost@@2HB ; boost::iostreams::detail::select_by_size<16>::value
PUBLIC	?value@type@?$select_by_size@$0BB@@detail@iostreams@boost@@2HB ; boost::iostreams::detail::select_by_size<17>::type::value
PUBLIC	?value@?$select_by_size@$0BB@@detail@iostreams@boost@@2HB ; boost::iostreams::detail::select_by_size<17>::value
PUBLIC	?value@type@?$select_by_size@$0BC@@detail@iostreams@boost@@2HB ; boost::iostreams::detail::select_by_size<18>::type::value
PUBLIC	?value@?$select_by_size@$0BC@@detail@iostreams@boost@@2HB ; boost::iostreams::detail::select_by_size<18>::value
PUBLIC	?value@type@?$select_by_size@$0BD@@detail@iostreams@boost@@2HB ; boost::iostreams::detail::select_by_size<19>::type::value
PUBLIC	?value@?$select_by_size@$0BD@@detail@iostreams@boost@@2HB ; boost::iostreams::detail::select_by_size<19>::value
PUBLIC	?value@type@?$select_by_size@$0BE@@detail@iostreams@boost@@2HB ; boost::iostreams::detail::select_by_size<20>::type::value
PUBLIC	?value@?$select_by_size@$0BE@@detail@iostreams@boost@@2HB ; boost::iostreams::detail::select_by_size<20>::value
PUBLIC	?value@type@?$select_by_size@$0BF@@detail@iostreams@boost@@2HB ; boost::iostreams::detail::select_by_size<21>::type::value
PUBLIC	?value@?$select_by_size@$0BF@@detail@iostreams@boost@@2HB ; boost::iostreams::detail::select_by_size<21>::value
PUBLIC	?value@?$int_@$00@mpl@boost@@2HB		; boost::mpl::int_<1>::value
PUBLIC	?value@?$int_@$01@mpl@boost@@2HB		; boost::mpl::int_<2>::value
PUBLIC	?value@?$int_@$02@mpl@boost@@2HB		; boost::mpl::int_<3>::value
PUBLIC	?value@?$int_@$03@mpl@boost@@2HB		; boost::mpl::int_<4>::value
PUBLIC	?value@?$int_@$04@mpl@boost@@2HB		; boost::mpl::int_<5>::value
PUBLIC	?value@?$int_@$05@mpl@boost@@2HB		; boost::mpl::int_<6>::value
PUBLIC	?value@?$int_@$06@mpl@boost@@2HB		; boost::mpl::int_<7>::value
PUBLIC	?value@?$int_@$07@mpl@boost@@2HB		; boost::mpl::int_<8>::value
PUBLIC	?value@?$int_@$08@mpl@boost@@2HB		; boost::mpl::int_<9>::value
PUBLIC	?value@?$int_@$09@mpl@boost@@2HB		; boost::mpl::int_<10>::value
PUBLIC	?value@?$int_@$0L@@mpl@boost@@2HB		; boost::mpl::int_<11>::value
PUBLIC	?value@?$int_@$0M@@mpl@boost@@2HB		; boost::mpl::int_<12>::value
PUBLIC	?value@?$arg@$0?0@mpl@boost@@2HB		; boost::mpl::arg<-1>::value
PUBLIC	?value@?$arg@$00@mpl@boost@@2HB			; boost::mpl::arg<1>::value
PUBLIC	?value@?$arg@$01@mpl@boost@@2HB			; boost::mpl::arg<2>::value
PUBLIC	?value@?$arg@$02@mpl@boost@@2HB			; boost::mpl::arg<3>::value
PUBLIC	?value@?$arg@$03@mpl@boost@@2HB			; boost::mpl::arg<4>::value
PUBLIC	?value@?$arg@$04@mpl@boost@@2HB			; boost::mpl::arg<5>::value
PUBLIC	?value@?$is_member_function_pointer_impl@X@detail@boost@@2_NB ; boost::detail::is_member_function_pointer_impl<void>::value
PUBLIC	?value@?$is_member_function_pointer_impl@$$CBX@detail@boost@@2_NB ; boost::detail::is_member_function_pointer_impl<void const >::value
PUBLIC	?value@?$is_member_function_pointer_impl@$$CCX@detail@boost@@2_NB ; boost::detail::is_member_function_pointer_impl<void volatile >::value
PUBLIC	?value@?$is_member_function_pointer_impl@$$CDX@detail@boost@@2_NB ; boost::detail::is_member_function_pointer_impl<void const volatile >::value
PUBLIC	?value@?$is_scalar_impl@X@detail@boost@@2_NB	; boost::detail::is_scalar_impl<void>::value
PUBLIC	?value@?$is_scalar_impl@$$CBX@detail@boost@@2_NB ; boost::detail::is_scalar_impl<void const >::value
PUBLIC	?value@?$is_scalar_impl@$$CCX@detail@boost@@2_NB ; boost::detail::is_scalar_impl<void volatile >::value
PUBLIC	?value@?$is_scalar_impl@$$CDX@detail@boost@@2_NB ; boost::detail::is_scalar_impl<void const volatile >::value
PUBLIC	?value@?$is_pod_impl@X@detail@boost@@2_NB	; boost::detail::is_pod_impl<void>::value
PUBLIC	?value@?$is_pod_impl@$$CBX@detail@boost@@2_NB	; boost::detail::is_pod_impl<void const >::value
PUBLIC	?value@?$is_pod_impl@$$CCX@detail@boost@@2_NB	; boost::detail::is_pod_impl<void volatile >::value
PUBLIC	?value@?$is_pod_impl@$$CDX@detail@boost@@2_NB	; boost::detail::is_pod_impl<void const volatile >::value
PUBLIC	?value@?$integral_constant@_N$0A@@tr1@std@@2_NB	; std::tr1::integral_constant<bool,0>::value
PUBLIC	?value@?$integral_constant@_N$00@tr1@std@@2_NB	; std::tr1::integral_constant<bool,1>::value
PUBLIC	?value@?$integral_c@I$0A@@mpl@boost@@2IB	; boost::mpl::integral_c<unsigned int,0>::value
PUBLIC	?value@?$alignment_logic@$07$07@detail@boost@@2IB ; boost::detail::alignment_logic<8,8>::value
PUBLIC	?value@?$alignment_of_impl@Tmax_align@detail@boost@@@detail@boost@@2IB ; boost::detail::alignment_of_impl<boost::detail::max_align>::value
PUBLIC	?value@?$integral_c@I$07@mpl@boost@@2IB		; boost::mpl::integral_c<unsigned int,8>::value
PUBLIC	?value@?$alignment_logic@$00$00@detail@boost@@2IB ; boost::detail::alignment_logic<1,1>::value
PUBLIC	?value@?$alignment_of_impl@D@detail@boost@@2IB	; boost::detail::alignment_of_impl<char>::value
PUBLIC	?value@?$integral_c@I$00@mpl@boost@@2IB		; boost::mpl::integral_c<unsigned int,1>::value
PUBLIC	?value@?$alignment_logic@$01$01@detail@boost@@2IB ; boost::detail::alignment_logic<2,2>::value
PUBLIC	?value@?$alignment_of_impl@F@detail@boost@@2IB	; boost::detail::alignment_of_impl<short>::value
PUBLIC	?value@?$integral_c@I$01@mpl@boost@@2IB		; boost::mpl::integral_c<unsigned int,2>::value
PUBLIC	?value@?$alignment_logic@$03$03@detail@boost@@2IB ; boost::detail::alignment_logic<4,4>::value
PUBLIC	?value@?$alignment_of_impl@H@detail@boost@@2IB	; boost::detail::alignment_of_impl<int>::value
PUBLIC	?value@?$integral_c@I$03@mpl@boost@@2IB		; boost::mpl::integral_c<unsigned int,4>::value
PUBLIC	?value@?$alignment_of_impl@J@detail@boost@@2IB	; boost::detail::alignment_of_impl<long>::value
PUBLIC	?value@?$alignment_of_impl@_J@detail@boost@@2IB	; boost::detail::alignment_of_impl<__int64>::value
PUBLIC	?value@?$alignment_of_impl@T?$lower_alignment@$07@detail@boost@@@detail@boost@@2IB ; boost::detail::alignment_of_impl<boost::detail::lower_alignment<8> >::value
PUBLIC	?value@?$is_aligned@$07$07@detail@boost@@2_NB	; boost::detail::is_aligned<8,8>::value
PUBLIC	?found@?$type_with_alignment_imp@$07@detail@boost@@0IB ; boost::detail::type_with_alignment_imp<8>::found
PUBLIC	?value@?$is_pod_impl@Ua8@align@boost@@@detail@boost@@2_NB ; boost::detail::is_pod_impl<boost::align::a8>::value
PUBLIC	?value@?$is_pod_impl@Ua16@align@boost@@@detail@boost@@2_NB ; boost::detail::is_pod_impl<boost::align::a16>::value
PUBLIC	?value@?$is_pod_impl@Ua32@align@boost@@@detail@boost@@2_NB ; boost::detail::is_pod_impl<boost::align::a32>::value
PUBLIC	?value@?$is_pod_impl@Ua64@align@boost@@@detail@boost@@2_NB ; boost::detail::is_pod_impl<boost::align::a64>::value
PUBLIC	?value@?$is_pod_impl@Ua128@align@boost@@@detail@boost@@2_NB ; boost::detail::is_pod_impl<boost::align::a128>::value
PUBLIC	?has_fixed_range@rand48@boost@@2_NB		; boost::rand48::has_fixed_range
PUBLIC	?min_value@rand48@boost@@2JB			; boost::rand48::min_value
PUBLIC	?max_value@rand48@boost@@2JB			; boost::rand48::max_value
PUBLIC	?has_fixed_range@?$linear_congruential@_K$0FNOOMOGGN@$0L@$0BAAAAAAAAAAAA@$0A@@random@boost@@2_NB ; boost::random::linear_congruential<unsigned __int64,25214903917,11,281474976710656,0>::has_fixed_range
PUBLIC	?min_value@?$linear_congruential@_K$0FNOOMOGGN@$0L@$0BAAAAAAAAAAAA@$0A@@random@boost@@2_KB ; boost::random::linear_congruential<unsigned __int64,25214903917,11,281474976710656,0>::min_value
PUBLIC	?max_value@?$linear_congruential@_K$0FNOOMOGGN@$0L@$0BAAAAAAAAAAAA@$0A@@random@boost@@2_KB ; boost::random::linear_congruential<unsigned __int64,25214903917,11,281474976710656,0>::max_value
PUBLIC	?multiplier@?$linear_congruential@_K$0FNOOMOGGN@$0L@$0BAAAAAAAAAAAA@$0A@@random@boost@@2_KB ; boost::random::linear_congruential<unsigned __int64,25214903917,11,281474976710656,0>::multiplier
PUBLIC	?increment@?$linear_congruential@_K$0FNOOMOGGN@$0L@$0BAAAAAAAAAAAA@$0A@@random@boost@@2_KB ; boost::random::linear_congruential<unsigned __int64,25214903917,11,281474976710656,0>::increment
PUBLIC	?modulus@?$linear_congruential@_K$0FNOOMOGGN@$0L@$0BAAAAAAAAAAAA@$0A@@random@boost@@2_KB ; boost::random::linear_congruential<unsigned __int64,25214903917,11,281474976710656,0>::modulus
PUBLIC	?has_fixed_range@?$linear_congruential@J$0JMEO@$0A@$0HPPPPPKL@$0A@@random@boost@@2_NB ; boost::random::linear_congruential<long,40014,0,2147483563,0>::has_fixed_range
PUBLIC	?min_value@?$linear_congruential@J$0JMEO@$0A@$0HPPPPPKL@$0A@@random@boost@@2JB ; boost::random::linear_congruential<long,40014,0,2147483563,0>::min_value
PUBLIC	?max_value@?$linear_congruential@J$0JMEO@$0A@$0HPPPPPKL@$0A@@random@boost@@2JB ; boost::random::linear_congruential<long,40014,0,2147483563,0>::max_value
PUBLIC	?multiplier@?$linear_congruential@J$0JMEO@$0A@$0HPPPPPKL@$0A@@random@boost@@2JB ; boost::random::linear_congruential<long,40014,0,2147483563,0>::multiplier
PUBLIC	?increment@?$linear_congruential@J$0JMEO@$0A@$0HPPPPPKL@$0A@@random@boost@@2JB ; boost::random::linear_congruential<long,40014,0,2147483563,0>::increment
PUBLIC	?modulus@?$linear_congruential@J$0JMEO@$0A@$0HPPPPPKL@$0A@@random@boost@@2JB ; boost::random::linear_congruential<long,40014,0,2147483563,0>::modulus
PUBLIC	?has_fixed_range@?$linear_congruential@K$0FFG@$0CENGJ@$0KOFCJ@$0A@@random@boost@@2_NB ; boost::random::linear_congruential<unsigned long,1366,150889,714025,0>::has_fixed_range
PUBLIC	?min_value@?$linear_congruential@K$0FFG@$0CENGJ@$0KOFCJ@$0A@@random@boost@@2KB ; boost::random::linear_congruential<unsigned long,1366,150889,714025,0>::min_value
PUBLIC	?max_value@?$linear_congruential@K$0FFG@$0CENGJ@$0KOFCJ@$0A@@random@boost@@2KB ; boost::random::linear_congruential<unsigned long,1366,150889,714025,0>::max_value
PUBLIC	?multiplier@?$linear_congruential@K$0FFG@$0CENGJ@$0KOFCJ@$0A@@random@boost@@2KB ; boost::random::linear_congruential<unsigned long,1366,150889,714025,0>::multiplier
PUBLIC	?increment@?$linear_congruential@K$0FFG@$0CENGJ@$0KOFCJ@$0A@@random@boost@@2KB ; boost::random::linear_congruential<unsigned long,1366,150889,714025,0>::increment
PUBLIC	?modulus@?$linear_congruential@K$0FFG@$0CENGJ@$0KOFCJ@$0A@@random@boost@@2KB ; boost::random::linear_congruential<unsigned long,1366,150889,714025,0>::modulus
PUBLIC	?is_specialized@?$fibonacci_validation@N$0CFP@$0BBB@@random@boost@@2_NB ; boost::random::fibonacci_validation<double,607,273>::is_specialized
PUBLIC	?is_specialized@?$fibonacci_validation@N$0EPP@$0BKC@@random@boost@@2_NB ; boost::random::fibonacci_validation<double,1279,418>::is_specialized
PUBLIC	?is_specialized@?$fibonacci_validation@N$0IOJ@$0EOE@@random@boost@@2_NB ; boost::random::fibonacci_validation<double,2281,1252>::is_specialized
PUBLIC	?is_specialized@?$fibonacci_validation@N$0MJB@$0CEA@@random@boost@@2_NB ; boost::random::fibonacci_validation<double,3217,576>::is_specialized
PUBLIC	?is_specialized@?$fibonacci_validation@N$0BBEH@$0IDC@@random@boost@@2_NB ; boost::random::fibonacci_validation<double,4423,2098>::is_specialized
PUBLIC	?is_specialized@?$fibonacci_validation@N$0CFNJ@$0BFHO@@random@boost@@2_NB ; boost::random::fibonacci_validation<double,9689,5502>::is_specialized
PUBLIC	?is_specialized@?$fibonacci_validation@N$0ENOB@$0CGHC@@random@boost@@2_NB ; boost::random::fibonacci_validation<double,19937,9842>::is_specialized
PUBLIC	?is_specialized@?$fibonacci_validation@N$0FKKJ@$0DEJO@@random@boost@@2_NB ; boost::random::fibonacci_validation<double,23209,13470>::is_specialized
PUBLIC	?is_specialized@?$fibonacci_validation@N$0KNNB@$0FCCK@@random@boost@@2_NB ; boost::random::fibonacci_validation<double,44497,21034>::is_specialized
PUBLIC	?has_fixed_range@?$linear_feedback_shift@K$0CA@$0BP@$0N@$0M@$0A@@random@boost@@2_NB ; boost::random::linear_feedback_shift<unsigned long,32,31,13,12,0>::has_fixed_range
PUBLIC	?word_size@?$linear_feedback_shift@K$0CA@$0BP@$0N@$0M@$0A@@random@boost@@2HB ; boost::random::linear_feedback_shift<unsigned long,32,31,13,12,0>::word_size
PUBLIC	?exponent1@?$linear_feedback_shift@K$0CA@$0BP@$0N@$0M@$0A@@random@boost@@2HB ; boost::random::linear_feedback_shift<unsigned long,32,31,13,12,0>::exponent1
PUBLIC	?exponent2@?$linear_feedback_shift@K$0CA@$0BP@$0N@$0M@$0A@@random@boost@@2HB ; boost::random::linear_feedback_shift<unsigned long,32,31,13,12,0>::exponent2
PUBLIC	?step_size@?$linear_feedback_shift@K$0CA@$0BP@$0N@$0M@$0A@@random@boost@@2HB ; boost::random::linear_feedback_shift<unsigned long,32,31,13,12,0>::step_size
PUBLIC	?has_fixed_range@?$xor_combine@V?$linear_feedback_shift@K$0CA@$0BP@$0N@$0M@$0A@@random@boost@@$0A@V?$linear_feedback_shift@K$0CA@$0BN@$01$03$0A@@23@$0A@$0A@@random@boost@@2_NB ; boost::random::xor_combine<boost::random::linear_feedback_shift<unsigned long,32,31,13,12,0>,0,boost::random::linear_feedback_shift<unsigned long,32,29,2,4,0>,0,0>::has_fixed_range
PUBLIC	?shift1@?$xor_combine@V?$linear_feedback_shift@K$0CA@$0BP@$0N@$0M@$0A@@random@boost@@$0A@V?$linear_feedback_shift@K$0CA@$0BN@$01$03$0A@@23@$0A@$0A@@random@boost@@2HB ; boost::random::xor_combine<boost::random::linear_feedback_shift<unsigned long,32,31,13,12,0>,0,boost::random::linear_feedback_shift<unsigned long,32,29,2,4,0>,0,0>::shift1
PUBLIC	?shift2@?$xor_combine@V?$linear_feedback_shift@K$0CA@$0BP@$0N@$0M@$0A@@random@boost@@$0A@V?$linear_feedback_shift@K$0CA@$0BN@$01$03$0A@@23@$0A@$0A@@random@boost@@2HB ; boost::random::xor_combine<boost::random::linear_feedback_shift<unsigned long,32,31,13,12,0>,0,boost::random::linear_feedback_shift<unsigned long,32,29,2,4,0>,0,0>::shift2
PUBLIC	?has_fixed_range@?$linear_feedback_shift@K$0CA@$0BN@$01$03$0A@@random@boost@@2_NB ; boost::random::linear_feedback_shift<unsigned long,32,29,2,4,0>::has_fixed_range
PUBLIC	?word_size@?$linear_feedback_shift@K$0CA@$0BN@$01$03$0A@@random@boost@@2HB ; boost::random::linear_feedback_shift<unsigned long,32,29,2,4,0>::word_size
PUBLIC	?exponent1@?$linear_feedback_shift@K$0CA@$0BN@$01$03$0A@@random@boost@@2HB ; boost::random::linear_feedback_shift<unsigned long,32,29,2,4,0>::exponent1
PUBLIC	?exponent2@?$linear_feedback_shift@K$0CA@$0BN@$01$03$0A@@random@boost@@2HB ; boost::random::linear_feedback_shift<unsigned long,32,29,2,4,0>::exponent2
PUBLIC	?step_size@?$linear_feedback_shift@K$0CA@$0BN@$01$03$0A@@random@boost@@2HB ; boost::random::linear_feedback_shift<unsigned long,32,29,2,4,0>::step_size
PUBLIC	?value@?$implementation_level@Ucollection_size_type@serialization@boost@@@serialization@boost@@2HB ; boost::serialization::implementation_level<boost::serialization::collection_size_type>::value
PUBLIC	?value@?$implementation_level@V?$vector@_NV?$allocator@_N@std@@@std@@@serialization@boost@@2HB ; boost::serialization::implementation_level<std::vector<bool,std::allocator<bool> > >::value
PUBLIC	?value@?$implementation_level@V?$vector@DV?$allocator@D@std@@@std@@@serialization@boost@@2HB ; boost::serialization::implementation_level<std::vector<char,std::allocator<char> > >::value
PUBLIC	?value@?$implementation_level@V?$vector@CV?$allocator@C@std@@@std@@@serialization@boost@@2HB ; boost::serialization::implementation_level<std::vector<signed char,std::allocator<signed char> > >::value
PUBLIC	?value@?$implementation_level@V?$vector@EV?$allocator@E@std@@@std@@@serialization@boost@@2HB ; boost::serialization::implementation_level<std::vector<unsigned char,std::allocator<unsigned char> > >::value
PUBLIC	?value@?$implementation_level@V?$vector@HV?$allocator@H@std@@@std@@@serialization@boost@@2HB ; boost::serialization::implementation_level<std::vector<int,std::allocator<int> > >::value
PUBLIC	?value@?$implementation_level@V?$vector@IV?$allocator@I@std@@@std@@@serialization@boost@@2HB ; boost::serialization::implementation_level<std::vector<unsigned int,std::allocator<unsigned int> > >::value
PUBLIC	?value@?$implementation_level@V?$vector@JV?$allocator@J@std@@@std@@@serialization@boost@@2HB ; boost::serialization::implementation_level<std::vector<long,std::allocator<long> > >::value
PUBLIC	?value@?$implementation_level@V?$vector@KV?$allocator@K@std@@@std@@@serialization@boost@@2HB ; boost::serialization::implementation_level<std::vector<unsigned long,std::allocator<unsigned long> > >::value
PUBLIC	?value@?$implementation_level@V?$vector@MV?$allocator@M@std@@@std@@@serialization@boost@@2HB ; boost::serialization::implementation_level<std::vector<float,std::allocator<float> > >::value
PUBLIC	?value@?$implementation_level@V?$vector@NV?$allocator@N@std@@@std@@@serialization@boost@@2HB ; boost::serialization::implementation_level<std::vector<double,std::allocator<double> > >::value
PUBLIC	?value@?$implementation_level@V?$vector@GV?$allocator@G@std@@@std@@@serialization@boost@@2HB ; boost::serialization::implementation_level<std::vector<unsigned short,std::allocator<unsigned short> > >::value
PUBLIC	?value@?$implementation_level@V?$vector@FV?$allocator@F@std@@@std@@@serialization@boost@@2HB ; boost::serialization::implementation_level<std::vector<short,std::allocator<short> > >::value
PUBLIC	?value@?$implementation_level@V?$vector@_JV?$allocator@_J@std@@@std@@@serialization@boost@@2HB ; boost::serialization::implementation_level<std::vector<__int64,std::allocator<__int64> > >::value
PUBLIC	?value@?$implementation_level@V?$vector@_KV?$allocator@_K@std@@@std@@@serialization@boost@@2HB ; boost::serialization::implementation_level<std::vector<unsigned __int64,std::allocator<unsigned __int64> > >::value
PUBLIC	?value@?$implementation_level@V?$vector@_WV?$allocator@_W@std@@@std@@@serialization@boost@@2HB ; boost::serialization::implementation_level<std::vector<wchar_t,std::allocator<wchar_t> > >::value
PUBLIC	?value@?$is_arithmetic_impl@Uinput@iostreams@boost@@@detail@boost@@2_NB ; boost::detail::is_arithmetic_impl<boost::iostreams::input>::value
PUBLIC	?value@?$is_abstract_imp@Uinput@iostreams@boost@@@detail@boost@@2_NB ; boost::detail::is_abstract_imp<boost::iostreams::input>::value
PUBLIC	?value@?$is_convertible_basic_impl@AAUinput@iostreams@boost@@U123@@detail@boost@@2_NB ; boost::detail::is_convertible_basic_impl<boost::iostreams::input &,boost::iostreams::input>::value
PUBLIC	?value@?$ice_or@$00$0A@$0A@$0A@$0A@$0A@$0A@@type_traits@boost@@2_NB ; boost::type_traits::ice_or<1,0,0,0,0,0,0>::value
PUBLIC	?value@?$ice_not@$0A@@type_traits@boost@@2_NB	; boost::type_traits::ice_not<0>::value
PUBLIC	?value@?$is_convertible_impl@Uinput@iostreams@boost@@U123@@detail@boost@@2_NB ; boost::detail::is_convertible_impl<boost::iostreams::input,boost::iostreams::input>::value
PUBLIC	?value@?$is_arithmetic_impl@Uoutput@iostreams@boost@@@detail@boost@@2_NB ; boost::detail::is_arithmetic_impl<boost::iostreams::output>::value
PUBLIC	?value@?$is_abstract_imp@Uoutput@iostreams@boost@@@detail@boost@@2_NB ; boost::detail::is_abstract_imp<boost::iostreams::output>::value
PUBLIC	?value@?$is_convertible_basic_impl@AAUinput@iostreams@boost@@Uoutput@23@@detail@boost@@2_NB ; boost::detail::is_convertible_basic_impl<boost::iostreams::input &,boost::iostreams::output>::value
PUBLIC	?value@?$ice_and@$0A@$00$00$00$00$00$00@type_traits@boost@@2_NB ; boost::type_traits::ice_and<0,1,1,1,1,1,1>::value
PUBLIC	?value@?$is_convertible_impl@Uinput@iostreams@boost@@Uoutput@23@@detail@boost@@2_NB ; boost::detail::is_convertible_impl<boost::iostreams::input,boost::iostreams::output>::value
PUBLIC	?word_size@?$mersenne_twister@K$0CA@$0CHA@$0BIN@$0BP@$0JJAILANP@$0L@$06$0JNCMFGIA@$0P@$0OPMGAAAA@$0BC@$0MHHGGGNO@@random@boost@@2HB ; boost::random::mersenne_twister<unsigned long,32,624,397,31,2567483615,11,7,2636928640,15,4022730752,18,3346425566>::word_size
PUBLIC	?state_size@?$mersenne_twister@K$0CA@$0CHA@$0BIN@$0BP@$0JJAILANP@$0L@$06$0JNCMFGIA@$0P@$0OPMGAAAA@$0BC@$0MHHGGGNO@@random@boost@@2HB ; boost::random::mersenne_twister<unsigned long,32,624,397,31,2567483615,11,7,2636928640,15,4022730752,18,3346425566>::state_size
PUBLIC	?shift_size@?$mersenne_twister@K$0CA@$0CHA@$0BIN@$0BP@$0JJAILANP@$0L@$06$0JNCMFGIA@$0P@$0OPMGAAAA@$0BC@$0MHHGGGNO@@random@boost@@2HB ; boost::random::mersenne_twister<unsigned long,32,624,397,31,2567483615,11,7,2636928640,15,4022730752,18,3346425566>::shift_size
PUBLIC	?mask_bits@?$mersenne_twister@K$0CA@$0CHA@$0BIN@$0BP@$0JJAILANP@$0L@$06$0JNCMFGIA@$0P@$0OPMGAAAA@$0BC@$0MHHGGGNO@@random@boost@@2HB ; boost::random::mersenne_twister<unsigned long,32,624,397,31,2567483615,11,7,2636928640,15,4022730752,18,3346425566>::mask_bits
PUBLIC	?parameter_a@?$mersenne_twister@K$0CA@$0CHA@$0BIN@$0BP@$0JJAILANP@$0L@$06$0JNCMFGIA@$0P@$0OPMGAAAA@$0BC@$0MHHGGGNO@@random@boost@@2KB ; boost::random::mersenne_twister<unsigned long,32,624,397,31,2567483615,11,7,2636928640,15,4022730752,18,3346425566>::parameter_a
PUBLIC	?output_u@?$mersenne_twister@K$0CA@$0CHA@$0BIN@$0BP@$0JJAILANP@$0L@$06$0JNCMFGIA@$0P@$0OPMGAAAA@$0BC@$0MHHGGGNO@@random@boost@@2HB ; boost::random::mersenne_twister<unsigned long,32,624,397,31,2567483615,11,7,2636928640,15,4022730752,18,3346425566>::output_u
PUBLIC	?output_s@?$mersenne_twister@K$0CA@$0CHA@$0BIN@$0BP@$0JJAILANP@$0L@$06$0JNCMFGIA@$0P@$0OPMGAAAA@$0BC@$0MHHGGGNO@@random@boost@@2HB ; boost::random::mersenne_twister<unsigned long,32,624,397,31,2567483615,11,7,2636928640,15,4022730752,18,3346425566>::output_s
PUBLIC	?output_b@?$mersenne_twister@K$0CA@$0CHA@$0BIN@$0BP@$0JJAILANP@$0L@$06$0JNCMFGIA@$0P@$0OPMGAAAA@$0BC@$0MHHGGGNO@@random@boost@@2KB ; boost::random::mersenne_twister<unsigned long,32,624,397,31,2567483615,11,7,2636928640,15,4022730752,18,3346425566>::output_b
PUBLIC	?output_t@?$mersenne_twister@K$0CA@$0CHA@$0BIN@$0BP@$0JJAILANP@$0L@$06$0JNCMFGIA@$0P@$0OPMGAAAA@$0BC@$0MHHGGGNO@@random@boost@@2HB ; boost::random::mersenne_twister<unsigned long,32,624,397,31,2567483615,11,7,2636928640,15,4022730752,18,3346425566>::output_t
PUBLIC	?output_c@?$mersenne_twister@K$0CA@$0CHA@$0BIN@$0BP@$0JJAILANP@$0L@$06$0JNCMFGIA@$0P@$0OPMGAAAA@$0BC@$0MHHGGGNO@@random@boost@@2KB ; boost::random::mersenne_twister<unsigned long,32,624,397,31,2567483615,11,7,2636928640,15,4022730752,18,3346425566>::output_c
PUBLIC	?output_l@?$mersenne_twister@K$0CA@$0CHA@$0BIN@$0BP@$0JJAILANP@$0L@$06$0JNCMFGIA@$0P@$0OPMGAAAA@$0BC@$0MHHGGGNO@@random@boost@@2HB ; boost::random::mersenne_twister<unsigned long,32,624,397,31,2567483615,11,7,2636928640,15,4022730752,18,3346425566>::output_l
PUBLIC	?has_fixed_range@?$mersenne_twister@K$0CA@$0CHA@$0BIN@$0BP@$0JJAILANP@$0L@$06$0JNCMFGIA@$0P@$0OPMGAAAA@$0BC@$0MHHGGGNO@@random@boost@@2_NB ; boost::random::mersenne_twister<unsigned long,32,624,397,31,2567483615,11,7,2636928640,15,4022730752,18,3346425566>::has_fixed_range
PUBLIC	?is_const@?$cv_traits_imp@PAH@detail@boost@@2_NB ; boost::detail::cv_traits_imp<int *>::is_const
PUBLIC	?is_volatile@?$cv_traits_imp@PAH@detail@boost@@2_NB ; boost::detail::cv_traits_imp<int *>::is_volatile
PUBLIC	?value@?$is_ununsigned_helper@H@detail@boost@@2_NB ; boost::detail::is_ununsigned_helper<int>::value
PUBLIC	?value@?$is_unsigned_imp@H@detail@boost@@2_NB	; boost::detail::is_unsigned_imp<int>::value
PUBLIC	?has_fixed_range@?$backward_compatible_uniform_01@V?$pass_through_engine@AAV?$mersenne_twister@K$0CA@$0CHA@$0BIN@$0BP@$0JJAILANP@$0L@$06$0JNCMFGIA@$0P@$0OPMGAAAA@$0BC@$0MHHGGGNO@@random@boost@@@detail@random@boost@@N@detail@boost@@2_NB ; boost::detail::backward_compatible_uniform_01<boost::random::detail::pass_through_engine<boost::random::mersenne_twister<unsigned long,32,624,397,31,2567483615,11,7,2636928640,15,4022730752,18,3346425566> &>,double>::has_fixed_range
PUBLIC	?has_fixed_range@?$backward_compatible_uniform_01@V?$pass_through_engine@V?$mersenne_twister@K$0CA@$0CHA@$0BIN@$0BP@$0JJAILANP@$0L@$06$0JNCMFGIA@$0P@$0OPMGAAAA@$0BC@$0MHHGGGNO@@random@boost@@@detail@random@boost@@N@detail@boost@@2_NB ; boost::detail::backward_compatible_uniform_01<boost::random::detail::pass_through_engine<boost::random::mersenne_twister<unsigned long,32,624,397,31,2567483615,11,7,2636928640,15,4022730752,18,3346425566> >,double>::has_fixed_range
PUBLIC	?value@?$implementation_level@V?$list@_NV?$allocator@_N@std@@@std@@@serialization@boost@@2HB ; boost::serialization::implementation_level<std::list<bool,std::allocator<bool> > >::value
PUBLIC	?value@?$implementation_level@V?$list@DV?$allocator@D@std@@@std@@@serialization@boost@@2HB ; boost::serialization::implementation_level<std::list<char,std::allocator<char> > >::value
PUBLIC	?value@?$implementation_level@V?$list@CV?$allocator@C@std@@@std@@@serialization@boost@@2HB ; boost::serialization::implementation_level<std::list<signed char,std::allocator<signed char> > >::value
PUBLIC	?value@?$implementation_level@V?$list@EV?$allocator@E@std@@@std@@@serialization@boost@@2HB ; boost::serialization::implementation_level<std::list<unsigned char,std::allocator<unsigned char> > >::value
PUBLIC	?value@?$implementation_level@V?$list@HV?$allocator@H@std@@@std@@@serialization@boost@@2HB ; boost::serialization::implementation_level<std::list<int,std::allocator<int> > >::value
PUBLIC	?value@?$implementation_level@V?$list@IV?$allocator@I@std@@@std@@@serialization@boost@@2HB ; boost::serialization::implementation_level<std::list<unsigned int,std::allocator<unsigned int> > >::value
PUBLIC	?value@?$implementation_level@V?$list@JV?$allocator@J@std@@@std@@@serialization@boost@@2HB ; boost::serialization::implementation_level<std::list<long,std::allocator<long> > >::value
PUBLIC	?value@?$implementation_level@V?$list@KV?$allocator@K@std@@@std@@@serialization@boost@@2HB ; boost::serialization::implementation_level<std::list<unsigned long,std::allocator<unsigned long> > >::value
PUBLIC	?value@?$implementation_level@V?$list@MV?$allocator@M@std@@@std@@@serialization@boost@@2HB ; boost::serialization::implementation_level<std::list<float,std::allocator<float> > >::value
PUBLIC	?value@?$implementation_level@V?$list@NV?$allocator@N@std@@@std@@@serialization@boost@@2HB ; boost::serialization::implementation_level<std::list<double,std::allocator<double> > >::value
PUBLIC	?value@?$implementation_level@V?$list@GV?$allocator@G@std@@@std@@@serialization@boost@@2HB ; boost::serialization::implementation_level<std::list<unsigned short,std::allocator<unsigned short> > >::value
PUBLIC	?value@?$implementation_level@V?$list@FV?$allocator@F@std@@@std@@@serialization@boost@@2HB ; boost::serialization::implementation_level<std::list<short,std::allocator<short> > >::value
PUBLIC	?value@?$implementation_level@V?$list@_JV?$allocator@_J@std@@@std@@@serialization@boost@@2HB ; boost::serialization::implementation_level<std::list<__int64,std::allocator<__int64> > >::value
PUBLIC	?value@?$implementation_level@V?$list@_KV?$allocator@_K@std@@@std@@@serialization@boost@@2HB ; boost::serialization::implementation_level<std::list<unsigned __int64,std::allocator<unsigned __int64> > >::value
PUBLIC	?value@?$implementation_level@V?$list@_WV?$allocator@_W@std@@@std@@@serialization@boost@@2HB ; boost::serialization::implementation_level<std::list<wchar_t,std::allocator<wchar_t> > >::value
PUBLIC	?value@?$implementation_level@Uversion_type@archive@boost@@@serialization@boost@@2HB ; boost::serialization::implementation_level<boost::archive::version_type>::value
PUBLIC	?value@?$implementation_level@Uclass_id_type@archive@boost@@@serialization@boost@@2HB ; boost::serialization::implementation_level<boost::archive::class_id_type>::value
PUBLIC	?value@?$implementation_level@Uclass_id_reference_type@archive@boost@@@serialization@boost@@2HB ; boost::serialization::implementation_level<boost::archive::class_id_reference_type>::value
PUBLIC	?value@?$implementation_level@Uclass_id_optional_type@archive@boost@@@serialization@boost@@2HB ; boost::serialization::implementation_level<boost::archive::class_id_optional_type>::value
PUBLIC	?value@?$implementation_level@Uclass_name_type@archive@boost@@@serialization@boost@@2HB ; boost::serialization::implementation_level<boost::archive::class_name_type>::value
PUBLIC	?value@?$implementation_level@Uobject_id_type@archive@boost@@@serialization@boost@@2HB ; boost::serialization::implementation_level<boost::archive::object_id_type>::value
PUBLIC	?value@?$implementation_level@Uobject_reference_type@archive@boost@@@serialization@boost@@2HB ; boost::serialization::implementation_level<boost::archive::object_reference_type>::value
PUBLIC	?value@?$implementation_level@Utracking_type@archive@boost@@@serialization@boost@@2HB ; boost::serialization::implementation_level<boost::archive::tracking_type>::value
PUBLIC	?value@?$implementation_level@V?$basic_string@DU?$char_traits@D@std@@V?$allocator@D@2@@std@@@serialization@boost@@2HB ; boost::serialization::implementation_level<std::basic_string<char,std::char_traits<char>,std::allocator<char> > >::value
PUBLIC	?value@?$implementation_level@V?$basic_string@_WU?$char_traits@_W@std@@V?$allocator@_W@2@@std@@@serialization@boost@@2HB ; boost::serialization::implementation_level<std::basic_string<wchar_t,std::char_traits<wchar_t>,std::allocator<wchar_t> > >::value
PUBLIC	?value@?$int_@$0A@@mpl@boost@@2HB		; boost::mpl::int_<0>::value
PUBLIC	?value@?$is_convertible_basic_impl@AAUoutput@iostreams@boost@@Uinput@23@@detail@boost@@2_NB ; boost::detail::is_convertible_basic_impl<boost::iostreams::output &,boost::iostreams::input>::value
PUBLIC	?value@?$is_convertible_impl@Uoutput@iostreams@boost@@Uinput@23@@detail@boost@@2_NB ; boost::detail::is_convertible_impl<boost::iostreams::output,boost::iostreams::input>::value
PUBLIC	?value@?$is_empty_impl@X@detail@boost@@2_NB	; boost::detail::is_empty_impl<void>::value
PUBLIC	?value@?$is_empty_impl@$$CBX@detail@boost@@2_NB	; boost::detail::is_empty_impl<void const >::value
PUBLIC	?value@?$is_empty_impl@$$CCX@detail@boost@@2_NB	; boost::detail::is_empty_impl<void volatile >::value
PUBLIC	?value@?$is_empty_impl@$$CDX@detail@boost@@2_NB	; boost::detail::is_empty_impl<void const volatile >::value
PUBLIC	?value@?$not_satisfied@U?$usage_requirements@U?$SGIAssignable@_J@boost@@@concept@boost@@@concept@boost@@2_NB ; boost::concept::not_satisfied<boost::concept::usage_requirements<boost::SGIAssignable<__int64> > >::value
PUBLIC	?value@?$not_satisfied@U?$SGIAssignableConcept@_J@boost@@@concept@boost@@2_NB ; boost::concept::not_satisfied<boost::SGIAssignableConcept<__int64> >::value
PUBLIC	?is_const@?$cv_traits_imp@PA_J@detail@boost@@2_NB ; boost::detail::cv_traits_imp<__int64 *>::is_const
PUBLIC	?is_volatile@?$cv_traits_imp@PA_J@detail@boost@@2_NB ; boost::detail::cv_traits_imp<__int64 *>::is_volatile
PUBLIC	?value@?$is_pointer_helper@_J@detail@boost@@2_NB ; boost::detail::is_pointer_helper<__int64>::value
PUBLIC	?value@?$result_@_J@?$is_mem_fun_pointer_select@$0A@@detail@boost@@2_NB ; boost::detail::is_mem_fun_pointer_select<0>::result_<__int64>::value
PUBLIC	?value@?$is_pointer_impl@_J@detail@boost@@2_NB	; boost::detail::is_pointer_impl<__int64>::value
PUBLIC	?value@?$is_arithmetic_impl@_J@detail@boost@@2_NB ; boost::detail::is_arithmetic_impl<__int64>::value
PUBLIC	?_EEM_DS@?$deque@U?$pair@I_J@std@@V?$allocator@U?$pair@I_J@std@@@2@@std@@2HB ; std::deque<std::pair<unsigned int,__int64>,std::allocator<std::pair<unsigned int,__int64> > >::_EEM_DS
PUBLIC	?is_const@?$cv_traits_imp@PBV?$basic_string@DU?$char_traits@D@std@@V?$allocator@D@2@@std@@@detail@boost@@2_NB ; boost::detail::cv_traits_imp<std::basic_string<char,std::char_traits<char>,std::allocator<char> > const *>::is_const
PUBLIC	?is_volatile@?$cv_traits_imp@PBV?$basic_string@DU?$char_traits@D@std@@V?$allocator@D@2@@std@@@detail@boost@@2_NB ; boost::detail::cv_traits_imp<std::basic_string<char,std::char_traits<char>,std::allocator<char> > const *>::is_volatile
PUBLIC	?is_const@?$cv_traits_imp@PAV?$basic_string@DU?$char_traits@D@std@@V?$allocator@D@2@@std@@@detail@boost@@2_NB ; boost::detail::cv_traits_imp<std::basic_string<char,std::char_traits<char>,std::allocator<char> > *>::is_const
PUBLIC	?is_volatile@?$cv_traits_imp@PAV?$basic_string@DU?$char_traits@D@std@@V?$allocator@D@2@@std@@@detail@boost@@2_NB ; boost::detail::cv_traits_imp<std::basic_string<char,std::char_traits<char>,std::allocator<char> > *>::is_volatile
PUBLIC	?value@?$is_abstract_imp@D@detail@boost@@2_NB	; boost::detail::is_abstract_imp<char>::value
PUBLIC	?is_const@?$cv_traits_imp@PBV?$iterator_range@V?$_String_iterator@DU?$char_traits@D@std@@V?$allocator@D@2@@std@@@boost@@@detail@boost@@2_NB ; boost::detail::cv_traits_imp<boost::iterator_range<std::_String_iterator<char,std::char_traits<char>,std::allocator<char> > > const *>::is_const
PUBLIC	?is_volatile@?$cv_traits_imp@PBV?$iterator_range@V?$_String_iterator@DU?$char_traits@D@std@@V?$allocator@D@2@@std@@@boost@@@detail@boost@@2_NB ; boost::detail::cv_traits_imp<boost::iterator_range<std::_String_iterator<char,std::char_traits<char>,std::allocator<char> > > const *>::is_volatile
PUBLIC	?is_const@?$cv_traits_imp@PAUtracking_type@archive@boost@@@detail@boost@@2_NB ; boost::detail::cv_traits_imp<boost::archive::tracking_type *>::is_const
PUBLIC	?is_volatile@?$cv_traits_imp@PAUtracking_type@archive@boost@@@detail@boost@@2_NB ; boost::detail::cv_traits_imp<boost::archive::tracking_type *>::is_volatile
PUBLIC	?value@?$is_pointer_helper@Utracking_type@archive@boost@@@detail@boost@@2_NB ; boost::detail::is_pointer_helper<boost::archive::tracking_type>::value
PUBLIC	?value@?$result_@Utracking_type@archive@boost@@@?$is_mem_fun_pointer_select@$0A@@detail@boost@@2_NB ; boost::detail::is_mem_fun_pointer_select<0>::result_<boost::archive::tracking_type>::value
PUBLIC	?value@?$is_pointer_impl@Utracking_type@archive@boost@@@detail@boost@@2_NB ; boost::detail::is_pointer_impl<boost::archive::tracking_type>::value
PUBLIC	?is_const@?$cv_traits_imp@PAUversion_type@archive@boost@@@detail@boost@@2_NB ; boost::detail::cv_traits_imp<boost::archive::version_type *>::is_const
PUBLIC	?is_volatile@?$cv_traits_imp@PAUversion_type@archive@boost@@@detail@boost@@2_NB ; boost::detail::cv_traits_imp<boost::archive::version_type *>::is_volatile
PUBLIC	?value@?$is_pointer_helper@Uversion_type@archive@boost@@@detail@boost@@2_NB ; boost::detail::is_pointer_helper<boost::archive::version_type>::value
PUBLIC	?value@?$result_@Uversion_type@archive@boost@@@?$is_mem_fun_pointer_select@$0A@@detail@boost@@2_NB ; boost::detail::is_mem_fun_pointer_select<0>::result_<boost::archive::version_type>::value
PUBLIC	?value@?$is_pointer_impl@Uversion_type@archive@boost@@@detail@boost@@2_NB ; boost::detail::is_pointer_impl<boost::archive::version_type>::value
PUBLIC	?is_const@?$cv_traits_imp@PAUobject_id_type@archive@boost@@@detail@boost@@2_NB ; boost::detail::cv_traits_imp<boost::archive::object_id_type *>::is_const
PUBLIC	?is_volatile@?$cv_traits_imp@PAUobject_id_type@archive@boost@@@detail@boost@@2_NB ; boost::detail::cv_traits_imp<boost::archive::object_id_type *>::is_volatile
PUBLIC	?value@?$is_pointer_helper@Uobject_id_type@archive@boost@@@detail@boost@@2_NB ; boost::detail::is_pointer_helper<boost::archive::object_id_type>::value
PUBLIC	?value@?$result_@Uobject_id_type@archive@boost@@@?$is_mem_fun_pointer_select@$0A@@detail@boost@@2_NB ; boost::detail::is_mem_fun_pointer_select<0>::result_<boost::archive::object_id_type>::value
PUBLIC	?value@?$is_pointer_impl@Uobject_id_type@archive@boost@@@detail@boost@@2_NB ; boost::detail::is_pointer_impl<boost::archive::object_id_type>::value
PUBLIC	?is_const@?$cv_traits_imp@PAUclass_id_type@archive@boost@@@detail@boost@@2_NB ; boost::detail::cv_traits_imp<boost::archive::class_id_type *>::is_const
PUBLIC	?is_volatile@?$cv_traits_imp@PAUclass_id_type@archive@boost@@@detail@boost@@2_NB ; boost::detail::cv_traits_imp<boost::archive::class_id_type *>::is_volatile
PUBLIC	?value@?$is_pointer_helper@Uclass_id_type@archive@boost@@@detail@boost@@2_NB ; boost::detail::is_pointer_helper<boost::archive::class_id_type>::value
PUBLIC	?value@?$result_@Uclass_id_type@archive@boost@@@?$is_mem_fun_pointer_select@$0A@@detail@boost@@2_NB ; boost::detail::is_mem_fun_pointer_select<0>::result_<boost::archive::class_id_type>::value
PUBLIC	?value@?$is_pointer_impl@Uclass_id_type@archive@boost@@@detail@boost@@2_NB ; boost::detail::is_pointer_impl<boost::archive::class_id_type>::value
PUBLIC	?is_const@?$cv_traits_imp@PAI@detail@boost@@2_NB ; boost::detail::cv_traits_imp<unsigned int *>::is_const
PUBLIC	?is_volatile@?$cv_traits_imp@PAI@detail@boost@@2_NB ; boost::detail::cv_traits_imp<unsigned int *>::is_volatile
PUBLIC	?value@?$is_pointer_helper@I@detail@boost@@2_NB	; boost::detail::is_pointer_helper<unsigned int>::value
PUBLIC	?value@?$result_@I@?$is_mem_fun_pointer_select@$0A@@detail@boost@@2_NB ; boost::detail::is_mem_fun_pointer_select<0>::result_<unsigned int>::value
PUBLIC	?value@?$is_pointer_impl@I@detail@boost@@2_NB	; boost::detail::is_pointer_impl<unsigned int>::value
PUBLIC	?value@?$is_base_and_derived_impl@Ubasic_traits@serialization@boost@@I@detail@boost@@2_NB ; boost::detail::is_base_and_derived_impl<boost::serialization::basic_traits,unsigned int>::value
PUBLIC	?value@?$is_arithmetic_impl@I@detail@boost@@2_NB ; boost::detail::is_arithmetic_impl<unsigned int>::value
PUBLIC	?value@?$implementation_level@I@serialization@boost@@2HB ; boost::serialization::implementation_level<unsigned int>::value
PUBLIC	?value@?$is_pointer_helper@H@detail@boost@@2_NB	; boost::detail::is_pointer_helper<int>::value
PUBLIC	?value@?$result_@H@?$is_mem_fun_pointer_select@$0A@@detail@boost@@2_NB ; boost::detail::is_mem_fun_pointer_select<0>::result_<int>::value
PUBLIC	?value@?$is_pointer_impl@H@detail@boost@@2_NB	; boost::detail::is_pointer_impl<int>::value
PUBLIC	?value@?$is_base_and_derived_impl@Ubasic_traits@serialization@boost@@H@detail@boost@@2_NB ; boost::detail::is_base_and_derived_impl<boost::serialization::basic_traits,int>::value
PUBLIC	?value@?$is_arithmetic_impl@H@detail@boost@@2_NB ; boost::detail::is_arithmetic_impl<int>::value
PUBLIC	?value@?$implementation_level@H@serialization@boost@@2HB ; boost::serialization::implementation_level<int>::value
PUBLIC	?value@?$is_pointer_helper@V?$basic_string@DU?$char_traits@D@std@@V?$allocator@D@2@@std@@@detail@boost@@2_NB ; boost::detail::is_pointer_helper<std::basic_string<char,std::char_traits<char>,std::allocator<char> > >::value
PUBLIC	?value@?$result_@V?$basic_string@DU?$char_traits@D@std@@V?$allocator@D@2@@std@@@?$is_mem_fun_pointer_select@$0A@@detail@boost@@2_NB ; boost::detail::is_mem_fun_pointer_select<0>::result_<std::basic_string<char,std::char_traits<char>,std::allocator<char> > >::value
PUBLIC	?value@?$is_pointer_impl@V?$basic_string@DU?$char_traits@D@std@@V?$allocator@D@2@@std@@@detail@boost@@2_NB ; boost::detail::is_pointer_impl<std::basic_string<char,std::char_traits<char>,std::allocator<char> > >::value
;	COMDAT ?value@?$is_pointer_impl@V?$basic_string@DU?$char_traits@D@std@@V?$allocator@D@2@@std@@@detail@boost@@2_NB
CONST	SEGMENT
?value@?$is_pointer_impl@V?$basic_string@DU?$char_traits@D@std@@V?$allocator@D@2@@std@@@detail@boost@@2_NB DB 00H ; boost::detail::is_pointer_impl<std::basic_string<char,std::char_traits<char>,std::allocator<char> > >::value
CONST	ENDS
;	COMDAT ?value@?$result_@V?$basic_string@DU?$char_traits@D@std@@V?$allocator@D@2@@std@@@?$is_mem_fun_pointer_select@$0A@@detail@boost@@2_NB
CONST	SEGMENT
?value@?$result_@V?$basic_string@DU?$char_traits@D@std@@V?$allocator@D@2@@std@@@?$is_mem_fun_pointer_select@$0A@@detail@boost@@2_NB DB 00H ; boost::detail::is_mem_fun_pointer_select<0>::result_<std::basic_string<char,std::char_traits<char>,std::allocator<char> > >::value
CONST	ENDS
;	COMDAT ?value@?$is_pointer_helper@V?$basic_string@DU?$char_traits@D@std@@V?$allocator@D@2@@std@@@detail@boost@@2_NB
CONST	SEGMENT
?value@?$is_pointer_helper@V?$basic_string@DU?$char_traits@D@std@@V?$allocator@D@2@@std@@@detail@boost@@2_NB DB 00H ; boost::detail::is_pointer_helper<std::basic_string<char,std::char_traits<char>,std::allocator<char> > >::value
CONST	ENDS
;	COMDAT ?value@?$implementation_level@H@serialization@boost@@2HB
CONST	SEGMENT
?value@?$implementation_level@H@serialization@boost@@2HB DD 01H ; boost::serialization::implementation_level<int>::value
CONST	ENDS
;	COMDAT ?value@?$is_arithmetic_impl@H@detail@boost@@2_NB
CONST	SEGMENT
?value@?$is_arithmetic_impl@H@detail@boost@@2_NB DB 01H	; boost::detail::is_arithmetic_impl<int>::value
CONST	ENDS
;	COMDAT ?value@?$is_base_and_derived_impl@Ubasic_traits@serialization@boost@@H@detail@boost@@2_NB
CONST	SEGMENT
?value@?$is_base_and_derived_impl@Ubasic_traits@serialization@boost@@H@detail@boost@@2_NB DB 00H ; boost::detail::is_base_and_derived_impl<boost::serialization::basic_traits,int>::value
CONST	ENDS
;	COMDAT ?value@?$is_pointer_impl@H@detail@boost@@2_NB
CONST	SEGMENT
?value@?$is_pointer_impl@H@detail@boost@@2_NB DB 00H	; boost::detail::is_pointer_impl<int>::value
CONST	ENDS
;	COMDAT ?value@?$result_@H@?$is_mem_fun_pointer_select@$0A@@detail@boost@@2_NB
CONST	SEGMENT
?value@?$result_@H@?$is_mem_fun_pointer_select@$0A@@detail@boost@@2_NB DB 00H ; boost::detail::is_mem_fun_pointer_select<0>::result_<int>::value
CONST	ENDS
;	COMDAT ?value@?$is_pointer_helper@H@detail@boost@@2_NB
CONST	SEGMENT
?value@?$is_pointer_helper@H@detail@boost@@2_NB DB 00H	; boost::detail::is_pointer_helper<int>::value
CONST	ENDS
;	COMDAT ?value@?$implementation_level@I@serialization@boost@@2HB
CONST	SEGMENT
?value@?$implementation_level@I@serialization@boost@@2HB DD 01H ; boost::serialization::implementation_level<unsigned int>::value
CONST	ENDS
;	COMDAT ?value@?$is_arithmetic_impl@I@detail@boost@@2_NB
CONST	SEGMENT
?value@?$is_arithmetic_impl@I@detail@boost@@2_NB DB 01H	; boost::detail::is_arithmetic_impl<unsigned int>::value
CONST	ENDS
;	COMDAT ?value@?$is_base_and_derived_impl@Ubasic_traits@serialization@boost@@I@detail@boost@@2_NB
CONST	SEGMENT
?value@?$is_base_and_derived_impl@Ubasic_traits@serialization@boost@@I@detail@boost@@2_NB DB 00H ; boost::detail::is_base_and_derived_impl<boost::serialization::basic_traits,unsigned int>::value
CONST	ENDS
;	COMDAT ?value@?$is_pointer_impl@I@detail@boost@@2_NB
CONST	SEGMENT
?value@?$is_pointer_impl@I@detail@boost@@2_NB DB 00H	; boost::detail::is_pointer_impl<unsigned int>::value
CONST	ENDS
;	COMDAT ?value@?$result_@I@?$is_mem_fun_pointer_select@$0A@@detail@boost@@2_NB
CONST	SEGMENT
?value@?$result_@I@?$is_mem_fun_pointer_select@$0A@@detail@boost@@2_NB DB 00H ; boost::detail::is_mem_fun_pointer_select<0>::result_<unsigned int>::value
CONST	ENDS
;	COMDAT ?value@?$is_pointer_helper@I@detail@boost@@2_NB
CONST	SEGMENT
?value@?$is_pointer_helper@I@detail@boost@@2_NB DB 00H	; boost::detail::is_pointer_helper<unsigned int>::value
CONST	ENDS
;	COMDAT ?is_volatile@?$cv_traits_imp@PAI@detail@boost@@2_NB
CONST	SEGMENT
?is_volatile@?$cv_traits_imp@PAI@detail@boost@@2_NB DB 00H ; boost::detail::cv_traits_imp<unsigned int *>::is_volatile
CONST	ENDS
;	COMDAT ?is_const@?$cv_traits_imp@PAI@detail@boost@@2_NB
CONST	SEGMENT
?is_const@?$cv_traits_imp@PAI@detail@boost@@2_NB DB 00H	; boost::detail::cv_traits_imp<unsigned int *>::is_const
CONST	ENDS
;	COMDAT ?value@?$is_pointer_impl@Uclass_id_type@archive@boost@@@detail@boost@@2_NB
CONST	SEGMENT
?value@?$is_pointer_impl@Uclass_id_type@archive@boost@@@detail@boost@@2_NB DB 00H ; boost::detail::is_pointer_impl<boost::archive::class_id_type>::value
CONST	ENDS
;	COMDAT ?value@?$result_@Uclass_id_type@archive@boost@@@?$is_mem_fun_pointer_select@$0A@@detail@boost@@2_NB
CONST	SEGMENT
?value@?$result_@Uclass_id_type@archive@boost@@@?$is_mem_fun_pointer_select@$0A@@detail@boost@@2_NB DB 00H ; boost::detail::is_mem_fun_pointer_select<0>::result_<boost::archive::class_id_type>::value
CONST	ENDS
;	COMDAT ?value@?$is_pointer_helper@Uclass_id_type@archive@boost@@@detail@boost@@2_NB
CONST	SEGMENT
?value@?$is_pointer_helper@Uclass_id_type@archive@boost@@@detail@boost@@2_NB DB 00H ; boost::detail::is_pointer_helper<boost::archive::class_id_type>::value
CONST	ENDS
;	COMDAT ?is_volatile@?$cv_traits_imp@PAUclass_id_type@archive@boost@@@detail@boost@@2_NB
CONST	SEGMENT
?is_volatile@?$cv_traits_imp@PAUclass_id_type@archive@boost@@@detail@boost@@2_NB DB 00H ; boost::detail::cv_traits_imp<boost::archive::class_id_type *>::is_volatile
CONST	ENDS
;	COMDAT ?is_const@?$cv_traits_imp@PAUclass_id_type@archive@boost@@@detail@boost@@2_NB
CONST	SEGMENT
?is_const@?$cv_traits_imp@PAUclass_id_type@archive@boost@@@detail@boost@@2_NB DB 00H ; boost::detail::cv_traits_imp<boost::archive::class_id_type *>::is_const
CONST	ENDS
;	COMDAT ?value@?$is_pointer_impl@Uobject_id_type@archive@boost@@@detail@boost@@2_NB
CONST	SEGMENT
?value@?$is_pointer_impl@Uobject_id_type@archive@boost@@@detail@boost@@2_NB DB 00H ; boost::detail::is_pointer_impl<boost::archive::object_id_type>::value
CONST	ENDS
;	COMDAT ?value@?$result_@Uobject_id_type@archive@boost@@@?$is_mem_fun_pointer_select@$0A@@detail@boost@@2_NB
CONST	SEGMENT
?value@?$result_@Uobject_id_type@archive@boost@@@?$is_mem_fun_pointer_select@$0A@@detail@boost@@2_NB DB 00H ; boost::detail::is_mem_fun_pointer_select<0>::result_<boost::archive::object_id_type>::value
CONST	ENDS
;	COMDAT ?value@?$is_pointer_helper@Uobject_id_type@archive@boost@@@detail@boost@@2_NB
CONST	SEGMENT
?value@?$is_pointer_helper@Uobject_id_type@archive@boost@@@detail@boost@@2_NB DB 00H ; boost::detail::is_pointer_helper<boost::archive::object_id_type>::value
CONST	ENDS
;	COMDAT ?is_volatile@?$cv_traits_imp@PAUobject_id_type@archive@boost@@@detail@boost@@2_NB
CONST	SEGMENT
?is_volatile@?$cv_traits_imp@PAUobject_id_type@archive@boost@@@detail@boost@@2_NB DB 00H ; boost::detail::cv_traits_imp<boost::archive::object_id_type *>::is_volatile
CONST	ENDS
;	COMDAT ?is_const@?$cv_traits_imp@PAUobject_id_type@archive@boost@@@detail@boost@@2_NB
CONST	SEGMENT
?is_const@?$cv_traits_imp@PAUobject_id_type@archive@boost@@@detail@boost@@2_NB DB 00H ; boost::detail::cv_traits_imp<boost::archive::object_id_type *>::is_const
CONST	ENDS
;	COMDAT ?value@?$is_pointer_impl@Uversion_type@archive@boost@@@detail@boost@@2_NB
CONST	SEGMENT
?value@?$is_pointer_impl@Uversion_type@archive@boost@@@detail@boost@@2_NB DB 00H ; boost::detail::is_pointer_impl<boost::archive::version_type>::value
CONST	ENDS
;	COMDAT ?value@?$result_@Uversion_type@archive@boost@@@?$is_mem_fun_pointer_select@$0A@@detail@boost@@2_NB
CONST	SEGMENT
?value@?$result_@Uversion_type@archive@boost@@@?$is_mem_fun_pointer_select@$0A@@detail@boost@@2_NB DB 00H ; boost::detail::is_mem_fun_pointer_select<0>::result_<boost::archive::version_type>::value
CONST	ENDS
;	COMDAT ?value@?$is_pointer_helper@Uversion_type@archive@boost@@@detail@boost@@2_NB
CONST	SEGMENT
?value@?$is_pointer_helper@Uversion_type@archive@boost@@@detail@boost@@2_NB DB 00H ; boost::detail::is_pointer_helper<boost::archive::version_type>::value
CONST	ENDS
;	COMDAT ?is_volatile@?$cv_traits_imp@PAUversion_type@archive@boost@@@detail@boost@@2_NB
CONST	SEGMENT
?is_volatile@?$cv_traits_imp@PAUversion_type@archive@boost@@@detail@boost@@2_NB DB 00H ; boost::detail::cv_traits_imp<boost::archive::version_type *>::is_volatile
CONST	ENDS
;	COMDAT ?is_const@?$cv_traits_imp@PAUversion_type@archive@boost@@@detail@boost@@2_NB
CONST	SEGMENT
?is_const@?$cv_traits_imp@PAUversion_type@archive@boost@@@detail@boost@@2_NB DB 00H ; boost::detail::cv_traits_imp<boost::archive::version_type *>::is_const
CONST	ENDS
;	COMDAT ?value@?$is_pointer_impl@Utracking_type@archive@boost@@@detail@boost@@2_NB
CONST	SEGMENT
?value@?$is_pointer_impl@Utracking_type@archive@boost@@@detail@boost@@2_NB DB 00H ; boost::detail::is_pointer_impl<boost::archive::tracking_type>::value
CONST	ENDS
;	COMDAT ?value@?$result_@Utracking_type@archive@boost@@@?$is_mem_fun_pointer_select@$0A@@detail@boost@@2_NB
CONST	SEGMENT
?value@?$result_@Utracking_type@archive@boost@@@?$is_mem_fun_pointer_select@$0A@@detail@boost@@2_NB DB 00H ; boost::detail::is_mem_fun_pointer_select<0>::result_<boost::archive::tracking_type>::value
CONST	ENDS
;	COMDAT ?value@?$is_pointer_helper@Utracking_type@archive@boost@@@detail@boost@@2_NB
CONST	SEGMENT
?value@?$is_pointer_helper@Utracking_type@archive@boost@@@detail@boost@@2_NB DB 00H ; boost::detail::is_pointer_helper<boost::archive::tracking_type>::value
CONST	ENDS
;	COMDAT ?is_volatile@?$cv_traits_imp@PAUtracking_type@archive@boost@@@detail@boost@@2_NB
CONST	SEGMENT
?is_volatile@?$cv_traits_imp@PAUtracking_type@archive@boost@@@detail@boost@@2_NB DB 00H ; boost::detail::cv_traits_imp<boost::archive::tracking_type *>::is_volatile
CONST	ENDS
;	COMDAT ?is_const@?$cv_traits_imp@PAUtracking_type@archive@boost@@@detail@boost@@2_NB
CONST	SEGMENT
?is_const@?$cv_traits_imp@PAUtracking_type@archive@boost@@@detail@boost@@2_NB DB 00H ; boost::detail::cv_traits_imp<boost::archive::tracking_type *>::is_const
CONST	ENDS
;	COMDAT ?is_volatile@?$cv_traits_imp@PBV?$iterator_range@V?$_String_iterator@DU?$char_traits@D@std@@V?$allocator@D@2@@std@@@boost@@@detail@boost@@2_NB
CONST	SEGMENT
?is_volatile@?$cv_traits_imp@PBV?$iterator_range@V?$_String_iterator@DU?$char_traits@D@std@@V?$allocator@D@2@@std@@@boost@@@detail@boost@@2_NB DB 00H ; boost::detail::cv_traits_imp<boost::iterator_range<std::_String_iterator<char,std::char_traits<char>,std::allocator<char> > > const *>::is_volatile
CONST	ENDS
;	COMDAT ?is_const@?$cv_traits_imp@PBV?$iterator_range@V?$_String_iterator@DU?$char_traits@D@std@@V?$allocator@D@2@@std@@@boost@@@detail@boost@@2_NB
CONST	SEGMENT
?is_const@?$cv_traits_imp@PBV?$iterator_range@V?$_String_iterator@DU?$char_traits@D@std@@V?$allocator@D@2@@std@@@boost@@@detail@boost@@2_NB DB 01H ; boost::detail::cv_traits_imp<boost::iterator_range<std::_String_iterator<char,std::char_traits<char>,std::allocator<char> > > const *>::is_const
CONST	ENDS
;	COMDAT ?value@?$is_abstract_imp@D@detail@boost@@2_NB
CONST	SEGMENT
?value@?$is_abstract_imp@D@detail@boost@@2_NB DB 00H	; boost::detail::is_abstract_imp<char>::value
CONST	ENDS
;	COMDAT ?is_volatile@?$cv_traits_imp@PAV?$basic_string@DU?$char_traits@D@std@@V?$allocator@D@2@@std@@@detail@boost@@2_NB
CONST	SEGMENT
?is_volatile@?$cv_traits_imp@PAV?$basic_string@DU?$char_traits@D@std@@V?$allocator@D@2@@std@@@detail@boost@@2_NB DB 00H ; boost::detail::cv_traits_imp<std::basic_string<char,std::char_traits<char>,std::allocator<char> > *>::is_volatile
CONST	ENDS
;	COMDAT ?is_const@?$cv_traits_imp@PAV?$basic_string@DU?$char_traits@D@std@@V?$allocator@D@2@@std@@@detail@boost@@2_NB
CONST	SEGMENT
?is_const@?$cv_traits_imp@PAV?$basic_string@DU?$char_traits@D@std@@V?$allocator@D@2@@std@@@detail@boost@@2_NB DB 00H ; boost::detail::cv_traits_imp<std::basic_string<char,std::char_traits<char>,std::allocator<char> > *>::is_const
CONST	ENDS
;	COMDAT ?is_volatile@?$cv_traits_imp@PBV?$basic_string@DU?$char_traits@D@std@@V?$allocator@D@2@@std@@@detail@boost@@2_NB
CONST	SEGMENT
?is_volatile@?$cv_traits_imp@PBV?$basic_string@DU?$char_traits@D@std@@V?$allocator@D@2@@std@@@detail@boost@@2_NB DB 00H ; boost::detail::cv_traits_imp<std::basic_string<char,std::char_traits<char>,std::allocator<char> > const *>::is_volatile
CONST	ENDS
;	COMDAT ?is_const@?$cv_traits_imp@PBV?$basic_string@DU?$char_traits@D@std@@V?$allocator@D@2@@std@@@detail@boost@@2_NB
CONST	SEGMENT
?is_const@?$cv_traits_imp@PBV?$basic_string@DU?$char_traits@D@std@@V?$allocator@D@2@@std@@@detail@boost@@2_NB DB 01H ; boost::detail::cv_traits_imp<std::basic_string<char,std::char_traits<char>,std::allocator<char> > const *>::is_const
CONST	ENDS
;	COMDAT ?_EEM_DS@?$deque@U?$pair@I_J@std@@V?$allocator@U?$pair@I_J@std@@@2@@std@@2HB
CONST	SEGMENT
?_EEM_DS@?$deque@U?$pair@I_J@std@@V?$allocator@U?$pair@I_J@std@@@2@@std@@2HB DD 01H ; std::deque<std::pair<unsigned int,__int64>,std::allocator<std::pair<unsigned int,__int64> > >::_EEM_DS
CONST	ENDS
;	COMDAT ?value@?$is_arithmetic_impl@_J@detail@boost@@2_NB
CONST	SEGMENT
?value@?$is_arithmetic_impl@_J@detail@boost@@2_NB DB 01H ; boost::detail::is_arithmetic_impl<__int64>::value
CONST	ENDS
;	COMDAT ?value@?$is_pointer_impl@_J@detail@boost@@2_NB
CONST	SEGMENT
?value@?$is_pointer_impl@_J@detail@boost@@2_NB DB 00H	; boost::detail::is_pointer_impl<__int64>::value
CONST	ENDS
;	COMDAT ?value@?$result_@_J@?$is_mem_fun_pointer_select@$0A@@detail@boost@@2_NB
CONST	SEGMENT
?value@?$result_@_J@?$is_mem_fun_pointer_select@$0A@@detail@boost@@2_NB DB 00H ; boost::detail::is_mem_fun_pointer_select<0>::result_<__int64>::value
CONST	ENDS
;	COMDAT ?value@?$is_pointer_helper@_J@detail@boost@@2_NB
CONST	SEGMENT
?value@?$is_pointer_helper@_J@detail@boost@@2_NB DB 00H	; boost::detail::is_pointer_helper<__int64>::value
CONST	ENDS
;	COMDAT ?is_volatile@?$cv_traits_imp@PA_J@detail@boost@@2_NB
CONST	SEGMENT
?is_volatile@?$cv_traits_imp@PA_J@detail@boost@@2_NB DB 00H ; boost::detail::cv_traits_imp<__int64 *>::is_volatile
CONST	ENDS
;	COMDAT ?is_const@?$cv_traits_imp@PA_J@detail@boost@@2_NB
CONST	SEGMENT
?is_const@?$cv_traits_imp@PA_J@detail@boost@@2_NB DB 00H ; boost::detail::cv_traits_imp<__int64 *>::is_const
CONST	ENDS
;	COMDAT ?value@?$not_satisfied@U?$SGIAssignableConcept@_J@boost@@@concept@boost@@2_NB
CONST	SEGMENT
?value@?$not_satisfied@U?$SGIAssignableConcept@_J@boost@@@concept@boost@@2_NB DB 00H ; boost::concept::not_satisfied<boost::SGIAssignableConcept<__int64> >::value
CONST	ENDS
;	COMDAT ?value@?$not_satisfied@U?$usage_requirements@U?$SGIAssignable@_J@boost@@@concept@boost@@@concept@boost@@2_NB
CONST	SEGMENT
?value@?$not_satisfied@U?$usage_requirements@U?$SGIAssignable@_J@boost@@@concept@boost@@@concept@boost@@2_NB DB 00H ; boost::concept::not_satisfied<boost::concept::usage_requirements<boost::SGIAssignable<__int64> > >::value
CONST	ENDS
;	COMDAT ?value@?$is_empty_impl@$$CDX@detail@boost@@2_NB
CONST	SEGMENT
?value@?$is_empty_impl@$$CDX@detail@boost@@2_NB DB 00H	; boost::detail::is_empty_impl<void const volatile >::value
CONST	ENDS
;	COMDAT ?value@?$is_empty_impl@$$CCX@detail@boost@@2_NB
CONST	SEGMENT
?value@?$is_empty_impl@$$CCX@detail@boost@@2_NB DB 00H	; boost::detail::is_empty_impl<void volatile >::value
CONST	ENDS
;	COMDAT ?value@?$is_empty_impl@$$CBX@detail@boost@@2_NB
CONST	SEGMENT
?value@?$is_empty_impl@$$CBX@detail@boost@@2_NB DB 00H	; boost::detail::is_empty_impl<void const >::value
CONST	ENDS
;	COMDAT ?value@?$is_empty_impl@X@detail@boost@@2_NB
CONST	SEGMENT
?value@?$is_empty_impl@X@detail@boost@@2_NB DB 00H	; boost::detail::is_empty_impl<void>::value
CONST	ENDS
;	COMDAT ?value@?$is_convertible_impl@Uoutput@iostreams@boost@@Uinput@23@@detail@boost@@2_NB
CONST	SEGMENT
?value@?$is_convertible_impl@Uoutput@iostreams@boost@@Uinput@23@@detail@boost@@2_NB DB 00H ; boost::detail::is_convertible_impl<boost::iostreams::output,boost::iostreams::input>::value
CONST	ENDS
;	COMDAT ?value@?$is_convertible_basic_impl@AAUoutput@iostreams@boost@@Uinput@23@@detail@boost@@2_NB
CONST	SEGMENT
?value@?$is_convertible_basic_impl@AAUoutput@iostreams@boost@@Uinput@23@@detail@boost@@2_NB DB 00H ; boost::detail::is_convertible_basic_impl<boost::iostreams::output &,boost::iostreams::input>::value
CONST	ENDS
;	COMDAT ?value@?$int_@$0A@@mpl@boost@@2HB
CONST	SEGMENT
?value@?$int_@$0A@@mpl@boost@@2HB DD 00H		; boost::mpl::int_<0>::value
CONST	ENDS
;	COMDAT ?value@?$implementation_level@V?$basic_string@_WU?$char_traits@_W@std@@V?$allocator@_W@2@@std@@@serialization@boost@@2HB
CONST	SEGMENT
?value@?$implementation_level@V?$basic_string@_WU?$char_traits@_W@std@@V?$allocator@_W@2@@std@@@serialization@boost@@2HB DD 01H ; boost::serialization::implementation_level<std::basic_string<wchar_t,std::char_traits<wchar_t>,std::allocator<wchar_t> > >::value
CONST	ENDS
;	COMDAT ?value@?$implementation_level@V?$basic_string@DU?$char_traits@D@std@@V?$allocator@D@2@@std@@@serialization@boost@@2HB
CONST	SEGMENT
?value@?$implementation_level@V?$basic_string@DU?$char_traits@D@std@@V?$allocator@D@2@@std@@@serialization@boost@@2HB DD 01H ; boost::serialization::implementation_level<std::basic_string<char,std::char_traits<char>,std::allocator<char> > >::value
CONST	ENDS
;	COMDAT ?value@?$implementation_level@Utracking_type@archive@boost@@@serialization@boost@@2HB
CONST	SEGMENT
?value@?$implementation_level@Utracking_type@archive@boost@@@serialization@boost@@2HB DD 01H ; boost::serialization::implementation_level<boost::archive::tracking_type>::value
CONST	ENDS
;	COMDAT ?value@?$implementation_level@Uobject_reference_type@archive@boost@@@serialization@boost@@2HB
CONST	SEGMENT
?value@?$implementation_level@Uobject_reference_type@archive@boost@@@serialization@boost@@2HB DD 01H ; boost::serialization::implementation_level<boost::archive::object_reference_type>::value
CONST	ENDS
;	COMDAT ?value@?$implementation_level@Uobject_id_type@archive@boost@@@serialization@boost@@2HB
CONST	SEGMENT
?value@?$implementation_level@Uobject_id_type@archive@boost@@@serialization@boost@@2HB DD 01H ; boost::serialization::implementation_level<boost::archive::object_id_type>::value
CONST	ENDS
;	COMDAT ?value@?$implementation_level@Uclass_name_type@archive@boost@@@serialization@boost@@2HB
CONST	SEGMENT
?value@?$implementation_level@Uclass_name_type@archive@boost@@@serialization@boost@@2HB DD 01H ; boost::serialization::implementation_level<boost::archive::class_name_type>::value
CONST	ENDS
;	COMDAT ?value@?$implementation_level@Uclass_id_optional_type@archive@boost@@@serialization@boost@@2HB
CONST	SEGMENT
?value@?$implementation_level@Uclass_id_optional_type@archive@boost@@@serialization@boost@@2HB DD 01H ; boost::serialization::implementation_level<boost::archive::class_id_optional_type>::value
CONST	ENDS
;	COMDAT ?value@?$implementation_level@Uclass_id_reference_type@archive@boost@@@serialization@boost@@2HB
CONST	SEGMENT
?value@?$implementation_level@Uclass_id_reference_type@archive@boost@@@serialization@boost@@2HB DD 01H ; boost::serialization::implementation_level<boost::archive::class_id_reference_type>::value
CONST	ENDS
;	COMDAT ?value@?$implementation_level@Uclass_id_type@archive@boost@@@serialization@boost@@2HB
CONST	SEGMENT
?value@?$implementation_level@Uclass_id_type@archive@boost@@@serialization@boost@@2HB DD 01H ; boost::serialization::implementation_level<boost::archive::class_id_type>::value
CONST	ENDS
;	COMDAT ?value@?$implementation_level@Uversion_type@archive@boost@@@serialization@boost@@2HB
CONST	SEGMENT
?value@?$implementation_level@Uversion_type@archive@boost@@@serialization@boost@@2HB DD 01H ; boost::serialization::implementation_level<boost::archive::version_type>::value
CONST	ENDS
;	COMDAT ?value@?$implementation_level@V?$list@_WV?$allocator@_W@std@@@std@@@serialization@boost@@2HB
CONST	SEGMENT
?value@?$implementation_level@V?$list@_WV?$allocator@_W@std@@@std@@@serialization@boost@@2HB DD 02H ; boost::serialization::implementation_level<std::list<wchar_t,std::allocator<wchar_t> > >::value
CONST	ENDS
;	COMDAT ?value@?$implementation_level@V?$list@_KV?$allocator@_K@std@@@std@@@serialization@boost@@2HB
CONST	SEGMENT
?value@?$implementation_level@V?$list@_KV?$allocator@_K@std@@@std@@@serialization@boost@@2HB DD 02H ; boost::serialization::implementation_level<std::list<unsigned __int64,std::allocator<unsigned __int64> > >::value
CONST	ENDS
;	COMDAT ?value@?$implementation_level@V?$list@_JV?$allocator@_J@std@@@std@@@serialization@boost@@2HB
CONST	SEGMENT
?value@?$implementation_level@V?$list@_JV?$allocator@_J@std@@@std@@@serialization@boost@@2HB DD 02H ; boost::serialization::implementation_level<std::list<__int64,std::allocator<__int64> > >::value
CONST	ENDS
;	COMDAT ?value@?$implementation_level@V?$list@FV?$allocator@F@std@@@std@@@serialization@boost@@2HB
CONST	SEGMENT
?value@?$implementation_level@V?$list@FV?$allocator@F@std@@@std@@@serialization@boost@@2HB DD 02H ; boost::serialization::implementation_level<std::list<short,std::allocator<short> > >::value
CONST	ENDS
;	COMDAT ?value@?$implementation_level@V?$list@GV?$allocator@G@std@@@std@@@serialization@boost@@2HB
CONST	SEGMENT
?value@?$implementation_level@V?$list@GV?$allocator@G@std@@@std@@@serialization@boost@@2HB DD 02H ; boost::serialization::implementation_level<std::list<unsigned short,std::allocator<unsigned short> > >::value
CONST	ENDS
;	COMDAT ?value@?$implementation_level@V?$list@NV?$allocator@N@std@@@std@@@serialization@boost@@2HB
CONST	SEGMENT
?value@?$implementation_level@V?$list@NV?$allocator@N@std@@@std@@@serialization@boost@@2HB DD 02H ; boost::serialization::implementation_level<std::list<double,std::allocator<double> > >::value
CONST	ENDS
;	COMDAT ?value@?$implementation_level@V?$list@MV?$allocator@M@std@@@std@@@serialization@boost@@2HB
CONST	SEGMENT
?value@?$implementation_level@V?$list@MV?$allocator@M@std@@@std@@@serialization@boost@@2HB DD 02H ; boost::serialization::implementation_level<std::list<float,std::allocator<float> > >::value
CONST	ENDS
;	COMDAT ?value@?$implementation_level@V?$list@KV?$allocator@K@std@@@std@@@serialization@boost@@2HB
CONST	SEGMENT
?value@?$implementation_level@V?$list@KV?$allocator@K@std@@@std@@@serialization@boost@@2HB DD 02H ; boost::serialization::implementation_level<std::list<unsigned long,std::allocator<unsigned long> > >::value
CONST	ENDS
;	COMDAT ?value@?$implementation_level@V?$list@JV?$allocator@J@std@@@std@@@serialization@boost@@2HB
CONST	SEGMENT
?value@?$implementation_level@V?$list@JV?$allocator@J@std@@@std@@@serialization@boost@@2HB DD 02H ; boost::serialization::implementation_level<std::list<long,std::allocator<long> > >::value
CONST	ENDS
;	COMDAT ?value@?$implementation_level@V?$list@IV?$allocator@I@std@@@std@@@serialization@boost@@2HB
CONST	SEGMENT
?value@?$implementation_level@V?$list@IV?$allocator@I@std@@@std@@@serialization@boost@@2HB DD 02H ; boost::serialization::implementation_level<std::list<unsigned int,std::allocator<unsigned int> > >::value
CONST	ENDS
;	COMDAT ?value@?$implementation_level@V?$list@HV?$allocator@H@std@@@std@@@serialization@boost@@2HB
CONST	SEGMENT
?value@?$implementation_level@V?$list@HV?$allocator@H@std@@@std@@@serialization@boost@@2HB DD 02H ; boost::serialization::implementation_level<std::list<int,std::allocator<int> > >::value
CONST	ENDS
;	COMDAT ?value@?$implementation_level@V?$list@EV?$allocator@E@std@@@std@@@serialization@boost@@2HB
CONST	SEGMENT
?value@?$implementation_level@V?$list@EV?$allocator@E@std@@@std@@@serialization@boost@@2HB DD 02H ; boost::serialization::implementation_level<std::list<unsigned char,std::allocator<unsigned char> > >::value
CONST	ENDS
;	COMDAT ?value@?$implementation_level@V?$list@CV?$allocator@C@std@@@std@@@serialization@boost@@2HB
CONST	SEGMENT
?value@?$implementation_level@V?$list@CV?$allocator@C@std@@@std@@@serialization@boost@@2HB DD 02H ; boost::serialization::implementation_level<std::list<signed char,std::allocator<signed char> > >::value
CONST	ENDS
;	COMDAT ?value@?$implementation_level@V?$list@DV?$allocator@D@std@@@std@@@serialization@boost@@2HB
CONST	SEGMENT
?value@?$implementation_level@V?$list@DV?$allocator@D@std@@@std@@@serialization@boost@@2HB DD 02H ; boost::serialization::implementation_level<std::list<char,std::allocator<char> > >::value
CONST	ENDS
;	COMDAT ?value@?$implementation_level@V?$list@_NV?$allocator@_N@std@@@std@@@serialization@boost@@2HB
CONST	SEGMENT
?value@?$implementation_level@V?$list@_NV?$allocator@_N@std@@@std@@@serialization@boost@@2HB DD 02H ; boost::serialization::implementation_level<std::list<bool,std::allocator<bool> > >::value
CONST	ENDS
;	COMDAT ?has_fixed_range@?$backward_compatible_uniform_01@V?$pass_through_engine@V?$mersenne_twister@K$0CA@$0CHA@$0BIN@$0BP@$0JJAILANP@$0L@$06$0JNCMFGIA@$0P@$0OPMGAAAA@$0BC@$0MHHGGGNO@@random@boost@@@detail@random@boost@@N@detail@boost@@2_NB
CONST	SEGMENT
?has_fixed_range@?$backward_compatible_uniform_01@V?$pass_through_engine@V?$mersenne_twister@K$0CA@$0CHA@$0BIN@$0BP@$0JJAILANP@$0L@$06$0JNCMFGIA@$0P@$0OPMGAAAA@$0BC@$0MHHGGGNO@@random@boost@@@detail@random@boost@@N@detail@boost@@2_NB DB 00H ; boost::detail::backward_compatible_uniform_01<boost::random::detail::pass_through_engine<boost::random::mersenne_twister<unsigned long,32,624,397,31,2567483615,11,7,2636928640,15,4022730752,18,3346425566> >,double>::has_fixed_range
CONST	ENDS
;	COMDAT ?has_fixed_range@?$backward_compatible_uniform_01@V?$pass_through_engine@AAV?$mersenne_twister@K$0CA@$0CHA@$0BIN@$0BP@$0JJAILANP@$0L@$06$0JNCMFGIA@$0P@$0OPMGAAAA@$0BC@$0MHHGGGNO@@random@boost@@@detail@random@boost@@N@detail@boost@@2_NB
CONST	SEGMENT
?has_fixed_range@?$backward_compatible_uniform_01@V?$pass_through_engine@AAV?$mersenne_twister@K$0CA@$0CHA@$0BIN@$0BP@$0JJAILANP@$0L@$06$0JNCMFGIA@$0P@$0OPMGAAAA@$0BC@$0MHHGGGNO@@random@boost@@@detail@random@boost@@N@detail@boost@@2_NB DB 00H ; boost::detail::backward_compatible_uniform_01<boost::random::detail::pass_through_engine<boost::random::mersenne_twister<unsigned long,32,624,397,31,2567483615,11,7,2636928640,15,4022730752,18,3346425566> &>,double>::has_fixed_range
CONST	ENDS
;	COMDAT ?value@?$is_unsigned_imp@H@detail@boost@@2_NB
CONST	SEGMENT
?value@?$is_unsigned_imp@H@detail@boost@@2_NB DB 00H	; boost::detail::is_unsigned_imp<int>::value
CONST	ENDS
;	COMDAT ?value@?$is_ununsigned_helper@H@detail@boost@@2_NB
CONST	SEGMENT
?value@?$is_ununsigned_helper@H@detail@boost@@2_NB DB 00H ; boost::detail::is_ununsigned_helper<int>::value
CONST	ENDS
;	COMDAT ?is_volatile@?$cv_traits_imp@PAH@detail@boost@@2_NB
CONST	SEGMENT
?is_volatile@?$cv_traits_imp@PAH@detail@boost@@2_NB DB 00H ; boost::detail::cv_traits_imp<int *>::is_volatile
CONST	ENDS
;	COMDAT ?is_const@?$cv_traits_imp@PAH@detail@boost@@2_NB
CONST	SEGMENT
?is_const@?$cv_traits_imp@PAH@detail@boost@@2_NB DB 00H	; boost::detail::cv_traits_imp<int *>::is_const
CONST	ENDS
;	COMDAT ?has_fixed_range@?$mersenne_twister@K$0CA@$0CHA@$0BIN@$0BP@$0JJAILANP@$0L@$06$0JNCMFGIA@$0P@$0OPMGAAAA@$0BC@$0MHHGGGNO@@random@boost@@2_NB
CONST	SEGMENT
?has_fixed_range@?$mersenne_twister@K$0CA@$0CHA@$0BIN@$0BP@$0JJAILANP@$0L@$06$0JNCMFGIA@$0P@$0OPMGAAAA@$0BC@$0MHHGGGNO@@random@boost@@2_NB DB 00H ; boost::random::mersenne_twister<unsigned long,32,624,397,31,2567483615,11,7,2636928640,15,4022730752,18,3346425566>::has_fixed_range
CONST	ENDS
;	COMDAT ?output_l@?$mersenne_twister@K$0CA@$0CHA@$0BIN@$0BP@$0JJAILANP@$0L@$06$0JNCMFGIA@$0P@$0OPMGAAAA@$0BC@$0MHHGGGNO@@random@boost@@2HB
CONST	SEGMENT
?output_l@?$mersenne_twister@K$0CA@$0CHA@$0BIN@$0BP@$0JJAILANP@$0L@$06$0JNCMFGIA@$0P@$0OPMGAAAA@$0BC@$0MHHGGGNO@@random@boost@@2HB DD 012H ; boost::random::mersenne_twister<unsigned long,32,624,397,31,2567483615,11,7,2636928640,15,4022730752,18,3346425566>::output_l
CONST	ENDS
;	COMDAT ?output_c@?$mersenne_twister@K$0CA@$0CHA@$0BIN@$0BP@$0JJAILANP@$0L@$06$0JNCMFGIA@$0P@$0OPMGAAAA@$0BC@$0MHHGGGNO@@random@boost@@2KB
CONST	SEGMENT
?output_c@?$mersenne_twister@K$0CA@$0CHA@$0BIN@$0BP@$0JJAILANP@$0L@$06$0JNCMFGIA@$0P@$0OPMGAAAA@$0BC@$0MHHGGGNO@@random@boost@@2KB DD 0efc60000H ; boost::random::mersenne_twister<unsigned long,32,624,397,31,2567483615,11,7,2636928640,15,4022730752,18,3346425566>::output_c
CONST	ENDS
;	COMDAT ?output_t@?$mersenne_twister@K$0CA@$0CHA@$0BIN@$0BP@$0JJAILANP@$0L@$06$0JNCMFGIA@$0P@$0OPMGAAAA@$0BC@$0MHHGGGNO@@random@boost@@2HB
CONST	SEGMENT
?output_t@?$mersenne_twister@K$0CA@$0CHA@$0BIN@$0BP@$0JJAILANP@$0L@$06$0JNCMFGIA@$0P@$0OPMGAAAA@$0BC@$0MHHGGGNO@@random@boost@@2HB DD 0fH ; boost::random::mersenne_twister<unsigned long,32,624,397,31,2567483615,11,7,2636928640,15,4022730752,18,3346425566>::output_t
CONST	ENDS
;	COMDAT ?output_b@?$mersenne_twister@K$0CA@$0CHA@$0BIN@$0BP@$0JJAILANP@$0L@$06$0JNCMFGIA@$0P@$0OPMGAAAA@$0BC@$0MHHGGGNO@@random@boost@@2KB
CONST	SEGMENT
?output_b@?$mersenne_twister@K$0CA@$0CHA@$0BIN@$0BP@$0JJAILANP@$0L@$06$0JNCMFGIA@$0P@$0OPMGAAAA@$0BC@$0MHHGGGNO@@random@boost@@2KB DD 09d2c5680H ; boost::random::mersenne_twister<unsigned long,32,624,397,31,2567483615,11,7,2636928640,15,4022730752,18,3346425566>::output_b
CONST	ENDS
;	COMDAT ?output_s@?$mersenne_twister@K$0CA@$0CHA@$0BIN@$0BP@$0JJAILANP@$0L@$06$0JNCMFGIA@$0P@$0OPMGAAAA@$0BC@$0MHHGGGNO@@random@boost@@2HB
CONST	SEGMENT
?output_s@?$mersenne_twister@K$0CA@$0CHA@$0BIN@$0BP@$0JJAILANP@$0L@$06$0JNCMFGIA@$0P@$0OPMGAAAA@$0BC@$0MHHGGGNO@@random@boost@@2HB DD 07H ; boost::random::mersenne_twister<unsigned long,32,624,397,31,2567483615,11,7,2636928640,15,4022730752,18,3346425566>::output_s
CONST	ENDS
;	COMDAT ?output_u@?$mersenne_twister@K$0CA@$0CHA@$0BIN@$0BP@$0JJAILANP@$0L@$06$0JNCMFGIA@$0P@$0OPMGAAAA@$0BC@$0MHHGGGNO@@random@boost@@2HB
CONST	SEGMENT
?output_u@?$mersenne_twister@K$0CA@$0CHA@$0BIN@$0BP@$0JJAILANP@$0L@$06$0JNCMFGIA@$0P@$0OPMGAAAA@$0BC@$0MHHGGGNO@@random@boost@@2HB DD 0bH ; boost::random::mersenne_twister<unsigned long,32,624,397,31,2567483615,11,7,2636928640,15,4022730752,18,3346425566>::output_u
CONST	ENDS
;	COMDAT ?parameter_a@?$mersenne_twister@K$0CA@$0CHA@$0BIN@$0BP@$0JJAILANP@$0L@$06$0JNCMFGIA@$0P@$0OPMGAAAA@$0BC@$0MHHGGGNO@@random@boost@@2KB
CONST	SEGMENT
?parameter_a@?$mersenne_twister@K$0CA@$0CHA@$0BIN@$0BP@$0JJAILANP@$0L@$06$0JNCMFGIA@$0P@$0OPMGAAAA@$0BC@$0MHHGGGNO@@random@boost@@2KB DD 09908b0dfH ; boost::random::mersenne_twister<unsigned long,32,624,397,31,2567483615,11,7,2636928640,15,4022730752,18,3346425566>::parameter_a
CONST	ENDS
;	COMDAT ?mask_bits@?$mersenne_twister@K$0CA@$0CHA@$0BIN@$0BP@$0JJAILANP@$0L@$06$0JNCMFGIA@$0P@$0OPMGAAAA@$0BC@$0MHHGGGNO@@random@boost@@2HB
CONST	SEGMENT
?mask_bits@?$mersenne_twister@K$0CA@$0CHA@$0BIN@$0BP@$0JJAILANP@$0L@$06$0JNCMFGIA@$0P@$0OPMGAAAA@$0BC@$0MHHGGGNO@@random@boost@@2HB DD 01fH ; boost::random::mersenne_twister<unsigned long,32,624,397,31,2567483615,11,7,2636928640,15,4022730752,18,3346425566>::mask_bits
CONST	ENDS
;	COMDAT ?shift_size@?$mersenne_twister@K$0CA@$0CHA@$0BIN@$0BP@$0JJAILANP@$0L@$06$0JNCMFGIA@$0P@$0OPMGAAAA@$0BC@$0MHHGGGNO@@random@boost@@2HB
CONST	SEGMENT
?shift_size@?$mersenne_twister@K$0CA@$0CHA@$0BIN@$0BP@$0JJAILANP@$0L@$06$0JNCMFGIA@$0P@$0OPMGAAAA@$0BC@$0MHHGGGNO@@random@boost@@2HB DD 018dH ; boost::random::mersenne_twister<unsigned long,32,624,397,31,2567483615,11,7,2636928640,15,4022730752,18,3346425566>::shift_size
CONST	ENDS
;	COMDAT ?state_size@?$mersenne_twister@K$0CA@$0CHA@$0BIN@$0BP@$0JJAILANP@$0L@$06$0JNCMFGIA@$0P@$0OPMGAAAA@$0BC@$0MHHGGGNO@@random@boost@@2HB
CONST	SEGMENT
?state_size@?$mersenne_twister@K$0CA@$0CHA@$0BIN@$0BP@$0JJAILANP@$0L@$06$0JNCMFGIA@$0P@$0OPMGAAAA@$0BC@$0MHHGGGNO@@random@boost@@2HB DD 0270H ; boost::random::mersenne_twister<unsigned long,32,624,397,31,2567483615,11,7,2636928640,15,4022730752,18,3346425566>::state_size
CONST	ENDS
;	COMDAT ?word_size@?$mersenne_twister@K$0CA@$0CHA@$0BIN@$0BP@$0JJAILANP@$0L@$06$0JNCMFGIA@$0P@$0OPMGAAAA@$0BC@$0MHHGGGNO@@random@boost@@2HB
CONST	SEGMENT
?word_size@?$mersenne_twister@K$0CA@$0CHA@$0BIN@$0BP@$0JJAILANP@$0L@$06$0JNCMFGIA@$0P@$0OPMGAAAA@$0BC@$0MHHGGGNO@@random@boost@@2HB DD 020H ; boost::random::mersenne_twister<unsigned long,32,624,397,31,2567483615,11,7,2636928640,15,4022730752,18,3346425566>::word_size
CONST	ENDS
;	COMDAT ?value@?$is_convertible_impl@Uinput@iostreams@boost@@Uoutput@23@@detail@boost@@2_NB
CONST	SEGMENT
?value@?$is_convertible_impl@Uinput@iostreams@boost@@Uoutput@23@@detail@boost@@2_NB DB 00H ; boost::detail::is_convertible_impl<boost::iostreams::input,boost::iostreams::output>::value
CONST	ENDS
;	COMDAT ?value@?$ice_and@$0A@$00$00$00$00$00$00@type_traits@boost@@2_NB
CONST	SEGMENT
?value@?$ice_and@$0A@$00$00$00$00$00$00@type_traits@boost@@2_NB DB 00H ; boost::type_traits::ice_and<0,1,1,1,1,1,1>::value
CONST	ENDS
;	COMDAT ?value@?$is_convertible_basic_impl@AAUinput@iostreams@boost@@Uoutput@23@@detail@boost@@2_NB
CONST	SEGMENT
?value@?$is_convertible_basic_impl@AAUinput@iostreams@boost@@Uoutput@23@@detail@boost@@2_NB DB 00H ; boost::detail::is_convertible_basic_impl<boost::iostreams::input &,boost::iostreams::output>::value
CONST	ENDS
;	COMDAT ?value@?$is_abstract_imp@Uoutput@iostreams@boost@@@detail@boost@@2_NB
CONST	SEGMENT
?value@?$is_abstract_imp@Uoutput@iostreams@boost@@@detail@boost@@2_NB DB 00H ; boost::detail::is_abstract_imp<boost::iostreams::output>::value
CONST	ENDS
;	COMDAT ?value@?$is_arithmetic_impl@Uoutput@iostreams@boost@@@detail@boost@@2_NB
CONST	SEGMENT
?value@?$is_arithmetic_impl@Uoutput@iostreams@boost@@@detail@boost@@2_NB DB 00H ; boost::detail::is_arithmetic_impl<boost::iostreams::output>::value
CONST	ENDS
;	COMDAT ?value@?$is_convertible_impl@Uinput@iostreams@boost@@U123@@detail@boost@@2_NB
CONST	SEGMENT
?value@?$is_convertible_impl@Uinput@iostreams@boost@@U123@@detail@boost@@2_NB DB 01H ; boost::detail::is_convertible_impl<boost::iostreams::input,boost::iostreams::input>::value
CONST	ENDS
;	COMDAT ?value@?$ice_not@$0A@@type_traits@boost@@2_NB
CONST	SEGMENT
?value@?$ice_not@$0A@@type_traits@boost@@2_NB DB 01H	; boost::type_traits::ice_not<0>::value
CONST	ENDS
;	COMDAT ?value@?$ice_or@$00$0A@$0A@$0A@$0A@$0A@$0A@@type_traits@boost@@2_NB
CONST	SEGMENT
?value@?$ice_or@$00$0A@$0A@$0A@$0A@$0A@$0A@@type_traits@boost@@2_NB DB 01H ; boost::type_traits::ice_or<1,0,0,0,0,0,0>::value
CONST	ENDS
;	COMDAT ?value@?$is_convertible_basic_impl@AAUinput@iostreams@boost@@U123@@detail@boost@@2_NB
CONST	SEGMENT
?value@?$is_convertible_basic_impl@AAUinput@iostreams@boost@@U123@@detail@boost@@2_NB DB 01H ; boost::detail::is_convertible_basic_impl<boost::iostreams::input &,boost::iostreams::input>::value
CONST	ENDS
;	COMDAT ?value@?$is_abstract_imp@Uinput@iostreams@boost@@@detail@boost@@2_NB
CONST	SEGMENT
?value@?$is_abstract_imp@Uinput@iostreams@boost@@@detail@boost@@2_NB DB 00H ; boost::detail::is_abstract_imp<boost::iostreams::input>::value
CONST	ENDS
;	COMDAT ?value@?$is_arithmetic_impl@Uinput@iostreams@boost@@@detail@boost@@2_NB
CONST	SEGMENT
?value@?$is_arithmetic_impl@Uinput@iostreams@boost@@@detail@boost@@2_NB DB 00H ; boost::detail::is_arithmetic_impl<boost::iostreams::input>::value
CONST	ENDS
;	COMDAT ?value@?$implementation_level@V?$vector@_WV?$allocator@_W@std@@@std@@@serialization@boost@@2HB
CONST	SEGMENT
?value@?$implementation_level@V?$vector@_WV?$allocator@_W@std@@@std@@@serialization@boost@@2HB DD 02H ; boost::serialization::implementation_level<std::vector<wchar_t,std::allocator<wchar_t> > >::value
CONST	ENDS
;	COMDAT ?value@?$implementation_level@V?$vector@_KV?$allocator@_K@std@@@std@@@serialization@boost@@2HB
CONST	SEGMENT
?value@?$implementation_level@V?$vector@_KV?$allocator@_K@std@@@std@@@serialization@boost@@2HB DD 02H ; boost::serialization::implementation_level<std::vector<unsigned __int64,std::allocator<unsigned __int64> > >::value
CONST	ENDS
;	COMDAT ?value@?$implementation_level@V?$vector@_JV?$allocator@_J@std@@@std@@@serialization@boost@@2HB
CONST	SEGMENT
?value@?$implementation_level@V?$vector@_JV?$allocator@_J@std@@@std@@@serialization@boost@@2HB DD 02H ; boost::serialization::implementation_level<std::vector<__int64,std::allocator<__int64> > >::value
CONST	ENDS
;	COMDAT ?value@?$implementation_level@V?$vector@FV?$allocator@F@std@@@std@@@serialization@boost@@2HB
CONST	SEGMENT
?value@?$implementation_level@V?$vector@FV?$allocator@F@std@@@std@@@serialization@boost@@2HB DD 02H ; boost::serialization::implementation_level<std::vector<short,std::allocator<short> > >::value
CONST	ENDS
;	COMDAT ?value@?$implementation_level@V?$vector@GV?$allocator@G@std@@@std@@@serialization@boost@@2HB
CONST	SEGMENT
?value@?$implementation_level@V?$vector@GV?$allocator@G@std@@@std@@@serialization@boost@@2HB DD 02H ; boost::serialization::implementation_level<std::vector<unsigned short,std::allocator<unsigned short> > >::value
CONST	ENDS
;	COMDAT ?value@?$implementation_level@V?$vector@NV?$allocator@N@std@@@std@@@serialization@boost@@2HB
CONST	SEGMENT
?value@?$implementation_level@V?$vector@NV?$allocator@N@std@@@std@@@serialization@boost@@2HB DD 02H ; boost::serialization::implementation_level<std::vector<double,std::allocator<double> > >::value
CONST	ENDS
;	COMDAT ?value@?$implementation_level@V?$vector@MV?$allocator@M@std@@@std@@@serialization@boost@@2HB
CONST	SEGMENT
?value@?$implementation_level@V?$vector@MV?$allocator@M@std@@@std@@@serialization@boost@@2HB DD 02H ; boost::serialization::implementation_level<std::vector<float,std::allocator<float> > >::value
CONST	ENDS
;	COMDAT ?value@?$implementation_level@V?$vector@KV?$allocator@K@std@@@std@@@serialization@boost@@2HB
CONST	SEGMENT
?value@?$implementation_level@V?$vector@KV?$allocator@K@std@@@std@@@serialization@boost@@2HB DD 02H ; boost::serialization::implementation_level<std::vector<unsigned long,std::allocator<unsigned long> > >::value
CONST	ENDS
;	COMDAT ?value@?$implementation_level@V?$vector@JV?$allocator@J@std@@@std@@@serialization@boost@@2HB
CONST	SEGMENT
?value@?$implementation_level@V?$vector@JV?$allocator@J@std@@@std@@@serialization@boost@@2HB DD 02H ; boost::serialization::implementation_level<std::vector<long,std::allocator<long> > >::value
CONST	ENDS
;	COMDAT ?value@?$implementation_level@V?$vector@IV?$allocator@I@std@@@std@@@serialization@boost@@2HB
CONST	SEGMENT
?value@?$implementation_level@V?$vector@IV?$allocator@I@std@@@std@@@serialization@boost@@2HB DD 02H ; boost::serialization::implementation_level<std::vector<unsigned int,std::allocator<unsigned int> > >::value
CONST	ENDS
;	COMDAT ?value@?$implementation_level@V?$vector@HV?$allocator@H@std@@@std@@@serialization@boost@@2HB
CONST	SEGMENT
?value@?$implementation_level@V?$vector@HV?$allocator@H@std@@@std@@@serialization@boost@@2HB DD 02H ; boost::serialization::implementation_level<std::vector<int,std::allocator<int> > >::value
CONST	ENDS
;	COMDAT ?value@?$implementation_level@V?$vector@EV?$allocator@E@std@@@std@@@serialization@boost@@2HB
CONST	SEGMENT
?value@?$implementation_level@V?$vector@EV?$allocator@E@std@@@std@@@serialization@boost@@2HB DD 02H ; boost::serialization::implementation_level<std::vector<unsigned char,std::allocator<unsigned char> > >::value
CONST	ENDS
;	COMDAT ?value@?$implementation_level@V?$vector@CV?$allocator@C@std@@@std@@@serialization@boost@@2HB
CONST	SEGMENT
?value@?$implementation_level@V?$vector@CV?$allocator@C@std@@@std@@@serialization@boost@@2HB DD 02H ; boost::serialization::implementation_level<std::vector<signed char,std::allocator<signed char> > >::value
CONST	ENDS
;	COMDAT ?value@?$implementation_level@V?$vector@DV?$allocator@D@std@@@std@@@serialization@boost@@2HB
CONST	SEGMENT
?value@?$implementation_level@V?$vector@DV?$allocator@D@std@@@std@@@serialization@boost@@2HB DD 02H ; boost::serialization::implementation_level<std::vector<char,std::allocator<char> > >::value
CONST	ENDS
;	COMDAT ?value@?$implementation_level@V?$vector@_NV?$allocator@_N@std@@@std@@@serialization@boost@@2HB
CONST	SEGMENT
?value@?$implementation_level@V?$vector@_NV?$allocator@_N@std@@@std@@@serialization@boost@@2HB DD 02H ; boost::serialization::implementation_level<std::vector<bool,std::allocator<bool> > >::value
CONST	ENDS
;	COMDAT ?value@?$implementation_level@Ucollection_size_type@serialization@boost@@@serialization@boost@@2HB
CONST	SEGMENT
?value@?$implementation_level@Ucollection_size_type@serialization@boost@@@serialization@boost@@2HB DD 01H ; boost::serialization::implementation_level<boost::serialization::collection_size_type>::value
CONST	ENDS
;	COMDAT ?step_size@?$linear_feedback_shift@K$0CA@$0BN@$01$03$0A@@random@boost@@2HB
CONST	SEGMENT
?step_size@?$linear_feedback_shift@K$0CA@$0BN@$01$03$0A@@random@boost@@2HB DD 04H ; boost::random::linear_feedback_shift<unsigned long,32,29,2,4,0>::step_size
CONST	ENDS
;	COMDAT ?exponent2@?$linear_feedback_shift@K$0CA@$0BN@$01$03$0A@@random@boost@@2HB
CONST	SEGMENT
?exponent2@?$linear_feedback_shift@K$0CA@$0BN@$01$03$0A@@random@boost@@2HB DD 02H ; boost::random::linear_feedback_shift<unsigned long,32,29,2,4,0>::exponent2
CONST	ENDS
;	COMDAT ?exponent1@?$linear_feedback_shift@K$0CA@$0BN@$01$03$0A@@random@boost@@2HB
CONST	SEGMENT
?exponent1@?$linear_feedback_shift@K$0CA@$0BN@$01$03$0A@@random@boost@@2HB DD 01dH ; boost::random::linear_feedback_shift<unsigned long,32,29,2,4,0>::exponent1
CONST	ENDS
;	COMDAT ?word_size@?$linear_feedback_shift@K$0CA@$0BN@$01$03$0A@@random@boost@@2HB
CONST	SEGMENT
?word_size@?$linear_feedback_shift@K$0CA@$0BN@$01$03$0A@@random@boost@@2HB DD 020H ; boost::random::linear_feedback_shift<unsigned long,32,29,2,4,0>::word_size
CONST	ENDS
;	COMDAT ?has_fixed_range@?$linear_feedback_shift@K$0CA@$0BN@$01$03$0A@@random@boost@@2_NB
CONST	SEGMENT
?has_fixed_range@?$linear_feedback_shift@K$0CA@$0BN@$01$03$0A@@random@boost@@2_NB DB 00H ; boost::random::linear_feedback_shift<unsigned long,32,29,2,4,0>::has_fixed_range
CONST	ENDS
;	COMDAT ?shift2@?$xor_combine@V?$linear_feedback_shift@K$0CA@$0BP@$0N@$0M@$0A@@random@boost@@$0A@V?$linear_feedback_shift@K$0CA@$0BN@$01$03$0A@@23@$0A@$0A@@random@boost@@2HB
CONST	SEGMENT
?shift2@?$xor_combine@V?$linear_feedback_shift@K$0CA@$0BP@$0N@$0M@$0A@@random@boost@@$0A@V?$linear_feedback_shift@K$0CA@$0BN@$01$03$0A@@23@$0A@$0A@@random@boost@@2HB DD 00H ; boost::random::xor_combine<boost::random::linear_feedback_shift<unsigned long,32,31,13,12,0>,0,boost::random::linear_feedback_shift<unsigned long,32,29,2,4,0>,0,0>::shift2
CONST	ENDS
;	COMDAT ?shift1@?$xor_combine@V?$linear_feedback_shift@K$0CA@$0BP@$0N@$0M@$0A@@random@boost@@$0A@V?$linear_feedback_shift@K$0CA@$0BN@$01$03$0A@@23@$0A@$0A@@random@boost@@2HB
CONST	SEGMENT
?shift1@?$xor_combine@V?$linear_feedback_shift@K$0CA@$0BP@$0N@$0M@$0A@@random@boost@@$0A@V?$linear_feedback_shift@K$0CA@$0BN@$01$03$0A@@23@$0A@$0A@@random@boost@@2HB DD 00H ; boost::random::xor_combine<boost::random::linear_feedback_shift<unsigned long,32,31,13,12,0>,0,boost::random::linear_feedback_shift<unsigned long,32,29,2,4,0>,0,0>::shift1
CONST	ENDS
;	COMDAT ?has_fixed_range@?$xor_combine@V?$linear_feedback_shift@K$0CA@$0BP@$0N@$0M@$0A@@random@boost@@$0A@V?$linear_feedback_shift@K$0CA@$0BN@$01$03$0A@@23@$0A@$0A@@random@boost@@2_NB
CONST	SEGMENT
?has_fixed_range@?$xor_combine@V?$linear_feedback_shift@K$0CA@$0BP@$0N@$0M@$0A@@random@boost@@$0A@V?$linear_feedback_shift@K$0CA@$0BN@$01$03$0A@@23@$0A@$0A@@random@boost@@2_NB DB 00H ; boost::random::xor_combine<boost::random::linear_feedback_shift<unsigned long,32,31,13,12,0>,0,boost::random::linear_feedback_shift<unsigned long,32,29,2,4,0>,0,0>::has_fixed_range
CONST	ENDS
;	COMDAT ?step_size@?$linear_feedback_shift@K$0CA@$0BP@$0N@$0M@$0A@@random@boost@@2HB
CONST	SEGMENT
?step_size@?$linear_feedback_shift@K$0CA@$0BP@$0N@$0M@$0A@@random@boost@@2HB DD 0cH ; boost::random::linear_feedback_shift<unsigned long,32,31,13,12,0>::step_size
CONST	ENDS
;	COMDAT ?exponent2@?$linear_feedback_shift@K$0CA@$0BP@$0N@$0M@$0A@@random@boost@@2HB
CONST	SEGMENT
?exponent2@?$linear_feedback_shift@K$0CA@$0BP@$0N@$0M@$0A@@random@boost@@2HB DD 0dH ; boost::random::linear_feedback_shift<unsigned long,32,31,13,12,0>::exponent2
CONST	ENDS
;	COMDAT ?exponent1@?$linear_feedback_shift@K$0CA@$0BP@$0N@$0M@$0A@@random@boost@@2HB
CONST	SEGMENT
?exponent1@?$linear_feedback_shift@K$0CA@$0BP@$0N@$0M@$0A@@random@boost@@2HB DD 01fH ; boost::random::linear_feedback_shift<unsigned long,32,31,13,12,0>::exponent1
CONST	ENDS
;	COMDAT ?word_size@?$linear_feedback_shift@K$0CA@$0BP@$0N@$0M@$0A@@random@boost@@2HB
CONST	SEGMENT
?word_size@?$linear_feedback_shift@K$0CA@$0BP@$0N@$0M@$0A@@random@boost@@2HB DD 020H ; boost::random::linear_feedback_shift<unsigned long,32,31,13,12,0>::word_size
CONST	ENDS
;	COMDAT ?has_fixed_range@?$linear_feedback_shift@K$0CA@$0BP@$0N@$0M@$0A@@random@boost@@2_NB
CONST	SEGMENT
?has_fixed_range@?$linear_feedback_shift@K$0CA@$0BP@$0N@$0M@$0A@@random@boost@@2_NB DB 00H ; boost::random::linear_feedback_shift<unsigned long,32,31,13,12,0>::has_fixed_range
CONST	ENDS
;	COMDAT ?is_specialized@?$fibonacci_validation@N$0KNNB@$0FCCK@@random@boost@@2_NB
CONST	SEGMENT
?is_specialized@?$fibonacci_validation@N$0KNNB@$0FCCK@@random@boost@@2_NB DB 01H ; boost::random::fibonacci_validation<double,44497,21034>::is_specialized
CONST	ENDS
;	COMDAT ?is_specialized@?$fibonacci_validation@N$0FKKJ@$0DEJO@@random@boost@@2_NB
CONST	SEGMENT
?is_specialized@?$fibonacci_validation@N$0FKKJ@$0DEJO@@random@boost@@2_NB DB 01H ; boost::random::fibonacci_validation<double,23209,13470>::is_specialized
CONST	ENDS
;	COMDAT ?is_specialized@?$fibonacci_validation@N$0ENOB@$0CGHC@@random@boost@@2_NB
CONST	SEGMENT
?is_specialized@?$fibonacci_validation@N$0ENOB@$0CGHC@@random@boost@@2_NB DB 01H ; boost::random::fibonacci_validation<double,19937,9842>::is_specialized
CONST	ENDS
;	COMDAT ?is_specialized@?$fibonacci_validation@N$0CFNJ@$0BFHO@@random@boost@@2_NB
CONST	SEGMENT
?is_specialized@?$fibonacci_validation@N$0CFNJ@$0BFHO@@random@boost@@2_NB DB 01H ; boost::random::fibonacci_validation<double,9689,5502>::is_specialized
CONST	ENDS
;	COMDAT ?is_specialized@?$fibonacci_validation@N$0BBEH@$0IDC@@random@boost@@2_NB
CONST	SEGMENT
?is_specialized@?$fibonacci_validation@N$0BBEH@$0IDC@@random@boost@@2_NB DB 01H ; boost::random::fibonacci_validation<double,4423,2098>::is_specialized
CONST	ENDS
;	COMDAT ?is_specialized@?$fibonacci_validation@N$0MJB@$0CEA@@random@boost@@2_NB
CONST	SEGMENT
?is_specialized@?$fibonacci_validation@N$0MJB@$0CEA@@random@boost@@2_NB DB 01H ; boost::random::fibonacci_validation<double,3217,576>::is_specialized
CONST	ENDS
;	COMDAT ?is_specialized@?$fibonacci_validation@N$0IOJ@$0EOE@@random@boost@@2_NB
CONST	SEGMENT
?is_specialized@?$fibonacci_validation@N$0IOJ@$0EOE@@random@boost@@2_NB DB 01H ; boost::random::fibonacci_validation<double,2281,1252>::is_specialized
CONST	ENDS
;	COMDAT ?is_specialized@?$fibonacci_validation@N$0EPP@$0BKC@@random@boost@@2_NB
CONST	SEGMENT
?is_specialized@?$fibonacci_validation@N$0EPP@$0BKC@@random@boost@@2_NB DB 01H ; boost::random::fibonacci_validation<double,1279,418>::is_specialized
CONST	ENDS
;	COMDAT ?is_specialized@?$fibonacci_validation@N$0CFP@$0BBB@@random@boost@@2_NB
CONST	SEGMENT
?is_specialized@?$fibonacci_validation@N$0CFP@$0BBB@@random@boost@@2_NB DB 01H ; boost::random::fibonacci_validation<double,607,273>::is_specialized
CONST	ENDS
;	COMDAT ?modulus@?$linear_congruential@K$0FFG@$0CENGJ@$0KOFCJ@$0A@@random@boost@@2KB
CONST	SEGMENT
?modulus@?$linear_congruential@K$0FFG@$0CENGJ@$0KOFCJ@$0A@@random@boost@@2KB DD 0ae529H ; boost::random::linear_congruential<unsigned long,1366,150889,714025,0>::modulus
CONST	ENDS
;	COMDAT ?increment@?$linear_congruential@K$0FFG@$0CENGJ@$0KOFCJ@$0A@@random@boost@@2KB
CONST	SEGMENT
?increment@?$linear_congruential@K$0FFG@$0CENGJ@$0KOFCJ@$0A@@random@boost@@2KB DD 024d69H ; boost::random::linear_congruential<unsigned long,1366,150889,714025,0>::increment
CONST	ENDS
;	COMDAT ?multiplier@?$linear_congruential@K$0FFG@$0CENGJ@$0KOFCJ@$0A@@random@boost@@2KB
CONST	SEGMENT
?multiplier@?$linear_congruential@K$0FFG@$0CENGJ@$0KOFCJ@$0A@@random@boost@@2KB DD 0556H ; boost::random::linear_congruential<unsigned long,1366,150889,714025,0>::multiplier
CONST	ENDS
;	COMDAT ?max_value@?$linear_congruential@K$0FFG@$0CENGJ@$0KOFCJ@$0A@@random@boost@@2KB
CONST	SEGMENT
?max_value@?$linear_congruential@K$0FFG@$0CENGJ@$0KOFCJ@$0A@@random@boost@@2KB DD 0ae528H ; boost::random::linear_congruential<unsigned long,1366,150889,714025,0>::max_value
CONST	ENDS
;	COMDAT ?min_value@?$linear_congruential@K$0FFG@$0CENGJ@$0KOFCJ@$0A@@random@boost@@2KB
CONST	SEGMENT
?min_value@?$linear_congruential@K$0FFG@$0CENGJ@$0KOFCJ@$0A@@random@boost@@2KB DD 00H ; boost::random::linear_congruential<unsigned long,1366,150889,714025,0>::min_value
CONST	ENDS
;	COMDAT ?has_fixed_range@?$linear_congruential@K$0FFG@$0CENGJ@$0KOFCJ@$0A@@random@boost@@2_NB
CONST	SEGMENT
?has_fixed_range@?$linear_congruential@K$0FFG@$0CENGJ@$0KOFCJ@$0A@@random@boost@@2_NB DB 01H ; boost::random::linear_congruential<unsigned long,1366,150889,714025,0>::has_fixed_range
CONST	ENDS
;	COMDAT ?modulus@?$linear_congruential@J$0JMEO@$0A@$0HPPPPPKL@$0A@@random@boost@@2JB
CONST	SEGMENT
?modulus@?$linear_congruential@J$0JMEO@$0A@$0HPPPPPKL@$0A@@random@boost@@2JB DD 07fffffabH ; boost::random::linear_congruential<long,40014,0,2147483563,0>::modulus
CONST	ENDS
;	COMDAT ?increment@?$linear_congruential@J$0JMEO@$0A@$0HPPPPPKL@$0A@@random@boost@@2JB
CONST	SEGMENT
?increment@?$linear_congruential@J$0JMEO@$0A@$0HPPPPPKL@$0A@@random@boost@@2JB DD 00H ; boost::random::linear_congruential<long,40014,0,2147483563,0>::increment
CONST	ENDS
;	COMDAT ?multiplier@?$linear_congruential@J$0JMEO@$0A@$0HPPPPPKL@$0A@@random@boost@@2JB
CONST	SEGMENT
?multiplier@?$linear_congruential@J$0JMEO@$0A@$0HPPPPPKL@$0A@@random@boost@@2JB DD 09c4eH ; boost::random::linear_congruential<long,40014,0,2147483563,0>::multiplier
CONST	ENDS
;	COMDAT ?max_value@?$linear_congruential@J$0JMEO@$0A@$0HPPPPPKL@$0A@@random@boost@@2JB
CONST	SEGMENT
?max_value@?$linear_congruential@J$0JMEO@$0A@$0HPPPPPKL@$0A@@random@boost@@2JB DD 07fffffaaH ; boost::random::linear_congruential<long,40014,0,2147483563,0>::max_value
CONST	ENDS
;	COMDAT ?min_value@?$linear_congruential@J$0JMEO@$0A@$0HPPPPPKL@$0A@@random@boost@@2JB
CONST	SEGMENT
?min_value@?$linear_congruential@J$0JMEO@$0A@$0HPPPPPKL@$0A@@random@boost@@2JB DD 01H ; boost::random::linear_congruential<long,40014,0,2147483563,0>::min_value
CONST	ENDS
;	COMDAT ?has_fixed_range@?$linear_congruential@J$0JMEO@$0A@$0HPPPPPKL@$0A@@random@boost@@2_NB
CONST	SEGMENT
?has_fixed_range@?$linear_congruential@J$0JMEO@$0A@$0HPPPPPKL@$0A@@random@boost@@2_NB DB 01H ; boost::random::linear_congruential<long,40014,0,2147483563,0>::has_fixed_range
CONST	ENDS
;	COMDAT ?modulus@?$linear_congruential@_K$0FNOOMOGGN@$0L@$0BAAAAAAAAAAAA@$0A@@random@boost@@2_KB
CONST	SEGMENT
?modulus@?$linear_congruential@_K$0FNOOMOGGN@$0L@$0BAAAAAAAAAAAA@$0A@@random@boost@@2_KB DQ 0001000000000000H ; boost::random::linear_congruential<unsigned __int64,25214903917,11,281474976710656,0>::modulus
CONST	ENDS
;	COMDAT ?increment@?$linear_congruential@_K$0FNOOMOGGN@$0L@$0BAAAAAAAAAAAA@$0A@@random@boost@@2_KB
CONST	SEGMENT
?increment@?$linear_congruential@_K$0FNOOMOGGN@$0L@$0BAAAAAAAAAAAA@$0A@@random@boost@@2_KB DQ 000000000000000bH ; boost::random::linear_congruential<unsigned __int64,25214903917,11,281474976710656,0>::increment
CONST	ENDS
;	COMDAT ?multiplier@?$linear_congruential@_K$0FNOOMOGGN@$0L@$0BAAAAAAAAAAAA@$0A@@random@boost@@2_KB
CONST	SEGMENT
?multiplier@?$linear_congruential@_K$0FNOOMOGGN@$0L@$0BAAAAAAAAAAAA@$0A@@random@boost@@2_KB DQ 00000005deece66dH ; boost::random::linear_congruential<unsigned __int64,25214903917,11,281474976710656,0>::multiplier
CONST	ENDS
;	COMDAT ?max_value@?$linear_congruential@_K$0FNOOMOGGN@$0L@$0BAAAAAAAAAAAA@$0A@@random@boost@@2_KB
CONST	SEGMENT
?max_value@?$linear_congruential@_K$0FNOOMOGGN@$0L@$0BAAAAAAAAAAAA@$0A@@random@boost@@2_KB DQ 0000ffffffffffffH ; boost::random::linear_congruential<unsigned __int64,25214903917,11,281474976710656,0>::max_value
CONST	ENDS
;	COMDAT ?min_value@?$linear_congruential@_K$0FNOOMOGGN@$0L@$0BAAAAAAAAAAAA@$0A@@random@boost@@2_KB
CONST	SEGMENT
?min_value@?$linear_congruential@_K$0FNOOMOGGN@$0L@$0BAAAAAAAAAAAA@$0A@@random@boost@@2_KB DQ 0000000000000000H ; boost::random::linear_congruential<unsigned __int64,25214903917,11,281474976710656,0>::min_value
CONST	ENDS
;	COMDAT ?has_fixed_range@?$linear_congruential@_K$0FNOOMOGGN@$0L@$0BAAAAAAAAAAAA@$0A@@random@boost@@2_NB
CONST	SEGMENT
?has_fixed_range@?$linear_congruential@_K$0FNOOMOGGN@$0L@$0BAAAAAAAAAAAA@$0A@@random@boost@@2_NB DB 01H ; boost::random::linear_congruential<unsigned __int64,25214903917,11,281474976710656,0>::has_fixed_range
CONST	ENDS
;	COMDAT ?max_value@rand48@boost@@2JB
CONST	SEGMENT
?max_value@rand48@boost@@2JB DD 07fffffffH		; boost::rand48::max_value
CONST	ENDS
;	COMDAT ?min_value@rand48@boost@@2JB
CONST	SEGMENT
?min_value@rand48@boost@@2JB DD 00H			; boost::rand48::min_value
CONST	ENDS
;	COMDAT ?has_fixed_range@rand48@boost@@2_NB
CONST	SEGMENT
?has_fixed_range@rand48@boost@@2_NB DB 01H		; boost::rand48::has_fixed_range
CONST	ENDS
;	COMDAT ?value@?$is_pod_impl@Ua128@align@boost@@@detail@boost@@2_NB
CONST	SEGMENT
?value@?$is_pod_impl@Ua128@align@boost@@@detail@boost@@2_NB DB 01H ; boost::detail::is_pod_impl<boost::align::a128>::value
CONST	ENDS
;	COMDAT ?value@?$is_pod_impl@Ua64@align@boost@@@detail@boost@@2_NB
CONST	SEGMENT
?value@?$is_pod_impl@Ua64@align@boost@@@detail@boost@@2_NB DB 01H ; boost::detail::is_pod_impl<boost::align::a64>::value
CONST	ENDS
;	COMDAT ?value@?$is_pod_impl@Ua32@align@boost@@@detail@boost@@2_NB
CONST	SEGMENT
?value@?$is_pod_impl@Ua32@align@boost@@@detail@boost@@2_NB DB 01H ; boost::detail::is_pod_impl<boost::align::a32>::value
CONST	ENDS
;	COMDAT ?value@?$is_pod_impl@Ua16@align@boost@@@detail@boost@@2_NB
CONST	SEGMENT
?value@?$is_pod_impl@Ua16@align@boost@@@detail@boost@@2_NB DB 01H ; boost::detail::is_pod_impl<boost::align::a16>::value
CONST	ENDS
;	COMDAT ?value@?$is_pod_impl@Ua8@align@boost@@@detail@boost@@2_NB
CONST	SEGMENT
?value@?$is_pod_impl@Ua8@align@boost@@@detail@boost@@2_NB DB 01H ; boost::detail::is_pod_impl<boost::align::a8>::value
CONST	ENDS
;	COMDAT ?found@?$type_with_alignment_imp@$07@detail@boost@@0IB
CONST	SEGMENT
?found@?$type_with_alignment_imp@$07@detail@boost@@0IB DD 08H ; boost::detail::type_with_alignment_imp<8>::found
CONST	ENDS
;	COMDAT ?value@?$is_aligned@$07$07@detail@boost@@2_NB
CONST	SEGMENT
?value@?$is_aligned@$07$07@detail@boost@@2_NB DB 01H	; boost::detail::is_aligned<8,8>::value
CONST	ENDS
;	COMDAT ?value@?$alignment_of_impl@T?$lower_alignment@$07@detail@boost@@@detail@boost@@2IB
CONST	SEGMENT
?value@?$alignment_of_impl@T?$lower_alignment@$07@detail@boost@@@detail@boost@@2IB DD 08H ; boost::detail::alignment_of_impl<boost::detail::lower_alignment<8> >::value
CONST	ENDS
;	COMDAT ?value@?$alignment_of_impl@_J@detail@boost@@2IB
CONST	SEGMENT
?value@?$alignment_of_impl@_J@detail@boost@@2IB DD 08H	; boost::detail::alignment_of_impl<__int64>::value
CONST	ENDS
;	COMDAT ?value@?$alignment_of_impl@J@detail@boost@@2IB
CONST	SEGMENT
?value@?$alignment_of_impl@J@detail@boost@@2IB DD 04H	; boost::detail::alignment_of_impl<long>::value
CONST	ENDS
;	COMDAT ?value@?$integral_c@I$03@mpl@boost@@2IB
CONST	SEGMENT
?value@?$integral_c@I$03@mpl@boost@@2IB DD 04H		; boost::mpl::integral_c<unsigned int,4>::value
CONST	ENDS
;	COMDAT ?value@?$alignment_of_impl@H@detail@boost@@2IB
CONST	SEGMENT
?value@?$alignment_of_impl@H@detail@boost@@2IB DD 04H	; boost::detail::alignment_of_impl<int>::value
CONST	ENDS
;	COMDAT ?value@?$alignment_logic@$03$03@detail@boost@@2IB
CONST	SEGMENT
?value@?$alignment_logic@$03$03@detail@boost@@2IB DD 04H ; boost::detail::alignment_logic<4,4>::value
CONST	ENDS
;	COMDAT ?value@?$integral_c@I$01@mpl@boost@@2IB
CONST	SEGMENT
?value@?$integral_c@I$01@mpl@boost@@2IB DD 02H		; boost::mpl::integral_c<unsigned int,2>::value
CONST	ENDS
;	COMDAT ?value@?$alignment_of_impl@F@detail@boost@@2IB
CONST	SEGMENT
?value@?$alignment_of_impl@F@detail@boost@@2IB DD 02H	; boost::detail::alignment_of_impl<short>::value
CONST	ENDS
;	COMDAT ?value@?$alignment_logic@$01$01@detail@boost@@2IB
CONST	SEGMENT
?value@?$alignment_logic@$01$01@detail@boost@@2IB DD 02H ; boost::detail::alignment_logic<2,2>::value
CONST	ENDS
;	COMDAT ?value@?$integral_c@I$00@mpl@boost@@2IB
CONST	SEGMENT
?value@?$integral_c@I$00@mpl@boost@@2IB DD 01H		; boost::mpl::integral_c<unsigned int,1>::value
CONST	ENDS
;	COMDAT ?value@?$alignment_of_impl@D@detail@boost@@2IB
CONST	SEGMENT
?value@?$alignment_of_impl@D@detail@boost@@2IB DD 01H	; boost::detail::alignment_of_impl<char>::value
CONST	ENDS
;	COMDAT ?value@?$alignment_logic@$00$00@detail@boost@@2IB
CONST	SEGMENT
?value@?$alignment_logic@$00$00@detail@boost@@2IB DD 01H ; boost::detail::alignment_logic<1,1>::value
CONST	ENDS
;	COMDAT ?value@?$integral_c@I$07@mpl@boost@@2IB
CONST	SEGMENT
?value@?$integral_c@I$07@mpl@boost@@2IB DD 08H		; boost::mpl::integral_c<unsigned int,8>::value
CONST	ENDS
;	COMDAT ?value@?$alignment_of_impl@Tmax_align@detail@boost@@@detail@boost@@2IB
CONST	SEGMENT
?value@?$alignment_of_impl@Tmax_align@detail@boost@@@detail@boost@@2IB DD 08H ; boost::detail::alignment_of_impl<boost::detail::max_align>::value
CONST	ENDS
;	COMDAT ?value@?$alignment_logic@$07$07@detail@boost@@2IB
CONST	SEGMENT
?value@?$alignment_logic@$07$07@detail@boost@@2IB DD 08H ; boost::detail::alignment_logic<8,8>::value
CONST	ENDS
;	COMDAT ?value@?$integral_c@I$0A@@mpl@boost@@2IB
CONST	SEGMENT
?value@?$integral_c@I$0A@@mpl@boost@@2IB DD 00H		; boost::mpl::integral_c<unsigned int,0>::value
CONST	ENDS
;	COMDAT ?value@?$integral_constant@_N$00@tr1@std@@2_NB
CONST	SEGMENT
?value@?$integral_constant@_N$00@tr1@std@@2_NB DB 01H	; std::tr1::integral_constant<bool,1>::value
CONST	ENDS
;	COMDAT ?value@?$integral_constant@_N$0A@@tr1@std@@2_NB
CONST	SEGMENT
?value@?$integral_constant@_N$0A@@tr1@std@@2_NB DB 00H	; std::tr1::integral_constant<bool,0>::value
CONST	ENDS
;	COMDAT ?value@?$is_pod_impl@$$CDX@detail@boost@@2_NB
CONST	SEGMENT
?value@?$is_pod_impl@$$CDX@detail@boost@@2_NB DB 01H	; boost::detail::is_pod_impl<void const volatile >::value
CONST	ENDS
;	COMDAT ?value@?$is_pod_impl@$$CCX@detail@boost@@2_NB
CONST	SEGMENT
?value@?$is_pod_impl@$$CCX@detail@boost@@2_NB DB 01H	; boost::detail::is_pod_impl<void volatile >::value
CONST	ENDS
;	COMDAT ?value@?$is_pod_impl@$$CBX@detail@boost@@2_NB
CONST	SEGMENT
?value@?$is_pod_impl@$$CBX@detail@boost@@2_NB DB 01H	; boost::detail::is_pod_impl<void const >::value
CONST	ENDS
;	COMDAT ?value@?$is_pod_impl@X@detail@boost@@2_NB
CONST	SEGMENT
?value@?$is_pod_impl@X@detail@boost@@2_NB DB 01H	; boost::detail::is_pod_impl<void>::value
CONST	ENDS
;	COMDAT ?value@?$is_scalar_impl@$$CDX@detail@boost@@2_NB
CONST	SEGMENT
?value@?$is_scalar_impl@$$CDX@detail@boost@@2_NB DB 00H	; boost::detail::is_scalar_impl<void const volatile >::value
CONST	ENDS
;	COMDAT ?value@?$is_scalar_impl@$$CCX@detail@boost@@2_NB
CONST	SEGMENT
?value@?$is_scalar_impl@$$CCX@detail@boost@@2_NB DB 00H	; boost::detail::is_scalar_impl<void volatile >::value
CONST	ENDS
;	COMDAT ?value@?$is_scalar_impl@$$CBX@detail@boost@@2_NB
CONST	SEGMENT
?value@?$is_scalar_impl@$$CBX@detail@boost@@2_NB DB 00H	; boost::detail::is_scalar_impl<void const >::value
CONST	ENDS
;	COMDAT ?value@?$is_scalar_impl@X@detail@boost@@2_NB
CONST	SEGMENT
?value@?$is_scalar_impl@X@detail@boost@@2_NB DB 00H	; boost::detail::is_scalar_impl<void>::value
CONST	ENDS
;	COMDAT ?value@?$is_member_function_pointer_impl@$$CDX@detail@boost@@2_NB
CONST	SEGMENT
?value@?$is_member_function_pointer_impl@$$CDX@detail@boost@@2_NB DB 00H ; boost::detail::is_member_function_pointer_impl<void const volatile >::value
CONST	ENDS
;	COMDAT ?value@?$is_member_function_pointer_impl@$$CCX@detail@boost@@2_NB
CONST	SEGMENT
?value@?$is_member_function_pointer_impl@$$CCX@detail@boost@@2_NB DB 00H ; boost::detail::is_member_function_pointer_impl<void volatile >::value
CONST	ENDS
;	COMDAT ?value@?$is_member_function_pointer_impl@$$CBX@detail@boost@@2_NB
CONST	SEGMENT
?value@?$is_member_function_pointer_impl@$$CBX@detail@boost@@2_NB DB 00H ; boost::detail::is_member_function_pointer_impl<void const >::value
CONST	ENDS
;	COMDAT ?value@?$is_member_function_pointer_impl@X@detail@boost@@2_NB
CONST	SEGMENT
?value@?$is_member_function_pointer_impl@X@detail@boost@@2_NB DB 00H ; boost::detail::is_member_function_pointer_impl<void>::value
CONST	ENDS
;	COMDAT ?value@?$arg@$04@mpl@boost@@2HB
CONST	SEGMENT
?value@?$arg@$04@mpl@boost@@2HB DD 05H			; boost::mpl::arg<5>::value
CONST	ENDS
;	COMDAT ?value@?$arg@$03@mpl@boost@@2HB
CONST	SEGMENT
?value@?$arg@$03@mpl@boost@@2HB DD 04H			; boost::mpl::arg<4>::value
CONST	ENDS
;	COMDAT ?value@?$arg@$02@mpl@boost@@2HB
CONST	SEGMENT
?value@?$arg@$02@mpl@boost@@2HB DD 03H			; boost::mpl::arg<3>::value
CONST	ENDS
;	COMDAT ?value@?$arg@$01@mpl@boost@@2HB
CONST	SEGMENT
?value@?$arg@$01@mpl@boost@@2HB DD 02H			; boost::mpl::arg<2>::value
CONST	ENDS
;	COMDAT ?value@?$arg@$00@mpl@boost@@2HB
CONST	SEGMENT
?value@?$arg@$00@mpl@boost@@2HB DD 01H			; boost::mpl::arg<1>::value
CONST	ENDS
;	COMDAT ?value@?$arg@$0?0@mpl@boost@@2HB
CONST	SEGMENT
?value@?$arg@$0?0@mpl@boost@@2HB DD 0ffffffffH		; boost::mpl::arg<-1>::value
CONST	ENDS
;	COMDAT ?value@?$int_@$0M@@mpl@boost@@2HB
CONST	SEGMENT
?value@?$int_@$0M@@mpl@boost@@2HB DD 0cH		; boost::mpl::int_<12>::value
CONST	ENDS
;	COMDAT ?value@?$int_@$0L@@mpl@boost@@2HB
CONST	SEGMENT
?value@?$int_@$0L@@mpl@boost@@2HB DD 0bH		; boost::mpl::int_<11>::value
CONST	ENDS
;	COMDAT ?value@?$int_@$09@mpl@boost@@2HB
CONST	SEGMENT
?value@?$int_@$09@mpl@boost@@2HB DD 0aH			; boost::mpl::int_<10>::value
CONST	ENDS
;	COMDAT ?value@?$int_@$08@mpl@boost@@2HB
CONST	SEGMENT
?value@?$int_@$08@mpl@boost@@2HB DD 09H			; boost::mpl::int_<9>::value
CONST	ENDS
;	COMDAT ?value@?$int_@$07@mpl@boost@@2HB
CONST	SEGMENT
?value@?$int_@$07@mpl@boost@@2HB DD 08H			; boost::mpl::int_<8>::value
CONST	ENDS
;	COMDAT ?value@?$int_@$06@mpl@boost@@2HB
CONST	SEGMENT
?value@?$int_@$06@mpl@boost@@2HB DD 07H			; boost::mpl::int_<7>::value
CONST	ENDS
;	COMDAT ?value@?$int_@$05@mpl@boost@@2HB
CONST	SEGMENT
?value@?$int_@$05@mpl@boost@@2HB DD 06H			; boost::mpl::int_<6>::value
CONST	ENDS
;	COMDAT ?value@?$int_@$04@mpl@boost@@2HB
CONST	SEGMENT
?value@?$int_@$04@mpl@boost@@2HB DD 05H			; boost::mpl::int_<5>::value
CONST	ENDS
;	COMDAT ?value@?$int_@$03@mpl@boost@@2HB
CONST	SEGMENT
?value@?$int_@$03@mpl@boost@@2HB DD 04H			; boost::mpl::int_<4>::value
CONST	ENDS
;	COMDAT ?value@?$int_@$02@mpl@boost@@2HB
CONST	SEGMENT
?value@?$int_@$02@mpl@boost@@2HB DD 03H			; boost::mpl::int_<3>::value
CONST	ENDS
;	COMDAT ?value@?$int_@$01@mpl@boost@@2HB
CONST	SEGMENT
?value@?$int_@$01@mpl@boost@@2HB DD 02H			; boost::mpl::int_<2>::value
CONST	ENDS
;	COMDAT ?value@?$int_@$00@mpl@boost@@2HB
CONST	SEGMENT
?value@?$int_@$00@mpl@boost@@2HB DD 01H			; boost::mpl::int_<1>::value
CONST	ENDS
;	COMDAT ?value@?$select_by_size@$0BF@@detail@iostreams@boost@@2HB
CONST	SEGMENT
?value@?$select_by_size@$0BF@@detail@iostreams@boost@@2HB DD 013H ; boost::iostreams::detail::select_by_size<21>::value
CONST	ENDS
;	COMDAT ?value@type@?$select_by_size@$0BF@@detail@iostreams@boost@@2HB
CONST	SEGMENT
?value@type@?$select_by_size@$0BF@@detail@iostreams@boost@@2HB DD 013H ; boost::iostreams::detail::select_by_size<21>::type::value
CONST	ENDS
;	COMDAT ?value@?$select_by_size@$0BE@@detail@iostreams@boost@@2HB
CONST	SEGMENT
?value@?$select_by_size@$0BE@@detail@iostreams@boost@@2HB DD 012H ; boost::iostreams::detail::select_by_size<20>::value
CONST	ENDS
;	COMDAT ?value@type@?$select_by_size@$0BE@@detail@iostreams@boost@@2HB
CONST	SEGMENT
?value@type@?$select_by_size@$0BE@@detail@iostreams@boost@@2HB DD 012H ; boost::iostreams::detail::select_by_size<20>::type::value
CONST	ENDS
;	COMDAT ?value@?$select_by_size@$0BD@@detail@iostreams@boost@@2HB
CONST	SEGMENT
?value@?$select_by_size@$0BD@@detail@iostreams@boost@@2HB DD 011H ; boost::iostreams::detail::select_by_size<19>::value
CONST	ENDS
;	COMDAT ?value@type@?$select_by_size@$0BD@@detail@iostreams@boost@@2HB
CONST	SEGMENT
?value@type@?$select_by_size@$0BD@@detail@iostreams@boost@@2HB DD 011H ; boost::iostreams::detail::select_by_size<19>::type::value
CONST	ENDS
;	COMDAT ?value@?$select_by_size@$0BC@@detail@iostreams@boost@@2HB
CONST	SEGMENT
?value@?$select_by_size@$0BC@@detail@iostreams@boost@@2HB DD 010H ; boost::iostreams::detail::select_by_size<18>::value
CONST	ENDS
;	COMDAT ?value@type@?$select_by_size@$0BC@@detail@iostreams@boost@@2HB
CONST	SEGMENT
?value@type@?$select_by_size@$0BC@@detail@iostreams@boost@@2HB DD 010H ; boost::iostreams::detail::select_by_size<18>::type::value
CONST	ENDS
;	COMDAT ?value@?$select_by_size@$0BB@@detail@iostreams@boost@@2HB
CONST	SEGMENT
?value@?$select_by_size@$0BB@@detail@iostreams@boost@@2HB DD 0fH ; boost::iostreams::detail::select_by_size<17>::value
CONST	ENDS
;	COMDAT ?value@type@?$select_by_size@$0BB@@detail@iostreams@boost@@2HB
CONST	SEGMENT
?value@type@?$select_by_size@$0BB@@detail@iostreams@boost@@2HB DD 0fH ; boost::iostreams::detail::select_by_size<17>::type::value
CONST	ENDS
;	COMDAT ?value@?$select_by_size@$0BA@@detail@iostreams@boost@@2HB
CONST	SEGMENT
?value@?$select_by_size@$0BA@@detail@iostreams@boost@@2HB DD 0eH ; boost::iostreams::detail::select_by_size<16>::value
CONST	ENDS
;	COMDAT ?value@type@?$select_by_size@$0BA@@detail@iostreams@boost@@2HB
CONST	SEGMENT
?value@type@?$select_by_size@$0BA@@detail@iostreams@boost@@2HB DD 0eH ; boost::iostreams::detail::select_by_size<16>::type::value
CONST	ENDS
;	COMDAT ?value@?$select_by_size@$0P@@detail@iostreams@boost@@2HB
CONST	SEGMENT
?value@?$select_by_size@$0P@@detail@iostreams@boost@@2HB DD 0dH ; boost::iostreams::detail::select_by_size<15>::value
CONST	ENDS
;	COMDAT ?value@type@?$select_by_size@$0P@@detail@iostreams@boost@@2HB
CONST	SEGMENT
?value@type@?$select_by_size@$0P@@detail@iostreams@boost@@2HB DD 0dH ; boost::iostreams::detail::select_by_size<15>::type::value
CONST	ENDS
;	COMDAT ?value@?$select_by_size@$0O@@detail@iostreams@boost@@2HB
CONST	SEGMENT
?value@?$select_by_size@$0O@@detail@iostreams@boost@@2HB DD 0cH ; boost::iostreams::detail::select_by_size<14>::value
CONST	ENDS
;	COMDAT ?value@type@?$select_by_size@$0O@@detail@iostreams@boost@@2HB
CONST	SEGMENT
?value@type@?$select_by_size@$0O@@detail@iostreams@boost@@2HB DD 0cH ; boost::iostreams::detail::select_by_size<14>::type::value
CONST	ENDS
;	COMDAT ?value@?$select_by_size@$0N@@detail@iostreams@boost@@2HB
CONST	SEGMENT
?value@?$select_by_size@$0N@@detail@iostreams@boost@@2HB DD 0bH ; boost::iostreams::detail::select_by_size<13>::value
CONST	ENDS
;	COMDAT ?value@type@?$select_by_size@$0N@@detail@iostreams@boost@@2HB
CONST	SEGMENT
?value@type@?$select_by_size@$0N@@detail@iostreams@boost@@2HB DD 0bH ; boost::iostreams::detail::select_by_size<13>::type::value
CONST	ENDS
;	COMDAT ?value@?$select_by_size@$0M@@detail@iostreams@boost@@2HB
CONST	SEGMENT
?value@?$select_by_size@$0M@@detail@iostreams@boost@@2HB DD 0aH ; boost::iostreams::detail::select_by_size<12>::value
CONST	ENDS
;	COMDAT ?value@type@?$select_by_size@$0M@@detail@iostreams@boost@@2HB
CONST	SEGMENT
?value@type@?$select_by_size@$0M@@detail@iostreams@boost@@2HB DD 0aH ; boost::iostreams::detail::select_by_size<12>::type::value
CONST	ENDS
;	COMDAT ?value@?$select_by_size@$0L@@detail@iostreams@boost@@2HB
CONST	SEGMENT
?value@?$select_by_size@$0L@@detail@iostreams@boost@@2HB DD 09H ; boost::iostreams::detail::select_by_size<11>::value
CONST	ENDS
;	COMDAT ?value@type@?$select_by_size@$0L@@detail@iostreams@boost@@2HB
CONST	SEGMENT
?value@type@?$select_by_size@$0L@@detail@iostreams@boost@@2HB DD 09H ; boost::iostreams::detail::select_by_size<11>::type::value
CONST	ENDS
;	COMDAT ?value@?$select_by_size@$09@detail@iostreams@boost@@2HB
CONST	SEGMENT
?value@?$select_by_size@$09@detail@iostreams@boost@@2HB DD 08H ; boost::iostreams::detail::select_by_size<10>::value
CONST	ENDS
;	COMDAT ?value@type@?$select_by_size@$09@detail@iostreams@boost@@2HB
CONST	SEGMENT
?value@type@?$select_by_size@$09@detail@iostreams@boost@@2HB DD 08H ; boost::iostreams::detail::select_by_size<10>::type::value
CONST	ENDS
;	COMDAT ?value@?$select_by_size@$08@detail@iostreams@boost@@2HB
CONST	SEGMENT
?value@?$select_by_size@$08@detail@iostreams@boost@@2HB DD 07H ; boost::iostreams::detail::select_by_size<9>::value
CONST	ENDS
;	COMDAT ?value@type@?$select_by_size@$08@detail@iostreams@boost@@2HB
CONST	SEGMENT
?value@type@?$select_by_size@$08@detail@iostreams@boost@@2HB DD 07H ; boost::iostreams::detail::select_by_size<9>::type::value
CONST	ENDS
;	COMDAT ?value@?$select_by_size@$07@detail@iostreams@boost@@2HB
CONST	SEGMENT
?value@?$select_by_size@$07@detail@iostreams@boost@@2HB DD 06H ; boost::iostreams::detail::select_by_size<8>::value
CONST	ENDS
;	COMDAT ?value@type@?$select_by_size@$07@detail@iostreams@boost@@2HB
CONST	SEGMENT
?value@type@?$select_by_size@$07@detail@iostreams@boost@@2HB DD 06H ; boost::iostreams::detail::select_by_size<8>::type::value
CONST	ENDS
;	COMDAT ?value@?$select_by_size@$06@detail@iostreams@boost@@2HB
CONST	SEGMENT
?value@?$select_by_size@$06@detail@iostreams@boost@@2HB DD 05H ; boost::iostreams::detail::select_by_size<7>::value
CONST	ENDS
;	COMDAT ?value@type@?$select_by_size@$06@detail@iostreams@boost@@2HB
CONST	SEGMENT
?value@type@?$select_by_size@$06@detail@iostreams@boost@@2HB DD 05H ; boost::iostreams::detail::select_by_size<7>::type::value
CONST	ENDS
;	COMDAT ?value@?$select_by_size@$05@detail@iostreams@boost@@2HB
CONST	SEGMENT
?value@?$select_by_size@$05@detail@iostreams@boost@@2HB DD 04H ; boost::iostreams::detail::select_by_size<6>::value
CONST	ENDS
;	COMDAT ?value@type@?$select_by_size@$05@detail@iostreams@boost@@2HB
CONST	SEGMENT
?value@type@?$select_by_size@$05@detail@iostreams@boost@@2HB DD 04H ; boost::iostreams::detail::select_by_size<6>::type::value
CONST	ENDS
;	COMDAT ?value@?$select_by_size@$04@detail@iostreams@boost@@2HB
CONST	SEGMENT
?value@?$select_by_size@$04@detail@iostreams@boost@@2HB DD 03H ; boost::iostreams::detail::select_by_size<5>::value
CONST	ENDS
;	COMDAT ?value@type@?$select_by_size@$04@detail@iostreams@boost@@2HB
CONST	SEGMENT
?value@type@?$select_by_size@$04@detail@iostreams@boost@@2HB DD 03H ; boost::iostreams::detail::select_by_size<5>::type::value
CONST	ENDS
;	COMDAT ?value@?$select_by_size@$03@detail@iostreams@boost@@2HB
CONST	SEGMENT
?value@?$select_by_size@$03@detail@iostreams@boost@@2HB DD 02H ; boost::iostreams::detail::select_by_size<4>::value
CONST	ENDS
;	COMDAT ?value@type@?$select_by_size@$03@detail@iostreams@boost@@2HB
CONST	SEGMENT
?value@type@?$select_by_size@$03@detail@iostreams@boost@@2HB DD 02H ; boost::iostreams::detail::select_by_size<4>::type::value
CONST	ENDS
;	COMDAT ?value@?$select_by_size@$02@detail@iostreams@boost@@2HB
CONST	SEGMENT
?value@?$select_by_size@$02@detail@iostreams@boost@@2HB DD 01H ; boost::iostreams::detail::select_by_size<3>::value
CONST	ENDS
;	COMDAT ?value@type@?$select_by_size@$02@detail@iostreams@boost@@2HB
CONST	SEGMENT
?value@type@?$select_by_size@$02@detail@iostreams@boost@@2HB DD 01H ; boost::iostreams::detail::select_by_size<3>::type::value
CONST	ENDS
;	COMDAT ?value@?$select_by_size@$01@detail@iostreams@boost@@2HB
CONST	SEGMENT
?value@?$select_by_size@$01@detail@iostreams@boost@@2HB DD 00H ; boost::iostreams::detail::select_by_size<2>::value
CONST	ENDS
;	COMDAT ?value@type@?$select_by_size@$01@detail@iostreams@boost@@2HB
CONST	SEGMENT
?value@type@?$select_by_size@$01@detail@iostreams@boost@@2HB DD 00H ; boost::iostreams::detail::select_by_size<2>::type::value
CONST	ENDS
;	COMDAT ?value@?$select_by_size@$00@detail@iostreams@boost@@2HB
CONST	SEGMENT
?value@?$select_by_size@$00@detail@iostreams@boost@@2HB DD 0ffffffffH ; boost::iostreams::detail::select_by_size<1>::value
CONST	ENDS
;	COMDAT ?value@type@?$select_by_size@$00@detail@iostreams@boost@@2HB
CONST	SEGMENT
?value@type@?$select_by_size@$00@detail@iostreams@boost@@2HB DD 0ffffffffH ; boost::iostreams::detail::select_by_size<1>::type::value
CONST	ENDS
;	COMDAT ?value@?$is_convertible_impl@$$CDX$$CDX@detail@boost@@2_NB
CONST	SEGMENT
?value@?$is_convertible_impl@$$CDX$$CDX@detail@boost@@2_NB DB 01H ; boost::detail::is_convertible_impl<void const volatile ,void const volatile >::value
CONST	ENDS
;	COMDAT ?value@?$is_convertible_impl@$$CDX$$CCX@detail@boost@@2_NB
CONST	SEGMENT
?value@?$is_convertible_impl@$$CDX$$CCX@detail@boost@@2_NB DB 01H ; boost::detail::is_convertible_impl<void const volatile ,void volatile >::value
CONST	ENDS
;	COMDAT ?value@?$is_convertible_impl@$$CDX$$CBX@detail@boost@@2_NB
CONST	SEGMENT
?value@?$is_convertible_impl@$$CDX$$CBX@detail@boost@@2_NB DB 01H ; boost::detail::is_convertible_impl<void const volatile ,void const >::value
CONST	ENDS
;	COMDAT ?value@?$is_convertible_impl@$$CDXX@detail@boost@@2_NB
CONST	SEGMENT
?value@?$is_convertible_impl@$$CDXX@detail@boost@@2_NB DB 01H ; boost::detail::is_convertible_impl<void const volatile ,void>::value
CONST	ENDS
;	COMDAT ?value@?$is_convertible_impl@$$CCX$$CDX@detail@boost@@2_NB
CONST	SEGMENT
?value@?$is_convertible_impl@$$CCX$$CDX@detail@boost@@2_NB DB 01H ; boost::detail::is_convertible_impl<void volatile ,void const volatile >::value
CONST	ENDS
;	COMDAT ?value@?$is_convertible_impl@$$CCX$$CCX@detail@boost@@2_NB
CONST	SEGMENT
?value@?$is_convertible_impl@$$CCX$$CCX@detail@boost@@2_NB DB 01H ; boost::detail::is_convertible_impl<void volatile ,void volatile >::value
CONST	ENDS
;	COMDAT ?value@?$is_convertible_impl@$$CCX$$CBX@detail@boost@@2_NB
CONST	SEGMENT
?value@?$is_convertible_impl@$$CCX$$CBX@detail@boost@@2_NB DB 01H ; boost::detail::is_convertible_impl<void volatile ,void const >::value
CONST	ENDS
;	COMDAT ?value@?$is_convertible_impl@$$CCXX@detail@boost@@2_NB
CONST	SEGMENT
?value@?$is_convertible_impl@$$CCXX@detail@boost@@2_NB DB 01H ; boost::detail::is_convertible_impl<void volatile ,void>::value
CONST	ENDS
;	COMDAT ?value@?$is_convertible_impl@$$CBX$$CDX@detail@boost@@2_NB
CONST	SEGMENT
?value@?$is_convertible_impl@$$CBX$$CDX@detail@boost@@2_NB DB 01H ; boost::detail::is_convertible_impl<void const ,void const volatile >::value
CONST	ENDS
;	COMDAT ?value@?$is_convertible_impl@$$CBX$$CCX@detail@boost@@2_NB
CONST	SEGMENT
?value@?$is_convertible_impl@$$CBX$$CCX@detail@boost@@2_NB DB 01H ; boost::detail::is_convertible_impl<void const ,void volatile >::value
CONST	ENDS
;	COMDAT ?value@?$is_convertible_impl@$$CBX$$CBX@detail@boost@@2_NB
CONST	SEGMENT
?value@?$is_convertible_impl@$$CBX$$CBX@detail@boost@@2_NB DB 01H ; boost::detail::is_convertible_impl<void const ,void const >::value
CONST	ENDS
;	COMDAT ?value@?$is_convertible_impl@$$CBXX@detail@boost@@2_NB
CONST	SEGMENT
?value@?$is_convertible_impl@$$CBXX@detail@boost@@2_NB DB 01H ; boost::detail::is_convertible_impl<void const ,void>::value
CONST	ENDS
;	COMDAT ?value@?$is_convertible_impl@X$$CDX@detail@boost@@2_NB
CONST	SEGMENT
?value@?$is_convertible_impl@X$$CDX@detail@boost@@2_NB DB 01H ; boost::detail::is_convertible_impl<void,void const volatile >::value
CONST	ENDS
;	COMDAT ?value@?$is_convertible_impl@X$$CCX@detail@boost@@2_NB
CONST	SEGMENT
?value@?$is_convertible_impl@X$$CCX@detail@boost@@2_NB DB 01H ; boost::detail::is_convertible_impl<void,void volatile >::value
CONST	ENDS
;	COMDAT ?value@?$is_convertible_impl@X$$CBX@detail@boost@@2_NB
CONST	SEGMENT
?value@?$is_convertible_impl@X$$CBX@detail@boost@@2_NB DB 01H ; boost::detail::is_convertible_impl<void,void const >::value
CONST	ENDS
;	COMDAT ?value@?$is_convertible_impl@XX@detail@boost@@2_NB
CONST	SEGMENT
?value@?$is_convertible_impl@XX@detail@boost@@2_NB DB 01H ; boost::detail::is_convertible_impl<void,void>::value
CONST	ENDS
;	COMDAT ?value@?$ice_not@$00@type_traits@boost@@2_NB
CONST	SEGMENT
?value@?$ice_not@$00@type_traits@boost@@2_NB DB 00H	; boost::type_traits::ice_not<1>::value
CONST	ENDS
;	COMDAT ?value@?$ice_and@$00$00$00$00$00$00$00@type_traits@boost@@2_NB
CONST	SEGMENT
?value@?$ice_and@$00$00$00$00$00$00$00@type_traits@boost@@2_NB DB 01H ; boost::type_traits::ice_and<1,1,1,1,1,1,1>::value
CONST	ENDS
;	COMDAT ?value@?$ice_or@$0A@$0A@$0A@$0A@$0A@$0A@$0A@@type_traits@boost@@2_NB
CONST	SEGMENT
?value@?$ice_or@$0A@$0A@$0A@$0A@$0A@$0A@$0A@@type_traits@boost@@2_NB DB 00H ; boost::type_traits::ice_or<0,0,0,0,0,0,0>::value
CONST	ENDS
;	COMDAT ?const_max@?$integer_traits_base@_K$0A@$0?0@detail@boost@@2_KB
CONST	SEGMENT
?const_max@?$integer_traits_base@_K$0A@$0?0@detail@boost@@2_KB DQ ffffffffffffffffH ; boost::detail::integer_traits_base<unsigned __int64,0,-1>::const_max
CONST	ENDS
;	COMDAT ?const_min@?$integer_traits_base@_K$0A@$0?0@detail@boost@@2_KB
CONST	SEGMENT
?const_min@?$integer_traits_base@_K$0A@$0?0@detail@boost@@2_KB DQ 0000000000000000H ; boost::detail::integer_traits_base<unsigned __int64,0,-1>::const_min
CONST	ENDS
;	COMDAT ?is_integral@?$integer_traits_base@_K$0A@$0?0@detail@boost@@2_NB
CONST	SEGMENT
?is_integral@?$integer_traits_base@_K$0A@$0?0@detail@boost@@2_NB DB 01H ; boost::detail::integer_traits_base<unsigned __int64,0,-1>::is_integral
CONST	ENDS
;	COMDAT ?const_max@?$integer_traits_base@_J$0?IAAAAAAAAAAAAAAA@$0HPPPPPPPPPPPPPPP@@detail@boost@@2_JB
CONST	SEGMENT
?const_max@?$integer_traits_base@_J$0?IAAAAAAAAAAAAAAA@$0HPPPPPPPPPPPPPPP@@detail@boost@@2_JB DQ 7fffffffffffffffH ; boost::detail::integer_traits_base<__int64,-9223372036854775808,9223372036854775807>::const_max
CONST	ENDS
;	COMDAT ?const_min@?$integer_traits_base@_J$0?IAAAAAAAAAAAAAAA@$0HPPPPPPPPPPPPPPP@@detail@boost@@2_JB
CONST	SEGMENT
?const_min@?$integer_traits_base@_J$0?IAAAAAAAAAAAAAAA@$0HPPPPPPPPPPPPPPP@@detail@boost@@2_JB DQ 8000000000000000H ; boost::detail::integer_traits_base<__int64,-9223372036854775808,9223372036854775807>::const_min
CONST	ENDS
;	COMDAT ?is_integral@?$integer_traits_base@_J$0?IAAAAAAAAAAAAAAA@$0HPPPPPPPPPPPPPPP@@detail@boost@@2_NB
CONST	SEGMENT
?is_integral@?$integer_traits_base@_J$0?IAAAAAAAAAAAAAAA@$0HPPPPPPPPPPPPPPP@@detail@boost@@2_NB DB 01H ; boost::detail::integer_traits_base<__int64,-9223372036854775808,9223372036854775807>::is_integral
CONST	ENDS
;	COMDAT ?const_max@?$integer_traits_base@K$0A@$0PPPPPPPP@@detail@boost@@2KB
CONST	SEGMENT
?const_max@?$integer_traits_base@K$0A@$0PPPPPPPP@@detail@boost@@2KB DD 0ffffffffH ; boost::detail::integer_traits_base<unsigned long,0,4294967295>::const_max
CONST	ENDS
;	COMDAT ?const_min@?$integer_traits_base@K$0A@$0PPPPPPPP@@detail@boost@@2KB
CONST	SEGMENT
?const_min@?$integer_traits_base@K$0A@$0PPPPPPPP@@detail@boost@@2KB DD 00H ; boost::detail::integer_traits_base<unsigned long,0,4294967295>::const_min
CONST	ENDS
;	COMDAT ?is_integral@?$integer_traits_base@K$0A@$0PPPPPPPP@@detail@boost@@2_NB
CONST	SEGMENT
?is_integral@?$integer_traits_base@K$0A@$0PPPPPPPP@@detail@boost@@2_NB DB 01H ; boost::detail::integer_traits_base<unsigned long,0,4294967295>::is_integral
CONST	ENDS
;	COMDAT ?const_max@?$integer_traits_base@J$0?IAAAAAAA@$0HPPPPPPP@@detail@boost@@2JB
CONST	SEGMENT
?const_max@?$integer_traits_base@J$0?IAAAAAAA@$0HPPPPPPP@@detail@boost@@2JB DD 07fffffffH ; boost::detail::integer_traits_base<long,-2147483648,2147483647>::const_max
CONST	ENDS
;	COMDAT ?const_min@?$integer_traits_base@J$0?IAAAAAAA@$0HPPPPPPP@@detail@boost@@2JB
CONST	SEGMENT
?const_min@?$integer_traits_base@J$0?IAAAAAAA@$0HPPPPPPP@@detail@boost@@2JB DD 080000000H ; boost::detail::integer_traits_base<long,-2147483648,2147483647>::const_min
CONST	ENDS
;	COMDAT ?is_integral@?$integer_traits_base@J$0?IAAAAAAA@$0HPPPPPPP@@detail@boost@@2_NB
CONST	SEGMENT
?is_integral@?$integer_traits_base@J$0?IAAAAAAA@$0HPPPPPPP@@detail@boost@@2_NB DB 01H ; boost::detail::integer_traits_base<long,-2147483648,2147483647>::is_integral
CONST	ENDS
;	COMDAT ?const_max@?$integer_traits_base@I$0A@$0PPPPPPPP@@detail@boost@@2IB
CONST	SEGMENT
?const_max@?$integer_traits_base@I$0A@$0PPPPPPPP@@detail@boost@@2IB DD 0ffffffffH ; boost::detail::integer_traits_base<unsigned int,0,4294967295>::const_max
CONST	ENDS
;	COMDAT ?const_min@?$integer_traits_base@I$0A@$0PPPPPPPP@@detail@boost@@2IB
CONST	SEGMENT
?const_min@?$integer_traits_base@I$0A@$0PPPPPPPP@@detail@boost@@2IB DD 00H ; boost::detail::integer_traits_base<unsigned int,0,4294967295>::const_min
CONST	ENDS
;	COMDAT ?is_integral@?$integer_traits_base@I$0A@$0PPPPPPPP@@detail@boost@@2_NB
CONST	SEGMENT
?is_integral@?$integer_traits_base@I$0A@$0PPPPPPPP@@detail@boost@@2_NB DB 01H ; boost::detail::integer_traits_base<unsigned int,0,4294967295>::is_integral
CONST	ENDS
;	COMDAT ?const_max@?$integer_traits_base@H$0?IAAAAAAA@$0HPPPPPPP@@detail@boost@@2HB
CONST	SEGMENT
?const_max@?$integer_traits_base@H$0?IAAAAAAA@$0HPPPPPPP@@detail@boost@@2HB DD 07fffffffH ; boost::detail::integer_traits_base<int,-2147483648,2147483647>::const_max
CONST	ENDS
;	COMDAT ?const_min@?$integer_traits_base@H$0?IAAAAAAA@$0HPPPPPPP@@detail@boost@@2HB
CONST	SEGMENT
?const_min@?$integer_traits_base@H$0?IAAAAAAA@$0HPPPPPPP@@detail@boost@@2HB DD 080000000H ; boost::detail::integer_traits_base<int,-2147483648,2147483647>::const_min
CONST	ENDS
;	COMDAT ?is_integral@?$integer_traits_base@H$0?IAAAAAAA@$0HPPPPPPP@@detail@boost@@2_NB
CONST	SEGMENT
?is_integral@?$integer_traits_base@H$0?IAAAAAAA@$0HPPPPPPP@@detail@boost@@2_NB DB 01H ; boost::detail::integer_traits_base<int,-2147483648,2147483647>::is_integral
CONST	ENDS
;	COMDAT ?const_max@?$integer_traits_base@G$0A@$0PPPP@@detail@boost@@2GB
CONST	SEGMENT
?const_max@?$integer_traits_base@G$0A@$0PPPP@@detail@boost@@2GB DW 0ffffH ; boost::detail::integer_traits_base<unsigned short,0,65535>::const_max
CONST	ENDS
;	COMDAT ?const_min@?$integer_traits_base@G$0A@$0PPPP@@detail@boost@@2GB
CONST	SEGMENT
?const_min@?$integer_traits_base@G$0A@$0PPPP@@detail@boost@@2GB DW 00H ; boost::detail::integer_traits_base<unsigned short,0,65535>::const_min
CONST	ENDS
;	COMDAT ?is_integral@?$integer_traits_base@G$0A@$0PPPP@@detail@boost@@2_NB
CONST	SEGMENT
?is_integral@?$integer_traits_base@G$0A@$0PPPP@@detail@boost@@2_NB DB 01H ; boost::detail::integer_traits_base<unsigned short,0,65535>::is_integral
CONST	ENDS
;	COMDAT ?const_max@?$integer_traits_base@F$0?IAAA@$0HPPP@@detail@boost@@2FB
CONST	SEGMENT
?const_max@?$integer_traits_base@F$0?IAAA@$0HPPP@@detail@boost@@2FB DW 07fffH ; boost::detail::integer_traits_base<short,-32768,32767>::const_max
CONST	ENDS
;	COMDAT ?const_min@?$integer_traits_base@F$0?IAAA@$0HPPP@@detail@boost@@2FB
CONST	SEGMENT
?const_min@?$integer_traits_base@F$0?IAAA@$0HPPP@@detail@boost@@2FB DW 08000H ; boost::detail::integer_traits_base<short,-32768,32767>::const_min
CONST	ENDS
;	COMDAT ?is_integral@?$integer_traits_base@F$0?IAAA@$0HPPP@@detail@boost@@2_NB
CONST	SEGMENT
?is_integral@?$integer_traits_base@F$0?IAAA@$0HPPP@@detail@boost@@2_NB DB 01H ; boost::detail::integer_traits_base<short,-32768,32767>::is_integral
CONST	ENDS
;	COMDAT ?const_max@?$integer_traits_base@_W$0A@$0PPPP@@detail@boost@@2_WB
CONST	SEGMENT
?const_max@?$integer_traits_base@_W$0A@$0PPPP@@detail@boost@@2_WB DW 0ffffH ; boost::detail::integer_traits_base<wchar_t,0,65535>::const_max
CONST	ENDS
;	COMDAT ?const_min@?$integer_traits_base@_W$0A@$0PPPP@@detail@boost@@2_WB
CONST	SEGMENT
?const_min@?$integer_traits_base@_W$0A@$0PPPP@@detail@boost@@2_WB DW 00H ; boost::detail::integer_traits_base<wchar_t,0,65535>::const_min
CONST	ENDS
;	COMDAT ?is_integral@?$integer_traits_base@_W$0A@$0PPPP@@detail@boost@@2_NB
CONST	SEGMENT
?is_integral@?$integer_traits_base@_W$0A@$0PPPP@@detail@boost@@2_NB DB 01H ; boost::detail::integer_traits_base<wchar_t,0,65535>::is_integral
CONST	ENDS
;	COMDAT ?const_max@?$integer_traits_base@E$0A@$0PP@@detail@boost@@2EB
CONST	SEGMENT
?const_max@?$integer_traits_base@E$0A@$0PP@@detail@boost@@2EB DB 0ffH ; boost::detail::integer_traits_base<unsigned char,0,255>::const_max
CONST	ENDS
;	COMDAT ?const_min@?$integer_traits_base@E$0A@$0PP@@detail@boost@@2EB
CONST	SEGMENT
?const_min@?$integer_traits_base@E$0A@$0PP@@detail@boost@@2EB DB 00H ; boost::detail::integer_traits_base<unsigned char,0,255>::const_min
CONST	ENDS
;	COMDAT ?is_integral@?$integer_traits_base@E$0A@$0PP@@detail@boost@@2_NB
CONST	SEGMENT
?is_integral@?$integer_traits_base@E$0A@$0PP@@detail@boost@@2_NB DB 01H ; boost::detail::integer_traits_base<unsigned char,0,255>::is_integral
CONST	ENDS
;	COMDAT ?const_max@?$integer_traits_base@C$0?IA@$0HP@@detail@boost@@2CB
CONST	SEGMENT
?const_max@?$integer_traits_base@C$0?IA@$0HP@@detail@boost@@2CB DB 07fH ; boost::detail::integer_traits_base<signed char,-128,127>::const_max
CONST	ENDS
;	COMDAT ?const_min@?$integer_traits_base@C$0?IA@$0HP@@detail@boost@@2CB
CONST	SEGMENT
?const_min@?$integer_traits_base@C$0?IA@$0HP@@detail@boost@@2CB DB 080H ; boost::detail::integer_traits_base<signed char,-128,127>::const_min
CONST	ENDS
;	COMDAT ?is_integral@?$integer_traits_base@C$0?IA@$0HP@@detail@boost@@2_NB
CONST	SEGMENT
?is_integral@?$integer_traits_base@C$0?IA@$0HP@@detail@boost@@2_NB DB 01H ; boost::detail::integer_traits_base<signed char,-128,127>::is_integral
CONST	ENDS
;	COMDAT ?const_max@?$integer_traits_base@D$0?IA@$0HP@@detail@boost@@2DB
CONST	SEGMENT
?const_max@?$integer_traits_base@D$0?IA@$0HP@@detail@boost@@2DB DB 07fH ; boost::detail::integer_traits_base<char,-128,127>::const_max
CONST	ENDS
;	COMDAT ?const_min@?$integer_traits_base@D$0?IA@$0HP@@detail@boost@@2DB
CONST	SEGMENT
?const_min@?$integer_traits_base@D$0?IA@$0HP@@detail@boost@@2DB DB 080H ; boost::detail::integer_traits_base<char,-128,127>::const_min
CONST	ENDS
;	COMDAT ?is_integral@?$integer_traits_base@D$0?IA@$0HP@@detail@boost@@2_NB
CONST	SEGMENT
?is_integral@?$integer_traits_base@D$0?IA@$0HP@@detail@boost@@2_NB DB 01H ; boost::detail::integer_traits_base<char,-128,127>::is_integral
CONST	ENDS
;	COMDAT ?const_max@?$integer_traits_base@_N$0A@$00@detail@boost@@2_NB
CONST	SEGMENT
?const_max@?$integer_traits_base@_N$0A@$00@detail@boost@@2_NB DB 01H ; boost::detail::integer_traits_base<bool,0,1>::const_max
CONST	ENDS
;	COMDAT ?const_min@?$integer_traits_base@_N$0A@$00@detail@boost@@2_NB
CONST	SEGMENT
?const_min@?$integer_traits_base@_N$0A@$00@detail@boost@@2_NB DB 00H ; boost::detail::integer_traits_base<bool,0,1>::const_min
CONST	ENDS
;	COMDAT ?is_integral@?$integer_traits_base@_N$0A@$00@detail@boost@@2_NB
CONST	SEGMENT
?is_integral@?$integer_traits_base@_N$0A@$00@detail@boost@@2_NB DB 01H ; boost::detail::integer_traits_base<bool,0,1>::is_integral
CONST	ENDS
;	COMDAT ?value@?$bool_@$0A@@mpl@boost@@2_NB
CONST	SEGMENT
?value@?$bool_@$0A@@mpl@boost@@2_NB DB 00H		; boost::mpl::bool_<0>::value
CONST	ENDS
;	COMDAT ?value@?$bool_@$00@mpl@boost@@2_NB
CONST	SEGMENT
?value@?$bool_@$00@mpl@boost@@2_NB DB 01H		; boost::mpl::bool_<1>::value
CONST	ENDS
;	COMDAT ?value@integral_c_tag@mpl@boost@@2HB
CONST	SEGMENT
?value@integral_c_tag@mpl@boost@@2HB DD 00H		; boost::mpl::integral_c_tag::value
CONST	ENDS
;	COMDAT ?end@?$_Iosb@H@std@@2W4_Seekdir@12@B
CONST	SEGMENT
?end@?$_Iosb@H@std@@2W4_Seekdir@12@B DD 02H		; std::_Iosb<int>::end
CONST	ENDS
;	COMDAT ?cur@?$_Iosb@H@std@@2W4_Seekdir@12@B
CONST	SEGMENT
?cur@?$_Iosb@H@std@@2W4_Seekdir@12@B DD 01H		; std::_Iosb<int>::cur
CONST	ENDS
;	COMDAT ?beg@?$_Iosb@H@std@@2W4_Seekdir@12@B
CONST	SEGMENT
?beg@?$_Iosb@H@std@@2W4_Seekdir@12@B DD 00H		; std::_Iosb<int>::beg
CONST	ENDS
;	COMDAT ?binary@?$_Iosb@H@std@@2W4_Openmode@12@B
CONST	SEGMENT
?binary@?$_Iosb@H@std@@2W4_Openmode@12@B DD 020H	; std::_Iosb<int>::binary
CONST	ENDS
;	COMDAT ?_Noreplace@?$_Iosb@H@std@@2W4_Openmode@12@B
CONST	SEGMENT
?_Noreplace@?$_Iosb@H@std@@2W4_Openmode@12@B DD 080H	; std::_Iosb<int>::_Noreplace
CONST	ENDS
;	COMDAT ?_Nocreate@?$_Iosb@H@std@@2W4_Openmode@12@B
CONST	SEGMENT
?_Nocreate@?$_Iosb@H@std@@2W4_Openmode@12@B DD 040H	; std::_Iosb<int>::_Nocreate
CONST	ENDS
;	COMDAT ?trunc@?$_Iosb@H@std@@2W4_Openmode@12@B
CONST	SEGMENT
?trunc@?$_Iosb@H@std@@2W4_Openmode@12@B DD 010H		; std::_Iosb<int>::trunc
CONST	ENDS
;	COMDAT ?app@?$_Iosb@H@std@@2W4_Openmode@12@B
CONST	SEGMENT
?app@?$_Iosb@H@std@@2W4_Openmode@12@B DD 08H		; std::_Iosb<int>::app
CONST	ENDS
;	COMDAT ?ate@?$_Iosb@H@std@@2W4_Openmode@12@B
CONST	SEGMENT
?ate@?$_Iosb@H@std@@2W4_Openmode@12@B DD 04H		; std::_Iosb<int>::ate
CONST	ENDS
;	COMDAT ?out@?$_Iosb@H@std@@2W4_Openmode@12@B
CONST	SEGMENT
?out@?$_Iosb@H@std@@2W4_Openmode@12@B DD 02H		; std::_Iosb<int>::out
CONST	ENDS
;	COMDAT ?in@?$_Iosb@H@std@@2W4_Openmode@12@B
CONST	SEGMENT
?in@?$_Iosb@H@std@@2W4_Openmode@12@B DD 01H		; std::_Iosb<int>::in
CONST	ENDS
;	COMDAT ?_Hardfail@?$_Iosb@H@std@@2W4_Iostate@12@B
CONST	SEGMENT
?_Hardfail@?$_Iosb@H@std@@2W4_Iostate@12@B DD 010H	; std::_Iosb<int>::_Hardfail
CONST	ENDS
;	COMDAT ?badbit@?$_Iosb@H@std@@2W4_Iostate@12@B
CONST	SEGMENT
?badbit@?$_Iosb@H@std@@2W4_Iostate@12@B DD 04H		; std::_Iosb<int>::badbit
CONST	ENDS
;	COMDAT ?failbit@?$_Iosb@H@std@@2W4_Iostate@12@B
CONST	SEGMENT
?failbit@?$_Iosb@H@std@@2W4_Iostate@12@B DD 02H		; std::_Iosb<int>::failbit
CONST	ENDS
;	COMDAT ?eofbit@?$_Iosb@H@std@@2W4_Iostate@12@B
CONST	SEGMENT
?eofbit@?$_Iosb@H@std@@2W4_Iostate@12@B DD 01H		; std::_Iosb<int>::eofbit
CONST	ENDS
;	COMDAT ?goodbit@?$_Iosb@H@std@@2W4_Iostate@12@B
CONST	SEGMENT
?goodbit@?$_Iosb@H@std@@2W4_Iostate@12@B DD 00H		; std::_Iosb<int>::goodbit
CONST	ENDS
;	COMDAT ?floatfield@?$_Iosb@H@std@@2W4_Fmtflags@12@B
CONST	SEGMENT
?floatfield@?$_Iosb@H@std@@2W4_Fmtflags@12@B DD 03000H	; std::_Iosb<int>::floatfield
CONST	ENDS
;	COMDAT ?basefield@?$_Iosb@H@std@@2W4_Fmtflags@12@B
CONST	SEGMENT
?basefield@?$_Iosb@H@std@@2W4_Fmtflags@12@B DD 0e00H	; std::_Iosb<int>::basefield
CONST	ENDS
;	COMDAT ?adjustfield@?$_Iosb@H@std@@2W4_Fmtflags@12@B
CONST	SEGMENT
?adjustfield@?$_Iosb@H@std@@2W4_Fmtflags@12@B DD 01c0H	; std::_Iosb<int>::adjustfield
CONST	ENDS
;	COMDAT ?_Stdio@?$_Iosb@H@std@@2W4_Fmtflags@12@B
CONST	SEGMENT
?_Stdio@?$_Iosb@H@std@@2W4_Fmtflags@12@B DD 08000H	; std::_Iosb<int>::_Stdio
CONST	ENDS
;	COMDAT ?boolalpha@?$_Iosb@H@std@@2W4_Fmtflags@12@B
CONST	SEGMENT
?boolalpha@?$_Iosb@H@std@@2W4_Fmtflags@12@B DD 04000H	; std::_Iosb<int>::boolalpha
CONST	ENDS
;	COMDAT ?hexfloat@?$_Iosb@H@std@@2W4_Fmtflags@12@B
CONST	SEGMENT
?hexfloat@?$_Iosb@H@std@@2W4_Fmtflags@12@B DD 03000H	; std::_Iosb<int>::hexfloat
CONST	ENDS
;	COMDAT ?fixed@?$_Iosb@H@std@@2W4_Fmtflags@12@B
CONST	SEGMENT
?fixed@?$_Iosb@H@std@@2W4_Fmtflags@12@B DD 02000H	; std::_Iosb<int>::fixed
CONST	ENDS
;	COMDAT ?scientific@?$_Iosb@H@std@@2W4_Fmtflags@12@B
CONST	SEGMENT
?scientific@?$_Iosb@H@std@@2W4_Fmtflags@12@B DD 01000H	; std::_Iosb<int>::scientific
CONST	ENDS
;	COMDAT ?hex@?$_Iosb@H@std@@2W4_Fmtflags@12@B
CONST	SEGMENT
?hex@?$_Iosb@H@std@@2W4_Fmtflags@12@B DD 0800H		; std::_Iosb<int>::hex
CONST	ENDS
;	COMDAT ?oct@?$_Iosb@H@std@@2W4_Fmtflags@12@B
CONST	SEGMENT
?oct@?$_Iosb@H@std@@2W4_Fmtflags@12@B DD 0400H		; std::_Iosb<int>::oct
CONST	ENDS
;	COMDAT ?dec@?$_Iosb@H@std@@2W4_Fmtflags@12@B
CONST	SEGMENT
?dec@?$_Iosb@H@std@@2W4_Fmtflags@12@B DD 0200H		; std::_Iosb<int>::dec
CONST	ENDS
;	COMDAT ?internal@?$_Iosb@H@std@@2W4_Fmtflags@12@B
CONST	SEGMENT
?internal@?$_Iosb@H@std@@2W4_Fmtflags@12@B DD 0100H	; std::_Iosb<int>::internal
CONST	ENDS
;	COMDAT ?right@?$_Iosb@H@std@@2W4_Fmtflags@12@B
CONST	SEGMENT
?right@?$_Iosb@H@std@@2W4_Fmtflags@12@B DD 080H		; std::_Iosb<int>::right
CONST	ENDS
;	COMDAT ?left@?$_Iosb@H@std@@2W4_Fmtflags@12@B
CONST	SEGMENT
?left@?$_Iosb@H@std@@2W4_Fmtflags@12@B DD 040H		; std::_Iosb<int>::left
CONST	ENDS
;	COMDAT ?showpos@?$_Iosb@H@std@@2W4_Fmtflags@12@B
CONST	SEGMENT
?showpos@?$_Iosb@H@std@@2W4_Fmtflags@12@B DD 020H	; std::_Iosb<int>::showpos
CONST	ENDS
;	COMDAT ?showpoint@?$_Iosb@H@std@@2W4_Fmtflags@12@B
CONST	SEGMENT
?showpoint@?$_Iosb@H@std@@2W4_Fmtflags@12@B DD 010H	; std::_Iosb<int>::showpoint
CONST	ENDS
;	COMDAT ?showbase@?$_Iosb@H@std@@2W4_Fmtflags@12@B
CONST	SEGMENT
?showbase@?$_Iosb@H@std@@2W4_Fmtflags@12@B DD 08H	; std::_Iosb<int>::showbase
CONST	ENDS
;	COMDAT ?uppercase@?$_Iosb@H@std@@2W4_Fmtflags@12@B
CONST	SEGMENT
?uppercase@?$_Iosb@H@std@@2W4_Fmtflags@12@B DD 04H	; std::_Iosb<int>::uppercase
CONST	ENDS
;	COMDAT ?unitbuf@?$_Iosb@H@std@@2W4_Fmtflags@12@B
CONST	SEGMENT
?unitbuf@?$_Iosb@H@std@@2W4_Fmtflags@12@B DD 02H	; std::_Iosb<int>::unitbuf
CONST	ENDS
;	COMDAT ?skipws@?$_Iosb@H@std@@2W4_Fmtflags@12@B
CONST	SEGMENT
?skipws@?$_Iosb@H@std@@2W4_Fmtflags@12@B DD 01H		; std::_Iosb<int>::skipws
CONST	ENDS
;	COMDAT ?none@?$_Locbase@H@std@@2HB
CONST	SEGMENT
?none@?$_Locbase@H@std@@2HB DD 00H			; std::_Locbase<int>::none
CONST	ENDS
;	COMDAT ?all@?$_Locbase@H@std@@2HB
CONST	SEGMENT
?all@?$_Locbase@H@std@@2HB DD 03fH			; std::_Locbase<int>::all
CONST	ENDS
;	COMDAT ?messages@?$_Locbase@H@std@@2HB
CONST	SEGMENT
?messages@?$_Locbase@H@std@@2HB DD 020H			; std::_Locbase<int>::messages
CONST	ENDS
;	COMDAT ?time@?$_Locbase@H@std@@2HB
CONST	SEGMENT
?time@?$_Locbase@H@std@@2HB DD 010H			; std::_Locbase<int>::time
CONST	ENDS
;	COMDAT ?numeric@?$_Locbase@H@std@@2HB
CONST	SEGMENT
?numeric@?$_Locbase@H@std@@2HB DD 08H			; std::_Locbase<int>::numeric
CONST	ENDS
;	COMDAT ?monetary@?$_Locbase@H@std@@2HB
CONST	SEGMENT
?monetary@?$_Locbase@H@std@@2HB DD 04H			; std::_Locbase<int>::monetary
CONST	ENDS
;	COMDAT ?ctype@?$_Locbase@H@std@@2HB
CONST	SEGMENT
?ctype@?$_Locbase@H@std@@2HB DD 02H			; std::_Locbase<int>::ctype
CONST	ENDS
;	COMDAT ?collate@?$_Locbase@H@std@@2HB
CONST	SEGMENT
?collate@?$_Locbase@H@std@@2HB DD 01H			; std::_Locbase<int>::collate
CONST	ENDS
;	COMDAT ?_Value@?$_Is_swap_move@U_Swap_move_tag@std@@@std@@2_NB
CONST	SEGMENT
?_Value@?$_Is_swap_move@U_Swap_move_tag@std@@@std@@2_NB DB 01H ; std::_Is_swap_move<std::_Swap_move_tag>::_Value
CONST	ENDS
_DATA	SEGMENT
__bad_alloc_Message DD FLAT:??_C@_0P@GHFPNOJB@bad?5allocation?$AA@
_DATA	ENDS
;	COMDAT ??_C@_0P@GHFPNOJB@bad?5allocation?$AA@
CONST	SEGMENT
??_C@_0P@GHFPNOJB@bad?5allocation?$AA@ DB 'bad allocation', 00H ; `string'
CONST	ENDS
PUBLIC	??1Settings@DRAMsimII@@QAE@XZ			; DRAMsimII::Settings::~Settings
PUBLIC	??1System@DRAMsimII@@QAE@XZ			; DRAMsimII::System::~System
PUBLIC	__$ArrayPad$
PUBLIC	_main
EXTRN	?runSimulations@System@DRAMsimII@@QAEXI@Z:PROC	; DRAMsimII::System::runSimulations
EXTRN	??0System@DRAMsimII@@QAE@ABVSettings@1@@Z:PROC	; DRAMsimII::System::System
EXTRN	??0Settings@DRAMsimII@@QAE@HPAPAD@Z:PROC	; DRAMsimII::Settings::Settings
EXTRN	___security_cookie:DWORD
EXTRN	___CxxFrameHandler3:PROC
EXTRN	__RTC_CheckEsp:PROC
EXTRN	@__security_check_cookie@4:PROC
EXTRN	@_RTC_CheckStackVars@8:PROC
EXTRN	__chkstk:PROC
EXTRN	__RTC_Shutdown:PROC
EXTRN	__RTC_InitBase:PROC
;	COMDAT xdata$x
; File c:\users\crius\documents\visual studio 2008\projects\dramsimiihg\src\main.cpp
xdata$x	SEGMENT
__unwindtable$_main DD 0ffffffffH
	DD	FLAT:__unwindfunclet$_main$0
	DD	00H
	DD	FLAT:__unwindfunclet$_main$1
__ehfuncinfo$_main DD 019930522H
	DD	02H
	DD	FLAT:__unwindtable$_main
	DD	2 DUP(00H)
	DD	2 DUP(00H)
	DD	00H
	DD	01H
xdata$x	ENDS
;	COMDAT rtc$TMZ
rtc$TMZ	SEGMENT
__RTC_Shutdown.rtc$TMZ DD FLAT:__RTC_Shutdown
rtc$TMZ	ENDS
;	COMDAT rtc$IMZ
rtc$IMZ	SEGMENT
__RTC_InitBase.rtc$IMZ DD FLAT:__RTC_InitBase
; Function compile flags: /Odtp /RTCcsu /ZI
rtc$IMZ	ENDS
;	COMDAT _main
_TEXT	SEGMENT
$T169148 = -12192					; size = 4
_ds$145584 = -11988					; size = 11464
_settings$ = -516					; size = 496
__$ArrayPad$ = -16					; size = 4
__$EHRec$ = -12						; size = 12
_argc$ = 8						; size = 4
_argv$ = 12						; size = 4
_envp$ = 16						; size = 4
_main	PROC						; COMDAT

; 32   : {	

	push	ebp
	mov	ebp, esp
	push	-1
	push	__ehhandler$_main
	mov	eax, DWORD PTR fs:0
	push	eax
	mov	eax, 12184				; 00002f98H
	call	__chkstk
	push	ebx
	push	esi
	push	edi
	lea	edi, DWORD PTR [ebp-12196]
	mov	ecx, 3046				; 00000be6H
	mov	eax, -858993460				; ccccccccH
	rep stosd
	mov	eax, DWORD PTR ___security_cookie
	xor	eax, ebp
	mov	DWORD PTR __$ArrayPad$[ebp], eax
	push	eax
	lea	eax, DWORD PTR __$EHRec$[ebp]
	mov	DWORD PTR fs:0, eax

; 33   : 	const Settings settings(argc, argv);	

	mov	eax, DWORD PTR _argv$[ebp]
	push	eax
	mov	ecx, DWORD PTR _argc$[ebp]
	push	ecx
	lea	ecx, DWORD PTR _settings$[ebp]
	call	??0Settings@DRAMsimII@@QAE@HPAPAD@Z	; DRAMsimII::Settings::Settings
	mov	DWORD PTR __$EHRec$[ebp+8], 0

; 34   : 
; 35   : #ifdef DEBUG
; 36   : 	//cerr << TICK_MAX << endl;
; 37   : 	//cerr << PHYSICAL_ADDRESS_MAX << endl;
; 38   : 	//DRAMsimII::unitTests(settings);
; 39   : #endif
; 40   : 	if (settings.systemType == FBD_CONFIG)

	cmp	DWORD PTR _settings$[ebp+240], 1
	jne	SHORT $LN2@main

; 41   : 	{
; 42   : 		//fbdSystem fbds(settings);
; 43   : 		//fbds.runSimulations();
; 44   : 	}
; 45   : 	else

	jmp	SHORT $LN1@main
$LN2@main:

; 46   : 	{
; 47   : 		System ds(settings);

	lea	eax, DWORD PTR _settings$[ebp]
	push	eax
	lea	ecx, DWORD PTR _ds$145584[ebp]
	call	??0System@DRAMsimII@@QAE@ABVSettings@1@@Z ; DRAMsimII::System::System
	mov	BYTE PTR __$EHRec$[ebp+8], 1

; 48   : 		ds.runSimulations();

	push	0
	lea	ecx, DWORD PTR _ds$145584[ebp]
	call	?runSimulations@System@DRAMsimII@@QAEXI@Z ; DRAMsimII::System::runSimulations

; 49   : 	}

	mov	BYTE PTR __$EHRec$[ebp+8], 0
	lea	ecx, DWORD PTR _ds$145584[ebp]
	call	??1System@DRAMsimII@@QAE@XZ
$LN1@main:

; 50   : 
; 51   : 
; 52   : 	//cerr << ds.timing_specification;
; 53   : 	//cerr << (dram_statistics) ds;
; 54   : 	//_CrtDumpMemoryLeaks();
; 55   : 	return 0;

	mov	DWORD PTR $T169148[ebp], 0
	mov	DWORD PTR __$EHRec$[ebp+8], -1
	lea	ecx, DWORD PTR _settings$[ebp]
	call	??1Settings@DRAMsimII@@QAE@XZ
	mov	eax, DWORD PTR $T169148[ebp]

; 56   : }

	push	edx
	mov	ecx, ebp
	push	eax
	lea	edx, DWORD PTR $LN11@main
	call	@_RTC_CheckStackVars@8
	pop	eax
	pop	edx
	mov	ecx, DWORD PTR __$EHRec$[ebp]
	mov	DWORD PTR fs:0, ecx
	pop	ecx
	pop	edi
	pop	esi
	pop	ebx
	mov	ecx, DWORD PTR __$ArrayPad$[ebp]
	xor	ecx, ebp
	call	@__security_check_cookie@4
	add	esp, 12196				; 00002fa4H
	cmp	ebp, esp
	call	__RTC_CheckEsp
	mov	esp, ebp
	pop	ebp
	ret	0
	npad	1
$LN11@main:
	DD	2
	DD	$LN10@main
$LN10@main:
	DD	-516					; fffffdfcH
	DD	496					; 000001f0H
	DD	$LN7@main
	DD	-11988					; ffffd12cH
	DD	11464					; 00002cc8H
	DD	$LN8@main
$LN8@main:
	DB	100					; 00000064H
	DB	115					; 00000073H
	DB	0
$LN7@main:
	DB	115					; 00000073H
	DB	101					; 00000065H
	DB	116					; 00000074H
	DB	116					; 00000074H
	DB	105					; 00000069H
	DB	110					; 0000006eH
	DB	103					; 00000067H
	DB	115					; 00000073H
	DB	0
_TEXT	ENDS
;	COMDAT text$x
text$x	SEGMENT
__unwindfunclet$_main$0:
	lea	ecx, DWORD PTR _settings$[ebp]
	jmp	??1Settings@DRAMsimII@@QAE@XZ
__unwindfunclet$_main$1:
	lea	ecx, DWORD PTR _ds$145584[ebp]
	jmp	??1System@DRAMsimII@@QAE@XZ
__ehhandler$_main:
	mov	edx, DWORD PTR [esp+8]
	lea	eax, DWORD PTR [edx+12]
	mov	ecx, DWORD PTR [edx-12200]
	xor	ecx, eax
	call	@__security_check_cookie@4
	mov	ecx, DWORD PTR [edx-4]
	xor	ecx, eax
	call	@__security_check_cookie@4
	mov	eax, OFFSET __ehfuncinfo$_main
	jmp	___CxxFrameHandler3
text$x	ENDS
_main	ENDP
EXTRN	__imp_??1?$basic_string@DU?$char_traits@D@std@@V?$allocator@D@2@@std@@QAE@XZ:PROC
;	COMDAT xdata$x
xdata$x	SEGMENT
__ehfuncinfo$??1Settings@DRAMsimII@@QAE@XZ DD 019930522H
	DD	05H
	DD	FLAT:__unwindtable$??1Settings@DRAMsimII@@QAE@XZ
	DD	2 DUP(00H)
	DD	2 DUP(00H)
	DD	00H
	DD	01H
__unwindtable$??1Settings@DRAMsimII@@QAE@XZ DD 0ffffffffH
	DD	FLAT:__unwindfunclet$??1Settings@DRAMsimII@@QAE@XZ$0
	DD	00H
	DD	FLAT:__unwindfunclet$??1Settings@DRAMsimII@@QAE@XZ$1
	DD	01H
	DD	FLAT:__unwindfunclet$??1Settings@DRAMsimII@@QAE@XZ$2
	DD	02H
	DD	FLAT:__unwindfunclet$??1Settings@DRAMsimII@@QAE@XZ$3
	DD	03H
	DD	FLAT:__unwindfunclet$??1Settings@DRAMsimII@@QAE@XZ$4
; Function compile flags: /Odtp /RTCcsu /ZI
xdata$x	ENDS
;	COMDAT ??1Settings@DRAMsimII@@QAE@XZ
_TEXT	SEGMENT
_this$ = -20						; size = 4
__$EHRec$ = -12						; size = 12
??1Settings@DRAMsimII@@QAE@XZ PROC			; DRAMsimII::Settings::~Settings, COMDAT
; _this$ = ecx
	push	ebp
	mov	ebp, esp
	push	-1
	push	__ehhandler$??1Settings@DRAMsimII@@QAE@XZ
	mov	eax, DWORD PTR fs:0
	push	eax
	sub	esp, 204				; 000000ccH
	push	ebx
	push	esi
	push	edi
	push	ecx
	lea	edi, DWORD PTR [ebp-216]
	mov	ecx, 51					; 00000033H
	mov	eax, -858993460				; ccccccccH
	rep stosd
	pop	ecx
	mov	eax, DWORD PTR ___security_cookie
	xor	eax, ebp
	push	eax
	lea	eax, DWORD PTR __$EHRec$[ebp]
	mov	DWORD PTR fs:0, eax
	mov	DWORD PTR _this$[ebp], ecx
	mov	DWORD PTR __$EHRec$[ebp+8], 4
	mov	ecx, DWORD PTR _this$[ebp]
	add	ecx, 172				; 000000acH
	mov	esi, esp
	call	DWORD PTR __imp_??1?$basic_string@DU?$char_traits@D@std@@V?$allocator@D@2@@std@@QAE@XZ
	cmp	esi, esp
	call	__RTC_CheckEsp
	mov	BYTE PTR __$EHRec$[ebp+8], 3
	mov	ecx, DWORD PTR _this$[ebp]
	add	ecx, 140				; 0000008cH
	mov	esi, esp
	call	DWORD PTR __imp_??1?$basic_string@DU?$char_traits@D@std@@V?$allocator@D@2@@std@@QAE@XZ
	cmp	esi, esp
	call	__RTC_CheckEsp
	mov	BYTE PTR __$EHRec$[ebp+8], 2
	mov	ecx, DWORD PTR _this$[ebp]
	add	ecx, 108				; 0000006cH
	mov	esi, esp
	call	DWORD PTR __imp_??1?$basic_string@DU?$char_traits@D@std@@V?$allocator@D@2@@std@@QAE@XZ
	cmp	esi, esp
	call	__RTC_CheckEsp
	mov	BYTE PTR __$EHRec$[ebp+8], 1
	mov	ecx, DWORD PTR _this$[ebp]
	add	ecx, 68					; 00000044H
	mov	esi, esp
	call	DWORD PTR __imp_??1?$basic_string@DU?$char_traits@D@std@@V?$allocator@D@2@@std@@QAE@XZ
	cmp	esi, esp
	call	__RTC_CheckEsp
	mov	BYTE PTR __$EHRec$[ebp+8], 0
	mov	ecx, DWORD PTR _this$[ebp]
	add	ecx, 36					; 00000024H
	mov	esi, esp
	call	DWORD PTR __imp_??1?$basic_string@DU?$char_traits@D@std@@V?$allocator@D@2@@std@@QAE@XZ
	cmp	esi, esp
	call	__RTC_CheckEsp
	mov	DWORD PTR __$EHRec$[ebp+8], -1
	mov	esi, esp
	mov	ecx, DWORD PTR _this$[ebp]
	call	DWORD PTR __imp_??1?$basic_string@DU?$char_traits@D@std@@V?$allocator@D@2@@std@@QAE@XZ
	cmp	esi, esp
	call	__RTC_CheckEsp
	mov	ecx, DWORD PTR __$EHRec$[ebp]
	mov	DWORD PTR fs:0, ecx
	pop	ecx
	pop	edi
	pop	esi
	pop	ebx
	add	esp, 216				; 000000d8H
	cmp	ebp, esp
	call	__RTC_CheckEsp
	mov	esp, ebp
	pop	ebp
	ret	0
_TEXT	ENDS
;	COMDAT text$x
text$x	SEGMENT
__unwindfunclet$??1Settings@DRAMsimII@@QAE@XZ$0:
	mov	esi, esp
	mov	ecx, DWORD PTR _this$[ebp]
	call	DWORD PTR __imp_??1?$basic_string@DU?$char_traits@D@std@@V?$allocator@D@2@@std@@QAE@XZ
	cmp	esi, esp
	jmp	__RTC_CheckEsp
__unwindfunclet$??1Settings@DRAMsimII@@QAE@XZ$1:
	mov	ecx, DWORD PTR _this$[ebp]
	add	ecx, 36					; 00000024H
	mov	esi, esp
	call	DWORD PTR __imp_??1?$basic_string@DU?$char_traits@D@std@@V?$allocator@D@2@@std@@QAE@XZ
	cmp	esi, esp
	jmp	__RTC_CheckEsp
__unwindfunclet$??1Settings@DRAMsimII@@QAE@XZ$2:
	mov	ecx, DWORD PTR _this$[ebp]
	add	ecx, 68					; 00000044H
	mov	esi, esp
	call	DWORD PTR __imp_??1?$basic_string@DU?$char_traits@D@std@@V?$allocator@D@2@@std@@QAE@XZ
	cmp	esi, esp
	jmp	__RTC_CheckEsp
__unwindfunclet$??1Settings@DRAMsimII@@QAE@XZ$3:
	mov	ecx, DWORD PTR _this$[ebp]
	add	ecx, 108				; 0000006cH
	mov	esi, esp
	call	DWORD PTR __imp_??1?$basic_string@DU?$char_traits@D@std@@V?$allocator@D@2@@std@@QAE@XZ
	cmp	esi, esp
	jmp	__RTC_CheckEsp
__unwindfunclet$??1Settings@DRAMsimII@@QAE@XZ$4:
	mov	ecx, DWORD PTR _this$[ebp]
	add	ecx, 140				; 0000008cH
	mov	esi, esp
	call	DWORD PTR __imp_??1?$basic_string@DU?$char_traits@D@std@@V?$allocator@D@2@@std@@QAE@XZ
	cmp	esi, esp
	jmp	__RTC_CheckEsp
__ehhandler$??1Settings@DRAMsimII@@QAE@XZ:
	mov	edx, DWORD PTR [esp+8]
	lea	eax, DWORD PTR [edx+12]
	mov	ecx, DWORD PTR [edx-220]
	xor	ecx, eax
	call	@__security_check_cookie@4
	mov	eax, OFFSET __ehfuncinfo$??1Settings@DRAMsimII@@QAE@XZ
	jmp	___CxxFrameHandler3
text$x	ENDS
??1Settings@DRAMsimII@@QAE@XZ ENDP			; DRAMsimII::Settings::~Settings
PUBLIC	??1Statistics@DRAMsimII@@QAE@XZ			; DRAMsimII::Statistics::~Statistics
PUBLIC	??1?$vector@VChannel@DRAMsimII@@V?$allocator@VChannel@DRAMsimII@@@std@@@std@@QAE@XZ ; std::vector<DRAMsimII::Channel,std::allocator<DRAMsimII::Channel> >::~vector<DRAMsimII::Channel,std::allocator<DRAMsimII::Channel> >
EXTRN	??1SystemConfiguration@DRAMsimII@@QAE@XZ:PROC	; DRAMsimII::SystemConfiguration::~SystemConfiguration
EXTRN	??1InputStream@DRAMsimII@@QAE@XZ:PROC		; DRAMsimII::InputStream::~InputStream
;	COMDAT xdata$x
xdata$x	SEGMENT
__unwindtable$??1System@DRAMsimII@@QAE@XZ DD 0ffffffffH
	DD	FLAT:__unwindfunclet$??1System@DRAMsimII@@QAE@XZ$0
	DD	00H
	DD	FLAT:__unwindfunclet$??1System@DRAMsimII@@QAE@XZ$1
	DD	01H
	DD	FLAT:__unwindfunclet$??1System@DRAMsimII@@QAE@XZ$2
__ehfuncinfo$??1System@DRAMsimII@@QAE@XZ DD 019930522H
	DD	03H
	DD	FLAT:__unwindtable$??1System@DRAMsimII@@QAE@XZ
	DD	2 DUP(00H)
	DD	2 DUP(00H)
	DD	00H
	DD	01H
; Function compile flags: /Odtp /RTCcsu /ZI
xdata$x	ENDS
;	COMDAT ??1System@DRAMsimII@@QAE@XZ
_TEXT	SEGMENT
_this$ = -20						; size = 4
__$EHRec$ = -12						; size = 12
??1System@DRAMsimII@@QAE@XZ PROC			; DRAMsimII::System::~System, COMDAT
; _this$ = ecx
	push	ebp
	mov	ebp, esp
	push	-1
	push	__ehhandler$??1System@DRAMsimII@@QAE@XZ
	mov	eax, DWORD PTR fs:0
	push	eax
	sub	esp, 204				; 000000ccH
	push	ebx
	push	esi
	push	edi
	push	ecx
	lea	edi, DWORD PTR [ebp-216]
	mov	ecx, 51					; 00000033H
	mov	eax, -858993460				; ccccccccH
	rep stosd
	pop	ecx
	mov	eax, DWORD PTR ___security_cookie
	xor	eax, ebp
	push	eax
	lea	eax, DWORD PTR __$EHRec$[ebp]
	mov	DWORD PTR fs:0, eax
	mov	DWORD PTR _this$[ebp], ecx
	mov	DWORD PTR __$EHRec$[ebp+8], 2
	mov	ecx, DWORD PTR _this$[ebp]
	add	ecx, 1096				; 00000448H
	call	??1InputStream@DRAMsimII@@QAE@XZ	; DRAMsimII::InputStream::~InputStream
	mov	BYTE PTR __$EHRec$[ebp+8], 1
	mov	ecx, DWORD PTR _this$[ebp]
	add	ecx, 1076				; 00000434H
	call	??1?$vector@VChannel@DRAMsimII@@V?$allocator@VChannel@DRAMsimII@@@std@@@std@@QAE@XZ ; std::vector<DRAMsimII::Channel,std::allocator<DRAMsimII::Channel> >::~vector<DRAMsimII::Channel,std::allocator<DRAMsimII::Channel> >
	mov	BYTE PTR __$EHRec$[ebp+8], 0
	mov	ecx, DWORD PTR _this$[ebp]
	add	ecx, 592				; 00000250H
	call	??1Statistics@DRAMsimII@@QAE@XZ
	mov	DWORD PTR __$EHRec$[ebp+8], -1
	mov	ecx, DWORD PTR _this$[ebp]
	add	ecx, 8
	call	??1SystemConfiguration@DRAMsimII@@QAE@XZ ; DRAMsimII::SystemConfiguration::~SystemConfiguration
	mov	ecx, DWORD PTR __$EHRec$[ebp]
	mov	DWORD PTR fs:0, ecx
	pop	ecx
	pop	edi
	pop	esi
	pop	ebx
	add	esp, 216				; 000000d8H
	cmp	ebp, esp
	call	__RTC_CheckEsp
	mov	esp, ebp
	pop	ebp
	ret	0
_TEXT	ENDS
;	COMDAT text$x
text$x	SEGMENT
__unwindfunclet$??1System@DRAMsimII@@QAE@XZ$0:
	mov	ecx, DWORD PTR _this$[ebp]
	add	ecx, 8
	jmp	??1SystemConfiguration@DRAMsimII@@QAE@XZ ; DRAMsimII::SystemConfiguration::~SystemConfiguration
__unwindfunclet$??1System@DRAMsimII@@QAE@XZ$1:
	mov	ecx, DWORD PTR _this$[ebp]
	add	ecx, 592				; 00000250H
	jmp	??1Statistics@DRAMsimII@@QAE@XZ
__unwindfunclet$??1System@DRAMsimII@@QAE@XZ$2:
	mov	ecx, DWORD PTR _this$[ebp]
	add	ecx, 1076				; 00000434H
	jmp	??1?$vector@VChannel@DRAMsimII@@V?$allocator@VChannel@DRAMsimII@@@std@@@std@@QAE@XZ ; std::vector<DRAMsimII::Channel,std::allocator<DRAMsimII::Channel> >::~vector<DRAMsimII::Channel,std::allocator<DRAMsimII::Channel> >
__ehhandler$??1System@DRAMsimII@@QAE@XZ:
	mov	edx, DWORD PTR [esp+8]
	lea	eax, DWORD PTR [edx+12]
	mov	ecx, DWORD PTR [edx-220]
	xor	ecx, eax
	call	@__security_check_cookie@4
	mov	eax, OFFSET __ehfuncinfo$??1System@DRAMsimII@@QAE@XZ
	jmp	___CxxFrameHandler3
text$x	ENDS
??1System@DRAMsimII@@QAE@XZ ENDP			; DRAMsimII::System::~System
PUBLIC	??1?$unordered_map@IIV?$hash@I@tr1@std@@U?$equal_to@I@3@V?$allocator@U?$pair@$$CBII@std@@@3@@tr1@std@@QAE@XZ ; std::tr1::unordered_map<unsigned int,unsigned int,std::tr1::hash<unsigned int>,std::equal_to<unsigned int>,std::allocator<std::pair<unsigned int const ,unsigned int> > >::~unordered_map<unsigned int,unsigned int,std::tr1::hash<unsigned int>,std::equal_to<unsigned int>,std::allocator<std::pair<unsigned int const ,unsigned int> > >
PUBLIC	??1?$map@_KVDelayCounter@Statistics@DRAMsimII@@U?$less@_K@std@@V?$allocator@U?$pair@$$CB_KVDelayCounter@Statistics@DRAMsimII@@@std@@@5@@std@@QAE@XZ ; std::map<unsigned __int64,DRAMsimII::Statistics::DelayCounter,std::less<unsigned __int64>,std::allocator<std::pair<unsigned __int64 const ,DRAMsimII::Statistics::DelayCounter> > >::~map<unsigned __int64,DRAMsimII::Statistics::DelayCounter,std::less<unsigned __int64>,std::allocator<std::pair<unsigned __int64 const ,DRAMsimII::Statistics::DelayCounter> > >
PUBLIC	??1?$map@_KIU?$less@_K@std@@V?$allocator@U?$pair@$$CB_KI@std@@@2@@std@@QAE@XZ ; std::map<unsigned __int64,unsigned int,std::less<unsigned __int64>,std::allocator<std::pair<unsigned __int64 const ,unsigned int> > >::~map<unsigned __int64,unsigned int,std::less<unsigned __int64>,std::allocator<std::pair<unsigned __int64 const ,unsigned int> > >
PUBLIC	??1?$vector@IV?$allocator@I@std@@@std@@QAE@XZ	; std::vector<unsigned int,std::allocator<unsigned int> >::~vector<unsigned int,std::allocator<unsigned int> >
PUBLIC	??1?$vector@_JV?$allocator@_J@std@@@std@@QAE@XZ	; std::vector<__int64,std::allocator<__int64> >::~vector<__int64,std::allocator<__int64> >
;	COMDAT xdata$x
xdata$x	SEGMENT
__ehfuncinfo$??1Statistics@DRAMsimII@@QAE@XZ DD 019930522H
	DD	08H
	DD	FLAT:__unwindtable$??1Statistics@DRAMsimII@@QAE@XZ
	DD	2 DUP(00H)
	DD	2 DUP(00H)
	DD	00H
	DD	01H
__unwindtable$??1Statistics@DRAMsimII@@QAE@XZ DD 0ffffffffH
	DD	FLAT:__unwindfunclet$??1Statistics@DRAMsimII@@QAE@XZ$0
	DD	00H
	DD	FLAT:__unwindfunclet$??1Statistics@DRAMsimII@@QAE@XZ$1
	DD	01H
	DD	FLAT:__unwindfunclet$??1Statistics@DRAMsimII@@QAE@XZ$2
	DD	02H
	DD	FLAT:__unwindfunclet$??1Statistics@DRAMsimII@@QAE@XZ$3
	DD	03H
	DD	FLAT:__unwindfunclet$??1Statistics@DRAMsimII@@QAE@XZ$4
	DD	04H
	DD	FLAT:__unwindfunclet$??1Statistics@DRAMsimII@@QAE@XZ$5
	DD	05H
	DD	FLAT:__unwindfunclet$??1Statistics@DRAMsimII@@QAE@XZ$6
	DD	06H
	DD	FLAT:__unwindfunclet$??1Statistics@DRAMsimII@@QAE@XZ$7
; Function compile flags: /Odtp /RTCcsu /ZI
xdata$x	ENDS
;	COMDAT ??1Statistics@DRAMsimII@@QAE@XZ
_TEXT	SEGMENT
_this$ = -20						; size = 4
__$EHRec$ = -12						; size = 12
??1Statistics@DRAMsimII@@QAE@XZ PROC			; DRAMsimII::Statistics::~Statistics, COMDAT
; _this$ = ecx
	push	ebp
	mov	ebp, esp
	push	-1
	push	__ehhandler$??1Statistics@DRAMsimII@@QAE@XZ
	mov	eax, DWORD PTR fs:0
	push	eax
	sub	esp, 204				; 000000ccH
	push	ebx
	push	esi
	push	edi
	push	ecx
	lea	edi, DWORD PTR [ebp-216]
	mov	ecx, 51					; 00000033H
	mov	eax, -858993460				; ccccccccH
	rep stosd
	pop	ecx
	mov	eax, DWORD PTR ___security_cookie
	xor	eax, ebp
	push	eax
	lea	eax, DWORD PTR __$EHRec$[ebp]
	mov	DWORD PTR fs:0, eax
	mov	DWORD PTR _this$[ebp], ecx
	mov	DWORD PTR __$EHRec$[ebp+8], 7
	mov	ecx, DWORD PTR _this$[ebp]
	add	ecx, 464				; 000001d0H
	call	??1?$vector@_JV?$allocator@_J@std@@@std@@QAE@XZ ; std::vector<__int64,std::allocator<__int64> >::~vector<__int64,std::allocator<__int64> >
	mov	BYTE PTR __$EHRec$[ebp+8], 6
	mov	ecx, DWORD PTR _this$[ebp]
	add	ecx, 444				; 000001bcH
	call	??1?$vector@IV?$allocator@I@std@@@std@@QAE@XZ ; std::vector<unsigned int,std::allocator<unsigned int> >::~vector<unsigned int,std::allocator<unsigned int> >
	mov	BYTE PTR __$EHRec$[ebp+8], 5
	mov	ecx, DWORD PTR _this$[ebp]
	add	ecx, 416				; 000001a0H
	call	??1?$map@_KIU?$less@_K@std@@V?$allocator@U?$pair@$$CB_KI@std@@@2@@std@@QAE@XZ
	mov	BYTE PTR __$EHRec$[ebp+8], 4
	mov	ecx, DWORD PTR _this$[ebp]
	add	ecx, 388				; 00000184H
	call	??1?$map@_KVDelayCounter@Statistics@DRAMsimII@@U?$less@_K@std@@V?$allocator@U?$pair@$$CB_KVDelayCounter@Statistics@DRAMsimII@@@std@@@5@@std@@QAE@XZ
	mov	BYTE PTR __$EHRec$[ebp+8], 3
	mov	ecx, DWORD PTR _this$[ebp]
	add	ecx, 324				; 00000144H
	call	??1?$unordered_map@IIV?$hash@I@tr1@std@@U?$equal_to@I@3@V?$allocator@U?$pair@$$CBII@std@@@3@@tr1@std@@QAE@XZ
	mov	BYTE PTR __$EHRec$[ebp+8], 2
	mov	ecx, DWORD PTR _this$[ebp]
	add	ecx, 260				; 00000104H
	call	??1?$unordered_map@IIV?$hash@I@tr1@std@@U?$equal_to@I@3@V?$allocator@U?$pair@$$CBII@std@@@3@@tr1@std@@QAE@XZ
	mov	BYTE PTR __$EHRec$[ebp+8], 1
	mov	ecx, DWORD PTR _this$[ebp]
	add	ecx, 196				; 000000c4H
	call	??1?$unordered_map@IIV?$hash@I@tr1@std@@U?$equal_to@I@3@V?$allocator@U?$pair@$$CBII@std@@@3@@tr1@std@@QAE@XZ
	mov	BYTE PTR __$EHRec$[ebp+8], 0
	mov	ecx, DWORD PTR _this$[ebp]
	add	ecx, 132				; 00000084H
	call	??1?$unordered_map@IIV?$hash@I@tr1@std@@U?$equal_to@I@3@V?$allocator@U?$pair@$$CBII@std@@@3@@tr1@std@@QAE@XZ
	mov	DWORD PTR __$EHRec$[ebp+8], -1
	mov	ecx, DWORD PTR _this$[ebp]
	add	ecx, 68					; 00000044H
	call	??1?$unordered_map@IIV?$hash@I@tr1@std@@U?$equal_to@I@3@V?$allocator@U?$pair@$$CBII@std@@@3@@tr1@std@@QAE@XZ
	mov	ecx, DWORD PTR __$EHRec$[ebp]
	mov	DWORD PTR fs:0, ecx
	pop	ecx
	pop	edi
	pop	esi
	pop	ebx
	add	esp, 216				; 000000d8H
	cmp	ebp, esp
	call	__RTC_CheckEsp
	mov	esp, ebp
	pop	ebp
	ret	0
_TEXT	ENDS
;	COMDAT text$x
text$x	SEGMENT
__unwindfunclet$??1Statistics@DRAMsimII@@QAE@XZ$0:
	mov	ecx, DWORD PTR _this$[ebp]
	add	ecx, 68					; 00000044H
	jmp	??1?$unordered_map@IIV?$hash@I@tr1@std@@U?$equal_to@I@3@V?$allocator@U?$pair@$$CBII@std@@@3@@tr1@std@@QAE@XZ
__unwindfunclet$??1Statistics@DRAMsimII@@QAE@XZ$1:
	mov	ecx, DWORD PTR _this$[ebp]
	add	ecx, 132				; 00000084H
	jmp	??1?$unordered_map@IIV?$hash@I@tr1@std@@U?$equal_to@I@3@V?$allocator@U?$pair@$$CBII@std@@@3@@tr1@std@@QAE@XZ
__unwindfunclet$??1Statistics@DRAMsimII@@QAE@XZ$2:
	mov	ecx, DWORD PTR _this$[ebp]
	add	ecx, 196				; 000000c4H
	jmp	??1?$unordered_map@IIV?$hash@I@tr1@std@@U?$equal_to@I@3@V?$allocator@U?$pair@$$CBII@std@@@3@@tr1@std@@QAE@XZ
__unwindfunclet$??1Statistics@DRAMsimII@@QAE@XZ$3:
	mov	ecx, DWORD PTR _this$[ebp]
	add	ecx, 260				; 00000104H
	jmp	??1?$unordered_map@IIV?$hash@I@tr1@std@@U?$equal_to@I@3@V?$allocator@U?$pair@$$CBII@std@@@3@@tr1@std@@QAE@XZ
__unwindfunclet$??1Statistics@DRAMsimII@@QAE@XZ$4:
	mov	ecx, DWORD PTR _this$[ebp]
	add	ecx, 324				; 00000144H
	jmp	??1?$unordered_map@IIV?$hash@I@tr1@std@@U?$equal_to@I@3@V?$allocator@U?$pair@$$CBII@std@@@3@@tr1@std@@QAE@XZ
__unwindfunclet$??1Statistics@DRAMsimII@@QAE@XZ$5:
	mov	ecx, DWORD PTR _this$[ebp]
	add	ecx, 388				; 00000184H
	jmp	??1?$map@_KVDelayCounter@Statistics@DRAMsimII@@U?$less@_K@std@@V?$allocator@U?$pair@$$CB_KVDelayCounter@Statistics@DRAMsimII@@@std@@@5@@std@@QAE@XZ
__unwindfunclet$??1Statistics@DRAMsimII@@QAE@XZ$6:
	mov	ecx, DWORD PTR _this$[ebp]
	add	ecx, 416				; 000001a0H
	jmp	??1?$map@_KIU?$less@_K@std@@V?$allocator@U?$pair@$$CB_KI@std@@@2@@std@@QAE@XZ
__unwindfunclet$??1Statistics@DRAMsimII@@QAE@XZ$7:
	mov	ecx, DWORD PTR _this$[ebp]
	add	ecx, 444				; 000001bcH
	jmp	??1?$vector@IV?$allocator@I@std@@@std@@QAE@XZ ; std::vector<unsigned int,std::allocator<unsigned int> >::~vector<unsigned int,std::allocator<unsigned int> >
__ehhandler$??1Statistics@DRAMsimII@@QAE@XZ:
	mov	edx, DWORD PTR [esp+8]
	lea	eax, DWORD PTR [edx+12]
	mov	ecx, DWORD PTR [edx-220]
	xor	ecx, eax
	call	@__security_check_cookie@4
	mov	eax, OFFSET __ehfuncinfo$??1Statistics@DRAMsimII@@QAE@XZ
	jmp	___CxxFrameHandler3
text$x	ENDS
??1Statistics@DRAMsimII@@QAE@XZ ENDP			; DRAMsimII::Statistics::~Statistics
PUBLIC	??1?$_Hash@V?$_Umap_traits@IIV?$_Hash_compare@IV?$hash@I@tr1@std@@U?$equal_to@I@3@@stdext@@V?$allocator@U?$pair@$$CBII@std@@@std@@$0A@@tr1@std@@@stdext@@QAE@XZ ; stdext::_Hash<std::tr1::_Umap_traits<unsigned int,unsigned int,stdext::_Hash_compare<unsigned int,std::tr1::hash<unsigned int>,std::equal_to<unsigned int> >,std::allocator<std::pair<unsigned int const ,unsigned int> >,0> >::~_Hash<std::tr1::_Umap_traits<unsigned int,unsigned int,stdext::_Hash_compare<unsigned int,std::tr1::hash<unsigned int>,std::equal_to<unsigned int> >,std::allocator<std::pair<unsigned int const ,unsigned int> >,0> >
; Function compile flags: /Odtp /RTCcsu /ZI
;	COMDAT ??1?$unordered_map@IIV?$hash@I@tr1@std@@U?$equal_to@I@3@V?$allocator@U?$pair@$$CBII@std@@@3@@tr1@std@@QAE@XZ
_TEXT	SEGMENT
_this$ = -8						; size = 4
??1?$unordered_map@IIV?$hash@I@tr1@std@@U?$equal_to@I@3@V?$allocator@U?$pair@$$CBII@std@@@3@@tr1@std@@QAE@XZ PROC ; std::tr1::unordered_map<unsigned int,unsigned int,std::tr1::hash<unsigned int>,std::equal_to<unsigned int>,std::allocator<std::pair<unsigned int const ,unsigned int> > >::~unordered_map<unsigned int,unsigned int,std::tr1::hash<unsigned int>,std::equal_to<unsigned int>,std::allocator<std::pair<unsigned int const ,unsigned int> > >, COMDAT
; _this$ = ecx
	push	ebp
	mov	ebp, esp
	sub	esp, 204				; 000000ccH
	push	ebx
	push	esi
	push	edi
	push	ecx
	lea	edi, DWORD PTR [ebp-204]
	mov	ecx, 51					; 00000033H
	mov	eax, -858993460				; ccccccccH
	rep stosd
	pop	ecx
	mov	DWORD PTR _this$[ebp], ecx
	mov	ecx, DWORD PTR _this$[ebp]
	call	??1?$_Hash@V?$_Umap_traits@IIV?$_Hash_compare@IV?$hash@I@tr1@std@@U?$equal_to@I@3@@stdext@@V?$allocator@U?$pair@$$CBII@std@@@std@@$0A@@tr1@std@@@stdext@@QAE@XZ ; stdext::_Hash<std::tr1::_Umap_traits<unsigned int,unsigned int,stdext::_Hash_compare<unsigned int,std::tr1::hash<unsigned int>,std::equal_to<unsigned int> >,std::allocator<std::pair<unsigned int const ,unsigned int> >,0> >::~_Hash<std::tr1::_Umap_traits<unsigned int,unsigned int,stdext::_Hash_compare<unsigned int,std::tr1::hash<unsigned int>,std::equal_to<unsigned int> >,std::allocator<std::pair<unsigned int const ,unsigned int> >,0> >
	pop	edi
	pop	esi
	pop	ebx
	add	esp, 204				; 000000ccH
	cmp	ebp, esp
	call	__RTC_CheckEsp
	mov	esp, ebp
	pop	ebp
	ret	0
??1?$unordered_map@IIV?$hash@I@tr1@std@@U?$equal_to@I@3@V?$allocator@U?$pair@$$CBII@std@@@3@@tr1@std@@QAE@XZ ENDP ; std::tr1::unordered_map<unsigned int,unsigned int,std::tr1::hash<unsigned int>,std::equal_to<unsigned int>,std::allocator<std::pair<unsigned int const ,unsigned int> > >::~unordered_map<unsigned int,unsigned int,std::tr1::hash<unsigned int>,std::equal_to<unsigned int>,std::allocator<std::pair<unsigned int const ,unsigned int> > >
_TEXT	ENDS
PUBLIC	??1?$_Tree@V?$_Tmap_traits@_KVDelayCounter@Statistics@DRAMsimII@@U?$less@_K@std@@V?$allocator@U?$pair@$$CB_KVDelayCounter@Statistics@DRAMsimII@@@std@@@5@$0A@@std@@@std@@QAE@XZ ; std::_Tree<std::_Tmap_traits<unsigned __int64,DRAMsimII::Statistics::DelayCounter,std::less<unsigned __int64>,std::allocator<std::pair<unsigned __int64 const ,DRAMsimII::Statistics::DelayCounter> >,0> >::~_Tree<std::_Tmap_traits<unsigned __int64,DRAMsimII::Statistics::DelayCounter,std::less<unsigned __int64>,std::allocator<std::pair<unsigned __int64 const ,DRAMsimII::Statistics::DelayCounter> >,0> >
; Function compile flags: /Odtp /RTCcsu /ZI
;	COMDAT ??1?$map@_KVDelayCounter@Statistics@DRAMsimII@@U?$less@_K@std@@V?$allocator@U?$pair@$$CB_KVDelayCounter@Statistics@DRAMsimII@@@std@@@5@@std@@QAE@XZ
_TEXT	SEGMENT
_this$ = -8						; size = 4
??1?$map@_KVDelayCounter@Statistics@DRAMsimII@@U?$less@_K@std@@V?$allocator@U?$pair@$$CB_KVDelayCounter@Statistics@DRAMsimII@@@std@@@5@@std@@QAE@XZ PROC ; std::map<unsigned __int64,DRAMsimII::Statistics::DelayCounter,std::less<unsigned __int64>,std::allocator<std::pair<unsigned __int64 const ,DRAMsimII::Statistics::DelayCounter> > >::~map<unsigned __int64,DRAMsimII::Statistics::DelayCounter,std::less<unsigned __int64>,std::allocator<std::pair<unsigned __int64 const ,DRAMsimII::Statistics::DelayCounter> > >, COMDAT
; _this$ = ecx
	push	ebp
	mov	ebp, esp
	sub	esp, 204				; 000000ccH
	push	ebx
	push	esi
	push	edi
	push	ecx
	lea	edi, DWORD PTR [ebp-204]
	mov	ecx, 51					; 00000033H
	mov	eax, -858993460				; ccccccccH
	rep stosd
	pop	ecx
	mov	DWORD PTR _this$[ebp], ecx
	mov	ecx, DWORD PTR _this$[ebp]
	call	??1?$_Tree@V?$_Tmap_traits@_KVDelayCounter@Statistics@DRAMsimII@@U?$less@_K@std@@V?$allocator@U?$pair@$$CB_KVDelayCounter@Statistics@DRAMsimII@@@std@@@5@$0A@@std@@@std@@QAE@XZ ; std::_Tree<std::_Tmap_traits<unsigned __int64,DRAMsimII::Statistics::DelayCounter,std::less<unsigned __int64>,std::allocator<std::pair<unsigned __int64 const ,DRAMsimII::Statistics::DelayCounter> >,0> >::~_Tree<std::_Tmap_traits<unsigned __int64,DRAMsimII::Statistics::DelayCounter,std::less<unsigned __int64>,std::allocator<std::pair<unsigned __int64 const ,DRAMsimII::Statistics::DelayCounter> >,0> >
	pop	edi
	pop	esi
	pop	ebx
	add	esp, 204				; 000000ccH
	cmp	ebp, esp
	call	__RTC_CheckEsp
	mov	esp, ebp
	pop	ebp
	ret	0
??1?$map@_KVDelayCounter@Statistics@DRAMsimII@@U?$less@_K@std@@V?$allocator@U?$pair@$$CB_KVDelayCounter@Statistics@DRAMsimII@@@std@@@5@@std@@QAE@XZ ENDP ; std::map<unsigned __int64,DRAMsimII::Statistics::DelayCounter,std::less<unsigned __int64>,std::allocator<std::pair<unsigned __int64 const ,DRAMsimII::Statistics::DelayCounter> > >::~map<unsigned __int64,DRAMsimII::Statistics::DelayCounter,std::less<unsigned __int64>,std::allocator<std::pair<unsigned __int64 const ,DRAMsimII::Statistics::DelayCounter> > >
_TEXT	ENDS
PUBLIC	??1?$_Tree@V?$_Tmap_traits@_KIU?$less@_K@std@@V?$allocator@U?$pair@$$CB_KI@std@@@2@$0A@@std@@@std@@QAE@XZ ; std::_Tree<std::_Tmap_traits<unsigned __int64,unsigned int,std::less<unsigned __int64>,std::allocator<std::pair<unsigned __int64 const ,unsigned int> >,0> >::~_Tree<std::_Tmap_traits<unsigned __int64,unsigned int,std::less<unsigned __int64>,std::allocator<std::pair<unsigned __int64 const ,unsigned int> >,0> >
; Function compile flags: /Odtp /RTCcsu /ZI
;	COMDAT ??1?$map@_KIU?$less@_K@std@@V?$allocator@U?$pair@$$CB_KI@std@@@2@@std@@QAE@XZ
_TEXT	SEGMENT
_this$ = -8						; size = 4
??1?$map@_KIU?$less@_K@std@@V?$allocator@U?$pair@$$CB_KI@std@@@2@@std@@QAE@XZ PROC ; std::map<unsigned __int64,unsigned int,std::less<unsigned __int64>,std::allocator<std::pair<unsigned __int64 const ,unsigned int> > >::~map<unsigned __int64,unsigned int,std::less<unsigned __int64>,std::allocator<std::pair<unsigned __int64 const ,unsigned int> > >, COMDAT
; _this$ = ecx
	push	ebp
	mov	ebp, esp
	sub	esp, 204				; 000000ccH
	push	ebx
	push	esi
	push	edi
	push	ecx
	lea	edi, DWORD PTR [ebp-204]
	mov	ecx, 51					; 00000033H
	mov	eax, -858993460				; ccccccccH
	rep stosd
	pop	ecx
	mov	DWORD PTR _this$[ebp], ecx
	mov	ecx, DWORD PTR _this$[ebp]
	call	??1?$_Tree@V?$_Tmap_traits@_KIU?$less@_K@std@@V?$allocator@U?$pair@$$CB_KI@std@@@2@$0A@@std@@@std@@QAE@XZ ; std::_Tree<std::_Tmap_traits<unsigned __int64,unsigned int,std::less<unsigned __int64>,std::allocator<std::pair<unsigned __int64 const ,unsigned int> >,0> >::~_Tree<std::_Tmap_traits<unsigned __int64,unsigned int,std::less<unsigned __int64>,std::allocator<std::pair<unsigned __int64 const ,unsigned int> >,0> >
	pop	edi
	pop	esi
	pop	ebx
	add	esp, 204				; 000000ccH
	cmp	ebp, esp
	call	__RTC_CheckEsp
	mov	esp, ebp
	pop	ebp
	ret	0
??1?$map@_KIU?$less@_K@std@@V?$allocator@U?$pair@$$CB_KI@std@@@2@@std@@QAE@XZ ENDP ; std::map<unsigned __int64,unsigned int,std::less<unsigned __int64>,std::allocator<std::pair<unsigned __int64 const ,unsigned int> > >::~map<unsigned __int64,unsigned int,std::less<unsigned __int64>,std::allocator<std::pair<unsigned __int64 const ,unsigned int> > >
_TEXT	ENDS
PUBLIC	??1?$_Umap_traits@IIV?$_Hash_compare@IV?$hash@I@tr1@std@@U?$equal_to@I@3@@stdext@@V?$allocator@U?$pair@$$CBII@std@@@std@@$0A@@tr1@std@@QAE@XZ ; std::tr1::_Umap_traits<unsigned int,unsigned int,stdext::_Hash_compare<unsigned int,std::tr1::hash<unsigned int>,std::equal_to<unsigned int> >,std::allocator<std::pair<unsigned int const ,unsigned int> >,0>::~_Umap_traits<unsigned int,unsigned int,stdext::_Hash_compare<unsigned int,std::tr1::hash<unsigned int>,std::equal_to<unsigned int> >,std::allocator<std::pair<unsigned int const ,unsigned int> >,0>
PUBLIC	??1?$list@U?$pair@$$CBII@std@@V?$allocator@U?$pair@$$CBII@std@@@2@@std@@QAE@XZ ; std::list<std::pair<unsigned int const ,unsigned int>,std::allocator<std::pair<unsigned int const ,unsigned int> > >::~list<std::pair<unsigned int const ,unsigned int>,std::allocator<std::pair<unsigned int const ,unsigned int> > >
PUBLIC	??1?$vector@V?$_Iterator@$00@?$list@U?$pair@$$CBII@std@@V?$allocator@U?$pair@$$CBII@std@@@2@@std@@V?$allocator@V?$_Iterator@$00@?$list@U?$pair@$$CBII@std@@V?$allocator@U?$pair@$$CBII@std@@@2@@std@@@3@@std@@QAE@XZ ; std::vector<std::list<std::pair<unsigned int const ,unsigned int>,std::allocator<std::pair<unsigned int const ,unsigned int> > >::_Iterator<1>,std::allocator<std::list<std::pair<unsigned int const ,unsigned int>,std::allocator<std::pair<unsigned int const ,unsigned int> > >::_Iterator<1> > >::~vector<std::list<std::pair<unsigned int const ,unsigned int>,std::allocator<std::pair<unsigned int const ,unsigned int> > >::_Iterator<1>,std::allocator<std::list<std::pair<unsigned int const ,unsigned int>,std::allocator<std::pair<unsigned int const ,unsigned int> > >::_Iterator<1> > >
;	COMDAT xdata$x
; File c:\program files\microsoft visual studio 9.0\vc\include\xhash
xdata$x	SEGMENT
__unwindtable$??1?$_Hash@V?$_Umap_traits@IIV?$_Hash_compare@IV?$hash@I@tr1@std@@U?$equal_to@I@3@@stdext@@V?$allocator@U?$pair@$$CBII@std@@@std@@$0A@@tr1@std@@@stdext@@QAE@XZ DD 0ffffffffH
	DD	FLAT:__unwindfunclet$??1?$_Hash@V?$_Umap_traits@IIV?$_Hash_compare@IV?$hash@I@tr1@std@@U?$equal_to@I@3@@stdext@@V?$allocator@U?$pair@$$CBII@std@@@std@@$0A@@tr1@std@@@stdext@@QAE@XZ$0
	DD	00H
	DD	FLAT:__unwindfunclet$??1?$_Hash@V?$_Umap_traits@IIV?$_Hash_compare@IV?$hash@I@tr1@std@@U?$equal_to@I@3@@stdext@@V?$allocator@U?$pair@$$CBII@std@@@std@@$0A@@tr1@std@@@stdext@@QAE@XZ$1
__ehfuncinfo$??1?$_Hash@V?$_Umap_traits@IIV?$_Hash_compare@IV?$hash@I@tr1@std@@U?$equal_to@I@3@@stdext@@V?$allocator@U?$pair@$$CBII@std@@@std@@$0A@@tr1@std@@@stdext@@QAE@XZ DD 019930522H
	DD	02H
	DD	FLAT:__unwindtable$??1?$_Hash@V?$_Umap_traits@IIV?$_Hash_compare@IV?$hash@I@tr1@std@@U?$equal_to@I@3@@stdext@@V?$allocator@U?$pair@$$CBII@std@@@std@@$0A@@tr1@std@@@stdext@@QAE@XZ
	DD	2 DUP(00H)
	DD	2 DUP(00H)
	DD	00H
	DD	01H
; Function compile flags: /Odtp /RTCcsu /ZI
xdata$x	ENDS
;	COMDAT ??1?$_Hash@V?$_Umap_traits@IIV?$_Hash_compare@IV?$hash@I@tr1@std@@U?$equal_to@I@3@@stdext@@V?$allocator@U?$pair@$$CBII@std@@@std@@$0A@@tr1@std@@@stdext@@QAE@XZ
_TEXT	SEGMENT
_this$ = -20						; size = 4
__$EHRec$ = -12						; size = 12
??1?$_Hash@V?$_Umap_traits@IIV?$_Hash_compare@IV?$hash@I@tr1@std@@U?$equal_to@I@3@@stdext@@V?$allocator@U?$pair@$$CBII@std@@@std@@$0A@@tr1@std@@@stdext@@QAE@XZ PROC ; stdext::_Hash<std::tr1::_Umap_traits<unsigned int,unsigned int,stdext::_Hash_compare<unsigned int,std::tr1::hash<unsigned int>,std::equal_to<unsigned int> >,std::allocator<std::pair<unsigned int const ,unsigned int> >,0> >::~_Hash<std::tr1::_Umap_traits<unsigned int,unsigned int,stdext::_Hash_compare<unsigned int,std::tr1::hash<unsigned int>,std::equal_to<unsigned int> >,std::allocator<std::pair<unsigned int const ,unsigned int> >,0> >, COMDAT
; _this$ = ecx

; 365  : 		{	// destroy hash table

	push	ebp
	mov	ebp, esp
	push	-1
	push	__ehhandler$??1?$_Hash@V?$_Umap_traits@IIV?$_Hash_compare@IV?$hash@I@tr1@std@@U?$equal_to@I@3@@stdext@@V?$allocator@U?$pair@$$CBII@std@@@std@@$0A@@tr1@std@@@stdext@@QAE@XZ
	mov	eax, DWORD PTR fs:0
	push	eax
	sub	esp, 204				; 000000ccH
	push	ebx
	push	esi
	push	edi
	push	ecx
	lea	edi, DWORD PTR [ebp-216]
	mov	ecx, 51					; 00000033H
	mov	eax, -858993460				; ccccccccH
	rep stosd
	pop	ecx
	mov	eax, DWORD PTR ___security_cookie
	xor	eax, ebp
	push	eax
	lea	eax, DWORD PTR __$EHRec$[ebp]
	mov	DWORD PTR fs:0, eax
	mov	DWORD PTR _this$[ebp], ecx
	mov	DWORD PTR __$EHRec$[ebp+8], 1

; 366  : 		}

	mov	ecx, DWORD PTR _this$[ebp]
	add	ecx, 32					; 00000020H
	call	??1?$vector@V?$_Iterator@$00@?$list@U?$pair@$$CBII@std@@V?$allocator@U?$pair@$$CBII@std@@@2@@std@@V?$allocator@V?$_Iterator@$00@?$list@U?$pair@$$CBII@std@@V?$allocator@U?$pair@$$CBII@std@@@2@@std@@@3@@std@@QAE@XZ ; std::vector<std::list<std::pair<unsigned int const ,unsigned int>,std::allocator<std::pair<unsigned int const ,unsigned int> > >::_Iterator<1>,std::allocator<std::list<std::pair<unsigned int const ,unsigned int>,std::allocator<std::pair<unsigned int const ,unsigned int> > >::_Iterator<1> > >::~vector<std::list<std::pair<unsigned int const ,unsigned int>,std::allocator<std::pair<unsigned int const ,unsigned int> > >::_Iterator<1>,std::allocator<std::list<std::pair<unsigned int const ,unsigned int>,std::allocator<std::pair<unsigned int const ,unsigned int> > >::_Iterator<1> > >
	mov	BYTE PTR __$EHRec$[ebp+8], 0
	mov	ecx, DWORD PTR _this$[ebp]
	add	ecx, 8
	call	??1?$list@U?$pair@$$CBII@std@@V?$allocator@U?$pair@$$CBII@std@@@2@@std@@QAE@XZ ; std::list<std::pair<unsigned int const ,unsigned int>,std::allocator<std::pair<unsigned int const ,unsigned int> > >::~list<std::pair<unsigned int const ,unsigned int>,std::allocator<std::pair<unsigned int const ,unsigned int> > >
	mov	DWORD PTR __$EHRec$[ebp+8], -1
	mov	ecx, DWORD PTR _this$[ebp]
	call	??1?$_Umap_traits@IIV?$_Hash_compare@IV?$hash@I@tr1@std@@U?$equal_to@I@3@@stdext@@V?$allocator@U?$pair@$$CBII@std@@@std@@$0A@@tr1@std@@QAE@XZ
	mov	ecx, DWORD PTR __$EHRec$[ebp]
	mov	DWORD PTR fs:0, ecx
	pop	ecx
	pop	edi
	pop	esi
	pop	ebx
	add	esp, 216				; 000000d8H
	cmp	ebp, esp
	call	__RTC_CheckEsp
	mov	esp, ebp
	pop	ebp
	ret	0
_TEXT	ENDS
;	COMDAT text$x
text$x	SEGMENT
__unwindfunclet$??1?$_Hash@V?$_Umap_traits@IIV?$_Hash_compare@IV?$hash@I@tr1@std@@U?$equal_to@I@3@@stdext@@V?$allocator@U?$pair@$$CBII@std@@@std@@$0A@@tr1@std@@@stdext@@QAE@XZ$0:
	mov	ecx, DWORD PTR _this$[ebp]
	jmp	??1?$_Umap_traits@IIV?$_Hash_compare@IV?$hash@I@tr1@std@@U?$equal_to@I@3@@stdext@@V?$allocator@U?$pair@$$CBII@std@@@std@@$0A@@tr1@std@@QAE@XZ
__unwindfunclet$??1?$_Hash@V?$_Umap_traits@IIV?$_Hash_compare@IV?$hash@I@tr1@std@@U?$equal_to@I@3@@stdext@@V?$allocator@U?$pair@$$CBII@std@@@std@@$0A@@tr1@std@@@stdext@@QAE@XZ$1:
	mov	ecx, DWORD PTR _this$[ebp]
	add	ecx, 8
	jmp	??1?$list@U?$pair@$$CBII@std@@V?$allocator@U?$pair@$$CBII@std@@@2@@std@@QAE@XZ ; std::list<std::pair<unsigned int const ,unsigned int>,std::allocator<std::pair<unsigned int const ,unsigned int> > >::~list<std::pair<unsigned int const ,unsigned int>,std::allocator<std::pair<unsigned int const ,unsigned int> > >
__ehhandler$??1?$_Hash@V?$_Umap_traits@IIV?$_Hash_compare@IV?$hash@I@tr1@std@@U?$equal_to@I@3@@stdext@@V?$allocator@U?$pair@$$CBII@std@@@std@@$0A@@tr1@std@@@stdext@@QAE@XZ:
	mov	edx, DWORD PTR [esp+8]
	lea	eax, DWORD PTR [edx+12]
	mov	ecx, DWORD PTR [edx-220]
	xor	ecx, eax
	call	@__security_check_cookie@4
	mov	eax, OFFSET __ehfuncinfo$??1?$_Hash@V?$_Umap_traits@IIV?$_Hash_compare@IV?$hash@I@tr1@std@@U?$equal_to@I@3@@stdext@@V?$allocator@U?$pair@$$CBII@std@@@std@@$0A@@tr1@std@@@stdext@@QAE@XZ
	jmp	___CxxFrameHandler3
text$x	ENDS
??1?$_Hash@V?$_Umap_traits@IIV?$_Hash_compare@IV?$hash@I@tr1@std@@U?$equal_to@I@3@@stdext@@V?$allocator@U?$pair@$$CBII@std@@@std@@$0A@@tr1@std@@@stdext@@QAE@XZ ENDP ; stdext::_Hash<std::tr1::_Umap_traits<unsigned int,unsigned int,stdext::_Hash_compare<unsigned int,std::tr1::hash<unsigned int>,std::equal_to<unsigned int> >,std::allocator<std::pair<unsigned int const ,unsigned int> >,0> >::~_Hash<std::tr1::_Umap_traits<unsigned int,unsigned int,stdext::_Hash_compare<unsigned int,std::tr1::hash<unsigned int>,std::equal_to<unsigned int> >,std::allocator<std::pair<unsigned int const ,unsigned int> >,0> >
PUBLIC	??1?$_Tree_val@V?$_Tmap_traits@_KVDelayCounter@Statistics@DRAMsimII@@U?$less@_K@std@@V?$allocator@U?$pair@$$CB_KVDelayCounter@Statistics@DRAMsimII@@@std@@@5@$0A@@std@@@std@@QAE@XZ ; std::_Tree_val<std::_Tmap_traits<unsigned __int64,DRAMsimII::Statistics::DelayCounter,std::less<unsigned __int64>,std::allocator<std::pair<unsigned __int64 const ,DRAMsimII::Statistics::DelayCounter> >,0> >::~_Tree_val<std::_Tmap_traits<unsigned __int64,DRAMsimII::Statistics::DelayCounter,std::less<unsigned __int64>,std::allocator<std::pair<unsigned __int64 const ,DRAMsimII::Statistics::DelayCounter> >,0> >
PUBLIC	?_Tidy@?$_Tree@V?$_Tmap_traits@_KVDelayCounter@Statistics@DRAMsimII@@U?$less@_K@std@@V?$allocator@U?$pair@$$CB_KVDelayCounter@Statistics@DRAMsimII@@@std@@@5@$0A@@std@@@std@@IAEXXZ ; std::_Tree<std::_Tmap_traits<unsigned __int64,DRAMsimII::Statistics::DelayCounter,std::less<unsigned __int64>,std::allocator<std::pair<unsigned __int64 const ,DRAMsimII::Statistics::DelayCounter> >,0> >::_Tidy
;	COMDAT xdata$x
; File c:\program files\microsoft visual studio 9.0\vc\include\xtree
xdata$x	SEGMENT
__unwindtable$??1?$_Tree@V?$_Tmap_traits@_KVDelayCounter@Statistics@DRAMsimII@@U?$less@_K@std@@V?$allocator@U?$pair@$$CB_KVDelayCounter@Statistics@DRAMsimII@@@std@@@5@$0A@@std@@@std@@QAE@XZ DD 0ffffffffH
	DD	FLAT:__unwindfunclet$??1?$_Tree@V?$_Tmap_traits@_KVDelayCounter@Statistics@DRAMsimII@@U?$less@_K@std@@V?$allocator@U?$pair@$$CB_KVDelayCounter@Statistics@DRAMsimII@@@std@@@5@$0A@@std@@@std@@QAE@XZ$0
__ehfuncinfo$??1?$_Tree@V?$_Tmap_traits@_KVDelayCounter@Statistics@DRAMsimII@@U?$less@_K@std@@V?$allocator@U?$pair@$$CB_KVDelayCounter@Statistics@DRAMsimII@@@std@@@5@$0A@@std@@@std@@QAE@XZ DD 019930522H
	DD	01H
	DD	FLAT:__unwindtable$??1?$_Tree@V?$_Tmap_traits@_KVDelayCounter@Statistics@DRAMsimII@@U?$less@_K@std@@V?$allocator@U?$pair@$$CB_KVDelayCounter@Statistics@DRAMsimII@@@std@@@5@$0A@@std@@@std@@QAE@XZ
	DD	2 DUP(00H)
	DD	2 DUP(00H)
	DD	00H
	DD	01H
; Function compile flags: /Odtp /RTCcsu /ZI
xdata$x	ENDS
;	COMDAT ??1?$_Tree@V?$_Tmap_traits@_KVDelayCounter@Statistics@DRAMsimII@@U?$less@_K@std@@V?$allocator@U?$pair@$$CB_KVDelayCounter@Statistics@DRAMsimII@@@std@@@5@$0A@@std@@@std@@QAE@XZ
_TEXT	SEGMENT
_this$ = -20						; size = 4
__$EHRec$ = -12						; size = 12
??1?$_Tree@V?$_Tmap_traits@_KVDelayCounter@Statistics@DRAMsimII@@U?$less@_K@std@@V?$allocator@U?$pair@$$CB_KVDelayCounter@Statistics@DRAMsimII@@@std@@@5@$0A@@std@@@std@@QAE@XZ PROC ; std::_Tree<std::_Tmap_traits<unsigned __int64,DRAMsimII::Statistics::DelayCounter,std::less<unsigned __int64>,std::allocator<std::pair<unsigned __int64 const ,DRAMsimII::Statistics::DelayCounter> >,0> >::~_Tree<std::_Tmap_traits<unsigned __int64,DRAMsimII::Statistics::DelayCounter,std::less<unsigned __int64>,std::allocator<std::pair<unsigned __int64 const ,DRAMsimII::Statistics::DelayCounter> >,0> >, COMDAT
; _this$ = ecx

; 539  : 		{	// destroy tree

	push	ebp
	mov	ebp, esp
	push	-1
	push	__ehhandler$??1?$_Tree@V?$_Tmap_traits@_KVDelayCounter@Statistics@DRAMsimII@@U?$less@_K@std@@V?$allocator@U?$pair@$$CB_KVDelayCounter@Statistics@DRAMsimII@@@std@@@5@$0A@@std@@@std@@QAE@XZ
	mov	eax, DWORD PTR fs:0
	push	eax
	sub	esp, 204				; 000000ccH
	push	ebx
	push	esi
	push	edi
	push	ecx
	lea	edi, DWORD PTR [ebp-216]
	mov	ecx, 51					; 00000033H
	mov	eax, -858993460				; ccccccccH
	rep stosd
	pop	ecx
	mov	eax, DWORD PTR ___security_cookie
	xor	eax, ebp
	push	eax
	lea	eax, DWORD PTR __$EHRec$[ebp]
	mov	DWORD PTR fs:0, eax
	mov	DWORD PTR _this$[ebp], ecx
	mov	DWORD PTR __$EHRec$[ebp+8], 0

; 540  : 		_Tidy();

	mov	ecx, DWORD PTR _this$[ebp]
	call	?_Tidy@?$_Tree@V?$_Tmap_traits@_KVDelayCounter@Statistics@DRAMsimII@@U?$less@_K@std@@V?$allocator@U?$pair@$$CB_KVDelayCounter@Statistics@DRAMsimII@@@std@@@5@$0A@@std@@@std@@IAEXXZ ; std::_Tree<std::_Tmap_traits<unsigned __int64,DRAMsimII::Statistics::DelayCounter,std::less<unsigned __int64>,std::allocator<std::pair<unsigned __int64 const ,DRAMsimII::Statistics::DelayCounter> >,0> >::_Tidy

; 541  : 		}

	mov	DWORD PTR __$EHRec$[ebp+8], -1
	mov	ecx, DWORD PTR _this$[ebp]
	call	??1?$_Tree_val@V?$_Tmap_traits@_KVDelayCounter@Statistics@DRAMsimII@@U?$less@_K@std@@V?$allocator@U?$pair@$$CB_KVDelayCounter@Statistics@DRAMsimII@@@std@@@5@$0A@@std@@@std@@QAE@XZ
	mov	ecx, DWORD PTR __$EHRec$[ebp]
	mov	DWORD PTR fs:0, ecx
	pop	ecx
	pop	edi
	pop	esi
	pop	ebx
	add	esp, 216				; 000000d8H
	cmp	ebp, esp
	call	__RTC_CheckEsp
	mov	esp, ebp
	pop	ebp
	ret	0
_TEXT	ENDS
;	COMDAT text$x
text$x	SEGMENT
__unwindfunclet$??1?$_Tree@V?$_Tmap_traits@_KVDelayCounter@Statistics@DRAMsimII@@U?$less@_K@std@@V?$allocator@U?$pair@$$CB_KVDelayCounter@Statistics@DRAMsimII@@@std@@@5@$0A@@std@@@std@@QAE@XZ$0:
	mov	ecx, DWORD PTR _this$[ebp]
	jmp	??1?$_Tree_val@V?$_Tmap_traits@_KVDelayCounter@Statistics@DRAMsimII@@U?$less@_K@std@@V?$allocator@U?$pair@$$CB_KVDelayCounter@Statistics@DRAMsimII@@@std@@@5@$0A@@std@@@std@@QAE@XZ
__ehhandler$??1?$_Tree@V?$_Tmap_traits@_KVDelayCounter@Statistics@DRAMsimII@@U?$less@_K@std@@V?$allocator@U?$pair@$$CB_KVDelayCounter@Statistics@DRAMsimII@@@std@@@5@$0A@@std@@@std@@QAE@XZ:
	mov	edx, DWORD PTR [esp+8]
	lea	eax, DWORD PTR [edx+12]
	mov	ecx, DWORD PTR [edx-220]
	xor	ecx, eax
	call	@__security_check_cookie@4
	mov	eax, OFFSET __ehfuncinfo$??1?$_Tree@V?$_Tmap_traits@_KVDelayCounter@Statistics@DRAMsimII@@U?$less@_K@std@@V?$allocator@U?$pair@$$CB_KVDelayCounter@Statistics@DRAMsimII@@@std@@@5@$0A@@std@@@std@@QAE@XZ
	jmp	___CxxFrameHandler3
text$x	ENDS
??1?$_Tree@V?$_Tmap_traits@_KVDelayCounter@Statistics@DRAMsimII@@U?$less@_K@std@@V?$allocator@U?$pair@$$CB_KVDelayCounter@Statistics@DRAMsimII@@@std@@@5@$0A@@std@@@std@@QAE@XZ ENDP ; std::_Tree<std::_Tmap_traits<unsigned __int64,DRAMsimII::Statistics::DelayCounter,std::less<unsigned __int64>,std::allocator<std::pair<unsigned __int64 const ,DRAMsimII::Statistics::DelayCounter> >,0> >::~_Tree<std::_Tmap_traits<unsigned __int64,DRAMsimII::Statistics::DelayCounter,std::less<unsigned __int64>,std::allocator<std::pair<unsigned __int64 const ,DRAMsimII::Statistics::DelayCounter> >,0> >
PUBLIC	??1?$_Tree_val@V?$_Tmap_traits@_KIU?$less@_K@std@@V?$allocator@U?$pair@$$CB_KI@std@@@2@$0A@@std@@@std@@QAE@XZ ; std::_Tree_val<std::_Tmap_traits<unsigned __int64,unsigned int,std::less<unsigned __int64>,std::allocator<std::pair<unsigned __int64 const ,unsigned int> >,0> >::~_Tree_val<std::_Tmap_traits<unsigned __int64,unsigned int,std::less<unsigned __int64>,std::allocator<std::pair<unsigned __int64 const ,unsigned int> >,0> >
PUBLIC	?_Tidy@?$_Tree@V?$_Tmap_traits@_KIU?$less@_K@std@@V?$allocator@U?$pair@$$CB_KI@std@@@2@$0A@@std@@@std@@IAEXXZ ; std::_Tree<std::_Tmap_traits<unsigned __int64,unsigned int,std::less<unsigned __int64>,std::allocator<std::pair<unsigned __int64 const ,unsigned int> >,0> >::_Tidy
;	COMDAT xdata$x
xdata$x	SEGMENT
__unwindtable$??1?$_Tree@V?$_Tmap_traits@_KIU?$less@_K@std@@V?$allocator@U?$pair@$$CB_KI@std@@@2@$0A@@std@@@std@@QAE@XZ DD 0ffffffffH
	DD	FLAT:__unwindfunclet$??1?$_Tree@V?$_Tmap_traits@_KIU?$less@_K@std@@V?$allocator@U?$pair@$$CB_KI@std@@@2@$0A@@std@@@std@@QAE@XZ$0
__ehfuncinfo$??1?$_Tree@V?$_Tmap_traits@_KIU?$less@_K@std@@V?$allocator@U?$pair@$$CB_KI@std@@@2@$0A@@std@@@std@@QAE@XZ DD 019930522H
	DD	01H
	DD	FLAT:__unwindtable$??1?$_Tree@V?$_Tmap_traits@_KIU?$less@_K@std@@V?$allocator@U?$pair@$$CB_KI@std@@@2@$0A@@std@@@std@@QAE@XZ
	DD	2 DUP(00H)
	DD	2 DUP(00H)
	DD	00H
	DD	01H
; Function compile flags: /Odtp /RTCcsu /ZI
xdata$x	ENDS
;	COMDAT ??1?$_Tree@V?$_Tmap_traits@_KIU?$less@_K@std@@V?$allocator@U?$pair@$$CB_KI@std@@@2@$0A@@std@@@std@@QAE@XZ
_TEXT	SEGMENT
_this$ = -20						; size = 4
__$EHRec$ = -12						; size = 12
??1?$_Tree@V?$_Tmap_traits@_KIU?$less@_K@std@@V?$allocator@U?$pair@$$CB_KI@std@@@2@$0A@@std@@@std@@QAE@XZ PROC ; std::_Tree<std::_Tmap_traits<unsigned __int64,unsigned int,std::less<unsigned __int64>,std::allocator<std::pair<unsigned __int64 const ,unsigned int> >,0> >::~_Tree<std::_Tmap_traits<unsigned __int64,unsigned int,std::less<unsigned __int64>,std::allocator<std::pair<unsigned __int64 const ,unsigned int> >,0> >, COMDAT
; _this$ = ecx

; 539  : 		{	// destroy tree

	push	ebp
	mov	ebp, esp
	push	-1
	push	__ehhandler$??1?$_Tree@V?$_Tmap_traits@_KIU?$less@_K@std@@V?$allocator@U?$pair@$$CB_KI@std@@@2@$0A@@std@@@std@@QAE@XZ
	mov	eax, DWORD PTR fs:0
	push	eax
	sub	esp, 204				; 000000ccH
	push	ebx
	push	esi
	push	edi
	push	ecx
	lea	edi, DWORD PTR [ebp-216]
	mov	ecx, 51					; 00000033H
	mov	eax, -858993460				; ccccccccH
	rep stosd
	pop	ecx
	mov	eax, DWORD PTR ___security_cookie
	xor	eax, ebp
	push	eax
	lea	eax, DWORD PTR __$EHRec$[ebp]
	mov	DWORD PTR fs:0, eax
	mov	DWORD PTR _this$[ebp], ecx
	mov	DWORD PTR __$EHRec$[ebp+8], 0

; 540  : 		_Tidy();

	mov	ecx, DWORD PTR _this$[ebp]
	call	?_Tidy@?$_Tree@V?$_Tmap_traits@_KIU?$less@_K@std@@V?$allocator@U?$pair@$$CB_KI@std@@@2@$0A@@std@@@std@@IAEXXZ ; std::_Tree<std::_Tmap_traits<unsigned __int64,unsigned int,std::less<unsigned __int64>,std::allocator<std::pair<unsigned __int64 const ,unsigned int> >,0> >::_Tidy

; 541  : 		}

	mov	DWORD PTR __$EHRec$[ebp+8], -1
	mov	ecx, DWORD PTR _this$[ebp]
	call	??1?$_Tree_val@V?$_Tmap_traits@_KIU?$less@_K@std@@V?$allocator@U?$pair@$$CB_KI@std@@@2@$0A@@std@@@std@@QAE@XZ
	mov	ecx, DWORD PTR __$EHRec$[ebp]
	mov	DWORD PTR fs:0, ecx
	pop	ecx
	pop	edi
	pop	esi
	pop	ebx
	add	esp, 216				; 000000d8H
	cmp	ebp, esp
	call	__RTC_CheckEsp
	mov	esp, ebp
	pop	ebp
	ret	0
_TEXT	ENDS
;	COMDAT text$x
text$x	SEGMENT
__unwindfunclet$??1?$_Tree@V?$_Tmap_traits@_KIU?$less@_K@std@@V?$allocator@U?$pair@$$CB_KI@std@@@2@$0A@@std@@@std@@QAE@XZ$0:
	mov	ecx, DWORD PTR _this$[ebp]
	jmp	??1?$_Tree_val@V?$_Tmap_traits@_KIU?$less@_K@std@@V?$allocator@U?$pair@$$CB_KI@std@@@2@$0A@@std@@@std@@QAE@XZ
__ehhandler$??1?$_Tree@V?$_Tmap_traits@_KIU?$less@_K@std@@V?$allocator@U?$pair@$$CB_KI@std@@@2@$0A@@std@@@std@@QAE@XZ:
	mov	edx, DWORD PTR [esp+8]
	lea	eax, DWORD PTR [edx+12]
	mov	ecx, DWORD PTR [edx-220]
	xor	ecx, eax
	call	@__security_check_cookie@4
	mov	eax, OFFSET __ehfuncinfo$??1?$_Tree@V?$_Tmap_traits@_KIU?$less@_K@std@@V?$allocator@U?$pair@$$CB_KI@std@@@2@$0A@@std@@@std@@QAE@XZ
	jmp	___CxxFrameHandler3
text$x	ENDS
??1?$_Tree@V?$_Tmap_traits@_KIU?$less@_K@std@@V?$allocator@U?$pair@$$CB_KI@std@@@2@$0A@@std@@@std@@QAE@XZ ENDP ; std::_Tree<std::_Tmap_traits<unsigned __int64,unsigned int,std::less<unsigned __int64>,std::allocator<std::pair<unsigned __int64 const ,unsigned int> >,0> >::~_Tree<std::_Tmap_traits<unsigned __int64,unsigned int,std::less<unsigned __int64>,std::allocator<std::pair<unsigned __int64 const ,unsigned int> >,0> >
PUBLIC	??1?$_Vector_val@IV?$allocator@I@std@@@std@@QAE@XZ ; std::_Vector_val<unsigned int,std::allocator<unsigned int> >::~_Vector_val<unsigned int,std::allocator<unsigned int> >
PUBLIC	?_Tidy@?$vector@IV?$allocator@I@std@@@std@@IAEXXZ ; std::vector<unsigned int,std::allocator<unsigned int> >::_Tidy
;	COMDAT xdata$x
; File c:\program files\microsoft visual studio 9.0\vc\include\vector
xdata$x	SEGMENT
__unwindtable$??1?$vector@IV?$allocator@I@std@@@std@@QAE@XZ DD 0ffffffffH
	DD	FLAT:__unwindfunclet$??1?$vector@IV?$allocator@I@std@@@std@@QAE@XZ$0
__ehfuncinfo$??1?$vector@IV?$allocator@I@std@@@std@@QAE@XZ DD 019930522H
	DD	01H
	DD	FLAT:__unwindtable$??1?$vector@IV?$allocator@I@std@@@std@@QAE@XZ
	DD	2 DUP(00H)
	DD	2 DUP(00H)
	DD	00H
	DD	01H
; Function compile flags: /Odtp /RTCcsu /ZI
xdata$x	ENDS
;	COMDAT ??1?$vector@IV?$allocator@I@std@@@std@@QAE@XZ
_TEXT	SEGMENT
_this$ = -20						; size = 4
__$EHRec$ = -12						; size = 12
??1?$vector@IV?$allocator@I@std@@@std@@QAE@XZ PROC	; std::vector<unsigned int,std::allocator<unsigned int> >::~vector<unsigned int,std::allocator<unsigned int> >, COMDAT
; _this$ = ecx

; 558  : 		{	// destroy the object

	push	ebp
	mov	ebp, esp
	push	-1
	push	__ehhandler$??1?$vector@IV?$allocator@I@std@@@std@@QAE@XZ
	mov	eax, DWORD PTR fs:0
	push	eax
	sub	esp, 204				; 000000ccH
	push	ebx
	push	esi
	push	edi
	push	ecx
	lea	edi, DWORD PTR [ebp-216]
	mov	ecx, 51					; 00000033H
	mov	eax, -858993460				; ccccccccH
	rep stosd
	pop	ecx
	mov	eax, DWORD PTR ___security_cookie
	xor	eax, ebp
	push	eax
	lea	eax, DWORD PTR __$EHRec$[ebp]
	mov	DWORD PTR fs:0, eax
	mov	DWORD PTR _this$[ebp], ecx
	mov	DWORD PTR __$EHRec$[ebp+8], 0

; 559  : 		_Tidy();

	mov	ecx, DWORD PTR _this$[ebp]
	call	?_Tidy@?$vector@IV?$allocator@I@std@@@std@@IAEXXZ ; std::vector<unsigned int,std::allocator<unsigned int> >::_Tidy

; 560  : 		}

	mov	DWORD PTR __$EHRec$[ebp+8], -1
	mov	ecx, DWORD PTR _this$[ebp]
	call	??1?$_Vector_val@IV?$allocator@I@std@@@std@@QAE@XZ
	mov	ecx, DWORD PTR __$EHRec$[ebp]
	mov	DWORD PTR fs:0, ecx
	pop	ecx
	pop	edi
	pop	esi
	pop	ebx
	add	esp, 216				; 000000d8H
	cmp	ebp, esp
	call	__RTC_CheckEsp
	mov	esp, ebp
	pop	ebp
	ret	0
_TEXT	ENDS
;	COMDAT text$x
text$x	SEGMENT
__unwindfunclet$??1?$vector@IV?$allocator@I@std@@@std@@QAE@XZ$0:
	mov	ecx, DWORD PTR _this$[ebp]
	jmp	??1?$_Vector_val@IV?$allocator@I@std@@@std@@QAE@XZ
__ehhandler$??1?$vector@IV?$allocator@I@std@@@std@@QAE@XZ:
	mov	edx, DWORD PTR [esp+8]
	lea	eax, DWORD PTR [edx+12]
	mov	ecx, DWORD PTR [edx-220]
	xor	ecx, eax
	call	@__security_check_cookie@4
	mov	eax, OFFSET __ehfuncinfo$??1?$vector@IV?$allocator@I@std@@@std@@QAE@XZ
	jmp	___CxxFrameHandler3
text$x	ENDS
??1?$vector@IV?$allocator@I@std@@@std@@QAE@XZ ENDP	; std::vector<unsigned int,std::allocator<unsigned int> >::~vector<unsigned int,std::allocator<unsigned int> >
PUBLIC	??1?$_Vector_val@_JV?$allocator@_J@std@@@std@@QAE@XZ ; std::_Vector_val<__int64,std::allocator<__int64> >::~_Vector_val<__int64,std::allocator<__int64> >
PUBLIC	?_Tidy@?$vector@_JV?$allocator@_J@std@@@std@@IAEXXZ ; std::vector<__int64,std::allocator<__int64> >::_Tidy
;	COMDAT xdata$x
xdata$x	SEGMENT
__unwindtable$??1?$vector@_JV?$allocator@_J@std@@@std@@QAE@XZ DD 0ffffffffH
	DD	FLAT:__unwindfunclet$??1?$vector@_JV?$allocator@_J@std@@@std@@QAE@XZ$0
__ehfuncinfo$??1?$vector@_JV?$allocator@_J@std@@@std@@QAE@XZ DD 019930522H
	DD	01H
	DD	FLAT:__unwindtable$??1?$vector@_JV?$allocator@_J@std@@@std@@QAE@XZ
	DD	2 DUP(00H)
	DD	2 DUP(00H)
	DD	00H
	DD	01H
; Function compile flags: /Odtp /RTCcsu /ZI
xdata$x	ENDS
;	COMDAT ??1?$vector@_JV?$allocator@_J@std@@@std@@QAE@XZ
_TEXT	SEGMENT
_this$ = -20						; size = 4
__$EHRec$ = -12						; size = 12
??1?$vector@_JV?$allocator@_J@std@@@std@@QAE@XZ PROC	; std::vector<__int64,std::allocator<__int64> >::~vector<__int64,std::allocator<__int64> >, COMDAT
; _this$ = ecx

; 558  : 		{	// destroy the object

	push	ebp
	mov	ebp, esp
	push	-1
	push	__ehhandler$??1?$vector@_JV?$allocator@_J@std@@@std@@QAE@XZ
	mov	eax, DWORD PTR fs:0
	push	eax
	sub	esp, 204				; 000000ccH
	push	ebx
	push	esi
	push	edi
	push	ecx
	lea	edi, DWORD PTR [ebp-216]
	mov	ecx, 51					; 00000033H
	mov	eax, -858993460				; ccccccccH
	rep stosd
	pop	ecx
	mov	eax, DWORD PTR ___security_cookie
	xor	eax, ebp
	push	eax
	lea	eax, DWORD PTR __$EHRec$[ebp]
	mov	DWORD PTR fs:0, eax
	mov	DWORD PTR _this$[ebp], ecx
	mov	DWORD PTR __$EHRec$[ebp+8], 0

; 559  : 		_Tidy();

	mov	ecx, DWORD PTR _this$[ebp]
	call	?_Tidy@?$vector@_JV?$allocator@_J@std@@@std@@IAEXXZ ; std::vector<__int64,std::allocator<__int64> >::_Tidy

; 560  : 		}

	mov	DWORD PTR __$EHRec$[ebp+8], -1
	mov	ecx, DWORD PTR _this$[ebp]
	call	??1?$_Vector_val@_JV?$allocator@_J@std@@@std@@QAE@XZ
	mov	ecx, DWORD PTR __$EHRec$[ebp]
	mov	DWORD PTR fs:0, ecx
	pop	ecx
	pop	edi
	pop	esi
	pop	ebx
	add	esp, 216				; 000000d8H
	cmp	ebp, esp
	call	__RTC_CheckEsp
	mov	esp, ebp
	pop	ebp
	ret	0
_TEXT	ENDS
;	COMDAT text$x
text$x	SEGMENT
__unwindfunclet$??1?$vector@_JV?$allocator@_J@std@@@std@@QAE@XZ$0:
	mov	ecx, DWORD PTR _this$[ebp]
	jmp	??1?$_Vector_val@_JV?$allocator@_J@std@@@std@@QAE@XZ
__ehhandler$??1?$vector@_JV?$allocator@_J@std@@@std@@QAE@XZ:
	mov	edx, DWORD PTR [esp+8]
	lea	eax, DWORD PTR [edx+12]
	mov	ecx, DWORD PTR [edx-220]
	xor	ecx, eax
	call	@__security_check_cookie@4
	mov	eax, OFFSET __ehfuncinfo$??1?$vector@_JV?$allocator@_J@std@@@std@@QAE@XZ
	jmp	___CxxFrameHandler3
text$x	ENDS
??1?$vector@_JV?$allocator@_J@std@@@std@@QAE@XZ ENDP	; std::vector<__int64,std::allocator<__int64> >::~vector<__int64,std::allocator<__int64> >
PUBLIC	??1?$_Vector_val@VChannel@DRAMsimII@@V?$allocator@VChannel@DRAMsimII@@@std@@@std@@QAE@XZ ; std::_Vector_val<DRAMsimII::Channel,std::allocator<DRAMsimII::Channel> >::~_Vector_val<DRAMsimII::Channel,std::allocator<DRAMsimII::Channel> >
PUBLIC	?_Tidy@?$vector@VChannel@DRAMsimII@@V?$allocator@VChannel@DRAMsimII@@@std@@@std@@IAEXXZ ; std::vector<DRAMsimII::Channel,std::allocator<DRAMsimII::Channel> >::_Tidy
;	COMDAT xdata$x
xdata$x	SEGMENT
__unwindtable$??1?$vector@VChannel@DRAMsimII@@V?$allocator@VChannel@DRAMsimII@@@std@@@std@@QAE@XZ DD 0ffffffffH
	DD	FLAT:__unwindfunclet$??1?$vector@VChannel@DRAMsimII@@V?$allocator@VChannel@DRAMsimII@@@std@@@std@@QAE@XZ$0
__ehfuncinfo$??1?$vector@VChannel@DRAMsimII@@V?$allocator@VChannel@DRAMsimII@@@std@@@std@@QAE@XZ DD 019930522H
	DD	01H
	DD	FLAT:__unwindtable$??1?$vector@VChannel@DRAMsimII@@V?$allocator@VChannel@DRAMsimII@@@std@@@std@@QAE@XZ
	DD	2 DUP(00H)
	DD	2 DUP(00H)
	DD	00H
	DD	01H
; Function compile flags: /Odtp /RTCcsu /ZI
xdata$x	ENDS
;	COMDAT ??1?$vector@VChannel@DRAMsimII@@V?$allocator@VChannel@DRAMsimII@@@std@@@std@@QAE@XZ
_TEXT	SEGMENT
_this$ = -20						; size = 4
__$EHRec$ = -12						; size = 12
??1?$vector@VChannel@DRAMsimII@@V?$allocator@VChannel@DRAMsimII@@@std@@@std@@QAE@XZ PROC ; std::vector<DRAMsimII::Channel,std::allocator<DRAMsimII::Channel> >::~vector<DRAMsimII::Channel,std::allocator<DRAMsimII::Channel> >, COMDAT
; _this$ = ecx

; 558  : 		{	// destroy the object

	push	ebp
	mov	ebp, esp
	push	-1
	push	__ehhandler$??1?$vector@VChannel@DRAMsimII@@V?$allocator@VChannel@DRAMsimII@@@std@@@std@@QAE@XZ
	mov	eax, DWORD PTR fs:0
	push	eax
	sub	esp, 204				; 000000ccH
	push	ebx
	push	esi
	push	edi
	push	ecx
	lea	edi, DWORD PTR [ebp-216]
	mov	ecx, 51					; 00000033H
	mov	eax, -858993460				; ccccccccH
	rep stosd
	pop	ecx
	mov	eax, DWORD PTR ___security_cookie
	xor	eax, ebp
	push	eax
	lea	eax, DWORD PTR __$EHRec$[ebp]
	mov	DWORD PTR fs:0, eax
	mov	DWORD PTR _this$[ebp], ecx
	mov	DWORD PTR __$EHRec$[ebp+8], 0

; 559  : 		_Tidy();

	mov	ecx, DWORD PTR _this$[ebp]
	call	?_Tidy@?$vector@VChannel@DRAMsimII@@V?$allocator@VChannel@DRAMsimII@@@std@@@std@@IAEXXZ ; std::vector<DRAMsimII::Channel,std::allocator<DRAMsimII::Channel> >::_Tidy

; 560  : 		}

	mov	DWORD PTR __$EHRec$[ebp+8], -1
	mov	ecx, DWORD PTR _this$[ebp]
	call	??1?$_Vector_val@VChannel@DRAMsimII@@V?$allocator@VChannel@DRAMsimII@@@std@@@std@@QAE@XZ
	mov	ecx, DWORD PTR __$EHRec$[ebp]
	mov	DWORD PTR fs:0, ecx
	pop	ecx
	pop	edi
	pop	esi
	pop	ebx
	add	esp, 216				; 000000d8H
	cmp	ebp, esp
	call	__RTC_CheckEsp
	mov	esp, ebp
	pop	ebp
	ret	0
_TEXT	ENDS
;	COMDAT text$x
text$x	SEGMENT
__unwindfunclet$??1?$vector@VChannel@DRAMsimII@@V?$allocator@VChannel@DRAMsimII@@@std@@@std@@QAE@XZ$0:
	mov	ecx, DWORD PTR _this$[ebp]
	jmp	??1?$_Vector_val@VChannel@DRAMsimII@@V?$allocator@VChannel@DRAMsimII@@@std@@@std@@QAE@XZ
__ehhandler$??1?$vector@VChannel@DRAMsimII@@V?$allocator@VChannel@DRAMsimII@@@std@@@std@@QAE@XZ:
	mov	edx, DWORD PTR [esp+8]
	lea	eax, DWORD PTR [edx+12]
	mov	ecx, DWORD PTR [edx-220]
	xor	ecx, eax
	call	@__security_check_cookie@4
	mov	eax, OFFSET __ehfuncinfo$??1?$vector@VChannel@DRAMsimII@@V?$allocator@VChannel@DRAMsimII@@@std@@@std@@QAE@XZ
	jmp	___CxxFrameHandler3
text$x	ENDS
??1?$vector@VChannel@DRAMsimII@@V?$allocator@VChannel@DRAMsimII@@@std@@@std@@QAE@XZ ENDP ; std::vector<DRAMsimII::Channel,std::allocator<DRAMsimII::Channel> >::~vector<DRAMsimII::Channel,std::allocator<DRAMsimII::Channel> >
EXTRN	__imp_??1_Container_base_secure@std@@QAE@XZ:PROC
; Function compile flags: /Odtp /RTCcsu /ZI
;	COMDAT ??1?$_Umap_traits@IIV?$_Hash_compare@IV?$hash@I@tr1@std@@U?$equal_to@I@3@@stdext@@V?$allocator@U?$pair@$$CBII@std@@@std@@$0A@@tr1@std@@QAE@XZ
_TEXT	SEGMENT
_this$ = -8						; size = 4
??1?$_Umap_traits@IIV?$_Hash_compare@IV?$hash@I@tr1@std@@U?$equal_to@I@3@@stdext@@V?$allocator@U?$pair@$$CBII@std@@@std@@$0A@@tr1@std@@QAE@XZ PROC ; std::tr1::_Umap_traits<unsigned int,unsigned int,stdext::_Hash_compare<unsigned int,std::tr1::hash<unsigned int>,std::equal_to<unsigned int> >,std::allocator<std::pair<unsigned int const ,unsigned int> >,0>::~_Umap_traits<unsigned int,unsigned int,stdext::_Hash_compare<unsigned int,std::tr1::hash<unsigned int>,std::equal_to<unsigned int> >,std::allocator<std::pair<unsigned int const ,unsigned int> >,0>, COMDAT
; _this$ = ecx
	push	ebp
	mov	ebp, esp
	sub	esp, 204				; 000000ccH
	push	ebx
	push	esi
	push	edi
	push	ecx
	lea	edi, DWORD PTR [ebp-204]
	mov	ecx, 51					; 00000033H
	mov	eax, -858993460				; ccccccccH
	rep stosd
	pop	ecx
	mov	DWORD PTR _this$[ebp], ecx
	mov	esi, esp
	mov	ecx, DWORD PTR _this$[ebp]
	call	DWORD PTR __imp_??1_Container_base_secure@std@@QAE@XZ
	cmp	esi, esp
	call	__RTC_CheckEsp
	pop	edi
	pop	esi
	pop	ebx
	add	esp, 204				; 000000ccH
	cmp	ebp, esp
	call	__RTC_CheckEsp
	mov	esp, ebp
	pop	ebp
	ret	0
??1?$_Umap_traits@IIV?$_Hash_compare@IV?$hash@I@tr1@std@@U?$equal_to@I@3@@stdext@@V?$allocator@U?$pair@$$CBII@std@@@std@@$0A@@tr1@std@@QAE@XZ ENDP ; std::tr1::_Umap_traits<unsigned int,unsigned int,stdext::_Hash_compare<unsigned int,std::tr1::hash<unsigned int>,std::equal_to<unsigned int> >,std::allocator<std::pair<unsigned int const ,unsigned int> >,0>::~_Umap_traits<unsigned int,unsigned int,stdext::_Hash_compare<unsigned int,std::tr1::hash<unsigned int>,std::equal_to<unsigned int> >,std::allocator<std::pair<unsigned int const ,unsigned int> >,0>
_TEXT	ENDS
PUBLIC	??1?$_Tree_ptr@V?$_Tmap_traits@_KVDelayCounter@Statistics@DRAMsimII@@U?$less@_K@std@@V?$allocator@U?$pair@$$CB_KVDelayCounter@Statistics@DRAMsimII@@@std@@@5@$0A@@std@@@std@@QAE@XZ ; std::_Tree_ptr<std::_Tmap_traits<unsigned __int64,DRAMsimII::Statistics::DelayCounter,std::less<unsigned __int64>,std::allocator<std::pair<unsigned __int64 const ,DRAMsimII::Statistics::DelayCounter> >,0> >::~_Tree_ptr<std::_Tmap_traits<unsigned __int64,DRAMsimII::Statistics::DelayCounter,std::less<unsigned __int64>,std::allocator<std::pair<unsigned __int64 const ,DRAMsimII::Statistics::DelayCounter> >,0> >
; Function compile flags: /Odtp /RTCcsu /ZI
;	COMDAT ??1?$_Tree_val@V?$_Tmap_traits@_KVDelayCounter@Statistics@DRAMsimII@@U?$less@_K@std@@V?$allocator@U?$pair@$$CB_KVDelayCounter@Statistics@DRAMsimII@@@std@@@5@$0A@@std@@@std@@QAE@XZ
_TEXT	SEGMENT
_this$ = -8						; size = 4
??1?$_Tree_val@V?$_Tmap_traits@_KVDelayCounter@Statistics@DRAMsimII@@U?$less@_K@std@@V?$allocator@U?$pair@$$CB_KVDelayCounter@Statistics@DRAMsimII@@@std@@@5@$0A@@std@@@std@@QAE@XZ PROC ; std::_Tree_val<std::_Tmap_traits<unsigned __int64,DRAMsimII::Statistics::DelayCounter,std::less<unsigned __int64>,std::allocator<std::pair<unsigned __int64 const ,DRAMsimII::Statistics::DelayCounter> >,0> >::~_Tree_val<std::_Tmap_traits<unsigned __int64,DRAMsimII::Statistics::DelayCounter,std::less<unsigned __int64>,std::allocator<std::pair<unsigned __int64 const ,DRAMsimII::Statistics::DelayCounter> >,0> >, COMDAT
; _this$ = ecx
	push	ebp
	mov	ebp, esp
	sub	esp, 204				; 000000ccH
	push	ebx
	push	esi
	push	edi
	push	ecx
	lea	edi, DWORD PTR [ebp-204]
	mov	ecx, 51					; 00000033H
	mov	eax, -858993460				; ccccccccH
	rep stosd
	pop	ecx
	mov	DWORD PTR _this$[ebp], ecx
	mov	ecx, DWORD PTR _this$[ebp]
	call	??1?$_Tree_ptr@V?$_Tmap_traits@_KVDelayCounter@Statistics@DRAMsimII@@U?$less@_K@std@@V?$allocator@U?$pair@$$CB_KVDelayCounter@Statistics@DRAMsimII@@@std@@@5@$0A@@std@@@std@@QAE@XZ
	pop	edi
	pop	esi
	pop	ebx
	add	esp, 204				; 000000ccH
	cmp	ebp, esp
	call	__RTC_CheckEsp
	mov	esp, ebp
	pop	ebp
	ret	0
??1?$_Tree_val@V?$_Tmap_traits@_KVDelayCounter@Statistics@DRAMsimII@@U?$less@_K@std@@V?$allocator@U?$pair@$$CB_KVDelayCounter@Statistics@DRAMsimII@@@std@@@5@$0A@@std@@@std@@QAE@XZ ENDP ; std::_Tree_val<std::_Tmap_traits<unsigned __int64,DRAMsimII::Statistics::DelayCounter,std::less<unsigned __int64>,std::allocator<std::pair<unsigned __int64 const ,DRAMsimII::Statistics::DelayCounter> >,0> >::~_Tree_val<std::_Tmap_traits<unsigned __int64,DRAMsimII::Statistics::DelayCounter,std::less<unsigned __int64>,std::allocator<std::pair<unsigned __int64 const ,DRAMsimII::Statistics::DelayCounter> >,0> >
_TEXT	ENDS
PUBLIC	??1?$_Tree_ptr@V?$_Tmap_traits@_KIU?$less@_K@std@@V?$allocator@U?$pair@$$CB_KI@std@@@2@$0A@@std@@@std@@QAE@XZ ; std::_Tree_ptr<std::_Tmap_traits<unsigned __int64,unsigned int,std::less<unsigned __int64>,std::allocator<std::pair<unsigned __int64 const ,unsigned int> >,0> >::~_Tree_ptr<std::_Tmap_traits<unsigned __int64,unsigned int,std::less<unsigned __int64>,std::allocator<std::pair<unsigned __int64 const ,unsigned int> >,0> >
; Function compile flags: /Odtp /RTCcsu /ZI
;	COMDAT ??1?$_Tree_val@V?$_Tmap_traits@_KIU?$less@_K@std@@V?$allocator@U?$pair@$$CB_KI@std@@@2@$0A@@std@@@std@@QAE@XZ
_TEXT	SEGMENT
_this$ = -8						; size = 4
??1?$_Tree_val@V?$_Tmap_traits@_KIU?$less@_K@std@@V?$allocator@U?$pair@$$CB_KI@std@@@2@$0A@@std@@@std@@QAE@XZ PROC ; std::_Tree_val<std::_Tmap_traits<unsigned __int64,unsigned int,std::less<unsigned __int64>,std::allocator<std::pair<unsigned __int64 const ,unsigned int> >,0> >::~_Tree_val<std::_Tmap_traits<unsigned __int64,unsigned int,std::less<unsigned __int64>,std::allocator<std::pair<unsigned __int64 const ,unsigned int> >,0> >, COMDAT
; _this$ = ecx
	push	ebp
	mov	ebp, esp
	sub	esp, 204				; 000000ccH
	push	ebx
	push	esi
	push	edi
	push	ecx
	lea	edi, DWORD PTR [ebp-204]
	mov	ecx, 51					; 00000033H
	mov	eax, -858993460				; ccccccccH
	rep stosd
	pop	ecx
	mov	DWORD PTR _this$[ebp], ecx
	mov	ecx, DWORD PTR _this$[ebp]
	call	??1?$_Tree_ptr@V?$_Tmap_traits@_KIU?$less@_K@std@@V?$allocator@U?$pair@$$CB_KI@std@@@2@$0A@@std@@@std@@QAE@XZ
	pop	edi
	pop	esi
	pop	ebx
	add	esp, 204				; 000000ccH
	cmp	ebp, esp
	call	__RTC_CheckEsp
	mov	esp, ebp
	pop	ebp
	ret	0
??1?$_Tree_val@V?$_Tmap_traits@_KIU?$less@_K@std@@V?$allocator@U?$pair@$$CB_KI@std@@@2@$0A@@std@@@std@@QAE@XZ ENDP ; std::_Tree_val<std::_Tmap_traits<unsigned __int64,unsigned int,std::less<unsigned __int64>,std::allocator<std::pair<unsigned __int64 const ,unsigned int> >,0> >::~_Tree_val<std::_Tmap_traits<unsigned __int64,unsigned int,std::less<unsigned __int64>,std::allocator<std::pair<unsigned __int64 const ,unsigned int> >,0> >
_TEXT	ENDS
PUBLIC	??1?$_Container_base_aux_alloc_empty@V?$allocator@I@std@@@std@@IAE@XZ ; std::_Container_base_aux_alloc_empty<std::allocator<unsigned int> >::~_Container_base_aux_alloc_empty<std::allocator<unsigned int> >
; Function compile flags: /Odtp /RTCcsu /ZI
;	COMDAT ??1?$_Vector_val@IV?$allocator@I@std@@@std@@QAE@XZ
_TEXT	SEGMENT
_this$ = -8						; size = 4
??1?$_Vector_val@IV?$allocator@I@std@@@std@@QAE@XZ PROC	; std::_Vector_val<unsigned int,std::allocator<unsigned int> >::~_Vector_val<unsigned int,std::allocator<unsigned int> >, COMDAT
; _this$ = ecx
	push	ebp
	mov	ebp, esp
	sub	esp, 204				; 000000ccH
	push	ebx
	push	esi
	push	edi
	push	ecx
	lea	edi, DWORD PTR [ebp-204]
	mov	ecx, 51					; 00000033H
	mov	eax, -858993460				; ccccccccH
	rep stosd
	pop	ecx
	mov	DWORD PTR _this$[ebp], ecx
	mov	ecx, DWORD PTR _this$[ebp]
	call	??1?$_Container_base_aux_alloc_empty@V?$allocator@I@std@@@std@@IAE@XZ ; std::_Container_base_aux_alloc_empty<std::allocator<unsigned int> >::~_Container_base_aux_alloc_empty<std::allocator<unsigned int> >
	pop	edi
	pop	esi
	pop	ebx
	add	esp, 204				; 000000ccH
	cmp	ebp, esp
	call	__RTC_CheckEsp
	mov	esp, ebp
	pop	ebp
	ret	0
??1?$_Vector_val@IV?$allocator@I@std@@@std@@QAE@XZ ENDP	; std::_Vector_val<unsigned int,std::allocator<unsigned int> >::~_Vector_val<unsigned int,std::allocator<unsigned int> >
_TEXT	ENDS
PUBLIC	??1?$_Container_base_aux_alloc_empty@V?$allocator@_J@std@@@std@@IAE@XZ ; std::_Container_base_aux_alloc_empty<std::allocator<__int64> >::~_Container_base_aux_alloc_empty<std::allocator<__int64> >
; Function compile flags: /Odtp /RTCcsu /ZI
;	COMDAT ??1?$_Vector_val@_JV?$allocator@_J@std@@@std@@QAE@XZ
_TEXT	SEGMENT
_this$ = -8						; size = 4
??1?$_Vector_val@_JV?$allocator@_J@std@@@std@@QAE@XZ PROC ; std::_Vector_val<__int64,std::allocator<__int64> >::~_Vector_val<__int64,std::allocator<__int64> >, COMDAT
; _this$ = ecx
	push	ebp
	mov	ebp, esp
	sub	esp, 204				; 000000ccH
	push	ebx
	push	esi
	push	edi
	push	ecx
	lea	edi, DWORD PTR [ebp-204]
	mov	ecx, 51					; 00000033H
	mov	eax, -858993460				; ccccccccH
	rep stosd
	pop	ecx
	mov	DWORD PTR _this$[ebp], ecx
	mov	ecx, DWORD PTR _this$[ebp]
	call	??1?$_Container_base_aux_alloc_empty@V?$allocator@_J@std@@@std@@IAE@XZ ; std::_Container_base_aux_alloc_empty<std::allocator<__int64> >::~_Container_base_aux_alloc_empty<std::allocator<__int64> >
	pop	edi
	pop	esi
	pop	ebx
	add	esp, 204				; 000000ccH
	cmp	ebp, esp
	call	__RTC_CheckEsp
	mov	esp, ebp
	pop	ebp
	ret	0
??1?$_Vector_val@_JV?$allocator@_J@std@@@std@@QAE@XZ ENDP ; std::_Vector_val<__int64,std::allocator<__int64> >::~_Vector_val<__int64,std::allocator<__int64> >
_TEXT	ENDS
PUBLIC	??1?$_Container_base_aux_alloc_empty@V?$allocator@VChannel@DRAMsimII@@@std@@@std@@IAE@XZ ; std::_Container_base_aux_alloc_empty<std::allocator<DRAMsimII::Channel> >::~_Container_base_aux_alloc_empty<std::allocator<DRAMsimII::Channel> >
; Function compile flags: /Odtp /RTCcsu /ZI
;	COMDAT ??1?$_Vector_val@VChannel@DRAMsimII@@V?$allocator@VChannel@DRAMsimII@@@std@@@std@@QAE@XZ
_TEXT	SEGMENT
_this$ = -8						; size = 4
??1?$_Vector_val@VChannel@DRAMsimII@@V?$allocator@VChannel@DRAMsimII@@@std@@@std@@QAE@XZ PROC ; std::_Vector_val<DRAMsimII::Channel,std::allocator<DRAMsimII::Channel> >::~_Vector_val<DRAMsimII::Channel,std::allocator<DRAMsimII::Channel> >, COMDAT
; _this$ = ecx
	push	ebp
	mov	ebp, esp
	sub	esp, 204				; 000000ccH
	push	ebx
	push	esi
	push	edi
	push	ecx
	lea	edi, DWORD PTR [ebp-204]
	mov	ecx, 51					; 00000033H
	mov	eax, -858993460				; ccccccccH
	rep stosd
	pop	ecx
	mov	DWORD PTR _this$[ebp], ecx
	mov	ecx, DWORD PTR _this$[ebp]
	call	??1?$_Container_base_aux_alloc_empty@V?$allocator@VChannel@DRAMsimII@@@std@@@std@@IAE@XZ ; std::_Container_base_aux_alloc_empty<std::allocator<DRAMsimII::Channel> >::~_Container_base_aux_alloc_empty<std::allocator<DRAMsimII::Channel> >
	pop	edi
	pop	esi
	pop	ebx
	add	esp, 204				; 000000ccH
	cmp	ebp, esp
	call	__RTC_CheckEsp
	mov	esp, ebp
	pop	ebp
	ret	0
??1?$_Vector_val@VChannel@DRAMsimII@@V?$allocator@VChannel@DRAMsimII@@@std@@@std@@QAE@XZ ENDP ; std::_Vector_val<DRAMsimII::Channel,std::allocator<DRAMsimII::Channel> >::~_Vector_val<DRAMsimII::Channel,std::allocator<DRAMsimII::Channel> >
_TEXT	ENDS
PUBLIC	??1?$_Tree_nod@V?$_Tmap_traits@_KVDelayCounter@Statistics@DRAMsimII@@U?$less@_K@std@@V?$allocator@U?$pair@$$CB_KVDelayCounter@Statistics@DRAMsimII@@@std@@@5@$0A@@std@@@std@@QAE@XZ ; std::_Tree_nod<std::_Tmap_traits<unsigned __int64,DRAMsimII::Statistics::DelayCounter,std::less<unsigned __int64>,std::allocator<std::pair<unsigned __int64 const ,DRAMsimII::Statistics::DelayCounter> >,0> >::~_Tree_nod<std::_Tmap_traits<unsigned __int64,DRAMsimII::Statistics::DelayCounter,std::less<unsigned __int64>,std::allocator<std::pair<unsigned __int64 const ,DRAMsimII::Statistics::DelayCounter> >,0> >
; Function compile flags: /Odtp /RTCcsu /ZI
;	COMDAT ??1?$_Tree_ptr@V?$_Tmap_traits@_KVDelayCounter@Statistics@DRAMsimII@@U?$less@_K@std@@V?$allocator@U?$pair@$$CB_KVDelayCounter@Statistics@DRAMsimII@@@std@@@5@$0A@@std@@@std@@QAE@XZ
_TEXT	SEGMENT
_this$ = -8						; size = 4
??1?$_Tree_ptr@V?$_Tmap_traits@_KVDelayCounter@Statistics@DRAMsimII@@U?$less@_K@std@@V?$allocator@U?$pair@$$CB_KVDelayCounter@Statistics@DRAMsimII@@@std@@@5@$0A@@std@@@std@@QAE@XZ PROC ; std::_Tree_ptr<std::_Tmap_traits<unsigned __int64,DRAMsimII::Statistics::DelayCounter,std::less<unsigned __int64>,std::allocator<std::pair<unsigned __int64 const ,DRAMsimII::Statistics::DelayCounter> >,0> >::~_Tree_ptr<std::_Tmap_traits<unsigned __int64,DRAMsimII::Statistics::DelayCounter,std::less<unsigned __int64>,std::allocator<std::pair<unsigned __int64 const ,DRAMsimII::Statistics::DelayCounter> >,0> >, COMDAT
; _this$ = ecx
	push	ebp
	mov	ebp, esp
	sub	esp, 204				; 000000ccH
	push	ebx
	push	esi
	push	edi
	push	ecx
	lea	edi, DWORD PTR [ebp-204]
	mov	ecx, 51					; 00000033H
	mov	eax, -858993460				; ccccccccH
	rep stosd
	pop	ecx
	mov	DWORD PTR _this$[ebp], ecx
	mov	ecx, DWORD PTR _this$[ebp]
	call	??1?$_Tree_nod@V?$_Tmap_traits@_KVDelayCounter@Statistics@DRAMsimII@@U?$less@_K@std@@V?$allocator@U?$pair@$$CB_KVDelayCounter@Statistics@DRAMsimII@@@std@@@5@$0A@@std@@@std@@QAE@XZ
	pop	edi
	pop	esi
	pop	ebx
	add	esp, 204				; 000000ccH
	cmp	ebp, esp
	call	__RTC_CheckEsp
	mov	esp, ebp
	pop	ebp
	ret	0
??1?$_Tree_ptr@V?$_Tmap_traits@_KVDelayCounter@Statistics@DRAMsimII@@U?$less@_K@std@@V?$allocator@U?$pair@$$CB_KVDelayCounter@Statistics@DRAMsimII@@@std@@@5@$0A@@std@@@std@@QAE@XZ ENDP ; std::_Tree_ptr<std::_Tmap_traits<unsigned __int64,DRAMsimII::Statistics::DelayCounter,std::less<unsigned __int64>,std::allocator<std::pair<unsigned __int64 const ,DRAMsimII::Statistics::DelayCounter> >,0> >::~_Tree_ptr<std::_Tmap_traits<unsigned __int64,DRAMsimII::Statistics::DelayCounter,std::less<unsigned __int64>,std::allocator<std::pair<unsigned __int64 const ,DRAMsimII::Statistics::DelayCounter> >,0> >
_TEXT	ENDS
PUBLIC	??1?$_Tree_nod@V?$_Tmap_traits@_KIU?$less@_K@std@@V?$allocator@U?$pair@$$CB_KI@std@@@2@$0A@@std@@@std@@QAE@XZ ; std::_Tree_nod<std::_Tmap_traits<unsigned __int64,unsigned int,std::less<unsigned __int64>,std::allocator<std::pair<unsigned __int64 const ,unsigned int> >,0> >::~_Tree_nod<std::_Tmap_traits<unsigned __int64,unsigned int,std::less<unsigned __int64>,std::allocator<std::pair<unsigned __int64 const ,unsigned int> >,0> >
; Function compile flags: /Odtp /RTCcsu /ZI
;	COMDAT ??1?$_Tree_ptr@V?$_Tmap_traits@_KIU?$less@_K@std@@V?$allocator@U?$pair@$$CB_KI@std@@@2@$0A@@std@@@std@@QAE@XZ
_TEXT	SEGMENT
_this$ = -8						; size = 4
??1?$_Tree_ptr@V?$_Tmap_traits@_KIU?$less@_K@std@@V?$allocator@U?$pair@$$CB_KI@std@@@2@$0A@@std@@@std@@QAE@XZ PROC ; std::_Tree_ptr<std::_Tmap_traits<unsigned __int64,unsigned int,std::less<unsigned __int64>,std::allocator<std::pair<unsigned __int64 const ,unsigned int> >,0> >::~_Tree_ptr<std::_Tmap_traits<unsigned __int64,unsigned int,std::less<unsigned __int64>,std::allocator<std::pair<unsigned __int64 const ,unsigned int> >,0> >, COMDAT
; _this$ = ecx
	push	ebp
	mov	ebp, esp
	sub	esp, 204				; 000000ccH
	push	ebx
	push	esi
	push	edi
	push	ecx
	lea	edi, DWORD PTR [ebp-204]
	mov	ecx, 51					; 00000033H
	mov	eax, -858993460				; ccccccccH
	rep stosd
	pop	ecx
	mov	DWORD PTR _this$[ebp], ecx
	mov	ecx, DWORD PTR _this$[ebp]
	call	??1?$_Tree_nod@V?$_Tmap_traits@_KIU?$less@_K@std@@V?$allocator@U?$pair@$$CB_KI@std@@@2@$0A@@std@@@std@@QAE@XZ
	pop	edi
	pop	esi
	pop	ebx
	add	esp, 204				; 000000ccH
	cmp	ebp, esp
	call	__RTC_CheckEsp
	mov	esp, ebp
	pop	ebp
	ret	0
??1?$_Tree_ptr@V?$_Tmap_traits@_KIU?$less@_K@std@@V?$allocator@U?$pair@$$CB_KI@std@@@2@$0A@@std@@@std@@QAE@XZ ENDP ; std::_Tree_ptr<std::_Tmap_traits<unsigned __int64,unsigned int,std::less<unsigned __int64>,std::allocator<std::pair<unsigned __int64 const ,unsigned int> >,0> >::~_Tree_ptr<std::_Tmap_traits<unsigned __int64,unsigned int,std::less<unsigned __int64>,std::allocator<std::pair<unsigned __int64 const ,unsigned int> >,0> >
_TEXT	ENDS
PUBLIC	??1?$_Tmap_traits@_KVDelayCounter@Statistics@DRAMsimII@@U?$less@_K@std@@V?$allocator@U?$pair@$$CB_KVDelayCounter@Statistics@DRAMsimII@@@std@@@5@$0A@@std@@QAE@XZ ; std::_Tmap_traits<unsigned __int64,DRAMsimII::Statistics::DelayCounter,std::less<unsigned __int64>,std::allocator<std::pair<unsigned __int64 const ,DRAMsimII::Statistics::DelayCounter> >,0>::~_Tmap_traits<unsigned __int64,DRAMsimII::Statistics::DelayCounter,std::less<unsigned __int64>,std::allocator<std::pair<unsigned __int64 const ,DRAMsimII::Statistics::DelayCounter> >,0>
; Function compile flags: /Odtp /RTCcsu /ZI
;	COMDAT ??1?$_Tree_nod@V?$_Tmap_traits@_KVDelayCounter@Statistics@DRAMsimII@@U?$less@_K@std@@V?$allocator@U?$pair@$$CB_KVDelayCounter@Statistics@DRAMsimII@@@std@@@5@$0A@@std@@@std@@QAE@XZ
_TEXT	SEGMENT
_this$ = -8						; size = 4
??1?$_Tree_nod@V?$_Tmap_traits@_KVDelayCounter@Statistics@DRAMsimII@@U?$less@_K@std@@V?$allocator@U?$pair@$$CB_KVDelayCounter@Statistics@DRAMsimII@@@std@@@5@$0A@@std@@@std@@QAE@XZ PROC ; std::_Tree_nod<std::_Tmap_traits<unsigned __int64,DRAMsimII::Statistics::DelayCounter,std::less<unsigned __int64>,std::allocator<std::pair<unsigned __int64 const ,DRAMsimII::Statistics::DelayCounter> >,0> >::~_Tree_nod<std::_Tmap_traits<unsigned __int64,DRAMsimII::Statistics::DelayCounter,std::less<unsigned __int64>,std::allocator<std::pair<unsigned __int64 const ,DRAMsimII::Statistics::DelayCounter> >,0> >, COMDAT
; _this$ = ecx
	push	ebp
	mov	ebp, esp
	sub	esp, 204				; 000000ccH
	push	ebx
	push	esi
	push	edi
	push	ecx
	lea	edi, DWORD PTR [ebp-204]
	mov	ecx, 51					; 00000033H
	mov	eax, -858993460				; ccccccccH
	rep stosd
	pop	ecx
	mov	DWORD PTR _this$[ebp], ecx
	mov	ecx, DWORD PTR _this$[ebp]
	call	??1?$_Tmap_traits@_KVDelayCounter@Statistics@DRAMsimII@@U?$less@_K@std@@V?$allocator@U?$pair@$$CB_KVDelayCounter@Statistics@DRAMsimII@@@std@@@5@$0A@@std@@QAE@XZ
	pop	edi
	pop	esi
	pop	ebx
	add	esp, 204				; 000000ccH
	cmp	ebp, esp
	call	__RTC_CheckEsp
	mov	esp, ebp
	pop	ebp
	ret	0
??1?$_Tree_nod@V?$_Tmap_traits@_KVDelayCounter@Statistics@DRAMsimII@@U?$less@_K@std@@V?$allocator@U?$pair@$$CB_KVDelayCounter@Statistics@DRAMsimII@@@std@@@5@$0A@@std@@@std@@QAE@XZ ENDP ; std::_Tree_nod<std::_Tmap_traits<unsigned __int64,DRAMsimII::Statistics::DelayCounter,std::less<unsigned __int64>,std::allocator<std::pair<unsigned __int64 const ,DRAMsimII::Statistics::DelayCounter> >,0> >::~_Tree_nod<std::_Tmap_traits<unsigned __int64,DRAMsimII::Statistics::DelayCounter,std::less<unsigned __int64>,std::allocator<std::pair<unsigned __int64 const ,DRAMsimII::Statistics::DelayCounter> >,0> >
_TEXT	ENDS
PUBLIC	??1?$_Tmap_traits@_KIU?$less@_K@std@@V?$allocator@U?$pair@$$CB_KI@std@@@2@$0A@@std@@QAE@XZ ; std::_Tmap_traits<unsigned __int64,unsigned int,std::less<unsigned __int64>,std::allocator<std::pair<unsigned __int64 const ,unsigned int> >,0>::~_Tmap_traits<unsigned __int64,unsigned int,std::less<unsigned __int64>,std::allocator<std::pair<unsigned __int64 const ,unsigned int> >,0>
; Function compile flags: /Odtp /RTCcsu /ZI
;	COMDAT ??1?$_Tree_nod@V?$_Tmap_traits@_KIU?$less@_K@std@@V?$allocator@U?$pair@$$CB_KI@std@@@2@$0A@@std@@@std@@QAE@XZ
_TEXT	SEGMENT
_this$ = -8						; size = 4
??1?$_Tree_nod@V?$_Tmap_traits@_KIU?$less@_K@std@@V?$allocator@U?$pair@$$CB_KI@std@@@2@$0A@@std@@@std@@QAE@XZ PROC ; std::_Tree_nod<std::_Tmap_traits<unsigned __int64,unsigned int,std::less<unsigned __int64>,std::allocator<std::pair<unsigned __int64 const ,unsigned int> >,0> >::~_Tree_nod<std::_Tmap_traits<unsigned __int64,unsigned int,std::less<unsigned __int64>,std::allocator<std::pair<unsigned __int64 const ,unsigned int> >,0> >, COMDAT
; _this$ = ecx
	push	ebp
	mov	ebp, esp
	sub	esp, 204				; 000000ccH
	push	ebx
	push	esi
	push	edi
	push	ecx
	lea	edi, DWORD PTR [ebp-204]
	mov	ecx, 51					; 00000033H
	mov	eax, -858993460				; ccccccccH
	rep stosd
	pop	ecx
	mov	DWORD PTR _this$[ebp], ecx
	mov	ecx, DWORD PTR _this$[ebp]
	call	??1?$_Tmap_traits@_KIU?$less@_K@std@@V?$allocator@U?$pair@$$CB_KI@std@@@2@$0A@@std@@QAE@XZ
	pop	edi
	pop	esi
	pop	ebx
	add	esp, 204				; 000000ccH
	cmp	ebp, esp
	call	__RTC_CheckEsp
	mov	esp, ebp
	pop	ebp
	ret	0
??1?$_Tree_nod@V?$_Tmap_traits@_KIU?$less@_K@std@@V?$allocator@U?$pair@$$CB_KI@std@@@2@$0A@@std@@@std@@QAE@XZ ENDP ; std::_Tree_nod<std::_Tmap_traits<unsigned __int64,unsigned int,std::less<unsigned __int64>,std::allocator<std::pair<unsigned __int64 const ,unsigned int> >,0> >::~_Tree_nod<std::_Tmap_traits<unsigned __int64,unsigned int,std::less<unsigned __int64>,std::allocator<std::pair<unsigned __int64 const ,unsigned int> >,0> >
_TEXT	ENDS
PUBLIC	??1?$_Container_base_aux_alloc_empty@V?$allocator@U?$pair@$$CB_KVDelayCounter@Statistics@DRAMsimII@@@std@@@std@@@std@@IAE@XZ ; std::_Container_base_aux_alloc_empty<std::allocator<std::pair<unsigned __int64 const ,DRAMsimII::Statistics::DelayCounter> > >::~_Container_base_aux_alloc_empty<std::allocator<std::pair<unsigned __int64 const ,DRAMsimII::Statistics::DelayCounter> > >
; Function compile flags: /Odtp /RTCcsu /ZI
;	COMDAT ??1?$_Tmap_traits@_KVDelayCounter@Statistics@DRAMsimII@@U?$less@_K@std@@V?$allocator@U?$pair@$$CB_KVDelayCounter@Statistics@DRAMsimII@@@std@@@5@$0A@@std@@QAE@XZ
_TEXT	SEGMENT
_this$ = -8						; size = 4
??1?$_Tmap_traits@_KVDelayCounter@Statistics@DRAMsimII@@U?$less@_K@std@@V?$allocator@U?$pair@$$CB_KVDelayCounter@Statistics@DRAMsimII@@@std@@@5@$0A@@std@@QAE@XZ PROC ; std::_Tmap_traits<unsigned __int64,DRAMsimII::Statistics::DelayCounter,std::less<unsigned __int64>,std::allocator<std::pair<unsigned __int64 const ,DRAMsimII::Statistics::DelayCounter> >,0>::~_Tmap_traits<unsigned __int64,DRAMsimII::Statistics::DelayCounter,std::less<unsigned __int64>,std::allocator<std::pair<unsigned __int64 const ,DRAMsimII::Statistics::DelayCounter> >,0>, COMDAT
; _this$ = ecx
	push	ebp
	mov	ebp, esp
	sub	esp, 204				; 000000ccH
	push	ebx
	push	esi
	push	edi
	push	ecx
	lea	edi, DWORD PTR [ebp-204]
	mov	ecx, 51					; 00000033H
	mov	eax, -858993460				; ccccccccH
	rep stosd
	pop	ecx
	mov	DWORD PTR _this$[ebp], ecx
	mov	ecx, DWORD PTR _this$[ebp]
	call	??1?$_Container_base_aux_alloc_empty@V?$allocator@U?$pair@$$CB_KVDelayCounter@Statistics@DRAMsimII@@@std@@@std@@@std@@IAE@XZ ; std::_Container_base_aux_alloc_empty<std::allocator<std::pair<unsigned __int64 const ,DRAMsimII::Statistics::DelayCounter> > >::~_Container_base_aux_alloc_empty<std::allocator<std::pair<unsigned __int64 const ,DRAMsimII::Statistics::DelayCounter> > >
	pop	edi
	pop	esi
	pop	ebx
	add	esp, 204				; 000000ccH
	cmp	ebp, esp
	call	__RTC_CheckEsp
	mov	esp, ebp
	pop	ebp
	ret	0
??1?$_Tmap_traits@_KVDelayCounter@Statistics@DRAMsimII@@U?$less@_K@std@@V?$allocator@U?$pair@$$CB_KVDelayCounter@Statistics@DRAMsimII@@@std@@@5@$0A@@std@@QAE@XZ ENDP ; std::_Tmap_traits<unsigned __int64,DRAMsimII::Statistics::DelayCounter,std::less<unsigned __int64>,std::allocator<std::pair<unsigned __int64 const ,DRAMsimII::Statistics::DelayCounter> >,0>::~_Tmap_traits<unsigned __int64,DRAMsimII::Statistics::DelayCounter,std::less<unsigned __int64>,std::allocator<std::pair<unsigned __int64 const ,DRAMsimII::Statistics::DelayCounter> >,0>
_TEXT	ENDS
PUBLIC	??1?$_Container_base_aux_alloc_empty@V?$allocator@U?$pair@$$CB_KI@std@@@std@@@std@@IAE@XZ ; std::_Container_base_aux_alloc_empty<std::allocator<std::pair<unsigned __int64 const ,unsigned int> > >::~_Container_base_aux_alloc_empty<std::allocator<std::pair<unsigned __int64 const ,unsigned int> > >
; Function compile flags: /Odtp /RTCcsu /ZI
;	COMDAT ??1?$_Tmap_traits@_KIU?$less@_K@std@@V?$allocator@U?$pair@$$CB_KI@std@@@2@$0A@@std@@QAE@XZ
_TEXT	SEGMENT
_this$ = -8						; size = 4
??1?$_Tmap_traits@_KIU?$less@_K@std@@V?$allocator@U?$pair@$$CB_KI@std@@@2@$0A@@std@@QAE@XZ PROC ; std::_Tmap_traits<unsigned __int64,unsigned int,std::less<unsigned __int64>,std::allocator<std::pair<unsigned __int64 const ,unsigned int> >,0>::~_Tmap_traits<unsigned __int64,unsigned int,std::less<unsigned __int64>,std::allocator<std::pair<unsigned __int64 const ,unsigned int> >,0>, COMDAT
; _this$ = ecx
	push	ebp
	mov	ebp, esp
	sub	esp, 204				; 000000ccH
	push	ebx
	push	esi
	push	edi
	push	ecx
	lea	edi, DWORD PTR [ebp-204]
	mov	ecx, 51					; 00000033H
	mov	eax, -858993460				; ccccccccH
	rep stosd
	pop	ecx
	mov	DWORD PTR _this$[ebp], ecx
	mov	ecx, DWORD PTR _this$[ebp]
	call	??1?$_Container_base_aux_alloc_empty@V?$allocator@U?$pair@$$CB_KI@std@@@std@@@std@@IAE@XZ ; std::_Container_base_aux_alloc_empty<std::allocator<std::pair<unsigned __int64 const ,unsigned int> > >::~_Container_base_aux_alloc_empty<std::allocator<std::pair<unsigned __int64 const ,unsigned int> > >
	pop	edi
	pop	esi
	pop	ebx
	add	esp, 204				; 000000ccH
	cmp	ebp, esp
	call	__RTC_CheckEsp
	mov	esp, ebp
	pop	ebp
	ret	0
??1?$_Tmap_traits@_KIU?$less@_K@std@@V?$allocator@U?$pair@$$CB_KI@std@@@2@$0A@@std@@QAE@XZ ENDP ; std::_Tmap_traits<unsigned __int64,unsigned int,std::less<unsigned __int64>,std::allocator<std::pair<unsigned __int64 const ,unsigned int> >,0>::~_Tmap_traits<unsigned __int64,unsigned int,std::less<unsigned __int64>,std::allocator<std::pair<unsigned __int64 const ,unsigned int> >,0>
_TEXT	ENDS
PUBLIC	??1?$_List_val@U?$pair@$$CBII@std@@V?$allocator@U?$pair@$$CBII@std@@@2@@std@@QAE@XZ ; std::_List_val<std::pair<unsigned int const ,unsigned int>,std::allocator<std::pair<unsigned int const ,unsigned int> > >::~_List_val<std::pair<unsigned int const ,unsigned int>,std::allocator<std::pair<unsigned int const ,unsigned int> > >
PUBLIC	?_Tidy@?$list@U?$pair@$$CBII@std@@V?$allocator@U?$pair@$$CBII@std@@@2@@std@@IAEXXZ ; std::list<std::pair<unsigned int const ,unsigned int>,std::allocator<std::pair<unsigned int const ,unsigned int> > >::_Tidy
;	COMDAT xdata$x
; File c:\program files\microsoft visual studio 9.0\vc\include\list
xdata$x	SEGMENT
__unwindtable$??1?$list@U?$pair@$$CBII@std@@V?$allocator@U?$pair@$$CBII@std@@@2@@std@@QAE@XZ DD 0ffffffffH
	DD	FLAT:__unwindfunclet$??1?$list@U?$pair@$$CBII@std@@V?$allocator@U?$pair@$$CBII@std@@@2@@std@@QAE@XZ$0
__ehfuncinfo$??1?$list@U?$pair@$$CBII@std@@V?$allocator@U?$pair@$$CBII@std@@@2@@std@@QAE@XZ DD 019930522H
	DD	01H
	DD	FLAT:__unwindtable$??1?$list@U?$pair@$$CBII@std@@V?$allocator@U?$pair@$$CBII@std@@@2@@std@@QAE@XZ
	DD	2 DUP(00H)
	DD	2 DUP(00H)
	DD	00H
	DD	01H
; Function compile flags: /Odtp /RTCcsu /ZI
xdata$x	ENDS
;	COMDAT ??1?$list@U?$pair@$$CBII@std@@V?$allocator@U?$pair@$$CBII@std@@@2@@std@@QAE@XZ
_TEXT	SEGMENT
_this$ = -20						; size = 4
__$EHRec$ = -12						; size = 12
??1?$list@U?$pair@$$CBII@std@@V?$allocator@U?$pair@$$CBII@std@@@2@@std@@QAE@XZ PROC ; std::list<std::pair<unsigned int const ,unsigned int>,std::allocator<std::pair<unsigned int const ,unsigned int> > >::~list<std::pair<unsigned int const ,unsigned int>,std::allocator<std::pair<unsigned int const ,unsigned int> > >, COMDAT
; _this$ = ecx

; 520  : 		{	// destroy the object

	push	ebp
	mov	ebp, esp
	push	-1
	push	__ehhandler$??1?$list@U?$pair@$$CBII@std@@V?$allocator@U?$pair@$$CBII@std@@@2@@std@@QAE@XZ
	mov	eax, DWORD PTR fs:0
	push	eax
	sub	esp, 204				; 000000ccH
	push	ebx
	push	esi
	push	edi
	push	ecx
	lea	edi, DWORD PTR [ebp-216]
	mov	ecx, 51					; 00000033H
	mov	eax, -858993460				; ccccccccH
	rep stosd
	pop	ecx
	mov	eax, DWORD PTR ___security_cookie
	xor	eax, ebp
	push	eax
	lea	eax, DWORD PTR __$EHRec$[ebp]
	mov	DWORD PTR fs:0, eax
	mov	DWORD PTR _this$[ebp], ecx
	mov	DWORD PTR __$EHRec$[ebp+8], 0

; 521  : 		_Tidy();

	mov	ecx, DWORD PTR _this$[ebp]
	call	?_Tidy@?$list@U?$pair@$$CBII@std@@V?$allocator@U?$pair@$$CBII@std@@@2@@std@@IAEXXZ ; std::list<std::pair<unsigned int const ,unsigned int>,std::allocator<std::pair<unsigned int const ,unsigned int> > >::_Tidy

; 522  : 		}

	mov	DWORD PTR __$EHRec$[ebp+8], -1
	mov	ecx, DWORD PTR _this$[ebp]
	call	??1?$_List_val@U?$pair@$$CBII@std@@V?$allocator@U?$pair@$$CBII@std@@@2@@std@@QAE@XZ
	mov	ecx, DWORD PTR __$EHRec$[ebp]
	mov	DWORD PTR fs:0, ecx
	pop	ecx
	pop	edi
	pop	esi
	pop	ebx
	add	esp, 216				; 000000d8H
	cmp	ebp, esp
	call	__RTC_CheckEsp
	mov	esp, ebp
	pop	ebp
	ret	0
_TEXT	ENDS
;	COMDAT text$x
text$x	SEGMENT
__unwindfunclet$??1?$list@U?$pair@$$CBII@std@@V?$allocator@U?$pair@$$CBII@std@@@2@@std@@QAE@XZ$0:
	mov	ecx, DWORD PTR _this$[ebp]
	jmp	??1?$_List_val@U?$pair@$$CBII@std@@V?$allocator@U?$pair@$$CBII@std@@@2@@std@@QAE@XZ
__ehhandler$??1?$list@U?$pair@$$CBII@std@@V?$allocator@U?$pair@$$CBII@std@@@2@@std@@QAE@XZ:
	mov	edx, DWORD PTR [esp+8]
	lea	eax, DWORD PTR [edx+12]
	mov	ecx, DWORD PTR [edx-220]
	xor	ecx, eax
	call	@__security_check_cookie@4
	mov	eax, OFFSET __ehfuncinfo$??1?$list@U?$pair@$$CBII@std@@V?$allocator@U?$pair@$$CBII@std@@@2@@std@@QAE@XZ
	jmp	___CxxFrameHandler3
text$x	ENDS
??1?$list@U?$pair@$$CBII@std@@V?$allocator@U?$pair@$$CBII@std@@@2@@std@@QAE@XZ ENDP ; std::list<std::pair<unsigned int const ,unsigned int>,std::allocator<std::pair<unsigned int const ,unsigned int> > >::~list<std::pair<unsigned int const ,unsigned int>,std::allocator<std::pair<unsigned int const ,unsigned int> > >
PUBLIC	??1?$_Vector_val@V?$_Iterator@$00@?$list@U?$pair@$$CBII@std@@V?$allocator@U?$pair@$$CBII@std@@@2@@std@@V?$allocator@V?$_Iterator@$00@?$list@U?$pair@$$CBII@std@@V?$allocator@U?$pair@$$CBII@std@@@2@@std@@@3@@std@@QAE@XZ ; std::_Vector_val<std::list<std::pair<unsigned int const ,unsigned int>,std::allocator<std::pair<unsigned int const ,unsigned int> > >::_Iterator<1>,std::allocator<std::list<std::pair<unsigned int const ,unsigned int>,std::allocator<std::pair<unsigned int const ,unsigned int> > >::_Iterator<1> > >::~_Vector_val<std::list<std::pair<unsigned int const ,unsigned int>,std::allocator<std::pair<unsigned int const ,unsigned int> > >::_Iterator<1>,std::allocator<std::list<std::pair<unsigned int const ,unsigned int>,std::allocator<std::pair<unsigned int const ,unsigned int> > >::_Iterator<1> > >
PUBLIC	?_Tidy@?$vector@V?$_Iterator@$00@?$list@U?$pair@$$CBII@std@@V?$allocator@U?$pair@$$CBII@std@@@2@@std@@V?$allocator@V?$_Iterator@$00@?$list@U?$pair@$$CBII@std@@V?$allocator@U?$pair@$$CBII@std@@@2@@std@@@3@@std@@IAEXXZ ; std::vector<std::list<std::pair<unsigned int const ,unsigned int>,std::allocator<std::pair<unsigned int const ,unsigned int> > >::_Iterator<1>,std::allocator<std::list<std::pair<unsigned int const ,unsigned int>,std::allocator<std::pair<unsigned int const ,unsigned int> > >::_Iterator<1> > >::_Tidy
;	COMDAT xdata$x
; File c:\program files\microsoft visual studio 9.0\vc\include\vector
xdata$x	SEGMENT
__unwindtable$??1?$vector@V?$_Iterator@$00@?$list@U?$pair@$$CBII@std@@V?$allocator@U?$pair@$$CBII@std@@@2@@std@@V?$allocator@V?$_Iterator@$00@?$list@U?$pair@$$CBII@std@@V?$allocator@U?$pair@$$CBII@std@@@2@@std@@@3@@std@@QAE@XZ DD 0ffffffffH
	DD	FLAT:__unwindfunclet$??1?$vector@V?$_Iterator@$00@?$list@U?$pair@$$CBII@std@@V?$allocator@U?$pair@$$CBII@std@@@2@@std@@V?$allocator@V?$_Iterator@$00@?$list@U?$pair@$$CBII@std@@V?$allocator@U?$pair@$$CBII@std@@@2@@std@@@3@@std@@QAE@XZ$0
__ehfuncinfo$??1?$vector@V?$_Iterator@$00@?$list@U?$pair@$$CBII@std@@V?$allocator@U?$pair@$$CBII@std@@@2@@std@@V?$allocator@V?$_Iterator@$00@?$list@U?$pair@$$CBII@std@@V?$allocator@U?$pair@$$CBII@std@@@2@@std@@@3@@std@@QAE@XZ DD 019930522H
	DD	01H
	DD	FLAT:__unwindtable$??1?$vector@V?$_Iterator@$00@?$list@U?$pair@$$CBII@std@@V?$allocator@U?$pair@$$CBII@std@@@2@@std@@V?$allocator@V?$_Iterator@$00@?$list@U?$pair@$$CBII@std@@V?$allocator@U?$pair@$$CBII@std@@@2@@std@@@3@@std@@QAE@XZ
	DD	2 DUP(00H)
	DD	2 DUP(00H)
	DD	00H
	DD	01H
; Function compile flags: /Odtp /RTCcsu /ZI
xdata$x	ENDS
;	COMDAT ??1?$vector@V?$_Iterator@$00@?$list@U?$pair@$$CBII@std@@V?$allocator@U?$pair@$$CBII@std@@@2@@std@@V?$allocator@V?$_Iterator@$00@?$list@U?$pair@$$CBII@std@@V?$allocator@U?$pair@$$CBII@std@@@2@@std@@@3@@std@@QAE@XZ
_TEXT	SEGMENT
_this$ = -20						; size = 4
__$EHRec$ = -12						; size = 12
??1?$vector@V?$_Iterator@$00@?$list@U?$pair@$$CBII@std@@V?$allocator@U?$pair@$$CBII@std@@@2@@std@@V?$allocator@V?$_Iterator@$00@?$list@U?$pair@$$CBII@std@@V?$allocator@U?$pair@$$CBII@std@@@2@@std@@@3@@std@@QAE@XZ PROC ; std::vector<std::list<std::pair<unsigned int const ,unsigned int>,std::allocator<std::pair<unsigned int const ,unsigned int> > >::_Iterator<1>,std::allocator<std::list<std::pair<unsigned int const ,unsigned int>,std::allocator<std::pair<unsigned int const ,unsigned int> > >::_Iterator<1> > >::~vector<std::list<std::pair<unsigned int const ,unsigned int>,std::allocator<std::pair<unsigned int const ,unsigned int> > >::_Iterator<1>,std::allocator<std::list<std::pair<unsigned int const ,unsigned int>,std::allocator<std::pair<unsigned int const ,unsigned int> > >::_Iterator<1> > >, COMDAT
; _this$ = ecx

; 558  : 		{	// destroy the object

	push	ebp
	mov	ebp, esp
	push	-1
	push	__ehhandler$??1?$vector@V?$_Iterator@$00@?$list@U?$pair@$$CBII@std@@V?$allocator@U?$pair@$$CBII@std@@@2@@std@@V?$allocator@V?$_Iterator@$00@?$list@U?$pair@$$CBII@std@@V?$allocator@U?$pair@$$CBII@std@@@2@@std@@@3@@std@@QAE@XZ
	mov	eax, DWORD PTR fs:0
	push	eax
	sub	esp, 204				; 000000ccH
	push	ebx
	push	esi
	push	edi
	push	ecx
	lea	edi, DWORD PTR [ebp-216]
	mov	ecx, 51					; 00000033H
	mov	eax, -858993460				; ccccccccH
	rep stosd
	pop	ecx
	mov	eax, DWORD PTR ___security_cookie
	xor	eax, ebp
	push	eax
	lea	eax, DWORD PTR __$EHRec$[ebp]
	mov	DWORD PTR fs:0, eax
	mov	DWORD PTR _this$[ebp], ecx
	mov	DWORD PTR __$EHRec$[ebp+8], 0

; 559  : 		_Tidy();

	mov	ecx, DWORD PTR _this$[ebp]
	call	?_Tidy@?$vector@V?$_Iterator@$00@?$list@U?$pair@$$CBII@std@@V?$allocator@U?$pair@$$CBII@std@@@2@@std@@V?$allocator@V?$_Iterator@$00@?$list@U?$pair@$$CBII@std@@V?$allocator@U?$pair@$$CBII@std@@@2@@std@@@3@@std@@IAEXXZ ; std::vector<std::list<std::pair<unsigned int const ,unsigned int>,std::allocator<std::pair<unsigned int const ,unsigned int> > >::_Iterator<1>,std::allocator<std::list<std::pair<unsigned int const ,unsigned int>,std::allocator<std::pair<unsigned int const ,unsigned int> > >::_Iterator<1> > >::_Tidy

; 560  : 		}

	mov	DWORD PTR __$EHRec$[ebp+8], -1
	mov	ecx, DWORD PTR _this$[ebp]
	call	??1?$_Vector_val@V?$_Iterator@$00@?$list@U?$pair@$$CBII@std@@V?$allocator@U?$pair@$$CBII@std@@@2@@std@@V?$allocator@V?$_Iterator@$00@?$list@U?$pair@$$CBII@std@@V?$allocator@U?$pair@$$CBII@std@@@2@@std@@@3@@std@@QAE@XZ
	mov	ecx, DWORD PTR __$EHRec$[ebp]
	mov	DWORD PTR fs:0, ecx
	pop	ecx
	pop	edi
	pop	esi
	pop	ebx
	add	esp, 216				; 000000d8H
	cmp	ebp, esp
	call	__RTC_CheckEsp
	mov	esp, ebp
	pop	ebp
	ret	0
_TEXT	ENDS
;	COMDAT text$x
text$x	SEGMENT
__unwindfunclet$??1?$vector@V?$_Iterator@$00@?$list@U?$pair@$$CBII@std@@V?$allocator@U?$pair@$$CBII@std@@@2@@std@@V?$allocator@V?$_Iterator@$00@?$list@U?$pair@$$CBII@std@@V?$allocator@U?$pair@$$CBII@std@@@2@@std@@@3@@std@@QAE@XZ$0:
	mov	ecx, DWORD PTR _this$[ebp]
	jmp	??1?$_Vector_val@V?$_Iterator@$00@?$list@U?$pair@$$CBII@std@@V?$allocator@U?$pair@$$CBII@std@@@2@@std@@V?$allocator@V?$_Iterator@$00@?$list@U?$pair@$$CBII@std@@V?$allocator@U?$pair@$$CBII@std@@@2@@std@@@3@@std@@QAE@XZ
__ehhandler$??1?$vector@V?$_Iterator@$00@?$list@U?$pair@$$CBII@std@@V?$allocator@U?$pair@$$CBII@std@@@2@@std@@V?$allocator@V?$_Iterator@$00@?$list@U?$pair@$$CBII@std@@V?$allocator@U?$pair@$$CBII@std@@@2@@std@@@3@@std@@QAE@XZ:
	mov	edx, DWORD PTR [esp+8]
	lea	eax, DWORD PTR [edx+12]
	mov	ecx, DWORD PTR [edx-220]
	xor	ecx, eax
	call	@__security_check_cookie@4
	mov	eax, OFFSET __ehfuncinfo$??1?$vector@V?$_Iterator@$00@?$list@U?$pair@$$CBII@std@@V?$allocator@U?$pair@$$CBII@std@@@2@@std@@V?$allocator@V?$_Iterator@$00@?$list@U?$pair@$$CBII@std@@V?$allocator@U?$pair@$$CBII@std@@@2@@std@@@3@@std@@QAE@XZ
	jmp	___CxxFrameHandler3
text$x	ENDS
??1?$vector@V?$_Iterator@$00@?$list@U?$pair@$$CBII@std@@V?$allocator@U?$pair@$$CBII@std@@@2@@std@@V?$allocator@V?$_Iterator@$00@?$list@U?$pair@$$CBII@std@@V?$allocator@U?$pair@$$CBII@std@@@2@@std@@@3@@std@@QAE@XZ ENDP ; std::vector<std::list<std::pair<unsigned int const ,unsigned int>,std::allocator<std::pair<unsigned int const ,unsigned int> > >::_Iterator<1>,std::allocator<std::list<std::pair<unsigned int const ,unsigned int>,std::allocator<std::pair<unsigned int const ,unsigned int> > >::_Iterator<1> > >::~vector<std::list<std::pair<unsigned int const ,unsigned int>,std::allocator<std::pair<unsigned int const ,unsigned int> > >::_Iterator<1>,std::allocator<std::list<std::pair<unsigned int const ,unsigned int>,std::allocator<std::pair<unsigned int const ,unsigned int> > >::_Iterator<1> > >
PUBLIC	??1const_iterator@?$_Tree@V?$_Tmap_traits@_KVDelayCounter@Statistics@DRAMsimII@@U?$less@_K@std@@V?$allocator@U?$pair@$$CB_KVDelayCounter@Statistics@DRAMsimII@@@std@@@5@$0A@@std@@@std@@QAE@XZ ; std::_Tree<std::_Tmap_traits<unsigned __int64,DRAMsimII::Statistics::DelayCounter,std::less<unsigned __int64>,std::allocator<std::pair<unsigned __int64 const ,DRAMsimII::Statistics::DelayCounter> >,0> >::const_iterator::~const_iterator
PUBLIC	?deallocate@?$allocator@U_Node@?$_Tree_nod@V?$_Tmap_traits@_KVDelayCounter@Statistics@DRAMsimII@@U?$less@_K@std@@V?$allocator@U?$pair@$$CB_KVDelayCounter@Statistics@DRAMsimII@@@std@@@5@$0A@@std@@@std@@@std@@QAEXPAU_Node@?$_Tree_nod@V?$_Tmap_traits@_KVDelayCounter@Statistics@DRAMsimII@@U?$less@_K@std@@V?$allocator@U?$pair@$$CB_KVDelayCounter@Statistics@DRAMsimII@@@std@@@5@$0A@@std@@@2@I@Z ; std::allocator<std::_Tree_nod<std::_Tmap_traits<unsigned __int64,DRAMsimII::Statistics::DelayCounter,std::less<unsigned __int64>,std::allocator<std::pair<unsigned __int64 const ,DRAMsimII::Statistics::DelayCounter> >,0> >::_Node>::deallocate
PUBLIC	?_Right@?$_Tree@V?$_Tmap_traits@_KVDelayCounter@Statistics@DRAMsimII@@U?$less@_K@std@@V?$allocator@U?$pair@$$CB_KVDelayCounter@Statistics@DRAMsimII@@@std@@@5@$0A@@std@@@std@@KAAAPAU_Node@?$_Tree_nod@V?$_Tmap_traits@_KVDelayCounter@Statistics@DRAMsimII@@U?$less@_K@std@@V?$allocator@U?$pair@$$CB_KVDelayCounter@Statistics@DRAMsimII@@@std@@@5@$0A@@std@@@2@PAU342@@Z ; std::_Tree<std::_Tmap_traits<unsigned __int64,DRAMsimII::Statistics::DelayCounter,std::less<unsigned __int64>,std::allocator<std::pair<unsigned __int64 const ,DRAMsimII::Statistics::DelayCounter> >,0> >::_Right
PUBLIC	?_Parent@?$_Tree@V?$_Tmap_traits@_KVDelayCounter@Statistics@DRAMsimII@@U?$less@_K@std@@V?$allocator@U?$pair@$$CB_KVDelayCounter@Statistics@DRAMsimII@@@std@@@5@$0A@@std@@@std@@KAAAPAU_Node@?$_Tree_nod@V?$_Tmap_traits@_KVDelayCounter@Statistics@DRAMsimII@@U?$less@_K@std@@V?$allocator@U?$pair@$$CB_KVDelayCounter@Statistics@DRAMsimII@@@std@@@5@$0A@@std@@@2@PAU342@@Z ; std::_Tree<std::_Tmap_traits<unsigned __int64,DRAMsimII::Statistics::DelayCounter,std::less<unsigned __int64>,std::allocator<std::pair<unsigned __int64 const ,DRAMsimII::Statistics::DelayCounter> >,0> >::_Parent
PUBLIC	?destroy@?$allocator@PAU_Node@?$_Tree_nod@V?$_Tmap_traits@_KVDelayCounter@Statistics@DRAMsimII@@U?$less@_K@std@@V?$allocator@U?$pair@$$CB_KVDelayCounter@Statistics@DRAMsimII@@@std@@@5@$0A@@std@@@std@@@std@@QAEXPAPAU_Node@?$_Tree_nod@V?$_Tmap_traits@_KVDelayCounter@Statistics@DRAMsimII@@U?$less@_K@std@@V?$allocator@U?$pair@$$CB_KVDelayCounter@Statistics@DRAMsimII@@@std@@@5@$0A@@std@@@2@@Z ; std::allocator<std::_Tree_nod<std::_Tmap_traits<unsigned __int64,DRAMsimII::Statistics::DelayCounter,std::less<unsigned __int64>,std::allocator<std::pair<unsigned __int64 const ,DRAMsimII::Statistics::DelayCounter> >,0> >::_Node *>::destroy
PUBLIC	?_Left@?$_Tree@V?$_Tmap_traits@_KVDelayCounter@Statistics@DRAMsimII@@U?$less@_K@std@@V?$allocator@U?$pair@$$CB_KVDelayCounter@Statistics@DRAMsimII@@@std@@@5@$0A@@std@@@std@@KAAAPAU_Node@?$_Tree_nod@V?$_Tmap_traits@_KVDelayCounter@Statistics@DRAMsimII@@U?$less@_K@std@@V?$allocator@U?$pair@$$CB_KVDelayCounter@Statistics@DRAMsimII@@@std@@@5@$0A@@std@@@2@PAU342@@Z ; std::_Tree<std::_Tmap_traits<unsigned __int64,DRAMsimII::Statistics::DelayCounter,std::less<unsigned __int64>,std::allocator<std::pair<unsigned __int64 const ,DRAMsimII::Statistics::DelayCounter> >,0> >::_Left
PUBLIC	??1iterator@?$_Tree@V?$_Tmap_traits@_KVDelayCounter@Statistics@DRAMsimII@@U?$less@_K@std@@V?$allocator@U?$pair@$$CB_KVDelayCounter@Statistics@DRAMsimII@@@std@@@5@$0A@@std@@@std@@QAE@XZ ; std::_Tree<std::_Tmap_traits<unsigned __int64,DRAMsimII::Statistics::DelayCounter,std::less<unsigned __int64>,std::allocator<std::pair<unsigned __int64 const ,DRAMsimII::Statistics::DelayCounter> >,0> >::iterator::~iterator
PUBLIC	?erase@?$_Tree@V?$_Tmap_traits@_KVDelayCounter@Statistics@DRAMsimII@@U?$less@_K@std@@V?$allocator@U?$pair@$$CB_KVDelayCounter@Statistics@DRAMsimII@@@std@@@5@$0A@@std@@@std@@QAE?AViterator@12@Vconst_iterator@12@0@Z ; std::_Tree<std::_Tmap_traits<unsigned __int64,DRAMsimII::Statistics::DelayCounter,std::less<unsigned __int64>,std::allocator<std::pair<unsigned __int64 const ,DRAMsimII::Statistics::DelayCounter> >,0> >::erase
PUBLIC	?begin@?$_Tree@V?$_Tmap_traits@_KVDelayCounter@Statistics@DRAMsimII@@U?$less@_K@std@@V?$allocator@U?$pair@$$CB_KVDelayCounter@Statistics@DRAMsimII@@@std@@@5@$0A@@std@@@std@@QAE?AViterator@12@XZ ; std::_Tree<std::_Tmap_traits<unsigned __int64,DRAMsimII::Statistics::DelayCounter,std::less<unsigned __int64>,std::allocator<std::pair<unsigned __int64 const ,DRAMsimII::Statistics::DelayCounter> >,0> >::begin
PUBLIC	??0const_iterator@?$_Tree@V?$_Tmap_traits@_KVDelayCounter@Statistics@DRAMsimII@@U?$less@_K@std@@V?$allocator@U?$pair@$$CB_KVDelayCounter@Statistics@DRAMsimII@@@std@@@5@$0A@@std@@@std@@QAE@ABV012@@Z ; std::_Tree<std::_Tmap_traits<unsigned __int64,DRAMsimII::Statistics::DelayCounter,std::less<unsigned __int64>,std::allocator<std::pair<unsigned __int64 const ,DRAMsimII::Statistics::DelayCounter> >,0> >::const_iterator::const_iterator
PUBLIC	?end@?$_Tree@V?$_Tmap_traits@_KVDelayCounter@Statistics@DRAMsimII@@U?$less@_K@std@@V?$allocator@U?$pair@$$CB_KVDelayCounter@Statistics@DRAMsimII@@@std@@@5@$0A@@std@@@std@@QAE?AViterator@12@XZ ; std::_Tree<std::_Tmap_traits<unsigned __int64,DRAMsimII::Statistics::DelayCounter,std::less<unsigned __int64>,std::allocator<std::pair<unsigned __int64 const ,DRAMsimII::Statistics::DelayCounter> >,0> >::end
;	COMDAT xdata$x
; File c:\program files\microsoft visual studio 9.0\vc\include\xtree
xdata$x	SEGMENT
__unwindtable$?_Tidy@?$_Tree@V?$_Tmap_traits@_KVDelayCounter@Statistics@DRAMsimII@@U?$less@_K@std@@V?$allocator@U?$pair@$$CB_KVDelayCounter@Statistics@DRAMsimII@@@std@@@5@$0A@@std@@@std@@IAEXXZ DD 0ffffffffH
	DD	FLAT:__unwindfunclet$?_Tidy@?$_Tree@V?$_Tmap_traits@_KVDelayCounter@Statistics@DRAMsimII@@U?$less@_K@std@@V?$allocator@U?$pair@$$CB_KVDelayCounter@Statistics@DRAMsimII@@@std@@@5@$0A@@std@@@std@@IAEXXZ$0
	DD	00H
	DD	FLAT:__unwindfunclet$?_Tidy@?$_Tree@V?$_Tmap_traits@_KVDelayCounter@Statistics@DRAMsimII@@U?$less@_K@std@@V?$allocator@U?$pair@$$CB_KVDelayCounter@Statistics@DRAMsimII@@@std@@@5@$0A@@std@@@std@@IAEXXZ$1
	DD	01H
