; Listing generated by Microsoft (R) Optimizing Compiler Version 15.00.30729.01 

	TITLE	c:\Users\CriuS\Documents\Visual Studio 2008\Projects\DRAMsimIIhg\src\Rank.cpp
	.686P
	.XMM
	include listing.inc
	.model	flat

INCLUDELIB MSVCRTD
INCLUDELIB OLDNAMES

PUBLIC	??_C@_0P@GHFPNOJB@bad?5allocation?$AA@		; `string'
PUBLIC	?_Value@?$_Is_swap_move@U_Swap_move_tag@std@@@std@@2_NB ; std::_Is_swap_move<std::_Swap_move_tag>::_Value
PUBLIC	?collate@?$_Locbase@H@std@@2HB			; std::_Locbase<int>::collate
PUBLIC	?ctype@?$_Locbase@H@std@@2HB			; std::_Locbase<int>::ctype
PUBLIC	?monetary@?$_Locbase@H@std@@2HB			; std::_Locbase<int>::monetary
PUBLIC	?numeric@?$_Locbase@H@std@@2HB			; std::_Locbase<int>::numeric
PUBLIC	?time@?$_Locbase@H@std@@2HB			; std::_Locbase<int>::time
PUBLIC	?messages@?$_Locbase@H@std@@2HB			; std::_Locbase<int>::messages
PUBLIC	?all@?$_Locbase@H@std@@2HB			; std::_Locbase<int>::all
PUBLIC	?none@?$_Locbase@H@std@@2HB			; std::_Locbase<int>::none
PUBLIC	?skipws@?$_Iosb@H@std@@2W4_Fmtflags@12@B	; std::_Iosb<int>::skipws
PUBLIC	?unitbuf@?$_Iosb@H@std@@2W4_Fmtflags@12@B	; std::_Iosb<int>::unitbuf
PUBLIC	?uppercase@?$_Iosb@H@std@@2W4_Fmtflags@12@B	; std::_Iosb<int>::uppercase
PUBLIC	?showbase@?$_Iosb@H@std@@2W4_Fmtflags@12@B	; std::_Iosb<int>::showbase
PUBLIC	?showpoint@?$_Iosb@H@std@@2W4_Fmtflags@12@B	; std::_Iosb<int>::showpoint
PUBLIC	?showpos@?$_Iosb@H@std@@2W4_Fmtflags@12@B	; std::_Iosb<int>::showpos
PUBLIC	?left@?$_Iosb@H@std@@2W4_Fmtflags@12@B		; std::_Iosb<int>::left
PUBLIC	?right@?$_Iosb@H@std@@2W4_Fmtflags@12@B		; std::_Iosb<int>::right
PUBLIC	?internal@?$_Iosb@H@std@@2W4_Fmtflags@12@B	; std::_Iosb<int>::internal
PUBLIC	?dec@?$_Iosb@H@std@@2W4_Fmtflags@12@B		; std::_Iosb<int>::dec
PUBLIC	?oct@?$_Iosb@H@std@@2W4_Fmtflags@12@B		; std::_Iosb<int>::oct
PUBLIC	?hex@?$_Iosb@H@std@@2W4_Fmtflags@12@B		; std::_Iosb<int>::hex
PUBLIC	?scientific@?$_Iosb@H@std@@2W4_Fmtflags@12@B	; std::_Iosb<int>::scientific
PUBLIC	?fixed@?$_Iosb@H@std@@2W4_Fmtflags@12@B		; std::_Iosb<int>::fixed
PUBLIC	?hexfloat@?$_Iosb@H@std@@2W4_Fmtflags@12@B	; std::_Iosb<int>::hexfloat
PUBLIC	?boolalpha@?$_Iosb@H@std@@2W4_Fmtflags@12@B	; std::_Iosb<int>::boolalpha
PUBLIC	?_Stdio@?$_Iosb@H@std@@2W4_Fmtflags@12@B	; std::_Iosb<int>::_Stdio
PUBLIC	?adjustfield@?$_Iosb@H@std@@2W4_Fmtflags@12@B	; std::_Iosb<int>::adjustfield
PUBLIC	?basefield@?$_Iosb@H@std@@2W4_Fmtflags@12@B	; std::_Iosb<int>::basefield
PUBLIC	?floatfield@?$_Iosb@H@std@@2W4_Fmtflags@12@B	; std::_Iosb<int>::floatfield
PUBLIC	?goodbit@?$_Iosb@H@std@@2W4_Iostate@12@B	; std::_Iosb<int>::goodbit
PUBLIC	?eofbit@?$_Iosb@H@std@@2W4_Iostate@12@B		; std::_Iosb<int>::eofbit
PUBLIC	?failbit@?$_Iosb@H@std@@2W4_Iostate@12@B	; std::_Iosb<int>::failbit
PUBLIC	?badbit@?$_Iosb@H@std@@2W4_Iostate@12@B		; std::_Iosb<int>::badbit
PUBLIC	?_Hardfail@?$_Iosb@H@std@@2W4_Iostate@12@B	; std::_Iosb<int>::_Hardfail
PUBLIC	?in@?$_Iosb@H@std@@2W4_Openmode@12@B		; std::_Iosb<int>::in
PUBLIC	?out@?$_Iosb@H@std@@2W4_Openmode@12@B		; std::_Iosb<int>::out
PUBLIC	?ate@?$_Iosb@H@std@@2W4_Openmode@12@B		; std::_Iosb<int>::ate
PUBLIC	?app@?$_Iosb@H@std@@2W4_Openmode@12@B		; std::_Iosb<int>::app
PUBLIC	?trunc@?$_Iosb@H@std@@2W4_Openmode@12@B		; std::_Iosb<int>::trunc
PUBLIC	?_Nocreate@?$_Iosb@H@std@@2W4_Openmode@12@B	; std::_Iosb<int>::_Nocreate
PUBLIC	?_Noreplace@?$_Iosb@H@std@@2W4_Openmode@12@B	; std::_Iosb<int>::_Noreplace
PUBLIC	?binary@?$_Iosb@H@std@@2W4_Openmode@12@B	; std::_Iosb<int>::binary
PUBLIC	?beg@?$_Iosb@H@std@@2W4_Seekdir@12@B		; std::_Iosb<int>::beg
PUBLIC	?cur@?$_Iosb@H@std@@2W4_Seekdir@12@B		; std::_Iosb<int>::cur
PUBLIC	?end@?$_Iosb@H@std@@2W4_Seekdir@12@B		; std::_Iosb<int>::end
PUBLIC	?value@integral_c_tag@mpl@boost@@2HB		; boost::mpl::integral_c_tag::value
PUBLIC	?value@?$bool_@$00@mpl@boost@@2_NB		; boost::mpl::bool_<1>::value
PUBLIC	?value@?$bool_@$0A@@mpl@boost@@2_NB		; boost::mpl::bool_<0>::value
PUBLIC	?value@?$ice_or@$0A@$0A@$0A@$0A@$0A@$0A@$0A@@type_traits@boost@@2_NB ; boost::type_traits::ice_or<0,0,0,0,0,0,0>::value
PUBLIC	?value@?$is_member_function_pointer_impl@X@detail@boost@@2_NB ; boost::detail::is_member_function_pointer_impl<void>::value
PUBLIC	?value@?$is_member_function_pointer_impl@$$CBX@detail@boost@@2_NB ; boost::detail::is_member_function_pointer_impl<void const >::value
PUBLIC	?value@?$is_member_function_pointer_impl@$$CCX@detail@boost@@2_NB ; boost::detail::is_member_function_pointer_impl<void volatile >::value
PUBLIC	?value@?$is_member_function_pointer_impl@$$CDX@detail@boost@@2_NB ; boost::detail::is_member_function_pointer_impl<void const volatile >::value
PUBLIC	?value@?$ice_and@$00$00$00$00$00$00$00@type_traits@boost@@2_NB ; boost::type_traits::ice_and<1,1,1,1,1,1,1>::value
PUBLIC	?value@?$ice_not@$00@type_traits@boost@@2_NB	; boost::type_traits::ice_not<1>::value
PUBLIC	?value@?$integral_constant@_N$0A@@tr1@std@@2_NB	; std::tr1::integral_constant<bool,0>::value
PUBLIC	?value@?$integral_constant@_N$00@tr1@std@@2_NB	; std::tr1::integral_constant<bool,1>::value
PUBLIC	?is_integral@?$integer_traits_base@_N$0A@$00@detail@boost@@2_NB ; boost::detail::integer_traits_base<bool,0,1>::is_integral
PUBLIC	?const_min@?$integer_traits_base@_N$0A@$00@detail@boost@@2_NB ; boost::detail::integer_traits_base<bool,0,1>::const_min
PUBLIC	?const_max@?$integer_traits_base@_N$0A@$00@detail@boost@@2_NB ; boost::detail::integer_traits_base<bool,0,1>::const_max
PUBLIC	?is_integral@?$integer_traits_base@D$0?IA@$0HP@@detail@boost@@2_NB ; boost::detail::integer_traits_base<char,-128,127>::is_integral
PUBLIC	?const_min@?$integer_traits_base@D$0?IA@$0HP@@detail@boost@@2DB ; boost::detail::integer_traits_base<char,-128,127>::const_min
PUBLIC	?const_max@?$integer_traits_base@D$0?IA@$0HP@@detail@boost@@2DB ; boost::detail::integer_traits_base<char,-128,127>::const_max
PUBLIC	?is_integral@?$integer_traits_base@C$0?IA@$0HP@@detail@boost@@2_NB ; boost::detail::integer_traits_base<signed char,-128,127>::is_integral
PUBLIC	?const_min@?$integer_traits_base@C$0?IA@$0HP@@detail@boost@@2CB ; boost::detail::integer_traits_base<signed char,-128,127>::const_min
PUBLIC	?const_max@?$integer_traits_base@C$0?IA@$0HP@@detail@boost@@2CB ; boost::detail::integer_traits_base<signed char,-128,127>::const_max
PUBLIC	?is_integral@?$integer_traits_base@E$0A@$0PP@@detail@boost@@2_NB ; boost::detail::integer_traits_base<unsigned char,0,255>::is_integral
PUBLIC	?const_min@?$integer_traits_base@E$0A@$0PP@@detail@boost@@2EB ; boost::detail::integer_traits_base<unsigned char,0,255>::const_min
PUBLIC	?const_max@?$integer_traits_base@E$0A@$0PP@@detail@boost@@2EB ; boost::detail::integer_traits_base<unsigned char,0,255>::const_max
PUBLIC	?is_integral@?$integer_traits_base@_W$0A@$0PPPP@@detail@boost@@2_NB ; boost::detail::integer_traits_base<wchar_t,0,65535>::is_integral
PUBLIC	?const_min@?$integer_traits_base@_W$0A@$0PPPP@@detail@boost@@2_WB ; boost::detail::integer_traits_base<wchar_t,0,65535>::const_min
PUBLIC	?const_max@?$integer_traits_base@_W$0A@$0PPPP@@detail@boost@@2_WB ; boost::detail::integer_traits_base<wchar_t,0,65535>::const_max
PUBLIC	?is_integral@?$integer_traits_base@F$0?IAAA@$0HPPP@@detail@boost@@2_NB ; boost::detail::integer_traits_base<short,-32768,32767>::is_integral
PUBLIC	?const_min@?$integer_traits_base@F$0?IAAA@$0HPPP@@detail@boost@@2FB ; boost::detail::integer_traits_base<short,-32768,32767>::const_min
PUBLIC	?const_max@?$integer_traits_base@F$0?IAAA@$0HPPP@@detail@boost@@2FB ; boost::detail::integer_traits_base<short,-32768,32767>::const_max
PUBLIC	?is_integral@?$integer_traits_base@G$0A@$0PPPP@@detail@boost@@2_NB ; boost::detail::integer_traits_base<unsigned short,0,65535>::is_integral
PUBLIC	?const_min@?$integer_traits_base@G$0A@$0PPPP@@detail@boost@@2GB ; boost::detail::integer_traits_base<unsigned short,0,65535>::const_min
PUBLIC	?const_max@?$integer_traits_base@G$0A@$0PPPP@@detail@boost@@2GB ; boost::detail::integer_traits_base<unsigned short,0,65535>::const_max
PUBLIC	?is_integral@?$integer_traits_base@H$0?IAAAAAAA@$0HPPPPPPP@@detail@boost@@2_NB ; boost::detail::integer_traits_base<int,-2147483648,2147483647>::is_integral
PUBLIC	?const_min@?$integer_traits_base@H$0?IAAAAAAA@$0HPPPPPPP@@detail@boost@@2HB ; boost::detail::integer_traits_base<int,-2147483648,2147483647>::const_min
PUBLIC	?const_max@?$integer_traits_base@H$0?IAAAAAAA@$0HPPPPPPP@@detail@boost@@2HB ; boost::detail::integer_traits_base<int,-2147483648,2147483647>::const_max
PUBLIC	?is_integral@?$integer_traits_base@I$0A@$0PPPPPPPP@@detail@boost@@2_NB ; boost::detail::integer_traits_base<unsigned int,0,4294967295>::is_integral
PUBLIC	?const_min@?$integer_traits_base@I$0A@$0PPPPPPPP@@detail@boost@@2IB ; boost::detail::integer_traits_base<unsigned int,0,4294967295>::const_min
PUBLIC	?const_max@?$integer_traits_base@I$0A@$0PPPPPPPP@@detail@boost@@2IB ; boost::detail::integer_traits_base<unsigned int,0,4294967295>::const_max
PUBLIC	?is_integral@?$integer_traits_base@J$0?IAAAAAAA@$0HPPPPPPP@@detail@boost@@2_NB ; boost::detail::integer_traits_base<long,-2147483648,2147483647>::is_integral
PUBLIC	?const_min@?$integer_traits_base@J$0?IAAAAAAA@$0HPPPPPPP@@detail@boost@@2JB ; boost::detail::integer_traits_base<long,-2147483648,2147483647>::const_min
PUBLIC	?const_max@?$integer_traits_base@J$0?IAAAAAAA@$0HPPPPPPP@@detail@boost@@2JB ; boost::detail::integer_traits_base<long,-2147483648,2147483647>::const_max
PUBLIC	?is_integral@?$integer_traits_base@K$0A@$0PPPPPPPP@@detail@boost@@2_NB ; boost::detail::integer_traits_base<unsigned long,0,4294967295>::is_integral
PUBLIC	?const_min@?$integer_traits_base@K$0A@$0PPPPPPPP@@detail@boost@@2KB ; boost::detail::integer_traits_base<unsigned long,0,4294967295>::const_min
PUBLIC	?const_max@?$integer_traits_base@K$0A@$0PPPPPPPP@@detail@boost@@2KB ; boost::detail::integer_traits_base<unsigned long,0,4294967295>::const_max
PUBLIC	?is_integral@?$integer_traits_base@_J$0?IAAAAAAAAAAAAAAA@$0HPPPPPPPPPPPPPPP@@detail@boost@@2_NB ; boost::detail::integer_traits_base<__int64,-9223372036854775808,9223372036854775807>::is_integral
PUBLIC	?const_min@?$integer_traits_base@_J$0?IAAAAAAAAAAAAAAA@$0HPPPPPPPPPPPPPPP@@detail@boost@@2_JB ; boost::detail::integer_traits_base<__int64,-9223372036854775808,9223372036854775807>::const_min
PUBLIC	?const_max@?$integer_traits_base@_J$0?IAAAAAAAAAAAAAAA@$0HPPPPPPPPPPPPPPP@@detail@boost@@2_JB ; boost::detail::integer_traits_base<__int64,-9223372036854775808,9223372036854775807>::const_max
PUBLIC	?is_integral@?$integer_traits_base@_K$0A@$0?0@detail@boost@@2_NB ; boost::detail::integer_traits_base<unsigned __int64,0,-1>::is_integral
PUBLIC	?const_min@?$integer_traits_base@_K$0A@$0?0@detail@boost@@2_KB ; boost::detail::integer_traits_base<unsigned __int64,0,-1>::const_min
PUBLIC	?const_max@?$integer_traits_base@_K$0A@$0?0@detail@boost@@2_KB ; boost::detail::integer_traits_base<unsigned __int64,0,-1>::const_max
PUBLIC	?value@?$is_convertible_impl@XX@detail@boost@@2_NB ; boost::detail::is_convertible_impl<void,void>::value
PUBLIC	?value@?$is_convertible_impl@X$$CBX@detail@boost@@2_NB ; boost::detail::is_convertible_impl<void,void const >::value
PUBLIC	?value@?$is_convertible_impl@X$$CCX@detail@boost@@2_NB ; boost::detail::is_convertible_impl<void,void volatile >::value
PUBLIC	?value@?$is_convertible_impl@X$$CDX@detail@boost@@2_NB ; boost::detail::is_convertible_impl<void,void const volatile >::value
PUBLIC	?value@?$is_convertible_impl@$$CBXX@detail@boost@@2_NB ; boost::detail::is_convertible_impl<void const ,void>::value
PUBLIC	?value@?$is_convertible_impl@$$CBX$$CBX@detail@boost@@2_NB ; boost::detail::is_convertible_impl<void const ,void const >::value
PUBLIC	?value@?$is_convertible_impl@$$CBX$$CCX@detail@boost@@2_NB ; boost::detail::is_convertible_impl<void const ,void volatile >::value
PUBLIC	?value@?$is_convertible_impl@$$CBX$$CDX@detail@boost@@2_NB ; boost::detail::is_convertible_impl<void const ,void const volatile >::value
PUBLIC	?value@?$is_convertible_impl@$$CCXX@detail@boost@@2_NB ; boost::detail::is_convertible_impl<void volatile ,void>::value
PUBLIC	?value@?$is_convertible_impl@$$CCX$$CBX@detail@boost@@2_NB ; boost::detail::is_convertible_impl<void volatile ,void const >::value
PUBLIC	?value@?$is_convertible_impl@$$CCX$$CCX@detail@boost@@2_NB ; boost::detail::is_convertible_impl<void volatile ,void volatile >::value
PUBLIC	?value@?$is_convertible_impl@$$CCX$$CDX@detail@boost@@2_NB ; boost::detail::is_convertible_impl<void volatile ,void const volatile >::value
PUBLIC	?value@?$is_convertible_impl@$$CDXX@detail@boost@@2_NB ; boost::detail::is_convertible_impl<void const volatile ,void>::value
PUBLIC	?value@?$is_convertible_impl@$$CDX$$CBX@detail@boost@@2_NB ; boost::detail::is_convertible_impl<void const volatile ,void const >::value
PUBLIC	?value@?$is_convertible_impl@$$CDX$$CCX@detail@boost@@2_NB ; boost::detail::is_convertible_impl<void const volatile ,void volatile >::value
PUBLIC	?value@?$is_convertible_impl@$$CDX$$CDX@detail@boost@@2_NB ; boost::detail::is_convertible_impl<void const volatile ,void const volatile >::value
PUBLIC	?value@type@?$select_by_size@$00@detail@iostreams@boost@@2HB ; boost::iostreams::detail::select_by_size<1>::type::value
PUBLIC	?value@?$select_by_size@$00@detail@iostreams@boost@@2HB ; boost::iostreams::detail::select_by_size<1>::value
PUBLIC	?value@type@?$select_by_size@$01@detail@iostreams@boost@@2HB ; boost::iostreams::detail::select_by_size<2>::type::value
PUBLIC	?value@?$select_by_size@$01@detail@iostreams@boost@@2HB ; boost::iostreams::detail::select_by_size<2>::value
PUBLIC	?value@type@?$select_by_size@$02@detail@iostreams@boost@@2HB ; boost::iostreams::detail::select_by_size<3>::type::value
PUBLIC	?value@?$select_by_size@$02@detail@iostreams@boost@@2HB ; boost::iostreams::detail::select_by_size<3>::value
PUBLIC	?value@type@?$select_by_size@$03@detail@iostreams@boost@@2HB ; boost::iostreams::detail::select_by_size<4>::type::value
PUBLIC	?value@?$select_by_size@$03@detail@iostreams@boost@@2HB ; boost::iostreams::detail::select_by_size<4>::value
PUBLIC	?value@type@?$select_by_size@$04@detail@iostreams@boost@@2HB ; boost::iostreams::detail::select_by_size<5>::type::value
PUBLIC	?value@?$select_by_size@$04@detail@iostreams@boost@@2HB ; boost::iostreams::detail::select_by_size<5>::value
PUBLIC	?value@type@?$select_by_size@$05@detail@iostreams@boost@@2HB ; boost::iostreams::detail::select_by_size<6>::type::value
PUBLIC	?value@?$select_by_size@$05@detail@iostreams@boost@@2HB ; boost::iostreams::detail::select_by_size<6>::value
PUBLIC	?value@type@?$select_by_size@$06@detail@iostreams@boost@@2HB ; boost::iostreams::detail::select_by_size<7>::type::value
PUBLIC	?value@?$select_by_size@$06@detail@iostreams@boost@@2HB ; boost::iostreams::detail::select_by_size<7>::value
PUBLIC	?value@type@?$select_by_size@$07@detail@iostreams@boost@@2HB ; boost::iostreams::detail::select_by_size<8>::type::value
PUBLIC	?value@?$select_by_size@$07@detail@iostreams@boost@@2HB ; boost::iostreams::detail::select_by_size<8>::value
PUBLIC	?value@type@?$select_by_size@$08@detail@iostreams@boost@@2HB ; boost::iostreams::detail::select_by_size<9>::type::value
PUBLIC	?value@?$select_by_size@$08@detail@iostreams@boost@@2HB ; boost::iostreams::detail::select_by_size<9>::value
PUBLIC	?value@type@?$select_by_size@$09@detail@iostreams@boost@@2HB ; boost::iostreams::detail::select_by_size<10>::type::value
PUBLIC	?value@?$select_by_size@$09@detail@iostreams@boost@@2HB ; boost::iostreams::detail::select_by_size<10>::value
PUBLIC	?value@type@?$select_by_size@$0L@@detail@iostreams@boost@@2HB ; boost::iostreams::detail::select_by_size<11>::type::value
PUBLIC	?value@?$select_by_size@$0L@@detail@iostreams@boost@@2HB ; boost::iostreams::detail::select_by_size<11>::value
PUBLIC	?value@type@?$select_by_size@$0M@@detail@iostreams@boost@@2HB ; boost::iostreams::detail::select_by_size<12>::type::value
PUBLIC	?value@?$select_by_size@$0M@@detail@iostreams@boost@@2HB ; boost::iostreams::detail::select_by_size<12>::value
PUBLIC	?value@type@?$select_by_size@$0N@@detail@iostreams@boost@@2HB ; boost::iostreams::detail::select_by_size<13>::type::value
PUBLIC	?value@?$select_by_size@$0N@@detail@iostreams@boost@@2HB ; boost::iostreams::detail::select_by_size<13>::value
PUBLIC	?value@type@?$select_by_size@$0O@@detail@iostreams@boost@@2HB ; boost::iostreams::detail::select_by_size<14>::type::value
PUBLIC	?value@?$select_by_size@$0O@@detail@iostreams@boost@@2HB ; boost::iostreams::detail::select_by_size<14>::value
PUBLIC	?value@type@?$select_by_size@$0P@@detail@iostreams@boost@@2HB ; boost::iostreams::detail::select_by_size<15>::type::value
PUBLIC	?value@?$select_by_size@$0P@@detail@iostreams@boost@@2HB ; boost::iostreams::detail::select_by_size<15>::value
PUBLIC	?value@type@?$select_by_size@$0BA@@detail@iostreams@boost@@2HB ; boost::iostreams::detail::select_by_size<16>::type::value
PUBLIC	?value@?$select_by_size@$0BA@@detail@iostreams@boost@@2HB ; boost::iostreams::detail::select_by_size<16>::value
PUBLIC	?value@type@?$select_by_size@$0BB@@detail@iostreams@boost@@2HB ; boost::iostreams::detail::select_by_size<17>::type::value
PUBLIC	?value@?$select_by_size@$0BB@@detail@iostreams@boost@@2HB ; boost::iostreams::detail::select_by_size<17>::value
PUBLIC	?value@type@?$select_by_size@$0BC@@detail@iostreams@boost@@2HB ; boost::iostreams::detail::select_by_size<18>::type::value
PUBLIC	?value@?$select_by_size@$0BC@@detail@iostreams@boost@@2HB ; boost::iostreams::detail::select_by_size<18>::value
PUBLIC	?value@type@?$select_by_size@$0BD@@detail@iostreams@boost@@2HB ; boost::iostreams::detail::select_by_size<19>::type::value
PUBLIC	?value@?$select_by_size@$0BD@@detail@iostreams@boost@@2HB ; boost::iostreams::detail::select_by_size<19>::value
PUBLIC	?value@type@?$select_by_size@$0BE@@detail@iostreams@boost@@2HB ; boost::iostreams::detail::select_by_size<20>::type::value
PUBLIC	?value@?$select_by_size@$0BE@@detail@iostreams@boost@@2HB ; boost::iostreams::detail::select_by_size<20>::value
PUBLIC	?value@type@?$select_by_size@$0BF@@detail@iostreams@boost@@2HB ; boost::iostreams::detail::select_by_size<21>::type::value
PUBLIC	?value@?$select_by_size@$0BF@@detail@iostreams@boost@@2HB ; boost::iostreams::detail::select_by_size<21>::value
PUBLIC	?value@?$int_@$00@mpl@boost@@2HB		; boost::mpl::int_<1>::value
PUBLIC	?value@?$int_@$01@mpl@boost@@2HB		; boost::mpl::int_<2>::value
PUBLIC	?value@?$int_@$02@mpl@boost@@2HB		; boost::mpl::int_<3>::value
PUBLIC	?value@?$int_@$03@mpl@boost@@2HB		; boost::mpl::int_<4>::value
PUBLIC	?value@?$int_@$04@mpl@boost@@2HB		; boost::mpl::int_<5>::value
PUBLIC	?value@?$int_@$05@mpl@boost@@2HB		; boost::mpl::int_<6>::value
PUBLIC	?value@?$int_@$06@mpl@boost@@2HB		; boost::mpl::int_<7>::value
PUBLIC	?value@?$int_@$07@mpl@boost@@2HB		; boost::mpl::int_<8>::value
PUBLIC	?value@?$int_@$08@mpl@boost@@2HB		; boost::mpl::int_<9>::value
PUBLIC	?value@?$int_@$09@mpl@boost@@2HB		; boost::mpl::int_<10>::value
PUBLIC	?value@?$int_@$0L@@mpl@boost@@2HB		; boost::mpl::int_<11>::value
PUBLIC	?value@?$int_@$0M@@mpl@boost@@2HB		; boost::mpl::int_<12>::value
PUBLIC	?value@?$arg@$0?0@mpl@boost@@2HB		; boost::mpl::arg<-1>::value
PUBLIC	?value@?$arg@$00@mpl@boost@@2HB			; boost::mpl::arg<1>::value
PUBLIC	?value@?$arg@$01@mpl@boost@@2HB			; boost::mpl::arg<2>::value
PUBLIC	?value@?$arg@$02@mpl@boost@@2HB			; boost::mpl::arg<3>::value
PUBLIC	?value@?$arg@$03@mpl@boost@@2HB			; boost::mpl::arg<4>::value
PUBLIC	?value@?$arg@$04@mpl@boost@@2HB			; boost::mpl::arg<5>::value
PUBLIC	?value@?$is_scalar_impl@X@detail@boost@@2_NB	; boost::detail::is_scalar_impl<void>::value
PUBLIC	?value@?$is_scalar_impl@$$CBX@detail@boost@@2_NB ; boost::detail::is_scalar_impl<void const >::value
PUBLIC	?value@?$is_scalar_impl@$$CCX@detail@boost@@2_NB ; boost::detail::is_scalar_impl<void volatile >::value
PUBLIC	?value@?$is_scalar_impl@$$CDX@detail@boost@@2_NB ; boost::detail::is_scalar_impl<void const volatile >::value
PUBLIC	?value@?$is_pod_impl@X@detail@boost@@2_NB	; boost::detail::is_pod_impl<void>::value
PUBLIC	?value@?$is_pod_impl@$$CBX@detail@boost@@2_NB	; boost::detail::is_pod_impl<void const >::value
PUBLIC	?value@?$is_pod_impl@$$CCX@detail@boost@@2_NB	; boost::detail::is_pod_impl<void volatile >::value
PUBLIC	?value@?$is_pod_impl@$$CDX@detail@boost@@2_NB	; boost::detail::is_pod_impl<void const volatile >::value
PUBLIC	?value@?$integral_c@I$0A@@mpl@boost@@2IB	; boost::mpl::integral_c<unsigned int,0>::value
PUBLIC	?value@?$alignment_logic@$07$07@detail@boost@@2IB ; boost::detail::alignment_logic<8,8>::value
PUBLIC	?value@?$alignment_of_impl@Tmax_align@detail@boost@@@detail@boost@@2IB ; boost::detail::alignment_of_impl<boost::detail::max_align>::value
PUBLIC	?value@?$integral_c@I$07@mpl@boost@@2IB		; boost::mpl::integral_c<unsigned int,8>::value
PUBLIC	?value@?$alignment_logic@$00$00@detail@boost@@2IB ; boost::detail::alignment_logic<1,1>::value
PUBLIC	?value@?$alignment_of_impl@D@detail@boost@@2IB	; boost::detail::alignment_of_impl<char>::value
PUBLIC	?value@?$integral_c@I$00@mpl@boost@@2IB		; boost::mpl::integral_c<unsigned int,1>::value
PUBLIC	?value@?$alignment_logic@$01$01@detail@boost@@2IB ; boost::detail::alignment_logic<2,2>::value
PUBLIC	?value@?$alignment_of_impl@F@detail@boost@@2IB	; boost::detail::alignment_of_impl<short>::value
PUBLIC	?value@?$integral_c@I$01@mpl@boost@@2IB		; boost::mpl::integral_c<unsigned int,2>::value
PUBLIC	?value@?$alignment_logic@$03$03@detail@boost@@2IB ; boost::detail::alignment_logic<4,4>::value
PUBLIC	?value@?$alignment_of_impl@H@detail@boost@@2IB	; boost::detail::alignment_of_impl<int>::value
PUBLIC	?value@?$integral_c@I$03@mpl@boost@@2IB		; boost::mpl::integral_c<unsigned int,4>::value
PUBLIC	?value@?$alignment_of_impl@J@detail@boost@@2IB	; boost::detail::alignment_of_impl<long>::value
PUBLIC	?value@?$alignment_of_impl@_J@detail@boost@@2IB	; boost::detail::alignment_of_impl<__int64>::value
PUBLIC	?value@?$alignment_of_impl@T?$lower_alignment@$07@detail@boost@@@detail@boost@@2IB ; boost::detail::alignment_of_impl<boost::detail::lower_alignment<8> >::value
PUBLIC	?value@?$is_aligned@$07$07@detail@boost@@2_NB	; boost::detail::is_aligned<8,8>::value
PUBLIC	?found@?$type_with_alignment_imp@$07@detail@boost@@0IB ; boost::detail::type_with_alignment_imp<8>::found
PUBLIC	?value@?$is_pod_impl@Ua8@align@boost@@@detail@boost@@2_NB ; boost::detail::is_pod_impl<boost::align::a8>::value
PUBLIC	?value@?$is_pod_impl@Ua16@align@boost@@@detail@boost@@2_NB ; boost::detail::is_pod_impl<boost::align::a16>::value
PUBLIC	?value@?$is_pod_impl@Ua32@align@boost@@@detail@boost@@2_NB ; boost::detail::is_pod_impl<boost::align::a32>::value
PUBLIC	?value@?$is_pod_impl@Ua64@align@boost@@@detail@boost@@2_NB ; boost::detail::is_pod_impl<boost::align::a64>::value
PUBLIC	?value@?$is_pod_impl@Ua128@align@boost@@@detail@boost@@2_NB ; boost::detail::is_pod_impl<boost::align::a128>::value
PUBLIC	?value@?$implementation_level@Ucollection_size_type@serialization@boost@@@serialization@boost@@2HB ; boost::serialization::implementation_level<boost::serialization::collection_size_type>::value
PUBLIC	?value@?$implementation_level@V?$vector@_NV?$allocator@_N@std@@@std@@@serialization@boost@@2HB ; boost::serialization::implementation_level<std::vector<bool,std::allocator<bool> > >::value
PUBLIC	?value@?$implementation_level@V?$vector@DV?$allocator@D@std@@@std@@@serialization@boost@@2HB ; boost::serialization::implementation_level<std::vector<char,std::allocator<char> > >::value
PUBLIC	?value@?$implementation_level@V?$vector@CV?$allocator@C@std@@@std@@@serialization@boost@@2HB ; boost::serialization::implementation_level<std::vector<signed char,std::allocator<signed char> > >::value
PUBLIC	?value@?$implementation_level@V?$vector@EV?$allocator@E@std@@@std@@@serialization@boost@@2HB ; boost::serialization::implementation_level<std::vector<unsigned char,std::allocator<unsigned char> > >::value
PUBLIC	?value@?$implementation_level@V?$vector@HV?$allocator@H@std@@@std@@@serialization@boost@@2HB ; boost::serialization::implementation_level<std::vector<int,std::allocator<int> > >::value
PUBLIC	?value@?$implementation_level@V?$vector@IV?$allocator@I@std@@@std@@@serialization@boost@@2HB ; boost::serialization::implementation_level<std::vector<unsigned int,std::allocator<unsigned int> > >::value
PUBLIC	?value@?$implementation_level@V?$vector@JV?$allocator@J@std@@@std@@@serialization@boost@@2HB ; boost::serialization::implementation_level<std::vector<long,std::allocator<long> > >::value
PUBLIC	?value@?$implementation_level@V?$vector@KV?$allocator@K@std@@@std@@@serialization@boost@@2HB ; boost::serialization::implementation_level<std::vector<unsigned long,std::allocator<unsigned long> > >::value
PUBLIC	?value@?$implementation_level@V?$vector@MV?$allocator@M@std@@@std@@@serialization@boost@@2HB ; boost::serialization::implementation_level<std::vector<float,std::allocator<float> > >::value
PUBLIC	?value@?$implementation_level@V?$vector@NV?$allocator@N@std@@@std@@@serialization@boost@@2HB ; boost::serialization::implementation_level<std::vector<double,std::allocator<double> > >::value
PUBLIC	?value@?$implementation_level@V?$vector@GV?$allocator@G@std@@@std@@@serialization@boost@@2HB ; boost::serialization::implementation_level<std::vector<unsigned short,std::allocator<unsigned short> > >::value
PUBLIC	?value@?$implementation_level@V?$vector@FV?$allocator@F@std@@@std@@@serialization@boost@@2HB ; boost::serialization::implementation_level<std::vector<short,std::allocator<short> > >::value
PUBLIC	?value@?$implementation_level@V?$vector@_JV?$allocator@_J@std@@@std@@@serialization@boost@@2HB ; boost::serialization::implementation_level<std::vector<__int64,std::allocator<__int64> > >::value
PUBLIC	?value@?$implementation_level@V?$vector@_KV?$allocator@_K@std@@@std@@@serialization@boost@@2HB ; boost::serialization::implementation_level<std::vector<unsigned __int64,std::allocator<unsigned __int64> > >::value
PUBLIC	?value@?$implementation_level@V?$vector@_WV?$allocator@_W@std@@@std@@@serialization@boost@@2HB ; boost::serialization::implementation_level<std::vector<wchar_t,std::allocator<wchar_t> > >::value
PUBLIC	?has_fixed_range@rand48@boost@@2_NB		; boost::rand48::has_fixed_range
PUBLIC	?min_value@rand48@boost@@2JB			; boost::rand48::min_value
PUBLIC	?max_value@rand48@boost@@2JB			; boost::rand48::max_value
PUBLIC	?has_fixed_range@?$linear_congruential@_K$0FNOOMOGGN@$0L@$0BAAAAAAAAAAAA@$0A@@random@boost@@2_NB ; boost::random::linear_congruential<unsigned __int64,25214903917,11,281474976710656,0>::has_fixed_range
PUBLIC	?min_value@?$linear_congruential@_K$0FNOOMOGGN@$0L@$0BAAAAAAAAAAAA@$0A@@random@boost@@2_KB ; boost::random::linear_congruential<unsigned __int64,25214903917,11,281474976710656,0>::min_value
PUBLIC	?max_value@?$linear_congruential@_K$0FNOOMOGGN@$0L@$0BAAAAAAAAAAAA@$0A@@random@boost@@2_KB ; boost::random::linear_congruential<unsigned __int64,25214903917,11,281474976710656,0>::max_value
PUBLIC	?multiplier@?$linear_congruential@_K$0FNOOMOGGN@$0L@$0BAAAAAAAAAAAA@$0A@@random@boost@@2_KB ; boost::random::linear_congruential<unsigned __int64,25214903917,11,281474976710656,0>::multiplier
PUBLIC	?increment@?$linear_congruential@_K$0FNOOMOGGN@$0L@$0BAAAAAAAAAAAA@$0A@@random@boost@@2_KB ; boost::random::linear_congruential<unsigned __int64,25214903917,11,281474976710656,0>::increment
PUBLIC	?modulus@?$linear_congruential@_K$0FNOOMOGGN@$0L@$0BAAAAAAAAAAAA@$0A@@random@boost@@2_KB ; boost::random::linear_congruential<unsigned __int64,25214903917,11,281474976710656,0>::modulus
PUBLIC	?has_fixed_range@?$linear_congruential@J$0JMEO@$0A@$0HPPPPPKL@$0A@@random@boost@@2_NB ; boost::random::linear_congruential<long,40014,0,2147483563,0>::has_fixed_range
PUBLIC	?min_value@?$linear_congruential@J$0JMEO@$0A@$0HPPPPPKL@$0A@@random@boost@@2JB ; boost::random::linear_congruential<long,40014,0,2147483563,0>::min_value
PUBLIC	?max_value@?$linear_congruential@J$0JMEO@$0A@$0HPPPPPKL@$0A@@random@boost@@2JB ; boost::random::linear_congruential<long,40014,0,2147483563,0>::max_value
PUBLIC	?multiplier@?$linear_congruential@J$0JMEO@$0A@$0HPPPPPKL@$0A@@random@boost@@2JB ; boost::random::linear_congruential<long,40014,0,2147483563,0>::multiplier
PUBLIC	?increment@?$linear_congruential@J$0JMEO@$0A@$0HPPPPPKL@$0A@@random@boost@@2JB ; boost::random::linear_congruential<long,40014,0,2147483563,0>::increment
PUBLIC	?modulus@?$linear_congruential@J$0JMEO@$0A@$0HPPPPPKL@$0A@@random@boost@@2JB ; boost::random::linear_congruential<long,40014,0,2147483563,0>::modulus
PUBLIC	?has_fixed_range@?$linear_congruential@K$0FFG@$0CENGJ@$0KOFCJ@$0A@@random@boost@@2_NB ; boost::random::linear_congruential<unsigned long,1366,150889,714025,0>::has_fixed_range
PUBLIC	?min_value@?$linear_congruential@K$0FFG@$0CENGJ@$0KOFCJ@$0A@@random@boost@@2KB ; boost::random::linear_congruential<unsigned long,1366,150889,714025,0>::min_value
PUBLIC	?max_value@?$linear_congruential@K$0FFG@$0CENGJ@$0KOFCJ@$0A@@random@boost@@2KB ; boost::random::linear_congruential<unsigned long,1366,150889,714025,0>::max_value
PUBLIC	?multiplier@?$linear_congruential@K$0FFG@$0CENGJ@$0KOFCJ@$0A@@random@boost@@2KB ; boost::random::linear_congruential<unsigned long,1366,150889,714025,0>::multiplier
PUBLIC	?increment@?$linear_congruential@K$0FFG@$0CENGJ@$0KOFCJ@$0A@@random@boost@@2KB ; boost::random::linear_congruential<unsigned long,1366,150889,714025,0>::increment
PUBLIC	?modulus@?$linear_congruential@K$0FFG@$0CENGJ@$0KOFCJ@$0A@@random@boost@@2KB ; boost::random::linear_congruential<unsigned long,1366,150889,714025,0>::modulus
PUBLIC	?is_specialized@?$fibonacci_validation@N$0CFP@$0BBB@@random@boost@@2_NB ; boost::random::fibonacci_validation<double,607,273>::is_specialized
PUBLIC	?is_specialized@?$fibonacci_validation@N$0EPP@$0BKC@@random@boost@@2_NB ; boost::random::fibonacci_validation<double,1279,418>::is_specialized
PUBLIC	?is_specialized@?$fibonacci_validation@N$0IOJ@$0EOE@@random@boost@@2_NB ; boost::random::fibonacci_validation<double,2281,1252>::is_specialized
PUBLIC	?is_specialized@?$fibonacci_validation@N$0MJB@$0CEA@@random@boost@@2_NB ; boost::random::fibonacci_validation<double,3217,576>::is_specialized
PUBLIC	?is_specialized@?$fibonacci_validation@N$0BBEH@$0IDC@@random@boost@@2_NB ; boost::random::fibonacci_validation<double,4423,2098>::is_specialized
PUBLIC	?is_specialized@?$fibonacci_validation@N$0CFNJ@$0BFHO@@random@boost@@2_NB ; boost::random::fibonacci_validation<double,9689,5502>::is_specialized
PUBLIC	?is_specialized@?$fibonacci_validation@N$0ENOB@$0CGHC@@random@boost@@2_NB ; boost::random::fibonacci_validation<double,19937,9842>::is_specialized
PUBLIC	?is_specialized@?$fibonacci_validation@N$0FKKJ@$0DEJO@@random@boost@@2_NB ; boost::random::fibonacci_validation<double,23209,13470>::is_specialized
PUBLIC	?is_specialized@?$fibonacci_validation@N$0KNNB@$0FCCK@@random@boost@@2_NB ; boost::random::fibonacci_validation<double,44497,21034>::is_specialized
PUBLIC	?has_fixed_range@?$linear_feedback_shift@K$0CA@$0BP@$0N@$0M@$0A@@random@boost@@2_NB ; boost::random::linear_feedback_shift<unsigned long,32,31,13,12,0>::has_fixed_range
PUBLIC	?word_size@?$linear_feedback_shift@K$0CA@$0BP@$0N@$0M@$0A@@random@boost@@2HB ; boost::random::linear_feedback_shift<unsigned long,32,31,13,12,0>::word_size
PUBLIC	?exponent1@?$linear_feedback_shift@K$0CA@$0BP@$0N@$0M@$0A@@random@boost@@2HB ; boost::random::linear_feedback_shift<unsigned long,32,31,13,12,0>::exponent1
PUBLIC	?exponent2@?$linear_feedback_shift@K$0CA@$0BP@$0N@$0M@$0A@@random@boost@@2HB ; boost::random::linear_feedback_shift<unsigned long,32,31,13,12,0>::exponent2
PUBLIC	?step_size@?$linear_feedback_shift@K$0CA@$0BP@$0N@$0M@$0A@@random@boost@@2HB ; boost::random::linear_feedback_shift<unsigned long,32,31,13,12,0>::step_size
PUBLIC	?has_fixed_range@?$xor_combine@V?$linear_feedback_shift@K$0CA@$0BP@$0N@$0M@$0A@@random@boost@@$0A@V?$linear_feedback_shift@K$0CA@$0BN@$01$03$0A@@23@$0A@$0A@@random@boost@@2_NB ; boost::random::xor_combine<boost::random::linear_feedback_shift<unsigned long,32,31,13,12,0>,0,boost::random::linear_feedback_shift<unsigned long,32,29,2,4,0>,0,0>::has_fixed_range
PUBLIC	?shift1@?$xor_combine@V?$linear_feedback_shift@K$0CA@$0BP@$0N@$0M@$0A@@random@boost@@$0A@V?$linear_feedback_shift@K$0CA@$0BN@$01$03$0A@@23@$0A@$0A@@random@boost@@2HB ; boost::random::xor_combine<boost::random::linear_feedback_shift<unsigned long,32,31,13,12,0>,0,boost::random::linear_feedback_shift<unsigned long,32,29,2,4,0>,0,0>::shift1
PUBLIC	?shift2@?$xor_combine@V?$linear_feedback_shift@K$0CA@$0BP@$0N@$0M@$0A@@random@boost@@$0A@V?$linear_feedback_shift@K$0CA@$0BN@$01$03$0A@@23@$0A@$0A@@random@boost@@2HB ; boost::random::xor_combine<boost::random::linear_feedback_shift<unsigned long,32,31,13,12,0>,0,boost::random::linear_feedback_shift<unsigned long,32,29,2,4,0>,0,0>::shift2
PUBLIC	?has_fixed_range@?$linear_feedback_shift@K$0CA@$0BN@$01$03$0A@@random@boost@@2_NB ; boost::random::linear_feedback_shift<unsigned long,32,29,2,4,0>::has_fixed_range
PUBLIC	?word_size@?$linear_feedback_shift@K$0CA@$0BN@$01$03$0A@@random@boost@@2HB ; boost::random::linear_feedback_shift<unsigned long,32,29,2,4,0>::word_size
PUBLIC	?exponent1@?$linear_feedback_shift@K$0CA@$0BN@$01$03$0A@@random@boost@@2HB ; boost::random::linear_feedback_shift<unsigned long,32,29,2,4,0>::exponent1
PUBLIC	?exponent2@?$linear_feedback_shift@K$0CA@$0BN@$01$03$0A@@random@boost@@2HB ; boost::random::linear_feedback_shift<unsigned long,32,29,2,4,0>::exponent2
PUBLIC	?step_size@?$linear_feedback_shift@K$0CA@$0BN@$01$03$0A@@random@boost@@2HB ; boost::random::linear_feedback_shift<unsigned long,32,29,2,4,0>::step_size
PUBLIC	?value@?$is_arithmetic_impl@Uinput@iostreams@boost@@@detail@boost@@2_NB ; boost::detail::is_arithmetic_impl<boost::iostreams::input>::value
PUBLIC	?value@?$is_abstract_imp@Uinput@iostreams@boost@@@detail@boost@@2_NB ; boost::detail::is_abstract_imp<boost::iostreams::input>::value
PUBLIC	?value@?$is_convertible_basic_impl@AAUinput@iostreams@boost@@U123@@detail@boost@@2_NB ; boost::detail::is_convertible_basic_impl<boost::iostreams::input &,boost::iostreams::input>::value
PUBLIC	?value@?$ice_or@$00$0A@$0A@$0A@$0A@$0A@$0A@@type_traits@boost@@2_NB ; boost::type_traits::ice_or<1,0,0,0,0,0,0>::value
PUBLIC	?value@?$ice_not@$0A@@type_traits@boost@@2_NB	; boost::type_traits::ice_not<0>::value
PUBLIC	?value@?$is_convertible_impl@Uinput@iostreams@boost@@U123@@detail@boost@@2_NB ; boost::detail::is_convertible_impl<boost::iostreams::input,boost::iostreams::input>::value
PUBLIC	?value@?$is_arithmetic_impl@Uoutput@iostreams@boost@@@detail@boost@@2_NB ; boost::detail::is_arithmetic_impl<boost::iostreams::output>::value
PUBLIC	?value@?$is_abstract_imp@Uoutput@iostreams@boost@@@detail@boost@@2_NB ; boost::detail::is_abstract_imp<boost::iostreams::output>::value
PUBLIC	?value@?$is_convertible_basic_impl@AAUinput@iostreams@boost@@Uoutput@23@@detail@boost@@2_NB ; boost::detail::is_convertible_basic_impl<boost::iostreams::input &,boost::iostreams::output>::value
PUBLIC	?value@?$ice_and@$0A@$00$00$00$00$00$00@type_traits@boost@@2_NB ; boost::type_traits::ice_and<0,1,1,1,1,1,1>::value
PUBLIC	?value@?$is_convertible_impl@Uinput@iostreams@boost@@Uoutput@23@@detail@boost@@2_NB ; boost::detail::is_convertible_impl<boost::iostreams::input,boost::iostreams::output>::value
PUBLIC	?word_size@?$mersenne_twister@K$0CA@$0CHA@$0BIN@$0BP@$0JJAILANP@$0L@$06$0JNCMFGIA@$0P@$0OPMGAAAA@$0BC@$0MHHGGGNO@@random@boost@@2HB ; boost::random::mersenne_twister<unsigned long,32,624,397,31,2567483615,11,7,2636928640,15,4022730752,18,3346425566>::word_size
PUBLIC	?state_size@?$mersenne_twister@K$0CA@$0CHA@$0BIN@$0BP@$0JJAILANP@$0L@$06$0JNCMFGIA@$0P@$0OPMGAAAA@$0BC@$0MHHGGGNO@@random@boost@@2HB ; boost::random::mersenne_twister<unsigned long,32,624,397,31,2567483615,11,7,2636928640,15,4022730752,18,3346425566>::state_size
PUBLIC	?shift_size@?$mersenne_twister@K$0CA@$0CHA@$0BIN@$0BP@$0JJAILANP@$0L@$06$0JNCMFGIA@$0P@$0OPMGAAAA@$0BC@$0MHHGGGNO@@random@boost@@2HB ; boost::random::mersenne_twister<unsigned long,32,624,397,31,2567483615,11,7,2636928640,15,4022730752,18,3346425566>::shift_size
PUBLIC	?mask_bits@?$mersenne_twister@K$0CA@$0CHA@$0BIN@$0BP@$0JJAILANP@$0L@$06$0JNCMFGIA@$0P@$0OPMGAAAA@$0BC@$0MHHGGGNO@@random@boost@@2HB ; boost::random::mersenne_twister<unsigned long,32,624,397,31,2567483615,11,7,2636928640,15,4022730752,18,3346425566>::mask_bits
PUBLIC	?parameter_a@?$mersenne_twister@K$0CA@$0CHA@$0BIN@$0BP@$0JJAILANP@$0L@$06$0JNCMFGIA@$0P@$0OPMGAAAA@$0BC@$0MHHGGGNO@@random@boost@@2KB ; boost::random::mersenne_twister<unsigned long,32,624,397,31,2567483615,11,7,2636928640,15,4022730752,18,3346425566>::parameter_a
PUBLIC	?output_u@?$mersenne_twister@K$0CA@$0CHA@$0BIN@$0BP@$0JJAILANP@$0L@$06$0JNCMFGIA@$0P@$0OPMGAAAA@$0BC@$0MHHGGGNO@@random@boost@@2HB ; boost::random::mersenne_twister<unsigned long,32,624,397,31,2567483615,11,7,2636928640,15,4022730752,18,3346425566>::output_u
PUBLIC	?output_s@?$mersenne_twister@K$0CA@$0CHA@$0BIN@$0BP@$0JJAILANP@$0L@$06$0JNCMFGIA@$0P@$0OPMGAAAA@$0BC@$0MHHGGGNO@@random@boost@@2HB ; boost::random::mersenne_twister<unsigned long,32,624,397,31,2567483615,11,7,2636928640,15,4022730752,18,3346425566>::output_s
PUBLIC	?output_b@?$mersenne_twister@K$0CA@$0CHA@$0BIN@$0BP@$0JJAILANP@$0L@$06$0JNCMFGIA@$0P@$0OPMGAAAA@$0BC@$0MHHGGGNO@@random@boost@@2KB ; boost::random::mersenne_twister<unsigned long,32,624,397,31,2567483615,11,7,2636928640,15,4022730752,18,3346425566>::output_b
PUBLIC	?output_t@?$mersenne_twister@K$0CA@$0CHA@$0BIN@$0BP@$0JJAILANP@$0L@$06$0JNCMFGIA@$0P@$0OPMGAAAA@$0BC@$0MHHGGGNO@@random@boost@@2HB ; boost::random::mersenne_twister<unsigned long,32,624,397,31,2567483615,11,7,2636928640,15,4022730752,18,3346425566>::output_t
PUBLIC	?output_c@?$mersenne_twister@K$0CA@$0CHA@$0BIN@$0BP@$0JJAILANP@$0L@$06$0JNCMFGIA@$0P@$0OPMGAAAA@$0BC@$0MHHGGGNO@@random@boost@@2KB ; boost::random::mersenne_twister<unsigned long,32,624,397,31,2567483615,11,7,2636928640,15,4022730752,18,3346425566>::output_c
PUBLIC	?output_l@?$mersenne_twister@K$0CA@$0CHA@$0BIN@$0BP@$0JJAILANP@$0L@$06$0JNCMFGIA@$0P@$0OPMGAAAA@$0BC@$0MHHGGGNO@@random@boost@@2HB ; boost::random::mersenne_twister<unsigned long,32,624,397,31,2567483615,11,7,2636928640,15,4022730752,18,3346425566>::output_l
PUBLIC	?has_fixed_range@?$mersenne_twister@K$0CA@$0CHA@$0BIN@$0BP@$0JJAILANP@$0L@$06$0JNCMFGIA@$0P@$0OPMGAAAA@$0BC@$0MHHGGGNO@@random@boost@@2_NB ; boost::random::mersenne_twister<unsigned long,32,624,397,31,2567483615,11,7,2636928640,15,4022730752,18,3346425566>::has_fixed_range
PUBLIC	?is_const@?$cv_traits_imp@PAH@detail@boost@@2_NB ; boost::detail::cv_traits_imp<int *>::is_const
PUBLIC	?is_volatile@?$cv_traits_imp@PAH@detail@boost@@2_NB ; boost::detail::cv_traits_imp<int *>::is_volatile
PUBLIC	?value@?$is_ununsigned_helper@H@detail@boost@@2_NB ; boost::detail::is_ununsigned_helper<int>::value
PUBLIC	?value@?$is_unsigned_imp@H@detail@boost@@2_NB	; boost::detail::is_unsigned_imp<int>::value
PUBLIC	?has_fixed_range@?$backward_compatible_uniform_01@V?$pass_through_engine@AAV?$mersenne_twister@K$0CA@$0CHA@$0BIN@$0BP@$0JJAILANP@$0L@$06$0JNCMFGIA@$0P@$0OPMGAAAA@$0BC@$0MHHGGGNO@@random@boost@@@detail@random@boost@@N@detail@boost@@2_NB ; boost::detail::backward_compatible_uniform_01<boost::random::detail::pass_through_engine<boost::random::mersenne_twister<unsigned long,32,624,397,31,2567483615,11,7,2636928640,15,4022730752,18,3346425566> &>,double>::has_fixed_range
PUBLIC	?has_fixed_range@?$backward_compatible_uniform_01@V?$pass_through_engine@V?$mersenne_twister@K$0CA@$0CHA@$0BIN@$0BP@$0JJAILANP@$0L@$06$0JNCMFGIA@$0P@$0OPMGAAAA@$0BC@$0MHHGGGNO@@random@boost@@@detail@random@boost@@N@detail@boost@@2_NB ; boost::detail::backward_compatible_uniform_01<boost::random::detail::pass_through_engine<boost::random::mersenne_twister<unsigned long,32,624,397,31,2567483615,11,7,2636928640,15,4022730752,18,3346425566> >,double>::has_fixed_range
PUBLIC	?value@?$implementation_level@V?$list@_NV?$allocator@_N@std@@@std@@@serialization@boost@@2HB ; boost::serialization::implementation_level<std::list<bool,std::allocator<bool> > >::value
PUBLIC	?value@?$implementation_level@V?$list@DV?$allocator@D@std@@@std@@@serialization@boost@@2HB ; boost::serialization::implementation_level<std::list<char,std::allocator<char> > >::value
PUBLIC	?value@?$implementation_level@V?$list@CV?$allocator@C@std@@@std@@@serialization@boost@@2HB ; boost::serialization::implementation_level<std::list<signed char,std::allocator<signed char> > >::value
PUBLIC	?value@?$implementation_level@V?$list@EV?$allocator@E@std@@@std@@@serialization@boost@@2HB ; boost::serialization::implementation_level<std::list<unsigned char,std::allocator<unsigned char> > >::value
PUBLIC	?value@?$implementation_level@V?$list@HV?$allocator@H@std@@@std@@@serialization@boost@@2HB ; boost::serialization::implementation_level<std::list<int,std::allocator<int> > >::value
PUBLIC	?value@?$implementation_level@V?$list@IV?$allocator@I@std@@@std@@@serialization@boost@@2HB ; boost::serialization::implementation_level<std::list<unsigned int,std::allocator<unsigned int> > >::value
PUBLIC	?value@?$implementation_level@V?$list@JV?$allocator@J@std@@@std@@@serialization@boost@@2HB ; boost::serialization::implementation_level<std::list<long,std::allocator<long> > >::value
PUBLIC	?value@?$implementation_level@V?$list@KV?$allocator@K@std@@@std@@@serialization@boost@@2HB ; boost::serialization::implementation_level<std::list<unsigned long,std::allocator<unsigned long> > >::value
PUBLIC	?value@?$implementation_level@V?$list@MV?$allocator@M@std@@@std@@@serialization@boost@@2HB ; boost::serialization::implementation_level<std::list<float,std::allocator<float> > >::value
PUBLIC	?value@?$implementation_level@V?$list@NV?$allocator@N@std@@@std@@@serialization@boost@@2HB ; boost::serialization::implementation_level<std::list<double,std::allocator<double> > >::value
PUBLIC	?value@?$implementation_level@V?$list@GV?$allocator@G@std@@@std@@@serialization@boost@@2HB ; boost::serialization::implementation_level<std::list<unsigned short,std::allocator<unsigned short> > >::value
PUBLIC	?value@?$implementation_level@V?$list@FV?$allocator@F@std@@@std@@@serialization@boost@@2HB ; boost::serialization::implementation_level<std::list<short,std::allocator<short> > >::value
PUBLIC	?value@?$implementation_level@V?$list@_JV?$allocator@_J@std@@@std@@@serialization@boost@@2HB ; boost::serialization::implementation_level<std::list<__int64,std::allocator<__int64> > >::value
PUBLIC	?value@?$implementation_level@V?$list@_KV?$allocator@_K@std@@@std@@@serialization@boost@@2HB ; boost::serialization::implementation_level<std::list<unsigned __int64,std::allocator<unsigned __int64> > >::value
PUBLIC	?value@?$implementation_level@V?$list@_WV?$allocator@_W@std@@@std@@@serialization@boost@@2HB ; boost::serialization::implementation_level<std::list<wchar_t,std::allocator<wchar_t> > >::value
PUBLIC	?value@?$implementation_level@Uversion_type@archive@boost@@@serialization@boost@@2HB ; boost::serialization::implementation_level<boost::archive::version_type>::value
PUBLIC	?value@?$implementation_level@Uclass_id_type@archive@boost@@@serialization@boost@@2HB ; boost::serialization::implementation_level<boost::archive::class_id_type>::value
PUBLIC	?value@?$implementation_level@Uclass_id_reference_type@archive@boost@@@serialization@boost@@2HB ; boost::serialization::implementation_level<boost::archive::class_id_reference_type>::value
PUBLIC	?value@?$implementation_level@Uclass_id_optional_type@archive@boost@@@serialization@boost@@2HB ; boost::serialization::implementation_level<boost::archive::class_id_optional_type>::value
PUBLIC	?value@?$implementation_level@Uclass_name_type@archive@boost@@@serialization@boost@@2HB ; boost::serialization::implementation_level<boost::archive::class_name_type>::value
PUBLIC	?value@?$implementation_level@Uobject_id_type@archive@boost@@@serialization@boost@@2HB ; boost::serialization::implementation_level<boost::archive::object_id_type>::value
PUBLIC	?value@?$implementation_level@Uobject_reference_type@archive@boost@@@serialization@boost@@2HB ; boost::serialization::implementation_level<boost::archive::object_reference_type>::value
PUBLIC	?value@?$implementation_level@Utracking_type@archive@boost@@@serialization@boost@@2HB ; boost::serialization::implementation_level<boost::archive::tracking_type>::value
PUBLIC	?value@?$implementation_level@V?$basic_string@DU?$char_traits@D@std@@V?$allocator@D@2@@std@@@serialization@boost@@2HB ; boost::serialization::implementation_level<std::basic_string<char,std::char_traits<char>,std::allocator<char> > >::value
PUBLIC	?value@?$implementation_level@V?$basic_string@_WU?$char_traits@_W@std@@V?$allocator@_W@2@@std@@@serialization@boost@@2HB ; boost::serialization::implementation_level<std::basic_string<wchar_t,std::char_traits<wchar_t>,std::allocator<wchar_t> > >::value
PUBLIC	?value@?$int_@$0A@@mpl@boost@@2HB		; boost::mpl::int_<0>::value
PUBLIC	?value@?$is_convertible_basic_impl@AAUoutput@iostreams@boost@@Uinput@23@@detail@boost@@2_NB ; boost::detail::is_convertible_basic_impl<boost::iostreams::output &,boost::iostreams::input>::value
PUBLIC	?value@?$is_convertible_impl@Uoutput@iostreams@boost@@Uinput@23@@detail@boost@@2_NB ; boost::detail::is_convertible_impl<boost::iostreams::output,boost::iostreams::input>::value
PUBLIC	?value@?$is_empty_impl@X@detail@boost@@2_NB	; boost::detail::is_empty_impl<void>::value
PUBLIC	?value@?$is_empty_impl@$$CBX@detail@boost@@2_NB	; boost::detail::is_empty_impl<void const >::value
PUBLIC	?value@?$is_empty_impl@$$CCX@detail@boost@@2_NB	; boost::detail::is_empty_impl<void volatile >::value
PUBLIC	?value@?$is_empty_impl@$$CDX@detail@boost@@2_NB	; boost::detail::is_empty_impl<void const volatile >::value
PUBLIC	?value@?$not_satisfied@U?$usage_requirements@U?$SGIAssignable@_J@boost@@@concept@boost@@@concept@boost@@2_NB ; boost::concept::not_satisfied<boost::concept::usage_requirements<boost::SGIAssignable<__int64> > >::value
PUBLIC	?value@?$not_satisfied@U?$SGIAssignableConcept@_J@boost@@@concept@boost@@2_NB ; boost::concept::not_satisfied<boost::SGIAssignableConcept<__int64> >::value
PUBLIC	?is_const@?$cv_traits_imp@PA_J@detail@boost@@2_NB ; boost::detail::cv_traits_imp<__int64 *>::is_const
PUBLIC	?is_volatile@?$cv_traits_imp@PA_J@detail@boost@@2_NB ; boost::detail::cv_traits_imp<__int64 *>::is_volatile
PUBLIC	?value@?$is_pointer_helper@_J@detail@boost@@2_NB ; boost::detail::is_pointer_helper<__int64>::value
PUBLIC	?value@?$result_@_J@?$is_mem_fun_pointer_select@$0A@@detail@boost@@2_NB ; boost::detail::is_mem_fun_pointer_select<0>::result_<__int64>::value
PUBLIC	?value@?$is_pointer_impl@_J@detail@boost@@2_NB	; boost::detail::is_pointer_impl<__int64>::value
PUBLIC	?value@?$is_arithmetic_impl@_J@detail@boost@@2_NB ; boost::detail::is_arithmetic_impl<__int64>::value
PUBLIC	?is_const@?$cv_traits_imp@PBV?$basic_string@DU?$char_traits@D@std@@V?$allocator@D@2@@std@@@detail@boost@@2_NB ; boost::detail::cv_traits_imp<std::basic_string<char,std::char_traits<char>,std::allocator<char> > const *>::is_const
PUBLIC	?is_volatile@?$cv_traits_imp@PBV?$basic_string@DU?$char_traits@D@std@@V?$allocator@D@2@@std@@@detail@boost@@2_NB ; boost::detail::cv_traits_imp<std::basic_string<char,std::char_traits<char>,std::allocator<char> > const *>::is_volatile
PUBLIC	?is_const@?$cv_traits_imp@PAV?$basic_string@DU?$char_traits@D@std@@V?$allocator@D@2@@std@@@detail@boost@@2_NB ; boost::detail::cv_traits_imp<std::basic_string<char,std::char_traits<char>,std::allocator<char> > *>::is_const
PUBLIC	?is_volatile@?$cv_traits_imp@PAV?$basic_string@DU?$char_traits@D@std@@V?$allocator@D@2@@std@@@detail@boost@@2_NB ; boost::detail::cv_traits_imp<std::basic_string<char,std::char_traits<char>,std::allocator<char> > *>::is_volatile
PUBLIC	?value@?$is_abstract_imp@D@detail@boost@@2_NB	; boost::detail::is_abstract_imp<char>::value
PUBLIC	?is_const@?$cv_traits_imp@PBV?$iterator_range@V?$_String_iterator@DU?$char_traits@D@std@@V?$allocator@D@2@@std@@@boost@@@detail@boost@@2_NB ; boost::detail::cv_traits_imp<boost::iterator_range<std::_String_iterator<char,std::char_traits<char>,std::allocator<char> > > const *>::is_const
PUBLIC	?is_volatile@?$cv_traits_imp@PBV?$iterator_range@V?$_String_iterator@DU?$char_traits@D@std@@V?$allocator@D@2@@std@@@boost@@@detail@boost@@2_NB ; boost::detail::cv_traits_imp<boost::iterator_range<std::_String_iterator<char,std::char_traits<char>,std::allocator<char> > > const *>::is_volatile
PUBLIC	?is_const@?$cv_traits_imp@PAUtracking_type@archive@boost@@@detail@boost@@2_NB ; boost::detail::cv_traits_imp<boost::archive::tracking_type *>::is_const
PUBLIC	?is_volatile@?$cv_traits_imp@PAUtracking_type@archive@boost@@@detail@boost@@2_NB ; boost::detail::cv_traits_imp<boost::archive::tracking_type *>::is_volatile
PUBLIC	?value@?$is_pointer_helper@Utracking_type@archive@boost@@@detail@boost@@2_NB ; boost::detail::is_pointer_helper<boost::archive::tracking_type>::value
PUBLIC	?value@?$result_@Utracking_type@archive@boost@@@?$is_mem_fun_pointer_select@$0A@@detail@boost@@2_NB ; boost::detail::is_mem_fun_pointer_select<0>::result_<boost::archive::tracking_type>::value
PUBLIC	?value@?$is_pointer_impl@Utracking_type@archive@boost@@@detail@boost@@2_NB ; boost::detail::is_pointer_impl<boost::archive::tracking_type>::value
PUBLIC	?is_const@?$cv_traits_imp@PAUversion_type@archive@boost@@@detail@boost@@2_NB ; boost::detail::cv_traits_imp<boost::archive::version_type *>::is_const
PUBLIC	?is_volatile@?$cv_traits_imp@PAUversion_type@archive@boost@@@detail@boost@@2_NB ; boost::detail::cv_traits_imp<boost::archive::version_type *>::is_volatile
PUBLIC	?value@?$is_pointer_helper@Uversion_type@archive@boost@@@detail@boost@@2_NB ; boost::detail::is_pointer_helper<boost::archive::version_type>::value
PUBLIC	?value@?$result_@Uversion_type@archive@boost@@@?$is_mem_fun_pointer_select@$0A@@detail@boost@@2_NB ; boost::detail::is_mem_fun_pointer_select<0>::result_<boost::archive::version_type>::value
PUBLIC	?value@?$is_pointer_impl@Uversion_type@archive@boost@@@detail@boost@@2_NB ; boost::detail::is_pointer_impl<boost::archive::version_type>::value
PUBLIC	?is_const@?$cv_traits_imp@PAUobject_id_type@archive@boost@@@detail@boost@@2_NB ; boost::detail::cv_traits_imp<boost::archive::object_id_type *>::is_const
PUBLIC	?is_volatile@?$cv_traits_imp@PAUobject_id_type@archive@boost@@@detail@boost@@2_NB ; boost::detail::cv_traits_imp<boost::archive::object_id_type *>::is_volatile
PUBLIC	?value@?$is_pointer_helper@Uobject_id_type@archive@boost@@@detail@boost@@2_NB ; boost::detail::is_pointer_helper<boost::archive::object_id_type>::value
PUBLIC	?value@?$result_@Uobject_id_type@archive@boost@@@?$is_mem_fun_pointer_select@$0A@@detail@boost@@2_NB ; boost::detail::is_mem_fun_pointer_select<0>::result_<boost::archive::object_id_type>::value
PUBLIC	?value@?$is_pointer_impl@Uobject_id_type@archive@boost@@@detail@boost@@2_NB ; boost::detail::is_pointer_impl<boost::archive::object_id_type>::value
PUBLIC	?is_const@?$cv_traits_imp@PAUclass_id_type@archive@boost@@@detail@boost@@2_NB ; boost::detail::cv_traits_imp<boost::archive::class_id_type *>::is_const
PUBLIC	?is_volatile@?$cv_traits_imp@PAUclass_id_type@archive@boost@@@detail@boost@@2_NB ; boost::detail::cv_traits_imp<boost::archive::class_id_type *>::is_volatile
PUBLIC	?value@?$is_pointer_helper@Uclass_id_type@archive@boost@@@detail@boost@@2_NB ; boost::detail::is_pointer_helper<boost::archive::class_id_type>::value
PUBLIC	?value@?$result_@Uclass_id_type@archive@boost@@@?$is_mem_fun_pointer_select@$0A@@detail@boost@@2_NB ; boost::detail::is_mem_fun_pointer_select<0>::result_<boost::archive::class_id_type>::value
PUBLIC	?value@?$is_pointer_impl@Uclass_id_type@archive@boost@@@detail@boost@@2_NB ; boost::detail::is_pointer_impl<boost::archive::class_id_type>::value
PUBLIC	?is_const@?$cv_traits_imp@PAI@detail@boost@@2_NB ; boost::detail::cv_traits_imp<unsigned int *>::is_const
PUBLIC	?is_volatile@?$cv_traits_imp@PAI@detail@boost@@2_NB ; boost::detail::cv_traits_imp<unsigned int *>::is_volatile
PUBLIC	?value@?$is_pointer_helper@I@detail@boost@@2_NB	; boost::detail::is_pointer_helper<unsigned int>::value
PUBLIC	?value@?$result_@I@?$is_mem_fun_pointer_select@$0A@@detail@boost@@2_NB ; boost::detail::is_mem_fun_pointer_select<0>::result_<unsigned int>::value
PUBLIC	?value@?$is_pointer_impl@I@detail@boost@@2_NB	; boost::detail::is_pointer_impl<unsigned int>::value
PUBLIC	?value@?$is_base_and_derived_impl@Ubasic_traits@serialization@boost@@I@detail@boost@@2_NB ; boost::detail::is_base_and_derived_impl<boost::serialization::basic_traits,unsigned int>::value
PUBLIC	?value@?$is_arithmetic_impl@I@detail@boost@@2_NB ; boost::detail::is_arithmetic_impl<unsigned int>::value
PUBLIC	?value@?$implementation_level@I@serialization@boost@@2HB ; boost::serialization::implementation_level<unsigned int>::value
PUBLIC	?value@?$is_pointer_helper@H@detail@boost@@2_NB	; boost::detail::is_pointer_helper<int>::value
PUBLIC	?value@?$result_@H@?$is_mem_fun_pointer_select@$0A@@detail@boost@@2_NB ; boost::detail::is_mem_fun_pointer_select<0>::result_<int>::value
PUBLIC	?value@?$is_pointer_impl@H@detail@boost@@2_NB	; boost::detail::is_pointer_impl<int>::value
PUBLIC	?value@?$is_base_and_derived_impl@Ubasic_traits@serialization@boost@@H@detail@boost@@2_NB ; boost::detail::is_base_and_derived_impl<boost::serialization::basic_traits,int>::value
PUBLIC	?value@?$is_arithmetic_impl@H@detail@boost@@2_NB ; boost::detail::is_arithmetic_impl<int>::value
PUBLIC	?value@?$implementation_level@H@serialization@boost@@2HB ; boost::serialization::implementation_level<int>::value
PUBLIC	?value@?$is_pointer_helper@V?$basic_string@DU?$char_traits@D@std@@V?$allocator@D@2@@std@@@detail@boost@@2_NB ; boost::detail::is_pointer_helper<std::basic_string<char,std::char_traits<char>,std::allocator<char> > >::value
PUBLIC	?value@?$result_@V?$basic_string@DU?$char_traits@D@std@@V?$allocator@D@2@@std@@@?$is_mem_fun_pointer_select@$0A@@detail@boost@@2_NB ; boost::detail::is_mem_fun_pointer_select<0>::result_<std::basic_string<char,std::char_traits<char>,std::allocator<char> > >::value
PUBLIC	?value@?$is_pointer_impl@V?$basic_string@DU?$char_traits@D@std@@V?$allocator@D@2@@std@@@detail@boost@@2_NB ; boost::detail::is_pointer_impl<std::basic_string<char,std::char_traits<char>,std::allocator<char> > >::value
;	COMDAT ?value@?$is_pointer_impl@V?$basic_string@DU?$char_traits@D@std@@V?$allocator@D@2@@std@@@detail@boost@@2_NB
CONST	SEGMENT
?value@?$is_pointer_impl@V?$basic_string@DU?$char_traits@D@std@@V?$allocator@D@2@@std@@@detail@boost@@2_NB DB 00H ; boost::detail::is_pointer_impl<std::basic_string<char,std::char_traits<char>,std::allocator<char> > >::value
CONST	ENDS
;	COMDAT ?value@?$result_@V?$basic_string@DU?$char_traits@D@std@@V?$allocator@D@2@@std@@@?$is_mem_fun_pointer_select@$0A@@detail@boost@@2_NB
CONST	SEGMENT
?value@?$result_@V?$basic_string@DU?$char_traits@D@std@@V?$allocator@D@2@@std@@@?$is_mem_fun_pointer_select@$0A@@detail@boost@@2_NB DB 00H ; boost::detail::is_mem_fun_pointer_select<0>::result_<std::basic_string<char,std::char_traits<char>,std::allocator<char> > >::value
CONST	ENDS
;	COMDAT ?value@?$is_pointer_helper@V?$basic_string@DU?$char_traits@D@std@@V?$allocator@D@2@@std@@@detail@boost@@2_NB
CONST	SEGMENT
?value@?$is_pointer_helper@V?$basic_string@DU?$char_traits@D@std@@V?$allocator@D@2@@std@@@detail@boost@@2_NB DB 00H ; boost::detail::is_pointer_helper<std::basic_string<char,std::char_traits<char>,std::allocator<char> > >::value
CONST	ENDS
;	COMDAT ?value@?$implementation_level@H@serialization@boost@@2HB
CONST	SEGMENT
?value@?$implementation_level@H@serialization@boost@@2HB DD 01H ; boost::serialization::implementation_level<int>::value
CONST	ENDS
;	COMDAT ?value@?$is_arithmetic_impl@H@detail@boost@@2_NB
CONST	SEGMENT
?value@?$is_arithmetic_impl@H@detail@boost@@2_NB DB 01H	; boost::detail::is_arithmetic_impl<int>::value
CONST	ENDS
;	COMDAT ?value@?$is_base_and_derived_impl@Ubasic_traits@serialization@boost@@H@detail@boost@@2_NB
CONST	SEGMENT
?value@?$is_base_and_derived_impl@Ubasic_traits@serialization@boost@@H@detail@boost@@2_NB DB 00H ; boost::detail::is_base_and_derived_impl<boost::serialization::basic_traits,int>::value
CONST	ENDS
;	COMDAT ?value@?$is_pointer_impl@H@detail@boost@@2_NB
CONST	SEGMENT
?value@?$is_pointer_impl@H@detail@boost@@2_NB DB 00H	; boost::detail::is_pointer_impl<int>::value
CONST	ENDS
;	COMDAT ?value@?$result_@H@?$is_mem_fun_pointer_select@$0A@@detail@boost@@2_NB
CONST	SEGMENT
?value@?$result_@H@?$is_mem_fun_pointer_select@$0A@@detail@boost@@2_NB DB 00H ; boost::detail::is_mem_fun_pointer_select<0>::result_<int>::value
CONST	ENDS
;	COMDAT ?value@?$is_pointer_helper@H@detail@boost@@2_NB
CONST	SEGMENT
?value@?$is_pointer_helper@H@detail@boost@@2_NB DB 00H	; boost::detail::is_pointer_helper<int>::value
CONST	ENDS
;	COMDAT ?value@?$implementation_level@I@serialization@boost@@2HB
CONST	SEGMENT
?value@?$implementation_level@I@serialization@boost@@2HB DD 01H ; boost::serialization::implementation_level<unsigned int>::value
CONST	ENDS
;	COMDAT ?value@?$is_arithmetic_impl@I@detail@boost@@2_NB
CONST	SEGMENT
?value@?$is_arithmetic_impl@I@detail@boost@@2_NB DB 01H	; boost::detail::is_arithmetic_impl<unsigned int>::value
CONST	ENDS
;	COMDAT ?value@?$is_base_and_derived_impl@Ubasic_traits@serialization@boost@@I@detail@boost@@2_NB
CONST	SEGMENT
?value@?$is_base_and_derived_impl@Ubasic_traits@serialization@boost@@I@detail@boost@@2_NB DB 00H ; boost::detail::is_base_and_derived_impl<boost::serialization::basic_traits,unsigned int>::value
CONST	ENDS
;	COMDAT ?value@?$is_pointer_impl@I@detail@boost@@2_NB
CONST	SEGMENT
?value@?$is_pointer_impl@I@detail@boost@@2_NB DB 00H	; boost::detail::is_pointer_impl<unsigned int>::value
CONST	ENDS
;	COMDAT ?value@?$result_@I@?$is_mem_fun_pointer_select@$0A@@detail@boost@@2_NB
CONST	SEGMENT
?value@?$result_@I@?$is_mem_fun_pointer_select@$0A@@detail@boost@@2_NB DB 00H ; boost::detail::is_mem_fun_pointer_select<0>::result_<unsigned int>::value
CONST	ENDS
;	COMDAT ?value@?$is_pointer_helper@I@detail@boost@@2_NB
CONST	SEGMENT
?value@?$is_pointer_helper@I@detail@boost@@2_NB DB 00H	; boost::detail::is_pointer_helper<unsigned int>::value
CONST	ENDS
;	COMDAT ?is_volatile@?$cv_traits_imp@PAI@detail@boost@@2_NB
CONST	SEGMENT
?is_volatile@?$cv_traits_imp@PAI@detail@boost@@2_NB DB 00H ; boost::detail::cv_traits_imp<unsigned int *>::is_volatile
CONST	ENDS
;	COMDAT ?is_const@?$cv_traits_imp@PAI@detail@boost@@2_NB
CONST	SEGMENT
?is_const@?$cv_traits_imp@PAI@detail@boost@@2_NB DB 00H	; boost::detail::cv_traits_imp<unsigned int *>::is_const
CONST	ENDS
;	COMDAT ?value@?$is_pointer_impl@Uclass_id_type@archive@boost@@@detail@boost@@2_NB
CONST	SEGMENT
?value@?$is_pointer_impl@Uclass_id_type@archive@boost@@@detail@boost@@2_NB DB 00H ; boost::detail::is_pointer_impl<boost::archive::class_id_type>::value
CONST	ENDS
;	COMDAT ?value@?$result_@Uclass_id_type@archive@boost@@@?$is_mem_fun_pointer_select@$0A@@detail@boost@@2_NB
CONST	SEGMENT
?value@?$result_@Uclass_id_type@archive@boost@@@?$is_mem_fun_pointer_select@$0A@@detail@boost@@2_NB DB 00H ; boost::detail::is_mem_fun_pointer_select<0>::result_<boost::archive::class_id_type>::value
CONST	ENDS
;	COMDAT ?value@?$is_pointer_helper@Uclass_id_type@archive@boost@@@detail@boost@@2_NB
CONST	SEGMENT
?value@?$is_pointer_helper@Uclass_id_type@archive@boost@@@detail@boost@@2_NB DB 00H ; boost::detail::is_pointer_helper<boost::archive::class_id_type>::value
CONST	ENDS
;	COMDAT ?is_volatile@?$cv_traits_imp@PAUclass_id_type@archive@boost@@@detail@boost@@2_NB
CONST	SEGMENT
?is_volatile@?$cv_traits_imp@PAUclass_id_type@archive@boost@@@detail@boost@@2_NB DB 00H ; boost::detail::cv_traits_imp<boost::archive::class_id_type *>::is_volatile
CONST	ENDS
;	COMDAT ?is_const@?$cv_traits_imp@PAUclass_id_type@archive@boost@@@detail@boost@@2_NB
CONST	SEGMENT
?is_const@?$cv_traits_imp@PAUclass_id_type@archive@boost@@@detail@boost@@2_NB DB 00H ; boost::detail::cv_traits_imp<boost::archive::class_id_type *>::is_const
CONST	ENDS
;	COMDAT ?value@?$is_pointer_impl@Uobject_id_type@archive@boost@@@detail@boost@@2_NB
CONST	SEGMENT
?value@?$is_pointer_impl@Uobject_id_type@archive@boost@@@detail@boost@@2_NB DB 00H ; boost::detail::is_pointer_impl<boost::archive::object_id_type>::value
CONST	ENDS
;	COMDAT ?value@?$result_@Uobject_id_type@archive@boost@@@?$is_mem_fun_pointer_select@$0A@@detail@boost@@2_NB
CONST	SEGMENT
?value@?$result_@Uobject_id_type@archive@boost@@@?$is_mem_fun_pointer_select@$0A@@detail@boost@@2_NB DB 00H ; boost::detail::is_mem_fun_pointer_select<0>::result_<boost::archive::object_id_type>::value
CONST	ENDS
;	COMDAT ?value@?$is_pointer_helper@Uobject_id_type@archive@boost@@@detail@boost@@2_NB
CONST	SEGMENT
?value@?$is_pointer_helper@Uobject_id_type@archive@boost@@@detail@boost@@2_NB DB 00H ; boost::detail::is_pointer_helper<boost::archive::object_id_type>::value
CONST	ENDS
;	COMDAT ?is_volatile@?$cv_traits_imp@PAUobject_id_type@archive@boost@@@detail@boost@@2_NB
CONST	SEGMENT
?is_volatile@?$cv_traits_imp@PAUobject_id_type@archive@boost@@@detail@boost@@2_NB DB 00H ; boost::detail::cv_traits_imp<boost::archive::object_id_type *>::is_volatile
CONST	ENDS
;	COMDAT ?is_const@?$cv_traits_imp@PAUobject_id_type@archive@boost@@@detail@boost@@2_NB
CONST	SEGMENT
?is_const@?$cv_traits_imp@PAUobject_id_type@archive@boost@@@detail@boost@@2_NB DB 00H ; boost::detail::cv_traits_imp<boost::archive::object_id_type *>::is_const
CONST	ENDS
;	COMDAT ?value@?$is_pointer_impl@Uversion_type@archive@boost@@@detail@boost@@2_NB
CONST	SEGMENT
?value@?$is_pointer_impl@Uversion_type@archive@boost@@@detail@boost@@2_NB DB 00H ; boost::detail::is_pointer_impl<boost::archive::version_type>::value
CONST	ENDS
;	COMDAT ?value@?$result_@Uversion_type@archive@boost@@@?$is_mem_fun_pointer_select@$0A@@detail@boost@@2_NB
CONST	SEGMENT
?value@?$result_@Uversion_type@archive@boost@@@?$is_mem_fun_pointer_select@$0A@@detail@boost@@2_NB DB 00H ; boost::detail::is_mem_fun_pointer_select<0>::result_<boost::archive::version_type>::value
CONST	ENDS
;	COMDAT ?value@?$is_pointer_helper@Uversion_type@archive@boost@@@detail@boost@@2_NB
CONST	SEGMENT
?value@?$is_pointer_helper@Uversion_type@archive@boost@@@detail@boost@@2_NB DB 00H ; boost::detail::is_pointer_helper<boost::archive::version_type>::value
CONST	ENDS
;	COMDAT ?is_volatile@?$cv_traits_imp@PAUversion_type@archive@boost@@@detail@boost@@2_NB
CONST	SEGMENT
?is_volatile@?$cv_traits_imp@PAUversion_type@archive@boost@@@detail@boost@@2_NB DB 00H ; boost::detail::cv_traits_imp<boost::archive::version_type *>::is_volatile
CONST	ENDS
;	COMDAT ?is_const@?$cv_traits_imp@PAUversion_type@archive@boost@@@detail@boost@@2_NB
CONST	SEGMENT
?is_const@?$cv_traits_imp@PAUversion_type@archive@boost@@@detail@boost@@2_NB DB 00H ; boost::detail::cv_traits_imp<boost::archive::version_type *>::is_const
CONST	ENDS
;	COMDAT ?value@?$is_pointer_impl@Utracking_type@archive@boost@@@detail@boost@@2_NB
CONST	SEGMENT
?value@?$is_pointer_impl@Utracking_type@archive@boost@@@detail@boost@@2_NB DB 00H ; boost::detail::is_pointer_impl<boost::archive::tracking_type>::value
CONST	ENDS
;	COMDAT ?value@?$result_@Utracking_type@archive@boost@@@?$is_mem_fun_pointer_select@$0A@@detail@boost@@2_NB
CONST	SEGMENT
?value@?$result_@Utracking_type@archive@boost@@@?$is_mem_fun_pointer_select@$0A@@detail@boost@@2_NB DB 00H ; boost::detail::is_mem_fun_pointer_select<0>::result_<boost::archive::tracking_type>::value
CONST	ENDS
;	COMDAT ?value@?$is_pointer_helper@Utracking_type@archive@boost@@@detail@boost@@2_NB
CONST	SEGMENT
?value@?$is_pointer_helper@Utracking_type@archive@boost@@@detail@boost@@2_NB DB 00H ; boost::detail::is_pointer_helper<boost::archive::tracking_type>::value
CONST	ENDS
;	COMDAT ?is_volatile@?$cv_traits_imp@PAUtracking_type@archive@boost@@@detail@boost@@2_NB
CONST	SEGMENT
?is_volatile@?$cv_traits_imp@PAUtracking_type@archive@boost@@@detail@boost@@2_NB DB 00H ; boost::detail::cv_traits_imp<boost::archive::tracking_type *>::is_volatile
CONST	ENDS
;	COMDAT ?is_const@?$cv_traits_imp@PAUtracking_type@archive@boost@@@detail@boost@@2_NB
CONST	SEGMENT
?is_const@?$cv_traits_imp@PAUtracking_type@archive@boost@@@detail@boost@@2_NB DB 00H ; boost::detail::cv_traits_imp<boost::archive::tracking_type *>::is_const
CONST	ENDS
;	COMDAT ?is_volatile@?$cv_traits_imp@PBV?$iterator_range@V?$_String_iterator@DU?$char_traits@D@std@@V?$allocator@D@2@@std@@@boost@@@detail@boost@@2_NB
CONST	SEGMENT
?is_volatile@?$cv_traits_imp@PBV?$iterator_range@V?$_String_iterator@DU?$char_traits@D@std@@V?$allocator@D@2@@std@@@boost@@@detail@boost@@2_NB DB 00H ; boost::detail::cv_traits_imp<boost::iterator_range<std::_String_iterator<char,std::char_traits<char>,std::allocator<char> > > const *>::is_volatile
CONST	ENDS
;	COMDAT ?is_const@?$cv_traits_imp@PBV?$iterator_range@V?$_String_iterator@DU?$char_traits@D@std@@V?$allocator@D@2@@std@@@boost@@@detail@boost@@2_NB
CONST	SEGMENT
?is_const@?$cv_traits_imp@PBV?$iterator_range@V?$_String_iterator@DU?$char_traits@D@std@@V?$allocator@D@2@@std@@@boost@@@detail@boost@@2_NB DB 01H ; boost::detail::cv_traits_imp<boost::iterator_range<std::_String_iterator<char,std::char_traits<char>,std::allocator<char> > > const *>::is_const
CONST	ENDS
;	COMDAT ?value@?$is_abstract_imp@D@detail@boost@@2_NB
CONST	SEGMENT
?value@?$is_abstract_imp@D@detail@boost@@2_NB DB 00H	; boost::detail::is_abstract_imp<char>::value
CONST	ENDS
;	COMDAT ?is_volatile@?$cv_traits_imp@PAV?$basic_string@DU?$char_traits@D@std@@V?$allocator@D@2@@std@@@detail@boost@@2_NB
CONST	SEGMENT
?is_volatile@?$cv_traits_imp@PAV?$basic_string@DU?$char_traits@D@std@@V?$allocator@D@2@@std@@@detail@boost@@2_NB DB 00H ; boost::detail::cv_traits_imp<std::basic_string<char,std::char_traits<char>,std::allocator<char> > *>::is_volatile
CONST	ENDS
;	COMDAT ?is_const@?$cv_traits_imp@PAV?$basic_string@DU?$char_traits@D@std@@V?$allocator@D@2@@std@@@detail@boost@@2_NB
CONST	SEGMENT
?is_const@?$cv_traits_imp@PAV?$basic_string@DU?$char_traits@D@std@@V?$allocator@D@2@@std@@@detail@boost@@2_NB DB 00H ; boost::detail::cv_traits_imp<std::basic_string<char,std::char_traits<char>,std::allocator<char> > *>::is_const
CONST	ENDS
;	COMDAT ?is_volatile@?$cv_traits_imp@PBV?$basic_string@DU?$char_traits@D@std@@V?$allocator@D@2@@std@@@detail@boost@@2_NB
CONST	SEGMENT
?is_volatile@?$cv_traits_imp@PBV?$basic_string@DU?$char_traits@D@std@@V?$allocator@D@2@@std@@@detail@boost@@2_NB DB 00H ; boost::detail::cv_traits_imp<std::basic_string<char,std::char_traits<char>,std::allocator<char> > const *>::is_volatile
CONST	ENDS
;	COMDAT ?is_const@?$cv_traits_imp@PBV?$basic_string@DU?$char_traits@D@std@@V?$allocator@D@2@@std@@@detail@boost@@2_NB
CONST	SEGMENT
?is_const@?$cv_traits_imp@PBV?$basic_string@DU?$char_traits@D@std@@V?$allocator@D@2@@std@@@detail@boost@@2_NB DB 01H ; boost::detail::cv_traits_imp<std::basic_string<char,std::char_traits<char>,std::allocator<char> > const *>::is_const
CONST	ENDS
;	COMDAT ?value@?$is_arithmetic_impl@_J@detail@boost@@2_NB
CONST	SEGMENT
?value@?$is_arithmetic_impl@_J@detail@boost@@2_NB DB 01H ; boost::detail::is_arithmetic_impl<__int64>::value
CONST	ENDS
;	COMDAT ?value@?$is_pointer_impl@_J@detail@boost@@2_NB
CONST	SEGMENT
?value@?$is_pointer_impl@_J@detail@boost@@2_NB DB 00H	; boost::detail::is_pointer_impl<__int64>::value
CONST	ENDS
;	COMDAT ?value@?$result_@_J@?$is_mem_fun_pointer_select@$0A@@detail@boost@@2_NB
CONST	SEGMENT
?value@?$result_@_J@?$is_mem_fun_pointer_select@$0A@@detail@boost@@2_NB DB 00H ; boost::detail::is_mem_fun_pointer_select<0>::result_<__int64>::value
CONST	ENDS
;	COMDAT ?value@?$is_pointer_helper@_J@detail@boost@@2_NB
CONST	SEGMENT
?value@?$is_pointer_helper@_J@detail@boost@@2_NB DB 00H	; boost::detail::is_pointer_helper<__int64>::value
CONST	ENDS
;	COMDAT ?is_volatile@?$cv_traits_imp@PA_J@detail@boost@@2_NB
CONST	SEGMENT
?is_volatile@?$cv_traits_imp@PA_J@detail@boost@@2_NB DB 00H ; boost::detail::cv_traits_imp<__int64 *>::is_volatile
CONST	ENDS
;	COMDAT ?is_const@?$cv_traits_imp@PA_J@detail@boost@@2_NB
CONST	SEGMENT
?is_const@?$cv_traits_imp@PA_J@detail@boost@@2_NB DB 00H ; boost::detail::cv_traits_imp<__int64 *>::is_const
CONST	ENDS
;	COMDAT ?value@?$not_satisfied@U?$SGIAssignableConcept@_J@boost@@@concept@boost@@2_NB
CONST	SEGMENT
?value@?$not_satisfied@U?$SGIAssignableConcept@_J@boost@@@concept@boost@@2_NB DB 00H ; boost::concept::not_satisfied<boost::SGIAssignableConcept<__int64> >::value
CONST	ENDS
;	COMDAT ?value@?$not_satisfied@U?$usage_requirements@U?$SGIAssignable@_J@boost@@@concept@boost@@@concept@boost@@2_NB
CONST	SEGMENT
?value@?$not_satisfied@U?$usage_requirements@U?$SGIAssignable@_J@boost@@@concept@boost@@@concept@boost@@2_NB DB 00H ; boost::concept::not_satisfied<boost::concept::usage_requirements<boost::SGIAssignable<__int64> > >::value
CONST	ENDS
;	COMDAT ?value@?$is_empty_impl@$$CDX@detail@boost@@2_NB
CONST	SEGMENT
?value@?$is_empty_impl@$$CDX@detail@boost@@2_NB DB 00H	; boost::detail::is_empty_impl<void const volatile >::value
CONST	ENDS
;	COMDAT ?value@?$is_empty_impl@$$CCX@detail@boost@@2_NB
CONST	SEGMENT
?value@?$is_empty_impl@$$CCX@detail@boost@@2_NB DB 00H	; boost::detail::is_empty_impl<void volatile >::value
CONST	ENDS
;	COMDAT ?value@?$is_empty_impl@$$CBX@detail@boost@@2_NB
CONST	SEGMENT
?value@?$is_empty_impl@$$CBX@detail@boost@@2_NB DB 00H	; boost::detail::is_empty_impl<void const >::value
CONST	ENDS
;	COMDAT ?value@?$is_empty_impl@X@detail@boost@@2_NB
CONST	SEGMENT
?value@?$is_empty_impl@X@detail@boost@@2_NB DB 00H	; boost::detail::is_empty_impl<void>::value
CONST	ENDS
;	COMDAT ?value@?$is_convertible_impl@Uoutput@iostreams@boost@@Uinput@23@@detail@boost@@2_NB
CONST	SEGMENT
?value@?$is_convertible_impl@Uoutput@iostreams@boost@@Uinput@23@@detail@boost@@2_NB DB 00H ; boost::detail::is_convertible_impl<boost::iostreams::output,boost::iostreams::input>::value
CONST	ENDS
;	COMDAT ?value@?$is_convertible_basic_impl@AAUoutput@iostreams@boost@@Uinput@23@@detail@boost@@2_NB
CONST	SEGMENT
?value@?$is_convertible_basic_impl@AAUoutput@iostreams@boost@@Uinput@23@@detail@boost@@2_NB DB 00H ; boost::detail::is_convertible_basic_impl<boost::iostreams::output &,boost::iostreams::input>::value
CONST	ENDS
;	COMDAT ?value@?$int_@$0A@@mpl@boost@@2HB
CONST	SEGMENT
?value@?$int_@$0A@@mpl@boost@@2HB DD 00H		; boost::mpl::int_<0>::value
CONST	ENDS
;	COMDAT ?value@?$implementation_level@V?$basic_string@_WU?$char_traits@_W@std@@V?$allocator@_W@2@@std@@@serialization@boost@@2HB
CONST	SEGMENT
?value@?$implementation_level@V?$basic_string@_WU?$char_traits@_W@std@@V?$allocator@_W@2@@std@@@serialization@boost@@2HB DD 01H ; boost::serialization::implementation_level<std::basic_string<wchar_t,std::char_traits<wchar_t>,std::allocator<wchar_t> > >::value
CONST	ENDS
;	COMDAT ?value@?$implementation_level@V?$basic_string@DU?$char_traits@D@std@@V?$allocator@D@2@@std@@@serialization@boost@@2HB
CONST	SEGMENT
?value@?$implementation_level@V?$basic_string@DU?$char_traits@D@std@@V?$allocator@D@2@@std@@@serialization@boost@@2HB DD 01H ; boost::serialization::implementation_level<std::basic_string<char,std::char_traits<char>,std::allocator<char> > >::value
CONST	ENDS
;	COMDAT ?value@?$implementation_level@Utracking_type@archive@boost@@@serialization@boost@@2HB
CONST	SEGMENT
?value@?$implementation_level@Utracking_type@archive@boost@@@serialization@boost@@2HB DD 01H ; boost::serialization::implementation_level<boost::archive::tracking_type>::value
CONST	ENDS
;	COMDAT ?value@?$implementation_level@Uobject_reference_type@archive@boost@@@serialization@boost@@2HB
CONST	SEGMENT
?value@?$implementation_level@Uobject_reference_type@archive@boost@@@serialization@boost@@2HB DD 01H ; boost::serialization::implementation_level<boost::archive::object_reference_type>::value
CONST	ENDS
;	COMDAT ?value@?$implementation_level@Uobject_id_type@archive@boost@@@serialization@boost@@2HB
CONST	SEGMENT
?value@?$implementation_level@Uobject_id_type@archive@boost@@@serialization@boost@@2HB DD 01H ; boost::serialization::implementation_level<boost::archive::object_id_type>::value
CONST	ENDS
;	COMDAT ?value@?$implementation_level@Uclass_name_type@archive@boost@@@serialization@boost@@2HB
CONST	SEGMENT
?value@?$implementation_level@Uclass_name_type@archive@boost@@@serialization@boost@@2HB DD 01H ; boost::serialization::implementation_level<boost::archive::class_name_type>::value
CONST	ENDS
;	COMDAT ?value@?$implementation_level@Uclass_id_optional_type@archive@boost@@@serialization@boost@@2HB
CONST	SEGMENT
?value@?$implementation_level@Uclass_id_optional_type@archive@boost@@@serialization@boost@@2HB DD 01H ; boost::serialization::implementation_level<boost::archive::class_id_optional_type>::value
CONST	ENDS
;	COMDAT ?value@?$implementation_level@Uclass_id_reference_type@archive@boost@@@serialization@boost@@2HB
CONST	SEGMENT
?value@?$implementation_level@Uclass_id_reference_type@archive@boost@@@serialization@boost@@2HB DD 01H ; boost::serialization::implementation_level<boost::archive::class_id_reference_type>::value
CONST	ENDS
;	COMDAT ?value@?$implementation_level@Uclass_id_type@archive@boost@@@serialization@boost@@2HB
CONST	SEGMENT
?value@?$implementation_level@Uclass_id_type@archive@boost@@@serialization@boost@@2HB DD 01H ; boost::serialization::implementation_level<boost::archive::class_id_type>::value
CONST	ENDS
;	COMDAT ?value@?$implementation_level@Uversion_type@archive@boost@@@serialization@boost@@2HB
CONST	SEGMENT
?value@?$implementation_level@Uversion_type@archive@boost@@@serialization@boost@@2HB DD 01H ; boost::serialization::implementation_level<boost::archive::version_type>::value
CONST	ENDS
;	COMDAT ?value@?$implementation_level@V?$list@_WV?$allocator@_W@std@@@std@@@serialization@boost@@2HB
CONST	SEGMENT
?value@?$implementation_level@V?$list@_WV?$allocator@_W@std@@@std@@@serialization@boost@@2HB DD 02H ; boost::serialization::implementation_level<std::list<wchar_t,std::allocator<wchar_t> > >::value
CONST	ENDS
;	COMDAT ?value@?$implementation_level@V?$list@_KV?$allocator@_K@std@@@std@@@serialization@boost@@2HB
CONST	SEGMENT
?value@?$implementation_level@V?$list@_KV?$allocator@_K@std@@@std@@@serialization@boost@@2HB DD 02H ; boost::serialization::implementation_level<std::list<unsigned __int64,std::allocator<unsigned __int64> > >::value
CONST	ENDS
;	COMDAT ?value@?$implementation_level@V?$list@_JV?$allocator@_J@std@@@std@@@serialization@boost@@2HB
CONST	SEGMENT
?value@?$implementation_level@V?$list@_JV?$allocator@_J@std@@@std@@@serialization@boost@@2HB DD 02H ; boost::serialization::implementation_level<std::list<__int64,std::allocator<__int64> > >::value
CONST	ENDS
;	COMDAT ?value@?$implementation_level@V?$list@FV?$allocator@F@std@@@std@@@serialization@boost@@2HB
CONST	SEGMENT
?value@?$implementation_level@V?$list@FV?$allocator@F@std@@@std@@@serialization@boost@@2HB DD 02H ; boost::serialization::implementation_level<std::list<short,std::allocator<short> > >::value
CONST	ENDS
;	COMDAT ?value@?$implementation_level@V?$list@GV?$allocator@G@std@@@std@@@serialization@boost@@2HB
CONST	SEGMENT
?value@?$implementation_level@V?$list@GV?$allocator@G@std@@@std@@@serialization@boost@@2HB DD 02H ; boost::serialization::implementation_level<std::list<unsigned short,std::allocator<unsigned short> > >::value
CONST	ENDS
;	COMDAT ?value@?$implementation_level@V?$list@NV?$allocator@N@std@@@std@@@serialization@boost@@2HB
CONST	SEGMENT
?value@?$implementation_level@V?$list@NV?$allocator@N@std@@@std@@@serialization@boost@@2HB DD 02H ; boost::serialization::implementation_level<std::list<double,std::allocator<double> > >::value
CONST	ENDS
;	COMDAT ?value@?$implementation_level@V?$list@MV?$allocator@M@std@@@std@@@serialization@boost@@2HB
CONST	SEGMENT
?value@?$implementation_level@V?$list@MV?$allocator@M@std@@@std@@@serialization@boost@@2HB DD 02H ; boost::serialization::implementation_level<std::list<float,std::allocator<float> > >::value
CONST	ENDS
;	COMDAT ?value@?$implementation_level@V?$list@KV?$allocator@K@std@@@std@@@serialization@boost@@2HB
CONST	SEGMENT
?value@?$implementation_level@V?$list@KV?$allocator@K@std@@@std@@@serialization@boost@@2HB DD 02H ; boost::serialization::implementation_level<std::list<unsigned long,std::allocator<unsigned long> > >::value
CONST	ENDS
;	COMDAT ?value@?$implementation_level@V?$list@JV?$allocator@J@std@@@std@@@serialization@boost@@2HB
CONST	SEGMENT
?value@?$implementation_level@V?$list@JV?$allocator@J@std@@@std@@@serialization@boost@@2HB DD 02H ; boost::serialization::implementation_level<std::list<long,std::allocator<long> > >::value
CONST	ENDS
;	COMDAT ?value@?$implementation_level@V?$list@IV?$allocator@I@std@@@std@@@serialization@boost@@2HB
CONST	SEGMENT
?value@?$implementation_level@V?$list@IV?$allocator@I@std@@@std@@@serialization@boost@@2HB DD 02H ; boost::serialization::implementation_level<std::list<unsigned int,std::allocator<unsigned int> > >::value
CONST	ENDS
;	COMDAT ?value@?$implementation_level@V?$list@HV?$allocator@H@std@@@std@@@serialization@boost@@2HB
CONST	SEGMENT
?value@?$implementation_level@V?$list@HV?$allocator@H@std@@@std@@@serialization@boost@@2HB DD 02H ; boost::serialization::implementation_level<std::list<int,std::allocator<int> > >::value
CONST	ENDS
;	COMDAT ?value@?$implementation_level@V?$list@EV?$allocator@E@std@@@std@@@serialization@boost@@2HB
CONST	SEGMENT
?value@?$implementation_level@V?$list@EV?$allocator@E@std@@@std@@@serialization@boost@@2HB DD 02H ; boost::serialization::implementation_level<std::list<unsigned char,std::allocator<unsigned char> > >::value
CONST	ENDS
;	COMDAT ?value@?$implementation_level@V?$list@CV?$allocator@C@std@@@std@@@serialization@boost@@2HB
CONST	SEGMENT
?value@?$implementation_level@V?$list@CV?$allocator@C@std@@@std@@@serialization@boost@@2HB DD 02H ; boost::serialization::implementation_level<std::list<signed char,std::allocator<signed char> > >::value
CONST	ENDS
;	COMDAT ?value@?$implementation_level@V?$list@DV?$allocator@D@std@@@std@@@serialization@boost@@2HB
CONST	SEGMENT
?value@?$implementation_level@V?$list@DV?$allocator@D@std@@@std@@@serialization@boost@@2HB DD 02H ; boost::serialization::implementation_level<std::list<char,std::allocator<char> > >::value
CONST	ENDS
;	COMDAT ?value@?$implementation_level@V?$list@_NV?$allocator@_N@std@@@std@@@serialization@boost@@2HB
CONST	SEGMENT
?value@?$implementation_level@V?$list@_NV?$allocator@_N@std@@@std@@@serialization@boost@@2HB DD 02H ; boost::serialization::implementation_level<std::list<bool,std::allocator<bool> > >::value
CONST	ENDS
;	COMDAT ?has_fixed_range@?$backward_compatible_uniform_01@V?$pass_through_engine@V?$mersenne_twister@K$0CA@$0CHA@$0BIN@$0BP@$0JJAILANP@$0L@$06$0JNCMFGIA@$0P@$0OPMGAAAA@$0BC@$0MHHGGGNO@@random@boost@@@detail@random@boost@@N@detail@boost@@2_NB
CONST	SEGMENT
?has_fixed_range@?$backward_compatible_uniform_01@V?$pass_through_engine@V?$mersenne_twister@K$0CA@$0CHA@$0BIN@$0BP@$0JJAILANP@$0L@$06$0JNCMFGIA@$0P@$0OPMGAAAA@$0BC@$0MHHGGGNO@@random@boost@@@detail@random@boost@@N@detail@boost@@2_NB DB 00H ; boost::detail::backward_compatible_uniform_01<boost::random::detail::pass_through_engine<boost::random::mersenne_twister<unsigned long,32,624,397,31,2567483615,11,7,2636928640,15,4022730752,18,3346425566> >,double>::has_fixed_range
CONST	ENDS
;	COMDAT ?has_fixed_range@?$backward_compatible_uniform_01@V?$pass_through_engine@AAV?$mersenne_twister@K$0CA@$0CHA@$0BIN@$0BP@$0JJAILANP@$0L@$06$0JNCMFGIA@$0P@$0OPMGAAAA@$0BC@$0MHHGGGNO@@random@boost@@@detail@random@boost@@N@detail@boost@@2_NB
CONST	SEGMENT
?has_fixed_range@?$backward_compatible_uniform_01@V?$pass_through_engine@AAV?$mersenne_twister@K$0CA@$0CHA@$0BIN@$0BP@$0JJAILANP@$0L@$06$0JNCMFGIA@$0P@$0OPMGAAAA@$0BC@$0MHHGGGNO@@random@boost@@@detail@random@boost@@N@detail@boost@@2_NB DB 00H ; boost::detail::backward_compatible_uniform_01<boost::random::detail::pass_through_engine<boost::random::mersenne_twister<unsigned long,32,624,397,31,2567483615,11,7,2636928640,15,4022730752,18,3346425566> &>,double>::has_fixed_range
CONST	ENDS
;	COMDAT ?value@?$is_unsigned_imp@H@detail@boost@@2_NB
CONST	SEGMENT
?value@?$is_unsigned_imp@H@detail@boost@@2_NB DB 00H	; boost::detail::is_unsigned_imp<int>::value
CONST	ENDS
;	COMDAT ?value@?$is_ununsigned_helper@H@detail@boost@@2_NB
CONST	SEGMENT
?value@?$is_ununsigned_helper@H@detail@boost@@2_NB DB 00H ; boost::detail::is_ununsigned_helper<int>::value
CONST	ENDS
;	COMDAT ?is_volatile@?$cv_traits_imp@PAH@detail@boost@@2_NB
CONST	SEGMENT
?is_volatile@?$cv_traits_imp@PAH@detail@boost@@2_NB DB 00H ; boost::detail::cv_traits_imp<int *>::is_volatile
CONST	ENDS
;	COMDAT ?is_const@?$cv_traits_imp@PAH@detail@boost@@2_NB
CONST	SEGMENT
?is_const@?$cv_traits_imp@PAH@detail@boost@@2_NB DB 00H	; boost::detail::cv_traits_imp<int *>::is_const
CONST	ENDS
;	COMDAT ?has_fixed_range@?$mersenne_twister@K$0CA@$0CHA@$0BIN@$0BP@$0JJAILANP@$0L@$06$0JNCMFGIA@$0P@$0OPMGAAAA@$0BC@$0MHHGGGNO@@random@boost@@2_NB
CONST	SEGMENT
?has_fixed_range@?$mersenne_twister@K$0CA@$0CHA@$0BIN@$0BP@$0JJAILANP@$0L@$06$0JNCMFGIA@$0P@$0OPMGAAAA@$0BC@$0MHHGGGNO@@random@boost@@2_NB DB 00H ; boost::random::mersenne_twister<unsigned long,32,624,397,31,2567483615,11,7,2636928640,15,4022730752,18,3346425566>::has_fixed_range
CONST	ENDS
;	COMDAT ?output_l@?$mersenne_twister@K$0CA@$0CHA@$0BIN@$0BP@$0JJAILANP@$0L@$06$0JNCMFGIA@$0P@$0OPMGAAAA@$0BC@$0MHHGGGNO@@random@boost@@2HB
CONST	SEGMENT
?output_l@?$mersenne_twister@K$0CA@$0CHA@$0BIN@$0BP@$0JJAILANP@$0L@$06$0JNCMFGIA@$0P@$0OPMGAAAA@$0BC@$0MHHGGGNO@@random@boost@@2HB DD 012H ; boost::random::mersenne_twister<unsigned long,32,624,397,31,2567483615,11,7,2636928640,15,4022730752,18,3346425566>::output_l
CONST	ENDS
;	COMDAT ?output_c@?$mersenne_twister@K$0CA@$0CHA@$0BIN@$0BP@$0JJAILANP@$0L@$06$0JNCMFGIA@$0P@$0OPMGAAAA@$0BC@$0MHHGGGNO@@random@boost@@2KB
CONST	SEGMENT
?output_c@?$mersenne_twister@K$0CA@$0CHA@$0BIN@$0BP@$0JJAILANP@$0L@$06$0JNCMFGIA@$0P@$0OPMGAAAA@$0BC@$0MHHGGGNO@@random@boost@@2KB DD 0efc60000H ; boost::random::mersenne_twister<unsigned long,32,624,397,31,2567483615,11,7,2636928640,15,4022730752,18,3346425566>::output_c
CONST	ENDS
;	COMDAT ?output_t@?$mersenne_twister@K$0CA@$0CHA@$0BIN@$0BP@$0JJAILANP@$0L@$06$0JNCMFGIA@$0P@$0OPMGAAAA@$0BC@$0MHHGGGNO@@random@boost@@2HB
CONST	SEGMENT
?output_t@?$mersenne_twister@K$0CA@$0CHA@$0BIN@$0BP@$0JJAILANP@$0L@$06$0JNCMFGIA@$0P@$0OPMGAAAA@$0BC@$0MHHGGGNO@@random@boost@@2HB DD 0fH ; boost::random::mersenne_twister<unsigned long,32,624,397,31,2567483615,11,7,2636928640,15,4022730752,18,3346425566>::output_t
CONST	ENDS
;	COMDAT ?output_b@?$mersenne_twister@K$0CA@$0CHA@$0BIN@$0BP@$0JJAILANP@$0L@$06$0JNCMFGIA@$0P@$0OPMGAAAA@$0BC@$0MHHGGGNO@@random@boost@@2KB
CONST	SEGMENT
?output_b@?$mersenne_twister@K$0CA@$0CHA@$0BIN@$0BP@$0JJAILANP@$0L@$06$0JNCMFGIA@$0P@$0OPMGAAAA@$0BC@$0MHHGGGNO@@random@boost@@2KB DD 09d2c5680H ; boost::random::mersenne_twister<unsigned long,32,624,397,31,2567483615,11,7,2636928640,15,4022730752,18,3346425566>::output_b
CONST	ENDS
;	COMDAT ?output_s@?$mersenne_twister@K$0CA@$0CHA@$0BIN@$0BP@$0JJAILANP@$0L@$06$0JNCMFGIA@$0P@$0OPMGAAAA@$0BC@$0MHHGGGNO@@random@boost@@2HB
CONST	SEGMENT
?output_s@?$mersenne_twister@K$0CA@$0CHA@$0BIN@$0BP@$0JJAILANP@$0L@$06$0JNCMFGIA@$0P@$0OPMGAAAA@$0BC@$0MHHGGGNO@@random@boost@@2HB DD 07H ; boost::random::mersenne_twister<unsigned long,32,624,397,31,2567483615,11,7,2636928640,15,4022730752,18,3346425566>::output_s
CONST	ENDS
;	COMDAT ?output_u@?$mersenne_twister@K$0CA@$0CHA@$0BIN@$0BP@$0JJAILANP@$0L@$06$0JNCMFGIA@$0P@$0OPMGAAAA@$0BC@$0MHHGGGNO@@random@boost@@2HB
CONST	SEGMENT
?output_u@?$mersenne_twister@K$0CA@$0CHA@$0BIN@$0BP@$0JJAILANP@$0L@$06$0JNCMFGIA@$0P@$0OPMGAAAA@$0BC@$0MHHGGGNO@@random@boost@@2HB DD 0bH ; boost::random::mersenne_twister<unsigned long,32,624,397,31,2567483615,11,7,2636928640,15,4022730752,18,3346425566>::output_u
CONST	ENDS
;	COMDAT ?parameter_a@?$mersenne_twister@K$0CA@$0CHA@$0BIN@$0BP@$0JJAILANP@$0L@$06$0JNCMFGIA@$0P@$0OPMGAAAA@$0BC@$0MHHGGGNO@@random@boost@@2KB
CONST	SEGMENT
?parameter_a@?$mersenne_twister@K$0CA@$0CHA@$0BIN@$0BP@$0JJAILANP@$0L@$06$0JNCMFGIA@$0P@$0OPMGAAAA@$0BC@$0MHHGGGNO@@random@boost@@2KB DD 09908b0dfH ; boost::random::mersenne_twister<unsigned long,32,624,397,31,2567483615,11,7,2636928640,15,4022730752,18,3346425566>::parameter_a
CONST	ENDS
;	COMDAT ?mask_bits@?$mersenne_twister@K$0CA@$0CHA@$0BIN@$0BP@$0JJAILANP@$0L@$06$0JNCMFGIA@$0P@$0OPMGAAAA@$0BC@$0MHHGGGNO@@random@boost@@2HB
CONST	SEGMENT
?mask_bits@?$mersenne_twister@K$0CA@$0CHA@$0BIN@$0BP@$0JJAILANP@$0L@$06$0JNCMFGIA@$0P@$0OPMGAAAA@$0BC@$0MHHGGGNO@@random@boost@@2HB DD 01fH ; boost::random::mersenne_twister<unsigned long,32,624,397,31,2567483615,11,7,2636928640,15,4022730752,18,3346425566>::mask_bits
CONST	ENDS
;	COMDAT ?shift_size@?$mersenne_twister@K$0CA@$0CHA@$0BIN@$0BP@$0JJAILANP@$0L@$06$0JNCMFGIA@$0P@$0OPMGAAAA@$0BC@$0MHHGGGNO@@random@boost@@2HB
CONST	SEGMENT
?shift_size@?$mersenne_twister@K$0CA@$0CHA@$0BIN@$0BP@$0JJAILANP@$0L@$06$0JNCMFGIA@$0P@$0OPMGAAAA@$0BC@$0MHHGGGNO@@random@boost@@2HB DD 018dH ; boost::random::mersenne_twister<unsigned long,32,624,397,31,2567483615,11,7,2636928640,15,4022730752,18,3346425566>::shift_size
CONST	ENDS
;	COMDAT ?state_size@?$mersenne_twister@K$0CA@$0CHA@$0BIN@$0BP@$0JJAILANP@$0L@$06$0JNCMFGIA@$0P@$0OPMGAAAA@$0BC@$0MHHGGGNO@@random@boost@@2HB
CONST	SEGMENT
?state_size@?$mersenne_twister@K$0CA@$0CHA@$0BIN@$0BP@$0JJAILANP@$0L@$06$0JNCMFGIA@$0P@$0OPMGAAAA@$0BC@$0MHHGGGNO@@random@boost@@2HB DD 0270H ; boost::random::mersenne_twister<unsigned long,32,624,397,31,2567483615,11,7,2636928640,15,4022730752,18,3346425566>::state_size
CONST	ENDS
;	COMDAT ?word_size@?$mersenne_twister@K$0CA@$0CHA@$0BIN@$0BP@$0JJAILANP@$0L@$06$0JNCMFGIA@$0P@$0OPMGAAAA@$0BC@$0MHHGGGNO@@random@boost@@2HB
CONST	SEGMENT
?word_size@?$mersenne_twister@K$0CA@$0CHA@$0BIN@$0BP@$0JJAILANP@$0L@$06$0JNCMFGIA@$0P@$0OPMGAAAA@$0BC@$0MHHGGGNO@@random@boost@@2HB DD 020H ; boost::random::mersenne_twister<unsigned long,32,624,397,31,2567483615,11,7,2636928640,15,4022730752,18,3346425566>::word_size
CONST	ENDS
;	COMDAT ?value@?$is_convertible_impl@Uinput@iostreams@boost@@Uoutput@23@@detail@boost@@2_NB
CONST	SEGMENT
?value@?$is_convertible_impl@Uinput@iostreams@boost@@Uoutput@23@@detail@boost@@2_NB DB 00H ; boost::detail::is_convertible_impl<boost::iostreams::input,boost::iostreams::output>::value
CONST	ENDS
;	COMDAT ?value@?$ice_and@$0A@$00$00$00$00$00$00@type_traits@boost@@2_NB
CONST	SEGMENT
?value@?$ice_and@$0A@$00$00$00$00$00$00@type_traits@boost@@2_NB DB 00H ; boost::type_traits::ice_and<0,1,1,1,1,1,1>::value
CONST	ENDS
;	COMDAT ?value@?$is_convertible_basic_impl@AAUinput@iostreams@boost@@Uoutput@23@@detail@boost@@2_NB
CONST	SEGMENT
?value@?$is_convertible_basic_impl@AAUinput@iostreams@boost@@Uoutput@23@@detail@boost@@2_NB DB 00H ; boost::detail::is_convertible_basic_impl<boost::iostreams::input &,boost::iostreams::output>::value
CONST	ENDS
;	COMDAT ?value@?$is_abstract_imp@Uoutput@iostreams@boost@@@detail@boost@@2_NB
CONST	SEGMENT
?value@?$is_abstract_imp@Uoutput@iostreams@boost@@@detail@boost@@2_NB DB 00H ; boost::detail::is_abstract_imp<boost::iostreams::output>::value
CONST	ENDS
;	COMDAT ?value@?$is_arithmetic_impl@Uoutput@iostreams@boost@@@detail@boost@@2_NB
CONST	SEGMENT
?value@?$is_arithmetic_impl@Uoutput@iostreams@boost@@@detail@boost@@2_NB DB 00H ; boost::detail::is_arithmetic_impl<boost::iostreams::output>::value
CONST	ENDS
;	COMDAT ?value@?$is_convertible_impl@Uinput@iostreams@boost@@U123@@detail@boost@@2_NB
CONST	SEGMENT
?value@?$is_convertible_impl@Uinput@iostreams@boost@@U123@@detail@boost@@2_NB DB 01H ; boost::detail::is_convertible_impl<boost::iostreams::input,boost::iostreams::input>::value
CONST	ENDS
;	COMDAT ?value@?$ice_not@$0A@@type_traits@boost@@2_NB
CONST	SEGMENT
?value@?$ice_not@$0A@@type_traits@boost@@2_NB DB 01H	; boost::type_traits::ice_not<0>::value
CONST	ENDS
;	COMDAT ?value@?$ice_or@$00$0A@$0A@$0A@$0A@$0A@$0A@@type_traits@boost@@2_NB
CONST	SEGMENT
?value@?$ice_or@$00$0A@$0A@$0A@$0A@$0A@$0A@@type_traits@boost@@2_NB DB 01H ; boost::type_traits::ice_or<1,0,0,0,0,0,0>::value
CONST	ENDS
;	COMDAT ?value@?$is_convertible_basic_impl@AAUinput@iostreams@boost@@U123@@detail@boost@@2_NB
CONST	SEGMENT
?value@?$is_convertible_basic_impl@AAUinput@iostreams@boost@@U123@@detail@boost@@2_NB DB 01H ; boost::detail::is_convertible_basic_impl<boost::iostreams::input &,boost::iostreams::input>::value
CONST	ENDS
;	COMDAT ?value@?$is_abstract_imp@Uinput@iostreams@boost@@@detail@boost@@2_NB
CONST	SEGMENT
?value@?$is_abstract_imp@Uinput@iostreams@boost@@@detail@boost@@2_NB DB 00H ; boost::detail::is_abstract_imp<boost::iostreams::input>::value
CONST	ENDS
;	COMDAT ?value@?$is_arithmetic_impl@Uinput@iostreams@boost@@@detail@boost@@2_NB
CONST	SEGMENT
?value@?$is_arithmetic_impl@Uinput@iostreams@boost@@@detail@boost@@2_NB DB 00H ; boost::detail::is_arithmetic_impl<boost::iostreams::input>::value
CONST	ENDS
;	COMDAT ?step_size@?$linear_feedback_shift@K$0CA@$0BN@$01$03$0A@@random@boost@@2HB
CONST	SEGMENT
?step_size@?$linear_feedback_shift@K$0CA@$0BN@$01$03$0A@@random@boost@@2HB DD 04H ; boost::random::linear_feedback_shift<unsigned long,32,29,2,4,0>::step_size
CONST	ENDS
;	COMDAT ?exponent2@?$linear_feedback_shift@K$0CA@$0BN@$01$03$0A@@random@boost@@2HB
CONST	SEGMENT
?exponent2@?$linear_feedback_shift@K$0CA@$0BN@$01$03$0A@@random@boost@@2HB DD 02H ; boost::random::linear_feedback_shift<unsigned long,32,29,2,4,0>::exponent2
CONST	ENDS
;	COMDAT ?exponent1@?$linear_feedback_shift@K$0CA@$0BN@$01$03$0A@@random@boost@@2HB
CONST	SEGMENT
?exponent1@?$linear_feedback_shift@K$0CA@$0BN@$01$03$0A@@random@boost@@2HB DD 01dH ; boost::random::linear_feedback_shift<unsigned long,32,29,2,4,0>::exponent1
CONST	ENDS
;	COMDAT ?word_size@?$linear_feedback_shift@K$0CA@$0BN@$01$03$0A@@random@boost@@2HB
CONST	SEGMENT
?word_size@?$linear_feedback_shift@K$0CA@$0BN@$01$03$0A@@random@boost@@2HB DD 020H ; boost::random::linear_feedback_shift<unsigned long,32,29,2,4,0>::word_size
CONST	ENDS
;	COMDAT ?has_fixed_range@?$linear_feedback_shift@K$0CA@$0BN@$01$03$0A@@random@boost@@2_NB
CONST	SEGMENT
?has_fixed_range@?$linear_feedback_shift@K$0CA@$0BN@$01$03$0A@@random@boost@@2_NB DB 00H ; boost::random::linear_feedback_shift<unsigned long,32,29,2,4,0>::has_fixed_range
CONST	ENDS
;	COMDAT ?shift2@?$xor_combine@V?$linear_feedback_shift@K$0CA@$0BP@$0N@$0M@$0A@@random@boost@@$0A@V?$linear_feedback_shift@K$0CA@$0BN@$01$03$0A@@23@$0A@$0A@@random@boost@@2HB
CONST	SEGMENT
?shift2@?$xor_combine@V?$linear_feedback_shift@K$0CA@$0BP@$0N@$0M@$0A@@random@boost@@$0A@V?$linear_feedback_shift@K$0CA@$0BN@$01$03$0A@@23@$0A@$0A@@random@boost@@2HB DD 00H ; boost::random::xor_combine<boost::random::linear_feedback_shift<unsigned long,32,31,13,12,0>,0,boost::random::linear_feedback_shift<unsigned long,32,29,2,4,0>,0,0>::shift2
CONST	ENDS
;	COMDAT ?shift1@?$xor_combine@V?$linear_feedback_shift@K$0CA@$0BP@$0N@$0M@$0A@@random@boost@@$0A@V?$linear_feedback_shift@K$0CA@$0BN@$01$03$0A@@23@$0A@$0A@@random@boost@@2HB
CONST	SEGMENT
?shift1@?$xor_combine@V?$linear_feedback_shift@K$0CA@$0BP@$0N@$0M@$0A@@random@boost@@$0A@V?$linear_feedback_shift@K$0CA@$0BN@$01$03$0A@@23@$0A@$0A@@random@boost@@2HB DD 00H ; boost::random::xor_combine<boost::random::linear_feedback_shift<unsigned long,32,31,13,12,0>,0,boost::random::linear_feedback_shift<unsigned long,32,29,2,4,0>,0,0>::shift1
CONST	ENDS
;	COMDAT ?has_fixed_range@?$xor_combine@V?$linear_feedback_shift@K$0CA@$0BP@$0N@$0M@$0A@@random@boost@@$0A@V?$linear_feedback_shift@K$0CA@$0BN@$01$03$0A@@23@$0A@$0A@@random@boost@@2_NB
CONST	SEGMENT
?has_fixed_range@?$xor_combine@V?$linear_feedback_shift@K$0CA@$0BP@$0N@$0M@$0A@@random@boost@@$0A@V?$linear_feedback_shift@K$0CA@$0BN@$01$03$0A@@23@$0A@$0A@@random@boost@@2_NB DB 00H ; boost::random::xor_combine<boost::random::linear_feedback_shift<unsigned long,32,31,13,12,0>,0,boost::random::linear_feedback_shift<unsigned long,32,29,2,4,0>,0,0>::has_fixed_range
CONST	ENDS
;	COMDAT ?step_size@?$linear_feedback_shift@K$0CA@$0BP@$0N@$0M@$0A@@random@boost@@2HB
CONST	SEGMENT
?step_size@?$linear_feedback_shift@K$0CA@$0BP@$0N@$0M@$0A@@random@boost@@2HB DD 0cH ; boost::random::linear_feedback_shift<unsigned long,32,31,13,12,0>::step_size
CONST	ENDS
;	COMDAT ?exponent2@?$linear_feedback_shift@K$0CA@$0BP@$0N@$0M@$0A@@random@boost@@2HB
CONST	SEGMENT
?exponent2@?$linear_feedback_shift@K$0CA@$0BP@$0N@$0M@$0A@@random@boost@@2HB DD 0dH ; boost::random::linear_feedback_shift<unsigned long,32,31,13,12,0>::exponent2
CONST	ENDS
;	COMDAT ?exponent1@?$linear_feedback_shift@K$0CA@$0BP@$0N@$0M@$0A@@random@boost@@2HB
CONST	SEGMENT
?exponent1@?$linear_feedback_shift@K$0CA@$0BP@$0N@$0M@$0A@@random@boost@@2HB DD 01fH ; boost::random::linear_feedback_shift<unsigned long,32,31,13,12,0>::exponent1
CONST	ENDS
;	COMDAT ?word_size@?$linear_feedback_shift@K$0CA@$0BP@$0N@$0M@$0A@@random@boost@@2HB
CONST	SEGMENT
?word_size@?$linear_feedback_shift@K$0CA@$0BP@$0N@$0M@$0A@@random@boost@@2HB DD 020H ; boost::random::linear_feedback_shift<unsigned long,32,31,13,12,0>::word_size
CONST	ENDS
;	COMDAT ?has_fixed_range@?$linear_feedback_shift@K$0CA@$0BP@$0N@$0M@$0A@@random@boost@@2_NB
CONST	SEGMENT
?has_fixed_range@?$linear_feedback_shift@K$0CA@$0BP@$0N@$0M@$0A@@random@boost@@2_NB DB 00H ; boost::random::linear_feedback_shift<unsigned long,32,31,13,12,0>::has_fixed_range
CONST	ENDS
;	COMDAT ?is_specialized@?$fibonacci_validation@N$0KNNB@$0FCCK@@random@boost@@2_NB
CONST	SEGMENT
?is_specialized@?$fibonacci_validation@N$0KNNB@$0FCCK@@random@boost@@2_NB DB 01H ; boost::random::fibonacci_validation<double,44497,21034>::is_specialized
CONST	ENDS
;	COMDAT ?is_specialized@?$fibonacci_validation@N$0FKKJ@$0DEJO@@random@boost@@2_NB
CONST	SEGMENT
?is_specialized@?$fibonacci_validation@N$0FKKJ@$0DEJO@@random@boost@@2_NB DB 01H ; boost::random::fibonacci_validation<double,23209,13470>::is_specialized
CONST	ENDS
;	COMDAT ?is_specialized@?$fibonacci_validation@N$0ENOB@$0CGHC@@random@boost@@2_NB
CONST	SEGMENT
?is_specialized@?$fibonacci_validation@N$0ENOB@$0CGHC@@random@boost@@2_NB DB 01H ; boost::random::fibonacci_validation<double,19937,9842>::is_specialized
CONST	ENDS
;	COMDAT ?is_specialized@?$fibonacci_validation@N$0CFNJ@$0BFHO@@random@boost@@2_NB
CONST	SEGMENT
?is_specialized@?$fibonacci_validation@N$0CFNJ@$0BFHO@@random@boost@@2_NB DB 01H ; boost::random::fibonacci_validation<double,9689,5502>::is_specialized
CONST	ENDS
;	COMDAT ?is_specialized@?$fibonacci_validation@N$0BBEH@$0IDC@@random@boost@@2_NB
CONST	SEGMENT
?is_specialized@?$fibonacci_validation@N$0BBEH@$0IDC@@random@boost@@2_NB DB 01H ; boost::random::fibonacci_validation<double,4423,2098>::is_specialized
CONST	ENDS
;	COMDAT ?is_specialized@?$fibonacci_validation@N$0MJB@$0CEA@@random@boost@@2_NB
CONST	SEGMENT
?is_specialized@?$fibonacci_validation@N$0MJB@$0CEA@@random@boost@@2_NB DB 01H ; boost::random::fibonacci_validation<double,3217,576>::is_specialized
CONST	ENDS
;	COMDAT ?is_specialized@?$fibonacci_validation@N$0IOJ@$0EOE@@random@boost@@2_NB
CONST	SEGMENT
?is_specialized@?$fibonacci_validation@N$0IOJ@$0EOE@@random@boost@@2_NB DB 01H ; boost::random::fibonacci_validation<double,2281,1252>::is_specialized
CONST	ENDS
;	COMDAT ?is_specialized@?$fibonacci_validation@N$0EPP@$0BKC@@random@boost@@2_NB
CONST	SEGMENT
?is_specialized@?$fibonacci_validation@N$0EPP@$0BKC@@random@boost@@2_NB DB 01H ; boost::random::fibonacci_validation<double,1279,418>::is_specialized
CONST	ENDS
;	COMDAT ?is_specialized@?$fibonacci_validation@N$0CFP@$0BBB@@random@boost@@2_NB
CONST	SEGMENT
?is_specialized@?$fibonacci_validation@N$0CFP@$0BBB@@random@boost@@2_NB DB 01H ; boost::random::fibonacci_validation<double,607,273>::is_specialized
CONST	ENDS
;	COMDAT ?modulus@?$linear_congruential@K$0FFG@$0CENGJ@$0KOFCJ@$0A@@random@boost@@2KB
CONST	SEGMENT
?modulus@?$linear_congruential@K$0FFG@$0CENGJ@$0KOFCJ@$0A@@random@boost@@2KB DD 0ae529H ; boost::random::linear_congruential<unsigned long,1366,150889,714025,0>::modulus
CONST	ENDS
;	COMDAT ?increment@?$linear_congruential@K$0FFG@$0CENGJ@$0KOFCJ@$0A@@random@boost@@2KB
CONST	SEGMENT
?increment@?$linear_congruential@K$0FFG@$0CENGJ@$0KOFCJ@$0A@@random@boost@@2KB DD 024d69H ; boost::random::linear_congruential<unsigned long,1366,150889,714025,0>::increment
CONST	ENDS
;	COMDAT ?multiplier@?$linear_congruential@K$0FFG@$0CENGJ@$0KOFCJ@$0A@@random@boost@@2KB
CONST	SEGMENT
?multiplier@?$linear_congruential@K$0FFG@$0CENGJ@$0KOFCJ@$0A@@random@boost@@2KB DD 0556H ; boost::random::linear_congruential<unsigned long,1366,150889,714025,0>::multiplier
CONST	ENDS
;	COMDAT ?max_value@?$linear_congruential@K$0FFG@$0CENGJ@$0KOFCJ@$0A@@random@boost@@2KB
CONST	SEGMENT
?max_value@?$linear_congruential@K$0FFG@$0CENGJ@$0KOFCJ@$0A@@random@boost@@2KB DD 0ae528H ; boost::random::linear_congruential<unsigned long,1366,150889,714025,0>::max_value
CONST	ENDS
;	COMDAT ?min_value@?$linear_congruential@K$0FFG@$0CENGJ@$0KOFCJ@$0A@@random@boost@@2KB
CONST	SEGMENT
?min_value@?$linear_congruential@K$0FFG@$0CENGJ@$0KOFCJ@$0A@@random@boost@@2KB DD 00H ; boost::random::linear_congruential<unsigned long,1366,150889,714025,0>::min_value
CONST	ENDS
;	COMDAT ?has_fixed_range@?$linear_congruential@K$0FFG@$0CENGJ@$0KOFCJ@$0A@@random@boost@@2_NB
CONST	SEGMENT
?has_fixed_range@?$linear_congruential@K$0FFG@$0CENGJ@$0KOFCJ@$0A@@random@boost@@2_NB DB 01H ; boost::random::linear_congruential<unsigned long,1366,150889,714025,0>::has_fixed_range
CONST	ENDS
;	COMDAT ?modulus@?$linear_congruential@J$0JMEO@$0A@$0HPPPPPKL@$0A@@random@boost@@2JB
CONST	SEGMENT
?modulus@?$linear_congruential@J$0JMEO@$0A@$0HPPPPPKL@$0A@@random@boost@@2JB DD 07fffffabH ; boost::random::linear_congruential<long,40014,0,2147483563,0>::modulus
CONST	ENDS
;	COMDAT ?increment@?$linear_congruential@J$0JMEO@$0A@$0HPPPPPKL@$0A@@random@boost@@2JB
CONST	SEGMENT
?increment@?$linear_congruential@J$0JMEO@$0A@$0HPPPPPKL@$0A@@random@boost@@2JB DD 00H ; boost::random::linear_congruential<long,40014,0,2147483563,0>::increment
CONST	ENDS
;	COMDAT ?multiplier@?$linear_congruential@J$0JMEO@$0A@$0HPPPPPKL@$0A@@random@boost@@2JB
CONST	SEGMENT
?multiplier@?$linear_congruential@J$0JMEO@$0A@$0HPPPPPKL@$0A@@random@boost@@2JB DD 09c4eH ; boost::random::linear_congruential<long,40014,0,2147483563,0>::multiplier
CONST	ENDS
;	COMDAT ?max_value@?$linear_congruential@J$0JMEO@$0A@$0HPPPPPKL@$0A@@random@boost@@2JB
CONST	SEGMENT
?max_value@?$linear_congruential@J$0JMEO@$0A@$0HPPPPPKL@$0A@@random@boost@@2JB DD 07fffffaaH ; boost::random::linear_congruential<long,40014,0,2147483563,0>::max_value
CONST	ENDS
;	COMDAT ?min_value@?$linear_congruential@J$0JMEO@$0A@$0HPPPPPKL@$0A@@random@boost@@2JB
CONST	SEGMENT
?min_value@?$linear_congruential@J$0JMEO@$0A@$0HPPPPPKL@$0A@@random@boost@@2JB DD 01H ; boost::random::linear_congruential<long,40014,0,2147483563,0>::min_value
CONST	ENDS
;	COMDAT ?has_fixed_range@?$linear_congruential@J$0JMEO@$0A@$0HPPPPPKL@$0A@@random@boost@@2_NB
CONST	SEGMENT
?has_fixed_range@?$linear_congruential@J$0JMEO@$0A@$0HPPPPPKL@$0A@@random@boost@@2_NB DB 01H ; boost::random::linear_congruential<long,40014,0,2147483563,0>::has_fixed_range
CONST	ENDS
;	COMDAT ?modulus@?$linear_congruential@_K$0FNOOMOGGN@$0L@$0BAAAAAAAAAAAA@$0A@@random@boost@@2_KB
CONST	SEGMENT
?modulus@?$linear_congruential@_K$0FNOOMOGGN@$0L@$0BAAAAAAAAAAAA@$0A@@random@boost@@2_KB DQ 0001000000000000H ; boost::random::linear_congruential<unsigned __int64,25214903917,11,281474976710656,0>::modulus
CONST	ENDS
;	COMDAT ?increment@?$linear_congruential@_K$0FNOOMOGGN@$0L@$0BAAAAAAAAAAAA@$0A@@random@boost@@2_KB
CONST	SEGMENT
?increment@?$linear_congruential@_K$0FNOOMOGGN@$0L@$0BAAAAAAAAAAAA@$0A@@random@boost@@2_KB DQ 000000000000000bH ; boost::random::linear_congruential<unsigned __int64,25214903917,11,281474976710656,0>::increment
CONST	ENDS
;	COMDAT ?multiplier@?$linear_congruential@_K$0FNOOMOGGN@$0L@$0BAAAAAAAAAAAA@$0A@@random@boost@@2_KB
CONST	SEGMENT
?multiplier@?$linear_congruential@_K$0FNOOMOGGN@$0L@$0BAAAAAAAAAAAA@$0A@@random@boost@@2_KB DQ 00000005deece66dH ; boost::random::linear_congruential<unsigned __int64,25214903917,11,281474976710656,0>::multiplier
CONST	ENDS
;	COMDAT ?max_value@?$linear_congruential@_K$0FNOOMOGGN@$0L@$0BAAAAAAAAAAAA@$0A@@random@boost@@2_KB
CONST	SEGMENT
?max_value@?$linear_congruential@_K$0FNOOMOGGN@$0L@$0BAAAAAAAAAAAA@$0A@@random@boost@@2_KB DQ 0000ffffffffffffH ; boost::random::linear_congruential<unsigned __int64,25214903917,11,281474976710656,0>::max_value
CONST	ENDS
;	COMDAT ?min_value@?$linear_congruential@_K$0FNOOMOGGN@$0L@$0BAAAAAAAAAAAA@$0A@@random@boost@@2_KB
CONST	SEGMENT
?min_value@?$linear_congruential@_K$0FNOOMOGGN@$0L@$0BAAAAAAAAAAAA@$0A@@random@boost@@2_KB DQ 0000000000000000H ; boost::random::linear_congruential<unsigned __int64,25214903917,11,281474976710656,0>::min_value
CONST	ENDS
;	COMDAT ?has_fixed_range@?$linear_congruential@_K$0FNOOMOGGN@$0L@$0BAAAAAAAAAAAA@$0A@@random@boost@@2_NB
CONST	SEGMENT
?has_fixed_range@?$linear_congruential@_K$0FNOOMOGGN@$0L@$0BAAAAAAAAAAAA@$0A@@random@boost@@2_NB DB 01H ; boost::random::linear_congruential<unsigned __int64,25214903917,11,281474976710656,0>::has_fixed_range
CONST	ENDS
;	COMDAT ?max_value@rand48@boost@@2JB
CONST	SEGMENT
?max_value@rand48@boost@@2JB DD 07fffffffH		; boost::rand48::max_value
CONST	ENDS
;	COMDAT ?min_value@rand48@boost@@2JB
CONST	SEGMENT
?min_value@rand48@boost@@2JB DD 00H			; boost::rand48::min_value
CONST	ENDS
;	COMDAT ?has_fixed_range@rand48@boost@@2_NB
CONST	SEGMENT
?has_fixed_range@rand48@boost@@2_NB DB 01H		; boost::rand48::has_fixed_range
CONST	ENDS
;	COMDAT ?value@?$implementation_level@V?$vector@_WV?$allocator@_W@std@@@std@@@serialization@boost@@2HB
CONST	SEGMENT
?value@?$implementation_level@V?$vector@_WV?$allocator@_W@std@@@std@@@serialization@boost@@2HB DD 02H ; boost::serialization::implementation_level<std::vector<wchar_t,std::allocator<wchar_t> > >::value
CONST	ENDS
;	COMDAT ?value@?$implementation_level@V?$vector@_KV?$allocator@_K@std@@@std@@@serialization@boost@@2HB
CONST	SEGMENT
?value@?$implementation_level@V?$vector@_KV?$allocator@_K@std@@@std@@@serialization@boost@@2HB DD 02H ; boost::serialization::implementation_level<std::vector<unsigned __int64,std::allocator<unsigned __int64> > >::value
CONST	ENDS
;	COMDAT ?value@?$implementation_level@V?$vector@_JV?$allocator@_J@std@@@std@@@serialization@boost@@2HB
CONST	SEGMENT
?value@?$implementation_level@V?$vector@_JV?$allocator@_J@std@@@std@@@serialization@boost@@2HB DD 02H ; boost::serialization::implementation_level<std::vector<__int64,std::allocator<__int64> > >::value
CONST	ENDS
;	COMDAT ?value@?$implementation_level@V?$vector@FV?$allocator@F@std@@@std@@@serialization@boost@@2HB
CONST	SEGMENT
?value@?$implementation_level@V?$vector@FV?$allocator@F@std@@@std@@@serialization@boost@@2HB DD 02H ; boost::serialization::implementation_level<std::vector<short,std::allocator<short> > >::value
CONST	ENDS
;	COMDAT ?value@?$implementation_level@V?$vector@GV?$allocator@G@std@@@std@@@serialization@boost@@2HB
CONST	SEGMENT
?value@?$implementation_level@V?$vector@GV?$allocator@G@std@@@std@@@serialization@boost@@2HB DD 02H ; boost::serialization::implementation_level<std::vector<unsigned short,std::allocator<unsigned short> > >::value
CONST	ENDS
;	COMDAT ?value@?$implementation_level@V?$vector@NV?$allocator@N@std@@@std@@@serialization@boost@@2HB
CONST	SEGMENT
?value@?$implementation_level@V?$vector@NV?$allocator@N@std@@@std@@@serialization@boost@@2HB DD 02H ; boost::serialization::implementation_level<std::vector<double,std::allocator<double> > >::value
CONST	ENDS
;	COMDAT ?value@?$implementation_level@V?$vector@MV?$allocator@M@std@@@std@@@serialization@boost@@2HB
CONST	SEGMENT
?value@?$implementation_level@V?$vector@MV?$allocator@M@std@@@std@@@serialization@boost@@2HB DD 02H ; boost::serialization::implementation_level<std::vector<float,std::allocator<float> > >::value
CONST	ENDS
;	COMDAT ?value@?$implementation_level@V?$vector@KV?$allocator@K@std@@@std@@@serialization@boost@@2HB
CONST	SEGMENT
?value@?$implementation_level@V?$vector@KV?$allocator@K@std@@@std@@@serialization@boost@@2HB DD 02H ; boost::serialization::implementation_level<std::vector<unsigned long,std::allocator<unsigned long> > >::value
CONST	ENDS
;	COMDAT ?value@?$implementation_level@V?$vector@JV?$allocator@J@std@@@std@@@serialization@boost@@2HB
CONST	SEGMENT
?value@?$implementation_level@V?$vector@JV?$allocator@J@std@@@std@@@serialization@boost@@2HB DD 02H ; boost::serialization::implementation_level<std::vector<long,std::allocator<long> > >::value
CONST	ENDS
;	COMDAT ?value@?$implementation_level@V?$vector@IV?$allocator@I@std@@@std@@@serialization@boost@@2HB
CONST	SEGMENT
?value@?$implementation_level@V?$vector@IV?$allocator@I@std@@@std@@@serialization@boost@@2HB DD 02H ; boost::serialization::implementation_level<std::vector<unsigned int,std::allocator<unsigned int> > >::value
CONST	ENDS
;	COMDAT ?value@?$implementation_level@V?$vector@HV?$allocator@H@std@@@std@@@serialization@boost@@2HB
CONST	SEGMENT
?value@?$implementation_level@V?$vector@HV?$allocator@H@std@@@std@@@serialization@boost@@2HB DD 02H ; boost::serialization::implementation_level<std::vector<int,std::allocator<int> > >::value
CONST	ENDS
;	COMDAT ?value@?$implementation_level@V?$vector@EV?$allocator@E@std@@@std@@@serialization@boost@@2HB
CONST	SEGMENT
?value@?$implementation_level@V?$vector@EV?$allocator@E@std@@@std@@@serialization@boost@@2HB DD 02H ; boost::serialization::implementation_level<std::vector<unsigned char,std::allocator<unsigned char> > >::value
CONST	ENDS
;	COMDAT ?value@?$implementation_level@V?$vector@CV?$allocator@C@std@@@std@@@serialization@boost@@2HB
CONST	SEGMENT
?value@?$implementation_level@V?$vector@CV?$allocator@C@std@@@std@@@serialization@boost@@2HB DD 02H ; boost::serialization::implementation_level<std::vector<signed char,std::allocator<signed char> > >::value
CONST	ENDS
;	COMDAT ?value@?$implementation_level@V?$vector@DV?$allocator@D@std@@@std@@@serialization@boost@@2HB
CONST	SEGMENT
?value@?$implementation_level@V?$vector@DV?$allocator@D@std@@@std@@@serialization@boost@@2HB DD 02H ; boost::serialization::implementation_level<std::vector<char,std::allocator<char> > >::value
CONST	ENDS
;	COMDAT ?value@?$implementation_level@V?$vector@_NV?$allocator@_N@std@@@std@@@serialization@boost@@2HB
CONST	SEGMENT
?value@?$implementation_level@V?$vector@_NV?$allocator@_N@std@@@std@@@serialization@boost@@2HB DD 02H ; boost::serialization::implementation_level<std::vector<bool,std::allocator<bool> > >::value
CONST	ENDS
;	COMDAT ?value@?$implementation_level@Ucollection_size_type@serialization@boost@@@serialization@boost@@2HB
CONST	SEGMENT
?value@?$implementation_level@Ucollection_size_type@serialization@boost@@@serialization@boost@@2HB DD 01H ; boost::serialization::implementation_level<boost::serialization::collection_size_type>::value
CONST	ENDS
;	COMDAT ?value@?$is_pod_impl@Ua128@align@boost@@@detail@boost@@2_NB
CONST	SEGMENT
?value@?$is_pod_impl@Ua128@align@boost@@@detail@boost@@2_NB DB 01H ; boost::detail::is_pod_impl<boost::align::a128>::value
CONST	ENDS
;	COMDAT ?value@?$is_pod_impl@Ua64@align@boost@@@detail@boost@@2_NB
CONST	SEGMENT
?value@?$is_pod_impl@Ua64@align@boost@@@detail@boost@@2_NB DB 01H ; boost::detail::is_pod_impl<boost::align::a64>::value
CONST	ENDS
;	COMDAT ?value@?$is_pod_impl@Ua32@align@boost@@@detail@boost@@2_NB
CONST	SEGMENT
?value@?$is_pod_impl@Ua32@align@boost@@@detail@boost@@2_NB DB 01H ; boost::detail::is_pod_impl<boost::align::a32>::value
CONST	ENDS
;	COMDAT ?value@?$is_pod_impl@Ua16@align@boost@@@detail@boost@@2_NB
CONST	SEGMENT
?value@?$is_pod_impl@Ua16@align@boost@@@detail@boost@@2_NB DB 01H ; boost::detail::is_pod_impl<boost::align::a16>::value
CONST	ENDS
;	COMDAT ?value@?$is_pod_impl@Ua8@align@boost@@@detail@boost@@2_NB
CONST	SEGMENT
?value@?$is_pod_impl@Ua8@align@boost@@@detail@boost@@2_NB DB 01H ; boost::detail::is_pod_impl<boost::align::a8>::value
CONST	ENDS
;	COMDAT ?found@?$type_with_alignment_imp@$07@detail@boost@@0IB
CONST	SEGMENT
?found@?$type_with_alignment_imp@$07@detail@boost@@0IB DD 08H ; boost::detail::type_with_alignment_imp<8>::found
CONST	ENDS
;	COMDAT ?value@?$is_aligned@$07$07@detail@boost@@2_NB
CONST	SEGMENT
?value@?$is_aligned@$07$07@detail@boost@@2_NB DB 01H	; boost::detail::is_aligned<8,8>::value
CONST	ENDS
;	COMDAT ?value@?$alignment_of_impl@T?$lower_alignment@$07@detail@boost@@@detail@boost@@2IB
CONST	SEGMENT
?value@?$alignment_of_impl@T?$lower_alignment@$07@detail@boost@@@detail@boost@@2IB DD 08H ; boost::detail::alignment_of_impl<boost::detail::lower_alignment<8> >::value
CONST	ENDS
;	COMDAT ?value@?$alignment_of_impl@_J@detail@boost@@2IB
CONST	SEGMENT
?value@?$alignment_of_impl@_J@detail@boost@@2IB DD 08H	; boost::detail::alignment_of_impl<__int64>::value
CONST	ENDS
;	COMDAT ?value@?$alignment_of_impl@J@detail@boost@@2IB
CONST	SEGMENT
?value@?$alignment_of_impl@J@detail@boost@@2IB DD 04H	; boost::detail::alignment_of_impl<long>::value
CONST	ENDS
;	COMDAT ?value@?$integral_c@I$03@mpl@boost@@2IB
CONST	SEGMENT
?value@?$integral_c@I$03@mpl@boost@@2IB DD 04H		; boost::mpl::integral_c<unsigned int,4>::value
CONST	ENDS
;	COMDAT ?value@?$alignment_of_impl@H@detail@boost@@2IB
CONST	SEGMENT
?value@?$alignment_of_impl@H@detail@boost@@2IB DD 04H	; boost::detail::alignment_of_impl<int>::value
CONST	ENDS
;	COMDAT ?value@?$alignment_logic@$03$03@detail@boost@@2IB
CONST	SEGMENT
?value@?$alignment_logic@$03$03@detail@boost@@2IB DD 04H ; boost::detail::alignment_logic<4,4>::value
CONST	ENDS
;	COMDAT ?value@?$integral_c@I$01@mpl@boost@@2IB
CONST	SEGMENT
?value@?$integral_c@I$01@mpl@boost@@2IB DD 02H		; boost::mpl::integral_c<unsigned int,2>::value
CONST	ENDS
;	COMDAT ?value@?$alignment_of_impl@F@detail@boost@@2IB
CONST	SEGMENT
?value@?$alignment_of_impl@F@detail@boost@@2IB DD 02H	; boost::detail::alignment_of_impl<short>::value
CONST	ENDS
;	COMDAT ?value@?$alignment_logic@$01$01@detail@boost@@2IB
CONST	SEGMENT
?value@?$alignment_logic@$01$01@detail@boost@@2IB DD 02H ; boost::detail::alignment_logic<2,2>::value
CONST	ENDS
;	COMDAT ?value@?$integral_c@I$00@mpl@boost@@2IB
CONST	SEGMENT
?value@?$integral_c@I$00@mpl@boost@@2IB DD 01H		; boost::mpl::integral_c<unsigned int,1>::value
CONST	ENDS
;	COMDAT ?value@?$alignment_of_impl@D@detail@boost@@2IB
CONST	SEGMENT
?value@?$alignment_of_impl@D@detail@boost@@2IB DD 01H	; boost::detail::alignment_of_impl<char>::value
CONST	ENDS
;	COMDAT ?value@?$alignment_logic@$00$00@detail@boost@@2IB
CONST	SEGMENT
?value@?$alignment_logic@$00$00@detail@boost@@2IB DD 01H ; boost::detail::alignment_logic<1,1>::value
CONST	ENDS
;	COMDAT ?value@?$integral_c@I$07@mpl@boost@@2IB
CONST	SEGMENT
?value@?$integral_c@I$07@mpl@boost@@2IB DD 08H		; boost::mpl::integral_c<unsigned int,8>::value
CONST	ENDS
;	COMDAT ?value@?$alignment_of_impl@Tmax_align@detail@boost@@@detail@boost@@2IB
CONST	SEGMENT
?value@?$alignment_of_impl@Tmax_align@detail@boost@@@detail@boost@@2IB DD 08H ; boost::detail::alignment_of_impl<boost::detail::max_align>::value
CONST	ENDS
;	COMDAT ?value@?$alignment_logic@$07$07@detail@boost@@2IB
CONST	SEGMENT
?value@?$alignment_logic@$07$07@detail@boost@@2IB DD 08H ; boost::detail::alignment_logic<8,8>::value
CONST	ENDS
;	COMDAT ?value@?$integral_c@I$0A@@mpl@boost@@2IB
CONST	SEGMENT
?value@?$integral_c@I$0A@@mpl@boost@@2IB DD 00H		; boost::mpl::integral_c<unsigned int,0>::value
CONST	ENDS
;	COMDAT ?value@?$is_pod_impl@$$CDX@detail@boost@@2_NB
CONST	SEGMENT
?value@?$is_pod_impl@$$CDX@detail@boost@@2_NB DB 01H	; boost::detail::is_pod_impl<void const volatile >::value
CONST	ENDS
;	COMDAT ?value@?$is_pod_impl@$$CCX@detail@boost@@2_NB
CONST	SEGMENT
?value@?$is_pod_impl@$$CCX@detail@boost@@2_NB DB 01H	; boost::detail::is_pod_impl<void volatile >::value
CONST	ENDS
;	COMDAT ?value@?$is_pod_impl@$$CBX@detail@boost@@2_NB
CONST	SEGMENT
?value@?$is_pod_impl@$$CBX@detail@boost@@2_NB DB 01H	; boost::detail::is_pod_impl<void const >::value
CONST	ENDS
;	COMDAT ?value@?$is_pod_impl@X@detail@boost@@2_NB
CONST	SEGMENT
?value@?$is_pod_impl@X@detail@boost@@2_NB DB 01H	; boost::detail::is_pod_impl<void>::value
CONST	ENDS
;	COMDAT ?value@?$is_scalar_impl@$$CDX@detail@boost@@2_NB
CONST	SEGMENT
?value@?$is_scalar_impl@$$CDX@detail@boost@@2_NB DB 00H	; boost::detail::is_scalar_impl<void const volatile >::value
CONST	ENDS
;	COMDAT ?value@?$is_scalar_impl@$$CCX@detail@boost@@2_NB
CONST	SEGMENT
?value@?$is_scalar_impl@$$CCX@detail@boost@@2_NB DB 00H	; boost::detail::is_scalar_impl<void volatile >::value
CONST	ENDS
;	COMDAT ?value@?$is_scalar_impl@$$CBX@detail@boost@@2_NB
CONST	SEGMENT
?value@?$is_scalar_impl@$$CBX@detail@boost@@2_NB DB 00H	; boost::detail::is_scalar_impl<void const >::value
CONST	ENDS
;	COMDAT ?value@?$is_scalar_impl@X@detail@boost@@2_NB
CONST	SEGMENT
?value@?$is_scalar_impl@X@detail@boost@@2_NB DB 00H	; boost::detail::is_scalar_impl<void>::value
CONST	ENDS
;	COMDAT ?value@?$arg@$04@mpl@boost@@2HB
CONST	SEGMENT
?value@?$arg@$04@mpl@boost@@2HB DD 05H			; boost::mpl::arg<5>::value
CONST	ENDS
;	COMDAT ?value@?$arg@$03@mpl@boost@@2HB
CONST	SEGMENT
?value@?$arg@$03@mpl@boost@@2HB DD 04H			; boost::mpl::arg<4>::value
CONST	ENDS
;	COMDAT ?value@?$arg@$02@mpl@boost@@2HB
CONST	SEGMENT
?value@?$arg@$02@mpl@boost@@2HB DD 03H			; boost::mpl::arg<3>::value
CONST	ENDS
;	COMDAT ?value@?$arg@$01@mpl@boost@@2HB
CONST	SEGMENT
?value@?$arg@$01@mpl@boost@@2HB DD 02H			; boost::mpl::arg<2>::value
CONST	ENDS
;	COMDAT ?value@?$arg@$00@mpl@boost@@2HB
CONST	SEGMENT
?value@?$arg@$00@mpl@boost@@2HB DD 01H			; boost::mpl::arg<1>::value
CONST	ENDS
;	COMDAT ?value@?$arg@$0?0@mpl@boost@@2HB
CONST	SEGMENT
?value@?$arg@$0?0@mpl@boost@@2HB DD 0ffffffffH		; boost::mpl::arg<-1>::value
CONST	ENDS
;	COMDAT ?value@?$int_@$0M@@mpl@boost@@2HB
CONST	SEGMENT
?value@?$int_@$0M@@mpl@boost@@2HB DD 0cH		; boost::mpl::int_<12>::value
CONST	ENDS
;	COMDAT ?value@?$int_@$0L@@mpl@boost@@2HB
CONST	SEGMENT
?value@?$int_@$0L@@mpl@boost@@2HB DD 0bH		; boost::mpl::int_<11>::value
CONST	ENDS
;	COMDAT ?value@?$int_@$09@mpl@boost@@2HB
CONST	SEGMENT
?value@?$int_@$09@mpl@boost@@2HB DD 0aH			; boost::mpl::int_<10>::value
CONST	ENDS
;	COMDAT ?value@?$int_@$08@mpl@boost@@2HB
CONST	SEGMENT
?value@?$int_@$08@mpl@boost@@2HB DD 09H			; boost::mpl::int_<9>::value
CONST	ENDS
;	COMDAT ?value@?$int_@$07@mpl@boost@@2HB
CONST	SEGMENT
?value@?$int_@$07@mpl@boost@@2HB DD 08H			; boost::mpl::int_<8>::value
CONST	ENDS
;	COMDAT ?value@?$int_@$06@mpl@boost@@2HB
CONST	SEGMENT
?value@?$int_@$06@mpl@boost@@2HB DD 07H			; boost::mpl::int_<7>::value
CONST	ENDS
;	COMDAT ?value@?$int_@$05@mpl@boost@@2HB
CONST	SEGMENT
?value@?$int_@$05@mpl@boost@@2HB DD 06H			; boost::mpl::int_<6>::value
CONST	ENDS
;	COMDAT ?value@?$int_@$04@mpl@boost@@2HB
CONST	SEGMENT
?value@?$int_@$04@mpl@boost@@2HB DD 05H			; boost::mpl::int_<5>::value
CONST	ENDS
;	COMDAT ?value@?$int_@$03@mpl@boost@@2HB
CONST	SEGMENT
?value@?$int_@$03@mpl@boost@@2HB DD 04H			; boost::mpl::int_<4>::value
CONST	ENDS
;	COMDAT ?value@?$int_@$02@mpl@boost@@2HB
CONST	SEGMENT
?value@?$int_@$02@mpl@boost@@2HB DD 03H			; boost::mpl::int_<3>::value
CONST	ENDS
;	COMDAT ?value@?$int_@$01@mpl@boost@@2HB
CONST	SEGMENT
?value@?$int_@$01@mpl@boost@@2HB DD 02H			; boost::mpl::int_<2>::value
CONST	ENDS
;	COMDAT ?value@?$int_@$00@mpl@boost@@2HB
CONST	SEGMENT
?value@?$int_@$00@mpl@boost@@2HB DD 01H			; boost::mpl::int_<1>::value
CONST	ENDS
;	COMDAT ?value@?$select_by_size@$0BF@@detail@iostreams@boost@@2HB
CONST	SEGMENT
?value@?$select_by_size@$0BF@@detail@iostreams@boost@@2HB DD 013H ; boost::iostreams::detail::select_by_size<21>::value
CONST	ENDS
;	COMDAT ?value@type@?$select_by_size@$0BF@@detail@iostreams@boost@@2HB
CONST	SEGMENT
?value@type@?$select_by_size@$0BF@@detail@iostreams@boost@@2HB DD 013H ; boost::iostreams::detail::select_by_size<21>::type::value
CONST	ENDS
;	COMDAT ?value@?$select_by_size@$0BE@@detail@iostreams@boost@@2HB
CONST	SEGMENT
?value@?$select_by_size@$0BE@@detail@iostreams@boost@@2HB DD 012H ; boost::iostreams::detail::select_by_size<20>::value
CONST	ENDS
;	COMDAT ?value@type@?$select_by_size@$0BE@@detail@iostreams@boost@@2HB
CONST	SEGMENT
?value@type@?$select_by_size@$0BE@@detail@iostreams@boost@@2HB DD 012H ; boost::iostreams::detail::select_by_size<20>::type::value
CONST	ENDS
;	COMDAT ?value@?$select_by_size@$0BD@@detail@iostreams@boost@@2HB
CONST	SEGMENT
?value@?$select_by_size@$0BD@@detail@iostreams@boost@@2HB DD 011H ; boost::iostreams::detail::select_by_size<19>::value
CONST	ENDS
;	COMDAT ?value@type@?$select_by_size@$0BD@@detail@iostreams@boost@@2HB
CONST	SEGMENT
?value@type@?$select_by_size@$0BD@@detail@iostreams@boost@@2HB DD 011H ; boost::iostreams::detail::select_by_size<19>::type::value
CONST	ENDS
;	COMDAT ?value@?$select_by_size@$0BC@@detail@iostreams@boost@@2HB
CONST	SEGMENT
?value@?$select_by_size@$0BC@@detail@iostreams@boost@@2HB DD 010H ; boost::iostreams::detail::select_by_size<18>::value
CONST	ENDS
;	COMDAT ?value@type@?$select_by_size@$0BC@@detail@iostreams@boost@@2HB
CONST	SEGMENT
?value@type@?$select_by_size@$0BC@@detail@iostreams@boost@@2HB DD 010H ; boost::iostreams::detail::select_by_size<18>::type::value
CONST	ENDS
;	COMDAT ?value@?$select_by_size@$0BB@@detail@iostreams@boost@@2HB
CONST	SEGMENT
?value@?$select_by_size@$0BB@@detail@iostreams@boost@@2HB DD 0fH ; boost::iostreams::detail::select_by_size<17>::value
CONST	ENDS
;	COMDAT ?value@type@?$select_by_size@$0BB@@detail@iostreams@boost@@2HB
CONST	SEGMENT
?value@type@?$select_by_size@$0BB@@detail@iostreams@boost@@2HB DD 0fH ; boost::iostreams::detail::select_by_size<17>::type::value
CONST	ENDS
;	COMDAT ?value@?$select_by_size@$0BA@@detail@iostreams@boost@@2HB
CONST	SEGMENT
?value@?$select_by_size@$0BA@@detail@iostreams@boost@@2HB DD 0eH ; boost::iostreams::detail::select_by_size<16>::value
CONST	ENDS
;	COMDAT ?value@type@?$select_by_size@$0BA@@detail@iostreams@boost@@2HB
CONST	SEGMENT
?value@type@?$select_by_size@$0BA@@detail@iostreams@boost@@2HB DD 0eH ; boost::iostreams::detail::select_by_size<16>::type::value
CONST	ENDS
;	COMDAT ?value@?$select_by_size@$0P@@detail@iostreams@boost@@2HB
CONST	SEGMENT
?value@?$select_by_size@$0P@@detail@iostreams@boost@@2HB DD 0dH ; boost::iostreams::detail::select_by_size<15>::value
CONST	ENDS
;	COMDAT ?value@type@?$select_by_size@$0P@@detail@iostreams@boost@@2HB
CONST	SEGMENT
?value@type@?$select_by_size@$0P@@detail@iostreams@boost@@2HB DD 0dH ; boost::iostreams::detail::select_by_size<15>::type::value
CONST	ENDS
;	COMDAT ?value@?$select_by_size@$0O@@detail@iostreams@boost@@2HB
CONST	SEGMENT
?value@?$select_by_size@$0O@@detail@iostreams@boost@@2HB DD 0cH ; boost::iostreams::detail::select_by_size<14>::value
CONST	ENDS
;	COMDAT ?value@type@?$select_by_size@$0O@@detail@iostreams@boost@@2HB
CONST	SEGMENT
?value@type@?$select_by_size@$0O@@detail@iostreams@boost@@2HB DD 0cH ; boost::iostreams::detail::select_by_size<14>::type::value
CONST	ENDS
;	COMDAT ?value@?$select_by_size@$0N@@detail@iostreams@boost@@2HB
CONST	SEGMENT
?value@?$select_by_size@$0N@@detail@iostreams@boost@@2HB DD 0bH ; boost::iostreams::detail::select_by_size<13>::value
CONST	ENDS
;	COMDAT ?value@type@?$select_by_size@$0N@@detail@iostreams@boost@@2HB
CONST	SEGMENT
?value@type@?$select_by_size@$0N@@detail@iostreams@boost@@2HB DD 0bH ; boost::iostreams::detail::select_by_size<13>::type::value
CONST	ENDS
;	COMDAT ?value@?$select_by_size@$0M@@detail@iostreams@boost@@2HB
CONST	SEGMENT
?value@?$select_by_size@$0M@@detail@iostreams@boost@@2HB DD 0aH ; boost::iostreams::detail::select_by_size<12>::value
CONST	ENDS
;	COMDAT ?value@type@?$select_by_size@$0M@@detail@iostreams@boost@@2HB
CONST	SEGMENT
?value@type@?$select_by_size@$0M@@detail@iostreams@boost@@2HB DD 0aH ; boost::iostreams::detail::select_by_size<12>::type::value
CONST	ENDS
;	COMDAT ?value@?$select_by_size@$0L@@detail@iostreams@boost@@2HB
CONST	SEGMENT
?value@?$select_by_size@$0L@@detail@iostreams@boost@@2HB DD 09H ; boost::iostreams::detail::select_by_size<11>::value
CONST	ENDS
;	COMDAT ?value@type@?$select_by_size@$0L@@detail@iostreams@boost@@2HB
CONST	SEGMENT
?value@type@?$select_by_size@$0L@@detail@iostreams@boost@@2HB DD 09H ; boost::iostreams::detail::select_by_size<11>::type::value
CONST	ENDS
;	COMDAT ?value@?$select_by_size@$09@detail@iostreams@boost@@2HB
CONST	SEGMENT
?value@?$select_by_size@$09@detail@iostreams@boost@@2HB DD 08H ; boost::iostreams::detail::select_by_size<10>::value
CONST	ENDS
;	COMDAT ?value@type@?$select_by_size@$09@detail@iostreams@boost@@2HB
CONST	SEGMENT
?value@type@?$select_by_size@$09@detail@iostreams@boost@@2HB DD 08H ; boost::iostreams::detail::select_by_size<10>::type::value
CONST	ENDS
;	COMDAT ?value@?$select_by_size@$08@detail@iostreams@boost@@2HB
CONST	SEGMENT
?value@?$select_by_size@$08@detail@iostreams@boost@@2HB DD 07H ; boost::iostreams::detail::select_by_size<9>::value
CONST	ENDS
;	COMDAT ?value@type@?$select_by_size@$08@detail@iostreams@boost@@2HB
CONST	SEGMENT
?value@type@?$select_by_size@$08@detail@iostreams@boost@@2HB DD 07H ; boost::iostreams::detail::select_by_size<9>::type::value
CONST	ENDS
;	COMDAT ?value@?$select_by_size@$07@detail@iostreams@boost@@2HB
CONST	SEGMENT
?value@?$select_by_size@$07@detail@iostreams@boost@@2HB DD 06H ; boost::iostreams::detail::select_by_size<8>::value
CONST	ENDS
;	COMDAT ?value@type@?$select_by_size@$07@detail@iostreams@boost@@2HB
CONST	SEGMENT
?value@type@?$select_by_size@$07@detail@iostreams@boost@@2HB DD 06H ; boost::iostreams::detail::select_by_size<8>::type::value
CONST	ENDS
;	COMDAT ?value@?$select_by_size@$06@detail@iostreams@boost@@2HB
CONST	SEGMENT
?value@?$select_by_size@$06@detail@iostreams@boost@@2HB DD 05H ; boost::iostreams::detail::select_by_size<7>::value
CONST	ENDS
;	COMDAT ?value@type@?$select_by_size@$06@detail@iostreams@boost@@2HB
CONST	SEGMENT
?value@type@?$select_by_size@$06@detail@iostreams@boost@@2HB DD 05H ; boost::iostreams::detail::select_by_size<7>::type::value
CONST	ENDS
;	COMDAT ?value@?$select_by_size@$05@detail@iostreams@boost@@2HB
CONST	SEGMENT
?value@?$select_by_size@$05@detail@iostreams@boost@@2HB DD 04H ; boost::iostreams::detail::select_by_size<6>::value
CONST	ENDS
;	COMDAT ?value@type@?$select_by_size@$05@detail@iostreams@boost@@2HB
CONST	SEGMENT
?value@type@?$select_by_size@$05@detail@iostreams@boost@@2HB DD 04H ; boost::iostreams::detail::select_by_size<6>::type::value
CONST	ENDS
;	COMDAT ?value@?$select_by_size@$04@detail@iostreams@boost@@2HB
CONST	SEGMENT
?value@?$select_by_size@$04@detail@iostreams@boost@@2HB DD 03H ; boost::iostreams::detail::select_by_size<5>::value
CONST	ENDS
;	COMDAT ?value@type@?$select_by_size@$04@detail@iostreams@boost@@2HB
CONST	SEGMENT
?value@type@?$select_by_size@$04@detail@iostreams@boost@@2HB DD 03H ; boost::iostreams::detail::select_by_size<5>::type::value
CONST	ENDS
;	COMDAT ?value@?$select_by_size@$03@detail@iostreams@boost@@2HB
CONST	SEGMENT
?value@?$select_by_size@$03@detail@iostreams@boost@@2HB DD 02H ; boost::iostreams::detail::select_by_size<4>::value
CONST	ENDS
;	COMDAT ?value@type@?$select_by_size@$03@detail@iostreams@boost@@2HB
CONST	SEGMENT
?value@type@?$select_by_size@$03@detail@iostreams@boost@@2HB DD 02H ; boost::iostreams::detail::select_by_size<4>::type::value
CONST	ENDS
;	COMDAT ?value@?$select_by_size@$02@detail@iostreams@boost@@2HB
CONST	SEGMENT
?value@?$select_by_size@$02@detail@iostreams@boost@@2HB DD 01H ; boost::iostreams::detail::select_by_size<3>::value
CONST	ENDS
;	COMDAT ?value@type@?$select_by_size@$02@detail@iostreams@boost@@2HB
CONST	SEGMENT
?value@type@?$select_by_size@$02@detail@iostreams@boost@@2HB DD 01H ; boost::iostreams::detail::select_by_size<3>::type::value
CONST	ENDS
;	COMDAT ?value@?$select_by_size@$01@detail@iostreams@boost@@2HB
CONST	SEGMENT
?value@?$select_by_size@$01@detail@iostreams@boost@@2HB DD 00H ; boost::iostreams::detail::select_by_size<2>::value
CONST	ENDS
;	COMDAT ?value@type@?$select_by_size@$01@detail@iostreams@boost@@2HB
CONST	SEGMENT
?value@type@?$select_by_size@$01@detail@iostreams@boost@@2HB DD 00H ; boost::iostreams::detail::select_by_size<2>::type::value
CONST	ENDS
;	COMDAT ?value@?$select_by_size@$00@detail@iostreams@boost@@2HB
CONST	SEGMENT
?value@?$select_by_size@$00@detail@iostreams@boost@@2HB DD 0ffffffffH ; boost::iostreams::detail::select_by_size<1>::value
CONST	ENDS
;	COMDAT ?value@type@?$select_by_size@$00@detail@iostreams@boost@@2HB
CONST	SEGMENT
?value@type@?$select_by_size@$00@detail@iostreams@boost@@2HB DD 0ffffffffH ; boost::iostreams::detail::select_by_size<1>::type::value
CONST	ENDS
;	COMDAT ?value@?$is_convertible_impl@$$CDX$$CDX@detail@boost@@2_NB
CONST	SEGMENT
?value@?$is_convertible_impl@$$CDX$$CDX@detail@boost@@2_NB DB 01H ; boost::detail::is_convertible_impl<void const volatile ,void const volatile >::value
CONST	ENDS
;	COMDAT ?value@?$is_convertible_impl@$$CDX$$CCX@detail@boost@@2_NB
CONST	SEGMENT
?value@?$is_convertible_impl@$$CDX$$CCX@detail@boost@@2_NB DB 01H ; boost::detail::is_convertible_impl<void const volatile ,void volatile >::value
CONST	ENDS
;	COMDAT ?value@?$is_convertible_impl@$$CDX$$CBX@detail@boost@@2_NB
CONST	SEGMENT
?value@?$is_convertible_impl@$$CDX$$CBX@detail@boost@@2_NB DB 01H ; boost::detail::is_convertible_impl<void const volatile ,void const >::value
CONST	ENDS
;	COMDAT ?value@?$is_convertible_impl@$$CDXX@detail@boost@@2_NB
CONST	SEGMENT
?value@?$is_convertible_impl@$$CDXX@detail@boost@@2_NB DB 01H ; boost::detail::is_convertible_impl<void const volatile ,void>::value
CONST	ENDS
;	COMDAT ?value@?$is_convertible_impl@$$CCX$$CDX@detail@boost@@2_NB
CONST	SEGMENT
?value@?$is_convertible_impl@$$CCX$$CDX@detail@boost@@2_NB DB 01H ; boost::detail::is_convertible_impl<void volatile ,void const volatile >::value
CONST	ENDS
;	COMDAT ?value@?$is_convertible_impl@$$CCX$$CCX@detail@boost@@2_NB
CONST	SEGMENT
?value@?$is_convertible_impl@$$CCX$$CCX@detail@boost@@2_NB DB 01H ; boost::detail::is_convertible_impl<void volatile ,void volatile >::value
CONST	ENDS
;	COMDAT ?value@?$is_convertible_impl@$$CCX$$CBX@detail@boost@@2_NB
CONST	SEGMENT
?value@?$is_convertible_impl@$$CCX$$CBX@detail@boost@@2_NB DB 01H ; boost::detail::is_convertible_impl<void volatile ,void const >::value
CONST	ENDS
;	COMDAT ?value@?$is_convertible_impl@$$CCXX@detail@boost@@2_NB
CONST	SEGMENT
?value@?$is_convertible_impl@$$CCXX@detail@boost@@2_NB DB 01H ; boost::detail::is_convertible_impl<void volatile ,void>::value
CONST	ENDS
;	COMDAT ?value@?$is_convertible_impl@$$CBX$$CDX@detail@boost@@2_NB
CONST	SEGMENT
?value@?$is_convertible_impl@$$CBX$$CDX@detail@boost@@2_NB DB 01H ; boost::detail::is_convertible_impl<void const ,void const volatile >::value
CONST	ENDS
;	COMDAT ?value@?$is_convertible_impl@$$CBX$$CCX@detail@boost@@2_NB
CONST	SEGMENT
?value@?$is_convertible_impl@$$CBX$$CCX@detail@boost@@2_NB DB 01H ; boost::detail::is_convertible_impl<void const ,void volatile >::value
CONST	ENDS
;	COMDAT ?value@?$is_convertible_impl@$$CBX$$CBX@detail@boost@@2_NB
CONST	SEGMENT
?value@?$is_convertible_impl@$$CBX$$CBX@detail@boost@@2_NB DB 01H ; boost::detail::is_convertible_impl<void const ,void const >::value
CONST	ENDS
;	COMDAT ?value@?$is_convertible_impl@$$CBXX@detail@boost@@2_NB
CONST	SEGMENT
?value@?$is_convertible_impl@$$CBXX@detail@boost@@2_NB DB 01H ; boost::detail::is_convertible_impl<void const ,void>::value
CONST	ENDS
;	COMDAT ?value@?$is_convertible_impl@X$$CDX@detail@boost@@2_NB
CONST	SEGMENT
?value@?$is_convertible_impl@X$$CDX@detail@boost@@2_NB DB 01H ; boost::detail::is_convertible_impl<void,void const volatile >::value
CONST	ENDS
;	COMDAT ?value@?$is_convertible_impl@X$$CCX@detail@boost@@2_NB
CONST	SEGMENT
?value@?$is_convertible_impl@X$$CCX@detail@boost@@2_NB DB 01H ; boost::detail::is_convertible_impl<void,void volatile >::value
CONST	ENDS
;	COMDAT ?value@?$is_convertible_impl@X$$CBX@detail@boost@@2_NB
CONST	SEGMENT
?value@?$is_convertible_impl@X$$CBX@detail@boost@@2_NB DB 01H ; boost::detail::is_convertible_impl<void,void const >::value
CONST	ENDS
;	COMDAT ?value@?$is_convertible_impl@XX@detail@boost@@2_NB
CONST	SEGMENT
?value@?$is_convertible_impl@XX@detail@boost@@2_NB DB 01H ; boost::detail::is_convertible_impl<void,void>::value
CONST	ENDS
;	COMDAT ?const_max@?$integer_traits_base@_K$0A@$0?0@detail@boost@@2_KB
CONST	SEGMENT
?const_max@?$integer_traits_base@_K$0A@$0?0@detail@boost@@2_KB DQ ffffffffffffffffH ; boost::detail::integer_traits_base<unsigned __int64,0,-1>::const_max
CONST	ENDS
;	COMDAT ?const_min@?$integer_traits_base@_K$0A@$0?0@detail@boost@@2_KB
CONST	SEGMENT
?const_min@?$integer_traits_base@_K$0A@$0?0@detail@boost@@2_KB DQ 0000000000000000H ; boost::detail::integer_traits_base<unsigned __int64,0,-1>::const_min
CONST	ENDS
;	COMDAT ?is_integral@?$integer_traits_base@_K$0A@$0?0@detail@boost@@2_NB
CONST	SEGMENT
?is_integral@?$integer_traits_base@_K$0A@$0?0@detail@boost@@2_NB DB 01H ; boost::detail::integer_traits_base<unsigned __int64,0,-1>::is_integral
CONST	ENDS
;	COMDAT ?const_max@?$integer_traits_base@_J$0?IAAAAAAAAAAAAAAA@$0HPPPPPPPPPPPPPPP@@detail@boost@@2_JB
CONST	SEGMENT
?const_max@?$integer_traits_base@_J$0?IAAAAAAAAAAAAAAA@$0HPPPPPPPPPPPPPPP@@detail@boost@@2_JB DQ 7fffffffffffffffH ; boost::detail::integer_traits_base<__int64,-9223372036854775808,9223372036854775807>::const_max
CONST	ENDS
;	COMDAT ?const_min@?$integer_traits_base@_J$0?IAAAAAAAAAAAAAAA@$0HPPPPPPPPPPPPPPP@@detail@boost@@2_JB
CONST	SEGMENT
?const_min@?$integer_traits_base@_J$0?IAAAAAAAAAAAAAAA@$0HPPPPPPPPPPPPPPP@@detail@boost@@2_JB DQ 8000000000000000H ; boost::detail::integer_traits_base<__int64,-9223372036854775808,9223372036854775807>::const_min
CONST	ENDS
;	COMDAT ?is_integral@?$integer_traits_base@_J$0?IAAAAAAAAAAAAAAA@$0HPPPPPPPPPPPPPPP@@detail@boost@@2_NB
CONST	SEGMENT
?is_integral@?$integer_traits_base@_J$0?IAAAAAAAAAAAAAAA@$0HPPPPPPPPPPPPPPP@@detail@boost@@2_NB DB 01H ; boost::detail::integer_traits_base<__int64,-9223372036854775808,9223372036854775807>::is_integral
CONST	ENDS
;	COMDAT ?const_max@?$integer_traits_base@K$0A@$0PPPPPPPP@@detail@boost@@2KB
CONST	SEGMENT
?const_max@?$integer_traits_base@K$0A@$0PPPPPPPP@@detail@boost@@2KB DD 0ffffffffH ; boost::detail::integer_traits_base<unsigned long,0,4294967295>::const_max
CONST	ENDS
;	COMDAT ?const_min@?$integer_traits_base@K$0A@$0PPPPPPPP@@detail@boost@@2KB
CONST	SEGMENT
?const_min@?$integer_traits_base@K$0A@$0PPPPPPPP@@detail@boost@@2KB DD 00H ; boost::detail::integer_traits_base<unsigned long,0,4294967295>::const_min
CONST	ENDS
;	COMDAT ?is_integral@?$integer_traits_base@K$0A@$0PPPPPPPP@@detail@boost@@2_NB
CONST	SEGMENT
?is_integral@?$integer_traits_base@K$0A@$0PPPPPPPP@@detail@boost@@2_NB DB 01H ; boost::detail::integer_traits_base<unsigned long,0,4294967295>::is_integral
CONST	ENDS
;	COMDAT ?const_max@?$integer_traits_base@J$0?IAAAAAAA@$0HPPPPPPP@@detail@boost@@2JB
CONST	SEGMENT
?const_max@?$integer_traits_base@J$0?IAAAAAAA@$0HPPPPPPP@@detail@boost@@2JB DD 07fffffffH ; boost::detail::integer_traits_base<long,-2147483648,2147483647>::const_max
CONST	ENDS
;	COMDAT ?const_min@?$integer_traits_base@J$0?IAAAAAAA@$0HPPPPPPP@@detail@boost@@2JB
CONST	SEGMENT
?const_min@?$integer_traits_base@J$0?IAAAAAAA@$0HPPPPPPP@@detail@boost@@2JB DD 080000000H ; boost::detail::integer_traits_base<long,-2147483648,2147483647>::const_min
CONST	ENDS
;	COMDAT ?is_integral@?$integer_traits_base@J$0?IAAAAAAA@$0HPPPPPPP@@detail@boost@@2_NB
CONST	SEGMENT
?is_integral@?$integer_traits_base@J$0?IAAAAAAA@$0HPPPPPPP@@detail@boost@@2_NB DB 01H ; boost::detail::integer_traits_base<long,-2147483648,2147483647>::is_integral
CONST	ENDS
;	COMDAT ?const_max@?$integer_traits_base@I$0A@$0PPPPPPPP@@detail@boost@@2IB
CONST	SEGMENT
?const_max@?$integer_traits_base@I$0A@$0PPPPPPPP@@detail@boost@@2IB DD 0ffffffffH ; boost::detail::integer_traits_base<unsigned int,0,4294967295>::const_max
CONST	ENDS
;	COMDAT ?const_min@?$integer_traits_base@I$0A@$0PPPPPPPP@@detail@boost@@2IB
CONST	SEGMENT
?const_min@?$integer_traits_base@I$0A@$0PPPPPPPP@@detail@boost@@2IB DD 00H ; boost::detail::integer_traits_base<unsigned int,0,4294967295>::const_min
CONST	ENDS
;	COMDAT ?is_integral@?$integer_traits_base@I$0A@$0PPPPPPPP@@detail@boost@@2_NB
CONST	SEGMENT
?is_integral@?$integer_traits_base@I$0A@$0PPPPPPPP@@detail@boost@@2_NB DB 01H ; boost::detail::integer_traits_base<unsigned int,0,4294967295>::is_integral
CONST	ENDS
;	COMDAT ?const_max@?$integer_traits_base@H$0?IAAAAAAA@$0HPPPPPPP@@detail@boost@@2HB
CONST	SEGMENT
?const_max@?$integer_traits_base@H$0?IAAAAAAA@$0HPPPPPPP@@detail@boost@@2HB DD 07fffffffH ; boost::detail::integer_traits_base<int,-2147483648,2147483647>::const_max
CONST	ENDS
;	COMDAT ?const_min@?$integer_traits_base@H$0?IAAAAAAA@$0HPPPPPPP@@detail@boost@@2HB
CONST	SEGMENT
?const_min@?$integer_traits_base@H$0?IAAAAAAA@$0HPPPPPPP@@detail@boost@@2HB DD 080000000H ; boost::detail::integer_traits_base<int,-2147483648,2147483647>::const_min
CONST	ENDS
;	COMDAT ?is_integral@?$integer_traits_base@H$0?IAAAAAAA@$0HPPPPPPP@@detail@boost@@2_NB
CONST	SEGMENT
?is_integral@?$integer_traits_base@H$0?IAAAAAAA@$0HPPPPPPP@@detail@boost@@2_NB DB 01H ; boost::detail::integer_traits_base<int,-2147483648,2147483647>::is_integral
CONST	ENDS
;	COMDAT ?const_max@?$integer_traits_base@G$0A@$0PPPP@@detail@boost@@2GB
CONST	SEGMENT
?const_max@?$integer_traits_base@G$0A@$0PPPP@@detail@boost@@2GB DW 0ffffH ; boost::detail::integer_traits_base<unsigned short,0,65535>::const_max
CONST	ENDS
;	COMDAT ?const_min@?$integer_traits_base@G$0A@$0PPPP@@detail@boost@@2GB
CONST	SEGMENT
?const_min@?$integer_traits_base@G$0A@$0PPPP@@detail@boost@@2GB DW 00H ; boost::detail::integer_traits_base<unsigned short,0,65535>::const_min
CONST	ENDS
;	COMDAT ?is_integral@?$integer_traits_base@G$0A@$0PPPP@@detail@boost@@2_NB
CONST	SEGMENT
?is_integral@?$integer_traits_base@G$0A@$0PPPP@@detail@boost@@2_NB DB 01H ; boost::detail::integer_traits_base<unsigned short,0,65535>::is_integral
CONST	ENDS
;	COMDAT ?const_max@?$integer_traits_base@F$0?IAAA@$0HPPP@@detail@boost@@2FB
CONST	SEGMENT
?const_max@?$integer_traits_base@F$0?IAAA@$0HPPP@@detail@boost@@2FB DW 07fffH ; boost::detail::integer_traits_base<short,-32768,32767>::const_max
CONST	ENDS
;	COMDAT ?const_min@?$integer_traits_base@F$0?IAAA@$0HPPP@@detail@boost@@2FB
CONST	SEGMENT
?const_min@?$integer_traits_base@F$0?IAAA@$0HPPP@@detail@boost@@2FB DW 08000H ; boost::detail::integer_traits_base<short,-32768,32767>::const_min
CONST	ENDS
;	COMDAT ?is_integral@?$integer_traits_base@F$0?IAAA@$0HPPP@@detail@boost@@2_NB
CONST	SEGMENT
?is_integral@?$integer_traits_base@F$0?IAAA@$0HPPP@@detail@boost@@2_NB DB 01H ; boost::detail::integer_traits_base<short,-32768,32767>::is_integral
CONST	ENDS
;	COMDAT ?const_max@?$integer_traits_base@_W$0A@$0PPPP@@detail@boost@@2_WB
CONST	SEGMENT
?const_max@?$integer_traits_base@_W$0A@$0PPPP@@detail@boost@@2_WB DW 0ffffH ; boost::detail::integer_traits_base<wchar_t,0,65535>::const_max
CONST	ENDS
;	COMDAT ?const_min@?$integer_traits_base@_W$0A@$0PPPP@@detail@boost@@2_WB
CONST	SEGMENT
?const_min@?$integer_traits_base@_W$0A@$0PPPP@@detail@boost@@2_WB DW 00H ; boost::detail::integer_traits_base<wchar_t,0,65535>::const_min
CONST	ENDS
;	COMDAT ?is_integral@?$integer_traits_base@_W$0A@$0PPPP@@detail@boost@@2_NB
CONST	SEGMENT
?is_integral@?$integer_traits_base@_W$0A@$0PPPP@@detail@boost@@2_NB DB 01H ; boost::detail::integer_traits_base<wchar_t,0,65535>::is_integral
CONST	ENDS
;	COMDAT ?const_max@?$integer_traits_base@E$0A@$0PP@@detail@boost@@2EB
CONST	SEGMENT
?const_max@?$integer_traits_base@E$0A@$0PP@@detail@boost@@2EB DB 0ffH ; boost::detail::integer_traits_base<unsigned char,0,255>::const_max
CONST	ENDS
;	COMDAT ?const_min@?$integer_traits_base@E$0A@$0PP@@detail@boost@@2EB
CONST	SEGMENT
?const_min@?$integer_traits_base@E$0A@$0PP@@detail@boost@@2EB DB 00H ; boost::detail::integer_traits_base<unsigned char,0,255>::const_min
CONST	ENDS
;	COMDAT ?is_integral@?$integer_traits_base@E$0A@$0PP@@detail@boost@@2_NB
CONST	SEGMENT
?is_integral@?$integer_traits_base@E$0A@$0PP@@detail@boost@@2_NB DB 01H ; boost::detail::integer_traits_base<unsigned char,0,255>::is_integral
CONST	ENDS
;	COMDAT ?const_max@?$integer_traits_base@C$0?IA@$0HP@@detail@boost@@2CB
CONST	SEGMENT
?const_max@?$integer_traits_base@C$0?IA@$0HP@@detail@boost@@2CB DB 07fH ; boost::detail::integer_traits_base<signed char,-128,127>::const_max
CONST	ENDS
;	COMDAT ?const_min@?$integer_traits_base@C$0?IA@$0HP@@detail@boost@@2CB
CONST	SEGMENT
?const_min@?$integer_traits_base@C$0?IA@$0HP@@detail@boost@@2CB DB 080H ; boost::detail::integer_traits_base<signed char,-128,127>::const_min
CONST	ENDS
;	COMDAT ?is_integral@?$integer_traits_base@C$0?IA@$0HP@@detail@boost@@2_NB
CONST	SEGMENT
?is_integral@?$integer_traits_base@C$0?IA@$0HP@@detail@boost@@2_NB DB 01H ; boost::detail::integer_traits_base<signed char,-128,127>::is_integral
CONST	ENDS
;	COMDAT ?const_max@?$integer_traits_base@D$0?IA@$0HP@@detail@boost@@2DB
CONST	SEGMENT
?const_max@?$integer_traits_base@D$0?IA@$0HP@@detail@boost@@2DB DB 07fH ; boost::detail::integer_traits_base<char,-128,127>::const_max
CONST	ENDS
;	COMDAT ?const_min@?$integer_traits_base@D$0?IA@$0HP@@detail@boost@@2DB
CONST	SEGMENT
?const_min@?$integer_traits_base@D$0?IA@$0HP@@detail@boost@@2DB DB 080H ; boost::detail::integer_traits_base<char,-128,127>::const_min
CONST	ENDS
;	COMDAT ?is_integral@?$integer_traits_base@D$0?IA@$0HP@@detail@boost@@2_NB
CONST	SEGMENT
?is_integral@?$integer_traits_base@D$0?IA@$0HP@@detail@boost@@2_NB DB 01H ; boost::detail::integer_traits_base<char,-128,127>::is_integral
CONST	ENDS
;	COMDAT ?const_max@?$integer_traits_base@_N$0A@$00@detail@boost@@2_NB
CONST	SEGMENT
?const_max@?$integer_traits_base@_N$0A@$00@detail@boost@@2_NB DB 01H ; boost::detail::integer_traits_base<bool,0,1>::const_max
CONST	ENDS
;	COMDAT ?const_min@?$integer_traits_base@_N$0A@$00@detail@boost@@2_NB
CONST	SEGMENT
?const_min@?$integer_traits_base@_N$0A@$00@detail@boost@@2_NB DB 00H ; boost::detail::integer_traits_base<bool,0,1>::const_min
CONST	ENDS
;	COMDAT ?is_integral@?$integer_traits_base@_N$0A@$00@detail@boost@@2_NB
CONST	SEGMENT
?is_integral@?$integer_traits_base@_N$0A@$00@detail@boost@@2_NB DB 01H ; boost::detail::integer_traits_base<bool,0,1>::is_integral
CONST	ENDS
;	COMDAT ?value@?$integral_constant@_N$00@tr1@std@@2_NB
CONST	SEGMENT
?value@?$integral_constant@_N$00@tr1@std@@2_NB DB 01H	; std::tr1::integral_constant<bool,1>::value
CONST	ENDS
;	COMDAT ?value@?$integral_constant@_N$0A@@tr1@std@@2_NB
CONST	SEGMENT
?value@?$integral_constant@_N$0A@@tr1@std@@2_NB DB 00H	; std::tr1::integral_constant<bool,0>::value
CONST	ENDS
;	COMDAT ?value@?$ice_not@$00@type_traits@boost@@2_NB
CONST	SEGMENT
?value@?$ice_not@$00@type_traits@boost@@2_NB DB 00H	; boost::type_traits::ice_not<1>::value
CONST	ENDS
;	COMDAT ?value@?$ice_and@$00$00$00$00$00$00$00@type_traits@boost@@2_NB
CONST	SEGMENT
?value@?$ice_and@$00$00$00$00$00$00$00@type_traits@boost@@2_NB DB 01H ; boost::type_traits::ice_and<1,1,1,1,1,1,1>::value
CONST	ENDS
;	COMDAT ?value@?$is_member_function_pointer_impl@$$CDX@detail@boost@@2_NB
CONST	SEGMENT
?value@?$is_member_function_pointer_impl@$$CDX@detail@boost@@2_NB DB 00H ; boost::detail::is_member_function_pointer_impl<void const volatile >::value
CONST	ENDS
;	COMDAT ?value@?$is_member_function_pointer_impl@$$CCX@detail@boost@@2_NB
CONST	SEGMENT
?value@?$is_member_function_pointer_impl@$$CCX@detail@boost@@2_NB DB 00H ; boost::detail::is_member_function_pointer_impl<void volatile >::value
CONST	ENDS
;	COMDAT ?value@?$is_member_function_pointer_impl@$$CBX@detail@boost@@2_NB
CONST	SEGMENT
?value@?$is_member_function_pointer_impl@$$CBX@detail@boost@@2_NB DB 00H ; boost::detail::is_member_function_pointer_impl<void const >::value
CONST	ENDS
;	COMDAT ?value@?$is_member_function_pointer_impl@X@detail@boost@@2_NB
CONST	SEGMENT
?value@?$is_member_function_pointer_impl@X@detail@boost@@2_NB DB 00H ; boost::detail::is_member_function_pointer_impl<void>::value
CONST	ENDS
;	COMDAT ?value@?$ice_or@$0A@$0A@$0A@$0A@$0A@$0A@$0A@@type_traits@boost@@2_NB
CONST	SEGMENT
?value@?$ice_or@$0A@$0A@$0A@$0A@$0A@$0A@$0A@@type_traits@boost@@2_NB DB 00H ; boost::type_traits::ice_or<0,0,0,0,0,0,0>::value
CONST	ENDS
;	COMDAT ?value@?$bool_@$0A@@mpl@boost@@2_NB
CONST	SEGMENT
?value@?$bool_@$0A@@mpl@boost@@2_NB DB 00H		; boost::mpl::bool_<0>::value
CONST	ENDS
;	COMDAT ?value@?$bool_@$00@mpl@boost@@2_NB
CONST	SEGMENT
?value@?$bool_@$00@mpl@boost@@2_NB DB 01H		; boost::mpl::bool_<1>::value
CONST	ENDS
;	COMDAT ?value@integral_c_tag@mpl@boost@@2HB
CONST	SEGMENT
?value@integral_c_tag@mpl@boost@@2HB DD 00H		; boost::mpl::integral_c_tag::value
CONST	ENDS
;	COMDAT ?end@?$_Iosb@H@std@@2W4_Seekdir@12@B
CONST	SEGMENT
?end@?$_Iosb@H@std@@2W4_Seekdir@12@B DD 02H		; std::_Iosb<int>::end
CONST	ENDS
;	COMDAT ?cur@?$_Iosb@H@std@@2W4_Seekdir@12@B
CONST	SEGMENT
?cur@?$_Iosb@H@std@@2W4_Seekdir@12@B DD 01H		; std::_Iosb<int>::cur
CONST	ENDS
;	COMDAT ?beg@?$_Iosb@H@std@@2W4_Seekdir@12@B
CONST	SEGMENT
?beg@?$_Iosb@H@std@@2W4_Seekdir@12@B DD 00H		; std::_Iosb<int>::beg
CONST	ENDS
;	COMDAT ?binary@?$_Iosb@H@std@@2W4_Openmode@12@B
CONST	SEGMENT
?binary@?$_Iosb@H@std@@2W4_Openmode@12@B DD 020H	; std::_Iosb<int>::binary
CONST	ENDS
;	COMDAT ?_Noreplace@?$_Iosb@H@std@@2W4_Openmode@12@B
CONST	SEGMENT
?_Noreplace@?$_Iosb@H@std@@2W4_Openmode@12@B DD 080H	; std::_Iosb<int>::_Noreplace
CONST	ENDS
;	COMDAT ?_Nocreate@?$_Iosb@H@std@@2W4_Openmode@12@B
CONST	SEGMENT
?_Nocreate@?$_Iosb@H@std@@2W4_Openmode@12@B DD 040H	; std::_Iosb<int>::_Nocreate
CONST	ENDS
;	COMDAT ?trunc@?$_Iosb@H@std@@2W4_Openmode@12@B
CONST	SEGMENT
?trunc@?$_Iosb@H@std@@2W4_Openmode@12@B DD 010H		; std::_Iosb<int>::trunc
CONST	ENDS
;	COMDAT ?app@?$_Iosb@H@std@@2W4_Openmode@12@B
CONST	SEGMENT
?app@?$_Iosb@H@std@@2W4_Openmode@12@B DD 08H		; std::_Iosb<int>::app
CONST	ENDS
;	COMDAT ?ate@?$_Iosb@H@std@@2W4_Openmode@12@B
CONST	SEGMENT
?ate@?$_Iosb@H@std@@2W4_Openmode@12@B DD 04H		; std::_Iosb<int>::ate
CONST	ENDS
;	COMDAT ?out@?$_Iosb@H@std@@2W4_Openmode@12@B
CONST	SEGMENT
?out@?$_Iosb@H@std@@2W4_Openmode@12@B DD 02H		; std::_Iosb<int>::out
CONST	ENDS
;	COMDAT ?in@?$_Iosb@H@std@@2W4_Openmode@12@B
CONST	SEGMENT
?in@?$_Iosb@H@std@@2W4_Openmode@12@B DD 01H		; std::_Iosb<int>::in
CONST	ENDS
;	COMDAT ?_Hardfail@?$_Iosb@H@std@@2W4_Iostate@12@B
CONST	SEGMENT
?_Hardfail@?$_Iosb@H@std@@2W4_Iostate@12@B DD 010H	; std::_Iosb<int>::_Hardfail
CONST	ENDS
;	COMDAT ?badbit@?$_Iosb@H@std@@2W4_Iostate@12@B
CONST	SEGMENT
?badbit@?$_Iosb@H@std@@2W4_Iostate@12@B DD 04H		; std::_Iosb<int>::badbit
CONST	ENDS
;	COMDAT ?failbit@?$_Iosb@H@std@@2W4_Iostate@12@B
CONST	SEGMENT
?failbit@?$_Iosb@H@std@@2W4_Iostate@12@B DD 02H		; std::_Iosb<int>::failbit
CONST	ENDS
;	COMDAT ?eofbit@?$_Iosb@H@std@@2W4_Iostate@12@B
CONST	SEGMENT
?eofbit@?$_Iosb@H@std@@2W4_Iostate@12@B DD 01H		; std::_Iosb<int>::eofbit
CONST	ENDS
;	COMDAT ?goodbit@?$_Iosb@H@std@@2W4_Iostate@12@B
CONST	SEGMENT
?goodbit@?$_Iosb@H@std@@2W4_Iostate@12@B DD 00H		; std::_Iosb<int>::goodbit
CONST	ENDS
;	COMDAT ?floatfield@?$_Iosb@H@std@@2W4_Fmtflags@12@B
CONST	SEGMENT
?floatfield@?$_Iosb@H@std@@2W4_Fmtflags@12@B DD 03000H	; std::_Iosb<int>::floatfield
CONST	ENDS
;	COMDAT ?basefield@?$_Iosb@H@std@@2W4_Fmtflags@12@B
CONST	SEGMENT
?basefield@?$_Iosb@H@std@@2W4_Fmtflags@12@B DD 0e00H	; std::_Iosb<int>::basefield
CONST	ENDS
;	COMDAT ?adjustfield@?$_Iosb@H@std@@2W4_Fmtflags@12@B
CONST	SEGMENT
?adjustfield@?$_Iosb@H@std@@2W4_Fmtflags@12@B DD 01c0H	; std::_Iosb<int>::adjustfield
CONST	ENDS
;	COMDAT ?_Stdio@?$_Iosb@H@std@@2W4_Fmtflags@12@B
CONST	SEGMENT
?_Stdio@?$_Iosb@H@std@@2W4_Fmtflags@12@B DD 08000H	; std::_Iosb<int>::_Stdio
CONST	ENDS
;	COMDAT ?boolalpha@?$_Iosb@H@std@@2W4_Fmtflags@12@B
CONST	SEGMENT
?boolalpha@?$_Iosb@H@std@@2W4_Fmtflags@12@B DD 04000H	; std::_Iosb<int>::boolalpha
CONST	ENDS
;	COMDAT ?hexfloat@?$_Iosb@H@std@@2W4_Fmtflags@12@B
CONST	SEGMENT
?hexfloat@?$_Iosb@H@std@@2W4_Fmtflags@12@B DD 03000H	; std::_Iosb<int>::hexfloat
CONST	ENDS
;	COMDAT ?fixed@?$_Iosb@H@std@@2W4_Fmtflags@12@B
CONST	SEGMENT
?fixed@?$_Iosb@H@std@@2W4_Fmtflags@12@B DD 02000H	; std::_Iosb<int>::fixed
CONST	ENDS
;	COMDAT ?scientific@?$_Iosb@H@std@@2W4_Fmtflags@12@B
CONST	SEGMENT
?scientific@?$_Iosb@H@std@@2W4_Fmtflags@12@B DD 01000H	; std::_Iosb<int>::scientific
CONST	ENDS
;	COMDAT ?hex@?$_Iosb@H@std@@2W4_Fmtflags@12@B
CONST	SEGMENT
?hex@?$_Iosb@H@std@@2W4_Fmtflags@12@B DD 0800H		; std::_Iosb<int>::hex
CONST	ENDS
;	COMDAT ?oct@?$_Iosb@H@std@@2W4_Fmtflags@12@B
CONST	SEGMENT
?oct@?$_Iosb@H@std@@2W4_Fmtflags@12@B DD 0400H		; std::_Iosb<int>::oct
CONST	ENDS
;	COMDAT ?dec@?$_Iosb@H@std@@2W4_Fmtflags@12@B
CONST	SEGMENT
?dec@?$_Iosb@H@std@@2W4_Fmtflags@12@B DD 0200H		; std::_Iosb<int>::dec
CONST	ENDS
;	COMDAT ?internal@?$_Iosb@H@std@@2W4_Fmtflags@12@B
CONST	SEGMENT
?internal@?$_Iosb@H@std@@2W4_Fmtflags@12@B DD 0100H	; std::_Iosb<int>::internal
CONST	ENDS
;	COMDAT ?right@?$_Iosb@H@std@@2W4_Fmtflags@12@B
CONST	SEGMENT
?right@?$_Iosb@H@std@@2W4_Fmtflags@12@B DD 080H		; std::_Iosb<int>::right
CONST	ENDS
;	COMDAT ?left@?$_Iosb@H@std@@2W4_Fmtflags@12@B
CONST	SEGMENT
?left@?$_Iosb@H@std@@2W4_Fmtflags@12@B DD 040H		; std::_Iosb<int>::left
CONST	ENDS
;	COMDAT ?showpos@?$_Iosb@H@std@@2W4_Fmtflags@12@B
CONST	SEGMENT
?showpos@?$_Iosb@H@std@@2W4_Fmtflags@12@B DD 020H	; std::_Iosb<int>::showpos
CONST	ENDS
;	COMDAT ?showpoint@?$_Iosb@H@std@@2W4_Fmtflags@12@B
CONST	SEGMENT
?showpoint@?$_Iosb@H@std@@2W4_Fmtflags@12@B DD 010H	; std::_Iosb<int>::showpoint
CONST	ENDS
;	COMDAT ?showbase@?$_Iosb@H@std@@2W4_Fmtflags@12@B
CONST	SEGMENT
?showbase@?$_Iosb@H@std@@2W4_Fmtflags@12@B DD 08H	; std::_Iosb<int>::showbase
CONST	ENDS
;	COMDAT ?uppercase@?$_Iosb@H@std@@2W4_Fmtflags@12@B
CONST	SEGMENT
?uppercase@?$_Iosb@H@std@@2W4_Fmtflags@12@B DD 04H	; std::_Iosb<int>::uppercase
CONST	ENDS
;	COMDAT ?unitbuf@?$_Iosb@H@std@@2W4_Fmtflags@12@B
CONST	SEGMENT
?unitbuf@?$_Iosb@H@std@@2W4_Fmtflags@12@B DD 02H	; std::_Iosb<int>::unitbuf
CONST	ENDS
;	COMDAT ?skipws@?$_Iosb@H@std@@2W4_Fmtflags@12@B
CONST	SEGMENT
?skipws@?$_Iosb@H@std@@2W4_Fmtflags@12@B DD 01H		; std::_Iosb<int>::skipws
CONST	ENDS
;	COMDAT ?none@?$_Locbase@H@std@@2HB
CONST	SEGMENT
?none@?$_Locbase@H@std@@2HB DD 00H			; std::_Locbase<int>::none
CONST	ENDS
;	COMDAT ?all@?$_Locbase@H@std@@2HB
CONST	SEGMENT
?all@?$_Locbase@H@std@@2HB DD 03fH			; std::_Locbase<int>::all
CONST	ENDS
;	COMDAT ?messages@?$_Locbase@H@std@@2HB
CONST	SEGMENT
?messages@?$_Locbase@H@std@@2HB DD 020H			; std::_Locbase<int>::messages
CONST	ENDS
;	COMDAT ?time@?$_Locbase@H@std@@2HB
CONST	SEGMENT
?time@?$_Locbase@H@std@@2HB DD 010H			; std::_Locbase<int>::time
CONST	ENDS
;	COMDAT ?numeric@?$_Locbase@H@std@@2HB
CONST	SEGMENT
?numeric@?$_Locbase@H@std@@2HB DD 08H			; std::_Locbase<int>::numeric
CONST	ENDS
;	COMDAT ?monetary@?$_Locbase@H@std@@2HB
CONST	SEGMENT
?monetary@?$_Locbase@H@std@@2HB DD 04H			; std::_Locbase<int>::monetary
CONST	ENDS
;	COMDAT ?ctype@?$_Locbase@H@std@@2HB
CONST	SEGMENT
?ctype@?$_Locbase@H@std@@2HB DD 02H			; std::_Locbase<int>::ctype
CONST	ENDS
;	COMDAT ?collate@?$_Locbase@H@std@@2HB
CONST	SEGMENT
?collate@?$_Locbase@H@std@@2HB DD 01H			; std::_Locbase<int>::collate
CONST	ENDS
;	COMDAT ?_Value@?$_Is_swap_move@U_Swap_move_tag@std@@@std@@2_NB
CONST	SEGMENT
?_Value@?$_Is_swap_move@U_Swap_move_tag@std@@@std@@2_NB DB 01H ; std::_Is_swap_move<std::_Swap_move_tag>::_Value
CONST	ENDS
_DATA	SEGMENT
__bad_alloc_Message DD FLAT:??_C@_0P@GHFPNOJB@bad?5allocation?$AA@
_DATA	ENDS
;	COMDAT ??_C@_0P@GHFPNOJB@bad?5allocation?$AA@
CONST	SEGMENT
??_C@_0P@GHFPNOJB@bad?5allocation?$AA@ DB 'bad allocation', 00H ; `string'
CONST	ENDS
PUBLIC	??1?$vector@VBank@DRAMsimII@@V?$allocator@VBank@DRAMsimII@@@std@@@std@@QAE@XZ ; std::vector<DRAMsimII::Bank,std::allocator<DRAMsimII::Bank> >::~vector<DRAMsimII::Bank,std::allocator<DRAMsimII::Bank> >
PUBLIC	??1?$circular_buffer@_JV?$allocator@_J@std@@@boost@@QAE@XZ ; boost::circular_buffer<__int64,std::allocator<__int64> >::~circular_buffer<__int64,std::allocator<__int64> >
PUBLIC	??1Bank@DRAMsimII@@QAE@XZ			; DRAMsimII::Bank::~Bank
PUBLIC	??0?$vector@VBank@DRAMsimII@@V?$allocator@VBank@DRAMsimII@@@std@@@std@@QAE@IABVBank@DRAMsimII@@@Z ; std::vector<DRAMsimII::Bank,std::allocator<DRAMsimII::Bank> >::vector<DRAMsimII::Bank,std::allocator<DRAMsimII::Bank> >
PUBLIC	?getBankCount@SystemConfiguration@DRAMsimII@@QBEIXZ ; DRAMsimII::SystemConfiguration::getBankCount
PUBLIC	??$?0H@?$circular_buffer@_JV?$allocator@_J@std@@@boost@@QAE@IHHABV?$allocator@_J@std@@@Z ; boost::circular_buffer<__int64,std::allocator<__int64> >::circular_buffer<__int64,std::allocator<__int64> ><int>
PUBLIC	??0?$allocator@_J@std@@QAE@XZ			; std::allocator<__int64>::allocator<__int64>
PUBLIC	??0Rank@DRAMsimII@@QAE@ABVSettings@1@ABVTimingSpecification@1@ABVSystemConfiguration@1@@Z ; DRAMsimII::Rank::Rank
EXTRN	??1LRU@@UAE@XZ:PROC				; LRU::~LRU
EXTRN	??0Bank@DRAMsimII@@QAE@ABVSettings@1@ABVTimingSpecification@1@ABVSystemConfiguration@1@@Z:PROC ; DRAMsimII::Bank::Bank
EXTRN	??0LRU@@QAE@IIII@Z:PROC				; LRU::LRU
EXTRN	___security_cookie:DWORD
EXTRN	___CxxFrameHandler3:PROC
EXTRN	@__security_check_cookie@4:PROC
EXTRN	__RTC_CheckEsp:PROC
EXTRN	__allmul:PROC
EXTRN	__RTC_Shutdown:PROC
EXTRN	__RTC_InitBase:PROC
;	COMDAT xdata$x
; File c:\users\crius\documents\visual studio 2008\projects\dramsimiihg\src\rank.cpp
xdata$x	SEGMENT
__ehfuncinfo$??0Rank@DRAMsimII@@QAE@ABVSettings@1@ABVTimingSpecification@1@ABVSystemConfiguration@1@@Z DD 019930522H
	DD	05H
	DD	FLAT:__unwindtable$??0Rank@DRAMsimII@@QAE@ABVSettings@1@ABVTimingSpecification@1@ABVSystemConfiguration@1@@Z
	DD	2 DUP(00H)
	DD	2 DUP(00H)
	DD	00H
	DD	01H
__unwindtable$??0Rank@DRAMsimII@@QAE@ABVSettings@1@ABVTimingSpecification@1@ABVSystemConfiguration@1@@Z DD 0ffffffffH
	DD	FLAT:__unwindfunclet$??0Rank@DRAMsimII@@QAE@ABVSettings@1@ABVTimingSpecification@1@ABVSystemConfiguration@1@@Z$0
	DD	00H
	DD	FLAT:__unwindfunclet$??0Rank@DRAMsimII@@QAE@ABVSettings@1@ABVTimingSpecification@1@ABVSystemConfiguration@1@@Z$1
	DD	01H
	DD	FLAT:__unwindfunclet$??0Rank@DRAMsimII@@QAE@ABVSettings@1@ABVTimingSpecification@1@ABVSystemConfiguration@1@@Z$2
	DD	02H
	DD	FLAT:__unwindfunclet$??0Rank@DRAMsimII@@QAE@ABVSettings@1@ABVTimingSpecification@1@ABVSystemConfiguration@1@@Z$3
	DD	01H
	DD	FLAT:__unwindfunclet$??0Rank@DRAMsimII@@QAE@ABVSettings@1@ABVTimingSpecification@1@ABVSystemConfiguration@1@@Z$3
xdata$x	ENDS
;	COMDAT rtc$TMZ
rtc$TMZ	SEGMENT
__RTC_Shutdown.rtc$TMZ DD FLAT:__RTC_Shutdown
rtc$TMZ	ENDS
;	COMDAT rtc$IMZ
rtc$IMZ	SEGMENT
__RTC_InitBase.rtc$IMZ DD FLAT:__RTC_InitBase
; Function compile flags: /Odtp /RTCcsu /ZI
rtc$IMZ	ENDS
;	COMDAT ??0Rank@DRAMsimII@@QAE@ABVSettings@1@ABVTimingSpecification@1@ABVSystemConfiguration@1@@Z
_TEXT	SEGMENT
tv164 = -396						; size = 4
tv167 = -392						; size = 4
$T167765 = -381						; size = 1
$T167766 = -372						; size = 152
_this$ = -20						; size = 4
__$EHRec$ = -12						; size = 12
_settings$ = 8						; size = 4
_timing$ = 12						; size = 4
_systemConfig$ = 16					; size = 4
??0Rank@DRAMsimII@@QAE@ABVSettings@1@ABVTimingSpecification@1@ABVSystemConfiguration@1@@Z PROC ; DRAMsimII::Rank::Rank, COMDAT
; _this$ = ecx

; 54   : {}

	push	ebp
	mov	ebp, esp
	push	-1
	push	__ehhandler$??0Rank@DRAMsimII@@QAE@ABVSettings@1@ABVTimingSpecification@1@ABVSystemConfiguration@1@@Z
	mov	eax, DWORD PTR fs:0
	push	eax
	sub	esp, 384				; 00000180H
	push	ebx
	push	esi
	push	edi
	push	ecx
	lea	edi, DWORD PTR [ebp-396]
	mov	ecx, 96					; 00000060H
	mov	eax, -858993460				; ccccccccH
	rep stosd
	pop	ecx
	mov	eax, DWORD PTR ___security_cookie
	xor	eax, ebp
	push	eax
	lea	eax, DWORD PTR __$EHRec$[ebp]
	mov	DWORD PTR fs:0, eax
	mov	DWORD PTR _this$[ebp], ecx
	mov	eax, DWORD PTR _this$[ebp]
	mov	ecx, DWORD PTR _timing$[ebp]
	mov	DWORD PTR [eax], ecx
	mov	eax, DWORD PTR _settings$[ebp]
	mov	ecx, DWORD PTR [eax+384]
	xor	edx, edx
	push	-1
	push	-1
	push	edx
	push	ecx
	call	__allmul
	mov	ecx, DWORD PTR _this$[ebp]
	mov	DWORD PTR [ecx+8], eax
	mov	DWORD PTR [ecx+12], edx
	mov	eax, DWORD PTR _this$[ebp]
	mov	DWORD PTR [eax+16], -100		; ffffff9cH
	mov	DWORD PTR [eax+20], -1
	mov	eax, DWORD PTR _this$[ebp]
	mov	DWORD PTR [eax+24], -100		; ffffff9cH
	mov	DWORD PTR [eax+28], -1
	mov	eax, DWORD PTR _this$[ebp]
	mov	DWORD PTR [eax+32], -100		; ffffff9cH
	mov	DWORD PTR [eax+36], -1
	mov	eax, DWORD PTR _this$[ebp]
	mov	DWORD PTR [eax+40], -100		; ffffff9cH
	mov	DWORD PTR [eax+44], -1
	mov	eax, DWORD PTR _this$[ebp]
	mov	DWORD PTR [eax+48], -100		; ffffff9cH
	mov	DWORD PTR [eax+52], -1
	mov	eax, DWORD PTR _this$[ebp]
	mov	DWORD PTR [eax+56], 0
	mov	DWORD PTR [eax+60], 0
	mov	eax, DWORD PTR _this$[ebp]
	mov	DWORD PTR [eax+64], 0
	mov	DWORD PTR [eax+68], 0
	mov	eax, DWORD PTR _this$[ebp]
	mov	DWORD PTR [eax+72], 0
	mov	DWORD PTR [eax+76], 0
	mov	eax, DWORD PTR _this$[ebp]
	mov	DWORD PTR [eax+80], 0
	mov	DWORD PTR [eax+84], 0
	mov	eax, DWORD PTR _this$[ebp]
	mov	DWORD PTR [eax+88], 0
	mov	DWORD PTR [eax+92], 0
	mov	eax, DWORD PTR _this$[ebp]
	mov	DWORD PTR [eax+96], 0
	mov	DWORD PTR [eax+100], 0
	mov	eax, DWORD PTR _this$[ebp]
	mov	DWORD PTR [eax+104], 0
	mov	DWORD PTR [eax+108], 0
	mov	eax, DWORD PTR _this$[ebp]
	mov	DWORD PTR [eax+112], 0
	mov	eax, DWORD PTR _this$[ebp]
	mov	DWORD PTR [eax+116], 0
	mov	eax, DWORD PTR _this$[ebp]
	mov	DWORD PTR [eax+120], 0
	mov	eax, DWORD PTR _this$[ebp]
	mov	DWORD PTR [eax+124], 0
	mov	eax, DWORD PTR _this$[ebp]
	mov	DWORD PTR [eax+128], 0
	mov	eax, DWORD PTR _this$[ebp]
	mov	DWORD PTR [eax+132], 0
	mov	eax, DWORD PTR _this$[ebp]
	mov	DWORD PTR [eax+136], -1
	mov	eax, DWORD PTR _settings$[ebp]
	mov	ecx, DWORD PTR [eax+332]
	sub	ecx, 1
	mov	edx, DWORD PTR _this$[ebp]
	mov	DWORD PTR [edx+140], ecx
	mov	eax, DWORD PTR _this$[ebp]
	mov	DWORD PTR [eax+144], 0
	push	5
	push	8
	push	64					; 00000040H
	push	1024					; 00000400H
	mov	ecx, DWORD PTR _this$[ebp]
	add	ecx, 152				; 00000098H
	call	??0LRU@@QAE@IIII@Z			; LRU::LRU
	mov	DWORD PTR __$EHRec$[ebp+8], 0
	lea	ecx, DWORD PTR $T167765[ebp]
	call	??0?$allocator@_J@std@@QAE@XZ		; std::allocator<__int64>::allocator<__int64>
	push	eax
	push	-100					; ffffff9cH
	push	4
	push	4
	mov	ecx, DWORD PTR _this$[ebp]
	add	ecx, 312				; 00000138H
	call	??$?0H@?$circular_buffer@_JV?$allocator@_J@std@@@boost@@QAE@IHHABV?$allocator@_J@std@@@Z ; boost::circular_buffer<__int64,std::allocator<__int64> >::circular_buffer<__int64,std::allocator<__int64> ><int>
	mov	BYTE PTR __$EHRec$[ebp+8], 1
	mov	eax, DWORD PTR _systemConfig$[ebp]
	push	eax
	mov	ecx, DWORD PTR _timing$[ebp]
	push	ecx
	mov	edx, DWORD PTR _settings$[ebp]
	push	edx
	lea	ecx, DWORD PTR $T167766[ebp]
	call	??0Bank@DRAMsimII@@QAE@ABVSettings@1@ABVTimingSpecification@1@ABVSystemConfiguration@1@@Z ; DRAMsimII::Bank::Bank
	mov	DWORD PTR tv167[ebp], eax
	mov	eax, DWORD PTR tv167[ebp]
	mov	DWORD PTR tv164[ebp], eax
	mov	BYTE PTR __$EHRec$[ebp+8], 2
	mov	ecx, DWORD PTR tv164[ebp]
	push	ecx
	mov	ecx, DWORD PTR _systemConfig$[ebp]
	call	?getBankCount@SystemConfiguration@DRAMsimII@@QBEIXZ ; DRAMsimII::SystemConfiguration::getBankCount
	push	eax
	mov	ecx, DWORD PTR _this$[ebp]
	add	ecx, 340				; 00000154H
	call	??0?$vector@VBank@DRAMsimII@@V?$allocator@VBank@DRAMsimII@@@std@@@std@@QAE@IABVBank@DRAMsimII@@@Z ; std::vector<DRAMsimII::Bank,std::allocator<DRAMsimII::Bank> >::vector<DRAMsimII::Bank,std::allocator<DRAMsimII::Bank> >
	mov	BYTE PTR __$EHRec$[ebp+8], 4
	lea	ecx, DWORD PTR $T167766[ebp]
	call	??1Bank@DRAMsimII@@QAE@XZ
	mov	DWORD PTR __$EHRec$[ebp+8], -1
	mov	eax, DWORD PTR _this$[ebp]
	mov	ecx, DWORD PTR __$EHRec$[ebp]
	mov	DWORD PTR fs:0, ecx
	pop	ecx
	pop	edi
	pop	esi
	pop	ebx
	add	esp, 396				; 0000018cH
	cmp	ebp, esp
	call	__RTC_CheckEsp
	mov	esp, ebp
	pop	ebp
	ret	12					; 0000000cH
_TEXT	ENDS
;	COMDAT text$x
text$x	SEGMENT
__unwindfunclet$??0Rank@DRAMsimII@@QAE@ABVSettings@1@ABVTimingSpecification@1@ABVSystemConfiguration@1@@Z$0:
	mov	ecx, DWORD PTR _this$[ebp]
	add	ecx, 152				; 00000098H
	jmp	??1LRU@@UAE@XZ				; LRU::~LRU
__unwindfunclet$??0Rank@DRAMsimII@@QAE@ABVSettings@1@ABVTimingSpecification@1@ABVSystemConfiguration@1@@Z$1:
	mov	ecx, DWORD PTR _this$[ebp]
	add	ecx, 312				; 00000138H
	jmp	??1?$circular_buffer@_JV?$allocator@_J@std@@@boost@@QAE@XZ ; boost::circular_buffer<__int64,std::allocator<__int64> >::~circular_buffer<__int64,std::allocator<__int64> >
__unwindfunclet$??0Rank@DRAMsimII@@QAE@ABVSettings@1@ABVTimingSpecification@1@ABVSystemConfiguration@1@@Z$2:
	lea	ecx, DWORD PTR $T167766[ebp]
	jmp	??1Bank@DRAMsimII@@QAE@XZ
__unwindfunclet$??0Rank@DRAMsimII@@QAE@ABVSettings@1@ABVTimingSpecification@1@ABVSystemConfiguration@1@@Z$3:
	mov	ecx, DWORD PTR _this$[ebp]
	add	ecx, 340				; 00000154H
	jmp	??1?$vector@VBank@DRAMsimII@@V?$allocator@VBank@DRAMsimII@@@std@@@std@@QAE@XZ ; std::vector<DRAMsimII::Bank,std::allocator<DRAMsimII::Bank> >::~vector<DRAMsimII::Bank,std::allocator<DRAMsimII::Bank> >
__ehhandler$??0Rank@DRAMsimII@@QAE@ABVSettings@1@ABVTimingSpecification@1@ABVSystemConfiguration@1@@Z:
	mov	edx, DWORD PTR [esp+8]
	lea	eax, DWORD PTR [edx+12]
	mov	ecx, DWORD PTR [edx-400]
	xor	ecx, eax
	call	@__security_check_cookie@4
	mov	eax, OFFSET __ehfuncinfo$??0Rank@DRAMsimII@@QAE@ABVSettings@1@ABVTimingSpecification@1@ABVSystemConfiguration@1@@Z
	jmp	___CxxFrameHandler3
text$x	ENDS
??0Rank@DRAMsimII@@QAE@ABVSettings@1@ABVTimingSpecification@1@ABVSystemConfiguration@1@@Z ENDP ; DRAMsimII::Rank::Rank
; Function compile flags: /Odtp /RTCcsu /ZI
; File c:\users\crius\documents\visual studio 2008\projects\dramsimiihg\src\systemconfiguration.h
;	COMDAT ?getBankCount@SystemConfiguration@DRAMsimII@@QBEIXZ
_TEXT	SEGMENT
_this$ = -8						; size = 4
?getBankCount@SystemConfiguration@DRAMsimII@@QBEIXZ PROC ; DRAMsimII::SystemConfiguration::getBankCount, COMDAT
; _this$ = ecx

; 94   : 		unsigned getBankCount() const { return bankCount; }

	push	ebp
	mov	ebp, esp
	sub	esp, 204				; 000000ccH
	push	ebx
	push	esi
	push	edi
	push	ecx
	lea	edi, DWORD PTR [ebp-204]
	mov	ecx, 51					; 00000033H
	mov	eax, -858993460				; ccccccccH
	rep stosd
	pop	ecx
	mov	DWORD PTR _this$[ebp], ecx
	mov	eax, DWORD PTR _this$[ebp]
	mov	eax, DWORD PTR [eax+364]
	pop	edi
	pop	esi
	pop	ebx
	mov	esp, ebp
	pop	ebp
	ret	0
?getBankCount@SystemConfiguration@DRAMsimII@@QBEIXZ ENDP ; DRAMsimII::SystemConfiguration::getBankCount
_TEXT	ENDS
PUBLIC	??1?$Queue@VCommand@DRAMsimII@@@DRAMsimII@@QAE@XZ ; DRAMsimII::Queue<DRAMsimII::Command>::~Queue<DRAMsimII::Command>
; Function compile flags: /Odtp /RTCcsu /ZI
;	COMDAT ??1Bank@DRAMsimII@@QAE@XZ
_TEXT	SEGMENT
_this$ = -8						; size = 4
??1Bank@DRAMsimII@@QAE@XZ PROC				; DRAMsimII::Bank::~Bank, COMDAT
; _this$ = ecx
	push	ebp
	mov	ebp, esp
	sub	esp, 204				; 000000ccH
	push	ebx
	push	esi
	push	edi
	push	ecx
	lea	edi, DWORD PTR [ebp-204]
	mov	ecx, 51					; 00000033H
	mov	eax, -858993460				; ccccccccH
	rep stosd
	pop	ecx
	mov	DWORD PTR _this$[ebp], ecx
	mov	ecx, DWORD PTR _this$[ebp]
	add	ecx, 8
	call	??1?$Queue@VCommand@DRAMsimII@@@DRAMsimII@@QAE@XZ ; DRAMsimII::Queue<DRAMsimII::Command>::~Queue<DRAMsimII::Command>
	pop	edi
	pop	esi
	pop	ebx
	add	esp, 204				; 000000ccH
	cmp	ebp, esp
	call	__RTC_CheckEsp
	mov	esp, ebp
	pop	ebp
	ret	0
??1Bank@DRAMsimII@@QAE@XZ ENDP				; DRAMsimII::Bank::~Bank
_TEXT	ENDS
PUBLIC	??0?$vector@VBank@DRAMsimII@@V?$allocator@VBank@DRAMsimII@@@std@@@std@@QAE@ABV01@@Z ; std::vector<DRAMsimII::Bank,std::allocator<DRAMsimII::Bank> >::vector<DRAMsimII::Bank,std::allocator<DRAMsimII::Bank> >
PUBLIC	??0?$circular_buffer@_JV?$allocator@_J@std@@@boost@@QAE@ABV01@@Z ; boost::circular_buffer<__int64,std::allocator<__int64> >::circular_buffer<__int64,std::allocator<__int64> >
PUBLIC	??0LRU@@QAE@ABV0@@Z				; LRU::LRU
PUBLIC	??0Rank@DRAMsimII@@QAE@ABV01@@Z			; DRAMsimII::Rank::Rank
;	COMDAT xdata$x
; File c:\users\crius\documents\visual studio 2008\projects\dramsimiihg\src\rank.cpp
xdata$x	SEGMENT
__unwindtable$??0Rank@DRAMsimII@@QAE@ABV01@@Z DD 0ffffffffH
	DD	FLAT:__unwindfunclet$??0Rank@DRAMsimII@@QAE@ABV01@@Z$0
	DD	00H
	DD	FLAT:__unwindfunclet$??0Rank@DRAMsimII@@QAE@ABV01@@Z$1
__ehfuncinfo$??0Rank@DRAMsimII@@QAE@ABV01@@Z DD 019930522H
	DD	02H
	DD	FLAT:__unwindtable$??0Rank@DRAMsimII@@QAE@ABV01@@Z
	DD	2 DUP(00H)
	DD	2 DUP(00H)
	DD	00H
	DD	01H
; Function compile flags: /Odtp /RTCcsu /ZI
xdata$x	ENDS
;	COMDAT ??0Rank@DRAMsimII@@QAE@ABV01@@Z
_TEXT	SEGMENT
_this$ = -20						; size = 4
__$EHRec$ = -12						; size = 12
_rhs$ = 8						; size = 4
??0Rank@DRAMsimII@@QAE@ABV01@@Z PROC			; DRAMsimII::Rank::Rank, COMDAT
; _this$ = ecx

; 83   : {}

	push	ebp
	mov	ebp, esp
	push	-1
	push	__ehhandler$??0Rank@DRAMsimII@@QAE@ABV01@@Z
	mov	eax, DWORD PTR fs:0
	push	eax
	sub	esp, 204				; 000000ccH
	push	ebx
	push	esi
	push	edi
	push	ecx
	lea	edi, DWORD PTR [ebp-216]
	mov	ecx, 51					; 00000033H
	mov	eax, -858993460				; ccccccccH
	rep stosd
	pop	ecx
	mov	eax, DWORD PTR ___security_cookie
	xor	eax, ebp
	push	eax
	lea	eax, DWORD PTR __$EHRec$[ebp]
	mov	DWORD PTR fs:0, eax
	mov	DWORD PTR _this$[ebp], ecx
	mov	eax, DWORD PTR _this$[ebp]
	mov	ecx, DWORD PTR _rhs$[ebp]
	mov	edx, DWORD PTR [ecx]
	mov	DWORD PTR [eax], edx
	mov	eax, DWORD PTR _this$[ebp]
	mov	ecx, DWORD PTR _rhs$[ebp]
	mov	edx, DWORD PTR [ecx+8]
	mov	DWORD PTR [eax+8], edx
	mov	ecx, DWORD PTR [ecx+12]
	mov	DWORD PTR [eax+12], ecx
	mov	eax, DWORD PTR _this$[ebp]
	mov	ecx, DWORD PTR _rhs$[ebp]
	mov	edx, DWORD PTR [ecx+16]
	mov	DWORD PTR [eax+16], edx
	mov	ecx, DWORD PTR [ecx+20]
	mov	DWORD PTR [eax+20], ecx
	mov	eax, DWORD PTR _this$[ebp]
	mov	ecx, DWORD PTR _rhs$[ebp]
	mov	edx, DWORD PTR [ecx+24]
	mov	DWORD PTR [eax+24], edx
	mov	ecx, DWORD PTR [ecx+28]
	mov	DWORD PTR [eax+28], ecx
	mov	eax, DWORD PTR _this$[ebp]
	mov	ecx, DWORD PTR _rhs$[ebp]
	mov	edx, DWORD PTR [ecx+32]
	mov	DWORD PTR [eax+32], edx
	mov	ecx, DWORD PTR [ecx+36]
	mov	DWORD PTR [eax+36], ecx
	mov	eax, DWORD PTR _this$[ebp]
	mov	ecx, DWORD PTR _rhs$[ebp]
	mov	edx, DWORD PTR [ecx+40]
	mov	DWORD PTR [eax+40], edx
	mov	ecx, DWORD PTR [ecx+44]
	mov	DWORD PTR [eax+44], ecx
	mov	eax, DWORD PTR _this$[ebp]
	mov	ecx, DWORD PTR _rhs$[ebp]
	mov	edx, DWORD PTR [ecx+48]
	mov	DWORD PTR [eax+48], edx
	mov	ecx, DWORD PTR [ecx+52]
	mov	DWORD PTR [eax+52], ecx
	mov	eax, DWORD PTR _this$[ebp]
	mov	ecx, DWORD PTR _rhs$[ebp]
	mov	edx, DWORD PTR [ecx+56]
	mov	DWORD PTR [eax+56], edx
	mov	ecx, DWORD PTR [ecx+60]
	mov	DWORD PTR [eax+60], ecx
	mov	eax, DWORD PTR _this$[ebp]
	mov	ecx, DWORD PTR _rhs$[ebp]
	mov	edx, DWORD PTR [ecx+64]
	mov	DWORD PTR [eax+64], edx
	mov	ecx, DWORD PTR [ecx+68]
	mov	DWORD PTR [eax+68], ecx
	mov	eax, DWORD PTR _this$[ebp]
	mov	ecx, DWORD PTR _rhs$[ebp]
	mov	edx, DWORD PTR [ecx+72]
	mov	DWORD PTR [eax+72], edx
	mov	ecx, DWORD PTR [ecx+76]
	mov	DWORD PTR [eax+76], ecx
	mov	eax, DWORD PTR _this$[ebp]
	mov	ecx, DWORD PTR _rhs$[ebp]
	mov	edx, DWORD PTR [ecx+80]
	mov	DWORD PTR [eax+80], edx
	mov	ecx, DWORD PTR [ecx+84]
	mov	DWORD PTR [eax+84], ecx
	mov	eax, DWORD PTR _this$[ebp]
	mov	ecx, DWORD PTR _rhs$[ebp]
	mov	edx, DWORD PTR [ecx+88]
	mov	DWORD PTR [eax+88], edx
	mov	ecx, DWORD PTR [ecx+92]
	mov	DWORD PTR [eax+92], ecx
	mov	eax, DWORD PTR _this$[ebp]
	mov	ecx, DWORD PTR _rhs$[ebp]
	mov	edx, DWORD PTR [ecx+96]
	mov	DWORD PTR [eax+96], edx
	mov	ecx, DWORD PTR [ecx+100]
	mov	DWORD PTR [eax+100], ecx
	mov	eax, DWORD PTR _this$[ebp]
	mov	DWORD PTR [eax+104], 0
	mov	DWORD PTR [eax+108], 0
	mov	eax, DWORD PTR _this$[ebp]
	mov	ecx, DWORD PTR _rhs$[ebp]
	mov	edx, DWORD PTR [ecx+112]
	mov	DWORD PTR [eax+112], edx
	mov	eax, DWORD PTR _this$[ebp]
	mov	ecx, DWORD PTR _rhs$[ebp]
	mov	edx, DWORD PTR [ecx+116]
	mov	DWORD PTR [eax+116], edx
	mov	eax, DWORD PTR _this$[ebp]
	mov	ecx, DWORD PTR _rhs$[ebp]
	mov	edx, DWORD PTR [ecx+120]
	mov	DWORD PTR [eax+120], edx
	mov	eax, DWORD PTR _this$[ebp]
	mov	ecx, DWORD PTR _rhs$[ebp]
	mov	edx, DWORD PTR [ecx+124]
	mov	DWORD PTR [eax+124], edx
	mov	eax, DWORD PTR _this$[ebp]
	mov	ecx, DWORD PTR _rhs$[ebp]
	mov	edx, DWORD PTR [ecx+128]
	mov	DWORD PTR [eax+128], edx
	mov	eax, DWORD PTR _this$[ebp]
	mov	ecx, DWORD PTR _rhs$[ebp]
	mov	edx, DWORD PTR [ecx+132]
	mov	DWORD PTR [eax+132], edx
	mov	eax, DWORD PTR _this$[ebp]
	mov	ecx, DWORD PTR _rhs$[ebp]
	mov	edx, DWORD PTR [ecx+136]
	mov	DWORD PTR [eax+136], edx
	mov	eax, DWORD PTR _this$[ebp]
	mov	ecx, DWORD PTR _rhs$[ebp]
	mov	edx, DWORD PTR [ecx+140]
	mov	DWORD PTR [eax+140], edx
	mov	eax, DWORD PTR _this$[ebp]
	mov	ecx, DWORD PTR _rhs$[ebp]
	mov	edx, DWORD PTR [ecx+144]
	mov	DWORD PTR [eax+144], edx
	mov	eax, DWORD PTR _rhs$[ebp]
	add	eax, 152				; 00000098H
	push	eax
	mov	ecx, DWORD PTR _this$[ebp]
	add	ecx, 152				; 00000098H
	call	??0LRU@@QAE@ABV0@@Z
	mov	DWORD PTR __$EHRec$[ebp+8], 0
	mov	eax, DWORD PTR _rhs$[ebp]
	add	eax, 312				; 00000138H
	push	eax
	mov	ecx, DWORD PTR _this$[ebp]
	add	ecx, 312				; 00000138H
	call	??0?$circular_buffer@_JV?$allocator@_J@std@@@boost@@QAE@ABV01@@Z ; boost::circular_buffer<__int64,std::allocator<__int64> >::circular_buffer<__int64,std::allocator<__int64> >
	mov	BYTE PTR __$EHRec$[ebp+8], 1
	mov	eax, DWORD PTR _rhs$[ebp]
	add	eax, 340				; 00000154H
	push	eax
	mov	ecx, DWORD PTR _this$[ebp]
	add	ecx, 340				; 00000154H
	call	??0?$vector@VBank@DRAMsimII@@V?$allocator@VBank@DRAMsimII@@@std@@@std@@QAE@ABV01@@Z ; std::vector<DRAMsimII::Bank,std::allocator<DRAMsimII::Bank> >::vector<DRAMsimII::Bank,std::allocator<DRAMsimII::Bank> >
	mov	DWORD PTR __$EHRec$[ebp+8], -1
	mov	eax, DWORD PTR _this$[ebp]
	mov	ecx, DWORD PTR __$EHRec$[ebp]
	mov	DWORD PTR fs:0, ecx
	pop	ecx
	pop	edi
	pop	esi
	pop	ebx
	add	esp, 216				; 000000d8H
	cmp	ebp, esp
	call	__RTC_CheckEsp
	mov	esp, ebp
	pop	ebp
	ret	4
_TEXT	ENDS
;	COMDAT text$x
text$x	SEGMENT
__unwindfunclet$??0Rank@DRAMsimII@@QAE@ABV01@@Z$0:
	mov	ecx, DWORD PTR _this$[ebp]
	add	ecx, 152				; 00000098H
	jmp	??1LRU@@UAE@XZ				; LRU::~LRU
__unwindfunclet$??0Rank@DRAMsimII@@QAE@ABV01@@Z$1:
	mov	ecx, DWORD PTR _this$[ebp]
	add	ecx, 312				; 00000138H
	jmp	??1?$circular_buffer@_JV?$allocator@_J@std@@@boost@@QAE@XZ ; boost::circular_buffer<__int64,std::allocator<__int64> >::~circular_buffer<__int64,std::allocator<__int64> >
__ehhandler$??0Rank@DRAMsimII@@QAE@ABV01@@Z:
	mov	edx, DWORD PTR [esp+8]
	lea	eax, DWORD PTR [edx+12]
	mov	ecx, DWORD PTR [edx-220]
	xor	ecx, eax
	call	@__security_check_cookie@4
	mov	eax, OFFSET __ehfuncinfo$??0Rank@DRAMsimII@@QAE@ABV01@@Z
	jmp	___CxxFrameHandler3
text$x	ENDS
??0Rank@DRAMsimII@@QAE@ABV01@@Z ENDP			; DRAMsimII::Rank::Rank
PUBLIC	??_7LRU@@6B@					; LRU::`vftable'
PUBLIC	??0BaseTags@@QAE@ABV0@@Z			; BaseTags::BaseTags
PUBLIC	??_R4LRU@@6B@					; LRU::`RTTI Complete Object Locator'
PUBLIC	??_R0?AVLRU@@@8					; LRU `RTTI Type Descriptor'
PUBLIC	??_R3LRU@@8					; LRU::`RTTI Class Hierarchy Descriptor'
PUBLIC	??_R2LRU@@8					; LRU::`RTTI Base Class Array'
PUBLIC	??_R1A@?0A@EA@LRU@@8				; LRU::`RTTI Base Class Descriptor at (0,-1,0,64)'
PUBLIC	??_R1A@?0A@EA@BaseTags@@8			; BaseTags::`RTTI Base Class Descriptor at (0,-1,0,64)'
PUBLIC	??_R0?AVBaseTags@@@8				; BaseTags `RTTI Type Descriptor'
PUBLIC	??_R3BaseTags@@8				; BaseTags::`RTTI Class Hierarchy Descriptor'
PUBLIC	??_R2BaseTags@@8				; BaseTags::`RTTI Base Class Array'
EXTRN	??_7type_info@@6B@:QWORD			; type_info::`vftable'
EXTRN	??_ELRU@@UAEPAXI@Z:PROC				; LRU::`vector deleting destructor'
EXTRN	?cleanupRefs@LRU@@UAEXXZ:PROC			; LRU::cleanupRefs
;	COMDAT ??_R2BaseTags@@8
rdata$r	SEGMENT
??_R2BaseTags@@8 DD FLAT:??_R1A@?0A@EA@BaseTags@@8	; BaseTags::`RTTI Base Class Array'
rdata$r	ENDS
;	COMDAT ??_R3BaseTags@@8
rdata$r	SEGMENT
??_R3BaseTags@@8 DD 00H					; BaseTags::`RTTI Class Hierarchy Descriptor'
	DD	00H
	DD	01H
	DD	FLAT:??_R2BaseTags@@8
rdata$r	ENDS
;	COMDAT ??_R0?AVBaseTags@@@8
_DATA	SEGMENT
??_R0?AVBaseTags@@@8 DD FLAT:??_7type_info@@6B@		; BaseTags `RTTI Type Descriptor'
	DD	00H
	DB	'.?AVBaseTags@@', 00H
_DATA	ENDS
;	COMDAT ??_R1A@?0A@EA@BaseTags@@8
rdata$r	SEGMENT
??_R1A@?0A@EA@BaseTags@@8 DD FLAT:??_R0?AVBaseTags@@@8	; BaseTags::`RTTI Base Class Descriptor at (0,-1,0,64)'
	DD	00H
	DD	00H
	DD	0ffffffffH
	DD	00H
	DD	040H
	DD	FLAT:??_R3BaseTags@@8
rdata$r	ENDS
;	COMDAT ??_R1A@?0A@EA@LRU@@8
rdata$r	SEGMENT
??_R1A@?0A@EA@LRU@@8 DD FLAT:??_R0?AVLRU@@@8		; LRU::`RTTI Base Class Descriptor at (0,-1,0,64)'
	DD	01H
	DD	00H
	DD	0ffffffffH
	DD	00H
	DD	040H
	DD	FLAT:??_R3LRU@@8
rdata$r	ENDS
;	COMDAT ??_R2LRU@@8
rdata$r	SEGMENT
??_R2LRU@@8 DD	FLAT:??_R1A@?0A@EA@LRU@@8		; LRU::`RTTI Base Class Array'
	DD	FLAT:??_R1A@?0A@EA@BaseTags@@8
rdata$r	ENDS
;	COMDAT ??_R3LRU@@8
rdata$r	SEGMENT
??_R3LRU@@8 DD	00H					; LRU::`RTTI Class Hierarchy Descriptor'
	DD	00H
	DD	02H
	DD	FLAT:??_R2LRU@@8
rdata$r	ENDS
;	COMDAT ??_R0?AVLRU@@@8
_DATA	SEGMENT
??_R0?AVLRU@@@8 DD FLAT:??_7type_info@@6B@		; LRU `RTTI Type Descriptor'
	DD	00H
	DB	'.?AVLRU@@', 00H
_DATA	ENDS
;	COMDAT ??_R4LRU@@6B@
rdata$r	SEGMENT
??_R4LRU@@6B@ DD 00H					; LRU::`RTTI Complete Object Locator'
	DD	00H
	DD	00H
	DD	FLAT:??_R0?AVLRU@@@8
	DD	FLAT:??_R3LRU@@8
rdata$r	ENDS
;	COMDAT ??_7LRU@@6B@
CONST	SEGMENT
??_7LRU@@6B@ DD	FLAT:??_R4LRU@@6B@			; LRU::`vftable'
	DD	FLAT:??_ELRU@@UAEPAXI@Z
	DD	FLAT:?cleanupRefs@LRU@@UAEXXZ
; Function compile flags: /Odtp /RTCcsu /ZI
CONST	ENDS
;	COMDAT ??0LRU@@QAE@ABV0@@Z
_TEXT	SEGMENT
_this$ = -8						; size = 4
___that$ = 8						; size = 4
??0LRU@@QAE@ABV0@@Z PROC				; LRU::LRU, COMDAT
; _this$ = ecx
	push	ebp
	mov	ebp, esp
	sub	esp, 204				; 000000ccH
	push	ebx
	push	esi
	push	edi
	push	ecx
	lea	edi, DWORD PTR [ebp-204]
	mov	ecx, 51					; 00000033H
	mov	eax, -858993460				; ccccccccH
	rep stosd
	pop	ecx
	mov	DWORD PTR _this$[ebp], ecx
	mov	eax, DWORD PTR ___that$[ebp]
	push	eax
	mov	ecx, DWORD PTR _this$[ebp]
	call	??0BaseTags@@QAE@ABV0@@Z
	mov	eax, DWORD PTR _this$[ebp]
	mov	DWORD PTR [eax], OFFSET ??_7LRU@@6B@
	mov	eax, DWORD PTR _this$[ebp]
	mov	ecx, DWORD PTR ___that$[ebp]
	mov	edx, DWORD PTR [ecx+112]
	mov	DWORD PTR [eax+112], edx
	mov	eax, DWORD PTR _this$[ebp]
	mov	ecx, DWORD PTR ___that$[ebp]
	mov	edx, DWORD PTR [ecx+116]
	mov	DWORD PTR [eax+116], edx
	mov	eax, DWORD PTR _this$[ebp]
	mov	ecx, DWORD PTR ___that$[ebp]
	mov	edx, DWORD PTR [ecx+120]
	mov	DWORD PTR [eax+120], edx
	mov	eax, DWORD PTR _this$[ebp]
	mov	ecx, DWORD PTR ___that$[ebp]
	mov	edx, DWORD PTR [ecx+124]
	mov	DWORD PTR [eax+124], edx
	mov	eax, DWORD PTR _this$[ebp]
	mov	ecx, DWORD PTR ___that$[ebp]
	mov	edx, DWORD PTR [ecx+128]
	mov	DWORD PTR [eax+128], edx
	mov	eax, DWORD PTR _this$[ebp]
	mov	ecx, DWORD PTR ___that$[ebp]
	mov	edx, DWORD PTR [ecx+132]
	mov	DWORD PTR [eax+132], edx
	mov	eax, DWORD PTR _this$[ebp]
	mov	ecx, DWORD PTR ___that$[ebp]
	mov	edx, DWORD PTR [ecx+136]
	mov	DWORD PTR [eax+136], edx
	mov	eax, DWORD PTR _this$[ebp]
	mov	ecx, DWORD PTR ___that$[ebp]
	mov	edx, DWORD PTR [ecx+140]
	mov	DWORD PTR [eax+140], edx
	mov	eax, DWORD PTR _this$[ebp]
	mov	ecx, DWORD PTR ___that$[ebp]
	mov	edx, DWORD PTR [ecx+144]
	mov	DWORD PTR [eax+144], edx
	mov	eax, DWORD PTR _this$[ebp]
	mov	ecx, DWORD PTR ___that$[ebp]
	mov	edx, DWORD PTR [ecx+148]
	mov	DWORD PTR [eax+148], edx
	mov	eax, DWORD PTR _this$[ebp]
	mov	ecx, DWORD PTR ___that$[ebp]
	mov	edx, DWORD PTR [ecx+152]
	mov	DWORD PTR [eax+152], edx
	mov	eax, DWORD PTR _this$[ebp]
	pop	edi
	pop	esi
	pop	ebx
	add	esp, 204				; 000000ccH
	cmp	ebp, esp
	call	__RTC_CheckEsp
	mov	esp, ebp
	pop	ebp
	ret	4
??0LRU@@QAE@ABV0@@Z ENDP				; LRU::LRU
_TEXT	ENDS
EXTRN	??3@YAXPAX@Z:PROC				; operator delete
; Function compile flags: /Odtp /RTCcsu /ZI
;	COMDAT ??_GLRU@@UAEPAXI@Z
_TEXT	SEGMENT
_this$ = -8						; size = 4
___flags$ = 8						; size = 4
??_GLRU@@UAEPAXI@Z PROC					; LRU::`scalar deleting destructor', COMDAT
; _this$ = ecx
	push	ebp
	mov	ebp, esp
	sub	esp, 204				; 000000ccH
	push	ebx
	push	esi
	push	edi
	push	ecx
	lea	edi, DWORD PTR [ebp-204]
	mov	ecx, 51					; 00000033H
	mov	eax, -858993460				; ccccccccH
	rep stosd
	pop	ecx
	mov	DWORD PTR _this$[ebp], ecx
	mov	ecx, DWORD PTR _this$[ebp]
	call	??1LRU@@UAE@XZ				; LRU::~LRU
	mov	eax, DWORD PTR ___flags$[ebp]
	and	eax, 1
	je	SHORT $LN1@scalar
	mov	eax, DWORD PTR _this$[ebp]
	push	eax
	call	??3@YAXPAX@Z				; operator delete
	add	esp, 4
$LN1@scalar:
	mov	eax, DWORD PTR _this$[ebp]
	pop	edi
	pop	esi
	pop	ebx
	add	esp, 204				; 000000ccH
	cmp	ebp, esp
	call	__RTC_CheckEsp
	mov	esp, ebp
	pop	ebp
	ret	4
??_GLRU@@UAEPAXI@Z ENDP					; LRU::`scalar deleting destructor'
_TEXT	ENDS
PUBLIC	??0?$map@HHU?$less@H@std@@V?$allocator@U?$pair@$$CBHH@std@@@2@@std@@QAE@ABV01@@Z ; std::map<int,int,std::less<int>,std::allocator<std::pair<int const ,int> > >::map<int,int,std::less<int>,std::allocator<std::pair<int const ,int> > >
PUBLIC	??_7BaseTags@@6B@				; BaseTags::`vftable'
PUBLIC	??_R4BaseTags@@6B@				; BaseTags::`RTTI Complete Object Locator'
PUBLIC	?cleanupRefs@BaseTags@@UAEXXZ			; BaseTags::cleanupRefs
EXTRN	__imp_??1?$basic_string@DU?$char_traits@D@std@@V?$allocator@D@2@@std@@QAE@XZ:PROC
EXTRN	__imp_??0?$basic_string@DU?$char_traits@D@std@@V?$allocator@D@2@@std@@QAE@ABV01@@Z:PROC
EXTRN	??_EBaseTags@@UAEPAXI@Z:PROC			; BaseTags::`vector deleting destructor'
;	COMDAT ??_R4BaseTags@@6B@
rdata$r	SEGMENT
??_R4BaseTags@@6B@ DD 00H				; BaseTags::`RTTI Complete Object Locator'
	DD	00H
	DD	00H
	DD	FLAT:??_R0?AVBaseTags@@@8
	DD	FLAT:??_R3BaseTags@@8
rdata$r	ENDS
;	COMDAT ??_7BaseTags@@6B@
CONST	SEGMENT
??_7BaseTags@@6B@ DD FLAT:??_R4BaseTags@@6B@		; BaseTags::`vftable'
	DD	FLAT:??_EBaseTags@@UAEPAXI@Z
	DD	FLAT:?cleanupRefs@BaseTags@@UAEXXZ
CONST	ENDS
;	COMDAT xdata$x
xdata$x	SEGMENT
__unwindtable$??0BaseTags@@QAE@ABV0@@Z DD 0ffffffffH
	DD	FLAT:__unwindfunclet$??0BaseTags@@QAE@ABV0@@Z$0
__ehfuncinfo$??0BaseTags@@QAE@ABV0@@Z DD 019930522H
	DD	01H
	DD	FLAT:__unwindtable$??0BaseTags@@QAE@ABV0@@Z
	DD	2 DUP(00H)
	DD	2 DUP(00H)
	DD	00H
	DD	01H
; Function compile flags: /Odtp /RTCcsu /ZI
xdata$x	ENDS
;	COMDAT ??0BaseTags@@QAE@ABV0@@Z
_TEXT	SEGMENT
_this$ = -20						; size = 4
__$EHRec$ = -12						; size = 12
___that$ = 8						; size = 4
??0BaseTags@@QAE@ABV0@@Z PROC				; BaseTags::BaseTags, COMDAT
; _this$ = ecx
	push	ebp
	mov	ebp, esp
	push	-1
	push	__ehhandler$??0BaseTags@@QAE@ABV0@@Z
	mov	eax, DWORD PTR fs:0
	push	eax
	sub	esp, 204				; 000000ccH
	push	ebx
	push	esi
	push	edi
	push	ecx
	lea	edi, DWORD PTR [ebp-216]
	mov	ecx, 51					; 00000033H
	mov	eax, -858993460				; ccccccccH
	rep stosd
	pop	ecx
	mov	eax, DWORD PTR ___security_cookie
	xor	eax, ebp
	push	eax
	lea	eax, DWORD PTR __$EHRec$[ebp]
	mov	DWORD PTR fs:0, eax
	mov	DWORD PTR _this$[ebp], ecx
	mov	eax, DWORD PTR _this$[ebp]
	mov	DWORD PTR [eax], OFFSET ??_7BaseTags@@6B@
	mov	eax, DWORD PTR _this$[ebp]
	mov	ecx, DWORD PTR ___that$[ebp]
	mov	edx, DWORD PTR [ecx+8]
	mov	DWORD PTR [eax+8], edx
	mov	eax, DWORD PTR ___that$[ebp]
	add	eax, 12					; 0000000cH
	mov	esi, esp
	push	eax
	mov	ecx, DWORD PTR _this$[ebp]
	add	ecx, 12					; 0000000cH
	call	DWORD PTR __imp_??0?$basic_string@DU?$char_traits@D@std@@V?$allocator@D@2@@std@@QAE@ABV01@@Z
	cmp	esi, esp
	call	__RTC_CheckEsp
	mov	DWORD PTR __$EHRec$[ebp+8], 0
	mov	eax, DWORD PTR _this$[ebp]
	mov	ecx, DWORD PTR ___that$[ebp]
	mov	edx, DWORD PTR [ecx+44]
	mov	DWORD PTR [eax+44], edx
	mov	eax, DWORD PTR _this$[ebp]
	mov	ecx, DWORD PTR ___that$[ebp]
	mov	dl, BYTE PTR [ecx+48]
	mov	BYTE PTR [eax+48], dl
	mov	eax, DWORD PTR ___that$[ebp]
	add	eax, 52					; 00000034H
	push	eax
	mov	ecx, DWORD PTR _this$[ebp]
	add	ecx, 52					; 00000034H
	call	??0?$map@HHU?$less@H@std@@V?$allocator@U?$pair@$$CBHH@std@@@2@@std@@QAE@ABV01@@Z
	mov	eax, DWORD PTR _this$[ebp]
	mov	ecx, DWORD PTR ___that$[ebp]
	mov	edx, DWORD PTR [ecx+80]
	mov	DWORD PTR [eax+80], edx
	mov	ecx, DWORD PTR [ecx+84]
	mov	DWORD PTR [eax+84], ecx
	mov	eax, DWORD PTR _this$[ebp]
	mov	ecx, DWORD PTR ___that$[ebp]
	mov	edx, DWORD PTR [ecx+88]
	mov	DWORD PTR [eax+88], edx
	mov	ecx, DWORD PTR [ecx+92]
	mov	DWORD PTR [eax+92], ecx
	mov	eax, DWORD PTR _this$[ebp]
	mov	ecx, DWORD PTR ___that$[ebp]
	mov	edx, DWORD PTR [ecx+96]
	mov	DWORD PTR [eax+96], edx
	mov	ecx, DWORD PTR [ecx+100]
	mov	DWORD PTR [eax+100], ecx
	mov	eax, DWORD PTR _this$[ebp]
	mov	ecx, DWORD PTR ___that$[ebp]
	mov	edx, DWORD PTR [ecx+104]
	mov	DWORD PTR [eax+104], edx
	mov	ecx, DWORD PTR [ecx+108]
	mov	DWORD PTR [eax+108], ecx
	mov	DWORD PTR __$EHRec$[ebp+8], -1
	mov	eax, DWORD PTR _this$[ebp]
	mov	ecx, DWORD PTR __$EHRec$[ebp]
	mov	DWORD PTR fs:0, ecx
	pop	ecx
	pop	edi
	pop	esi
	pop	ebx
	add	esp, 216				; 000000d8H
	cmp	ebp, esp
	call	__RTC_CheckEsp
	mov	esp, ebp
	pop	ebp
	ret	4
_TEXT	ENDS
;	COMDAT text$x
text$x	SEGMENT
__unwindfunclet$??0BaseTags@@QAE@ABV0@@Z$0:
	mov	ecx, DWORD PTR _this$[ebp]
	add	ecx, 12					; 0000000cH
	mov	esi, esp
	call	DWORD PTR __imp_??1?$basic_string@DU?$char_traits@D@std@@V?$allocator@D@2@@std@@QAE@XZ
	cmp	esi, esp
	jmp	__RTC_CheckEsp
__ehhandler$??0BaseTags@@QAE@ABV0@@Z:
	mov	edx, DWORD PTR [esp+8]
	lea	eax, DWORD PTR [edx+12]
	mov	ecx, DWORD PTR [edx-220]
	xor	ecx, eax
	call	@__security_check_cookie@4
	mov	eax, OFFSET __ehfuncinfo$??0BaseTags@@QAE@ABV0@@Z
	jmp	___CxxFrameHandler3
text$x	ENDS
??0BaseTags@@QAE@ABV0@@Z ENDP				; BaseTags::BaseTags
; Function compile flags: /Odtp /RTCcsu /ZI
; File c:\users\crius\documents\visual studio 2008\projects\dramsimiihg\src\cache\base.hh
;	COMDAT ?cleanupRefs@BaseTags@@UAEXXZ
_TEXT	SEGMENT
_this$ = -8						; size = 4
?cleanupRefs@BaseTags@@UAEXXZ PROC			; BaseTags::cleanupRefs, COMDAT
; _this$ = ecx

; 143  : 	virtual void cleanupRefs() {}

	push	ebp
	mov	ebp, esp
	sub	esp, 204				; 000000ccH
	push	ebx
	push	esi
	push	edi
	push	ecx
	lea	edi, DWORD PTR [ebp-204]
	mov	ecx, 51					; 00000033H
	mov	eax, -858993460				; ccccccccH
	rep stosd
	pop	ecx
	mov	DWORD PTR _this$[ebp], ecx
	pop	edi
	pop	esi
	pop	ebx
	mov	esp, ebp
	pop	ebp
	ret	0
?cleanupRefs@BaseTags@@UAEXXZ ENDP			; BaseTags::cleanupRefs
_TEXT	ENDS
PUBLIC	??1BaseTags@@UAE@XZ				; BaseTags::~BaseTags
; Function compile flags: /Odtp /RTCcsu /ZI
;	COMDAT ??_GBaseTags@@UAEPAXI@Z
_TEXT	SEGMENT
_this$ = -8						; size = 4
___flags$ = 8						; size = 4
??_GBaseTags@@UAEPAXI@Z PROC				; BaseTags::`scalar deleting destructor', COMDAT
; _this$ = ecx
	push	ebp
	mov	ebp, esp
	sub	esp, 204				; 000000ccH
	push	ebx
	push	esi
	push	edi
	push	ecx
	lea	edi, DWORD PTR [ebp-204]
	mov	ecx, 51					; 00000033H
	mov	eax, -858993460				; ccccccccH
	rep stosd
	pop	ecx
	mov	DWORD PTR _this$[ebp], ecx
	mov	ecx, DWORD PTR _this$[ebp]
	call	??1BaseTags@@UAE@XZ			; BaseTags::~BaseTags
	mov	eax, DWORD PTR ___flags$[ebp]
	and	eax, 1
	je	SHORT $LN1@scalar@2
	mov	eax, DWORD PTR _this$[ebp]
	push	eax
	call	??3@YAXPAX@Z				; operator delete
	add	esp, 4
$LN1@scalar@2:
	mov	eax, DWORD PTR _this$[ebp]
	pop	edi
	pop	esi
	pop	ebx
	add	esp, 204				; 000000ccH
	cmp	ebp, esp
	call	__RTC_CheckEsp
	mov	esp, ebp
	pop	ebp
	ret	4
??_GBaseTags@@UAEPAXI@Z ENDP				; BaseTags::`scalar deleting destructor'
_TEXT	ENDS
PUBLIC	??1?$map@HHU?$less@H@std@@V?$allocator@U?$pair@$$CBHH@std@@@2@@std@@QAE@XZ ; std::map<int,int,std::less<int>,std::allocator<std::pair<int const ,int> > >::~map<int,int,std::less<int>,std::allocator<std::pair<int const ,int> > >
;	COMDAT xdata$x
xdata$x	SEGMENT
__unwindtable$??1BaseTags@@UAE@XZ DD 0ffffffffH
	DD	FLAT:__unwindfunclet$??1BaseTags@@UAE@XZ$0
__ehfuncinfo$??1BaseTags@@UAE@XZ DD 019930522H
	DD	01H
	DD	FLAT:__unwindtable$??1BaseTags@@UAE@XZ
	DD	2 DUP(00H)
	DD	2 DUP(00H)
	DD	00H
	DD	01H
; Function compile flags: /Odtp /RTCcsu /ZI
xdata$x	ENDS
;	COMDAT ??1BaseTags@@UAE@XZ
_TEXT	SEGMENT
_this$ = -20						; size = 4
__$EHRec$ = -12						; size = 12
??1BaseTags@@UAE@XZ PROC				; BaseTags::~BaseTags, COMDAT
; _this$ = ecx

; 115  : 	virtual ~BaseTags() {}

	push	ebp
	mov	ebp, esp
	push	-1
	push	__ehhandler$??1BaseTags@@UAE@XZ
	mov	eax, DWORD PTR fs:0
	push	eax
	sub	esp, 204				; 000000ccH
	push	ebx
	push	esi
	push	edi
	push	ecx
	lea	edi, DWORD PTR [ebp-216]
	mov	ecx, 51					; 00000033H
	mov	eax, -858993460				; ccccccccH
	rep stosd
	pop	ecx
	mov	eax, DWORD PTR ___security_cookie
	xor	eax, ebp
	push	eax
	lea	eax, DWORD PTR __$EHRec$[ebp]
	mov	DWORD PTR fs:0, eax
	mov	DWORD PTR _this$[ebp], ecx
	mov	eax, DWORD PTR _this$[ebp]
	mov	DWORD PTR [eax], OFFSET ??_7BaseTags@@6B@
	mov	DWORD PTR __$EHRec$[ebp+8], 0
	mov	ecx, DWORD PTR _this$[ebp]
	add	ecx, 52					; 00000034H
	call	??1?$map@HHU?$less@H@std@@V?$allocator@U?$pair@$$CBHH@std@@@2@@std@@QAE@XZ
	mov	DWORD PTR __$EHRec$[ebp+8], -1
	mov	ecx, DWORD PTR _this$[ebp]
	add	ecx, 12					; 0000000cH
	mov	esi, esp
	call	DWORD PTR __imp_??1?$basic_string@DU?$char_traits@D@std@@V?$allocator@D@2@@std@@QAE@XZ
	cmp	esi, esp
	call	__RTC_CheckEsp
	mov	ecx, DWORD PTR __$EHRec$[ebp]
	mov	DWORD PTR fs:0, ecx
	pop	ecx
	pop	edi
	pop	esi
	pop	ebx
	add	esp, 216				; 000000d8H
	cmp	ebp, esp
	call	__RTC_CheckEsp
	mov	esp, ebp
	pop	ebp
	ret	0
_TEXT	ENDS
;	COMDAT text$x
text$x	SEGMENT
__unwindfunclet$??1BaseTags@@UAE@XZ$0:
	mov	ecx, DWORD PTR _this$[ebp]
	add	ecx, 12					; 0000000cH
	mov	esi, esp
	call	DWORD PTR __imp_??1?$basic_string@DU?$char_traits@D@std@@V?$allocator@D@2@@std@@QAE@XZ
	cmp	esi, esp
	jmp	__RTC_CheckEsp
__ehhandler$??1BaseTags@@UAE@XZ:
	mov	edx, DWORD PTR [esp+8]
	lea	eax, DWORD PTR [edx+12]
	mov	ecx, DWORD PTR [edx-220]
	xor	ecx, eax
	call	@__security_check_cookie@4
	mov	eax, OFFSET __ehfuncinfo$??1BaseTags@@UAE@XZ
	jmp	___CxxFrameHandler3
text$x	ENDS
??1BaseTags@@UAE@XZ ENDP				; BaseTags::~BaseTags
PUBLIC	??1?$_Tree@V?$_Tmap_traits@HHU?$less@H@std@@V?$allocator@U?$pair@$$CBHH@std@@@2@$0A@@std@@@std@@QAE@XZ ; std::_Tree<std::_Tmap_traits<int,int,std::less<int>,std::allocator<std::pair<int const ,int> >,0> >::~_Tree<std::_Tmap_traits<int,int,std::less<int>,std::allocator<std::pair<int const ,int> >,0> >
; Function compile flags: /Odtp /RTCcsu /ZI
;	COMDAT ??1?$map@HHU?$less@H@std@@V?$allocator@U?$pair@$$CBHH@std@@@2@@std@@QAE@XZ
_TEXT	SEGMENT
_this$ = -8						; size = 4
??1?$map@HHU?$less@H@std@@V?$allocator@U?$pair@$$CBHH@std@@@2@@std@@QAE@XZ PROC ; std::map<int,int,std::less<int>,std::allocator<std::pair<int const ,int> > >::~map<int,int,std::less<int>,std::allocator<std::pair<int const ,int> > >, COMDAT
; _this$ = ecx
	push	ebp
	mov	ebp, esp
	sub	esp, 204				; 000000ccH
	push	ebx
	push	esi
	push	edi
	push	ecx
	lea	edi, DWORD PTR [ebp-204]
	mov	ecx, 51					; 00000033H
	mov	eax, -858993460				; ccccccccH
	rep stosd
	pop	ecx
	mov	DWORD PTR _this$[ebp], ecx
	mov	ecx, DWORD PTR _this$[ebp]
	call	??1?$_Tree@V?$_Tmap_traits@HHU?$less@H@std@@V?$allocator@U?$pair@$$CBHH@std@@@2@$0A@@std@@@std@@QAE@XZ ; std::_Tree<std::_Tmap_traits<int,int,std::less<int>,std::allocator<std::pair<int const ,int> >,0> >::~_Tree<std::_Tmap_traits<int,int,std::less<int>,std::allocator<std::pair<int const ,int> >,0> >
	pop	edi
	pop	esi
	pop	ebx
	add	esp, 204				; 000000ccH
	cmp	ebp, esp
	call	__RTC_CheckEsp
	mov	esp, ebp
	pop	ebp
	ret	0
??1?$map@HHU?$less@H@std@@V?$allocator@U?$pair@$$CBHH@std@@@2@@std@@QAE@XZ ENDP ; std::map<int,int,std::less<int>,std::allocator<std::pair<int const ,int> > >::~map<int,int,std::less<int>,std::allocator<std::pair<int const ,int> > >
_TEXT	ENDS
PUBLIC	??0?$_Tree@V?$_Tmap_traits@HHU?$less@H@std@@V?$allocator@U?$pair@$$CBHH@std@@@2@$0A@@std@@@std@@QAE@ABV01@@Z ; std::_Tree<std::_Tmap_traits<int,int,std::less<int>,std::allocator<std::pair<int const ,int> >,0> >::_Tree<std::_Tmap_traits<int,int,std::less<int>,std::allocator<std::pair<int const ,int> >,0> >
; Function compile flags: /Odtp /RTCcsu /ZI
;	COMDAT ??0?$map@HHU?$less@H@std@@V?$allocator@U?$pair@$$CBHH@std@@@2@@std@@QAE@ABV01@@Z
_TEXT	SEGMENT
_this$ = -8						; size = 4
___that$ = 8						; size = 4
??0?$map@HHU?$less@H@std@@V?$allocator@U?$pair@$$CBHH@std@@@2@@std@@QAE@ABV01@@Z PROC ; std::map<int,int,std::less<int>,std::allocator<std::pair<int const ,int> > >::map<int,int,std::less<int>,std::allocator<std::pair<int const ,int> > >, COMDAT
; _this$ = ecx
	push	ebp
	mov	ebp, esp
	sub	esp, 204				; 000000ccH
	push	ebx
	push	esi
	push	edi
	push	ecx
	lea	edi, DWORD PTR [ebp-204]
	mov	ecx, 51					; 00000033H
	mov	eax, -858993460				; ccccccccH
	rep stosd
	pop	ecx
	mov	DWORD PTR _this$[ebp], ecx
	mov	eax, DWORD PTR ___that$[ebp]
	push	eax
	mov	ecx, DWORD PTR _this$[ebp]
	call	??0?$_Tree@V?$_Tmap_traits@HHU?$less@H@std@@V?$allocator@U?$pair@$$CBHH@std@@@2@$0A@@std@@@std@@QAE@ABV01@@Z ; std::_Tree<std::_Tmap_traits<int,int,std::less<int>,std::allocator<std::pair<int const ,int> >,0> >::_Tree<std::_Tmap_traits<int,int,std::less<int>,std::allocator<std::pair<int const ,int> >,0> >
	mov	eax, DWORD PTR _this$[ebp]
	pop	edi
	pop	esi
	pop	ebx
	add	esp, 204				; 000000ccH
	cmp	ebp, esp
	call	__RTC_CheckEsp
	mov	esp, ebp
	pop	ebp
	ret	4
??0?$map@HHU?$less@H@std@@V?$allocator@U?$pair@$$CBHH@std@@@2@@std@@QAE@ABV01@@Z ENDP ; std::map<int,int,std::less<int>,std::allocator<std::pair<int const ,int> > >::map<int,int,std::less<int>,std::allocator<std::pair<int const ,int> > >
_TEXT	ENDS
PUBLIC	??4?$vector@VBank@DRAMsimII@@V?$allocator@VBank@DRAMsimII@@@std@@@std@@QAEAAV01@ABV01@@Z ; std::vector<DRAMsimII::Bank,std::allocator<DRAMsimII::Bank> >::operator=
PUBLIC	??A?$vector@VBank@DRAMsimII@@V?$allocator@VBank@DRAMsimII@@@std@@@std@@QBEABVBank@DRAMsimII@@I@Z ; std::vector<DRAMsimII::Bank,std::allocator<DRAMsimII::Bank> >::operator[]
PUBLIC	??0Rank@DRAMsimII@@QAE@ABV01@ABVTimingSpecification@1@ABVSystemConfiguration@1@@Z ; DRAMsimII::Rank::Rank
EXTRN	??0Bank@DRAMsimII@@QAE@ABV01@ABVTimingSpecification@1@ABVSystemConfiguration@1@@Z:PROC ; DRAMsimII::Bank::Bank
;	COMDAT xdata$x
; File c:\users\crius\documents\visual studio 2008\projects\dramsimiihg\src\rank.cpp
xdata$x	SEGMENT
__ehfuncinfo$??0Rank@DRAMsimII@@QAE@ABV01@ABVTimingSpecification@1@ABVSystemConfiguration@1@@Z DD 019930522H
	DD	05H
	DD	FLAT:__unwindtable$??0Rank@DRAMsimII@@QAE@ABV01@ABVTimingSpecification@1@ABVSystemConfiguration@1@@Z
	DD	2 DUP(00H)
	DD	2 DUP(00H)
	DD	00H
	DD	01H
__unwindtable$??0Rank@DRAMsimII@@QAE@ABV01@ABVTimingSpecification@1@ABVSystemConfiguration@1@@Z DD 0ffffffffH
	DD	FLAT:__unwindfunclet$??0Rank@DRAMsimII@@QAE@ABV01@ABVTimingSpecification@1@ABVSystemConfiguration@1@@Z$0
	DD	00H
	DD	FLAT:__unwindfunclet$??0Rank@DRAMsimII@@QAE@ABV01@ABVTimingSpecification@1@ABVSystemConfiguration@1@@Z$1
	DD	01H
	DD	FLAT:__unwindfunclet$??0Rank@DRAMsimII@@QAE@ABV01@ABVTimingSpecification@1@ABVSystemConfiguration@1@@Z$2
	DD	02H
	DD	FLAT:__unwindfunclet$??0Rank@DRAMsimII@@QAE@ABV01@ABVTimingSpecification@1@ABVSystemConfiguration@1@@Z$3
	DD	01H
	DD	FLAT:__unwindfunclet$??0Rank@DRAMsimII@@QAE@ABV01@ABVTimingSpecification@1@ABVSystemConfiguration@1@@Z$3
; Function compile flags: /Odtp /RTCcsu /ZI
xdata$x	ENDS
;	COMDAT ??0Rank@DRAMsimII@@QAE@ABV01@ABVTimingSpecification@1@ABVSystemConfiguration@1@@Z
_TEXT	SEGMENT
tv182 = -384						; size = 4
tv185 = -380						; size = 4
$T167845 = -372						; size = 152
_this$ = -20						; size = 4
__$EHRec$ = -12						; size = 12
_rhs$ = 8						; size = 4
_timing$ = 12						; size = 4
_systemConfig$ = 16					; size = 4
??0Rank@DRAMsimII@@QAE@ABV01@ABVTimingSpecification@1@ABVSystemConfiguration@1@@Z PROC ; DRAMsimII::Rank::Rank, COMDAT
; _this$ = ecx

; 112  : {

	push	ebp
	mov	ebp, esp
	push	-1
	push	__ehhandler$??0Rank@DRAMsimII@@QAE@ABV01@ABVTimingSpecification@1@ABVSystemConfiguration@1@@Z
	mov	eax, DWORD PTR fs:0
	push	eax
	sub	esp, 372				; 00000174H
	push	ebx
	push	esi
	push	edi
	push	ecx
	lea	edi, DWORD PTR [ebp-384]
	mov	ecx, 93					; 0000005dH
	mov	eax, -858993460				; ccccccccH
	rep stosd
	pop	ecx
	mov	eax, DWORD PTR ___security_cookie
	xor	eax, ebp
	push	eax
	lea	eax, DWORD PTR __$EHRec$[ebp]
	mov	DWORD PTR fs:0, eax
	mov	DWORD PTR _this$[ebp], ecx
	mov	eax, DWORD PTR _this$[ebp]
	mov	ecx, DWORD PTR _timing$[ebp]
	mov	DWORD PTR [eax], ecx
	mov	eax, DWORD PTR _this$[ebp]
	mov	ecx, DWORD PTR _rhs$[ebp]
	mov	edx, DWORD PTR [ecx+8]
	mov	DWORD PTR [eax+8], edx
	mov	ecx, DWORD PTR [ecx+12]
	mov	DWORD PTR [eax+12], ecx
	mov	eax, DWORD PTR _this$[ebp]
	mov	ecx, DWORD PTR _rhs$[ebp]
	mov	edx, DWORD PTR [ecx+16]
	mov	DWORD PTR [eax+16], edx
	mov	ecx, DWORD PTR [ecx+20]
	mov	DWORD PTR [eax+20], ecx
	mov	eax, DWORD PTR _this$[ebp]
	mov	ecx, DWORD PTR _rhs$[ebp]
	mov	edx, DWORD PTR [ecx+24]
	mov	DWORD PTR [eax+24], edx
	mov	ecx, DWORD PTR [ecx+28]
	mov	DWORD PTR [eax+28], ecx
	mov	eax, DWORD PTR _this$[ebp]
	mov	ecx, DWORD PTR _rhs$[ebp]
	mov	edx, DWORD PTR [ecx+32]
	mov	DWORD PTR [eax+32], edx
	mov	ecx, DWORD PTR [ecx+36]
	mov	DWORD PTR [eax+36], ecx
	mov	eax, DWORD PTR _this$[ebp]
	mov	ecx, DWORD PTR _rhs$[ebp]
	mov	edx, DWORD PTR [ecx+40]
	mov	DWORD PTR [eax+40], edx
	mov	ecx, DWORD PTR [ecx+44]
	mov	DWORD PTR [eax+44], ecx
	mov	eax, DWORD PTR _this$[ebp]
	mov	ecx, DWORD PTR _rhs$[ebp]
	mov	edx, DWORD PTR [ecx+48]
	mov	DWORD PTR [eax+48], edx
	mov	ecx, DWORD PTR [ecx+52]
	mov	DWORD PTR [eax+52], ecx
	mov	eax, DWORD PTR _this$[ebp]
	mov	ecx, DWORD PTR _rhs$[ebp]
	mov	edx, DWORD PTR [ecx+56]
	mov	DWORD PTR [eax+56], edx
	mov	ecx, DWORD PTR [ecx+60]
	mov	DWORD PTR [eax+60], ecx
	mov	eax, DWORD PTR _this$[ebp]
	mov	ecx, DWORD PTR _rhs$[ebp]
	mov	edx, DWORD PTR [ecx+64]
	mov	DWORD PTR [eax+64], edx
	mov	ecx, DWORD PTR [ecx+68]
	mov	DWORD PTR [eax+68], ecx
	mov	eax, DWORD PTR _this$[ebp]
	mov	ecx, DWORD PTR _rhs$[ebp]
	mov	edx, DWORD PTR [ecx+72]
	mov	DWORD PTR [eax+72], edx
	mov	ecx, DWORD PTR [ecx+76]
	mov	DWORD PTR [eax+76], ecx
	mov	eax, DWORD PTR _this$[ebp]
	mov	ecx, DWORD PTR _rhs$[ebp]
	mov	edx, DWORD PTR [ecx+80]
	mov	DWORD PTR [eax+80], edx
	mov	ecx, DWORD PTR [ecx+84]
	mov	DWORD PTR [eax+84], ecx
	mov	eax, DWORD PTR _this$[ebp]
	mov	ecx, DWORD PTR _rhs$[ebp]
	mov	edx, DWORD PTR [ecx+88]
	mov	DWORD PTR [eax+88], edx
	mov	ecx, DWORD PTR [ecx+92]
	mov	DWORD PTR [eax+92], ecx
	mov	eax, DWORD PTR _this$[ebp]
	mov	ecx, DWORD PTR _rhs$[ebp]
	mov	edx, DWORD PTR [ecx+96]
	mov	DWORD PTR [eax+96], edx
	mov	ecx, DWORD PTR [ecx+100]
	mov	DWORD PTR [eax+100], ecx
	mov	eax, DWORD PTR _this$[ebp]
	mov	DWORD PTR [eax+104], 0
	mov	DWORD PTR [eax+108], 0
	mov	eax, DWORD PTR _this$[ebp]
	mov	ecx, DWORD PTR _rhs$[ebp]
	mov	edx, DWORD PTR [ecx+112]
	mov	DWORD PTR [eax+112], edx
	mov	eax, DWORD PTR _this$[ebp]
	mov	ecx, DWORD PTR _rhs$[ebp]
	mov	edx, DWORD PTR [ecx+116]
	mov	DWORD PTR [eax+116], edx
	mov	eax, DWORD PTR _this$[ebp]
	mov	ecx, DWORD PTR _rhs$[ebp]
	mov	edx, DWORD PTR [ecx+120]
	mov	DWORD PTR [eax+120], edx
	mov	eax, DWORD PTR _this$[ebp]
	mov	ecx, DWORD PTR _rhs$[ebp]
	mov	edx, DWORD PTR [ecx+124]
	mov	DWORD PTR [eax+124], edx
	mov	eax, DWORD PTR _this$[ebp]
	mov	ecx, DWORD PTR _rhs$[ebp]
	mov	edx, DWORD PTR [ecx+128]
	mov	DWORD PTR [eax+128], edx
	mov	eax, DWORD PTR _this$[ebp]
	mov	ecx, DWORD PTR _rhs$[ebp]
	mov	edx, DWORD PTR [ecx+132]
	mov	DWORD PTR [eax+132], edx
	mov	eax, DWORD PTR _this$[ebp]
	mov	ecx, DWORD PTR _rhs$[ebp]
	mov	edx, DWORD PTR [ecx+136]
	mov	DWORD PTR [eax+136], edx
	mov	eax, DWORD PTR _this$[ebp]
	mov	ecx, DWORD PTR _rhs$[ebp]
	mov	edx, DWORD PTR [ecx+140]
	mov	DWORD PTR [eax+140], edx
	mov	eax, DWORD PTR _this$[ebp]
	mov	ecx, DWORD PTR _rhs$[ebp]
	mov	edx, DWORD PTR [ecx+144]
	mov	DWORD PTR [eax+144], edx
	mov	eax, DWORD PTR _rhs$[ebp]
	add	eax, 152				; 00000098H
	push	eax
	mov	ecx, DWORD PTR _this$[ebp]
	add	ecx, 152				; 00000098H
	call	??0LRU@@QAE@ABV0@@Z
	mov	DWORD PTR __$EHRec$[ebp+8], 0
	mov	eax, DWORD PTR _rhs$[ebp]
	add	eax, 312				; 00000138H
	push	eax
	mov	ecx, DWORD PTR _this$[ebp]
	add	ecx, 312				; 00000138H
	call	??0?$circular_buffer@_JV?$allocator@_J@std@@@boost@@QAE@ABV01@@Z ; boost::circular_buffer<__int64,std::allocator<__int64> >::circular_buffer<__int64,std::allocator<__int64> >
	mov	BYTE PTR __$EHRec$[ebp+8], 1
	mov	eax, DWORD PTR _systemConfig$[ebp]
	push	eax
	mov	ecx, DWORD PTR _timing$[ebp]
	push	ecx
	push	0
	mov	ecx, DWORD PTR _rhs$[ebp]
	add	ecx, 340				; 00000154H
	call	??A?$vector@VBank@DRAMsimII@@V?$allocator@VBank@DRAMsimII@@@std@@@std@@QBEABVBank@DRAMsimII@@I@Z ; std::vector<DRAMsimII::Bank,std::allocator<DRAMsimII::Bank> >::operator[]
	push	eax
	lea	ecx, DWORD PTR $T167845[ebp]
	call	??0Bank@DRAMsimII@@QAE@ABV01@ABVTimingSpecification@1@ABVSystemConfiguration@1@@Z ; DRAMsimII::Bank::Bank
	mov	DWORD PTR tv185[ebp], eax
	mov	edx, DWORD PTR tv185[ebp]
	mov	DWORD PTR tv182[ebp], edx
	mov	BYTE PTR __$EHRec$[ebp+8], 2
	mov	eax, DWORD PTR tv182[ebp]
	push	eax
	mov	ecx, DWORD PTR _systemConfig$[ebp]
	call	?getBankCount@SystemConfiguration@DRAMsimII@@QBEIXZ ; DRAMsimII::SystemConfiguration::getBankCount
	push	eax
	mov	ecx, DWORD PTR _this$[ebp]
	add	ecx, 340				; 00000154H
	call	??0?$vector@VBank@DRAMsimII@@V?$allocator@VBank@DRAMsimII@@@std@@@std@@QAE@IABVBank@DRAMsimII@@@Z ; std::vector<DRAMsimII::Bank,std::allocator<DRAMsimII::Bank> >::vector<DRAMsimII::Bank,std::allocator<DRAMsimII::Bank> >
	mov	BYTE PTR __$EHRec$[ebp+8], 4
	lea	ecx, DWORD PTR $T167845[ebp]
	call	??1Bank@DRAMsimII@@QAE@XZ

; 113  : 	// TODO: copy over values in banks now that reference members are init	
; 114  : 	//for (unsigned i = 0; i < systemConfig.getBankCount(); i++)
; 115  : 	//{
; 116  : 	//	bank[i] = rhs.bank[i];
; 117  : 	//}
; 118  : 	bank = rhs.bank;

	mov	eax, DWORD PTR _rhs$[ebp]
	add	eax, 340				; 00000154H
	push	eax
	mov	ecx, DWORD PTR _this$[ebp]
	add	ecx, 340				; 00000154H
	call	??4?$vector@VBank@DRAMsimII@@V?$allocator@VBank@DRAMsimII@@@std@@@std@@QAEAAV01@ABV01@@Z ; std::vector<DRAMsimII::Bank,std::allocator<DRAMsimII::Bank> >::operator=

; 119  : }

	mov	DWORD PTR __$EHRec$[ebp+8], -1
	mov	eax, DWORD PTR _this$[ebp]
	mov	ecx, DWORD PTR __$EHRec$[ebp]
	mov	DWORD PTR fs:0, ecx
	pop	ecx
	pop	edi
	pop	esi
	pop	ebx
	add	esp, 384				; 00000180H
	cmp	ebp, esp
	call	__RTC_CheckEsp
	mov	esp, ebp
	pop	ebp
	ret	12					; 0000000cH
_TEXT	ENDS
;	COMDAT text$x
text$x	SEGMENT
__unwindfunclet$??0Rank@DRAMsimII@@QAE@ABV01@ABVTimingSpecification@1@ABVSystemConfiguration@1@@Z$0:
	mov	ecx, DWORD PTR _this$[ebp]
	add	ecx, 152				; 00000098H
	jmp	??1LRU@@UAE@XZ				; LRU::~LRU
__unwindfunclet$??0Rank@DRAMsimII@@QAE@ABV01@ABVTimingSpecification@1@ABVSystemConfiguration@1@@Z$1:
	mov	ecx, DWORD PTR _this$[ebp]
	add	ecx, 312				; 00000138H
	jmp	??1?$circular_buffer@_JV?$allocator@_J@std@@@boost@@QAE@XZ ; boost::circular_buffer<__int64,std::allocator<__int64> >::~circular_buffer<__int64,std::allocator<__int64> >
__unwindfunclet$??0Rank@DRAMsimII@@QAE@ABV01@ABVTimingSpecification@1@ABVSystemConfiguration@1@@Z$2:
	lea	ecx, DWORD PTR $T167845[ebp]
	jmp	??1Bank@DRAMsimII@@QAE@XZ
__unwindfunclet$??0Rank@DRAMsimII@@QAE@ABV01@ABVTimingSpecification@1@ABVSystemConfiguration@1@@Z$3:
	mov	ecx, DWORD PTR _this$[ebp]
	add	ecx, 340				; 00000154H
	jmp	??1?$vector@VBank@DRAMsimII@@V?$allocator@VBank@DRAMsimII@@@std@@@std@@QAE@XZ ; std::vector<DRAMsimII::Bank,std::allocator<DRAMsimII::Bank> >::~vector<DRAMsimII::Bank,std::allocator<DRAMsimII::Bank> >
__ehhandler$??0Rank@DRAMsimII@@QAE@ABV01@ABVTimingSpecification@1@ABVSystemConfiguration@1@@Z:
	mov	edx, DWORD PTR [esp+8]
	lea	eax, DWORD PTR [edx+12]
	mov	ecx, DWORD PTR [edx-388]
	xor	ecx, eax
	call	@__security_check_cookie@4
	mov	eax, OFFSET __ehfuncinfo$??0Rank@DRAMsimII@@QAE@ABV01@ABVTimingSpecification@1@ABVSystemConfiguration@1@@Z
	jmp	___CxxFrameHandler3
text$x	ENDS
??0Rank@DRAMsimII@@QAE@ABV01@ABVTimingSpecification@1@ABVSystemConfiguration@1@@Z ENDP ; DRAMsimII::Rank::Rank
PUBLIC	?tRFC@TimingSpecification@DRAMsimII@@QBEHXZ	; DRAMsimII::TimingSpecification::tRFC
PUBLIC	??0Rank@DRAMsimII@@AAE@ABVTimingSpecification@1@ABV?$vector@VBank@DRAMsimII@@V?$allocator@VBank@DRAMsimII@@@std@@@std@@@Z ; DRAMsimII::Rank::Rank
;	COMDAT xdata$x
xdata$x	SEGMENT
__unwindtable$??0Rank@DRAMsimII@@AAE@ABVTimingSpecification@1@ABV?$vector@VBank@DRAMsimII@@V?$allocator@VBank@DRAMsimII@@@std@@@std@@@Z DD 0ffffffffH
	DD	FLAT:__unwindfunclet$??0Rank@DRAMsimII@@AAE@ABVTimingSpecification@1@ABV?$vector@VBank@DRAMsimII@@V?$allocator@VBank@DRAMsimII@@@std@@@std@@@Z$0
	DD	00H
	DD	FLAT:__unwindfunclet$??0Rank@DRAMsimII@@AAE@ABVTimingSpecification@1@ABV?$vector@VBank@DRAMsimII@@V?$allocator@VBank@DRAMsimII@@@std@@@std@@@Z$1
__ehfuncinfo$??0Rank@DRAMsimII@@AAE@ABVTimingSpecification@1@ABV?$vector@VBank@DRAMsimII@@V?$allocator@VBank@DRAMsimII@@@std@@@std@@@Z DD 019930522H
	DD	02H
	DD	FLAT:__unwindtable$??0Rank@DRAMsimII@@AAE@ABVTimingSpecification@1@ABV?$vector@VBank@DRAMsimII@@V?$allocator@VBank@DRAMsimII@@@std@@@std@@@Z
	DD	2 DUP(00H)
	DD	2 DUP(00H)
	DD	00H
	DD	01H
; Function compile flags: /Odtp /RTCcsu /ZI
xdata$x	ENDS
;	COMDAT ??0Rank@DRAMsimII@@AAE@ABVTimingSpecification@1@ABV?$vector@VBank@DRAMsimII@@V?$allocator@VBank@DRAMsimII@@@std@@@std@@@Z
_TEXT	SEGMENT
$T167858 = -221						; size = 1
_this$ = -20						; size = 4
__$EHRec$ = -12						; size = 12
_timingSpec$ = 8					; size = 4
_newBank$ = 12						; size = 4
??0Rank@DRAMsimII@@AAE@ABVTimingSpecification@1@ABV?$vector@VBank@DRAMsimII@@V?$allocator@VBank@DRAMsimII@@@std@@@std@@@Z PROC ; DRAMsimII::Rank::Rank, COMDAT
; _this$ = ecx

; 148  : {}

	push	ebp
	mov	ebp, esp
	push	-1
	push	__ehhandler$??0Rank@DRAMsimII@@AAE@ABVTimingSpecification@1@ABV?$vector@VBank@DRAMsimII@@V?$allocator@VBank@DRAMsimII@@@std@@@std@@@Z
	mov	eax, DWORD PTR fs:0
	push	eax
	sub	esp, 216				; 000000d8H
	push	ebx
	push	esi
	push	edi
	push	ecx
	lea	edi, DWORD PTR [ebp-228]
	mov	ecx, 54					; 00000036H
	mov	eax, -858993460				; ccccccccH
	rep stosd
	pop	ecx
	mov	eax, DWORD PTR ___security_cookie
	xor	eax, ebp
	push	eax
	lea	eax, DWORD PTR __$EHRec$[ebp]
	mov	DWORD PTR fs:0, eax
	mov	DWORD PTR _this$[ebp], ecx
	mov	eax, DWORD PTR _this$[ebp]
	mov	ecx, DWORD PTR _timingSpec$[ebp]
	mov	DWORD PTR [eax], ecx
	mov	ecx, DWORD PTR _timingSpec$[ebp]
	call	?tRFC@TimingSpecification@DRAMsimII@@QBEHXZ ; DRAMsimII::TimingSpecification::tRFC
	cdq
	push	-1
	push	-1
	push	edx
	push	eax
	call	__allmul
	mov	ecx, DWORD PTR _this$[ebp]
	mov	DWORD PTR [ecx+8], eax
	mov	DWORD PTR [ecx+12], edx
	mov	eax, DWORD PTR _this$[ebp]
	mov	DWORD PTR [eax+16], -100		; ffffff9cH
	mov	DWORD PTR [eax+20], -1
	mov	eax, DWORD PTR _this$[ebp]
	mov	DWORD PTR [eax+24], -100		; ffffff9cH
	mov	DWORD PTR [eax+28], -1
	mov	eax, DWORD PTR _this$[ebp]
	mov	DWORD PTR [eax+32], -100		; ffffff9cH
	mov	DWORD PTR [eax+36], -1
	mov	eax, DWORD PTR _this$[ebp]
	mov	DWORD PTR [eax+40], -100		; ffffff9cH
	mov	DWORD PTR [eax+44], -1
	mov	eax, DWORD PTR _this$[ebp]
	mov	DWORD PTR [eax+48], -100		; ffffff9cH
	mov	DWORD PTR [eax+52], -1
	mov	eax, DWORD PTR _this$[ebp]
	mov	DWORD PTR [eax+56], 0
	mov	DWORD PTR [eax+60], 0
	mov	eax, DWORD PTR _this$[ebp]
	mov	DWORD PTR [eax+64], 0
	mov	DWORD PTR [eax+68], 0
	mov	eax, DWORD PTR _this$[ebp]
	mov	DWORD PTR [eax+72], 0
	mov	DWORD PTR [eax+76], 0
	mov	eax, DWORD PTR _this$[ebp]
	mov	DWORD PTR [eax+80], 0
	mov	DWORD PTR [eax+84], 0
	mov	eax, DWORD PTR _this$[ebp]
	mov	DWORD PTR [eax+88], 0
	mov	DWORD PTR [eax+92], 0
	mov	eax, DWORD PTR _this$[ebp]
	mov	DWORD PTR [eax+96], 0
	mov	DWORD PTR [eax+100], 0
	mov	eax, DWORD PTR _this$[ebp]
	mov	DWORD PTR [eax+104], 0
	mov	DWORD PTR [eax+108], 0
	mov	eax, DWORD PTR _this$[ebp]
	mov	DWORD PTR [eax+112], 0
	mov	eax, DWORD PTR _this$[ebp]
	mov	DWORD PTR [eax+116], 0
	mov	eax, DWORD PTR _this$[ebp]
	mov	DWORD PTR [eax+120], 0
	mov	eax, DWORD PTR _this$[ebp]
	mov	DWORD PTR [eax+124], 0
	mov	eax, DWORD PTR _this$[ebp]
	mov	DWORD PTR [eax+128], 0
	mov	eax, DWORD PTR _this$[ebp]
	mov	DWORD PTR [eax+132], 0
	mov	eax, DWORD PTR _this$[ebp]
	mov	DWORD PTR [eax+136], -1
	mov	eax, DWORD PTR _this$[ebp]
	mov	DWORD PTR [eax+140], 0
	mov	eax, DWORD PTR _this$[ebp]
	mov	DWORD PTR [eax+144], 0
	push	5
	push	8
	push	64					; 00000040H
	push	1024					; 00000400H
	mov	ecx, DWORD PTR _this$[ebp]
	add	ecx, 152				; 00000098H
	call	??0LRU@@QAE@IIII@Z			; LRU::LRU
	mov	DWORD PTR __$EHRec$[ebp+8], 0
	lea	ecx, DWORD PTR $T167858[ebp]
	call	??0?$allocator@_J@std@@QAE@XZ		; std::allocator<__int64>::allocator<__int64>
	push	eax
	push	-100					; ffffff9cH
	push	4
	push	4
	mov	ecx, DWORD PTR _this$[ebp]
	add	ecx, 312				; 00000138H
	call	??$?0H@?$circular_buffer@_JV?$allocator@_J@std@@@boost@@QAE@IHHABV?$allocator@_J@std@@@Z ; boost::circular_buffer<__int64,std::allocator<__int64> >::circular_buffer<__int64,std::allocator<__int64> ><int>
	mov	BYTE PTR __$EHRec$[ebp+8], 1
	mov	eax, DWORD PTR _newBank$[ebp]
	push	eax
	mov	ecx, DWORD PTR _this$[ebp]
	add	ecx, 340				; 00000154H
	call	??0?$vector@VBank@DRAMsimII@@V?$allocator@VBank@DRAMsimII@@@std@@@std@@QAE@ABV01@@Z ; std::vector<DRAMsimII::Bank,std::allocator<DRAMsimII::Bank> >::vector<DRAMsimII::Bank,std::allocator<DRAMsimII::Bank> >
	mov	DWORD PTR __$EHRec$[ebp+8], -1
	mov	eax, DWORD PTR _this$[ebp]
	mov	ecx, DWORD PTR __$EHRec$[ebp]
	mov	DWORD PTR fs:0, ecx
	pop	ecx
	pop	edi
	pop	esi
	pop	ebx
	add	esp, 228				; 000000e4H
	cmp	ebp, esp
	call	__RTC_CheckEsp
	mov	esp, ebp
	pop	ebp
	ret	8
_TEXT	ENDS
;	COMDAT text$x
text$x	SEGMENT
__unwindfunclet$??0Rank@DRAMsimII@@AAE@ABVTimingSpecification@1@ABV?$vector@VBank@DRAMsimII@@V?$allocator@VBank@DRAMsimII@@@std@@@std@@@Z$0:
	mov	ecx, DWORD PTR _this$[ebp]
	add	ecx, 152				; 00000098H
	jmp	??1LRU@@UAE@XZ				; LRU::~LRU
__unwindfunclet$??0Rank@DRAMsimII@@AAE@ABVTimingSpecification@1@ABV?$vector@VBank@DRAMsimII@@V?$allocator@VBank@DRAMsimII@@@std@@@std@@@Z$1:
	mov	ecx, DWORD PTR _this$[ebp]
	add	ecx, 312				; 00000138H
	jmp	??1?$circular_buffer@_JV?$allocator@_J@std@@@boost@@QAE@XZ ; boost::circular_buffer<__int64,std::allocator<__int64> >::~circular_buffer<__int64,std::allocator<__int64> >
__ehhandler$??0Rank@DRAMsimII@@AAE@ABVTimingSpecification@1@ABV?$vector@VBank@DRAMsimII@@V?$allocator@VBank@DRAMsimII@@@std@@@std@@@Z:
	mov	edx, DWORD PTR [esp+8]
	lea	eax, DWORD PTR [edx+12]
	mov	ecx, DWORD PTR [edx-232]
	xor	ecx, eax
	call	@__security_check_cookie@4
	mov	eax, OFFSET __ehfuncinfo$??0Rank@DRAMsimII@@AAE@ABVTimingSpecification@1@ABV?$vector@VBank@DRAMsimII@@V?$allocator@VBank@DRAMsimII@@@std@@@std@@@Z
	jmp	___CxxFrameHandler3
text$x	ENDS
??0Rank@DRAMsimII@@AAE@ABVTimingSpecification@1@ABV?$vector@VBank@DRAMsimII@@V?$allocator@VBank@DRAMsimII@@@std@@@std@@@Z ENDP ; DRAMsimII::Rank::Rank
; Function compile flags: /Odtp /RTCcsu /ZI
; File c:\users\crius\documents\visual studio 2008\projects\dramsimiihg\src\timingspecification.h
;	COMDAT ?tRFC@TimingSpecification@DRAMsimII@@QBEHXZ
_TEXT	SEGMENT
_this$ = -8						; size = 4
?tRFC@TimingSpecification@DRAMsimII@@QBEHXZ PROC	; DRAMsimII::TimingSpecification::tRFC, COMDAT
; _this$ = ecx

; 79   : 		int tRFC() const { return t_rfc; }

	push	ebp
	mov	ebp, esp
	sub	esp, 204				; 000000ccH
	push	ebx
	push	esi
	push	edi
	push	ecx
	lea	edi, DWORD PTR [ebp-204]
	mov	ecx, 51					; 00000033H
	mov	eax, -858993460				; ccccccccH
	rep stosd
	pop	ecx
	mov	DWORD PTR _this$[ebp], ecx
	mov	eax, DWORD PTR _this$[ebp]
	mov	eax, DWORD PTR [eax+40]
	pop	edi
	pop	esi
	pop	ebx
	mov	esp, ebp
	pop	ebp
	ret	0
?tRFC@TimingSpecification@DRAMsimII@@QBEHXZ ENDP	; DRAMsimII::TimingSpecification::tRFC
_TEXT	ENDS
PUBLIC	?tRRD@TimingSpecification@DRAMsimII@@QBEHXZ	; DRAMsimII::TimingSpecification::tRRD
PUBLIC	?tFAW@TimingSpecification@DRAMsimII@@QBEHXZ	; DRAMsimII::TimingSpecification::tFAW
PUBLIC	?back@?$circular_buffer@_JV?$allocator@_J@std@@@boost@@QAEAA_JXZ ; boost::circular_buffer<__int64,std::allocator<__int64> >::back
PUBLIC	??A?$vector@VBank@DRAMsimII@@V?$allocator@VBank@DRAMsimII@@@std@@@std@@QAEAAVBank@DRAMsimII@@I@Z ; std::vector<DRAMsimII::Bank,std::allocator<DRAMsimII::Bank> >::operator[]
PUBLIC	??_C@_1DM@HOGIEIBP@?$AAb?$AAa?$AAn?$AAk?$AAs?$AAP?$AAr?$AAe?$AAc?$AAh?$AAa?$AAr?$AAg?$AAe?$AAd?$AA?5?$AA?$DM?$AA?5?$AAb?$AAa?$AAn?$AAk?$AA?4?$AAs?$AAi?$AAz?$AAe?$AA?$CI?$AA?$CJ?$AA?$AA@ ; `string'
PUBLIC	??_C@_1CO@OLFFGNCN@?$AA?$CB?$AAc?$AAu?$AAr?$AAB?$AAn?$AAk?$AA?9?$AA?$DO?$AAi?$AAs?$AAA?$AAc?$AAt?$AAi?$AAv?$AAa?$AAt?$AAe?$AAd?$AA?$CI?$AA?$CJ?$AA?$AA@ ; `string'
PUBLIC	??_C@_1JM@MNHHEOID@?$AAc?$AA?3?$AA?2?$AAu?$AAs?$AAe?$AAr?$AAs?$AA?2?$AAc?$AAr?$AAi?$AAu?$AAs?$AA?2?$AAd?$AAo?$AAc?$AAu?$AAm?$AAe?$AAn?$AAt?$AAs?$AA?2?$AAv?$AAi?$AAs?$AAu?$AAa?$AAl?$AA?5@ ; `string'
PUBLIC	?__LINE__Var@?1??issueRAS@Rank@DRAMsimII@@QAEX_JPBVCommand@3@@Z@4JA ; `DRAMsimII::Rank::issueRAS'::`2'::__LINE__Var
PUBLIC	?isActivated@Bank@DRAMsimII@@QBE_NXZ		; DRAMsimII::Bank::isActivated
PUBLIC	??C?$_Vector_const_iterator@VBank@DRAMsimII@@V?$allocator@VBank@DRAMsimII@@@std@@@std@@QBEPBVBank@DRAMsimII@@XZ ; std::_Vector_const_iterator<DRAMsimII::Bank,std::allocator<DRAMsimII::Bank> >::operator->
PUBLIC	??9?$_Vector_const_iterator@VBank@DRAMsimII@@V?$allocator@VBank@DRAMsimII@@@std@@@std@@QBE_NABV01@@Z ; std::_Vector_const_iterator<DRAMsimII::Bank,std::allocator<DRAMsimII::Bank> >::operator!=
PUBLIC	?end@?$vector@VBank@DRAMsimII@@V?$allocator@VBank@DRAMsimII@@@std@@@std@@QAE?AV?$_Vector_iterator@VBank@DRAMsimII@@V?$allocator@VBank@DRAMsimII@@@std@@@2@XZ ; std::vector<DRAMsimII::Bank,std::allocator<DRAMsimII::Bank> >::end
PUBLIC	??1?$_Vector_const_iterator@VBank@DRAMsimII@@V?$allocator@VBank@DRAMsimII@@@std@@@std@@QAE@XZ ; std::_Vector_const_iterator<DRAMsimII::Bank,std::allocator<DRAMsimII::Bank> >::~_Vector_const_iterator<DRAMsimII::Bank,std::allocator<DRAMsimII::Bank> >
PUBLIC	??E?$_Vector_const_iterator@VBank@DRAMsimII@@V?$allocator@VBank@DRAMsimII@@@std@@@std@@QAE?AV01@H@Z ; std::_Vector_const_iterator<DRAMsimII::Bank,std::allocator<DRAMsimII::Bank> >::operator++
PUBLIC	??1?$_Vector_iterator@VBank@DRAMsimII@@V?$allocator@VBank@DRAMsimII@@@std@@@std@@QAE@XZ ; std::_Vector_iterator<DRAMsimII::Bank,std::allocator<DRAMsimII::Bank> >::~_Vector_iterator<DRAMsimII::Bank,std::allocator<DRAMsimII::Bank> >
PUBLIC	??0?$_Vector_const_iterator@VBank@DRAMsimII@@V?$allocator@VBank@DRAMsimII@@@std@@@std@@QAE@ABV01@@Z ; std::_Vector_const_iterator<DRAMsimII::Bank,std::allocator<DRAMsimII::Bank> >::_Vector_const_iterator<DRAMsimII::Bank,std::allocator<DRAMsimII::Bank> >
PUBLIC	?begin@?$vector@VBank@DRAMsimII@@V?$allocator@VBank@DRAMsimII@@@std@@@std@@QAE?AV?$_Vector_iterator@VBank@DRAMsimII@@V?$allocator@VBank@DRAMsimII@@@std@@@2@XZ ; std::vector<DRAMsimII::Bank,std::allocator<DRAMsimII::Bank> >::begin
PUBLIC	??$max@_J@std@@YAAB_JAB_J0@Z			; std::max<__int64>
PUBLIC	?size@?$vector@VBank@DRAMsimII@@V?$allocator@VBank@DRAMsimII@@@std@@@std@@QBEIXZ ; std::vector<DRAMsimII::Bank,std::allocator<DRAMsimII::Bank> >::size
PUBLIC	?getBank@Address@DRAMsimII@@QBEIXZ		; DRAMsimII::Address::getBank
PUBLIC	?getAddress@Event@DRAMsimII@@QBEABVAddress@2@XZ	; DRAMsimII::Event::getAddress
PUBLIC	?push_front@?$circular_buffer@_JV?$allocator@_J@std@@@boost@@QAEXAB_J@Z ; boost::circular_buffer<__int64,std::allocator<__int64> >::push_front
PUBLIC	?issueRAS@Rank@DRAMsimII@@QAEX_JPBVCommand@2@@Z	; DRAMsimII::Rank::issueRAS
EXTRN	?issueRAS@Bank@DRAMsimII@@QAEX_JPBVCommand@2@@Z:PROC ; DRAMsimII::Bank::issueRAS
EXTRN	__imp___wassert:PROC
EXTRN	@_RTC_CheckStackVars@8:PROC
;	COMDAT ??_C@_1DM@HOGIEIBP@?$AAb?$AAa?$AAn?$AAk?$AAs?$AAP?$AAr?$AAe?$AAc?$AAh?$AAa?$AAr?$AAg?$AAe?$AAd?$AA?5?$AA?$DM?$AA?5?$AAb?$AAa?$AAn?$AAk?$AA?4?$AAs?$AAi?$AAz?$AAe?$AA?$CI?$AA?$CJ?$AA?$AA@
; File c:\users\crius\documents\visual studio 2008\projects\dramsimiihg\src\rank.cpp
CONST	SEGMENT
??_C@_1DM@HOGIEIBP@?$AAb?$AAa?$AAn?$AAk?$AAs?$AAP?$AAr?$AAe?$AAc?$AAh?$AAa?$AAr?$AAg?$AAe?$AAd?$AA?5?$AA?$DM?$AA?5?$AAb?$AAa?$AAn?$AAk?$AA?4?$AAs?$AAi?$AAz?$AAe?$AA?$CI?$AA?$CJ?$AA?$AA@ DB 'b'
	DB	00H, 'a', 00H, 'n', 00H, 'k', 00H, 's', 00H, 'P', 00H, 'r', 00H
	DB	'e', 00H, 'c', 00H, 'h', 00H, 'a', 00H, 'r', 00H, 'g', 00H, 'e'
	DB	00H, 'd', 00H, ' ', 00H, '<', 00H, ' ', 00H, 'b', 00H, 'a', 00H
	DB	'n', 00H, 'k', 00H, '.', 00H, 's', 00H, 'i', 00H, 'z', 00H, 'e'
	DB	00H, '(', 00H, ')', 00H, 00H, 00H		; `string'
CONST	ENDS
;	COMDAT ??_C@_1CO@OLFFGNCN@?$AA?$CB?$AAc?$AAu?$AAr?$AAB?$AAn?$AAk?$AA?9?$AA?$DO?$AAi?$AAs?$AAA?$AAc?$AAt?$AAi?$AAv?$AAa?$AAt?$AAe?$AAd?$AA?$CI?$AA?$CJ?$AA?$AA@
CONST	SEGMENT
??_C@_1CO@OLFFGNCN@?$AA?$CB?$AAc?$AAu?$AAr?$AAB?$AAn?$AAk?$AA?9?$AA?$DO?$AAi?$AAs?$AAA?$AAc?$AAt?$AAi?$AAv?$AAa?$AAt?$AAe?$AAd?$AA?$CI?$AA?$CJ?$AA?$AA@ DB '!'
	DB	00H, 'c', 00H, 'u', 00H, 'r', 00H, 'B', 00H, 'n', 00H, 'k', 00H
	DB	'-', 00H, '>', 00H, 'i', 00H, 's', 00H, 'A', 00H, 'c', 00H, 't'
	DB	00H, 'i', 00H, 'v', 00H, 'a', 00H, 't', 00H, 'e', 00H, 'd', 00H
	DB	'(', 00H, ')', 00H, 00H, 00H			; `string'
CONST	ENDS
;	COMDAT ??_C@_1JM@MNHHEOID@?$AAc?$AA?3?$AA?2?$AAu?$AAs?$AAe?$AAr?$AAs?$AA?2?$AAc?$AAr?$AAi?$AAu?$AAs?$AA?2?$AAd?$AAo?$AAc?$AAu?$AAm?$AAe?$AAn?$AAt?$AAs?$AA?2?$AAv?$AAi?$AAs?$AAu?$AAa?$AAl?$AA?5@
CONST	SEGMENT
??_C@_1JM@MNHHEOID@?$AAc?$AA?3?$AA?2?$AAu?$AAs?$AAe?$AAr?$AAs?$AA?2?$AAc?$AAr?$AAi?$AAu?$AAs?$AA?2?$AAd?$AAo?$AAc?$AAu?$AAm?$AAe?$AAn?$AAt?$AAs?$AA?2?$AAv?$AAi?$AAs?$AAu?$AAa?$AAl?$AA?5@ DB 'c'
	DB	00H, ':', 00H, '\', 00H, 'u', 00H, 's', 00H, 'e', 00H, 'r', 00H
	DB	's', 00H, '\', 00H, 'c', 00H, 'r', 00H, 'i', 00H, 'u', 00H, 's'
	DB	00H, '\', 00H, 'd', 00H, 'o', 00H, 'c', 00H, 'u', 00H, 'm', 00H
	DB	'e', 00H, 'n', 00H, 't', 00H, 's', 00H, '\', 00H, 'v', 00H, 'i'
	DB	00H, 's', 00H, 'u', 00H, 'a', 00H, 'l', 00H, ' ', 00H, 's', 00H
	DB	't', 00H, 'u', 00H, 'd', 00H, 'i', 00H, 'o', 00H, ' ', 00H, '2'
	DB	00H, '0', 00H, '0', 00H, '8', 00H, '\', 00H, 'p', 00H, 'r', 00H
	DB	'o', 00H, 'j', 00H, 'e', 00H, 'c', 00H, 't', 00H, 's', 00H, '\'
	DB	00H, 'd', 00H, 'r', 00H, 'a', 00H, 'm', 00H, 's', 00H, 'i', 00H
	DB	'm', 00H, 'i', 00H, 'i', 00H, 'h', 00H, 'g', 00H, '\', 00H, 's'
	DB	00H, 'r', 00H, 'c', 00H, '\', 00H, 'r', 00H, 'a', 00H, 'n', 00H
	DB	'k', 00H, '.', 00H, 'c', 00H, 'p', 00H, 'p', 00H, 00H, 00H ; `string'
CONST	ENDS
;	COMDAT ?__LINE__Var@?1??issueRAS@Rank@DRAMsimII@@QAEX_JPBVCommand@3@@Z@4JA
_DATA	SEGMENT
?__LINE__Var@?1??issueRAS@Rank@DRAMsimII@@QAEX_JPBVCommand@3@@Z@4JA DD 09aH ; `DRAMsimII::Rank::issueRAS'::`2'::__LINE__Var
_DATA	ENDS
;	COMDAT xdata$x
xdata$x	SEGMENT
__unwindtable$?issueRAS@Rank@DRAMsimII@@QAEX_JPBVCommand@2@@Z DD 0ffffffffH
	DD	FLAT:__unwindfunclet$?issueRAS@Rank@DRAMsimII@@QAEX_JPBVCommand@2@@Z$0
	DD	00H
	DD	FLAT:__unwindfunclet$?issueRAS@Rank@DRAMsimII@@QAEX_JPBVCommand@2@@Z$1
	DD	0ffffffffH
	DD	FLAT:__unwindfunclet$?issueRAS@Rank@DRAMsimII@@QAEX_JPBVCommand@2@@Z$1
	DD	02H
	DD	FLAT:__unwindfunclet$?issueRAS@Rank@DRAMsimII@@QAEX_JPBVCommand@2@@Z$3
__ehfuncinfo$?issueRAS@Rank@DRAMsimII@@QAEX_JPBVCommand@2@@Z DD 019930522H
	DD	04H
	DD	FLAT:__unwindtable$?issueRAS@Rank@DRAMsimII@@QAEX_JPBVCommand@2@@Z
	DD	2 DUP(00H)
	DD	2 DUP(00H)
	DD	00H
	DD	01H
; Function compile flags: /Odtp /RTCcsu /ZI
xdata$x	ENDS
;	COMDAT ?issueRAS@Rank@DRAMsimII@@QAEX_JPBVCommand@2@@Z
_TEXT	SEGMENT
tv235 = -428						; size = 4
tv231 = -428						; size = 4
tv152 = -424						; size = 4
tv138 = -424						; size = 4
$T167872 = -416						; size = 8
$T167873 = -400						; size = 8
$T167874 = -384						; size = 8
$T167875 = -368						; size = 8
$T167876 = -352						; size = 12
$T167877 = -332						; size = 12
$T167878 = -309						; size = 1
$T167879 = -300						; size = 12
$T167882 = -280						; size = 8
$T167883 = -264						; size = 8
_curBnk$141576 = -56					; size = 12
_thisRASTime$ = -36					; size = 8
_this$ = -20						; size = 4
__$EHRec$ = -12						; size = 12
_currentTime$ = 8					; size = 8
_currentCommand$ = 16					; size = 4
?issueRAS@Rank@DRAMsimII@@QAEX_JPBVCommand@2@@Z PROC	; DRAMsimII::Rank::issueRAS, COMDAT
; _this$ = ecx

; 154  : {

	push	ebp
	mov	ebp, esp
	push	-1
	push	__ehhandler$?issueRAS@Rank@DRAMsimII@@QAEX_JPBVCommand@2@@Z
	mov	eax, DWORD PTR fs:0
	push	eax
	sub	esp, 416				; 000001a0H
	push	ebx
	push	esi
	push	edi
	push	ecx
	lea	edi, DWORD PTR [ebp-428]
	mov	ecx, 104				; 00000068H
	mov	eax, -858993460				; ccccccccH
	rep stosd
	pop	ecx
	mov	eax, DWORD PTR ___security_cookie
	xor	eax, ebp
	push	eax
	lea	eax, DWORD PTR __$EHRec$[ebp]
	mov	DWORD PTR fs:0, eax
	mov	DWORD PTR _this$[ebp], ecx

; 155  : 	// RAS time history queue, per rank
; 156  : 	const tick thisRASTime = currentTime;

	mov	eax, DWORD PTR _currentTime$[ebp]
	mov	DWORD PTR _thisRASTime$[ebp], eax
	mov	ecx, DWORD PTR _currentTime$[ebp+4]
	mov	DWORD PTR _thisRASTime$[ebp+4], ecx

; 157  : 	// record these for tFAW calculations
; 158  : 	lastActivateTimes.push_front(thisRASTime);

	lea	eax, DWORD PTR _thisRASTime$[ebp]
	push	eax
	mov	ecx, DWORD PTR _this$[ebp]
	add	ecx, 312				; 00000138H
	call	?push_front@?$circular_buffer@_JV?$allocator@_J@std@@@boost@@QAEXAB_J@Z ; boost::circular_buffer<__int64,std::allocator<__int64> >::push_front

; 159  : 
; 160  : 	lastBankID = currentCommand->getAddress().getBank();

	mov	ecx, DWORD PTR _currentCommand$[ebp]
	call	?getAddress@Event@DRAMsimII@@QBEABVAddress@2@XZ ; DRAMsimII::Event::getAddress
	mov	ecx, eax
	call	?getBank@Address@DRAMsimII@@QBEIXZ	; DRAMsimII::Address::getBank
	mov	ecx, DWORD PTR _this$[ebp]
	mov	DWORD PTR [ecx+140], eax

; 161  : 
; 162  : 	// for power modeling, if all banks were precharged and now one is being activated, record the interval that one was precharged	
; 163  : 	if (banksPrecharged == bank.size())

	mov	ecx, DWORD PTR _this$[ebp]
	add	ecx, 340				; 00000154H
	call	?size@?$vector@VBank@DRAMsimII@@V?$allocator@VBank@DRAMsimII@@@std@@@std@@QBEIXZ ; std::vector<DRAMsimII::Bank,std::allocator<DRAMsimII::Bank> >::size
	mov	ecx, DWORD PTR _this$[ebp]
	cmp	DWORD PTR [ecx+144], eax
	jne	$LN4@issueRAS

; 164  : 	{
; 165  : 		prechargeTime += max(currentTime - max(lastCalculationTime, lastPrechargeAnyBankTime),(tick)0);

	mov	DWORD PTR $T167872[ebp], 0
	mov	DWORD PTR $T167872[ebp+4], 0
	mov	eax, DWORD PTR _this$[ebp]
	add	eax, 16					; 00000010H
	push	eax
	mov	ecx, DWORD PTR _this$[ebp]
	add	ecx, 104				; 00000068H
	push	ecx
	call	??$max@_J@std@@YAAB_JAB_J0@Z		; std::max<__int64>
	add	esp, 8
	mov	edx, DWORD PTR _currentTime$[ebp]
	sub	edx, DWORD PTR [eax]
	mov	ecx, DWORD PTR _currentTime$[ebp+4]
	sbb	ecx, DWORD PTR [eax+4]
	mov	DWORD PTR $T167873[ebp], edx
	mov	DWORD PTR $T167873[ebp+4], ecx
	lea	edx, DWORD PTR $T167872[ebp]
	push	edx
	lea	eax, DWORD PTR $T167873[ebp]
	push	eax
	call	??$max@_J@std@@YAAB_JAB_J0@Z		; std::max<__int64>
	add	esp, 8
	mov	ecx, DWORD PTR _this$[ebp]
	mov	edx, DWORD PTR [ecx+56]
	add	edx, DWORD PTR [eax]
	mov	ecx, DWORD PTR [ecx+60]
	adc	ecx, DWORD PTR [eax+4]
	mov	eax, DWORD PTR _this$[ebp]
	mov	DWORD PTR [eax+56], edx
	mov	DWORD PTR [eax+60], ecx

; 166  : 		totalPrechargeTime += max(currentTime - max(lastCalculationTime, lastPrechargeAnyBankTime), (tick)0);

	mov	DWORD PTR $T167874[ebp], 0
	mov	DWORD PTR $T167874[ebp+4], 0
	mov	eax, DWORD PTR _this$[ebp]
	add	eax, 16					; 00000010H
	push	eax
	mov	ecx, DWORD PTR _this$[ebp]
	add	ecx, 104				; 00000068H
	push	ecx
	call	??$max@_J@std@@YAAB_JAB_J0@Z		; std::max<__int64>
	add	esp, 8
	mov	edx, DWORD PTR _currentTime$[ebp]
	sub	edx, DWORD PTR [eax]
	mov	ecx, DWORD PTR _currentTime$[ebp+4]
	sbb	ecx, DWORD PTR [eax+4]
	mov	DWORD PTR $T167875[ebp], edx
	mov	DWORD PTR $T167875[ebp+4], ecx
	lea	edx, DWORD PTR $T167874[ebp]
	push	edx
	lea	eax, DWORD PTR $T167875[ebp]
	push	eax
	call	??$max@_J@std@@YAAB_JAB_J0@Z		; std::max<__int64>
	add	esp, 8
	mov	ecx, DWORD PTR _this$[ebp]
	mov	edx, DWORD PTR [ecx+64]
	add	edx, DWORD PTR [eax]
	mov	ecx, DWORD PTR [ecx+68]
	adc	ecx, DWORD PTR [eax+4]
	mov	eax, DWORD PTR _this$[ebp]
	mov	DWORD PTR [eax+64], edx
	mov	DWORD PTR [eax+68], ecx

; 167  : 		for (vector<Bank>::const_iterator curBnk = bank.begin(); curBnk != bank.end(); curBnk++)

	lea	eax, DWORD PTR $T167876[ebp]
	push	eax
	mov	ecx, DWORD PTR _this$[ebp]
	add	ecx, 340				; 00000154H
	call	?begin@?$vector@VBank@DRAMsimII@@V?$allocator@VBank@DRAMsimII@@@std@@@std@@QAE?AV?$_Vector_iterator@VBank@DRAMsimII@@V?$allocator@VBank@DRAMsimII@@@std@@@2@XZ ; std::vector<DRAMsimII::Bank,std::allocator<DRAMsimII::Bank> >::begin
	mov	DWORD PTR tv152[ebp], eax
	mov	ecx, DWORD PTR tv152[ebp]
	mov	DWORD PTR tv231[ebp], ecx
	mov	DWORD PTR __$EHRec$[ebp+8], 0
	mov	edx, DWORD PTR tv231[ebp]
	push	edx
	lea	ecx, DWORD PTR _curBnk$141576[ebp]
	call	??0?$_Vector_const_iterator@VBank@DRAMsimII@@V?$allocator@VBank@DRAMsimII@@@std@@@std@@QAE@ABV01@@Z
	mov	BYTE PTR __$EHRec$[ebp+8], 2
	lea	ecx, DWORD PTR $T167876[ebp]
	call	??1?$_Vector_iterator@VBank@DRAMsimII@@V?$allocator@VBank@DRAMsimII@@@std@@@std@@QAE@XZ
	jmp	SHORT $LN3@issueRAS
$LN2@issueRAS:
	push	0
	lea	eax, DWORD PTR $T167877[ebp]
	push	eax
	lea	ecx, DWORD PTR _curBnk$141576[ebp]
	call	??E?$_Vector_const_iterator@VBank@DRAMsimII@@V?$allocator@VBank@DRAMsimII@@@std@@@std@@QAE?AV01@H@Z ; std::_Vector_const_iterator<DRAMsimII::Bank,std::allocator<DRAMsimII::Bank> >::operator++
	lea	ecx, DWORD PTR $T167877[ebp]
	call	??1?$_Vector_const_iterator@VBank@DRAMsimII@@V?$allocator@VBank@DRAMsimII@@@std@@@std@@QAE@XZ
$LN3@issueRAS:
	lea	eax, DWORD PTR $T167879[ebp]
	push	eax
	mov	ecx, DWORD PTR _this$[ebp]
	add	ecx, 340				; 00000154H
	call	?end@?$vector@VBank@DRAMsimII@@V?$allocator@VBank@DRAMsimII@@@std@@@std@@QAE?AV?$_Vector_iterator@VBank@DRAMsimII@@V?$allocator@VBank@DRAMsimII@@@std@@@2@XZ ; std::vector<DRAMsimII::Bank,std::allocator<DRAMsimII::Bank> >::end
	mov	DWORD PTR tv138[ebp], eax
	mov	ecx, DWORD PTR tv138[ebp]
	mov	DWORD PTR tv235[ebp], ecx
	mov	BYTE PTR __$EHRec$[ebp+8], 3
	mov	edx, DWORD PTR tv235[ebp]
	push	edx
	lea	ecx, DWORD PTR _curBnk$141576[ebp]
	call	??9?$_Vector_const_iterator@VBank@DRAMsimII@@V?$allocator@VBank@DRAMsimII@@@std@@@std@@QBE_NABV01@@Z ; std::_Vector_const_iterator<DRAMsimII::Bank,std::allocator<DRAMsimII::Bank> >::operator!=
	mov	BYTE PTR $T167878[ebp], al
	mov	BYTE PTR __$EHRec$[ebp+8], 2
	lea	ecx, DWORD PTR $T167879[ebp]
	call	??1?$_Vector_iterator@VBank@DRAMsimII@@V?$allocator@VBank@DRAMsimII@@@std@@@std@@QAE@XZ
	movzx	eax, BYTE PTR $T167878[ebp]
	test	eax, eax
	je	SHORT $LN1@issueRAS

; 168  : 			assert(!curBnk->isActivated());

	lea	ecx, DWORD PTR _curBnk$141576[ebp]
	call	??C?$_Vector_const_iterator@VBank@DRAMsimII@@V?$allocator@VBank@DRAMsimII@@@std@@@std@@QBEPBVBank@DRAMsimII@@XZ ; std::_Vector_const_iterator<DRAMsimII::Bank,std::allocator<DRAMsimII::Bank> >::operator->
	mov	ecx, eax
	call	?isActivated@Bank@DRAMsimII@@QBE_NXZ	; DRAMsimII::Bank::isActivated
	movzx	eax, al
	test	eax, eax
	je	SHORT $LN7@issueRAS
	mov	ecx, DWORD PTR ?__LINE__Var@?1??issueRAS@Rank@DRAMsimII@@QAEX_JPBVCommand@3@@Z@4JA
	add	ecx, 14					; 0000000eH
	mov	esi, esp
	push	ecx
	push	OFFSET ??_C@_1JM@MNHHEOID@?$AAc?$AA?3?$AA?2?$AAu?$AAs?$AAe?$AAr?$AAs?$AA?2?$AAc?$AAr?$AAi?$AAu?$AAs?$AA?2?$AAd?$AAo?$AAc?$AAu?$AAm?$AAe?$AAn?$AAt?$AAs?$AA?2?$AAv?$AAi?$AAs?$AAu?$AAa?$AAl?$AA?5@
	push	OFFSET ??_C@_1CO@OLFFGNCN@?$AA?$CB?$AAc?$AAu?$AAr?$AAB?$AAn?$AAk?$AA?9?$AA?$DO?$AAi?$AAs?$AAA?$AAc?$AAt?$AAi?$AAv?$AAa?$AAt?$AAe?$AAd?$AA?$CI?$AA?$CJ?$AA?$AA@
	call	DWORD PTR __imp___wassert
	add	esp, 12					; 0000000cH
	cmp	esi, esp
	call	__RTC_CheckEsp
$LN7@issueRAS:
	jmp	$LN2@issueRAS
$LN1@issueRAS:
	mov	DWORD PTR __$EHRec$[ebp+8], -1
	lea	ecx, DWORD PTR _curBnk$141576[ebp]
	call	??1?$_Vector_const_iterator@VBank@DRAMsimII@@V?$allocator@VBank@DRAMsimII@@@std@@@std@@QAE@XZ
$LN4@issueRAS:

; 169  : 	}	
; 170  : 	banksPrecharged--;

	mov	eax, DWORD PTR _this$[ebp]
	mov	ecx, DWORD PTR [eax+144]
	sub	ecx, 1
	mov	edx, DWORD PTR _this$[ebp]
	mov	DWORD PTR [edx+144], ecx

; 171  : 	assert(banksPrecharged < bank.size());

	mov	ecx, DWORD PTR _this$[ebp]
	add	ecx, 340				; 00000154H
	call	?size@?$vector@VBank@DRAMsimII@@V?$allocator@VBank@DRAMsimII@@@std@@@std@@QBEIXZ ; std::vector<DRAMsimII::Bank,std::allocator<DRAMsimII::Bank> >::size
	mov	ecx, DWORD PTR _this$[ebp]
	cmp	DWORD PTR [ecx+144], eax
	jb	SHORT $LN8@issueRAS
	mov	edx, DWORD PTR ?__LINE__Var@?1??issueRAS@Rank@DRAMsimII@@QAEX_JPBVCommand@3@@Z@4JA
	add	edx, 17					; 00000011H
	mov	esi, esp
	push	edx
	push	OFFSET ??_C@_1JM@MNHHEOID@?$AAc?$AA?3?$AA?2?$AAu?$AAs?$AAe?$AAr?$AAs?$AA?2?$AAc?$AAr?$AAi?$AAu?$AAs?$AA?2?$AAd?$AAo?$AAc?$AAu?$AAm?$AAe?$AAn?$AAt?$AAs?$AA?2?$AAv?$AAi?$AAs?$AAu?$AAa?$AAl?$AA?5@
	push	OFFSET ??_C@_1DM@HOGIEIBP@?$AAb?$AAa?$AAn?$AAk?$AAs?$AAP?$AAr?$AAe?$AAc?$AAh?$AAa?$AAr?$AAg?$AAe?$AAd?$AA?5?$AA?$DM?$AA?5?$AAb?$AAa?$AAn?$AAk?$AA?4?$AAs?$AAi?$AAz?$AAe?$AA?$CI?$AA?$CJ?$AA?$AA@
	call	DWORD PTR __imp___wassert
	add	esp, 12					; 0000000cH
	cmp	esi, esp
	call	__RTC_CheckEsp
$LN8@issueRAS:

; 172  : 	// update the bank to reflect this change also
; 173  : 	bank[currentCommand->getAddress().getBank()].issueRAS(currentTime,currentCommand);

	mov	eax, DWORD PTR _currentCommand$[ebp]
	push	eax
	mov	ecx, DWORD PTR _currentTime$[ebp+4]
	push	ecx
	mov	edx, DWORD PTR _currentTime$[ebp]
	push	edx
	mov	ecx, DWORD PTR _currentCommand$[ebp]
	call	?getAddress@Event@DRAMsimII@@QBEABVAddress@2@XZ ; DRAMsimII::Event::getAddress
	mov	ecx, eax
	call	?getBank@Address@DRAMsimII@@QBEIXZ	; DRAMsimII::Address::getBank
	push	eax
	mov	ecx, DWORD PTR _this$[ebp]
	add	ecx, 340				; 00000154H
	call	??A?$vector@VBank@DRAMsimII@@V?$allocator@VBank@DRAMsimII@@@std@@@std@@QAEAAVBank@DRAMsimII@@I@Z ; std::vector<DRAMsimII::Bank,std::allocator<DRAMsimII::Bank> >::operator[]
	mov	ecx, eax
	call	?issueRAS@Bank@DRAMsimII@@QAEX_JPBVCommand@2@@Z ; DRAMsimII::Bank::issueRAS

; 174  : 
; 175  : 	// calculate when the next few commands can happen
; 176  : 	nextActivateTime = max(currentTime + timing.tRRD(), max(lastActivateTimes.back() + timing.tFAW() , nextActivateTime));

	mov	ecx, DWORD PTR _this$[ebp]
	add	ecx, 312				; 00000138H
	call	?back@?$circular_buffer@_JV?$allocator@_J@std@@@boost@@QAEAA_JXZ ; boost::circular_buffer<__int64,std::allocator<__int64> >::back
	mov	esi, eax
	mov	eax, DWORD PTR _this$[ebp]
	mov	ecx, DWORD PTR [eax]
	call	?tFAW@TimingSpecification@DRAMsimII@@QBEHXZ ; DRAMsimII::TimingSpecification::tFAW
	cdq
	add	eax, DWORD PTR [esi]
	mov	ecx, DWORD PTR [esi+4]
	adc	ecx, edx
	mov	DWORD PTR $T167882[ebp], eax
	mov	DWORD PTR $T167882[ebp+4], ecx
	mov	edx, DWORD PTR _this$[ebp]
	mov	ecx, DWORD PTR [edx]
	call	?tRRD@TimingSpecification@DRAMsimII@@QBEHXZ ; DRAMsimII::TimingSpecification::tRRD
	cdq
	add	eax, DWORD PTR _currentTime$[ebp]
	mov	ecx, DWORD PTR _currentTime$[ebp+4]
	adc	ecx, edx
	mov	DWORD PTR $T167883[ebp], eax
	mov	DWORD PTR $T167883[ebp+4], ecx
	mov	edx, DWORD PTR _this$[ebp]
	add	edx, 72					; 00000048H
	push	edx
	lea	eax, DWORD PTR $T167882[ebp]
	push	eax
	call	??$max@_J@std@@YAAB_JAB_J0@Z		; std::max<__int64>
	add	esp, 8
	push	eax
	lea	ecx, DWORD PTR $T167883[ebp]
	push	ecx
	call	??$max@_J@std@@YAAB_JAB_J0@Z		; std::max<__int64>
	add	esp, 8
	mov	edx, DWORD PTR _this$[ebp]
	mov	ecx, DWORD PTR [eax]
	mov	DWORD PTR [edx+72], ecx
	mov	eax, DWORD PTR [eax+4]
	mov	DWORD PTR [edx+76], eax

; 177  : }

	push	edx
	mov	ecx, ebp
	push	eax
	lea	edx, DWORD PTR $LN17@issueRAS
	call	@_RTC_CheckStackVars@8
	pop	eax
	pop	edx
	mov	ecx, DWORD PTR __$EHRec$[ebp]
	mov	DWORD PTR fs:0, ecx
	pop	ecx
	pop	edi
	pop	esi
	pop	ebx
	add	esp, 428				; 000001acH
	cmp	ebp, esp
	call	__RTC_CheckEsp
	mov	esp, ebp
	pop	ebp
	ret	12					; 0000000cH
	npad	3
$LN17@issueRAS:
	DD	2
	DD	$LN16@issueRAS
$LN16@issueRAS:
	DD	-36					; ffffffdcH
	DD	8
	DD	$LN13@issueRAS
	DD	-56					; ffffffc8H
	DD	12					; 0000000cH
	DD	$LN14@issueRAS
$LN14@issueRAS:
	DB	99					; 00000063H
	DB	117					; 00000075H
	DB	114					; 00000072H
	DB	66					; 00000042H
	DB	110					; 0000006eH
	DB	107					; 0000006bH
	DB	0
$LN13@issueRAS:
	DB	116					; 00000074H
	DB	104					; 00000068H
	DB	105					; 00000069H
	DB	115					; 00000073H
	DB	82					; 00000052H
	DB	65					; 00000041H
	DB	83					; 00000053H
	DB	84					; 00000054H
	DB	105					; 00000069H
	DB	109					; 0000006dH
	DB	101					; 00000065H
	DB	0
_TEXT	ENDS
;	COMDAT text$x
text$x	SEGMENT
__unwindfunclet$?issueRAS@Rank@DRAMsimII@@QAEX_JPBVCommand@2@@Z$0:
	lea	ecx, DWORD PTR $T167876[ebp]
	jmp	??1?$_Vector_iterator@VBank@DRAMsimII@@V?$allocator@VBank@DRAMsimII@@@std@@@std@@QAE@XZ
__unwindfunclet$?issueRAS@Rank@DRAMsimII@@QAEX_JPBVCommand@2@@Z$1:
	lea	ecx, DWORD PTR _curBnk$141576[ebp]
	jmp	??1?$_Vector_const_iterator@VBank@DRAMsimII@@V?$allocator@VBank@DRAMsimII@@@std@@@std@@QAE@XZ
__unwindfunclet$?issueRAS@Rank@DRAMsimII@@QAEX_JPBVCommand@2@@Z$3:
	lea	ecx, DWORD PTR $T167879[ebp]
	jmp	??1?$_Vector_iterator@VBank@DRAMsimII@@V?$allocator@VBank@DRAMsimII@@@std@@@std@@QAE@XZ
__ehhandler$?issueRAS@Rank@DRAMsimII@@QAEX_JPBVCommand@2@@Z:
	mov	edx, DWORD PTR [esp+8]
	lea	eax, DWORD PTR [edx+12]
	mov	ecx, DWORD PTR [edx-432]
	xor	ecx, eax
	call	@__security_check_cookie@4
	mov	eax, OFFSET __ehfuncinfo$?issueRAS@Rank@DRAMsimII@@QAEX_JPBVCommand@2@@Z
	jmp	___CxxFrameHandler3
text$x	ENDS
?issueRAS@Rank@DRAMsimII@@QAEX_JPBVCommand@2@@Z ENDP	; DRAMsimII::Rank::issueRAS
; Function compile flags: /Odtp /RTCcsu /ZI
; File c:\users\crius\documents\visual studio 2008\projects\dramsimiihg\src\address.h
;	COMDAT ?getBank@Address@DRAMsimII@@QBEIXZ
_TEXT	SEGMENT
_this$ = -8						; size = 4
?getBank@Address@DRAMsimII@@QBEIXZ PROC			; DRAMsimII::Address::getBank, COMDAT
; _this$ = ecx

; 88   : 		unsigned getBank() const { return bank; }

	push	ebp
	mov	ebp, esp
	sub	esp, 204				; 000000ccH
	push	ebx
	push	esi
	push	edi
	push	ecx
	lea	edi, DWORD PTR [ebp-204]
	mov	ecx, 51					; 00000033H
	mov	eax, -858993460				; ccccccccH
	rep stosd
	pop	ecx
	mov	DWORD PTR _this$[ebp], ecx
	mov	eax, DWORD PTR _this$[ebp]
	mov	eax, DWORD PTR [eax+24]
	pop	edi
	pop	esi
	pop	ebx
	mov	esp, ebp
	pop	ebp
	ret	0
?getBank@Address@DRAMsimII@@QBEIXZ ENDP			; DRAMsimII::Address::getBank
; Function compile flags: /Odtp /RTCcsu /ZI
; File c:\users\crius\documents\visual studio 2008\projects\dramsimiihg\src\event.h
_TEXT	ENDS
;	COMDAT ?getAddress@Event@DRAMsimII@@QBEABVAddress@2@XZ
_TEXT	SEGMENT
_this$ = -8						; size = 4
?getAddress@Event@DRAMsimII@@QBEABVAddress@2@XZ PROC	; DRAMsimII::Event::getAddress, COMDAT
; _this$ = ecx

; 89   : 		const Address &getAddress() const { return address; }

	push	ebp
	mov	ebp, esp
	sub	esp, 204				; 000000ccH
	push	ebx
	push	esi
	push	edi
	push	ecx
	lea	edi, DWORD PTR [ebp-204]
	mov	ecx, 51					; 00000033H
	mov	eax, -858993460				; ccccccccH
	rep stosd
	pop	ecx
	mov	DWORD PTR _this$[ebp], ecx
	mov	eax, DWORD PTR _this$[ebp]
	add	eax, 40					; 00000028H
	pop	edi
	pop	esi
	pop	ebx
	mov	esp, ebp
	pop	ebp
	ret	0
?getAddress@Event@DRAMsimII@@QBEABVAddress@2@XZ ENDP	; DRAMsimII::Event::getAddress
; Function compile flags: /Odtp /RTCcsu /ZI
; File c:\users\crius\documents\visual studio 2008\projects\dramsimiihg\src\timingspecification.h
_TEXT	ENDS
;	COMDAT ?tRRD@TimingSpecification@DRAMsimII@@QBEHXZ
_TEXT	SEGMENT
_this$ = -8						; size = 4
?tRRD@TimingSpecification@DRAMsimII@@QBEHXZ PROC	; DRAMsimII::TimingSpecification::tRRD, COMDAT
; _this$ = ecx

; 77   : 		int tRRD() const { return t_rrd; }

	push	ebp
	mov	ebp, esp
	sub	esp, 204				; 000000ccH
	push	ebx
	push	esi
	push	edi
	push	ecx
	lea	edi, DWORD PTR [ebp-204]
	mov	ecx, 51					; 00000033H
	mov	eax, -858993460				; ccccccccH
	rep stosd
	pop	ecx
	mov	DWORD PTR _this$[ebp], ecx
	mov	eax, DWORD PTR _this$[ebp]
	mov	eax, DWORD PTR [eax+48]
	pop	edi
	pop	esi
	pop	ebx
	mov	esp, ebp
	pop	ebp
	ret	0
?tRRD@TimingSpecification@DRAMsimII@@QBEHXZ ENDP	; DRAMsimII::TimingSpecification::tRRD
; Function compile flags: /Odtp /RTCcsu /ZI
_TEXT	ENDS
;	COMDAT ?tFAW@TimingSpecification@DRAMsimII@@QBEHXZ
_TEXT	SEGMENT
_this$ = -8						; size = 4
?tFAW@TimingSpecification@DRAMsimII@@QBEHXZ PROC	; DRAMsimII::TimingSpecification::tFAW, COMDAT
; _this$ = ecx

; 78   : 		int tFAW() const { return t_faw; }

	push	ebp
	mov	ebp, esp
	sub	esp, 204				; 000000ccH
	push	ebx
	push	esi
	push	edi
	push	ecx
	lea	edi, DWORD PTR [ebp-204]
	mov	ecx, 51					; 00000033H
	mov	eax, -858993460				; ccccccccH
	rep stosd
	pop	ecx
	mov	DWORD PTR _this$[ebp], ecx
	mov	eax, DWORD PTR _this$[ebp]
	mov	eax, DWORD PTR [eax+24]
	pop	edi
	pop	esi
	pop	ebx
	mov	esp, ebp
	pop	ebp
	ret	0
?tFAW@TimingSpecification@DRAMsimII@@QBEHXZ ENDP	; DRAMsimII::TimingSpecification::tFAW
; Function compile flags: /Odtp /RTCcsu /ZI
; File c:\users\crius\documents\visual studio 2008\projects\dramsimiihg\src\bank.h
_TEXT	ENDS
;	COMDAT ?isActivated@Bank@DRAMsimII@@QBE_NXZ
_TEXT	SEGMENT
_this$ = -8						; size = 4
?isActivated@Bank@DRAMsimII@@QBE_NXZ PROC		; DRAMsimII::Bank::isActivated, COMDAT
; _this$ = ecx

; 92   : 		bool isActivated() const { return activated; }

	push	ebp
	mov	ebp, esp
	sub	esp, 204				; 000000ccH
	push	ebx
	push	esi
	push	edi
	push	ecx
	lea	edi, DWORD PTR [ebp-204]
	mov	ecx, 51					; 00000033H
	mov	eax, -858993460				; ccccccccH
	rep stosd
	pop	ecx
	mov	DWORD PTR _this$[ebp], ecx
	mov	eax, DWORD PTR _this$[ebp]
	mov	al, BYTE PTR [eax+124]
	pop	edi
	pop	esi
	pop	ebx
	mov	esp, ebp
	pop	ebp
	ret	0
?isActivated@Bank@DRAMsimII@@QBE_NXZ ENDP		; DRAMsimII::Bank::isActivated
; Function compile flags: /Odtp /RTCcsu /ZI
_TEXT	ENDS
;	COMDAT ??1?$_Vector_iterator@VBank@DRAMsimII@@V?$allocator@VBank@DRAMsimII@@@std@@@std@@QAE@XZ
_TEXT	SEGMENT
_this$ = -8						; size = 4
??1?$_Vector_iterator@VBank@DRAMsimII@@V?$allocator@VBank@DRAMsimII@@@std@@@std@@QAE@XZ PROC ; std::_Vector_iterator<DRAMsimII::Bank,std::allocator<DRAMsimII::Bank> >::~_Vector_iterator<DRAMsimII::Bank,std::allocator<DRAMsimII::Bank> >, COMDAT
; _this$ = ecx
	push	ebp
	mov	ebp, esp
	sub	esp, 204				; 000000ccH
	push	ebx
	push	esi
	push	edi
	push	ecx
	lea	edi, DWORD PTR [ebp-204]
	mov	ecx, 51					; 00000033H
	mov	eax, -858993460				; ccccccccH
	rep stosd
	pop	ecx
	mov	DWORD PTR _this$[ebp], ecx
	mov	ecx, DWORD PTR _this$[ebp]
	call	??1?$_Vector_const_iterator@VBank@DRAMsimII@@V?$allocator@VBank@DRAMsimII@@@std@@@std@@QAE@XZ
	pop	edi
	pop	esi
	pop	ebx
	add	esp, 204				; 000000ccH
	cmp	ebp, esp
	call	__RTC_CheckEsp
	mov	esp, ebp
	pop	ebp
	ret	0
??1?$_Vector_iterator@VBank@DRAMsimII@@V?$allocator@VBank@DRAMsimII@@@std@@@std@@QAE@XZ ENDP ; std::_Vector_iterator<DRAMsimII::Bank,std::allocator<DRAMsimII::Bank> >::~_Vector_iterator<DRAMsimII::Bank,std::allocator<DRAMsimII::Bank> >
_TEXT	ENDS
PUBLIC	??0?$_Ranit@VBank@DRAMsimII@@HPBV12@ABV12@@std@@QAE@ABU01@@Z ; std::_Ranit<DRAMsimII::Bank,int,DRAMsimII::Bank const *,DRAMsimII::Bank const &>::_Ranit<DRAMsimII::Bank,int,DRAMsimII::Bank const *,DRAMsimII::Bank const &>
; Function compile flags: /Odtp /RTCcsu /ZI
;	COMDAT ??0?$_Vector_const_iterator@VBank@DRAMsimII@@V?$allocator@VBank@DRAMsimII@@@std@@@std@@QAE@ABV01@@Z
_TEXT	SEGMENT
_this$ = -8						; size = 4
___that$ = 8						; size = 4
??0?$_Vector_const_iterator@VBank@DRAMsimII@@V?$allocator@VBank@DRAMsimII@@@std@@@std@@QAE@ABV01@@Z PROC ; std::_Vector_const_iterator<DRAMsimII::Bank,std::allocator<DRAMsimII::Bank> >::_Vector_const_iterator<DRAMsimII::Bank,std::allocator<DRAMsimII::Bank> >, COMDAT
; _this$ = ecx
	push	ebp
	mov	ebp, esp
	sub	esp, 204				; 000000ccH
	push	ebx
	push	esi
	push	edi
	push	ecx
	lea	edi, DWORD PTR [ebp-204]
	mov	ecx, 51					; 00000033H
	mov	eax, -858993460				; ccccccccH
	rep stosd
	pop	ecx
	mov	DWORD PTR _this$[ebp], ecx
	mov	eax, DWORD PTR ___that$[ebp]
	push	eax
	mov	ecx, DWORD PTR _this$[ebp]
	call	??0?$_Ranit@VBank@DRAMsimII@@HPBV12@ABV12@@std@@QAE@ABU01@@Z
	mov	eax, DWORD PTR _this$[ebp]
	mov	ecx, DWORD PTR ___that$[ebp]
	mov	edx, DWORD PTR [ecx+8]
	mov	DWORD PTR [eax+8], edx
	mov	eax, DWORD PTR _this$[ebp]
	pop	edi
	pop	esi
	pop	ebx
	add	esp, 204				; 000000ccH
	cmp	ebp, esp
	call	__RTC_CheckEsp
	mov	esp, ebp
	pop	ebp
	ret	4
??0?$_Vector_const_iterator@VBank@DRAMsimII@@V?$allocator@VBank@DRAMsimII@@@std@@@std@@QAE@ABV01@@Z ENDP ; std::_Vector_const_iterator<DRAMsimII::Bank,std::allocator<DRAMsimII::Bank> >::_Vector_const_iterator<DRAMsimII::Bank,std::allocator<DRAMsimII::Bank> >
_TEXT	ENDS
PUBLIC	??1?$_Ranit@VBank@DRAMsimII@@HPBV12@ABV12@@std@@QAE@XZ ; std::_Ranit<DRAMsimII::Bank,int,DRAMsimII::Bank const *,DRAMsimII::Bank const &>::~_Ranit<DRAMsimII::Bank,int,DRAMsimII::Bank const *,DRAMsimII::Bank const &>
; Function compile flags: /Odtp /RTCcsu /ZI
;	COMDAT ??1?$_Vector_const_iterator@VBank@DRAMsimII@@V?$allocator@VBank@DRAMsimII@@@std@@@std@@QAE@XZ
_TEXT	SEGMENT
_this$ = -8						; size = 4
??1?$_Vector_const_iterator@VBank@DRAMsimII@@V?$allocator@VBank@DRAMsimII@@@std@@@std@@QAE@XZ PROC ; std::_Vector_const_iterator<DRAMsimII::Bank,std::allocator<DRAMsimII::Bank> >::~_Vector_const_iterator<DRAMsimII::Bank,std::allocator<DRAMsimII::Bank> >, COMDAT
; _this$ = ecx
	push	ebp
	mov	ebp, esp
	sub	esp, 204				; 000000ccH
	push	ebx
	push	esi
	push	edi
	push	ecx
	lea	edi, DWORD PTR [ebp-204]
	mov	ecx, 51					; 00000033H
	mov	eax, -858993460				; ccccccccH
	rep stosd
	pop	ecx
	mov	DWORD PTR _this$[ebp], ecx
	mov	ecx, DWORD PTR _this$[ebp]
	call	??1?$_Ranit@VBank@DRAMsimII@@HPBV12@ABV12@@std@@QAE@XZ
	pop	edi
	pop	esi
	pop	ebx
	add	esp, 204				; 000000ccH
	cmp	ebp, esp
	call	__RTC_CheckEsp
	mov	esp, ebp
	pop	ebp
	ret	0
??1?$_Vector_const_iterator@VBank@DRAMsimII@@V?$allocator@VBank@DRAMsimII@@@std@@@std@@QAE@XZ ENDP ; std::_Vector_const_iterator<DRAMsimII::Bank,std::allocator<DRAMsimII::Bank> >::~_Vector_const_iterator<DRAMsimII::Bank,std::allocator<DRAMsimII::Bank> >
_TEXT	ENDS
PUBLIC	??0?$_Iterator_with_base@Urandom_access_iterator_tag@std@@VBank@DRAMsimII@@HPBV34@ABV34@V_Iterator_base@2@@std@@QAE@ABU01@@Z ; std::_Iterator_with_base<std::random_access_iterator_tag,DRAMsimII::Bank,int,DRAMsimII::Bank const *,DRAMsimII::Bank const &,std::_Iterator_base>::_Iterator_with_base<std::random_access_iterator_tag,DRAMsimII::Bank,int,DRAMsimII::Bank const *,DRAMsimII::Bank const &,std::_Iterator_base>
; Function compile flags: /Odtp /RTCcsu /ZI
;	COMDAT ??0?$_Ranit@VBank@DRAMsimII@@HPBV12@ABV12@@std@@QAE@ABU01@@Z
_TEXT	SEGMENT
_this$ = -8						; size = 4
___that$ = 8						; size = 4
??0?$_Ranit@VBank@DRAMsimII@@HPBV12@ABV12@@std@@QAE@ABU01@@Z PROC ; std::_Ranit<DRAMsimII::Bank,int,DRAMsimII::Bank const *,DRAMsimII::Bank const &>::_Ranit<DRAMsimII::Bank,int,DRAMsimII::Bank const *,DRAMsimII::Bank const &>, COMDAT
; _this$ = ecx
	push	ebp
	mov	ebp, esp
	sub	esp, 204				; 000000ccH
	push	ebx
	push	esi
	push	edi
	push	ecx
	lea	edi, DWORD PTR [ebp-204]
	mov	ecx, 51					; 00000033H
	mov	eax, -858993460				; ccccccccH
	rep stosd
	pop	ecx
	mov	DWORD PTR _this$[ebp], ecx
	mov	eax, DWORD PTR ___that$[ebp]
	push	eax
	mov	ecx, DWORD PTR _this$[ebp]
	call	??0?$_Iterator_with_base@Urandom_access_iterator_tag@std@@VBank@DRAMsimII@@HPBV34@ABV34@V_Iterator_base@2@@std@@QAE@ABU01@@Z
	mov	eax, DWORD PTR _this$[ebp]
	pop	edi
	pop	esi
	pop	ebx
	add	esp, 204				; 000000ccH
	cmp	ebp, esp
	call	__RTC_CheckEsp
	mov	esp, ebp
	pop	ebp
	ret	4
??0?$_Ranit@VBank@DRAMsimII@@HPBV12@ABV12@@std@@QAE@ABU01@@Z ENDP ; std::_Ranit<DRAMsimII::Bank,int,DRAMsimII::Bank const *,DRAMsimII::Bank const &>::_Ranit<DRAMsimII::Bank,int,DRAMsimII::Bank const *,DRAMsimII::Bank const &>
_TEXT	ENDS
PUBLIC	??1?$_Iterator_with_base@Urandom_access_iterator_tag@std@@VBank@DRAMsimII@@HPBV34@ABV34@V_Iterator_base@2@@std@@QAE@XZ ; std::_Iterator_with_base<std::random_access_iterator_tag,DRAMsimII::Bank,int,DRAMsimII::Bank const *,DRAMsimII::Bank const &,std::_Iterator_base>::~_Iterator_with_base<std::random_access_iterator_tag,DRAMsimII::Bank,int,DRAMsimII::Bank const *,DRAMsimII::Bank const &,std::_Iterator_base>
; Function compile flags: /Odtp /RTCcsu /ZI
;	COMDAT ??1?$_Ranit@VBank@DRAMsimII@@HPBV12@ABV12@@std@@QAE@XZ
_TEXT	SEGMENT
_this$ = -8						; size = 4
??1?$_Ranit@VBank@DRAMsimII@@HPBV12@ABV12@@std@@QAE@XZ PROC ; std::_Ranit<DRAMsimII::Bank,int,DRAMsimII::Bank const *,DRAMsimII::Bank const &>::~_Ranit<DRAMsimII::Bank,int,DRAMsimII::Bank const *,DRAMsimII::Bank const &>, COMDAT
; _this$ = ecx
	push	ebp
	mov	ebp, esp
	sub	esp, 204				; 000000ccH
	push	ebx
	push	esi
	push	edi
	push	ecx
	lea	edi, DWORD PTR [ebp-204]
	mov	ecx, 51					; 00000033H
	mov	eax, -858993460				; ccccccccH
	rep stosd
	pop	ecx
	mov	DWORD PTR _this$[ebp], ecx
	mov	ecx, DWORD PTR _this$[ebp]
	call	??1?$_Iterator_with_base@Urandom_access_iterator_tag@std@@VBank@DRAMsimII@@HPBV34@ABV34@V_Iterator_base@2@@std@@QAE@XZ
	pop	edi
	pop	esi
	pop	ebx
	add	esp, 204				; 000000ccH
	cmp	ebp, esp
	call	__RTC_CheckEsp
	mov	esp, ebp
	pop	ebp
	ret	0
??1?$_Ranit@VBank@DRAMsimII@@HPBV12@ABV12@@std@@QAE@XZ ENDP ; std::_Ranit<DRAMsimII::Bank,int,DRAMsimII::Bank const *,DRAMsimII::Bank const &>::~_Ranit<DRAMsimII::Bank,int,DRAMsimII::Bank const *,DRAMsimII::Bank const &>
_TEXT	ENDS
PUBLIC	??0_Iterator_base@std@@QAE@ABV01@@Z		; std::_Iterator_base::_Iterator_base
; Function compile flags: /Odtp /RTCcsu /ZI
;	COMDAT ??0?$_Iterator_with_base@Urandom_access_iterator_tag@std@@VBank@DRAMsimII@@HPBV34@ABV34@V_Iterator_base@2@@std@@QAE@ABU01@@Z
_TEXT	SEGMENT
_this$ = -8						; size = 4
___that$ = 8						; size = 4
??0?$_Iterator_with_base@Urandom_access_iterator_tag@std@@VBank@DRAMsimII@@HPBV34@ABV34@V_Iterator_base@2@@std@@QAE@ABU01@@Z PROC ; std::_Iterator_with_base<std::random_access_iterator_tag,DRAMsimII::Bank,int,DRAMsimII::Bank const *,DRAMsimII::Bank const &,std::_Iterator_base>::_Iterator_with_base<std::random_access_iterator_tag,DRAMsimII::Bank,int,DRAMsimII::Bank const *,DRAMsimII::Bank const &,std::_Iterator_base>, COMDAT
; _this$ = ecx
	push	ebp
	mov	ebp, esp
	sub	esp, 204				; 000000ccH
	push	ebx
	push	esi
	push	edi
	push	ecx
	lea	edi, DWORD PTR [ebp-204]
	mov	ecx, 51					; 00000033H
	mov	eax, -858993460				; ccccccccH
	rep stosd
	pop	ecx
	mov	DWORD PTR _this$[ebp], ecx
	mov	eax, DWORD PTR ___that$[ebp]
	push	eax
	mov	ecx, DWORD PTR _this$[ebp]
	call	??0_Iterator_base@std@@QAE@ABV01@@Z	; std::_Iterator_base::_Iterator_base
	mov	eax, DWORD PTR _this$[ebp]
	pop	edi
	pop	esi
	pop	ebx
	add	esp, 204				; 000000ccH
	cmp	ebp, esp
	call	__RTC_CheckEsp
	mov	esp, ebp
	pop	ebp
	ret	4
??0?$_Iterator_with_base@Urandom_access_iterator_tag@std@@VBank@DRAMsimII@@HPBV34@ABV34@V_Iterator_base@2@@std@@QAE@ABU01@@Z ENDP ; std::_Iterator_with_base<std::random_access_iterator_tag,DRAMsimII::Bank,int,DRAMsimII::Bank const *,DRAMsimII::Bank const &,std::_Iterator_base>::_Iterator_with_base<std::random_access_iterator_tag,DRAMsimII::Bank,int,DRAMsimII::Bank const *,DRAMsimII::Bank const &,std::_Iterator_base>
_TEXT	ENDS
PUBLIC	??4_Iterator_base@std@@QAEAAV01@ABV01@@Z	; std::_Iterator_base::operator=
; Function compile flags: /Odtp /RTCcsu /ZI
; File c:\program files\microsoft visual studio 9.0\vc\include\xutility
;	COMDAT ??0_Iterator_base@std@@QAE@ABV01@@Z
_TEXT	SEGMENT
_this$ = -8						; size = 4
__Right$ = 8						; size = 4
??0_Iterator_base@std@@QAE@ABV01@@Z PROC		; std::_Iterator_base::_Iterator_base, COMDAT
; _this$ = ecx

; 143  : 		{	// copy an iterator

	push	ebp
	mov	ebp, esp
	sub	esp, 204				; 000000ccH
	push	ebx
	push	esi
	push	edi
	push	ecx
	lea	edi, DWORD PTR [ebp-204]
	mov	ecx, 51					; 00000033H
	mov	eax, -858993460				; ccccccccH
	rep stosd
	pop	ecx
	mov	DWORD PTR _this$[ebp], ecx
	mov	eax, DWORD PTR _this$[ebp]
	mov	DWORD PTR [eax], 0
	mov	eax, DWORD PTR _this$[ebp]
	mov	DWORD PTR [eax+4], 0

; 144  : 		*this = _Right;

	mov	eax, DWORD PTR __Right$[ebp]
	push	eax
	mov	ecx, DWORD PTR _this$[ebp]
	call	??4_Iterator_base@std@@QAEAAV01@ABV01@@Z ; std::_Iterator_base::operator=

; 145  : 		}

	mov	eax, DWORD PTR _this$[ebp]
	pop	edi
	pop	esi
	pop	ebx
	add	esp, 204				; 000000ccH
	cmp	ebp, esp
	call	__RTC_CheckEsp
	mov	esp, ebp
	pop	ebp
	ret	4
??0_Iterator_base@std@@QAE@ABV01@@Z ENDP		; std::_Iterator_base::_Iterator_base
_TEXT	ENDS
PUBLIC	?_Adopt@_Iterator_base@std@@QAEXPBV_Container_base_secure@2@@Z ; std::_Iterator_base::_Adopt
PUBLIC	?_Orphan_me@_Iterator_base@std@@QAEXXZ		; std::_Iterator_base::_Orphan_me
EXTRN	__imp_??1_Lockit@std@@QAE@XZ:PROC
EXTRN	__imp_??0_Lockit@std@@QAE@H@Z:PROC
;	COMDAT xdata$x
xdata$x	SEGMENT
__unwindtable$??4_Iterator_base@std@@QAEAAV01@ABV01@@Z DD 0ffffffffH
	DD	FLAT:__unwindfunclet$??4_Iterator_base@std@@QAEAAV01@ABV01@@Z$0
__ehfuncinfo$??4_Iterator_base@std@@QAEAAV01@ABV01@@Z DD 019930522H
	DD	01H
	DD	FLAT:__unwindtable$??4_Iterator_base@std@@QAEAAV01@ABV01@@Z
	DD	2 DUP(00H)
	DD	2 DUP(00H)
	DD	00H
	DD	01H
; Function compile flags: /Odtp /RTCcsu /ZI
xdata$x	ENDS
;	COMDAT ??4_Iterator_base@std@@QAEAAV01@ABV01@@Z
_TEXT	SEGMENT
__Lock$7694 = -32					; size = 4
_this$ = -20						; size = 4
__$EHRec$ = -12						; size = 12
__Right$ = 8						; size = 4
??4_Iterator_base@std@@QAEAAV01@ABV01@@Z PROC		; std::_Iterator_base::operator=, COMDAT
; _this$ = ecx

; 148  : 		{	// assign an iterator

	push	ebp
	mov	ebp, esp
	push	-1
	push	__ehhandler$??4_Iterator_base@std@@QAEAAV01@ABV01@@Z
	mov	eax, DWORD PTR fs:0
	push	eax
	sub	esp, 216				; 000000d8H
	push	ebx
	push	esi
	push	edi
	push	ecx
	lea	edi, DWORD PTR [ebp-228]
	mov	ecx, 54					; 00000036H
	mov	eax, -858993460				; ccccccccH
	rep stosd
	pop	ecx
	mov	eax, DWORD PTR ___security_cookie
	xor	eax, ebp
	push	eax
	lea	eax, DWORD PTR __$EHRec$[ebp]
	mov	DWORD PTR fs:0, eax
	mov	DWORD PTR _this$[ebp], ecx

; 149  : 		if (_Mycont != _Right._Mycont)

	mov	eax, DWORD PTR _this$[ebp]
	mov	ecx, DWORD PTR __Right$[ebp]
	mov	edx, DWORD PTR [eax]
	cmp	edx, DWORD PTR [ecx]
	je	SHORT $LN1@operator

; 150  : 			{	// change parentage
; 151  : 			_Lockit _Lock(_LOCK_DEBUG);

	mov	esi, esp
	push	3
	lea	ecx, DWORD PTR __Lock$7694[ebp]
	call	DWORD PTR __imp_??0_Lockit@std@@QAE@H@Z
	cmp	esi, esp
	call	__RTC_CheckEsp
	mov	DWORD PTR __$EHRec$[ebp+8], 0

; 152  : 			_Orphan_me();

	mov	ecx, DWORD PTR _this$[ebp]
	call	?_Orphan_me@_Iterator_base@std@@QAEXXZ	; std::_Iterator_base::_Orphan_me

; 153  : 			_Adopt(_Right._Mycont);

	mov	eax, DWORD PTR __Right$[ebp]
	mov	ecx, DWORD PTR [eax]
	push	ecx
	mov	ecx, DWORD PTR _this$[ebp]
	call	?_Adopt@_Iterator_base@std@@QAEXPBV_Container_base_secure@2@@Z ; std::_Iterator_base::_Adopt

; 154  : 			}

	mov	DWORD PTR __$EHRec$[ebp+8], -1
	mov	esi, esp
	lea	ecx, DWORD PTR __Lock$7694[ebp]
	call	DWORD PTR __imp_??1_Lockit@std@@QAE@XZ
	cmp	esi, esp
	call	__RTC_CheckEsp
$LN1@operator:

; 155  : 		return (*this);

	mov	eax, DWORD PTR _this$[ebp]

; 156  : 		}

	push	edx
	mov	ecx, ebp
	push	eax
	lea	edx, DWORD PTR $LN8@operator
	call	@_RTC_CheckStackVars@8
	pop	eax
	pop	edx
	mov	ecx, DWORD PTR __$EHRec$[ebp]
	mov	DWORD PTR fs:0, ecx
	pop	ecx
	pop	edi
	pop	esi
	pop	ebx
	add	esp, 228				; 000000e4H
	cmp	ebp, esp
	call	__RTC_CheckEsp
	mov	esp, ebp
	pop	ebp
	ret	4
	npad	3
$LN8@operator:
	DD	1
	DD	$LN7@operator
$LN7@operator:
	DD	-32					; ffffffe0H
	DD	4
	DD	$LN5@operator
$LN5@operator:
	DB	95					; 0000005fH
	DB	76					; 0000004cH
	DB	111					; 0000006fH
	DB	99					; 00000063H
	DB	107					; 0000006bH
	DB	0
_TEXT	ENDS
;	COMDAT text$x
text$x	SEGMENT
__unwindfunclet$??4_Iterator_base@std@@QAEAAV01@ABV01@@Z$0:
	mov	esi, esp
	lea	ecx, DWORD PTR __Lock$7694[ebp]
	call	DWORD PTR __imp_??1_Lockit@std@@QAE@XZ
	cmp	esi, esp
	jmp	__RTC_CheckEsp
__ehhandler$??4_Iterator_base@std@@QAEAAV01@ABV01@@Z:
	mov	edx, DWORD PTR [esp+8]
	lea	eax, DWORD PTR [edx+12]
	mov	ecx, DWORD PTR [edx-232]
	xor	ecx, eax
	call	@__security_check_cookie@4
	mov	eax, OFFSET __ehfuncinfo$??4_Iterator_base@std@@QAEAAV01@ABV01@@Z
	jmp	___CxxFrameHandler3
text$x	ENDS
??4_Iterator_base@std@@QAEAAV01@ABV01@@Z ENDP		; std::_Iterator_base::operator=
;	COMDAT xdata$x
xdata$x	SEGMENT
__unwindtable$?_Adopt@_Iterator_base@std@@QAEXPBV_Container_base_secure@2@@Z DD 0ffffffffH
	DD	FLAT:__unwindfunclet$?_Adopt@_Iterator_base@std@@QAEXPBV_Container_base_secure@2@@Z$0
__ehfuncinfo$?_Adopt@_Iterator_base@std@@QAEXPBV_Container_base_secure@2@@Z DD 019930522H
	DD	01H
	DD	FLAT:__unwindtable$?_Adopt@_Iterator_base@std@@QAEXPBV_Container_base_secure@2@@Z
	DD	2 DUP(00H)
	DD	2 DUP(00H)
	DD	00H
	DD	01H
; Function compile flags: /Odtp /RTCcsu /ZI
xdata$x	ENDS
;	COMDAT ?_Adopt@_Iterator_base@std@@QAEXPBV_Container_base_secure@2@@Z
_TEXT	SEGMENT
__Lock$7701 = -32					; size = 4
_this$ = -20						; size = 4
__$EHRec$ = -12						; size = 12
__Parent$ = 8						; size = 4
?_Adopt@_Iterator_base@std@@QAEXPBV_Container_base_secure@2@@Z PROC ; std::_Iterator_base::_Adopt, COMDAT
; _this$ = ecx

; 165  : 		{	// adopt this iterator by parent

	push	ebp
	mov	ebp, esp
	push	-1
	push	__ehhandler$?_Adopt@_Iterator_base@std@@QAEXPBV_Container_base_secure@2@@Z
	mov	eax, DWORD PTR fs:0
	push	eax
	sub	esp, 216				; 000000d8H
	push	ebx
	push	esi
	push	edi
	push	ecx
	lea	edi, DWORD PTR [ebp-228]
	mov	ecx, 54					; 00000036H
	mov	eax, -858993460				; ccccccccH
	rep stosd
	pop	ecx
	mov	eax, DWORD PTR ___security_cookie
	xor	eax, ebp
	push	eax
	lea	eax, DWORD PTR __$EHRec$[ebp]
	mov	DWORD PTR fs:0, eax
	mov	DWORD PTR _this$[ebp], ecx

; 166  : 		if (_Mycont != _Parent)

	mov	eax, DWORD PTR _this$[ebp]
	mov	ecx, DWORD PTR [eax]
	cmp	ecx, DWORD PTR __Parent$[ebp]
	je	SHORT $LN3@Adopt

; 167  : 			{	// change parentage
; 168  : 			_Lockit _Lock(_LOCK_DEBUG);

	mov	esi, esp
	push	3
	lea	ecx, DWORD PTR __Lock$7701[ebp]
	call	DWORD PTR __imp_??0_Lockit@std@@QAE@H@Z
	cmp	esi, esp
	call	__RTC_CheckEsp
	mov	DWORD PTR __$EHRec$[ebp+8], 0

; 169  : 			_Orphan_me();

	mov	ecx, DWORD PTR _this$[ebp]
	call	?_Orphan_me@_Iterator_base@std@@QAEXXZ	; std::_Iterator_base::_Orphan_me

; 170  : 			if (_Parent != 0 && _Parent->_Myfirstiter != _IGNORE_MYITERLIST)

	cmp	DWORD PTR __Parent$[ebp], 0
	je	SHORT $LN1@Adopt
	mov	eax, DWORD PTR __Parent$[ebp]
	cmp	DWORD PTR [eax], -3			; fffffffdH
	je	SHORT $LN1@Adopt

; 171  : 				{	// switch to new parent
; 172  : 				_Mynextiter = _Parent->_Myfirstiter;

	mov	eax, DWORD PTR _this$[ebp]
	mov	ecx, DWORD PTR __Parent$[ebp]
	mov	edx, DWORD PTR [ecx]
	mov	DWORD PTR [eax+4], edx

; 173  : 				((_Container_base_secure *)_Parent)->_Myfirstiter = this;

	mov	eax, DWORD PTR __Parent$[ebp]
	mov	ecx, DWORD PTR _this$[ebp]
	mov	DWORD PTR [eax], ecx
$LN1@Adopt:

; 174  : 				}
; 175  : 			_Mycont = _Parent;

	mov	eax, DWORD PTR _this$[ebp]
	mov	ecx, DWORD PTR __Parent$[ebp]
	mov	DWORD PTR [eax], ecx

; 176  : 			}

	mov	DWORD PTR __$EHRec$[ebp+8], -1
	mov	esi, esp
	lea	ecx, DWORD PTR __Lock$7701[ebp]
	call	DWORD PTR __imp_??1_Lockit@std@@QAE@XZ
	cmp	esi, esp
	call	__RTC_CheckEsp
$LN3@Adopt:

; 177  : 		}

	push	edx
	mov	ecx, ebp
	push	eax
	lea	edx, DWORD PTR $LN9@Adopt
	call	@_RTC_CheckStackVars@8
	pop	eax
	pop	edx
	mov	ecx, DWORD PTR __$EHRec$[ebp]
	mov	DWORD PTR fs:0, ecx
	pop	ecx
	pop	edi
	pop	esi
	pop	ebx
	add	esp, 228				; 000000e4H
	cmp	ebp, esp
	call	__RTC_CheckEsp
	mov	esp, ebp
	pop	ebp
	ret	4
	npad	1
$LN9@Adopt:
	DD	1
	DD	$LN8@Adopt
$LN8@Adopt:
	DD	-32					; ffffffe0H
	DD	4
	DD	$LN6@Adopt
$LN6@Adopt:
	DB	95					; 0000005fH
	DB	76					; 0000004cH
	DB	111					; 0000006fH
	DB	99					; 00000063H
	DB	107					; 0000006bH
	DB	0
_TEXT	ENDS
;	COMDAT text$x
text$x	SEGMENT
__unwindfunclet$?_Adopt@_Iterator_base@std@@QAEXPBV_Container_base_secure@2@@Z$0:
	mov	esi, esp
	lea	ecx, DWORD PTR __Lock$7701[ebp]
	call	DWORD PTR __imp_??1_Lockit@std@@QAE@XZ
	cmp	esi, esp
	jmp	__RTC_CheckEsp
