; Listing generated by Microsoft (R) Optimizing Compiler Version 15.00.30729.01 

	TITLE	c:\Users\CriuS\Documents\Visual Studio 2008\Projects\DRAMsimIIhg\src\Settings.cpp
	.686P
	.XMM
	include listing.inc
	.model	flat

INCLUDELIB MSVCRTD
INCLUDELIB OLDNAMES

PUBLIC	??_C@_0P@GHFPNOJB@bad?5allocation?$AA@		; `string'
PUBLIC	?_Value@?$_Is_swap_move@U_Swap_move_tag@std@@@std@@2_NB ; std::_Is_swap_move<std::_Swap_move_tag>::_Value
PUBLIC	?collate@?$_Locbase@H@std@@2HB			; std::_Locbase<int>::collate
PUBLIC	?ctype@?$_Locbase@H@std@@2HB			; std::_Locbase<int>::ctype
PUBLIC	?monetary@?$_Locbase@H@std@@2HB			; std::_Locbase<int>::monetary
PUBLIC	?numeric@?$_Locbase@H@std@@2HB			; std::_Locbase<int>::numeric
PUBLIC	?time@?$_Locbase@H@std@@2HB			; std::_Locbase<int>::time
PUBLIC	?messages@?$_Locbase@H@std@@2HB			; std::_Locbase<int>::messages
PUBLIC	?all@?$_Locbase@H@std@@2HB			; std::_Locbase<int>::all
PUBLIC	?none@?$_Locbase@H@std@@2HB			; std::_Locbase<int>::none
PUBLIC	?skipws@?$_Iosb@H@std@@2W4_Fmtflags@12@B	; std::_Iosb<int>::skipws
PUBLIC	?unitbuf@?$_Iosb@H@std@@2W4_Fmtflags@12@B	; std::_Iosb<int>::unitbuf
PUBLIC	?uppercase@?$_Iosb@H@std@@2W4_Fmtflags@12@B	; std::_Iosb<int>::uppercase
PUBLIC	?showbase@?$_Iosb@H@std@@2W4_Fmtflags@12@B	; std::_Iosb<int>::showbase
PUBLIC	?showpoint@?$_Iosb@H@std@@2W4_Fmtflags@12@B	; std::_Iosb<int>::showpoint
PUBLIC	?showpos@?$_Iosb@H@std@@2W4_Fmtflags@12@B	; std::_Iosb<int>::showpos
PUBLIC	?left@?$_Iosb@H@std@@2W4_Fmtflags@12@B		; std::_Iosb<int>::left
PUBLIC	?right@?$_Iosb@H@std@@2W4_Fmtflags@12@B		; std::_Iosb<int>::right
PUBLIC	?internal@?$_Iosb@H@std@@2W4_Fmtflags@12@B	; std::_Iosb<int>::internal
PUBLIC	?dec@?$_Iosb@H@std@@2W4_Fmtflags@12@B		; std::_Iosb<int>::dec
PUBLIC	?oct@?$_Iosb@H@std@@2W4_Fmtflags@12@B		; std::_Iosb<int>::oct
PUBLIC	?hex@?$_Iosb@H@std@@2W4_Fmtflags@12@B		; std::_Iosb<int>::hex
PUBLIC	?scientific@?$_Iosb@H@std@@2W4_Fmtflags@12@B	; std::_Iosb<int>::scientific
PUBLIC	?fixed@?$_Iosb@H@std@@2W4_Fmtflags@12@B		; std::_Iosb<int>::fixed
PUBLIC	?hexfloat@?$_Iosb@H@std@@2W4_Fmtflags@12@B	; std::_Iosb<int>::hexfloat
PUBLIC	?boolalpha@?$_Iosb@H@std@@2W4_Fmtflags@12@B	; std::_Iosb<int>::boolalpha
PUBLIC	?_Stdio@?$_Iosb@H@std@@2W4_Fmtflags@12@B	; std::_Iosb<int>::_Stdio
PUBLIC	?adjustfield@?$_Iosb@H@std@@2W4_Fmtflags@12@B	; std::_Iosb<int>::adjustfield
PUBLIC	?basefield@?$_Iosb@H@std@@2W4_Fmtflags@12@B	; std::_Iosb<int>::basefield
PUBLIC	?floatfield@?$_Iosb@H@std@@2W4_Fmtflags@12@B	; std::_Iosb<int>::floatfield
PUBLIC	?goodbit@?$_Iosb@H@std@@2W4_Iostate@12@B	; std::_Iosb<int>::goodbit
PUBLIC	?eofbit@?$_Iosb@H@std@@2W4_Iostate@12@B		; std::_Iosb<int>::eofbit
PUBLIC	?failbit@?$_Iosb@H@std@@2W4_Iostate@12@B	; std::_Iosb<int>::failbit
PUBLIC	?badbit@?$_Iosb@H@std@@2W4_Iostate@12@B		; std::_Iosb<int>::badbit
PUBLIC	?_Hardfail@?$_Iosb@H@std@@2W4_Iostate@12@B	; std::_Iosb<int>::_Hardfail
PUBLIC	?in@?$_Iosb@H@std@@2W4_Openmode@12@B		; std::_Iosb<int>::in
PUBLIC	?out@?$_Iosb@H@std@@2W4_Openmode@12@B		; std::_Iosb<int>::out
PUBLIC	?ate@?$_Iosb@H@std@@2W4_Openmode@12@B		; std::_Iosb<int>::ate
PUBLIC	?app@?$_Iosb@H@std@@2W4_Openmode@12@B		; std::_Iosb<int>::app
PUBLIC	?trunc@?$_Iosb@H@std@@2W4_Openmode@12@B		; std::_Iosb<int>::trunc
PUBLIC	?_Nocreate@?$_Iosb@H@std@@2W4_Openmode@12@B	; std::_Iosb<int>::_Nocreate
PUBLIC	?_Noreplace@?$_Iosb@H@std@@2W4_Openmode@12@B	; std::_Iosb<int>::_Noreplace
PUBLIC	?binary@?$_Iosb@H@std@@2W4_Openmode@12@B	; std::_Iosb<int>::binary
PUBLIC	?beg@?$_Iosb@H@std@@2W4_Seekdir@12@B		; std::_Iosb<int>::beg
PUBLIC	?cur@?$_Iosb@H@std@@2W4_Seekdir@12@B		; std::_Iosb<int>::cur
PUBLIC	?end@?$_Iosb@H@std@@2W4_Seekdir@12@B		; std::_Iosb<int>::end
PUBLIC	?is_integral@?$integer_traits_base@_N$0A@$00@detail@boost@@2_NB ; boost::detail::integer_traits_base<bool,0,1>::is_integral
PUBLIC	?const_min@?$integer_traits_base@_N$0A@$00@detail@boost@@2_NB ; boost::detail::integer_traits_base<bool,0,1>::const_min
PUBLIC	?const_max@?$integer_traits_base@_N$0A@$00@detail@boost@@2_NB ; boost::detail::integer_traits_base<bool,0,1>::const_max
PUBLIC	?is_integral@?$integer_traits_base@D$0?IA@$0HP@@detail@boost@@2_NB ; boost::detail::integer_traits_base<char,-128,127>::is_integral
PUBLIC	?const_min@?$integer_traits_base@D$0?IA@$0HP@@detail@boost@@2DB ; boost::detail::integer_traits_base<char,-128,127>::const_min
PUBLIC	?const_max@?$integer_traits_base@D$0?IA@$0HP@@detail@boost@@2DB ; boost::detail::integer_traits_base<char,-128,127>::const_max
PUBLIC	?is_integral@?$integer_traits_base@C$0?IA@$0HP@@detail@boost@@2_NB ; boost::detail::integer_traits_base<signed char,-128,127>::is_integral
PUBLIC	?const_min@?$integer_traits_base@C$0?IA@$0HP@@detail@boost@@2CB ; boost::detail::integer_traits_base<signed char,-128,127>::const_min
PUBLIC	?const_max@?$integer_traits_base@C$0?IA@$0HP@@detail@boost@@2CB ; boost::detail::integer_traits_base<signed char,-128,127>::const_max
PUBLIC	?is_integral@?$integer_traits_base@E$0A@$0PP@@detail@boost@@2_NB ; boost::detail::integer_traits_base<unsigned char,0,255>::is_integral
PUBLIC	?const_min@?$integer_traits_base@E$0A@$0PP@@detail@boost@@2EB ; boost::detail::integer_traits_base<unsigned char,0,255>::const_min
PUBLIC	?const_max@?$integer_traits_base@E$0A@$0PP@@detail@boost@@2EB ; boost::detail::integer_traits_base<unsigned char,0,255>::const_max
PUBLIC	?is_integral@?$integer_traits_base@_W$0A@$0PPPP@@detail@boost@@2_NB ; boost::detail::integer_traits_base<wchar_t,0,65535>::is_integral
PUBLIC	?const_min@?$integer_traits_base@_W$0A@$0PPPP@@detail@boost@@2_WB ; boost::detail::integer_traits_base<wchar_t,0,65535>::const_min
PUBLIC	?const_max@?$integer_traits_base@_W$0A@$0PPPP@@detail@boost@@2_WB ; boost::detail::integer_traits_base<wchar_t,0,65535>::const_max
PUBLIC	?is_integral@?$integer_traits_base@F$0?IAAA@$0HPPP@@detail@boost@@2_NB ; boost::detail::integer_traits_base<short,-32768,32767>::is_integral
PUBLIC	?const_min@?$integer_traits_base@F$0?IAAA@$0HPPP@@detail@boost@@2FB ; boost::detail::integer_traits_base<short,-32768,32767>::const_min
PUBLIC	?const_max@?$integer_traits_base@F$0?IAAA@$0HPPP@@detail@boost@@2FB ; boost::detail::integer_traits_base<short,-32768,32767>::const_max
PUBLIC	?is_integral@?$integer_traits_base@G$0A@$0PPPP@@detail@boost@@2_NB ; boost::detail::integer_traits_base<unsigned short,0,65535>::is_integral
PUBLIC	?const_min@?$integer_traits_base@G$0A@$0PPPP@@detail@boost@@2GB ; boost::detail::integer_traits_base<unsigned short,0,65535>::const_min
PUBLIC	?const_max@?$integer_traits_base@G$0A@$0PPPP@@detail@boost@@2GB ; boost::detail::integer_traits_base<unsigned short,0,65535>::const_max
PUBLIC	?is_integral@?$integer_traits_base@H$0?IAAAAAAA@$0HPPPPPPP@@detail@boost@@2_NB ; boost::detail::integer_traits_base<int,-2147483648,2147483647>::is_integral
PUBLIC	?const_min@?$integer_traits_base@H$0?IAAAAAAA@$0HPPPPPPP@@detail@boost@@2HB ; boost::detail::integer_traits_base<int,-2147483648,2147483647>::const_min
PUBLIC	?const_max@?$integer_traits_base@H$0?IAAAAAAA@$0HPPPPPPP@@detail@boost@@2HB ; boost::detail::integer_traits_base<int,-2147483648,2147483647>::const_max
PUBLIC	?is_integral@?$integer_traits_base@I$0A@$0PPPPPPPP@@detail@boost@@2_NB ; boost::detail::integer_traits_base<unsigned int,0,4294967295>::is_integral
PUBLIC	?const_min@?$integer_traits_base@I$0A@$0PPPPPPPP@@detail@boost@@2IB ; boost::detail::integer_traits_base<unsigned int,0,4294967295>::const_min
PUBLIC	?const_max@?$integer_traits_base@I$0A@$0PPPPPPPP@@detail@boost@@2IB ; boost::detail::integer_traits_base<unsigned int,0,4294967295>::const_max
PUBLIC	?is_integral@?$integer_traits_base@J$0?IAAAAAAA@$0HPPPPPPP@@detail@boost@@2_NB ; boost::detail::integer_traits_base<long,-2147483648,2147483647>::is_integral
PUBLIC	?const_min@?$integer_traits_base@J$0?IAAAAAAA@$0HPPPPPPP@@detail@boost@@2JB ; boost::detail::integer_traits_base<long,-2147483648,2147483647>::const_min
PUBLIC	?const_max@?$integer_traits_base@J$0?IAAAAAAA@$0HPPPPPPP@@detail@boost@@2JB ; boost::detail::integer_traits_base<long,-2147483648,2147483647>::const_max
PUBLIC	?is_integral@?$integer_traits_base@K$0A@$0PPPPPPPP@@detail@boost@@2_NB ; boost::detail::integer_traits_base<unsigned long,0,4294967295>::is_integral
PUBLIC	?const_min@?$integer_traits_base@K$0A@$0PPPPPPPP@@detail@boost@@2KB ; boost::detail::integer_traits_base<unsigned long,0,4294967295>::const_min
PUBLIC	?const_max@?$integer_traits_base@K$0A@$0PPPPPPPP@@detail@boost@@2KB ; boost::detail::integer_traits_base<unsigned long,0,4294967295>::const_max
PUBLIC	?is_integral@?$integer_traits_base@_J$0?IAAAAAAAAAAAAAAA@$0HPPPPPPPPPPPPPPP@@detail@boost@@2_NB ; boost::detail::integer_traits_base<__int64,-9223372036854775808,9223372036854775807>::is_integral
PUBLIC	?const_min@?$integer_traits_base@_J$0?IAAAAAAAAAAAAAAA@$0HPPPPPPPPPPPPPPP@@detail@boost@@2_JB ; boost::detail::integer_traits_base<__int64,-9223372036854775808,9223372036854775807>::const_min
PUBLIC	?const_max@?$integer_traits_base@_J$0?IAAAAAAAAAAAAAAA@$0HPPPPPPPPPPPPPPP@@detail@boost@@2_JB ; boost::detail::integer_traits_base<__int64,-9223372036854775808,9223372036854775807>::const_max
PUBLIC	?is_integral@?$integer_traits_base@_K$0A@$0?0@detail@boost@@2_NB ; boost::detail::integer_traits_base<unsigned __int64,0,-1>::is_integral
PUBLIC	?const_min@?$integer_traits_base@_K$0A@$0?0@detail@boost@@2_KB ; boost::detail::integer_traits_base<unsigned __int64,0,-1>::const_min
PUBLIC	?const_max@?$integer_traits_base@_K$0A@$0?0@detail@boost@@2_KB ; boost::detail::integer_traits_base<unsigned __int64,0,-1>::const_max
PUBLIC	?has_fixed_range@rand48@boost@@2_NB		; boost::rand48::has_fixed_range
PUBLIC	?min_value@rand48@boost@@2JB			; boost::rand48::min_value
PUBLIC	?max_value@rand48@boost@@2JB			; boost::rand48::max_value
PUBLIC	?has_fixed_range@?$linear_congruential@_K$0FNOOMOGGN@$0L@$0BAAAAAAAAAAAA@$0A@@random@boost@@2_NB ; boost::random::linear_congruential<unsigned __int64,25214903917,11,281474976710656,0>::has_fixed_range
PUBLIC	?min_value@?$linear_congruential@_K$0FNOOMOGGN@$0L@$0BAAAAAAAAAAAA@$0A@@random@boost@@2_KB ; boost::random::linear_congruential<unsigned __int64,25214903917,11,281474976710656,0>::min_value
PUBLIC	?max_value@?$linear_congruential@_K$0FNOOMOGGN@$0L@$0BAAAAAAAAAAAA@$0A@@random@boost@@2_KB ; boost::random::linear_congruential<unsigned __int64,25214903917,11,281474976710656,0>::max_value
PUBLIC	?multiplier@?$linear_congruential@_K$0FNOOMOGGN@$0L@$0BAAAAAAAAAAAA@$0A@@random@boost@@2_KB ; boost::random::linear_congruential<unsigned __int64,25214903917,11,281474976710656,0>::multiplier
PUBLIC	?increment@?$linear_congruential@_K$0FNOOMOGGN@$0L@$0BAAAAAAAAAAAA@$0A@@random@boost@@2_KB ; boost::random::linear_congruential<unsigned __int64,25214903917,11,281474976710656,0>::increment
PUBLIC	?modulus@?$linear_congruential@_K$0FNOOMOGGN@$0L@$0BAAAAAAAAAAAA@$0A@@random@boost@@2_KB ; boost::random::linear_congruential<unsigned __int64,25214903917,11,281474976710656,0>::modulus
PUBLIC	?has_fixed_range@?$linear_congruential@J$0JMEO@$0A@$0HPPPPPKL@$0A@@random@boost@@2_NB ; boost::random::linear_congruential<long,40014,0,2147483563,0>::has_fixed_range
PUBLIC	?min_value@?$linear_congruential@J$0JMEO@$0A@$0HPPPPPKL@$0A@@random@boost@@2JB ; boost::random::linear_congruential<long,40014,0,2147483563,0>::min_value
PUBLIC	?max_value@?$linear_congruential@J$0JMEO@$0A@$0HPPPPPKL@$0A@@random@boost@@2JB ; boost::random::linear_congruential<long,40014,0,2147483563,0>::max_value
PUBLIC	?multiplier@?$linear_congruential@J$0JMEO@$0A@$0HPPPPPKL@$0A@@random@boost@@2JB ; boost::random::linear_congruential<long,40014,0,2147483563,0>::multiplier
PUBLIC	?increment@?$linear_congruential@J$0JMEO@$0A@$0HPPPPPKL@$0A@@random@boost@@2JB ; boost::random::linear_congruential<long,40014,0,2147483563,0>::increment
PUBLIC	?modulus@?$linear_congruential@J$0JMEO@$0A@$0HPPPPPKL@$0A@@random@boost@@2JB ; boost::random::linear_congruential<long,40014,0,2147483563,0>::modulus
PUBLIC	?has_fixed_range@?$linear_congruential@K$0FFG@$0CENGJ@$0KOFCJ@$0A@@random@boost@@2_NB ; boost::random::linear_congruential<unsigned long,1366,150889,714025,0>::has_fixed_range
PUBLIC	?min_value@?$linear_congruential@K$0FFG@$0CENGJ@$0KOFCJ@$0A@@random@boost@@2KB ; boost::random::linear_congruential<unsigned long,1366,150889,714025,0>::min_value
PUBLIC	?max_value@?$linear_congruential@K$0FFG@$0CENGJ@$0KOFCJ@$0A@@random@boost@@2KB ; boost::random::linear_congruential<unsigned long,1366,150889,714025,0>::max_value
PUBLIC	?multiplier@?$linear_congruential@K$0FFG@$0CENGJ@$0KOFCJ@$0A@@random@boost@@2KB ; boost::random::linear_congruential<unsigned long,1366,150889,714025,0>::multiplier
PUBLIC	?increment@?$linear_congruential@K$0FFG@$0CENGJ@$0KOFCJ@$0A@@random@boost@@2KB ; boost::random::linear_congruential<unsigned long,1366,150889,714025,0>::increment
PUBLIC	?modulus@?$linear_congruential@K$0FFG@$0CENGJ@$0KOFCJ@$0A@@random@boost@@2KB ; boost::random::linear_congruential<unsigned long,1366,150889,714025,0>::modulus
PUBLIC	?value@integral_c_tag@mpl@boost@@2HB		; boost::mpl::integral_c_tag::value
PUBLIC	?value@?$bool_@$00@mpl@boost@@2_NB		; boost::mpl::bool_<1>::value
PUBLIC	?value@?$bool_@$0A@@mpl@boost@@2_NB		; boost::mpl::bool_<0>::value
PUBLIC	?value@?$ice_or@$0A@$0A@$0A@$0A@$0A@$0A@$0A@@type_traits@boost@@2_NB ; boost::type_traits::ice_or<0,0,0,0,0,0,0>::value
PUBLIC	?is_specialized@?$fibonacci_validation@N$0CFP@$0BBB@@random@boost@@2_NB ; boost::random::fibonacci_validation<double,607,273>::is_specialized
PUBLIC	?is_specialized@?$fibonacci_validation@N$0EPP@$0BKC@@random@boost@@2_NB ; boost::random::fibonacci_validation<double,1279,418>::is_specialized
PUBLIC	?is_specialized@?$fibonacci_validation@N$0IOJ@$0EOE@@random@boost@@2_NB ; boost::random::fibonacci_validation<double,2281,1252>::is_specialized
PUBLIC	?is_specialized@?$fibonacci_validation@N$0MJB@$0CEA@@random@boost@@2_NB ; boost::random::fibonacci_validation<double,3217,576>::is_specialized
PUBLIC	?is_specialized@?$fibonacci_validation@N$0BBEH@$0IDC@@random@boost@@2_NB ; boost::random::fibonacci_validation<double,4423,2098>::is_specialized
PUBLIC	?is_specialized@?$fibonacci_validation@N$0CFNJ@$0BFHO@@random@boost@@2_NB ; boost::random::fibonacci_validation<double,9689,5502>::is_specialized
PUBLIC	?is_specialized@?$fibonacci_validation@N$0ENOB@$0CGHC@@random@boost@@2_NB ; boost::random::fibonacci_validation<double,19937,9842>::is_specialized
PUBLIC	?is_specialized@?$fibonacci_validation@N$0FKKJ@$0DEJO@@random@boost@@2_NB ; boost::random::fibonacci_validation<double,23209,13470>::is_specialized
PUBLIC	?is_specialized@?$fibonacci_validation@N$0KNNB@$0FCCK@@random@boost@@2_NB ; boost::random::fibonacci_validation<double,44497,21034>::is_specialized
PUBLIC	?has_fixed_range@?$linear_feedback_shift@K$0CA@$0BP@$0N@$0M@$0A@@random@boost@@2_NB ; boost::random::linear_feedback_shift<unsigned long,32,31,13,12,0>::has_fixed_range
PUBLIC	?word_size@?$linear_feedback_shift@K$0CA@$0BP@$0N@$0M@$0A@@random@boost@@2HB ; boost::random::linear_feedback_shift<unsigned long,32,31,13,12,0>::word_size
PUBLIC	?exponent1@?$linear_feedback_shift@K$0CA@$0BP@$0N@$0M@$0A@@random@boost@@2HB ; boost::random::linear_feedback_shift<unsigned long,32,31,13,12,0>::exponent1
PUBLIC	?exponent2@?$linear_feedback_shift@K$0CA@$0BP@$0N@$0M@$0A@@random@boost@@2HB ; boost::random::linear_feedback_shift<unsigned long,32,31,13,12,0>::exponent2
PUBLIC	?step_size@?$linear_feedback_shift@K$0CA@$0BP@$0N@$0M@$0A@@random@boost@@2HB ; boost::random::linear_feedback_shift<unsigned long,32,31,13,12,0>::step_size
PUBLIC	?has_fixed_range@?$xor_combine@V?$linear_feedback_shift@K$0CA@$0BP@$0N@$0M@$0A@@random@boost@@$0A@V?$linear_feedback_shift@K$0CA@$0BN@$01$03$0A@@23@$0A@$0A@@random@boost@@2_NB ; boost::random::xor_combine<boost::random::linear_feedback_shift<unsigned long,32,31,13,12,0>,0,boost::random::linear_feedback_shift<unsigned long,32,29,2,4,0>,0,0>::has_fixed_range
PUBLIC	?shift1@?$xor_combine@V?$linear_feedback_shift@K$0CA@$0BP@$0N@$0M@$0A@@random@boost@@$0A@V?$linear_feedback_shift@K$0CA@$0BN@$01$03$0A@@23@$0A@$0A@@random@boost@@2HB ; boost::random::xor_combine<boost::random::linear_feedback_shift<unsigned long,32,31,13,12,0>,0,boost::random::linear_feedback_shift<unsigned long,32,29,2,4,0>,0,0>::shift1
PUBLIC	?shift2@?$xor_combine@V?$linear_feedback_shift@K$0CA@$0BP@$0N@$0M@$0A@@random@boost@@$0A@V?$linear_feedback_shift@K$0CA@$0BN@$01$03$0A@@23@$0A@$0A@@random@boost@@2HB ; boost::random::xor_combine<boost::random::linear_feedback_shift<unsigned long,32,31,13,12,0>,0,boost::random::linear_feedback_shift<unsigned long,32,29,2,4,0>,0,0>::shift2
PUBLIC	?has_fixed_range@?$linear_feedback_shift@K$0CA@$0BN@$01$03$0A@@random@boost@@2_NB ; boost::random::linear_feedback_shift<unsigned long,32,29,2,4,0>::has_fixed_range
PUBLIC	?word_size@?$linear_feedback_shift@K$0CA@$0BN@$01$03$0A@@random@boost@@2HB ; boost::random::linear_feedback_shift<unsigned long,32,29,2,4,0>::word_size
PUBLIC	?exponent1@?$linear_feedback_shift@K$0CA@$0BN@$01$03$0A@@random@boost@@2HB ; boost::random::linear_feedback_shift<unsigned long,32,29,2,4,0>::exponent1
PUBLIC	?exponent2@?$linear_feedback_shift@K$0CA@$0BN@$01$03$0A@@random@boost@@2HB ; boost::random::linear_feedback_shift<unsigned long,32,29,2,4,0>::exponent2
PUBLIC	?step_size@?$linear_feedback_shift@K$0CA@$0BN@$01$03$0A@@random@boost@@2HB ; boost::random::linear_feedback_shift<unsigned long,32,29,2,4,0>::step_size
PUBLIC	?value@?$ice_and@$00$00$00$00$00$00$00@type_traits@boost@@2_NB ; boost::type_traits::ice_and<1,1,1,1,1,1,1>::value
PUBLIC	?value@?$ice_not@$00@type_traits@boost@@2_NB	; boost::type_traits::ice_not<1>::value
PUBLIC	?value@?$integral_constant@_N$0A@@tr1@std@@2_NB	; std::tr1::integral_constant<bool,0>::value
PUBLIC	?value@?$integral_constant@_N$00@tr1@std@@2_NB	; std::tr1::integral_constant<bool,1>::value
PUBLIC	?value@?$is_member_function_pointer_impl@X@detail@boost@@2_NB ; boost::detail::is_member_function_pointer_impl<void>::value
PUBLIC	?value@?$is_member_function_pointer_impl@$$CBX@detail@boost@@2_NB ; boost::detail::is_member_function_pointer_impl<void const >::value
PUBLIC	?value@?$is_member_function_pointer_impl@$$CCX@detail@boost@@2_NB ; boost::detail::is_member_function_pointer_impl<void volatile >::value
PUBLIC	?value@?$is_member_function_pointer_impl@$$CDX@detail@boost@@2_NB ; boost::detail::is_member_function_pointer_impl<void const volatile >::value
PUBLIC	?value@?$lcast_src_length@D_N@detail@boost@@2IB	; boost::detail::lcast_src_length<char,bool>::value
PUBLIC	?value@?$lcast_src_length@DD@detail@boost@@2IB	; boost::detail::lcast_src_length<char,char>::value
PUBLIC	?value@?$lcast_src_length@_W_N@detail@boost@@2IB ; boost::detail::lcast_src_length<wchar_t,bool>::value
PUBLIC	?value@?$lcast_src_length@_WD@detail@boost@@2IB	; boost::detail::lcast_src_length<wchar_t,char>::value
PUBLIC	?value@?$lcast_src_length@_W_W@detail@boost@@2IB ; boost::detail::lcast_src_length<wchar_t,wchar_t>::value
PUBLIC	?value@?$lcast_src_length@DPBD@detail@boost@@2IB ; boost::detail::lcast_src_length<char,char const *>::value
PUBLIC	?value@?$lcast_src_length@DPAD@detail@boost@@2IB ; boost::detail::lcast_src_length<char,char *>::value
PUBLIC	?value@?$lcast_src_length@_WPB_W@detail@boost@@2IB ; boost::detail::lcast_src_length<wchar_t,wchar_t const *>::value
PUBLIC	?value@?$lcast_src_length@_WPA_W@detail@boost@@2IB ; boost::detail::lcast_src_length<wchar_t,wchar_t *>::value
PUBLIC	?value@?$lcast_src_length_integral@F@detail@boost@@2IB ; boost::detail::lcast_src_length_integral<short>::value
PUBLIC	?value@?$lcast_src_length_integral@G@detail@boost@@2IB ; boost::detail::lcast_src_length_integral<unsigned short>::value
PUBLIC	?value@?$lcast_src_length_integral@H@detail@boost@@2IB ; boost::detail::lcast_src_length_integral<int>::value
PUBLIC	?value@?$lcast_src_length_integral@I@detail@boost@@2IB ; boost::detail::lcast_src_length_integral<unsigned int>::value
PUBLIC	?value@?$lcast_src_length_integral@J@detail@boost@@2IB ; boost::detail::lcast_src_length_integral<long>::value
PUBLIC	?value@?$lcast_src_length_integral@K@detail@boost@@2IB ; boost::detail::lcast_src_length_integral<unsigned long>::value
PUBLIC	?value@?$lcast_src_length_integral@_K@detail@boost@@2IB ; boost::detail::lcast_src_length_integral<unsigned __int64>::value
PUBLIC	?value@?$lcast_src_length_integral@_J@detail@boost@@2IB ; boost::detail::lcast_src_length_integral<__int64>::value
PUBLIC	?value@?$is_abstract_imp@M@detail@boost@@2_NB	; boost::detail::is_abstract_imp<float>::value
PUBLIC	?use_default_precision@?$lcast_precision@M@detail@boost@@2_NB ; boost::detail::lcast_precision<float>::use_default_precision
PUBLIC	?is_specialized_bin@?$lcast_precision@M@detail@boost@@2_NB ; boost::detail::lcast_precision<float>::is_specialized_bin
PUBLIC	?is_specialized_dec@?$lcast_precision@M@detail@boost@@2_NB ; boost::detail::lcast_precision<float>::is_specialized_dec
PUBLIC	?streamsize_max@?$lcast_precision@M@detail@boost@@2HB ; boost::detail::lcast_precision<float>::streamsize_max
PUBLIC	?precision_dec@?$lcast_precision@M@detail@boost@@2IB ; boost::detail::lcast_precision<float>::precision_dec
PUBLIC	?precision_bin@?$lcast_precision@M@detail@boost@@2KB ; boost::detail::lcast_precision<float>::precision_bin
PUBLIC	?value@?$lcast_precision@M@detail@boost@@2HB	; boost::detail::lcast_precision<float>::value
PUBLIC	?value@?$lcast_src_length_floating@M@detail@boost@@2IB ; boost::detail::lcast_src_length_floating<float>::value
PUBLIC	?value@?$is_abstract_imp@N@detail@boost@@2_NB	; boost::detail::is_abstract_imp<double>::value
PUBLIC	?use_default_precision@?$lcast_precision@N@detail@boost@@2_NB ; boost::detail::lcast_precision<double>::use_default_precision
PUBLIC	?is_specialized_bin@?$lcast_precision@N@detail@boost@@2_NB ; boost::detail::lcast_precision<double>::is_specialized_bin
PUBLIC	?is_specialized_dec@?$lcast_precision@N@detail@boost@@2_NB ; boost::detail::lcast_precision<double>::is_specialized_dec
PUBLIC	?streamsize_max@?$lcast_precision@N@detail@boost@@2HB ; boost::detail::lcast_precision<double>::streamsize_max
PUBLIC	?precision_dec@?$lcast_precision@N@detail@boost@@2IB ; boost::detail::lcast_precision<double>::precision_dec
PUBLIC	?precision_bin@?$lcast_precision@N@detail@boost@@2KB ; boost::detail::lcast_precision<double>::precision_bin
PUBLIC	?value@?$lcast_precision@N@detail@boost@@2HB	; boost::detail::lcast_precision<double>::value
PUBLIC	?value@?$lcast_src_length_floating@N@detail@boost@@2IB ; boost::detail::lcast_src_length_floating<double>::value
PUBLIC	?value@?$is_abstract_imp@O@detail@boost@@2_NB	; boost::detail::is_abstract_imp<long double>::value
PUBLIC	?use_default_precision@?$lcast_precision@O@detail@boost@@2_NB ; boost::detail::lcast_precision<long double>::use_default_precision
PUBLIC	?is_specialized_bin@?$lcast_precision@O@detail@boost@@2_NB ; boost::detail::lcast_precision<long double>::is_specialized_bin
PUBLIC	?is_specialized_dec@?$lcast_precision@O@detail@boost@@2_NB ; boost::detail::lcast_precision<long double>::is_specialized_dec
PUBLIC	?streamsize_max@?$lcast_precision@O@detail@boost@@2HB ; boost::detail::lcast_precision<long double>::streamsize_max
PUBLIC	?precision_dec@?$lcast_precision@O@detail@boost@@2IB ; boost::detail::lcast_precision<long double>::precision_dec
PUBLIC	?precision_bin@?$lcast_precision@O@detail@boost@@2KB ; boost::detail::lcast_precision<long double>::precision_bin
PUBLIC	?value@?$lcast_precision@O@detail@boost@@2HB	; boost::detail::lcast_precision<long double>::value
PUBLIC	?value@?$lcast_src_length_floating@O@detail@boost@@2IB ; boost::detail::lcast_src_length_floating<long double>::value
PUBLIC	?zero@?$lcast_char_constants@D@detail@boost@@2DB ; boost::detail::lcast_char_constants<char>::zero
PUBLIC	?minus@?$lcast_char_constants@D@detail@boost@@2DB ; boost::detail::lcast_char_constants<char>::minus
PUBLIC	?zero@?$lcast_char_constants@_W@detail@boost@@2_WB ; boost::detail::lcast_char_constants<wchar_t>::zero
PUBLIC	?minus@?$lcast_char_constants@_W@detail@boost@@2_WB ; boost::detail::lcast_char_constants<wchar_t>::minus
PUBLIC	?value@?$lcast_streambuf_for_source@M@detail@boost@@2_NB ; boost::detail::lcast_streambuf_for_source<float>::value
PUBLIC	?value@?$lcast_streambuf_for_source@N@detail@boost@@2_NB ; boost::detail::lcast_streambuf_for_source<double>::value
PUBLIC	?value@?$lcast_streambuf_for_source@O@detail@boost@@2_NB ; boost::detail::lcast_streambuf_for_source<long double>::value
PUBLIC	?value@?$lcast_streambuf_for_target@D@detail@boost@@2_NB ; boost::detail::lcast_streambuf_for_target<char>::value
PUBLIC	?value@?$lcast_streambuf_for_target@_W@detail@boost@@2_NB ; boost::detail::lcast_streambuf_for_target<wchar_t>::value
PUBLIC	?value@?$is_convertible_impl@XX@detail@boost@@2_NB ; boost::detail::is_convertible_impl<void,void>::value
PUBLIC	?value@?$is_convertible_impl@X$$CBX@detail@boost@@2_NB ; boost::detail::is_convertible_impl<void,void const >::value
PUBLIC	?value@?$is_convertible_impl@X$$CCX@detail@boost@@2_NB ; boost::detail::is_convertible_impl<void,void volatile >::value
PUBLIC	?value@?$is_convertible_impl@X$$CDX@detail@boost@@2_NB ; boost::detail::is_convertible_impl<void,void const volatile >::value
PUBLIC	?value@?$is_convertible_impl@$$CBXX@detail@boost@@2_NB ; boost::detail::is_convertible_impl<void const ,void>::value
PUBLIC	?value@?$is_convertible_impl@$$CBX$$CBX@detail@boost@@2_NB ; boost::detail::is_convertible_impl<void const ,void const >::value
PUBLIC	?value@?$is_convertible_impl@$$CBX$$CCX@detail@boost@@2_NB ; boost::detail::is_convertible_impl<void const ,void volatile >::value
PUBLIC	?value@?$is_convertible_impl@$$CBX$$CDX@detail@boost@@2_NB ; boost::detail::is_convertible_impl<void const ,void const volatile >::value
PUBLIC	?value@?$is_convertible_impl@$$CCXX@detail@boost@@2_NB ; boost::detail::is_convertible_impl<void volatile ,void>::value
PUBLIC	?value@?$is_convertible_impl@$$CCX$$CBX@detail@boost@@2_NB ; boost::detail::is_convertible_impl<void volatile ,void const >::value
PUBLIC	?value@?$is_convertible_impl@$$CCX$$CCX@detail@boost@@2_NB ; boost::detail::is_convertible_impl<void volatile ,void volatile >::value
PUBLIC	?value@?$is_convertible_impl@$$CCX$$CDX@detail@boost@@2_NB ; boost::detail::is_convertible_impl<void volatile ,void const volatile >::value
PUBLIC	?value@?$is_convertible_impl@$$CDXX@detail@boost@@2_NB ; boost::detail::is_convertible_impl<void const volatile ,void>::value
PUBLIC	?value@?$is_convertible_impl@$$CDX$$CBX@detail@boost@@2_NB ; boost::detail::is_convertible_impl<void const volatile ,void const >::value
PUBLIC	?value@?$is_convertible_impl@$$CDX$$CCX@detail@boost@@2_NB ; boost::detail::is_convertible_impl<void const volatile ,void volatile >::value
PUBLIC	?value@?$is_convertible_impl@$$CDX$$CDX@detail@boost@@2_NB ; boost::detail::is_convertible_impl<void const volatile ,void const volatile >::value
PUBLIC	?value@type@?$select_by_size@$00@detail@iostreams@boost@@2HB ; boost::iostreams::detail::select_by_size<1>::type::value
PUBLIC	?value@?$select_by_size@$00@detail@iostreams@boost@@2HB ; boost::iostreams::detail::select_by_size<1>::value
PUBLIC	?value@type@?$select_by_size@$01@detail@iostreams@boost@@2HB ; boost::iostreams::detail::select_by_size<2>::type::value
PUBLIC	?value@?$select_by_size@$01@detail@iostreams@boost@@2HB ; boost::iostreams::detail::select_by_size<2>::value
PUBLIC	?value@type@?$select_by_size@$02@detail@iostreams@boost@@2HB ; boost::iostreams::detail::select_by_size<3>::type::value
PUBLIC	?value@?$select_by_size@$02@detail@iostreams@boost@@2HB ; boost::iostreams::detail::select_by_size<3>::value
PUBLIC	?value@type@?$select_by_size@$03@detail@iostreams@boost@@2HB ; boost::iostreams::detail::select_by_size<4>::type::value
PUBLIC	?value@?$select_by_size@$03@detail@iostreams@boost@@2HB ; boost::iostreams::detail::select_by_size<4>::value
PUBLIC	?value@type@?$select_by_size@$04@detail@iostreams@boost@@2HB ; boost::iostreams::detail::select_by_size<5>::type::value
PUBLIC	?value@?$select_by_size@$04@detail@iostreams@boost@@2HB ; boost::iostreams::detail::select_by_size<5>::value
PUBLIC	?value@type@?$select_by_size@$05@detail@iostreams@boost@@2HB ; boost::iostreams::detail::select_by_size<6>::type::value
PUBLIC	?value@?$select_by_size@$05@detail@iostreams@boost@@2HB ; boost::iostreams::detail::select_by_size<6>::value
PUBLIC	?value@type@?$select_by_size@$06@detail@iostreams@boost@@2HB ; boost::iostreams::detail::select_by_size<7>::type::value
PUBLIC	?value@?$select_by_size@$06@detail@iostreams@boost@@2HB ; boost::iostreams::detail::select_by_size<7>::value
PUBLIC	?value@type@?$select_by_size@$07@detail@iostreams@boost@@2HB ; boost::iostreams::detail::select_by_size<8>::type::value
PUBLIC	?value@?$select_by_size@$07@detail@iostreams@boost@@2HB ; boost::iostreams::detail::select_by_size<8>::value
PUBLIC	?value@type@?$select_by_size@$08@detail@iostreams@boost@@2HB ; boost::iostreams::detail::select_by_size<9>::type::value
PUBLIC	?value@?$select_by_size@$08@detail@iostreams@boost@@2HB ; boost::iostreams::detail::select_by_size<9>::value
PUBLIC	?value@type@?$select_by_size@$09@detail@iostreams@boost@@2HB ; boost::iostreams::detail::select_by_size<10>::type::value
PUBLIC	?value@?$select_by_size@$09@detail@iostreams@boost@@2HB ; boost::iostreams::detail::select_by_size<10>::value
PUBLIC	?value@type@?$select_by_size@$0L@@detail@iostreams@boost@@2HB ; boost::iostreams::detail::select_by_size<11>::type::value
PUBLIC	?value@?$select_by_size@$0L@@detail@iostreams@boost@@2HB ; boost::iostreams::detail::select_by_size<11>::value
PUBLIC	?value@type@?$select_by_size@$0M@@detail@iostreams@boost@@2HB ; boost::iostreams::detail::select_by_size<12>::type::value
PUBLIC	?value@?$select_by_size@$0M@@detail@iostreams@boost@@2HB ; boost::iostreams::detail::select_by_size<12>::value
PUBLIC	?value@type@?$select_by_size@$0N@@detail@iostreams@boost@@2HB ; boost::iostreams::detail::select_by_size<13>::type::value
PUBLIC	?value@?$select_by_size@$0N@@detail@iostreams@boost@@2HB ; boost::iostreams::detail::select_by_size<13>::value
PUBLIC	?value@type@?$select_by_size@$0O@@detail@iostreams@boost@@2HB ; boost::iostreams::detail::select_by_size<14>::type::value
PUBLIC	?value@?$select_by_size@$0O@@detail@iostreams@boost@@2HB ; boost::iostreams::detail::select_by_size<14>::value
PUBLIC	?value@type@?$select_by_size@$0P@@detail@iostreams@boost@@2HB ; boost::iostreams::detail::select_by_size<15>::type::value
PUBLIC	?value@?$select_by_size@$0P@@detail@iostreams@boost@@2HB ; boost::iostreams::detail::select_by_size<15>::value
PUBLIC	?value@type@?$select_by_size@$0BA@@detail@iostreams@boost@@2HB ; boost::iostreams::detail::select_by_size<16>::type::value
PUBLIC	?value@?$select_by_size@$0BA@@detail@iostreams@boost@@2HB ; boost::iostreams::detail::select_by_size<16>::value
PUBLIC	?value@type@?$select_by_size@$0BB@@detail@iostreams@boost@@2HB ; boost::iostreams::detail::select_by_size<17>::type::value
PUBLIC	?value@?$select_by_size@$0BB@@detail@iostreams@boost@@2HB ; boost::iostreams::detail::select_by_size<17>::value
PUBLIC	?value@type@?$select_by_size@$0BC@@detail@iostreams@boost@@2HB ; boost::iostreams::detail::select_by_size<18>::type::value
PUBLIC	?value@?$select_by_size@$0BC@@detail@iostreams@boost@@2HB ; boost::iostreams::detail::select_by_size<18>::value
PUBLIC	?value@type@?$select_by_size@$0BD@@detail@iostreams@boost@@2HB ; boost::iostreams::detail::select_by_size<19>::type::value
PUBLIC	?value@?$select_by_size@$0BD@@detail@iostreams@boost@@2HB ; boost::iostreams::detail::select_by_size<19>::value
PUBLIC	?value@type@?$select_by_size@$0BE@@detail@iostreams@boost@@2HB ; boost::iostreams::detail::select_by_size<20>::type::value
PUBLIC	?value@?$select_by_size@$0BE@@detail@iostreams@boost@@2HB ; boost::iostreams::detail::select_by_size<20>::value
PUBLIC	?value@type@?$select_by_size@$0BF@@detail@iostreams@boost@@2HB ; boost::iostreams::detail::select_by_size<21>::type::value
PUBLIC	?value@?$select_by_size@$0BF@@detail@iostreams@boost@@2HB ; boost::iostreams::detail::select_by_size<21>::value
PUBLIC	?value@?$int_@$00@mpl@boost@@2HB		; boost::mpl::int_<1>::value
PUBLIC	?value@?$int_@$01@mpl@boost@@2HB		; boost::mpl::int_<2>::value
PUBLIC	?value@?$int_@$02@mpl@boost@@2HB		; boost::mpl::int_<3>::value
PUBLIC	?value@?$int_@$03@mpl@boost@@2HB		; boost::mpl::int_<4>::value
PUBLIC	?value@?$int_@$04@mpl@boost@@2HB		; boost::mpl::int_<5>::value
PUBLIC	?value@?$int_@$05@mpl@boost@@2HB		; boost::mpl::int_<6>::value
PUBLIC	?value@?$int_@$06@mpl@boost@@2HB		; boost::mpl::int_<7>::value
PUBLIC	?value@?$int_@$07@mpl@boost@@2HB		; boost::mpl::int_<8>::value
PUBLIC	?value@?$int_@$08@mpl@boost@@2HB		; boost::mpl::int_<9>::value
PUBLIC	?value@?$int_@$09@mpl@boost@@2HB		; boost::mpl::int_<10>::value
PUBLIC	?value@?$int_@$0L@@mpl@boost@@2HB		; boost::mpl::int_<11>::value
PUBLIC	?value@?$int_@$0M@@mpl@boost@@2HB		; boost::mpl::int_<12>::value
PUBLIC	?value@?$arg@$0?0@mpl@boost@@2HB		; boost::mpl::arg<-1>::value
PUBLIC	?value@?$arg@$00@mpl@boost@@2HB			; boost::mpl::arg<1>::value
PUBLIC	?value@?$arg@$01@mpl@boost@@2HB			; boost::mpl::arg<2>::value
PUBLIC	?value@?$arg@$02@mpl@boost@@2HB			; boost::mpl::arg<3>::value
PUBLIC	?value@?$arg@$03@mpl@boost@@2HB			; boost::mpl::arg<4>::value
PUBLIC	?value@?$arg@$04@mpl@boost@@2HB			; boost::mpl::arg<5>::value
PUBLIC	?value@?$is_scalar_impl@X@detail@boost@@2_NB	; boost::detail::is_scalar_impl<void>::value
PUBLIC	?value@?$is_scalar_impl@$$CBX@detail@boost@@2_NB ; boost::detail::is_scalar_impl<void const >::value
PUBLIC	?value@?$is_scalar_impl@$$CCX@detail@boost@@2_NB ; boost::detail::is_scalar_impl<void volatile >::value
PUBLIC	?value@?$is_scalar_impl@$$CDX@detail@boost@@2_NB ; boost::detail::is_scalar_impl<void const volatile >::value
PUBLIC	?value@?$is_pod_impl@X@detail@boost@@2_NB	; boost::detail::is_pod_impl<void>::value
PUBLIC	?value@?$is_pod_impl@$$CBX@detail@boost@@2_NB	; boost::detail::is_pod_impl<void const >::value
PUBLIC	?value@?$is_pod_impl@$$CCX@detail@boost@@2_NB	; boost::detail::is_pod_impl<void volatile >::value
PUBLIC	?value@?$is_pod_impl@$$CDX@detail@boost@@2_NB	; boost::detail::is_pod_impl<void const volatile >::value
PUBLIC	?value@?$integral_c@I$0A@@mpl@boost@@2IB	; boost::mpl::integral_c<unsigned int,0>::value
PUBLIC	?value@?$alignment_logic@$07$07@detail@boost@@2IB ; boost::detail::alignment_logic<8,8>::value
PUBLIC	?value@?$alignment_of_impl@Tmax_align@detail@boost@@@detail@boost@@2IB ; boost::detail::alignment_of_impl<boost::detail::max_align>::value
PUBLIC	?value@?$integral_c@I$07@mpl@boost@@2IB		; boost::mpl::integral_c<unsigned int,8>::value
PUBLIC	?value@?$alignment_logic@$00$00@detail@boost@@2IB ; boost::detail::alignment_logic<1,1>::value
PUBLIC	?value@?$alignment_of_impl@D@detail@boost@@2IB	; boost::detail::alignment_of_impl<char>::value
PUBLIC	?value@?$integral_c@I$00@mpl@boost@@2IB		; boost::mpl::integral_c<unsigned int,1>::value
PUBLIC	?value@?$alignment_logic@$01$01@detail@boost@@2IB ; boost::detail::alignment_logic<2,2>::value
PUBLIC	?value@?$alignment_of_impl@F@detail@boost@@2IB	; boost::detail::alignment_of_impl<short>::value
PUBLIC	?value@?$integral_c@I$01@mpl@boost@@2IB		; boost::mpl::integral_c<unsigned int,2>::value
PUBLIC	?value@?$alignment_logic@$03$03@detail@boost@@2IB ; boost::detail::alignment_logic<4,4>::value
PUBLIC	?value@?$alignment_of_impl@H@detail@boost@@2IB	; boost::detail::alignment_of_impl<int>::value
PUBLIC	?value@?$integral_c@I$03@mpl@boost@@2IB		; boost::mpl::integral_c<unsigned int,4>::value
PUBLIC	?value@?$alignment_of_impl@J@detail@boost@@2IB	; boost::detail::alignment_of_impl<long>::value
PUBLIC	?value@?$alignment_of_impl@_J@detail@boost@@2IB	; boost::detail::alignment_of_impl<__int64>::value
PUBLIC	?value@?$alignment_of_impl@T?$lower_alignment@$07@detail@boost@@@detail@boost@@2IB ; boost::detail::alignment_of_impl<boost::detail::lower_alignment<8> >::value
PUBLIC	?value@?$is_aligned@$07$07@detail@boost@@2_NB	; boost::detail::is_aligned<8,8>::value
PUBLIC	?found@?$type_with_alignment_imp@$07@detail@boost@@0IB ; boost::detail::type_with_alignment_imp<8>::found
PUBLIC	?value@?$is_pod_impl@Ua8@align@boost@@@detail@boost@@2_NB ; boost::detail::is_pod_impl<boost::align::a8>::value
PUBLIC	?value@?$is_pod_impl@Ua16@align@boost@@@detail@boost@@2_NB ; boost::detail::is_pod_impl<boost::align::a16>::value
PUBLIC	?value@?$is_pod_impl@Ua32@align@boost@@@detail@boost@@2_NB ; boost::detail::is_pod_impl<boost::align::a32>::value
PUBLIC	?value@?$is_pod_impl@Ua64@align@boost@@@detail@boost@@2_NB ; boost::detail::is_pod_impl<boost::align::a64>::value
PUBLIC	?value@?$is_pod_impl@Ua128@align@boost@@@detail@boost@@2_NB ; boost::detail::is_pod_impl<boost::align::a128>::value
PUBLIC	?value@?$implementation_level@Ucollection_size_type@serialization@boost@@@serialization@boost@@2HB ; boost::serialization::implementation_level<boost::serialization::collection_size_type>::value
PUBLIC	?value@?$implementation_level@V?$vector@_NV?$allocator@_N@std@@@std@@@serialization@boost@@2HB ; boost::serialization::implementation_level<std::vector<bool,std::allocator<bool> > >::value
PUBLIC	?value@?$implementation_level@V?$vector@DV?$allocator@D@std@@@std@@@serialization@boost@@2HB ; boost::serialization::implementation_level<std::vector<char,std::allocator<char> > >::value
PUBLIC	?value@?$implementation_level@V?$vector@CV?$allocator@C@std@@@std@@@serialization@boost@@2HB ; boost::serialization::implementation_level<std::vector<signed char,std::allocator<signed char> > >::value
PUBLIC	?value@?$implementation_level@V?$vector@EV?$allocator@E@std@@@std@@@serialization@boost@@2HB ; boost::serialization::implementation_level<std::vector<unsigned char,std::allocator<unsigned char> > >::value
PUBLIC	?value@?$implementation_level@V?$vector@HV?$allocator@H@std@@@std@@@serialization@boost@@2HB ; boost::serialization::implementation_level<std::vector<int,std::allocator<int> > >::value
PUBLIC	?value@?$implementation_level@V?$vector@IV?$allocator@I@std@@@std@@@serialization@boost@@2HB ; boost::serialization::implementation_level<std::vector<unsigned int,std::allocator<unsigned int> > >::value
PUBLIC	?value@?$implementation_level@V?$vector@JV?$allocator@J@std@@@std@@@serialization@boost@@2HB ; boost::serialization::implementation_level<std::vector<long,std::allocator<long> > >::value
PUBLIC	?value@?$implementation_level@V?$vector@KV?$allocator@K@std@@@std@@@serialization@boost@@2HB ; boost::serialization::implementation_level<std::vector<unsigned long,std::allocator<unsigned long> > >::value
PUBLIC	?value@?$implementation_level@V?$vector@MV?$allocator@M@std@@@std@@@serialization@boost@@2HB ; boost::serialization::implementation_level<std::vector<float,std::allocator<float> > >::value
PUBLIC	?value@?$implementation_level@V?$vector@NV?$allocator@N@std@@@std@@@serialization@boost@@2HB ; boost::serialization::implementation_level<std::vector<double,std::allocator<double> > >::value
PUBLIC	?value@?$implementation_level@V?$vector@GV?$allocator@G@std@@@std@@@serialization@boost@@2HB ; boost::serialization::implementation_level<std::vector<unsigned short,std::allocator<unsigned short> > >::value
PUBLIC	?value@?$implementation_level@V?$vector@FV?$allocator@F@std@@@std@@@serialization@boost@@2HB ; boost::serialization::implementation_level<std::vector<short,std::allocator<short> > >::value
PUBLIC	?value@?$implementation_level@V?$vector@_JV?$allocator@_J@std@@@std@@@serialization@boost@@2HB ; boost::serialization::implementation_level<std::vector<__int64,std::allocator<__int64> > >::value
PUBLIC	?value@?$implementation_level@V?$vector@_KV?$allocator@_K@std@@@std@@@serialization@boost@@2HB ; boost::serialization::implementation_level<std::vector<unsigned __int64,std::allocator<unsigned __int64> > >::value
PUBLIC	?value@?$implementation_level@V?$vector@_WV?$allocator@_W@std@@@std@@@serialization@boost@@2HB ; boost::serialization::implementation_level<std::vector<wchar_t,std::allocator<wchar_t> > >::value
PUBLIC	?value@?$is_arithmetic_impl@Uinput@iostreams@boost@@@detail@boost@@2_NB ; boost::detail::is_arithmetic_impl<boost::iostreams::input>::value
PUBLIC	?value@?$is_abstract_imp@Uinput@iostreams@boost@@@detail@boost@@2_NB ; boost::detail::is_abstract_imp<boost::iostreams::input>::value
PUBLIC	?value@?$is_convertible_basic_impl@AAUinput@iostreams@boost@@U123@@detail@boost@@2_NB ; boost::detail::is_convertible_basic_impl<boost::iostreams::input &,boost::iostreams::input>::value
PUBLIC	?value@?$ice_or@$00$0A@$0A@$0A@$0A@$0A@$0A@@type_traits@boost@@2_NB ; boost::type_traits::ice_or<1,0,0,0,0,0,0>::value
PUBLIC	?value@?$ice_not@$0A@@type_traits@boost@@2_NB	; boost::type_traits::ice_not<0>::value
PUBLIC	?value@?$is_convertible_impl@Uinput@iostreams@boost@@U123@@detail@boost@@2_NB ; boost::detail::is_convertible_impl<boost::iostreams::input,boost::iostreams::input>::value
PUBLIC	?value@?$is_arithmetic_impl@Uoutput@iostreams@boost@@@detail@boost@@2_NB ; boost::detail::is_arithmetic_impl<boost::iostreams::output>::value
PUBLIC	?value@?$is_abstract_imp@Uoutput@iostreams@boost@@@detail@boost@@2_NB ; boost::detail::is_abstract_imp<boost::iostreams::output>::value
PUBLIC	?value@?$is_convertible_basic_impl@AAUinput@iostreams@boost@@Uoutput@23@@detail@boost@@2_NB ; boost::detail::is_convertible_basic_impl<boost::iostreams::input &,boost::iostreams::output>::value
PUBLIC	?value@?$ice_and@$0A@$00$00$00$00$00$00@type_traits@boost@@2_NB ; boost::type_traits::ice_and<0,1,1,1,1,1,1>::value
PUBLIC	?value@?$is_convertible_impl@Uinput@iostreams@boost@@Uoutput@23@@detail@boost@@2_NB ; boost::detail::is_convertible_impl<boost::iostreams::input,boost::iostreams::output>::value
PUBLIC	?word_size@?$mersenne_twister@K$0CA@$0CHA@$0BIN@$0BP@$0JJAILANP@$0L@$06$0JNCMFGIA@$0P@$0OPMGAAAA@$0BC@$0MHHGGGNO@@random@boost@@2HB ; boost::random::mersenne_twister<unsigned long,32,624,397,31,2567483615,11,7,2636928640,15,4022730752,18,3346425566>::word_size
PUBLIC	?state_size@?$mersenne_twister@K$0CA@$0CHA@$0BIN@$0BP@$0JJAILANP@$0L@$06$0JNCMFGIA@$0P@$0OPMGAAAA@$0BC@$0MHHGGGNO@@random@boost@@2HB ; boost::random::mersenne_twister<unsigned long,32,624,397,31,2567483615,11,7,2636928640,15,4022730752,18,3346425566>::state_size
PUBLIC	?shift_size@?$mersenne_twister@K$0CA@$0CHA@$0BIN@$0BP@$0JJAILANP@$0L@$06$0JNCMFGIA@$0P@$0OPMGAAAA@$0BC@$0MHHGGGNO@@random@boost@@2HB ; boost::random::mersenne_twister<unsigned long,32,624,397,31,2567483615,11,7,2636928640,15,4022730752,18,3346425566>::shift_size
PUBLIC	?mask_bits@?$mersenne_twister@K$0CA@$0CHA@$0BIN@$0BP@$0JJAILANP@$0L@$06$0JNCMFGIA@$0P@$0OPMGAAAA@$0BC@$0MHHGGGNO@@random@boost@@2HB ; boost::random::mersenne_twister<unsigned long,32,624,397,31,2567483615,11,7,2636928640,15,4022730752,18,3346425566>::mask_bits
PUBLIC	?parameter_a@?$mersenne_twister@K$0CA@$0CHA@$0BIN@$0BP@$0JJAILANP@$0L@$06$0JNCMFGIA@$0P@$0OPMGAAAA@$0BC@$0MHHGGGNO@@random@boost@@2KB ; boost::random::mersenne_twister<unsigned long,32,624,397,31,2567483615,11,7,2636928640,15,4022730752,18,3346425566>::parameter_a
PUBLIC	?output_u@?$mersenne_twister@K$0CA@$0CHA@$0BIN@$0BP@$0JJAILANP@$0L@$06$0JNCMFGIA@$0P@$0OPMGAAAA@$0BC@$0MHHGGGNO@@random@boost@@2HB ; boost::random::mersenne_twister<unsigned long,32,624,397,31,2567483615,11,7,2636928640,15,4022730752,18,3346425566>::output_u
PUBLIC	?output_s@?$mersenne_twister@K$0CA@$0CHA@$0BIN@$0BP@$0JJAILANP@$0L@$06$0JNCMFGIA@$0P@$0OPMGAAAA@$0BC@$0MHHGGGNO@@random@boost@@2HB ; boost::random::mersenne_twister<unsigned long,32,624,397,31,2567483615,11,7,2636928640,15,4022730752,18,3346425566>::output_s
PUBLIC	?output_b@?$mersenne_twister@K$0CA@$0CHA@$0BIN@$0BP@$0JJAILANP@$0L@$06$0JNCMFGIA@$0P@$0OPMGAAAA@$0BC@$0MHHGGGNO@@random@boost@@2KB ; boost::random::mersenne_twister<unsigned long,32,624,397,31,2567483615,11,7,2636928640,15,4022730752,18,3346425566>::output_b
PUBLIC	?output_t@?$mersenne_twister@K$0CA@$0CHA@$0BIN@$0BP@$0JJAILANP@$0L@$06$0JNCMFGIA@$0P@$0OPMGAAAA@$0BC@$0MHHGGGNO@@random@boost@@2HB ; boost::random::mersenne_twister<unsigned long,32,624,397,31,2567483615,11,7,2636928640,15,4022730752,18,3346425566>::output_t
PUBLIC	?output_c@?$mersenne_twister@K$0CA@$0CHA@$0BIN@$0BP@$0JJAILANP@$0L@$06$0JNCMFGIA@$0P@$0OPMGAAAA@$0BC@$0MHHGGGNO@@random@boost@@2KB ; boost::random::mersenne_twister<unsigned long,32,624,397,31,2567483615,11,7,2636928640,15,4022730752,18,3346425566>::output_c
PUBLIC	?output_l@?$mersenne_twister@K$0CA@$0CHA@$0BIN@$0BP@$0JJAILANP@$0L@$06$0JNCMFGIA@$0P@$0OPMGAAAA@$0BC@$0MHHGGGNO@@random@boost@@2HB ; boost::random::mersenne_twister<unsigned long,32,624,397,31,2567483615,11,7,2636928640,15,4022730752,18,3346425566>::output_l
PUBLIC	?has_fixed_range@?$mersenne_twister@K$0CA@$0CHA@$0BIN@$0BP@$0JJAILANP@$0L@$06$0JNCMFGIA@$0P@$0OPMGAAAA@$0BC@$0MHHGGGNO@@random@boost@@2_NB ; boost::random::mersenne_twister<unsigned long,32,624,397,31,2567483615,11,7,2636928640,15,4022730752,18,3346425566>::has_fixed_range
PUBLIC	?is_const@?$cv_traits_imp@PAH@detail@boost@@2_NB ; boost::detail::cv_traits_imp<int *>::is_const
PUBLIC	?is_volatile@?$cv_traits_imp@PAH@detail@boost@@2_NB ; boost::detail::cv_traits_imp<int *>::is_volatile
PUBLIC	?value@?$is_ununsigned_helper@H@detail@boost@@2_NB ; boost::detail::is_ununsigned_helper<int>::value
PUBLIC	?value@?$is_unsigned_imp@H@detail@boost@@2_NB	; boost::detail::is_unsigned_imp<int>::value
PUBLIC	?has_fixed_range@?$backward_compatible_uniform_01@V?$pass_through_engine@AAV?$mersenne_twister@K$0CA@$0CHA@$0BIN@$0BP@$0JJAILANP@$0L@$06$0JNCMFGIA@$0P@$0OPMGAAAA@$0BC@$0MHHGGGNO@@random@boost@@@detail@random@boost@@N@detail@boost@@2_NB ; boost::detail::backward_compatible_uniform_01<boost::random::detail::pass_through_engine<boost::random::mersenne_twister<unsigned long,32,624,397,31,2567483615,11,7,2636928640,15,4022730752,18,3346425566> &>,double>::has_fixed_range
PUBLIC	?has_fixed_range@?$backward_compatible_uniform_01@V?$pass_through_engine@V?$mersenne_twister@K$0CA@$0CHA@$0BIN@$0BP@$0JJAILANP@$0L@$06$0JNCMFGIA@$0P@$0OPMGAAAA@$0BC@$0MHHGGGNO@@random@boost@@@detail@random@boost@@N@detail@boost@@2_NB ; boost::detail::backward_compatible_uniform_01<boost::random::detail::pass_through_engine<boost::random::mersenne_twister<unsigned long,32,624,397,31,2567483615,11,7,2636928640,15,4022730752,18,3346425566> >,double>::has_fixed_range
PUBLIC	?value@?$implementation_level@V?$list@_NV?$allocator@_N@std@@@std@@@serialization@boost@@2HB ; boost::serialization::implementation_level<std::list<bool,std::allocator<bool> > >::value
PUBLIC	?value@?$implementation_level@V?$list@DV?$allocator@D@std@@@std@@@serialization@boost@@2HB ; boost::serialization::implementation_level<std::list<char,std::allocator<char> > >::value
PUBLIC	?value@?$implementation_level@V?$list@CV?$allocator@C@std@@@std@@@serialization@boost@@2HB ; boost::serialization::implementation_level<std::list<signed char,std::allocator<signed char> > >::value
PUBLIC	?value@?$implementation_level@V?$list@EV?$allocator@E@std@@@std@@@serialization@boost@@2HB ; boost::serialization::implementation_level<std::list<unsigned char,std::allocator<unsigned char> > >::value
PUBLIC	?value@?$implementation_level@V?$list@HV?$allocator@H@std@@@std@@@serialization@boost@@2HB ; boost::serialization::implementation_level<std::list<int,std::allocator<int> > >::value
PUBLIC	?value@?$implementation_level@V?$list@IV?$allocator@I@std@@@std@@@serialization@boost@@2HB ; boost::serialization::implementation_level<std::list<unsigned int,std::allocator<unsigned int> > >::value
PUBLIC	?value@?$implementation_level@V?$list@JV?$allocator@J@std@@@std@@@serialization@boost@@2HB ; boost::serialization::implementation_level<std::list<long,std::allocator<long> > >::value
PUBLIC	?value@?$implementation_level@V?$list@KV?$allocator@K@std@@@std@@@serialization@boost@@2HB ; boost::serialization::implementation_level<std::list<unsigned long,std::allocator<unsigned long> > >::value
PUBLIC	?value@?$implementation_level@V?$list@MV?$allocator@M@std@@@std@@@serialization@boost@@2HB ; boost::serialization::implementation_level<std::list<float,std::allocator<float> > >::value
PUBLIC	?value@?$implementation_level@V?$list@NV?$allocator@N@std@@@std@@@serialization@boost@@2HB ; boost::serialization::implementation_level<std::list<double,std::allocator<double> > >::value
PUBLIC	?value@?$implementation_level@V?$list@GV?$allocator@G@std@@@std@@@serialization@boost@@2HB ; boost::serialization::implementation_level<std::list<unsigned short,std::allocator<unsigned short> > >::value
PUBLIC	?value@?$implementation_level@V?$list@FV?$allocator@F@std@@@std@@@serialization@boost@@2HB ; boost::serialization::implementation_level<std::list<short,std::allocator<short> > >::value
PUBLIC	?value@?$implementation_level@V?$list@_JV?$allocator@_J@std@@@std@@@serialization@boost@@2HB ; boost::serialization::implementation_level<std::list<__int64,std::allocator<__int64> > >::value
PUBLIC	?value@?$implementation_level@V?$list@_KV?$allocator@_K@std@@@std@@@serialization@boost@@2HB ; boost::serialization::implementation_level<std::list<unsigned __int64,std::allocator<unsigned __int64> > >::value
PUBLIC	?value@?$implementation_level@V?$list@_WV?$allocator@_W@std@@@std@@@serialization@boost@@2HB ; boost::serialization::implementation_level<std::list<wchar_t,std::allocator<wchar_t> > >::value
PUBLIC	?is_const@?$cv_traits_imp@PBV?$basic_string@DU?$char_traits@D@std@@V?$allocator@D@2@@std@@@detail@boost@@2_NB ; boost::detail::cv_traits_imp<std::basic_string<char,std::char_traits<char>,std::allocator<char> > const *>::is_const
PUBLIC	?is_volatile@?$cv_traits_imp@PBV?$basic_string@DU?$char_traits@D@std@@V?$allocator@D@2@@std@@@detail@boost@@2_NB ; boost::detail::cv_traits_imp<std::basic_string<char,std::char_traits<char>,std::allocator<char> > const *>::is_volatile
PUBLIC	?is_const@?$cv_traits_imp@PAV?$basic_string@DU?$char_traits@D@std@@V?$allocator@D@2@@std@@@detail@boost@@2_NB ; boost::detail::cv_traits_imp<std::basic_string<char,std::char_traits<char>,std::allocator<char> > *>::is_const
PUBLIC	?is_volatile@?$cv_traits_imp@PAV?$basic_string@DU?$char_traits@D@std@@V?$allocator@D@2@@std@@@detail@boost@@2_NB ; boost::detail::cv_traits_imp<std::basic_string<char,std::char_traits<char>,std::allocator<char> > *>::is_volatile
PUBLIC	?value@?$is_abstract_imp@D@detail@boost@@2_NB	; boost::detail::is_abstract_imp<char>::value
PUBLIC	?value@?$is_pointer_helper@V?$basic_string@DU?$char_traits@D@std@@V?$allocator@D@2@@std@@@detail@boost@@2_NB ; boost::detail::is_pointer_helper<std::basic_string<char,std::char_traits<char>,std::allocator<char> > >::value
PUBLIC	?value@?$result_@V?$basic_string@DU?$char_traits@D@std@@V?$allocator@D@2@@std@@@?$is_mem_fun_pointer_select@$0A@@detail@boost@@2_NB ; boost::detail::is_mem_fun_pointer_select<0>::result_<std::basic_string<char,std::char_traits<char>,std::allocator<char> > >::value
PUBLIC	?value@?$is_pointer_impl@V?$basic_string@DU?$char_traits@D@std@@V?$allocator@D@2@@std@@@detail@boost@@2_NB ; boost::detail::is_pointer_impl<std::basic_string<char,std::char_traits<char>,std::allocator<char> > >::value
PUBLIC	?value@?$is_arithmetic_impl@V?$basic_string@DU?$char_traits@D@std@@V?$allocator@D@2@@std@@@detail@boost@@2_NB ; boost::detail::is_arithmetic_impl<std::basic_string<char,std::char_traits<char>,std::allocator<char> > >::value
PUBLIC	?value@?$lcast_src_length@DV?$basic_string@DU?$char_traits@D@std@@V?$allocator@D@2@@std@@@detail@boost@@2IB ; boost::detail::lcast_src_length<char,std::basic_string<char,std::char_traits<char>,std::allocator<char> > >::value
PUBLIC	?is_const@?$cv_traits_imp@PBV?$iterator_range@V?$_String_iterator@DU?$char_traits@D@std@@V?$allocator@D@2@@std@@@boost@@@detail@boost@@2_NB ; boost::detail::cv_traits_imp<boost::iterator_range<std::_String_iterator<char,std::char_traits<char>,std::allocator<char> > > const *>::is_const
PUBLIC	?is_volatile@?$cv_traits_imp@PBV?$iterator_range@V?$_String_iterator@DU?$char_traits@D@std@@V?$allocator@D@2@@std@@@boost@@@detail@boost@@2_NB ; boost::detail::cv_traits_imp<boost::iterator_range<std::_String_iterator<char,std::char_traits<char>,std::allocator<char> > > const *>::is_volatile
PUBLIC	?value@?$lcast_streambuf_for_target@I@detail@boost@@2_NB ; boost::detail::lcast_streambuf_for_target<unsigned int>::value
PUBLIC	?value@?$lcast_streambuf_for_source@V?$basic_string@DU?$char_traits@D@std@@V?$allocator@D@2@@std@@@detail@boost@@2_NB ; boost::detail::lcast_streambuf_for_source<std::basic_string<char,std::char_traits<char>,std::allocator<char> > >::value
PUBLIC	?value@?$lcast_streambuf_for_target@M@detail@boost@@2_NB ; boost::detail::lcast_streambuf_for_target<float>::value
PUBLIC	?value@?$lcast_streambuf_for_target@_J@detail@boost@@2_NB ; boost::detail::lcast_streambuf_for_target<__int64>::value
PUBLIC	?is_const@?$cv_traits_imp@PAI@detail@boost@@2_NB ; boost::detail::cv_traits_imp<unsigned int *>::is_const
PUBLIC	?is_volatile@?$cv_traits_imp@PAI@detail@boost@@2_NB ; boost::detail::cv_traits_imp<unsigned int *>::is_volatile
PUBLIC	?value@?$is_pointer_helper@I@detail@boost@@2_NB	; boost::detail::is_pointer_helper<unsigned int>::value
PUBLIC	?value@?$result_@I@?$is_mem_fun_pointer_select@$0A@@detail@boost@@2_NB ; boost::detail::is_mem_fun_pointer_select<0>::result_<unsigned int>::value
PUBLIC	?value@?$is_pointer_impl@I@detail@boost@@2_NB	; boost::detail::is_pointer_impl<unsigned int>::value
PUBLIC	?is_const@?$cv_traits_imp@PAM@detail@boost@@2_NB ; boost::detail::cv_traits_imp<float *>::is_const
PUBLIC	?is_volatile@?$cv_traits_imp@PAM@detail@boost@@2_NB ; boost::detail::cv_traits_imp<float *>::is_volatile
PUBLIC	?value@?$is_pointer_helper@M@detail@boost@@2_NB	; boost::detail::is_pointer_helper<float>::value
PUBLIC	?value@?$result_@M@?$is_mem_fun_pointer_select@$0A@@detail@boost@@2_NB ; boost::detail::is_mem_fun_pointer_select<0>::result_<float>::value
PUBLIC	?value@?$is_pointer_impl@M@detail@boost@@2_NB	; boost::detail::is_pointer_impl<float>::value
PUBLIC	?is_const@?$cv_traits_imp@PA_J@detail@boost@@2_NB ; boost::detail::cv_traits_imp<__int64 *>::is_const
PUBLIC	?is_volatile@?$cv_traits_imp@PA_J@detail@boost@@2_NB ; boost::detail::cv_traits_imp<__int64 *>::is_volatile
PUBLIC	?value@?$is_pointer_helper@_J@detail@boost@@2_NB ; boost::detail::is_pointer_helper<__int64>::value
PUBLIC	?value@?$result_@_J@?$is_mem_fun_pointer_select@$0A@@detail@boost@@2_NB ; boost::detail::is_mem_fun_pointer_select<0>::result_<__int64>::value
PUBLIC	?value@?$is_pointer_impl@_J@detail@boost@@2_NB	; boost::detail::is_pointer_impl<__int64>::value
PUBLIC	?value@?$is_abstract_imp@I@detail@boost@@2_NB	; boost::detail::is_abstract_imp<unsigned int>::value
PUBLIC	?use_default_precision@?$lcast_precision@I@detail@boost@@2_NB ; boost::detail::lcast_precision<unsigned int>::use_default_precision
PUBLIC	?is_specialized_bin@?$lcast_precision@I@detail@boost@@2_NB ; boost::detail::lcast_precision<unsigned int>::is_specialized_bin
PUBLIC	?is_specialized_dec@?$lcast_precision@I@detail@boost@@2_NB ; boost::detail::lcast_precision<unsigned int>::is_specialized_dec
PUBLIC	?streamsize_max@?$lcast_precision@I@detail@boost@@2HB ; boost::detail::lcast_precision<unsigned int>::streamsize_max
PUBLIC	?precision_dec@?$lcast_precision@I@detail@boost@@2IB ; boost::detail::lcast_precision<unsigned int>::precision_dec
PUBLIC	?precision_bin@?$lcast_precision@I@detail@boost@@2KB ; boost::detail::lcast_precision<unsigned int>::precision_bin
PUBLIC	?value@?$lcast_precision@I@detail@boost@@2HB	; boost::detail::lcast_precision<unsigned int>::value
PUBLIC	?value@?$is_abstract_imp@_J@detail@boost@@2_NB	; boost::detail::is_abstract_imp<__int64>::value
PUBLIC	?use_default_precision@?$lcast_precision@_J@detail@boost@@2_NB ; boost::detail::lcast_precision<__int64>::use_default_precision
PUBLIC	?is_specialized_bin@?$lcast_precision@_J@detail@boost@@2_NB ; boost::detail::lcast_precision<__int64>::is_specialized_bin
PUBLIC	?is_specialized_dec@?$lcast_precision@_J@detail@boost@@2_NB ; boost::detail::lcast_precision<__int64>::is_specialized_dec
PUBLIC	?streamsize_max@?$lcast_precision@_J@detail@boost@@2HB ; boost::detail::lcast_precision<__int64>::streamsize_max
PUBLIC	?precision_dec@?$lcast_precision@_J@detail@boost@@2IB ; boost::detail::lcast_precision<__int64>::precision_dec
PUBLIC	?precision_bin@?$lcast_precision@_J@detail@boost@@2KB ; boost::detail::lcast_precision<__int64>::precision_bin
PUBLIC	?value@?$lcast_precision@_J@detail@boost@@2HB	; boost::detail::lcast_precision<__int64>::value
;	COMDAT ?value@?$lcast_precision@_J@detail@boost@@2HB
CONST	SEGMENT
?value@?$lcast_precision@_J@detail@boost@@2HB DD 06H	; boost::detail::lcast_precision<__int64>::value
CONST	ENDS
;	COMDAT ?precision_bin@?$lcast_precision@_J@detail@boost@@2KB
CONST	SEGMENT
?precision_bin@?$lcast_precision@_J@detail@boost@@2KB DD 014H ; boost::detail::lcast_precision<__int64>::precision_bin
CONST	ENDS
;	COMDAT ?precision_dec@?$lcast_precision@_J@detail@boost@@2IB
CONST	SEGMENT
?precision_dec@?$lcast_precision@_J@detail@boost@@2IB DD 013H ; boost::detail::lcast_precision<__int64>::precision_dec
CONST	ENDS
;	COMDAT ?streamsize_max@?$lcast_precision@_J@detail@boost@@2HB
CONST	SEGMENT
?streamsize_max@?$lcast_precision@_J@detail@boost@@2HB DD 07fffffffH ; boost::detail::lcast_precision<__int64>::streamsize_max
CONST	ENDS
;	COMDAT ?is_specialized_dec@?$lcast_precision@_J@detail@boost@@2_NB
CONST	SEGMENT
?is_specialized_dec@?$lcast_precision@_J@detail@boost@@2_NB DB 00H ; boost::detail::lcast_precision<__int64>::is_specialized_dec
CONST	ENDS
;	COMDAT ?is_specialized_bin@?$lcast_precision@_J@detail@boost@@2_NB
CONST	SEGMENT
?is_specialized_bin@?$lcast_precision@_J@detail@boost@@2_NB DB 00H ; boost::detail::lcast_precision<__int64>::is_specialized_bin
CONST	ENDS
;	COMDAT ?use_default_precision@?$lcast_precision@_J@detail@boost@@2_NB
CONST	SEGMENT
?use_default_precision@?$lcast_precision@_J@detail@boost@@2_NB DB 01H ; boost::detail::lcast_precision<__int64>::use_default_precision
CONST	ENDS
;	COMDAT ?value@?$is_abstract_imp@_J@detail@boost@@2_NB
CONST	SEGMENT
?value@?$is_abstract_imp@_J@detail@boost@@2_NB DB 00H	; boost::detail::is_abstract_imp<__int64>::value
CONST	ENDS
;	COMDAT ?value@?$lcast_precision@I@detail@boost@@2HB
CONST	SEGMENT
?value@?$lcast_precision@I@detail@boost@@2HB DD 06H	; boost::detail::lcast_precision<unsigned int>::value
CONST	ENDS
;	COMDAT ?precision_bin@?$lcast_precision@I@detail@boost@@2KB
CONST	SEGMENT
?precision_bin@?$lcast_precision@I@detail@boost@@2KB DD 0bH ; boost::detail::lcast_precision<unsigned int>::precision_bin
CONST	ENDS
;	COMDAT ?precision_dec@?$lcast_precision@I@detail@boost@@2IB
CONST	SEGMENT
?precision_dec@?$lcast_precision@I@detail@boost@@2IB DD 0aH ; boost::detail::lcast_precision<unsigned int>::precision_dec
CONST	ENDS
;	COMDAT ?streamsize_max@?$lcast_precision@I@detail@boost@@2HB
CONST	SEGMENT
?streamsize_max@?$lcast_precision@I@detail@boost@@2HB DD 07fffffffH ; boost::detail::lcast_precision<unsigned int>::streamsize_max
CONST	ENDS
;	COMDAT ?is_specialized_dec@?$lcast_precision@I@detail@boost@@2_NB
CONST	SEGMENT
?is_specialized_dec@?$lcast_precision@I@detail@boost@@2_NB DB 00H ; boost::detail::lcast_precision<unsigned int>::is_specialized_dec
CONST	ENDS
;	COMDAT ?is_specialized_bin@?$lcast_precision@I@detail@boost@@2_NB
CONST	SEGMENT
?is_specialized_bin@?$lcast_precision@I@detail@boost@@2_NB DB 00H ; boost::detail::lcast_precision<unsigned int>::is_specialized_bin
CONST	ENDS
;	COMDAT ?use_default_precision@?$lcast_precision@I@detail@boost@@2_NB
CONST	SEGMENT
?use_default_precision@?$lcast_precision@I@detail@boost@@2_NB DB 01H ; boost::detail::lcast_precision<unsigned int>::use_default_precision
CONST	ENDS
;	COMDAT ?value@?$is_abstract_imp@I@detail@boost@@2_NB
CONST	SEGMENT
?value@?$is_abstract_imp@I@detail@boost@@2_NB DB 00H	; boost::detail::is_abstract_imp<unsigned int>::value
CONST	ENDS
;	COMDAT ?value@?$is_pointer_impl@_J@detail@boost@@2_NB
CONST	SEGMENT
?value@?$is_pointer_impl@_J@detail@boost@@2_NB DB 00H	; boost::detail::is_pointer_impl<__int64>::value
CONST	ENDS
;	COMDAT ?value@?$result_@_J@?$is_mem_fun_pointer_select@$0A@@detail@boost@@2_NB
CONST	SEGMENT
?value@?$result_@_J@?$is_mem_fun_pointer_select@$0A@@detail@boost@@2_NB DB 00H ; boost::detail::is_mem_fun_pointer_select<0>::result_<__int64>::value
CONST	ENDS
;	COMDAT ?value@?$is_pointer_helper@_J@detail@boost@@2_NB
CONST	SEGMENT
?value@?$is_pointer_helper@_J@detail@boost@@2_NB DB 00H	; boost::detail::is_pointer_helper<__int64>::value
CONST	ENDS
;	COMDAT ?is_volatile@?$cv_traits_imp@PA_J@detail@boost@@2_NB
CONST	SEGMENT
?is_volatile@?$cv_traits_imp@PA_J@detail@boost@@2_NB DB 00H ; boost::detail::cv_traits_imp<__int64 *>::is_volatile
CONST	ENDS
;	COMDAT ?is_const@?$cv_traits_imp@PA_J@detail@boost@@2_NB
CONST	SEGMENT
?is_const@?$cv_traits_imp@PA_J@detail@boost@@2_NB DB 00H ; boost::detail::cv_traits_imp<__int64 *>::is_const
CONST	ENDS
;	COMDAT ?value@?$is_pointer_impl@M@detail@boost@@2_NB
CONST	SEGMENT
?value@?$is_pointer_impl@M@detail@boost@@2_NB DB 00H	; boost::detail::is_pointer_impl<float>::value
CONST	ENDS
;	COMDAT ?value@?$result_@M@?$is_mem_fun_pointer_select@$0A@@detail@boost@@2_NB
CONST	SEGMENT
?value@?$result_@M@?$is_mem_fun_pointer_select@$0A@@detail@boost@@2_NB DB 00H ; boost::detail::is_mem_fun_pointer_select<0>::result_<float>::value
CONST	ENDS
;	COMDAT ?value@?$is_pointer_helper@M@detail@boost@@2_NB
CONST	SEGMENT
?value@?$is_pointer_helper@M@detail@boost@@2_NB DB 00H	; boost::detail::is_pointer_helper<float>::value
CONST	ENDS
;	COMDAT ?is_volatile@?$cv_traits_imp@PAM@detail@boost@@2_NB
CONST	SEGMENT
?is_volatile@?$cv_traits_imp@PAM@detail@boost@@2_NB DB 00H ; boost::detail::cv_traits_imp<float *>::is_volatile
CONST	ENDS
;	COMDAT ?is_const@?$cv_traits_imp@PAM@detail@boost@@2_NB
CONST	SEGMENT
?is_const@?$cv_traits_imp@PAM@detail@boost@@2_NB DB 00H	; boost::detail::cv_traits_imp<float *>::is_const
CONST	ENDS
;	COMDAT ?value@?$is_pointer_impl@I@detail@boost@@2_NB
CONST	SEGMENT
?value@?$is_pointer_impl@I@detail@boost@@2_NB DB 00H	; boost::detail::is_pointer_impl<unsigned int>::value
CONST	ENDS
;	COMDAT ?value@?$result_@I@?$is_mem_fun_pointer_select@$0A@@detail@boost@@2_NB
CONST	SEGMENT
?value@?$result_@I@?$is_mem_fun_pointer_select@$0A@@detail@boost@@2_NB DB 00H ; boost::detail::is_mem_fun_pointer_select<0>::result_<unsigned int>::value
CONST	ENDS
;	COMDAT ?value@?$is_pointer_helper@I@detail@boost@@2_NB
CONST	SEGMENT
?value@?$is_pointer_helper@I@detail@boost@@2_NB DB 00H	; boost::detail::is_pointer_helper<unsigned int>::value
CONST	ENDS
;	COMDAT ?is_volatile@?$cv_traits_imp@PAI@detail@boost@@2_NB
CONST	SEGMENT
?is_volatile@?$cv_traits_imp@PAI@detail@boost@@2_NB DB 00H ; boost::detail::cv_traits_imp<unsigned int *>::is_volatile
CONST	ENDS
;	COMDAT ?is_const@?$cv_traits_imp@PAI@detail@boost@@2_NB
CONST	SEGMENT
?is_const@?$cv_traits_imp@PAI@detail@boost@@2_NB DB 00H	; boost::detail::cv_traits_imp<unsigned int *>::is_const
CONST	ENDS
;	COMDAT ?value@?$lcast_streambuf_for_target@_J@detail@boost@@2_NB
CONST	SEGMENT
?value@?$lcast_streambuf_for_target@_J@detail@boost@@2_NB DB 01H ; boost::detail::lcast_streambuf_for_target<__int64>::value
CONST	ENDS
;	COMDAT ?value@?$lcast_streambuf_for_target@M@detail@boost@@2_NB
CONST	SEGMENT
?value@?$lcast_streambuf_for_target@M@detail@boost@@2_NB DB 01H ; boost::detail::lcast_streambuf_for_target<float>::value
CONST	ENDS
;	COMDAT ?value@?$lcast_streambuf_for_source@V?$basic_string@DU?$char_traits@D@std@@V?$allocator@D@2@@std@@@detail@boost@@2_NB
CONST	SEGMENT
?value@?$lcast_streambuf_for_source@V?$basic_string@DU?$char_traits@D@std@@V?$allocator@D@2@@std@@@detail@boost@@2_NB DB 00H ; boost::detail::lcast_streambuf_for_source<std::basic_string<char,std::char_traits<char>,std::allocator<char> > >::value
CONST	ENDS
;	COMDAT ?value@?$lcast_streambuf_for_target@I@detail@boost@@2_NB
CONST	SEGMENT
?value@?$lcast_streambuf_for_target@I@detail@boost@@2_NB DB 01H ; boost::detail::lcast_streambuf_for_target<unsigned int>::value
CONST	ENDS
;	COMDAT ?is_volatile@?$cv_traits_imp@PBV?$iterator_range@V?$_String_iterator@DU?$char_traits@D@std@@V?$allocator@D@2@@std@@@boost@@@detail@boost@@2_NB
CONST	SEGMENT
?is_volatile@?$cv_traits_imp@PBV?$iterator_range@V?$_String_iterator@DU?$char_traits@D@std@@V?$allocator@D@2@@std@@@boost@@@detail@boost@@2_NB DB 00H ; boost::detail::cv_traits_imp<boost::iterator_range<std::_String_iterator<char,std::char_traits<char>,std::allocator<char> > > const *>::is_volatile
CONST	ENDS
;	COMDAT ?is_const@?$cv_traits_imp@PBV?$iterator_range@V?$_String_iterator@DU?$char_traits@D@std@@V?$allocator@D@2@@std@@@boost@@@detail@boost@@2_NB
CONST	SEGMENT
?is_const@?$cv_traits_imp@PBV?$iterator_range@V?$_String_iterator@DU?$char_traits@D@std@@V?$allocator@D@2@@std@@@boost@@@detail@boost@@2_NB DB 01H ; boost::detail::cv_traits_imp<boost::iterator_range<std::_String_iterator<char,std::char_traits<char>,std::allocator<char> > > const *>::is_const
CONST	ENDS
;	COMDAT ?value@?$lcast_src_length@DV?$basic_string@DU?$char_traits@D@std@@V?$allocator@D@2@@std@@@detail@boost@@2IB
CONST	SEGMENT
?value@?$lcast_src_length@DV?$basic_string@DU?$char_traits@D@std@@V?$allocator@D@2@@std@@@detail@boost@@2IB DD 01H ; boost::detail::lcast_src_length<char,std::basic_string<char,std::char_traits<char>,std::allocator<char> > >::value
CONST	ENDS
;	COMDAT ?value@?$is_arithmetic_impl@V?$basic_string@DU?$char_traits@D@std@@V?$allocator@D@2@@std@@@detail@boost@@2_NB
CONST	SEGMENT
?value@?$is_arithmetic_impl@V?$basic_string@DU?$char_traits@D@std@@V?$allocator@D@2@@std@@@detail@boost@@2_NB DB 00H ; boost::detail::is_arithmetic_impl<std::basic_string<char,std::char_traits<char>,std::allocator<char> > >::value
CONST	ENDS
;	COMDAT ?value@?$is_pointer_impl@V?$basic_string@DU?$char_traits@D@std@@V?$allocator@D@2@@std@@@detail@boost@@2_NB
CONST	SEGMENT
?value@?$is_pointer_impl@V?$basic_string@DU?$char_traits@D@std@@V?$allocator@D@2@@std@@@detail@boost@@2_NB DB 00H ; boost::detail::is_pointer_impl<std::basic_string<char,std::char_traits<char>,std::allocator<char> > >::value
CONST	ENDS
;	COMDAT ?value@?$result_@V?$basic_string@DU?$char_traits@D@std@@V?$allocator@D@2@@std@@@?$is_mem_fun_pointer_select@$0A@@detail@boost@@2_NB
CONST	SEGMENT
?value@?$result_@V?$basic_string@DU?$char_traits@D@std@@V?$allocator@D@2@@std@@@?$is_mem_fun_pointer_select@$0A@@detail@boost@@2_NB DB 00H ; boost::detail::is_mem_fun_pointer_select<0>::result_<std::basic_string<char,std::char_traits<char>,std::allocator<char> > >::value
CONST	ENDS
;	COMDAT ?value@?$is_pointer_helper@V?$basic_string@DU?$char_traits@D@std@@V?$allocator@D@2@@std@@@detail@boost@@2_NB
CONST	SEGMENT
?value@?$is_pointer_helper@V?$basic_string@DU?$char_traits@D@std@@V?$allocator@D@2@@std@@@detail@boost@@2_NB DB 00H ; boost::detail::is_pointer_helper<std::basic_string<char,std::char_traits<char>,std::allocator<char> > >::value
CONST	ENDS
;	COMDAT ?value@?$is_abstract_imp@D@detail@boost@@2_NB
CONST	SEGMENT
?value@?$is_abstract_imp@D@detail@boost@@2_NB DB 00H	; boost::detail::is_abstract_imp<char>::value
CONST	ENDS
;	COMDAT ?is_volatile@?$cv_traits_imp@PAV?$basic_string@DU?$char_traits@D@std@@V?$allocator@D@2@@std@@@detail@boost@@2_NB
CONST	SEGMENT
?is_volatile@?$cv_traits_imp@PAV?$basic_string@DU?$char_traits@D@std@@V?$allocator@D@2@@std@@@detail@boost@@2_NB DB 00H ; boost::detail::cv_traits_imp<std::basic_string<char,std::char_traits<char>,std::allocator<char> > *>::is_volatile
CONST	ENDS
;	COMDAT ?is_const@?$cv_traits_imp@PAV?$basic_string@DU?$char_traits@D@std@@V?$allocator@D@2@@std@@@detail@boost@@2_NB
CONST	SEGMENT
?is_const@?$cv_traits_imp@PAV?$basic_string@DU?$char_traits@D@std@@V?$allocator@D@2@@std@@@detail@boost@@2_NB DB 00H ; boost::detail::cv_traits_imp<std::basic_string<char,std::char_traits<char>,std::allocator<char> > *>::is_const
CONST	ENDS
;	COMDAT ?is_volatile@?$cv_traits_imp@PBV?$basic_string@DU?$char_traits@D@std@@V?$allocator@D@2@@std@@@detail@boost@@2_NB
CONST	SEGMENT
?is_volatile@?$cv_traits_imp@PBV?$basic_string@DU?$char_traits@D@std@@V?$allocator@D@2@@std@@@detail@boost@@2_NB DB 00H ; boost::detail::cv_traits_imp<std::basic_string<char,std::char_traits<char>,std::allocator<char> > const *>::is_volatile
CONST	ENDS
;	COMDAT ?is_const@?$cv_traits_imp@PBV?$basic_string@DU?$char_traits@D@std@@V?$allocator@D@2@@std@@@detail@boost@@2_NB
CONST	SEGMENT
?is_const@?$cv_traits_imp@PBV?$basic_string@DU?$char_traits@D@std@@V?$allocator@D@2@@std@@@detail@boost@@2_NB DB 01H ; boost::detail::cv_traits_imp<std::basic_string<char,std::char_traits<char>,std::allocator<char> > const *>::is_const
CONST	ENDS
;	COMDAT ?value@?$implementation_level@V?$list@_WV?$allocator@_W@std@@@std@@@serialization@boost@@2HB
CONST	SEGMENT
?value@?$implementation_level@V?$list@_WV?$allocator@_W@std@@@std@@@serialization@boost@@2HB DD 02H ; boost::serialization::implementation_level<std::list<wchar_t,std::allocator<wchar_t> > >::value
CONST	ENDS
;	COMDAT ?value@?$implementation_level@V?$list@_KV?$allocator@_K@std@@@std@@@serialization@boost@@2HB
CONST	SEGMENT
?value@?$implementation_level@V?$list@_KV?$allocator@_K@std@@@std@@@serialization@boost@@2HB DD 02H ; boost::serialization::implementation_level<std::list<unsigned __int64,std::allocator<unsigned __int64> > >::value
CONST	ENDS
;	COMDAT ?value@?$implementation_level@V?$list@_JV?$allocator@_J@std@@@std@@@serialization@boost@@2HB
CONST	SEGMENT
?value@?$implementation_level@V?$list@_JV?$allocator@_J@std@@@std@@@serialization@boost@@2HB DD 02H ; boost::serialization::implementation_level<std::list<__int64,std::allocator<__int64> > >::value
CONST	ENDS
;	COMDAT ?value@?$implementation_level@V?$list@FV?$allocator@F@std@@@std@@@serialization@boost@@2HB
CONST	SEGMENT
?value@?$implementation_level@V?$list@FV?$allocator@F@std@@@std@@@serialization@boost@@2HB DD 02H ; boost::serialization::implementation_level<std::list<short,std::allocator<short> > >::value
CONST	ENDS
;	COMDAT ?value@?$implementation_level@V?$list@GV?$allocator@G@std@@@std@@@serialization@boost@@2HB
CONST	SEGMENT
?value@?$implementation_level@V?$list@GV?$allocator@G@std@@@std@@@serialization@boost@@2HB DD 02H ; boost::serialization::implementation_level<std::list<unsigned short,std::allocator<unsigned short> > >::value
CONST	ENDS
;	COMDAT ?value@?$implementation_level@V?$list@NV?$allocator@N@std@@@std@@@serialization@boost@@2HB
CONST	SEGMENT
?value@?$implementation_level@V?$list@NV?$allocator@N@std@@@std@@@serialization@boost@@2HB DD 02H ; boost::serialization::implementation_level<std::list<double,std::allocator<double> > >::value
CONST	ENDS
;	COMDAT ?value@?$implementation_level@V?$list@MV?$allocator@M@std@@@std@@@serialization@boost@@2HB
CONST	SEGMENT
?value@?$implementation_level@V?$list@MV?$allocator@M@std@@@std@@@serialization@boost@@2HB DD 02H ; boost::serialization::implementation_level<std::list<float,std::allocator<float> > >::value
CONST	ENDS
;	COMDAT ?value@?$implementation_level@V?$list@KV?$allocator@K@std@@@std@@@serialization@boost@@2HB
CONST	SEGMENT
?value@?$implementation_level@V?$list@KV?$allocator@K@std@@@std@@@serialization@boost@@2HB DD 02H ; boost::serialization::implementation_level<std::list<unsigned long,std::allocator<unsigned long> > >::value
CONST	ENDS
;	COMDAT ?value@?$implementation_level@V?$list@JV?$allocator@J@std@@@std@@@serialization@boost@@2HB
CONST	SEGMENT
?value@?$implementation_level@V?$list@JV?$allocator@J@std@@@std@@@serialization@boost@@2HB DD 02H ; boost::serialization::implementation_level<std::list<long,std::allocator<long> > >::value
CONST	ENDS
;	COMDAT ?value@?$implementation_level@V?$list@IV?$allocator@I@std@@@std@@@serialization@boost@@2HB
CONST	SEGMENT
?value@?$implementation_level@V?$list@IV?$allocator@I@std@@@std@@@serialization@boost@@2HB DD 02H ; boost::serialization::implementation_level<std::list<unsigned int,std::allocator<unsigned int> > >::value
CONST	ENDS
;	COMDAT ?value@?$implementation_level@V?$list@HV?$allocator@H@std@@@std@@@serialization@boost@@2HB
CONST	SEGMENT
?value@?$implementation_level@V?$list@HV?$allocator@H@std@@@std@@@serialization@boost@@2HB DD 02H ; boost::serialization::implementation_level<std::list<int,std::allocator<int> > >::value
CONST	ENDS
;	COMDAT ?value@?$implementation_level@V?$list@EV?$allocator@E@std@@@std@@@serialization@boost@@2HB
CONST	SEGMENT
?value@?$implementation_level@V?$list@EV?$allocator@E@std@@@std@@@serialization@boost@@2HB DD 02H ; boost::serialization::implementation_level<std::list<unsigned char,std::allocator<unsigned char> > >::value
CONST	ENDS
;	COMDAT ?value@?$implementation_level@V?$list@CV?$allocator@C@std@@@std@@@serialization@boost@@2HB
CONST	SEGMENT
?value@?$implementation_level@V?$list@CV?$allocator@C@std@@@std@@@serialization@boost@@2HB DD 02H ; boost::serialization::implementation_level<std::list<signed char,std::allocator<signed char> > >::value
CONST	ENDS
;	COMDAT ?value@?$implementation_level@V?$list@DV?$allocator@D@std@@@std@@@serialization@boost@@2HB
CONST	SEGMENT
?value@?$implementation_level@V?$list@DV?$allocator@D@std@@@std@@@serialization@boost@@2HB DD 02H ; boost::serialization::implementation_level<std::list<char,std::allocator<char> > >::value
CONST	ENDS
;	COMDAT ?value@?$implementation_level@V?$list@_NV?$allocator@_N@std@@@std@@@serialization@boost@@2HB
CONST	SEGMENT
?value@?$implementation_level@V?$list@_NV?$allocator@_N@std@@@std@@@serialization@boost@@2HB DD 02H ; boost::serialization::implementation_level<std::list<bool,std::allocator<bool> > >::value
CONST	ENDS
;	COMDAT ?has_fixed_range@?$backward_compatible_uniform_01@V?$pass_through_engine@V?$mersenne_twister@K$0CA@$0CHA@$0BIN@$0BP@$0JJAILANP@$0L@$06$0JNCMFGIA@$0P@$0OPMGAAAA@$0BC@$0MHHGGGNO@@random@boost@@@detail@random@boost@@N@detail@boost@@2_NB
CONST	SEGMENT
?has_fixed_range@?$backward_compatible_uniform_01@V?$pass_through_engine@V?$mersenne_twister@K$0CA@$0CHA@$0BIN@$0BP@$0JJAILANP@$0L@$06$0JNCMFGIA@$0P@$0OPMGAAAA@$0BC@$0MHHGGGNO@@random@boost@@@detail@random@boost@@N@detail@boost@@2_NB DB 00H ; boost::detail::backward_compatible_uniform_01<boost::random::detail::pass_through_engine<boost::random::mersenne_twister<unsigned long,32,624,397,31,2567483615,11,7,2636928640,15,4022730752,18,3346425566> >,double>::has_fixed_range
CONST	ENDS
;	COMDAT ?has_fixed_range@?$backward_compatible_uniform_01@V?$pass_through_engine@AAV?$mersenne_twister@K$0CA@$0CHA@$0BIN@$0BP@$0JJAILANP@$0L@$06$0JNCMFGIA@$0P@$0OPMGAAAA@$0BC@$0MHHGGGNO@@random@boost@@@detail@random@boost@@N@detail@boost@@2_NB
CONST	SEGMENT
?has_fixed_range@?$backward_compatible_uniform_01@V?$pass_through_engine@AAV?$mersenne_twister@K$0CA@$0CHA@$0BIN@$0BP@$0JJAILANP@$0L@$06$0JNCMFGIA@$0P@$0OPMGAAAA@$0BC@$0MHHGGGNO@@random@boost@@@detail@random@boost@@N@detail@boost@@2_NB DB 00H ; boost::detail::backward_compatible_uniform_01<boost::random::detail::pass_through_engine<boost::random::mersenne_twister<unsigned long,32,624,397,31,2567483615,11,7,2636928640,15,4022730752,18,3346425566> &>,double>::has_fixed_range
CONST	ENDS
;	COMDAT ?value@?$is_unsigned_imp@H@detail@boost@@2_NB
CONST	SEGMENT
?value@?$is_unsigned_imp@H@detail@boost@@2_NB DB 00H	; boost::detail::is_unsigned_imp<int>::value
CONST	ENDS
;	COMDAT ?value@?$is_ununsigned_helper@H@detail@boost@@2_NB
CONST	SEGMENT
?value@?$is_ununsigned_helper@H@detail@boost@@2_NB DB 00H ; boost::detail::is_ununsigned_helper<int>::value
CONST	ENDS
;	COMDAT ?is_volatile@?$cv_traits_imp@PAH@detail@boost@@2_NB
CONST	SEGMENT
?is_volatile@?$cv_traits_imp@PAH@detail@boost@@2_NB DB 00H ; boost::detail::cv_traits_imp<int *>::is_volatile
CONST	ENDS
;	COMDAT ?is_const@?$cv_traits_imp@PAH@detail@boost@@2_NB
CONST	SEGMENT
?is_const@?$cv_traits_imp@PAH@detail@boost@@2_NB DB 00H	; boost::detail::cv_traits_imp<int *>::is_const
CONST	ENDS
;	COMDAT ?has_fixed_range@?$mersenne_twister@K$0CA@$0CHA@$0BIN@$0BP@$0JJAILANP@$0L@$06$0JNCMFGIA@$0P@$0OPMGAAAA@$0BC@$0MHHGGGNO@@random@boost@@2_NB
CONST	SEGMENT
?has_fixed_range@?$mersenne_twister@K$0CA@$0CHA@$0BIN@$0BP@$0JJAILANP@$0L@$06$0JNCMFGIA@$0P@$0OPMGAAAA@$0BC@$0MHHGGGNO@@random@boost@@2_NB DB 00H ; boost::random::mersenne_twister<unsigned long,32,624,397,31,2567483615,11,7,2636928640,15,4022730752,18,3346425566>::has_fixed_range
CONST	ENDS
;	COMDAT ?output_l@?$mersenne_twister@K$0CA@$0CHA@$0BIN@$0BP@$0JJAILANP@$0L@$06$0JNCMFGIA@$0P@$0OPMGAAAA@$0BC@$0MHHGGGNO@@random@boost@@2HB
CONST	SEGMENT
?output_l@?$mersenne_twister@K$0CA@$0CHA@$0BIN@$0BP@$0JJAILANP@$0L@$06$0JNCMFGIA@$0P@$0OPMGAAAA@$0BC@$0MHHGGGNO@@random@boost@@2HB DD 012H ; boost::random::mersenne_twister<unsigned long,32,624,397,31,2567483615,11,7,2636928640,15,4022730752,18,3346425566>::output_l
CONST	ENDS
;	COMDAT ?output_c@?$mersenne_twister@K$0CA@$0CHA@$0BIN@$0BP@$0JJAILANP@$0L@$06$0JNCMFGIA@$0P@$0OPMGAAAA@$0BC@$0MHHGGGNO@@random@boost@@2KB
CONST	SEGMENT
?output_c@?$mersenne_twister@K$0CA@$0CHA@$0BIN@$0BP@$0JJAILANP@$0L@$06$0JNCMFGIA@$0P@$0OPMGAAAA@$0BC@$0MHHGGGNO@@random@boost@@2KB DD 0efc60000H ; boost::random::mersenne_twister<unsigned long,32,624,397,31,2567483615,11,7,2636928640,15,4022730752,18,3346425566>::output_c
CONST	ENDS
;	COMDAT ?output_t@?$mersenne_twister@K$0CA@$0CHA@$0BIN@$0BP@$0JJAILANP@$0L@$06$0JNCMFGIA@$0P@$0OPMGAAAA@$0BC@$0MHHGGGNO@@random@boost@@2HB
CONST	SEGMENT
?output_t@?$mersenne_twister@K$0CA@$0CHA@$0BIN@$0BP@$0JJAILANP@$0L@$06$0JNCMFGIA@$0P@$0OPMGAAAA@$0BC@$0MHHGGGNO@@random@boost@@2HB DD 0fH ; boost::random::mersenne_twister<unsigned long,32,624,397,31,2567483615,11,7,2636928640,15,4022730752,18,3346425566>::output_t
CONST	ENDS
;	COMDAT ?output_b@?$mersenne_twister@K$0CA@$0CHA@$0BIN@$0BP@$0JJAILANP@$0L@$06$0JNCMFGIA@$0P@$0OPMGAAAA@$0BC@$0MHHGGGNO@@random@boost@@2KB
CONST	SEGMENT
?output_b@?$mersenne_twister@K$0CA@$0CHA@$0BIN@$0BP@$0JJAILANP@$0L@$06$0JNCMFGIA@$0P@$0OPMGAAAA@$0BC@$0MHHGGGNO@@random@boost@@2KB DD 09d2c5680H ; boost::random::mersenne_twister<unsigned long,32,624,397,31,2567483615,11,7,2636928640,15,4022730752,18,3346425566>::output_b
CONST	ENDS
;	COMDAT ?output_s@?$mersenne_twister@K$0CA@$0CHA@$0BIN@$0BP@$0JJAILANP@$0L@$06$0JNCMFGIA@$0P@$0OPMGAAAA@$0BC@$0MHHGGGNO@@random@boost@@2HB
CONST	SEGMENT
?output_s@?$mersenne_twister@K$0CA@$0CHA@$0BIN@$0BP@$0JJAILANP@$0L@$06$0JNCMFGIA@$0P@$0OPMGAAAA@$0BC@$0MHHGGGNO@@random@boost@@2HB DD 07H ; boost::random::mersenne_twister<unsigned long,32,624,397,31,2567483615,11,7,2636928640,15,4022730752,18,3346425566>::output_s
CONST	ENDS
;	COMDAT ?output_u@?$mersenne_twister@K$0CA@$0CHA@$0BIN@$0BP@$0JJAILANP@$0L@$06$0JNCMFGIA@$0P@$0OPMGAAAA@$0BC@$0MHHGGGNO@@random@boost@@2HB
CONST	SEGMENT
?output_u@?$mersenne_twister@K$0CA@$0CHA@$0BIN@$0BP@$0JJAILANP@$0L@$06$0JNCMFGIA@$0P@$0OPMGAAAA@$0BC@$0MHHGGGNO@@random@boost@@2HB DD 0bH ; boost::random::mersenne_twister<unsigned long,32,624,397,31,2567483615,11,7,2636928640,15,4022730752,18,3346425566>::output_u
CONST	ENDS
;	COMDAT ?parameter_a@?$mersenne_twister@K$0CA@$0CHA@$0BIN@$0BP@$0JJAILANP@$0L@$06$0JNCMFGIA@$0P@$0OPMGAAAA@$0BC@$0MHHGGGNO@@random@boost@@2KB
CONST	SEGMENT
?parameter_a@?$mersenne_twister@K$0CA@$0CHA@$0BIN@$0BP@$0JJAILANP@$0L@$06$0JNCMFGIA@$0P@$0OPMGAAAA@$0BC@$0MHHGGGNO@@random@boost@@2KB DD 09908b0dfH ; boost::random::mersenne_twister<unsigned long,32,624,397,31,2567483615,11,7,2636928640,15,4022730752,18,3346425566>::parameter_a
CONST	ENDS
;	COMDAT ?mask_bits@?$mersenne_twister@K$0CA@$0CHA@$0BIN@$0BP@$0JJAILANP@$0L@$06$0JNCMFGIA@$0P@$0OPMGAAAA@$0BC@$0MHHGGGNO@@random@boost@@2HB
CONST	SEGMENT
?mask_bits@?$mersenne_twister@K$0CA@$0CHA@$0BIN@$0BP@$0JJAILANP@$0L@$06$0JNCMFGIA@$0P@$0OPMGAAAA@$0BC@$0MHHGGGNO@@random@boost@@2HB DD 01fH ; boost::random::mersenne_twister<unsigned long,32,624,397,31,2567483615,11,7,2636928640,15,4022730752,18,3346425566>::mask_bits
CONST	ENDS
;	COMDAT ?shift_size@?$mersenne_twister@K$0CA@$0CHA@$0BIN@$0BP@$0JJAILANP@$0L@$06$0JNCMFGIA@$0P@$0OPMGAAAA@$0BC@$0MHHGGGNO@@random@boost@@2HB
CONST	SEGMENT
?shift_size@?$mersenne_twister@K$0CA@$0CHA@$0BIN@$0BP@$0JJAILANP@$0L@$06$0JNCMFGIA@$0P@$0OPMGAAAA@$0BC@$0MHHGGGNO@@random@boost@@2HB DD 018dH ; boost::random::mersenne_twister<unsigned long,32,624,397,31,2567483615,11,7,2636928640,15,4022730752,18,3346425566>::shift_size
CONST	ENDS
;	COMDAT ?state_size@?$mersenne_twister@K$0CA@$0CHA@$0BIN@$0BP@$0JJAILANP@$0L@$06$0JNCMFGIA@$0P@$0OPMGAAAA@$0BC@$0MHHGGGNO@@random@boost@@2HB
CONST	SEGMENT
?state_size@?$mersenne_twister@K$0CA@$0CHA@$0BIN@$0BP@$0JJAILANP@$0L@$06$0JNCMFGIA@$0P@$0OPMGAAAA@$0BC@$0MHHGGGNO@@random@boost@@2HB DD 0270H ; boost::random::mersenne_twister<unsigned long,32,624,397,31,2567483615,11,7,2636928640,15,4022730752,18,3346425566>::state_size
CONST	ENDS
;	COMDAT ?word_size@?$mersenne_twister@K$0CA@$0CHA@$0BIN@$0BP@$0JJAILANP@$0L@$06$0JNCMFGIA@$0P@$0OPMGAAAA@$0BC@$0MHHGGGNO@@random@boost@@2HB
CONST	SEGMENT
?word_size@?$mersenne_twister@K$0CA@$0CHA@$0BIN@$0BP@$0JJAILANP@$0L@$06$0JNCMFGIA@$0P@$0OPMGAAAA@$0BC@$0MHHGGGNO@@random@boost@@2HB DD 020H ; boost::random::mersenne_twister<unsigned long,32,624,397,31,2567483615,11,7,2636928640,15,4022730752,18,3346425566>::word_size
CONST	ENDS
;	COMDAT ?value@?$is_convertible_impl@Uinput@iostreams@boost@@Uoutput@23@@detail@boost@@2_NB
CONST	SEGMENT
?value@?$is_convertible_impl@Uinput@iostreams@boost@@Uoutput@23@@detail@boost@@2_NB DB 00H ; boost::detail::is_convertible_impl<boost::iostreams::input,boost::iostreams::output>::value
CONST	ENDS
;	COMDAT ?value@?$ice_and@$0A@$00$00$00$00$00$00@type_traits@boost@@2_NB
CONST	SEGMENT
?value@?$ice_and@$0A@$00$00$00$00$00$00@type_traits@boost@@2_NB DB 00H ; boost::type_traits::ice_and<0,1,1,1,1,1,1>::value
CONST	ENDS
;	COMDAT ?value@?$is_convertible_basic_impl@AAUinput@iostreams@boost@@Uoutput@23@@detail@boost@@2_NB
CONST	SEGMENT
?value@?$is_convertible_basic_impl@AAUinput@iostreams@boost@@Uoutput@23@@detail@boost@@2_NB DB 00H ; boost::detail::is_convertible_basic_impl<boost::iostreams::input &,boost::iostreams::output>::value
CONST	ENDS
;	COMDAT ?value@?$is_abstract_imp@Uoutput@iostreams@boost@@@detail@boost@@2_NB
CONST	SEGMENT
?value@?$is_abstract_imp@Uoutput@iostreams@boost@@@detail@boost@@2_NB DB 00H ; boost::detail::is_abstract_imp<boost::iostreams::output>::value
CONST	ENDS
;	COMDAT ?value@?$is_arithmetic_impl@Uoutput@iostreams@boost@@@detail@boost@@2_NB
CONST	SEGMENT
?value@?$is_arithmetic_impl@Uoutput@iostreams@boost@@@detail@boost@@2_NB DB 00H ; boost::detail::is_arithmetic_impl<boost::iostreams::output>::value
CONST	ENDS
;	COMDAT ?value@?$is_convertible_impl@Uinput@iostreams@boost@@U123@@detail@boost@@2_NB
CONST	SEGMENT
?value@?$is_convertible_impl@Uinput@iostreams@boost@@U123@@detail@boost@@2_NB DB 01H ; boost::detail::is_convertible_impl<boost::iostreams::input,boost::iostreams::input>::value
CONST	ENDS
;	COMDAT ?value@?$ice_not@$0A@@type_traits@boost@@2_NB
CONST	SEGMENT
?value@?$ice_not@$0A@@type_traits@boost@@2_NB DB 01H	; boost::type_traits::ice_not<0>::value
CONST	ENDS
;	COMDAT ?value@?$ice_or@$00$0A@$0A@$0A@$0A@$0A@$0A@@type_traits@boost@@2_NB
CONST	SEGMENT
?value@?$ice_or@$00$0A@$0A@$0A@$0A@$0A@$0A@@type_traits@boost@@2_NB DB 01H ; boost::type_traits::ice_or<1,0,0,0,0,0,0>::value
CONST	ENDS
;	COMDAT ?value@?$is_convertible_basic_impl@AAUinput@iostreams@boost@@U123@@detail@boost@@2_NB
CONST	SEGMENT
?value@?$is_convertible_basic_impl@AAUinput@iostreams@boost@@U123@@detail@boost@@2_NB DB 01H ; boost::detail::is_convertible_basic_impl<boost::iostreams::input &,boost::iostreams::input>::value
CONST	ENDS
;	COMDAT ?value@?$is_abstract_imp@Uinput@iostreams@boost@@@detail@boost@@2_NB
CONST	SEGMENT
?value@?$is_abstract_imp@Uinput@iostreams@boost@@@detail@boost@@2_NB DB 00H ; boost::detail::is_abstract_imp<boost::iostreams::input>::value
CONST	ENDS
;	COMDAT ?value@?$is_arithmetic_impl@Uinput@iostreams@boost@@@detail@boost@@2_NB
CONST	SEGMENT
?value@?$is_arithmetic_impl@Uinput@iostreams@boost@@@detail@boost@@2_NB DB 00H ; boost::detail::is_arithmetic_impl<boost::iostreams::input>::value
CONST	ENDS
;	COMDAT ?value@?$implementation_level@V?$vector@_WV?$allocator@_W@std@@@std@@@serialization@boost@@2HB
CONST	SEGMENT
?value@?$implementation_level@V?$vector@_WV?$allocator@_W@std@@@std@@@serialization@boost@@2HB DD 02H ; boost::serialization::implementation_level<std::vector<wchar_t,std::allocator<wchar_t> > >::value
CONST	ENDS
;	COMDAT ?value@?$implementation_level@V?$vector@_KV?$allocator@_K@std@@@std@@@serialization@boost@@2HB
CONST	SEGMENT
?value@?$implementation_level@V?$vector@_KV?$allocator@_K@std@@@std@@@serialization@boost@@2HB DD 02H ; boost::serialization::implementation_level<std::vector<unsigned __int64,std::allocator<unsigned __int64> > >::value
CONST	ENDS
;	COMDAT ?value@?$implementation_level@V?$vector@_JV?$allocator@_J@std@@@std@@@serialization@boost@@2HB
CONST	SEGMENT
?value@?$implementation_level@V?$vector@_JV?$allocator@_J@std@@@std@@@serialization@boost@@2HB DD 02H ; boost::serialization::implementation_level<std::vector<__int64,std::allocator<__int64> > >::value
CONST	ENDS
;	COMDAT ?value@?$implementation_level@V?$vector@FV?$allocator@F@std@@@std@@@serialization@boost@@2HB
CONST	SEGMENT
?value@?$implementation_level@V?$vector@FV?$allocator@F@std@@@std@@@serialization@boost@@2HB DD 02H ; boost::serialization::implementation_level<std::vector<short,std::allocator<short> > >::value
CONST	ENDS
;	COMDAT ?value@?$implementation_level@V?$vector@GV?$allocator@G@std@@@std@@@serialization@boost@@2HB
CONST	SEGMENT
?value@?$implementation_level@V?$vector@GV?$allocator@G@std@@@std@@@serialization@boost@@2HB DD 02H ; boost::serialization::implementation_level<std::vector<unsigned short,std::allocator<unsigned short> > >::value
CONST	ENDS
;	COMDAT ?value@?$implementation_level@V?$vector@NV?$allocator@N@std@@@std@@@serialization@boost@@2HB
CONST	SEGMENT
?value@?$implementation_level@V?$vector@NV?$allocator@N@std@@@std@@@serialization@boost@@2HB DD 02H ; boost::serialization::implementation_level<std::vector<double,std::allocator<double> > >::value
CONST	ENDS
;	COMDAT ?value@?$implementation_level@V?$vector@MV?$allocator@M@std@@@std@@@serialization@boost@@2HB
CONST	SEGMENT
?value@?$implementation_level@V?$vector@MV?$allocator@M@std@@@std@@@serialization@boost@@2HB DD 02H ; boost::serialization::implementation_level<std::vector<float,std::allocator<float> > >::value
CONST	ENDS
;	COMDAT ?value@?$implementation_level@V?$vector@KV?$allocator@K@std@@@std@@@serialization@boost@@2HB
CONST	SEGMENT
?value@?$implementation_level@V?$vector@KV?$allocator@K@std@@@std@@@serialization@boost@@2HB DD 02H ; boost::serialization::implementation_level<std::vector<unsigned long,std::allocator<unsigned long> > >::value
CONST	ENDS
;	COMDAT ?value@?$implementation_level@V?$vector@JV?$allocator@J@std@@@std@@@serialization@boost@@2HB
CONST	SEGMENT
?value@?$implementation_level@V?$vector@JV?$allocator@J@std@@@std@@@serialization@boost@@2HB DD 02H ; boost::serialization::implementation_level<std::vector<long,std::allocator<long> > >::value
CONST	ENDS
;	COMDAT ?value@?$implementation_level@V?$vector@IV?$allocator@I@std@@@std@@@serialization@boost@@2HB
CONST	SEGMENT
?value@?$implementation_level@V?$vector@IV?$allocator@I@std@@@std@@@serialization@boost@@2HB DD 02H ; boost::serialization::implementation_level<std::vector<unsigned int,std::allocator<unsigned int> > >::value
CONST	ENDS
;	COMDAT ?value@?$implementation_level@V?$vector@HV?$allocator@H@std@@@std@@@serialization@boost@@2HB
CONST	SEGMENT
?value@?$implementation_level@V?$vector@HV?$allocator@H@std@@@std@@@serialization@boost@@2HB DD 02H ; boost::serialization::implementation_level<std::vector<int,std::allocator<int> > >::value
CONST	ENDS
;	COMDAT ?value@?$implementation_level@V?$vector@EV?$allocator@E@std@@@std@@@serialization@boost@@2HB
CONST	SEGMENT
?value@?$implementation_level@V?$vector@EV?$allocator@E@std@@@std@@@serialization@boost@@2HB DD 02H ; boost::serialization::implementation_level<std::vector<unsigned char,std::allocator<unsigned char> > >::value
CONST	ENDS
;	COMDAT ?value@?$implementation_level@V?$vector@CV?$allocator@C@std@@@std@@@serialization@boost@@2HB
CONST	SEGMENT
?value@?$implementation_level@V?$vector@CV?$allocator@C@std@@@std@@@serialization@boost@@2HB DD 02H ; boost::serialization::implementation_level<std::vector<signed char,std::allocator<signed char> > >::value
CONST	ENDS
;	COMDAT ?value@?$implementation_level@V?$vector@DV?$allocator@D@std@@@std@@@serialization@boost@@2HB
CONST	SEGMENT
?value@?$implementation_level@V?$vector@DV?$allocator@D@std@@@std@@@serialization@boost@@2HB DD 02H ; boost::serialization::implementation_level<std::vector<char,std::allocator<char> > >::value
CONST	ENDS
;	COMDAT ?value@?$implementation_level@V?$vector@_NV?$allocator@_N@std@@@std@@@serialization@boost@@2HB
CONST	SEGMENT
?value@?$implementation_level@V?$vector@_NV?$allocator@_N@std@@@std@@@serialization@boost@@2HB DD 02H ; boost::serialization::implementation_level<std::vector<bool,std::allocator<bool> > >::value
CONST	ENDS
;	COMDAT ?value@?$implementation_level@Ucollection_size_type@serialization@boost@@@serialization@boost@@2HB
CONST	SEGMENT
?value@?$implementation_level@Ucollection_size_type@serialization@boost@@@serialization@boost@@2HB DD 01H ; boost::serialization::implementation_level<boost::serialization::collection_size_type>::value
CONST	ENDS
;	COMDAT ?value@?$is_pod_impl@Ua128@align@boost@@@detail@boost@@2_NB
CONST	SEGMENT
?value@?$is_pod_impl@Ua128@align@boost@@@detail@boost@@2_NB DB 01H ; boost::detail::is_pod_impl<boost::align::a128>::value
CONST	ENDS
;	COMDAT ?value@?$is_pod_impl@Ua64@align@boost@@@detail@boost@@2_NB
CONST	SEGMENT
?value@?$is_pod_impl@Ua64@align@boost@@@detail@boost@@2_NB DB 01H ; boost::detail::is_pod_impl<boost::align::a64>::value
CONST	ENDS
;	COMDAT ?value@?$is_pod_impl@Ua32@align@boost@@@detail@boost@@2_NB
CONST	SEGMENT
?value@?$is_pod_impl@Ua32@align@boost@@@detail@boost@@2_NB DB 01H ; boost::detail::is_pod_impl<boost::align::a32>::value
CONST	ENDS
;	COMDAT ?value@?$is_pod_impl@Ua16@align@boost@@@detail@boost@@2_NB
CONST	SEGMENT
?value@?$is_pod_impl@Ua16@align@boost@@@detail@boost@@2_NB DB 01H ; boost::detail::is_pod_impl<boost::align::a16>::value
CONST	ENDS
;	COMDAT ?value@?$is_pod_impl@Ua8@align@boost@@@detail@boost@@2_NB
CONST	SEGMENT
?value@?$is_pod_impl@Ua8@align@boost@@@detail@boost@@2_NB DB 01H ; boost::detail::is_pod_impl<boost::align::a8>::value
CONST	ENDS
;	COMDAT ?found@?$type_with_alignment_imp@$07@detail@boost@@0IB
CONST	SEGMENT
?found@?$type_with_alignment_imp@$07@detail@boost@@0IB DD 08H ; boost::detail::type_with_alignment_imp<8>::found
CONST	ENDS
;	COMDAT ?value@?$is_aligned@$07$07@detail@boost@@2_NB
CONST	SEGMENT
?value@?$is_aligned@$07$07@detail@boost@@2_NB DB 01H	; boost::detail::is_aligned<8,8>::value
CONST	ENDS
;	COMDAT ?value@?$alignment_of_impl@T?$lower_alignment@$07@detail@boost@@@detail@boost@@2IB
CONST	SEGMENT
?value@?$alignment_of_impl@T?$lower_alignment@$07@detail@boost@@@detail@boost@@2IB DD 08H ; boost::detail::alignment_of_impl<boost::detail::lower_alignment<8> >::value
CONST	ENDS
;	COMDAT ?value@?$alignment_of_impl@_J@detail@boost@@2IB
CONST	SEGMENT
?value@?$alignment_of_impl@_J@detail@boost@@2IB DD 08H	; boost::detail::alignment_of_impl<__int64>::value
CONST	ENDS
;	COMDAT ?value@?$alignment_of_impl@J@detail@boost@@2IB
CONST	SEGMENT
?value@?$alignment_of_impl@J@detail@boost@@2IB DD 04H	; boost::detail::alignment_of_impl<long>::value
CONST	ENDS
;	COMDAT ?value@?$integral_c@I$03@mpl@boost@@2IB
CONST	SEGMENT
?value@?$integral_c@I$03@mpl@boost@@2IB DD 04H		; boost::mpl::integral_c<unsigned int,4>::value
CONST	ENDS
;	COMDAT ?value@?$alignment_of_impl@H@detail@boost@@2IB
CONST	SEGMENT
?value@?$alignment_of_impl@H@detail@boost@@2IB DD 04H	; boost::detail::alignment_of_impl<int>::value
CONST	ENDS
;	COMDAT ?value@?$alignment_logic@$03$03@detail@boost@@2IB
CONST	SEGMENT
?value@?$alignment_logic@$03$03@detail@boost@@2IB DD 04H ; boost::detail::alignment_logic<4,4>::value
CONST	ENDS
;	COMDAT ?value@?$integral_c@I$01@mpl@boost@@2IB
CONST	SEGMENT
?value@?$integral_c@I$01@mpl@boost@@2IB DD 02H		; boost::mpl::integral_c<unsigned int,2>::value
CONST	ENDS
;	COMDAT ?value@?$alignment_of_impl@F@detail@boost@@2IB
CONST	SEGMENT
?value@?$alignment_of_impl@F@detail@boost@@2IB DD 02H	; boost::detail::alignment_of_impl<short>::value
CONST	ENDS
;	COMDAT ?value@?$alignment_logic@$01$01@detail@boost@@2IB
CONST	SEGMENT
?value@?$alignment_logic@$01$01@detail@boost@@2IB DD 02H ; boost::detail::alignment_logic<2,2>::value
CONST	ENDS
;	COMDAT ?value@?$integral_c@I$00@mpl@boost@@2IB
CONST	SEGMENT
?value@?$integral_c@I$00@mpl@boost@@2IB DD 01H		; boost::mpl::integral_c<unsigned int,1>::value
CONST	ENDS
;	COMDAT ?value@?$alignment_of_impl@D@detail@boost@@2IB
CONST	SEGMENT
?value@?$alignment_of_impl@D@detail@boost@@2IB DD 01H	; boost::detail::alignment_of_impl<char>::value
CONST	ENDS
;	COMDAT ?value@?$alignment_logic@$00$00@detail@boost@@2IB
CONST	SEGMENT
?value@?$alignment_logic@$00$00@detail@boost@@2IB DD 01H ; boost::detail::alignment_logic<1,1>::value
CONST	ENDS
;	COMDAT ?value@?$integral_c@I$07@mpl@boost@@2IB
CONST	SEGMENT
?value@?$integral_c@I$07@mpl@boost@@2IB DD 08H		; boost::mpl::integral_c<unsigned int,8>::value
CONST	ENDS
;	COMDAT ?value@?$alignment_of_impl@Tmax_align@detail@boost@@@detail@boost@@2IB
CONST	SEGMENT
?value@?$alignment_of_impl@Tmax_align@detail@boost@@@detail@boost@@2IB DD 08H ; boost::detail::alignment_of_impl<boost::detail::max_align>::value
CONST	ENDS
;	COMDAT ?value@?$alignment_logic@$07$07@detail@boost@@2IB
CONST	SEGMENT
?value@?$alignment_logic@$07$07@detail@boost@@2IB DD 08H ; boost::detail::alignment_logic<8,8>::value
CONST	ENDS
;	COMDAT ?value@?$integral_c@I$0A@@mpl@boost@@2IB
CONST	SEGMENT
?value@?$integral_c@I$0A@@mpl@boost@@2IB DD 00H		; boost::mpl::integral_c<unsigned int,0>::value
CONST	ENDS
;	COMDAT ?value@?$is_pod_impl@$$CDX@detail@boost@@2_NB
CONST	SEGMENT
?value@?$is_pod_impl@$$CDX@detail@boost@@2_NB DB 01H	; boost::detail::is_pod_impl<void const volatile >::value
CONST	ENDS
;	COMDAT ?value@?$is_pod_impl@$$CCX@detail@boost@@2_NB
CONST	SEGMENT
?value@?$is_pod_impl@$$CCX@detail@boost@@2_NB DB 01H	; boost::detail::is_pod_impl<void volatile >::value
CONST	ENDS
;	COMDAT ?value@?$is_pod_impl@$$CBX@detail@boost@@2_NB
CONST	SEGMENT
?value@?$is_pod_impl@$$CBX@detail@boost@@2_NB DB 01H	; boost::detail::is_pod_impl<void const >::value
CONST	ENDS
;	COMDAT ?value@?$is_pod_impl@X@detail@boost@@2_NB
CONST	SEGMENT
?value@?$is_pod_impl@X@detail@boost@@2_NB DB 01H	; boost::detail::is_pod_impl<void>::value
CONST	ENDS
;	COMDAT ?value@?$is_scalar_impl@$$CDX@detail@boost@@2_NB
CONST	SEGMENT
?value@?$is_scalar_impl@$$CDX@detail@boost@@2_NB DB 00H	; boost::detail::is_scalar_impl<void const volatile >::value
CONST	ENDS
;	COMDAT ?value@?$is_scalar_impl@$$CCX@detail@boost@@2_NB
CONST	SEGMENT
?value@?$is_scalar_impl@$$CCX@detail@boost@@2_NB DB 00H	; boost::detail::is_scalar_impl<void volatile >::value
CONST	ENDS
;	COMDAT ?value@?$is_scalar_impl@$$CBX@detail@boost@@2_NB
CONST	SEGMENT
?value@?$is_scalar_impl@$$CBX@detail@boost@@2_NB DB 00H	; boost::detail::is_scalar_impl<void const >::value
CONST	ENDS
;	COMDAT ?value@?$is_scalar_impl@X@detail@boost@@2_NB
CONST	SEGMENT
?value@?$is_scalar_impl@X@detail@boost@@2_NB DB 00H	; boost::detail::is_scalar_impl<void>::value
CONST	ENDS
;	COMDAT ?value@?$arg@$04@mpl@boost@@2HB
CONST	SEGMENT
?value@?$arg@$04@mpl@boost@@2HB DD 05H			; boost::mpl::arg<5>::value
CONST	ENDS
;	COMDAT ?value@?$arg@$03@mpl@boost@@2HB
CONST	SEGMENT
?value@?$arg@$03@mpl@boost@@2HB DD 04H			; boost::mpl::arg<4>::value
CONST	ENDS
;	COMDAT ?value@?$arg@$02@mpl@boost@@2HB
CONST	SEGMENT
?value@?$arg@$02@mpl@boost@@2HB DD 03H			; boost::mpl::arg<3>::value
CONST	ENDS
;	COMDAT ?value@?$arg@$01@mpl@boost@@2HB
CONST	SEGMENT
?value@?$arg@$01@mpl@boost@@2HB DD 02H			; boost::mpl::arg<2>::value
CONST	ENDS
;	COMDAT ?value@?$arg@$00@mpl@boost@@2HB
CONST	SEGMENT
?value@?$arg@$00@mpl@boost@@2HB DD 01H			; boost::mpl::arg<1>::value
CONST	ENDS
;	COMDAT ?value@?$arg@$0?0@mpl@boost@@2HB
CONST	SEGMENT
?value@?$arg@$0?0@mpl@boost@@2HB DD 0ffffffffH		; boost::mpl::arg<-1>::value
CONST	ENDS
;	COMDAT ?value@?$int_@$0M@@mpl@boost@@2HB
CONST	SEGMENT
?value@?$int_@$0M@@mpl@boost@@2HB DD 0cH		; boost::mpl::int_<12>::value
CONST	ENDS
;	COMDAT ?value@?$int_@$0L@@mpl@boost@@2HB
CONST	SEGMENT
?value@?$int_@$0L@@mpl@boost@@2HB DD 0bH		; boost::mpl::int_<11>::value
CONST	ENDS
;	COMDAT ?value@?$int_@$09@mpl@boost@@2HB
CONST	SEGMENT
?value@?$int_@$09@mpl@boost@@2HB DD 0aH			; boost::mpl::int_<10>::value
CONST	ENDS
;	COMDAT ?value@?$int_@$08@mpl@boost@@2HB
CONST	SEGMENT
?value@?$int_@$08@mpl@boost@@2HB DD 09H			; boost::mpl::int_<9>::value
CONST	ENDS
;	COMDAT ?value@?$int_@$07@mpl@boost@@2HB
CONST	SEGMENT
?value@?$int_@$07@mpl@boost@@2HB DD 08H			; boost::mpl::int_<8>::value
CONST	ENDS
;	COMDAT ?value@?$int_@$06@mpl@boost@@2HB
CONST	SEGMENT
?value@?$int_@$06@mpl@boost@@2HB DD 07H			; boost::mpl::int_<7>::value
CONST	ENDS
;	COMDAT ?value@?$int_@$05@mpl@boost@@2HB
CONST	SEGMENT
?value@?$int_@$05@mpl@boost@@2HB DD 06H			; boost::mpl::int_<6>::value
CONST	ENDS
;	COMDAT ?value@?$int_@$04@mpl@boost@@2HB
CONST	SEGMENT
?value@?$int_@$04@mpl@boost@@2HB DD 05H			; boost::mpl::int_<5>::value
CONST	ENDS
;	COMDAT ?value@?$int_@$03@mpl@boost@@2HB
CONST	SEGMENT
?value@?$int_@$03@mpl@boost@@2HB DD 04H			; boost::mpl::int_<4>::value
CONST	ENDS
;	COMDAT ?value@?$int_@$02@mpl@boost@@2HB
CONST	SEGMENT
?value@?$int_@$02@mpl@boost@@2HB DD 03H			; boost::mpl::int_<3>::value
CONST	ENDS
;	COMDAT ?value@?$int_@$01@mpl@boost@@2HB
CONST	SEGMENT
?value@?$int_@$01@mpl@boost@@2HB DD 02H			; boost::mpl::int_<2>::value
CONST	ENDS
;	COMDAT ?value@?$int_@$00@mpl@boost@@2HB
CONST	SEGMENT
?value@?$int_@$00@mpl@boost@@2HB DD 01H			; boost::mpl::int_<1>::value
CONST	ENDS
;	COMDAT ?value@?$select_by_size@$0BF@@detail@iostreams@boost@@2HB
CONST	SEGMENT
?value@?$select_by_size@$0BF@@detail@iostreams@boost@@2HB DD 013H ; boost::iostreams::detail::select_by_size<21>::value
CONST	ENDS
;	COMDAT ?value@type@?$select_by_size@$0BF@@detail@iostreams@boost@@2HB
CONST	SEGMENT
?value@type@?$select_by_size@$0BF@@detail@iostreams@boost@@2HB DD 013H ; boost::iostreams::detail::select_by_size<21>::type::value
CONST	ENDS
;	COMDAT ?value@?$select_by_size@$0BE@@detail@iostreams@boost@@2HB
CONST	SEGMENT
?value@?$select_by_size@$0BE@@detail@iostreams@boost@@2HB DD 012H ; boost::iostreams::detail::select_by_size<20>::value
CONST	ENDS
;	COMDAT ?value@type@?$select_by_size@$0BE@@detail@iostreams@boost@@2HB
CONST	SEGMENT
?value@type@?$select_by_size@$0BE@@detail@iostreams@boost@@2HB DD 012H ; boost::iostreams::detail::select_by_size<20>::type::value
CONST	ENDS
;	COMDAT ?value@?$select_by_size@$0BD@@detail@iostreams@boost@@2HB
CONST	SEGMENT
?value@?$select_by_size@$0BD@@detail@iostreams@boost@@2HB DD 011H ; boost::iostreams::detail::select_by_size<19>::value
CONST	ENDS
;	COMDAT ?value@type@?$select_by_size@$0BD@@detail@iostreams@boost@@2HB
CONST	SEGMENT
?value@type@?$select_by_size@$0BD@@detail@iostreams@boost@@2HB DD 011H ; boost::iostreams::detail::select_by_size<19>::type::value
CONST	ENDS
;	COMDAT ?value@?$select_by_size@$0BC@@detail@iostreams@boost@@2HB
CONST	SEGMENT
?value@?$select_by_size@$0BC@@detail@iostreams@boost@@2HB DD 010H ; boost::iostreams::detail::select_by_size<18>::value
CONST	ENDS
;	COMDAT ?value@type@?$select_by_size@$0BC@@detail@iostreams@boost@@2HB
CONST	SEGMENT
?value@type@?$select_by_size@$0BC@@detail@iostreams@boost@@2HB DD 010H ; boost::iostreams::detail::select_by_size<18>::type::value
CONST	ENDS
;	COMDAT ?value@?$select_by_size@$0BB@@detail@iostreams@boost@@2HB
CONST	SEGMENT
?value@?$select_by_size@$0BB@@detail@iostreams@boost@@2HB DD 0fH ; boost::iostreams::detail::select_by_size<17>::value
CONST	ENDS
;	COMDAT ?value@type@?$select_by_size@$0BB@@detail@iostreams@boost@@2HB
CONST	SEGMENT
?value@type@?$select_by_size@$0BB@@detail@iostreams@boost@@2HB DD 0fH ; boost::iostreams::detail::select_by_size<17>::type::value
CONST	ENDS
;	COMDAT ?value@?$select_by_size@$0BA@@detail@iostreams@boost@@2HB
CONST	SEGMENT
?value@?$select_by_size@$0BA@@detail@iostreams@boost@@2HB DD 0eH ; boost::iostreams::detail::select_by_size<16>::value
CONST	ENDS
;	COMDAT ?value@type@?$select_by_size@$0BA@@detail@iostreams@boost@@2HB
CONST	SEGMENT
?value@type@?$select_by_size@$0BA@@detail@iostreams@boost@@2HB DD 0eH ; boost::iostreams::detail::select_by_size<16>::type::value
CONST	ENDS
;	COMDAT ?value@?$select_by_size@$0P@@detail@iostreams@boost@@2HB
CONST	SEGMENT
?value@?$select_by_size@$0P@@detail@iostreams@boost@@2HB DD 0dH ; boost::iostreams::detail::select_by_size<15>::value
CONST	ENDS
;	COMDAT ?value@type@?$select_by_size@$0P@@detail@iostreams@boost@@2HB
CONST	SEGMENT
?value@type@?$select_by_size@$0P@@detail@iostreams@boost@@2HB DD 0dH ; boost::iostreams::detail::select_by_size<15>::type::value
CONST	ENDS
;	COMDAT ?value@?$select_by_size@$0O@@detail@iostreams@boost@@2HB
CONST	SEGMENT
?value@?$select_by_size@$0O@@detail@iostreams@boost@@2HB DD 0cH ; boost::iostreams::detail::select_by_size<14>::value
CONST	ENDS
;	COMDAT ?value@type@?$select_by_size@$0O@@detail@iostreams@boost@@2HB
CONST	SEGMENT
?value@type@?$select_by_size@$0O@@detail@iostreams@boost@@2HB DD 0cH ; boost::iostreams::detail::select_by_size<14>::type::value
CONST	ENDS
;	COMDAT ?value@?$select_by_size@$0N@@detail@iostreams@boost@@2HB
CONST	SEGMENT
?value@?$select_by_size@$0N@@detail@iostreams@boost@@2HB DD 0bH ; boost::iostreams::detail::select_by_size<13>::value
CONST	ENDS
;	COMDAT ?value@type@?$select_by_size@$0N@@detail@iostreams@boost@@2HB
CONST	SEGMENT
?value@type@?$select_by_size@$0N@@detail@iostreams@boost@@2HB DD 0bH ; boost::iostreams::detail::select_by_size<13>::type::value
CONST	ENDS
;	COMDAT ?value@?$select_by_size@$0M@@detail@iostreams@boost@@2HB
CONST	SEGMENT
?value@?$select_by_size@$0M@@detail@iostreams@boost@@2HB DD 0aH ; boost::iostreams::detail::select_by_size<12>::value
CONST	ENDS
;	COMDAT ?value@type@?$select_by_size@$0M@@detail@iostreams@boost@@2HB
CONST	SEGMENT
?value@type@?$select_by_size@$0M@@detail@iostreams@boost@@2HB DD 0aH ; boost::iostreams::detail::select_by_size<12>::type::value
CONST	ENDS
;	COMDAT ?value@?$select_by_size@$0L@@detail@iostreams@boost@@2HB
CONST	SEGMENT
?value@?$select_by_size@$0L@@detail@iostreams@boost@@2HB DD 09H ; boost::iostreams::detail::select_by_size<11>::value
CONST	ENDS
;	COMDAT ?value@type@?$select_by_size@$0L@@detail@iostreams@boost@@2HB
CONST	SEGMENT
?value@type@?$select_by_size@$0L@@detail@iostreams@boost@@2HB DD 09H ; boost::iostreams::detail::select_by_size<11>::type::value
CONST	ENDS
;	COMDAT ?value@?$select_by_size@$09@detail@iostreams@boost@@2HB
CONST	SEGMENT
?value@?$select_by_size@$09@detail@iostreams@boost@@2HB DD 08H ; boost::iostreams::detail::select_by_size<10>::value
CONST	ENDS
;	COMDAT ?value@type@?$select_by_size@$09@detail@iostreams@boost@@2HB
CONST	SEGMENT
?value@type@?$select_by_size@$09@detail@iostreams@boost@@2HB DD 08H ; boost::iostreams::detail::select_by_size<10>::type::value
CONST	ENDS
;	COMDAT ?value@?$select_by_size@$08@detail@iostreams@boost@@2HB
CONST	SEGMENT
?value@?$select_by_size@$08@detail@iostreams@boost@@2HB DD 07H ; boost::iostreams::detail::select_by_size<9>::value
CONST	ENDS
;	COMDAT ?value@type@?$select_by_size@$08@detail@iostreams@boost@@2HB
CONST	SEGMENT
?value@type@?$select_by_size@$08@detail@iostreams@boost@@2HB DD 07H ; boost::iostreams::detail::select_by_size<9>::type::value
CONST	ENDS
;	COMDAT ?value@?$select_by_size@$07@detail@iostreams@boost@@2HB
CONST	SEGMENT
?value@?$select_by_size@$07@detail@iostreams@boost@@2HB DD 06H ; boost::iostreams::detail::select_by_size<8>::value
CONST	ENDS
;	COMDAT ?value@type@?$select_by_size@$07@detail@iostreams@boost@@2HB
CONST	SEGMENT
?value@type@?$select_by_size@$07@detail@iostreams@boost@@2HB DD 06H ; boost::iostreams::detail::select_by_size<8>::type::value
CONST	ENDS
;	COMDAT ?value@?$select_by_size@$06@detail@iostreams@boost@@2HB
CONST	SEGMENT
?value@?$select_by_size@$06@detail@iostreams@boost@@2HB DD 05H ; boost::iostreams::detail::select_by_size<7>::value
CONST	ENDS
;	COMDAT ?value@type@?$select_by_size@$06@detail@iostreams@boost@@2HB
CONST	SEGMENT
?value@type@?$select_by_size@$06@detail@iostreams@boost@@2HB DD 05H ; boost::iostreams::detail::select_by_size<7>::type::value
CONST	ENDS
;	COMDAT ?value@?$select_by_size@$05@detail@iostreams@boost@@2HB
CONST	SEGMENT
?value@?$select_by_size@$05@detail@iostreams@boost@@2HB DD 04H ; boost::iostreams::detail::select_by_size<6>::value
CONST	ENDS
;	COMDAT ?value@type@?$select_by_size@$05@detail@iostreams@boost@@2HB
CONST	SEGMENT
?value@type@?$select_by_size@$05@detail@iostreams@boost@@2HB DD 04H ; boost::iostreams::detail::select_by_size<6>::type::value
CONST	ENDS
;	COMDAT ?value@?$select_by_size@$04@detail@iostreams@boost@@2HB
CONST	SEGMENT
?value@?$select_by_size@$04@detail@iostreams@boost@@2HB DD 03H ; boost::iostreams::detail::select_by_size<5>::value
CONST	ENDS
;	COMDAT ?value@type@?$select_by_size@$04@detail@iostreams@boost@@2HB
CONST	SEGMENT
?value@type@?$select_by_size@$04@detail@iostreams@boost@@2HB DD 03H ; boost::iostreams::detail::select_by_size<5>::type::value
CONST	ENDS
;	COMDAT ?value@?$select_by_size@$03@detail@iostreams@boost@@2HB
CONST	SEGMENT
?value@?$select_by_size@$03@detail@iostreams@boost@@2HB DD 02H ; boost::iostreams::detail::select_by_size<4>::value
CONST	ENDS
;	COMDAT ?value@type@?$select_by_size@$03@detail@iostreams@boost@@2HB
CONST	SEGMENT
?value@type@?$select_by_size@$03@detail@iostreams@boost@@2HB DD 02H ; boost::iostreams::detail::select_by_size<4>::type::value
CONST	ENDS
;	COMDAT ?value@?$select_by_size@$02@detail@iostreams@boost@@2HB
CONST	SEGMENT
?value@?$select_by_size@$02@detail@iostreams@boost@@2HB DD 01H ; boost::iostreams::detail::select_by_size<3>::value
CONST	ENDS
;	COMDAT ?value@type@?$select_by_size@$02@detail@iostreams@boost@@2HB
CONST	SEGMENT
?value@type@?$select_by_size@$02@detail@iostreams@boost@@2HB DD 01H ; boost::iostreams::detail::select_by_size<3>::type::value
CONST	ENDS
;	COMDAT ?value@?$select_by_size@$01@detail@iostreams@boost@@2HB
CONST	SEGMENT
?value@?$select_by_size@$01@detail@iostreams@boost@@2HB DD 00H ; boost::iostreams::detail::select_by_size<2>::value
CONST	ENDS
;	COMDAT ?value@type@?$select_by_size@$01@detail@iostreams@boost@@2HB
CONST	SEGMENT
?value@type@?$select_by_size@$01@detail@iostreams@boost@@2HB DD 00H ; boost::iostreams::detail::select_by_size<2>::type::value
CONST	ENDS
;	COMDAT ?value@?$select_by_size@$00@detail@iostreams@boost@@2HB
CONST	SEGMENT
?value@?$select_by_size@$00@detail@iostreams@boost@@2HB DD 0ffffffffH ; boost::iostreams::detail::select_by_size<1>::value
CONST	ENDS
;	COMDAT ?value@type@?$select_by_size@$00@detail@iostreams@boost@@2HB
CONST	SEGMENT
?value@type@?$select_by_size@$00@detail@iostreams@boost@@2HB DD 0ffffffffH ; boost::iostreams::detail::select_by_size<1>::type::value
CONST	ENDS
;	COMDAT ?value@?$is_convertible_impl@$$CDX$$CDX@detail@boost@@2_NB
CONST	SEGMENT
?value@?$is_convertible_impl@$$CDX$$CDX@detail@boost@@2_NB DB 01H ; boost::detail::is_convertible_impl<void const volatile ,void const volatile >::value
CONST	ENDS
;	COMDAT ?value@?$is_convertible_impl@$$CDX$$CCX@detail@boost@@2_NB
CONST	SEGMENT
?value@?$is_convertible_impl@$$CDX$$CCX@detail@boost@@2_NB DB 01H ; boost::detail::is_convertible_impl<void const volatile ,void volatile >::value
CONST	ENDS
;	COMDAT ?value@?$is_convertible_impl@$$CDX$$CBX@detail@boost@@2_NB
CONST	SEGMENT
?value@?$is_convertible_impl@$$CDX$$CBX@detail@boost@@2_NB DB 01H ; boost::detail::is_convertible_impl<void const volatile ,void const >::value
CONST	ENDS
;	COMDAT ?value@?$is_convertible_impl@$$CDXX@detail@boost@@2_NB
CONST	SEGMENT
?value@?$is_convertible_impl@$$CDXX@detail@boost@@2_NB DB 01H ; boost::detail::is_convertible_impl<void const volatile ,void>::value
CONST	ENDS
;	COMDAT ?value@?$is_convertible_impl@$$CCX$$CDX@detail@boost@@2_NB
CONST	SEGMENT
?value@?$is_convertible_impl@$$CCX$$CDX@detail@boost@@2_NB DB 01H ; boost::detail::is_convertible_impl<void volatile ,void const volatile >::value
CONST	ENDS
;	COMDAT ?value@?$is_convertible_impl@$$CCX$$CCX@detail@boost@@2_NB
CONST	SEGMENT
?value@?$is_convertible_impl@$$CCX$$CCX@detail@boost@@2_NB DB 01H ; boost::detail::is_convertible_impl<void volatile ,void volatile >::value
CONST	ENDS
;	COMDAT ?value@?$is_convertible_impl@$$CCX$$CBX@detail@boost@@2_NB
CONST	SEGMENT
?value@?$is_convertible_impl@$$CCX$$CBX@detail@boost@@2_NB DB 01H ; boost::detail::is_convertible_impl<void volatile ,void const >::value
CONST	ENDS
;	COMDAT ?value@?$is_convertible_impl@$$CCXX@detail@boost@@2_NB
CONST	SEGMENT
?value@?$is_convertible_impl@$$CCXX@detail@boost@@2_NB DB 01H ; boost::detail::is_convertible_impl<void volatile ,void>::value
CONST	ENDS
;	COMDAT ?value@?$is_convertible_impl@$$CBX$$CDX@detail@boost@@2_NB
CONST	SEGMENT
?value@?$is_convertible_impl@$$CBX$$CDX@detail@boost@@2_NB DB 01H ; boost::detail::is_convertible_impl<void const ,void const volatile >::value
CONST	ENDS
;	COMDAT ?value@?$is_convertible_impl@$$CBX$$CCX@detail@boost@@2_NB
CONST	SEGMENT
?value@?$is_convertible_impl@$$CBX$$CCX@detail@boost@@2_NB DB 01H ; boost::detail::is_convertible_impl<void const ,void volatile >::value
CONST	ENDS
;	COMDAT ?value@?$is_convertible_impl@$$CBX$$CBX@detail@boost@@2_NB
CONST	SEGMENT
?value@?$is_convertible_impl@$$CBX$$CBX@detail@boost@@2_NB DB 01H ; boost::detail::is_convertible_impl<void const ,void const >::value
CONST	ENDS
;	COMDAT ?value@?$is_convertible_impl@$$CBXX@detail@boost@@2_NB
CONST	SEGMENT
?value@?$is_convertible_impl@$$CBXX@detail@boost@@2_NB DB 01H ; boost::detail::is_convertible_impl<void const ,void>::value
CONST	ENDS
;	COMDAT ?value@?$is_convertible_impl@X$$CDX@detail@boost@@2_NB
CONST	SEGMENT
?value@?$is_convertible_impl@X$$CDX@detail@boost@@2_NB DB 01H ; boost::detail::is_convertible_impl<void,void const volatile >::value
CONST	ENDS
;	COMDAT ?value@?$is_convertible_impl@X$$CCX@detail@boost@@2_NB
CONST	SEGMENT
?value@?$is_convertible_impl@X$$CCX@detail@boost@@2_NB DB 01H ; boost::detail::is_convertible_impl<void,void volatile >::value
CONST	ENDS
;	COMDAT ?value@?$is_convertible_impl@X$$CBX@detail@boost@@2_NB
CONST	SEGMENT
?value@?$is_convertible_impl@X$$CBX@detail@boost@@2_NB DB 01H ; boost::detail::is_convertible_impl<void,void const >::value
CONST	ENDS
;	COMDAT ?value@?$is_convertible_impl@XX@detail@boost@@2_NB
CONST	SEGMENT
?value@?$is_convertible_impl@XX@detail@boost@@2_NB DB 01H ; boost::detail::is_convertible_impl<void,void>::value
CONST	ENDS
;	COMDAT ?value@?$lcast_streambuf_for_target@_W@detail@boost@@2_NB
CONST	SEGMENT
?value@?$lcast_streambuf_for_target@_W@detail@boost@@2_NB DB 00H ; boost::detail::lcast_streambuf_for_target<wchar_t>::value
CONST	ENDS
;	COMDAT ?value@?$lcast_streambuf_for_target@D@detail@boost@@2_NB
CONST	SEGMENT
?value@?$lcast_streambuf_for_target@D@detail@boost@@2_NB DB 00H ; boost::detail::lcast_streambuf_for_target<char>::value
CONST	ENDS
;	COMDAT ?value@?$lcast_streambuf_for_source@O@detail@boost@@2_NB
CONST	SEGMENT
?value@?$lcast_streambuf_for_source@O@detail@boost@@2_NB DB 01H ; boost::detail::lcast_streambuf_for_source<long double>::value
CONST	ENDS
;	COMDAT ?value@?$lcast_streambuf_for_source@N@detail@boost@@2_NB
CONST	SEGMENT
?value@?$lcast_streambuf_for_source@N@detail@boost@@2_NB DB 01H ; boost::detail::lcast_streambuf_for_source<double>::value
CONST	ENDS
;	COMDAT ?value@?$lcast_streambuf_for_source@M@detail@boost@@2_NB
CONST	SEGMENT
?value@?$lcast_streambuf_for_source@M@detail@boost@@2_NB DB 01H ; boost::detail::lcast_streambuf_for_source<float>::value
CONST	ENDS
;	COMDAT ?minus@?$lcast_char_constants@_W@detail@boost@@2_WB
CONST	SEGMENT
?minus@?$lcast_char_constants@_W@detail@boost@@2_WB DW 02dH ; boost::detail::lcast_char_constants<wchar_t>::minus
CONST	ENDS
;	COMDAT ?zero@?$lcast_char_constants@_W@detail@boost@@2_WB
CONST	SEGMENT
?zero@?$lcast_char_constants@_W@detail@boost@@2_WB DW 030H ; boost::detail::lcast_char_constants<wchar_t>::zero
CONST	ENDS
;	COMDAT ?minus@?$lcast_char_constants@D@detail@boost@@2DB
CONST	SEGMENT
?minus@?$lcast_char_constants@D@detail@boost@@2DB DB 02dH ; boost::detail::lcast_char_constants<char>::minus
CONST	ENDS
;	COMDAT ?zero@?$lcast_char_constants@D@detail@boost@@2DB
CONST	SEGMENT
?zero@?$lcast_char_constants@D@detail@boost@@2DB DB 030H ; boost::detail::lcast_char_constants<char>::zero
CONST	ENDS
;	COMDAT ?value@?$lcast_src_length_floating@O@detail@boost@@2IB
CONST	SEGMENT
?value@?$lcast_src_length_floating@O@detail@boost@@2IB DD 01cH ; boost::detail::lcast_src_length_floating<long double>::value
CONST	ENDS
;	COMDAT ?value@?$lcast_precision@O@detail@boost@@2HB
CONST	SEGMENT
?value@?$lcast_precision@O@detail@boost@@2HB DD 011H	; boost::detail::lcast_precision<long double>::value
CONST	ENDS
;	COMDAT ?precision_bin@?$lcast_precision@O@detail@boost@@2KB
CONST	SEGMENT
?precision_bin@?$lcast_precision@O@detail@boost@@2KB DD 011H ; boost::detail::lcast_precision<long double>::precision_bin
CONST	ENDS
;	COMDAT ?precision_dec@?$lcast_precision@O@detail@boost@@2IB
CONST	SEGMENT
?precision_dec@?$lcast_precision@O@detail@boost@@2IB DD 010H ; boost::detail::lcast_precision<long double>::precision_dec
CONST	ENDS
;	COMDAT ?streamsize_max@?$lcast_precision@O@detail@boost@@2HB
CONST	SEGMENT
?streamsize_max@?$lcast_precision@O@detail@boost@@2HB DD 07fffffffH ; boost::detail::lcast_precision<long double>::streamsize_max
CONST	ENDS
;	COMDAT ?is_specialized_dec@?$lcast_precision@O@detail@boost@@2_NB
CONST	SEGMENT
?is_specialized_dec@?$lcast_precision@O@detail@boost@@2_NB DB 00H ; boost::detail::lcast_precision<long double>::is_specialized_dec
CONST	ENDS
;	COMDAT ?is_specialized_bin@?$lcast_precision@O@detail@boost@@2_NB
CONST	SEGMENT
?is_specialized_bin@?$lcast_precision@O@detail@boost@@2_NB DB 01H ; boost::detail::lcast_precision<long double>::is_specialized_bin
CONST	ENDS
;	COMDAT ?use_default_precision@?$lcast_precision@O@detail@boost@@2_NB
CONST	SEGMENT
?use_default_precision@?$lcast_precision@O@detail@boost@@2_NB DB 00H ; boost::detail::lcast_precision<long double>::use_default_precision
CONST	ENDS
;	COMDAT ?value@?$is_abstract_imp@O@detail@boost@@2_NB
CONST	SEGMENT
?value@?$is_abstract_imp@O@detail@boost@@2_NB DB 00H	; boost::detail::is_abstract_imp<long double>::value
CONST	ENDS
;	COMDAT ?value@?$lcast_src_length_floating@N@detail@boost@@2IB
CONST	SEGMENT
?value@?$lcast_src_length_floating@N@detail@boost@@2IB DD 01cH ; boost::detail::lcast_src_length_floating<double>::value
CONST	ENDS
;	COMDAT ?value@?$lcast_precision@N@detail@boost@@2HB
CONST	SEGMENT
?value@?$lcast_precision@N@detail@boost@@2HB DD 011H	; boost::detail::lcast_precision<double>::value
CONST	ENDS
;	COMDAT ?precision_bin@?$lcast_precision@N@detail@boost@@2KB
CONST	SEGMENT
?precision_bin@?$lcast_precision@N@detail@boost@@2KB DD 011H ; boost::detail::lcast_precision<double>::precision_bin
CONST	ENDS
;	COMDAT ?precision_dec@?$lcast_precision@N@detail@boost@@2IB
CONST	SEGMENT
?precision_dec@?$lcast_precision@N@detail@boost@@2IB DD 010H ; boost::detail::lcast_precision<double>::precision_dec
CONST	ENDS
;	COMDAT ?streamsize_max@?$lcast_precision@N@detail@boost@@2HB
CONST	SEGMENT
?streamsize_max@?$lcast_precision@N@detail@boost@@2HB DD 07fffffffH ; boost::detail::lcast_precision<double>::streamsize_max
CONST	ENDS
;	COMDAT ?is_specialized_dec@?$lcast_precision@N@detail@boost@@2_NB
CONST	SEGMENT
?is_specialized_dec@?$lcast_precision@N@detail@boost@@2_NB DB 00H ; boost::detail::lcast_precision<double>::is_specialized_dec
CONST	ENDS
;	COMDAT ?is_specialized_bin@?$lcast_precision@N@detail@boost@@2_NB
CONST	SEGMENT
?is_specialized_bin@?$lcast_precision@N@detail@boost@@2_NB DB 01H ; boost::detail::lcast_precision<double>::is_specialized_bin
CONST	ENDS
;	COMDAT ?use_default_precision@?$lcast_precision@N@detail@boost@@2_NB
CONST	SEGMENT
?use_default_precision@?$lcast_precision@N@detail@boost@@2_NB DB 00H ; boost::detail::lcast_precision<double>::use_default_precision
CONST	ENDS
;	COMDAT ?value@?$is_abstract_imp@N@detail@boost@@2_NB
CONST	SEGMENT
?value@?$is_abstract_imp@N@detail@boost@@2_NB DB 00H	; boost::detail::is_abstract_imp<double>::value
CONST	ENDS
;	COMDAT ?value@?$lcast_src_length_floating@M@detail@boost@@2IB
CONST	SEGMENT
?value@?$lcast_src_length_floating@M@detail@boost@@2IB DD 014H ; boost::detail::lcast_src_length_floating<float>::value
CONST	ENDS
;	COMDAT ?value@?$lcast_precision@M@detail@boost@@2HB
CONST	SEGMENT
?value@?$lcast_precision@M@detail@boost@@2HB DD 09H	; boost::detail::lcast_precision<float>::value
CONST	ENDS
;	COMDAT ?precision_bin@?$lcast_precision@M@detail@boost@@2KB
CONST	SEGMENT
?precision_bin@?$lcast_precision@M@detail@boost@@2KB DD 09H ; boost::detail::lcast_precision<float>::precision_bin
CONST	ENDS
;	COMDAT ?precision_dec@?$lcast_precision@M@detail@boost@@2IB
CONST	SEGMENT
?precision_dec@?$lcast_precision@M@detail@boost@@2IB DD 07H ; boost::detail::lcast_precision<float>::precision_dec
CONST	ENDS
;	COMDAT ?streamsize_max@?$lcast_precision@M@detail@boost@@2HB
CONST	SEGMENT
?streamsize_max@?$lcast_precision@M@detail@boost@@2HB DD 07fffffffH ; boost::detail::lcast_precision<float>::streamsize_max
CONST	ENDS
;	COMDAT ?is_specialized_dec@?$lcast_precision@M@detail@boost@@2_NB
CONST	SEGMENT
?is_specialized_dec@?$lcast_precision@M@detail@boost@@2_NB DB 00H ; boost::detail::lcast_precision<float>::is_specialized_dec
CONST	ENDS
;	COMDAT ?is_specialized_bin@?$lcast_precision@M@detail@boost@@2_NB
CONST	SEGMENT
?is_specialized_bin@?$lcast_precision@M@detail@boost@@2_NB DB 01H ; boost::detail::lcast_precision<float>::is_specialized_bin
CONST	ENDS
;	COMDAT ?use_default_precision@?$lcast_precision@M@detail@boost@@2_NB
CONST	SEGMENT
?use_default_precision@?$lcast_precision@M@detail@boost@@2_NB DB 00H ; boost::detail::lcast_precision<float>::use_default_precision
CONST	ENDS
;	COMDAT ?value@?$is_abstract_imp@M@detail@boost@@2_NB
CONST	SEGMENT
?value@?$is_abstract_imp@M@detail@boost@@2_NB DB 00H	; boost::detail::is_abstract_imp<float>::value
CONST	ENDS
;	COMDAT ?value@?$lcast_src_length_integral@_J@detail@boost@@2IB
CONST	SEGMENT
?value@?$lcast_src_length_integral@_J@detail@boost@@2IB DD 026H ; boost::detail::lcast_src_length_integral<__int64>::value
CONST	ENDS
;	COMDAT ?value@?$lcast_src_length_integral@_K@detail@boost@@2IB
CONST	SEGMENT
?value@?$lcast_src_length_integral@_K@detail@boost@@2IB DD 027H ; boost::detail::lcast_src_length_integral<unsigned __int64>::value
CONST	ENDS
;	COMDAT ?value@?$lcast_src_length_integral@K@detail@boost@@2IB
CONST	SEGMENT
?value@?$lcast_src_length_integral@K@detail@boost@@2IB DD 013H ; boost::detail::lcast_src_length_integral<unsigned long>::value
CONST	ENDS
;	COMDAT ?value@?$lcast_src_length_integral@J@detail@boost@@2IB
CONST	SEGMENT
?value@?$lcast_src_length_integral@J@detail@boost@@2IB DD 014H ; boost::detail::lcast_src_length_integral<long>::value
CONST	ENDS
;	COMDAT ?value@?$lcast_src_length_integral@I@detail@boost@@2IB
CONST	SEGMENT
?value@?$lcast_src_length_integral@I@detail@boost@@2IB DD 013H ; boost::detail::lcast_src_length_integral<unsigned int>::value
CONST	ENDS
;	COMDAT ?value@?$lcast_src_length_integral@H@detail@boost@@2IB
CONST	SEGMENT
?value@?$lcast_src_length_integral@H@detail@boost@@2IB DD 014H ; boost::detail::lcast_src_length_integral<int>::value
CONST	ENDS
;	COMDAT ?value@?$lcast_src_length_integral@G@detail@boost@@2IB
CONST	SEGMENT
?value@?$lcast_src_length_integral@G@detail@boost@@2IB DD 09H ; boost::detail::lcast_src_length_integral<unsigned short>::value
CONST	ENDS
;	COMDAT ?value@?$lcast_src_length_integral@F@detail@boost@@2IB
CONST	SEGMENT
?value@?$lcast_src_length_integral@F@detail@boost@@2IB DD 0aH ; boost::detail::lcast_src_length_integral<short>::value
CONST	ENDS
;	COMDAT ?value@?$lcast_src_length@_WPA_W@detail@boost@@2IB
CONST	SEGMENT
?value@?$lcast_src_length@_WPA_W@detail@boost@@2IB DD 01H ; boost::detail::lcast_src_length<wchar_t,wchar_t *>::value
CONST	ENDS
;	COMDAT ?value@?$lcast_src_length@_WPB_W@detail@boost@@2IB
CONST	SEGMENT
?value@?$lcast_src_length@_WPB_W@detail@boost@@2IB DD 01H ; boost::detail::lcast_src_length<wchar_t,wchar_t const *>::value
CONST	ENDS
;	COMDAT ?value@?$lcast_src_length@DPAD@detail@boost@@2IB
CONST	SEGMENT
?value@?$lcast_src_length@DPAD@detail@boost@@2IB DD 01H	; boost::detail::lcast_src_length<char,char *>::value
CONST	ENDS
;	COMDAT ?value@?$lcast_src_length@DPBD@detail@boost@@2IB
CONST	SEGMENT
?value@?$lcast_src_length@DPBD@detail@boost@@2IB DD 01H	; boost::detail::lcast_src_length<char,char const *>::value
CONST	ENDS
;	COMDAT ?value@?$lcast_src_length@_W_W@detail@boost@@2IB
CONST	SEGMENT
?value@?$lcast_src_length@_W_W@detail@boost@@2IB DD 01H	; boost::detail::lcast_src_length<wchar_t,wchar_t>::value
CONST	ENDS
;	COMDAT ?value@?$lcast_src_length@_WD@detail@boost@@2IB
CONST	SEGMENT
?value@?$lcast_src_length@_WD@detail@boost@@2IB DD 01H	; boost::detail::lcast_src_length<wchar_t,char>::value
CONST	ENDS
;	COMDAT ?value@?$lcast_src_length@_W_N@detail@boost@@2IB
CONST	SEGMENT
?value@?$lcast_src_length@_W_N@detail@boost@@2IB DD 01H	; boost::detail::lcast_src_length<wchar_t,bool>::value
CONST	ENDS
;	COMDAT ?value@?$lcast_src_length@DD@detail@boost@@2IB
CONST	SEGMENT
?value@?$lcast_src_length@DD@detail@boost@@2IB DD 01H	; boost::detail::lcast_src_length<char,char>::value
CONST	ENDS
;	COMDAT ?value@?$lcast_src_length@D_N@detail@boost@@2IB
CONST	SEGMENT
?value@?$lcast_src_length@D_N@detail@boost@@2IB DD 01H	; boost::detail::lcast_src_length<char,bool>::value
CONST	ENDS
;	COMDAT ?value@?$is_member_function_pointer_impl@$$CDX@detail@boost@@2_NB
CONST	SEGMENT
?value@?$is_member_function_pointer_impl@$$CDX@detail@boost@@2_NB DB 00H ; boost::detail::is_member_function_pointer_impl<void const volatile >::value
CONST	ENDS
;	COMDAT ?value@?$is_member_function_pointer_impl@$$CCX@detail@boost@@2_NB
CONST	SEGMENT
?value@?$is_member_function_pointer_impl@$$CCX@detail@boost@@2_NB DB 00H ; boost::detail::is_member_function_pointer_impl<void volatile >::value
CONST	ENDS
;	COMDAT ?value@?$is_member_function_pointer_impl@$$CBX@detail@boost@@2_NB
CONST	SEGMENT
?value@?$is_member_function_pointer_impl@$$CBX@detail@boost@@2_NB DB 00H ; boost::detail::is_member_function_pointer_impl<void const >::value
CONST	ENDS
;	COMDAT ?value@?$is_member_function_pointer_impl@X@detail@boost@@2_NB
CONST	SEGMENT
?value@?$is_member_function_pointer_impl@X@detail@boost@@2_NB DB 00H ; boost::detail::is_member_function_pointer_impl<void>::value
CONST	ENDS
;	COMDAT ?value@?$integral_constant@_N$00@tr1@std@@2_NB
CONST	SEGMENT
?value@?$integral_constant@_N$00@tr1@std@@2_NB DB 01H	; std::tr1::integral_constant<bool,1>::value
CONST	ENDS
;	COMDAT ?value@?$integral_constant@_N$0A@@tr1@std@@2_NB
CONST	SEGMENT
?value@?$integral_constant@_N$0A@@tr1@std@@2_NB DB 00H	; std::tr1::integral_constant<bool,0>::value
CONST	ENDS
;	COMDAT ?value@?$ice_not@$00@type_traits@boost@@2_NB
CONST	SEGMENT
?value@?$ice_not@$00@type_traits@boost@@2_NB DB 00H	; boost::type_traits::ice_not<1>::value
CONST	ENDS
;	COMDAT ?value@?$ice_and@$00$00$00$00$00$00$00@type_traits@boost@@2_NB
CONST	SEGMENT
?value@?$ice_and@$00$00$00$00$00$00$00@type_traits@boost@@2_NB DB 01H ; boost::type_traits::ice_and<1,1,1,1,1,1,1>::value
CONST	ENDS
;	COMDAT ?step_size@?$linear_feedback_shift@K$0CA@$0BN@$01$03$0A@@random@boost@@2HB
CONST	SEGMENT
?step_size@?$linear_feedback_shift@K$0CA@$0BN@$01$03$0A@@random@boost@@2HB DD 04H ; boost::random::linear_feedback_shift<unsigned long,32,29,2,4,0>::step_size
CONST	ENDS
;	COMDAT ?exponent2@?$linear_feedback_shift@K$0CA@$0BN@$01$03$0A@@random@boost@@2HB
CONST	SEGMENT
?exponent2@?$linear_feedback_shift@K$0CA@$0BN@$01$03$0A@@random@boost@@2HB DD 02H ; boost::random::linear_feedback_shift<unsigned long,32,29,2,4,0>::exponent2
CONST	ENDS
;	COMDAT ?exponent1@?$linear_feedback_shift@K$0CA@$0BN@$01$03$0A@@random@boost@@2HB
CONST	SEGMENT
?exponent1@?$linear_feedback_shift@K$0CA@$0BN@$01$03$0A@@random@boost@@2HB DD 01dH ; boost::random::linear_feedback_shift<unsigned long,32,29,2,4,0>::exponent1
CONST	ENDS
;	COMDAT ?word_size@?$linear_feedback_shift@K$0CA@$0BN@$01$03$0A@@random@boost@@2HB
CONST	SEGMENT
?word_size@?$linear_feedback_shift@K$0CA@$0BN@$01$03$0A@@random@boost@@2HB DD 020H ; boost::random::linear_feedback_shift<unsigned long,32,29,2,4,0>::word_size
CONST	ENDS
;	COMDAT ?has_fixed_range@?$linear_feedback_shift@K$0CA@$0BN@$01$03$0A@@random@boost@@2_NB
CONST	SEGMENT
?has_fixed_range@?$linear_feedback_shift@K$0CA@$0BN@$01$03$0A@@random@boost@@2_NB DB 00H ; boost::random::linear_feedback_shift<unsigned long,32,29,2,4,0>::has_fixed_range
CONST	ENDS
;	COMDAT ?shift2@?$xor_combine@V?$linear_feedback_shift@K$0CA@$0BP@$0N@$0M@$0A@@random@boost@@$0A@V?$linear_feedback_shift@K$0CA@$0BN@$01$03$0A@@23@$0A@$0A@@random@boost@@2HB
CONST	SEGMENT
?shift2@?$xor_combine@V?$linear_feedback_shift@K$0CA@$0BP@$0N@$0M@$0A@@random@boost@@$0A@V?$linear_feedback_shift@K$0CA@$0BN@$01$03$0A@@23@$0A@$0A@@random@boost@@2HB DD 00H ; boost::random::xor_combine<boost::random::linear_feedback_shift<unsigned long,32,31,13,12,0>,0,boost::random::linear_feedback_shift<unsigned long,32,29,2,4,0>,0,0>::shift2
CONST	ENDS
;	COMDAT ?shift1@?$xor_combine@V?$linear_feedback_shift@K$0CA@$0BP@$0N@$0M@$0A@@random@boost@@$0A@V?$linear_feedback_shift@K$0CA@$0BN@$01$03$0A@@23@$0A@$0A@@random@boost@@2HB
CONST	SEGMENT
?shift1@?$xor_combine@V?$linear_feedback_shift@K$0CA@$0BP@$0N@$0M@$0A@@random@boost@@$0A@V?$linear_feedback_shift@K$0CA@$0BN@$01$03$0A@@23@$0A@$0A@@random@boost@@2HB DD 00H ; boost::random::xor_combine<boost::random::linear_feedback_shift<unsigned long,32,31,13,12,0>,0,boost::random::linear_feedback_shift<unsigned long,32,29,2,4,0>,0,0>::shift1
CONST	ENDS
;	COMDAT ?has_fixed_range@?$xor_combine@V?$linear_feedback_shift@K$0CA@$0BP@$0N@$0M@$0A@@random@boost@@$0A@V?$linear_feedback_shift@K$0CA@$0BN@$01$03$0A@@23@$0A@$0A@@random@boost@@2_NB
CONST	SEGMENT
?has_fixed_range@?$xor_combine@V?$linear_feedback_shift@K$0CA@$0BP@$0N@$0M@$0A@@random@boost@@$0A@V?$linear_feedback_shift@K$0CA@$0BN@$01$03$0A@@23@$0A@$0A@@random@boost@@2_NB DB 00H ; boost::random::xor_combine<boost::random::linear_feedback_shift<unsigned long,32,31,13,12,0>,0,boost::random::linear_feedback_shift<unsigned long,32,29,2,4,0>,0,0>::has_fixed_range
CONST	ENDS
;	COMDAT ?step_size@?$linear_feedback_shift@K$0CA@$0BP@$0N@$0M@$0A@@random@boost@@2HB
CONST	SEGMENT
?step_size@?$linear_feedback_shift@K$0CA@$0BP@$0N@$0M@$0A@@random@boost@@2HB DD 0cH ; boost::random::linear_feedback_shift<unsigned long,32,31,13,12,0>::step_size
CONST	ENDS
;	COMDAT ?exponent2@?$linear_feedback_shift@K$0CA@$0BP@$0N@$0M@$0A@@random@boost@@2HB
CONST	SEGMENT
?exponent2@?$linear_feedback_shift@K$0CA@$0BP@$0N@$0M@$0A@@random@boost@@2HB DD 0dH ; boost::random::linear_feedback_shift<unsigned long,32,31,13,12,0>::exponent2
CONST	ENDS
;	COMDAT ?exponent1@?$linear_feedback_shift@K$0CA@$0BP@$0N@$0M@$0A@@random@boost@@2HB
CONST	SEGMENT
?exponent1@?$linear_feedback_shift@K$0CA@$0BP@$0N@$0M@$0A@@random@boost@@2HB DD 01fH ; boost::random::linear_feedback_shift<unsigned long,32,31,13,12,0>::exponent1
CONST	ENDS
;	COMDAT ?word_size@?$linear_feedback_shift@K$0CA@$0BP@$0N@$0M@$0A@@random@boost@@2HB
CONST	SEGMENT
?word_size@?$linear_feedback_shift@K$0CA@$0BP@$0N@$0M@$0A@@random@boost@@2HB DD 020H ; boost::random::linear_feedback_shift<unsigned long,32,31,13,12,0>::word_size
CONST	ENDS
;	COMDAT ?has_fixed_range@?$linear_feedback_shift@K$0CA@$0BP@$0N@$0M@$0A@@random@boost@@2_NB
CONST	SEGMENT
?has_fixed_range@?$linear_feedback_shift@K$0CA@$0BP@$0N@$0M@$0A@@random@boost@@2_NB DB 00H ; boost::random::linear_feedback_shift<unsigned long,32,31,13,12,0>::has_fixed_range
CONST	ENDS
;	COMDAT ?is_specialized@?$fibonacci_validation@N$0KNNB@$0FCCK@@random@boost@@2_NB
CONST	SEGMENT
?is_specialized@?$fibonacci_validation@N$0KNNB@$0FCCK@@random@boost@@2_NB DB 01H ; boost::random::fibonacci_validation<double,44497,21034>::is_specialized
CONST	ENDS
;	COMDAT ?is_specialized@?$fibonacci_validation@N$0FKKJ@$0DEJO@@random@boost@@2_NB
CONST	SEGMENT
?is_specialized@?$fibonacci_validation@N$0FKKJ@$0DEJO@@random@boost@@2_NB DB 01H ; boost::random::fibonacci_validation<double,23209,13470>::is_specialized
CONST	ENDS
;	COMDAT ?is_specialized@?$fibonacci_validation@N$0ENOB@$0CGHC@@random@boost@@2_NB
CONST	SEGMENT
?is_specialized@?$fibonacci_validation@N$0ENOB@$0CGHC@@random@boost@@2_NB DB 01H ; boost::random::fibonacci_validation<double,19937,9842>::is_specialized
CONST	ENDS
;	COMDAT ?is_specialized@?$fibonacci_validation@N$0CFNJ@$0BFHO@@random@boost@@2_NB
CONST	SEGMENT
?is_specialized@?$fibonacci_validation@N$0CFNJ@$0BFHO@@random@boost@@2_NB DB 01H ; boost::random::fibonacci_validation<double,9689,5502>::is_specialized
CONST	ENDS
;	COMDAT ?is_specialized@?$fibonacci_validation@N$0BBEH@$0IDC@@random@boost@@2_NB
CONST	SEGMENT
?is_specialized@?$fibonacci_validation@N$0BBEH@$0IDC@@random@boost@@2_NB DB 01H ; boost::random::fibonacci_validation<double,4423,2098>::is_specialized
CONST	ENDS
;	COMDAT ?is_specialized@?$fibonacci_validation@N$0MJB@$0CEA@@random@boost@@2_NB
CONST	SEGMENT
?is_specialized@?$fibonacci_validation@N$0MJB@$0CEA@@random@boost@@2_NB DB 01H ; boost::random::fibonacci_validation<double,3217,576>::is_specialized
CONST	ENDS
;	COMDAT ?is_specialized@?$fibonacci_validation@N$0IOJ@$0EOE@@random@boost@@2_NB
CONST	SEGMENT
?is_specialized@?$fibonacci_validation@N$0IOJ@$0EOE@@random@boost@@2_NB DB 01H ; boost::random::fibonacci_validation<double,2281,1252>::is_specialized
CONST	ENDS
;	COMDAT ?is_specialized@?$fibonacci_validation@N$0EPP@$0BKC@@random@boost@@2_NB
CONST	SEGMENT
?is_specialized@?$fibonacci_validation@N$0EPP@$0BKC@@random@boost@@2_NB DB 01H ; boost::random::fibonacci_validation<double,1279,418>::is_specialized
CONST	ENDS
;	COMDAT ?is_specialized@?$fibonacci_validation@N$0CFP@$0BBB@@random@boost@@2_NB
CONST	SEGMENT
?is_specialized@?$fibonacci_validation@N$0CFP@$0BBB@@random@boost@@2_NB DB 01H ; boost::random::fibonacci_validation<double,607,273>::is_specialized
CONST	ENDS
;	COMDAT ?value@?$ice_or@$0A@$0A@$0A@$0A@$0A@$0A@$0A@@type_traits@boost@@2_NB
CONST	SEGMENT
?value@?$ice_or@$0A@$0A@$0A@$0A@$0A@$0A@$0A@@type_traits@boost@@2_NB DB 00H ; boost::type_traits::ice_or<0,0,0,0,0,0,0>::value
CONST	ENDS
;	COMDAT ?value@?$bool_@$0A@@mpl@boost@@2_NB
CONST	SEGMENT
?value@?$bool_@$0A@@mpl@boost@@2_NB DB 00H		; boost::mpl::bool_<0>::value
CONST	ENDS
;	COMDAT ?value@?$bool_@$00@mpl@boost@@2_NB
CONST	SEGMENT
?value@?$bool_@$00@mpl@boost@@2_NB DB 01H		; boost::mpl::bool_<1>::value
CONST	ENDS
;	COMDAT ?value@integral_c_tag@mpl@boost@@2HB
CONST	SEGMENT
?value@integral_c_tag@mpl@boost@@2HB DD 00H		; boost::mpl::integral_c_tag::value
CONST	ENDS
;	COMDAT ?modulus@?$linear_congruential@K$0FFG@$0CENGJ@$0KOFCJ@$0A@@random@boost@@2KB
CONST	SEGMENT
?modulus@?$linear_congruential@K$0FFG@$0CENGJ@$0KOFCJ@$0A@@random@boost@@2KB DD 0ae529H ; boost::random::linear_congruential<unsigned long,1366,150889,714025,0>::modulus
CONST	ENDS
;	COMDAT ?increment@?$linear_congruential@K$0FFG@$0CENGJ@$0KOFCJ@$0A@@random@boost@@2KB
CONST	SEGMENT
?increment@?$linear_congruential@K$0FFG@$0CENGJ@$0KOFCJ@$0A@@random@boost@@2KB DD 024d69H ; boost::random::linear_congruential<unsigned long,1366,150889,714025,0>::increment
CONST	ENDS
;	COMDAT ?multiplier@?$linear_congruential@K$0FFG@$0CENGJ@$0KOFCJ@$0A@@random@boost@@2KB
CONST	SEGMENT
?multiplier@?$linear_congruential@K$0FFG@$0CENGJ@$0KOFCJ@$0A@@random@boost@@2KB DD 0556H ; boost::random::linear_congruential<unsigned long,1366,150889,714025,0>::multiplier
CONST	ENDS
;	COMDAT ?max_value@?$linear_congruential@K$0FFG@$0CENGJ@$0KOFCJ@$0A@@random@boost@@2KB
CONST	SEGMENT
?max_value@?$linear_congruential@K$0FFG@$0CENGJ@$0KOFCJ@$0A@@random@boost@@2KB DD 0ae528H ; boost::random::linear_congruential<unsigned long,1366,150889,714025,0>::max_value
CONST	ENDS
;	COMDAT ?min_value@?$linear_congruential@K$0FFG@$0CENGJ@$0KOFCJ@$0A@@random@boost@@2KB
CONST	SEGMENT
?min_value@?$linear_congruential@K$0FFG@$0CENGJ@$0KOFCJ@$0A@@random@boost@@2KB DD 00H ; boost::random::linear_congruential<unsigned long,1366,150889,714025,0>::min_value
CONST	ENDS
;	COMDAT ?has_fixed_range@?$linear_congruential@K$0FFG@$0CENGJ@$0KOFCJ@$0A@@random@boost@@2_NB
CONST	SEGMENT
?has_fixed_range@?$linear_congruential@K$0FFG@$0CENGJ@$0KOFCJ@$0A@@random@boost@@2_NB DB 01H ; boost::random::linear_congruential<unsigned long,1366,150889,714025,0>::has_fixed_range
CONST	ENDS
;	COMDAT ?modulus@?$linear_congruential@J$0JMEO@$0A@$0HPPPPPKL@$0A@@random@boost@@2JB
CONST	SEGMENT
?modulus@?$linear_congruential@J$0JMEO@$0A@$0HPPPPPKL@$0A@@random@boost@@2JB DD 07fffffabH ; boost::random::linear_congruential<long,40014,0,2147483563,0>::modulus
CONST	ENDS
;	COMDAT ?increment@?$linear_congruential@J$0JMEO@$0A@$0HPPPPPKL@$0A@@random@boost@@2JB
CONST	SEGMENT
?increment@?$linear_congruential@J$0JMEO@$0A@$0HPPPPPKL@$0A@@random@boost@@2JB DD 00H ; boost::random::linear_congruential<long,40014,0,2147483563,0>::increment
CONST	ENDS
;	COMDAT ?multiplier@?$linear_congruential@J$0JMEO@$0A@$0HPPPPPKL@$0A@@random@boost@@2JB
CONST	SEGMENT
?multiplier@?$linear_congruential@J$0JMEO@$0A@$0HPPPPPKL@$0A@@random@boost@@2JB DD 09c4eH ; boost::random::linear_congruential<long,40014,0,2147483563,0>::multiplier
CONST	ENDS
;	COMDAT ?max_value@?$linear_congruential@J$0JMEO@$0A@$0HPPPPPKL@$0A@@random@boost@@2JB
CONST	SEGMENT
?max_value@?$linear_congruential@J$0JMEO@$0A@$0HPPPPPKL@$0A@@random@boost@@2JB DD 07fffffaaH ; boost::random::linear_congruential<long,40014,0,2147483563,0>::max_value
CONST	ENDS
;	COMDAT ?min_value@?$linear_congruential@J$0JMEO@$0A@$0HPPPPPKL@$0A@@random@boost@@2JB
CONST	SEGMENT
?min_value@?$linear_congruential@J$0JMEO@$0A@$0HPPPPPKL@$0A@@random@boost@@2JB DD 01H ; boost::random::linear_congruential<long,40014,0,2147483563,0>::min_value
CONST	ENDS
;	COMDAT ?has_fixed_range@?$linear_congruential@J$0JMEO@$0A@$0HPPPPPKL@$0A@@random@boost@@2_NB
CONST	SEGMENT
?has_fixed_range@?$linear_congruential@J$0JMEO@$0A@$0HPPPPPKL@$0A@@random@boost@@2_NB DB 01H ; boost::random::linear_congruential<long,40014,0,2147483563,0>::has_fixed_range
CONST	ENDS
;	COMDAT ?modulus@?$linear_congruential@_K$0FNOOMOGGN@$0L@$0BAAAAAAAAAAAA@$0A@@random@boost@@2_KB
CONST	SEGMENT
?modulus@?$linear_congruential@_K$0FNOOMOGGN@$0L@$0BAAAAAAAAAAAA@$0A@@random@boost@@2_KB DQ 0001000000000000H ; boost::random::linear_congruential<unsigned __int64,25214903917,11,281474976710656,0>::modulus
CONST	ENDS
;	COMDAT ?increment@?$linear_congruential@_K$0FNOOMOGGN@$0L@$0BAAAAAAAAAAAA@$0A@@random@boost@@2_KB
CONST	SEGMENT
?increment@?$linear_congruential@_K$0FNOOMOGGN@$0L@$0BAAAAAAAAAAAA@$0A@@random@boost@@2_KB DQ 000000000000000bH ; boost::random::linear_congruential<unsigned __int64,25214903917,11,281474976710656,0>::increment
CONST	ENDS
;	COMDAT ?multiplier@?$linear_congruential@_K$0FNOOMOGGN@$0L@$0BAAAAAAAAAAAA@$0A@@random@boost@@2_KB
CONST	SEGMENT
?multiplier@?$linear_congruential@_K$0FNOOMOGGN@$0L@$0BAAAAAAAAAAAA@$0A@@random@boost@@2_KB DQ 00000005deece66dH ; boost::random::linear_congruential<unsigned __int64,25214903917,11,281474976710656,0>::multiplier
CONST	ENDS
;	COMDAT ?max_value@?$linear_congruential@_K$0FNOOMOGGN@$0L@$0BAAAAAAAAAAAA@$0A@@random@boost@@2_KB
CONST	SEGMENT
?max_value@?$linear_congruential@_K$0FNOOMOGGN@$0L@$0BAAAAAAAAAAAA@$0A@@random@boost@@2_KB DQ 0000ffffffffffffH ; boost::random::linear_congruential<unsigned __int64,25214903917,11,281474976710656,0>::max_value
CONST	ENDS
;	COMDAT ?min_value@?$linear_congruential@_K$0FNOOMOGGN@$0L@$0BAAAAAAAAAAAA@$0A@@random@boost@@2_KB
CONST	SEGMENT
?min_value@?$linear_congruential@_K$0FNOOMOGGN@$0L@$0BAAAAAAAAAAAA@$0A@@random@boost@@2_KB DQ 0000000000000000H ; boost::random::linear_congruential<unsigned __int64,25214903917,11,281474976710656,0>::min_value
CONST	ENDS
;	COMDAT ?has_fixed_range@?$linear_congruential@_K$0FNOOMOGGN@$0L@$0BAAAAAAAAAAAA@$0A@@random@boost@@2_NB
CONST	SEGMENT
?has_fixed_range@?$linear_congruential@_K$0FNOOMOGGN@$0L@$0BAAAAAAAAAAAA@$0A@@random@boost@@2_NB DB 01H ; boost::random::linear_congruential<unsigned __int64,25214903917,11,281474976710656,0>::has_fixed_range
CONST	ENDS
;	COMDAT ?max_value@rand48@boost@@2JB
CONST	SEGMENT
?max_value@rand48@boost@@2JB DD 07fffffffH		; boost::rand48::max_value
CONST	ENDS
;	COMDAT ?min_value@rand48@boost@@2JB
CONST	SEGMENT
?min_value@rand48@boost@@2JB DD 00H			; boost::rand48::min_value
CONST	ENDS
;	COMDAT ?has_fixed_range@rand48@boost@@2_NB
CONST	SEGMENT
?has_fixed_range@rand48@boost@@2_NB DB 01H		; boost::rand48::has_fixed_range
CONST	ENDS
;	COMDAT ?const_max@?$integer_traits_base@_K$0A@$0?0@detail@boost@@2_KB
CONST	SEGMENT
?const_max@?$integer_traits_base@_K$0A@$0?0@detail@boost@@2_KB DQ ffffffffffffffffH ; boost::detail::integer_traits_base<unsigned __int64,0,-1>::const_max
CONST	ENDS
;	COMDAT ?const_min@?$integer_traits_base@_K$0A@$0?0@detail@boost@@2_KB
CONST	SEGMENT
?const_min@?$integer_traits_base@_K$0A@$0?0@detail@boost@@2_KB DQ 0000000000000000H ; boost::detail::integer_traits_base<unsigned __int64,0,-1>::const_min
CONST	ENDS
;	COMDAT ?is_integral@?$integer_traits_base@_K$0A@$0?0@detail@boost@@2_NB
CONST	SEGMENT
?is_integral@?$integer_traits_base@_K$0A@$0?0@detail@boost@@2_NB DB 01H ; boost::detail::integer_traits_base<unsigned __int64,0,-1>::is_integral
CONST	ENDS
;	COMDAT ?const_max@?$integer_traits_base@_J$0?IAAAAAAAAAAAAAAA@$0HPPPPPPPPPPPPPPP@@detail@boost@@2_JB
CONST	SEGMENT
?const_max@?$integer_traits_base@_J$0?IAAAAAAAAAAAAAAA@$0HPPPPPPPPPPPPPPP@@detail@boost@@2_JB DQ 7fffffffffffffffH ; boost::detail::integer_traits_base<__int64,-9223372036854775808,9223372036854775807>::const_max
CONST	ENDS
;	COMDAT ?const_min@?$integer_traits_base@_J$0?IAAAAAAAAAAAAAAA@$0HPPPPPPPPPPPPPPP@@detail@boost@@2_JB
CONST	SEGMENT
?const_min@?$integer_traits_base@_J$0?IAAAAAAAAAAAAAAA@$0HPPPPPPPPPPPPPPP@@detail@boost@@2_JB DQ 8000000000000000H ; boost::detail::integer_traits_base<__int64,-9223372036854775808,9223372036854775807>::const_min
CONST	ENDS
;	COMDAT ?is_integral@?$integer_traits_base@_J$0?IAAAAAAAAAAAAAAA@$0HPPPPPPPPPPPPPPP@@detail@boost@@2_NB
CONST	SEGMENT
?is_integral@?$integer_traits_base@_J$0?IAAAAAAAAAAAAAAA@$0HPPPPPPPPPPPPPPP@@detail@boost@@2_NB DB 01H ; boost::detail::integer_traits_base<__int64,-9223372036854775808,9223372036854775807>::is_integral
CONST	ENDS
;	COMDAT ?const_max@?$integer_traits_base@K$0A@$0PPPPPPPP@@detail@boost@@2KB
CONST	SEGMENT
?const_max@?$integer_traits_base@K$0A@$0PPPPPPPP@@detail@boost@@2KB DD 0ffffffffH ; boost::detail::integer_traits_base<unsigned long,0,4294967295>::const_max
CONST	ENDS
;	COMDAT ?const_min@?$integer_traits_base@K$0A@$0PPPPPPPP@@detail@boost@@2KB
CONST	SEGMENT
?const_min@?$integer_traits_base@K$0A@$0PPPPPPPP@@detail@boost@@2KB DD 00H ; boost::detail::integer_traits_base<unsigned long,0,4294967295>::const_min
CONST	ENDS
;	COMDAT ?is_integral@?$integer_traits_base@K$0A@$0PPPPPPPP@@detail@boost@@2_NB
CONST	SEGMENT
?is_integral@?$integer_traits_base@K$0A@$0PPPPPPPP@@detail@boost@@2_NB DB 01H ; boost::detail::integer_traits_base<unsigned long,0,4294967295>::is_integral
CONST	ENDS
;	COMDAT ?const_max@?$integer_traits_base@J$0?IAAAAAAA@$0HPPPPPPP@@detail@boost@@2JB
CONST	SEGMENT
?const_max@?$integer_traits_base@J$0?IAAAAAAA@$0HPPPPPPP@@detail@boost@@2JB DD 07fffffffH ; boost::detail::integer_traits_base<long,-2147483648,2147483647>::const_max
CONST	ENDS
;	COMDAT ?const_min@?$integer_traits_base@J$0?IAAAAAAA@$0HPPPPPPP@@detail@boost@@2JB
CONST	SEGMENT
?const_min@?$integer_traits_base@J$0?IAAAAAAA@$0HPPPPPPP@@detail@boost@@2JB DD 080000000H ; boost::detail::integer_traits_base<long,-2147483648,2147483647>::const_min
CONST	ENDS
;	COMDAT ?is_integral@?$integer_traits_base@J$0?IAAAAAAA@$0HPPPPPPP@@detail@boost@@2_NB
CONST	SEGMENT
?is_integral@?$integer_traits_base@J$0?IAAAAAAA@$0HPPPPPPP@@detail@boost@@2_NB DB 01H ; boost::detail::integer_traits_base<long,-2147483648,2147483647>::is_integral
CONST	ENDS
;	COMDAT ?const_max@?$integer_traits_base@I$0A@$0PPPPPPPP@@detail@boost@@2IB
CONST	SEGMENT
?const_max@?$integer_traits_base@I$0A@$0PPPPPPPP@@detail@boost@@2IB DD 0ffffffffH ; boost::detail::integer_traits_base<unsigned int,0,4294967295>::const_max
CONST	ENDS
;	COMDAT ?const_min@?$integer_traits_base@I$0A@$0PPPPPPPP@@detail@boost@@2IB
CONST	SEGMENT
?const_min@?$integer_traits_base@I$0A@$0PPPPPPPP@@detail@boost@@2IB DD 00H ; boost::detail::integer_traits_base<unsigned int,0,4294967295>::const_min
CONST	ENDS
;	COMDAT ?is_integral@?$integer_traits_base@I$0A@$0PPPPPPPP@@detail@boost@@2_NB
CONST	SEGMENT
?is_integral@?$integer_traits_base@I$0A@$0PPPPPPPP@@detail@boost@@2_NB DB 01H ; boost::detail::integer_traits_base<unsigned int,0,4294967295>::is_integral
CONST	ENDS
;	COMDAT ?const_max@?$integer_traits_base@H$0?IAAAAAAA@$0HPPPPPPP@@detail@boost@@2HB
CONST	SEGMENT
?const_max@?$integer_traits_base@H$0?IAAAAAAA@$0HPPPPPPP@@detail@boost@@2HB DD 07fffffffH ; boost::detail::integer_traits_base<int,-2147483648,2147483647>::const_max
CONST	ENDS
;	COMDAT ?const_min@?$integer_traits_base@H$0?IAAAAAAA@$0HPPPPPPP@@detail@boost@@2HB
CONST	SEGMENT
?const_min@?$integer_traits_base@H$0?IAAAAAAA@$0HPPPPPPP@@detail@boost@@2HB DD 080000000H ; boost::detail::integer_traits_base<int,-2147483648,2147483647>::const_min
CONST	ENDS
;	COMDAT ?is_integral@?$integer_traits_base@H$0?IAAAAAAA@$0HPPPPPPP@@detail@boost@@2_NB
CONST	SEGMENT
?is_integral@?$integer_traits_base@H$0?IAAAAAAA@$0HPPPPPPP@@detail@boost@@2_NB DB 01H ; boost::detail::integer_traits_base<int,-2147483648,2147483647>::is_integral
CONST	ENDS
;	COMDAT ?const_max@?$integer_traits_base@G$0A@$0PPPP@@detail@boost@@2GB
CONST	SEGMENT
?const_max@?$integer_traits_base@G$0A@$0PPPP@@detail@boost@@2GB DW 0ffffH ; boost::detail::integer_traits_base<unsigned short,0,65535>::const_max
CONST	ENDS
;	COMDAT ?const_min@?$integer_traits_base@G$0A@$0PPPP@@detail@boost@@2GB
CONST	SEGMENT
?const_min@?$integer_traits_base@G$0A@$0PPPP@@detail@boost@@2GB DW 00H ; boost::detail::integer_traits_base<unsigned short,0,65535>::const_min
CONST	ENDS
;	COMDAT ?is_integral@?$integer_traits_base@G$0A@$0PPPP@@detail@boost@@2_NB
CONST	SEGMENT
?is_integral@?$integer_traits_base@G$0A@$0PPPP@@detail@boost@@2_NB DB 01H ; boost::detail::integer_traits_base<unsigned short,0,65535>::is_integral
CONST	ENDS
;	COMDAT ?const_max@?$integer_traits_base@F$0?IAAA@$0HPPP@@detail@boost@@2FB
CONST	SEGMENT
?const_max@?$integer_traits_base@F$0?IAAA@$0HPPP@@detail@boost@@2FB DW 07fffH ; boost::detail::integer_traits_base<short,-32768,32767>::const_max
CONST	ENDS
;	COMDAT ?const_min@?$integer_traits_base@F$0?IAAA@$0HPPP@@detail@boost@@2FB
CONST	SEGMENT
?const_min@?$integer_traits_base@F$0?IAAA@$0HPPP@@detail@boost@@2FB DW 08000H ; boost::detail::integer_traits_base<short,-32768,32767>::const_min
CONST	ENDS
;	COMDAT ?is_integral@?$integer_traits_base@F$0?IAAA@$0HPPP@@detail@boost@@2_NB
CONST	SEGMENT
?is_integral@?$integer_traits_base@F$0?IAAA@$0HPPP@@detail@boost@@2_NB DB 01H ; boost::detail::integer_traits_base<short,-32768,32767>::is_integral
CONST	ENDS
;	COMDAT ?const_max@?$integer_traits_base@_W$0A@$0PPPP@@detail@boost@@2_WB
CONST	SEGMENT
?const_max@?$integer_traits_base@_W$0A@$0PPPP@@detail@boost@@2_WB DW 0ffffH ; boost::detail::integer_traits_base<wchar_t,0,65535>::const_max
CONST	ENDS
;	COMDAT ?const_min@?$integer_traits_base@_W$0A@$0PPPP@@detail@boost@@2_WB
CONST	SEGMENT
?const_min@?$integer_traits_base@_W$0A@$0PPPP@@detail@boost@@2_WB DW 00H ; boost::detail::integer_traits_base<wchar_t,0,65535>::const_min
CONST	ENDS
;	COMDAT ?is_integral@?$integer_traits_base@_W$0A@$0PPPP@@detail@boost@@2_NB
CONST	SEGMENT
?is_integral@?$integer_traits_base@_W$0A@$0PPPP@@detail@boost@@2_NB DB 01H ; boost::detail::integer_traits_base<wchar_t,0,65535>::is_integral
CONST	ENDS
;	COMDAT ?const_max@?$integer_traits_base@E$0A@$0PP@@detail@boost@@2EB
CONST	SEGMENT
?const_max@?$integer_traits_base@E$0A@$0PP@@detail@boost@@2EB DB 0ffH ; boost::detail::integer_traits_base<unsigned char,0,255>::const_max
CONST	ENDS
;	COMDAT ?const_min@?$integer_traits_base@E$0A@$0PP@@detail@boost@@2EB
CONST	SEGMENT
?const_min@?$integer_traits_base@E$0A@$0PP@@detail@boost@@2EB DB 00H ; boost::detail::integer_traits_base<unsigned char,0,255>::const_min
CONST	ENDS
;	COMDAT ?is_integral@?$integer_traits_base@E$0A@$0PP@@detail@boost@@2_NB
CONST	SEGMENT
?is_integral@?$integer_traits_base@E$0A@$0PP@@detail@boost@@2_NB DB 01H ; boost::detail::integer_traits_base<unsigned char,0,255>::is_integral
CONST	ENDS
;	COMDAT ?const_max@?$integer_traits_base@C$0?IA@$0HP@@detail@boost@@2CB
CONST	SEGMENT
?const_max@?$integer_traits_base@C$0?IA@$0HP@@detail@boost@@2CB DB 07fH ; boost::detail::integer_traits_base<signed char,-128,127>::const_max
CONST	ENDS
;	COMDAT ?const_min@?$integer_traits_base@C$0?IA@$0HP@@detail@boost@@2CB
CONST	SEGMENT
?const_min@?$integer_traits_base@C$0?IA@$0HP@@detail@boost@@2CB DB 080H ; boost::detail::integer_traits_base<signed char,-128,127>::const_min
CONST	ENDS
;	COMDAT ?is_integral@?$integer_traits_base@C$0?IA@$0HP@@detail@boost@@2_NB
CONST	SEGMENT
?is_integral@?$integer_traits_base@C$0?IA@$0HP@@detail@boost@@2_NB DB 01H ; boost::detail::integer_traits_base<signed char,-128,127>::is_integral
CONST	ENDS
;	COMDAT ?const_max@?$integer_traits_base@D$0?IA@$0HP@@detail@boost@@2DB
CONST	SEGMENT
?const_max@?$integer_traits_base@D$0?IA@$0HP@@detail@boost@@2DB DB 07fH ; boost::detail::integer_traits_base<char,-128,127>::const_max
CONST	ENDS
;	COMDAT ?const_min@?$integer_traits_base@D$0?IA@$0HP@@detail@boost@@2DB
CONST	SEGMENT
?const_min@?$integer_traits_base@D$0?IA@$0HP@@detail@boost@@2DB DB 080H ; boost::detail::integer_traits_base<char,-128,127>::const_min
CONST	ENDS
;	COMDAT ?is_integral@?$integer_traits_base@D$0?IA@$0HP@@detail@boost@@2_NB
CONST	SEGMENT
?is_integral@?$integer_traits_base@D$0?IA@$0HP@@detail@boost@@2_NB DB 01H ; boost::detail::integer_traits_base<char,-128,127>::is_integral
CONST	ENDS
;	COMDAT ?const_max@?$integer_traits_base@_N$0A@$00@detail@boost@@2_NB
CONST	SEGMENT
?const_max@?$integer_traits_base@_N$0A@$00@detail@boost@@2_NB DB 01H ; boost::detail::integer_traits_base<bool,0,1>::const_max
CONST	ENDS
;	COMDAT ?const_min@?$integer_traits_base@_N$0A@$00@detail@boost@@2_NB
CONST	SEGMENT
?const_min@?$integer_traits_base@_N$0A@$00@detail@boost@@2_NB DB 00H ; boost::detail::integer_traits_base<bool,0,1>::const_min
CONST	ENDS
;	COMDAT ?is_integral@?$integer_traits_base@_N$0A@$00@detail@boost@@2_NB
CONST	SEGMENT
?is_integral@?$integer_traits_base@_N$0A@$00@detail@boost@@2_NB DB 01H ; boost::detail::integer_traits_base<bool,0,1>::is_integral
CONST	ENDS
;	COMDAT ?end@?$_Iosb@H@std@@2W4_Seekdir@12@B
CONST	SEGMENT
?end@?$_Iosb@H@std@@2W4_Seekdir@12@B DD 02H		; std::_Iosb<int>::end
CONST	ENDS
;	COMDAT ?cur@?$_Iosb@H@std@@2W4_Seekdir@12@B
CONST	SEGMENT
?cur@?$_Iosb@H@std@@2W4_Seekdir@12@B DD 01H		; std::_Iosb<int>::cur
CONST	ENDS
;	COMDAT ?beg@?$_Iosb@H@std@@2W4_Seekdir@12@B
CONST	SEGMENT
?beg@?$_Iosb@H@std@@2W4_Seekdir@12@B DD 00H		; std::_Iosb<int>::beg
CONST	ENDS
;	COMDAT ?binary@?$_Iosb@H@std@@2W4_Openmode@12@B
CONST	SEGMENT
?binary@?$_Iosb@H@std@@2W4_Openmode@12@B DD 020H	; std::_Iosb<int>::binary
CONST	ENDS
;	COMDAT ?_Noreplace@?$_Iosb@H@std@@2W4_Openmode@12@B
CONST	SEGMENT
?_Noreplace@?$_Iosb@H@std@@2W4_Openmode@12@B DD 080H	; std::_Iosb<int>::_Noreplace
CONST	ENDS
;	COMDAT ?_Nocreate@?$_Iosb@H@std@@2W4_Openmode@12@B
CONST	SEGMENT
?_Nocreate@?$_Iosb@H@std@@2W4_Openmode@12@B DD 040H	; std::_Iosb<int>::_Nocreate
CONST	ENDS
;	COMDAT ?trunc@?$_Iosb@H@std@@2W4_Openmode@12@B
CONST	SEGMENT
?trunc@?$_Iosb@H@std@@2W4_Openmode@12@B DD 010H		; std::_Iosb<int>::trunc
CONST	ENDS
;	COMDAT ?app@?$_Iosb@H@std@@2W4_Openmode@12@B
CONST	SEGMENT
?app@?$_Iosb@H@std@@2W4_Openmode@12@B DD 08H		; std::_Iosb<int>::app
CONST	ENDS
;	COMDAT ?ate@?$_Iosb@H@std@@2W4_Openmode@12@B
CONST	SEGMENT
?ate@?$_Iosb@H@std@@2W4_Openmode@12@B DD 04H		; std::_Iosb<int>::ate
CONST	ENDS
;	COMDAT ?out@?$_Iosb@H@std@@2W4_Openmode@12@B
CONST	SEGMENT
?out@?$_Iosb@H@std@@2W4_Openmode@12@B DD 02H		; std::_Iosb<int>::out
CONST	ENDS
;	COMDAT ?in@?$_Iosb@H@std@@2W4_Openmode@12@B
CONST	SEGMENT
?in@?$_Iosb@H@std@@2W4_Openmode@12@B DD 01H		; std::_Iosb<int>::in
CONST	ENDS
;	COMDAT ?_Hardfail@?$_Iosb@H@std@@2W4_Iostate@12@B
CONST	SEGMENT
?_Hardfail@?$_Iosb@H@std@@2W4_Iostate@12@B DD 010H	; std::_Iosb<int>::_Hardfail
CONST	ENDS
;	COMDAT ?badbit@?$_Iosb@H@std@@2W4_Iostate@12@B
CONST	SEGMENT
?badbit@?$_Iosb@H@std@@2W4_Iostate@12@B DD 04H		; std::_Iosb<int>::badbit
CONST	ENDS
;	COMDAT ?failbit@?$_Iosb@H@std@@2W4_Iostate@12@B
CONST	SEGMENT
?failbit@?$_Iosb@H@std@@2W4_Iostate@12@B DD 02H		; std::_Iosb<int>::failbit
CONST	ENDS
;	COMDAT ?eofbit@?$_Iosb@H@std@@2W4_Iostate@12@B
CONST	SEGMENT
?eofbit@?$_Iosb@H@std@@2W4_Iostate@12@B DD 01H		; std::_Iosb<int>::eofbit
CONST	ENDS
;	COMDAT ?goodbit@?$_Iosb@H@std@@2W4_Iostate@12@B
CONST	SEGMENT
?goodbit@?$_Iosb@H@std@@2W4_Iostate@12@B DD 00H		; std::_Iosb<int>::goodbit
CONST	ENDS
;	COMDAT ?floatfield@?$_Iosb@H@std@@2W4_Fmtflags@12@B
CONST	SEGMENT
?floatfield@?$_Iosb@H@std@@2W4_Fmtflags@12@B DD 03000H	; std::_Iosb<int>::floatfield
CONST	ENDS
;	COMDAT ?basefield@?$_Iosb@H@std@@2W4_Fmtflags@12@B
CONST	SEGMENT
?basefield@?$_Iosb@H@std@@2W4_Fmtflags@12@B DD 0e00H	; std::_Iosb<int>::basefield
CONST	ENDS
;	COMDAT ?adjustfield@?$_Iosb@H@std@@2W4_Fmtflags@12@B
CONST	SEGMENT
?adjustfield@?$_Iosb@H@std@@2W4_Fmtflags@12@B DD 01c0H	; std::_Iosb<int>::adjustfield
CONST	ENDS
;	COMDAT ?_Stdio@?$_Iosb@H@std@@2W4_Fmtflags@12@B
CONST	SEGMENT
?_Stdio@?$_Iosb@H@std@@2W4_Fmtflags@12@B DD 08000H	; std::_Iosb<int>::_Stdio
CONST	ENDS
;	COMDAT ?boolalpha@?$_Iosb@H@std@@2W4_Fmtflags@12@B
CONST	SEGMENT
?boolalpha@?$_Iosb@H@std@@2W4_Fmtflags@12@B DD 04000H	; std::_Iosb<int>::boolalpha
CONST	ENDS
;	COMDAT ?hexfloat@?$_Iosb@H@std@@2W4_Fmtflags@12@B
CONST	SEGMENT
?hexfloat@?$_Iosb@H@std@@2W4_Fmtflags@12@B DD 03000H	; std::_Iosb<int>::hexfloat
CONST	ENDS
;	COMDAT ?fixed@?$_Iosb@H@std@@2W4_Fmtflags@12@B
CONST	SEGMENT
?fixed@?$_Iosb@H@std@@2W4_Fmtflags@12@B DD 02000H	; std::_Iosb<int>::fixed
CONST	ENDS
;	COMDAT ?scientific@?$_Iosb@H@std@@2W4_Fmtflags@12@B
CONST	SEGMENT
?scientific@?$_Iosb@H@std@@2W4_Fmtflags@12@B DD 01000H	; std::_Iosb<int>::scientific
CONST	ENDS
;	COMDAT ?hex@?$_Iosb@H@std@@2W4_Fmtflags@12@B
CONST	SEGMENT
?hex@?$_Iosb@H@std@@2W4_Fmtflags@12@B DD 0800H		; std::_Iosb<int>::hex
CONST	ENDS
;	COMDAT ?oct@?$_Iosb@H@std@@2W4_Fmtflags@12@B
CONST	SEGMENT
?oct@?$_Iosb@H@std@@2W4_Fmtflags@12@B DD 0400H		; std::_Iosb<int>::oct
CONST	ENDS
;	COMDAT ?dec@?$_Iosb@H@std@@2W4_Fmtflags@12@B
CONST	SEGMENT
?dec@?$_Iosb@H@std@@2W4_Fmtflags@12@B DD 0200H		; std::_Iosb<int>::dec
CONST	ENDS
;	COMDAT ?internal@?$_Iosb@H@std@@2W4_Fmtflags@12@B
CONST	SEGMENT
?internal@?$_Iosb@H@std@@2W4_Fmtflags@12@B DD 0100H	; std::_Iosb<int>::internal
CONST	ENDS
;	COMDAT ?right@?$_Iosb@H@std@@2W4_Fmtflags@12@B
CONST	SEGMENT
?right@?$_Iosb@H@std@@2W4_Fmtflags@12@B DD 080H		; std::_Iosb<int>::right
CONST	ENDS
;	COMDAT ?left@?$_Iosb@H@std@@2W4_Fmtflags@12@B
CONST	SEGMENT
?left@?$_Iosb@H@std@@2W4_Fmtflags@12@B DD 040H		; std::_Iosb<int>::left
CONST	ENDS
;	COMDAT ?showpos@?$_Iosb@H@std@@2W4_Fmtflags@12@B
CONST	SEGMENT
?showpos@?$_Iosb@H@std@@2W4_Fmtflags@12@B DD 020H	; std::_Iosb<int>::showpos
CONST	ENDS
;	COMDAT ?showpoint@?$_Iosb@H@std@@2W4_Fmtflags@12@B
CONST	SEGMENT
?showpoint@?$_Iosb@H@std@@2W4_Fmtflags@12@B DD 010H	; std::_Iosb<int>::showpoint
CONST	ENDS
;	COMDAT ?showbase@?$_Iosb@H@std@@2W4_Fmtflags@12@B
CONST	SEGMENT
?showbase@?$_Iosb@H@std@@2W4_Fmtflags@12@B DD 08H	; std::_Iosb<int>::showbase
CONST	ENDS
;	COMDAT ?uppercase@?$_Iosb@H@std@@2W4_Fmtflags@12@B
CONST	SEGMENT
?uppercase@?$_Iosb@H@std@@2W4_Fmtflags@12@B DD 04H	; std::_Iosb<int>::uppercase
CONST	ENDS
;	COMDAT ?unitbuf@?$_Iosb@H@std@@2W4_Fmtflags@12@B
CONST	SEGMENT
?unitbuf@?$_Iosb@H@std@@2W4_Fmtflags@12@B DD 02H	; std::_Iosb<int>::unitbuf
CONST	ENDS
;	COMDAT ?skipws@?$_Iosb@H@std@@2W4_Fmtflags@12@B
CONST	SEGMENT
?skipws@?$_Iosb@H@std@@2W4_Fmtflags@12@B DD 01H		; std::_Iosb<int>::skipws
CONST	ENDS
;	COMDAT ?none@?$_Locbase@H@std@@2HB
CONST	SEGMENT
?none@?$_Locbase@H@std@@2HB DD 00H			; std::_Locbase<int>::none
CONST	ENDS
;	COMDAT ?all@?$_Locbase@H@std@@2HB
CONST	SEGMENT
?all@?$_Locbase@H@std@@2HB DD 03fH			; std::_Locbase<int>::all
CONST	ENDS
;	COMDAT ?messages@?$_Locbase@H@std@@2HB
CONST	SEGMENT
?messages@?$_Locbase@H@std@@2HB DD 020H			; std::_Locbase<int>::messages
CONST	ENDS
;	COMDAT ?time@?$_Locbase@H@std@@2HB
CONST	SEGMENT
?time@?$_Locbase@H@std@@2HB DD 010H			; std::_Locbase<int>::time
CONST	ENDS
;	COMDAT ?numeric@?$_Locbase@H@std@@2HB
CONST	SEGMENT
?numeric@?$_Locbase@H@std@@2HB DD 08H			; std::_Locbase<int>::numeric
CONST	ENDS
;	COMDAT ?monetary@?$_Locbase@H@std@@2HB
CONST	SEGMENT
?monetary@?$_Locbase@H@std@@2HB DD 04H			; std::_Locbase<int>::monetary
CONST	ENDS
;	COMDAT ?ctype@?$_Locbase@H@std@@2HB
CONST	SEGMENT
?ctype@?$_Locbase@H@std@@2HB DD 02H			; std::_Locbase<int>::ctype
CONST	ENDS
;	COMDAT ?collate@?$_Locbase@H@std@@2HB
CONST	SEGMENT
?collate@?$_Locbase@H@std@@2HB DD 01H			; std::_Locbase<int>::collate
CONST	ENDS
;	COMDAT ?_Value@?$_Is_swap_move@U_Swap_move_tag@std@@@std@@2_NB
CONST	SEGMENT
?_Value@?$_Is_swap_move@U_Swap_move_tag@std@@@std@@2_NB DB 01H ; std::_Is_swap_move<std::_Swap_move_tag>::_Value
CONST	ENDS
_DATA	SEGMENT
__bad_alloc_Message DD FLAT:??_C@_0P@GHFPNOJB@bad?5allocation?$AA@
_DATA	ENDS
;	COMDAT ??_C@_0P@GHFPNOJB@bad?5allocation?$AA@
CONST	SEGMENT
??_C@_0P@GHFPNOJB@bad?5allocation?$AA@ DB 'bad allocation', 00H ; `string'
CONST	ENDS
PUBLIC	__real@bf800000
PUBLIC	__real@40000000
PUBLIC	??_C@_00CNPNBAHC@?$AA@				; `string'
PUBLIC	??0Settings@DRAMsimII@@QAE@XZ			; DRAMsimII::Settings::Settings
EXTRN	__imp_??1?$basic_string@DU?$char_traits@D@std@@V?$allocator@D@2@@std@@QAE@XZ:PROC
EXTRN	__imp_??0?$basic_string@DU?$char_traits@D@std@@V?$allocator@D@2@@std@@QAE@PBD@Z:PROC
EXTRN	___security_cookie:DWORD
EXTRN	___CxxFrameHandler3:PROC
EXTRN	@__security_check_cookie@4:PROC
EXTRN	__fltused:DWORD
EXTRN	__RTC_CheckEsp:PROC
EXTRN	__RTC_Shutdown:PROC
EXTRN	__RTC_InitBase:PROC
;	COMDAT __real@bf800000
; File c:\users\crius\documents\visual studio 2008\projects\dramsimiihg\src\settings.cpp
CONST	SEGMENT
__real@bf800000 DD 0bf800000r			; -1
CONST	ENDS
;	COMDAT __real@40000000
CONST	SEGMENT
__real@40000000 DD 040000000r			; 2
CONST	ENDS
;	COMDAT ??_C@_00CNPNBAHC@?$AA@
CONST	SEGMENT
??_C@_00CNPNBAHC@?$AA@ DB 00H				; `string'
CONST	ENDS
;	COMDAT xdata$x
xdata$x	SEGMENT
__ehfuncinfo$??0Settings@DRAMsimII@@QAE@XZ DD 019930522H
	DD	05H
	DD	FLAT:__unwindtable$??0Settings@DRAMsimII@@QAE@XZ
	DD	2 DUP(00H)
	DD	2 DUP(00H)
	DD	00H
	DD	01H
__unwindtable$??0Settings@DRAMsimII@@QAE@XZ DD 0ffffffffH
	DD	FLAT:__unwindfunclet$??0Settings@DRAMsimII@@QAE@XZ$0
	DD	00H
	DD	FLAT:__unwindfunclet$??0Settings@DRAMsimII@@QAE@XZ$1
	DD	01H
	DD	FLAT:__unwindfunclet$??0Settings@DRAMsimII@@QAE@XZ$2
	DD	02H
	DD	FLAT:__unwindfunclet$??0Settings@DRAMsimII@@QAE@XZ$3
	DD	03H
	DD	FLAT:__unwindfunclet$??0Settings@DRAMsimII@@QAE@XZ$4
xdata$x	ENDS
;	COMDAT rtc$TMZ
rtc$TMZ	SEGMENT
__RTC_Shutdown.rtc$TMZ DD FLAT:__RTC_Shutdown
rtc$TMZ	ENDS
;	COMDAT rtc$IMZ
rtc$IMZ	SEGMENT
__RTC_InitBase.rtc$IMZ DD FLAT:__RTC_InitBase
; Function compile flags: /Odtp /RTCcsu /ZI
rtc$IMZ	ENDS
;	COMDAT ??0Settings@DRAMsimII@@QAE@XZ
_TEXT	SEGMENT
_this$ = -20						; size = 4
__$EHRec$ = -12						; size = 12
??0Settings@DRAMsimII@@QAE@XZ PROC			; DRAMsimII::Settings::Settings, COMDAT
; _this$ = ecx

; 132  : {}

	push	ebp
	mov	ebp, esp
	push	-1
	push	__ehhandler$??0Settings@DRAMsimII@@QAE@XZ
	mov	eax, DWORD PTR fs:0
	push	eax
	sub	esp, 204				; 000000ccH
	push	ebx
	push	esi
	push	edi
	push	ecx
	lea	edi, DWORD PTR [ebp-216]
	mov	ecx, 51					; 00000033H
	mov	eax, -858993460				; ccccccccH
	rep stosd
	pop	ecx
	mov	eax, DWORD PTR ___security_cookie
	xor	eax, ebp
	push	eax
	lea	eax, DWORD PTR __$EHRec$[ebp]
	mov	DWORD PTR fs:0, eax
	mov	DWORD PTR _this$[ebp], ecx
	mov	esi, esp
	push	OFFSET ??_C@_00CNPNBAHC@?$AA@
	mov	ecx, DWORD PTR _this$[ebp]
	call	DWORD PTR __imp_??0?$basic_string@DU?$char_traits@D@std@@V?$allocator@D@2@@std@@QAE@PBD@Z
	cmp	esi, esp
	call	__RTC_CheckEsp
	mov	DWORD PTR __$EHRec$[ebp+8], 0
	mov	eax, DWORD PTR _this$[ebp]
	mov	DWORD PTR [eax+32], -1
	mov	esi, esp
	push	OFFSET ??_C@_00CNPNBAHC@?$AA@
	mov	ecx, DWORD PTR _this$[ebp]
	add	ecx, 36					; 00000024H
	call	DWORD PTR __imp_??0?$basic_string@DU?$char_traits@D@std@@V?$allocator@D@2@@std@@QAE@PBD@Z
	cmp	esi, esp
	call	__RTC_CheckEsp
	mov	BYTE PTR __$EHRec$[ebp+8], 1
	mov	esi, esp
	push	OFFSET ??_C@_00CNPNBAHC@?$AA@
	mov	ecx, DWORD PTR _this$[ebp]
	add	ecx, 68					; 00000044H
	call	DWORD PTR __imp_??0?$basic_string@DU?$char_traits@D@std@@V?$allocator@D@2@@std@@QAE@PBD@Z
	cmp	esi, esp
	call	__RTC_CheckEsp
	mov	BYTE PTR __$EHRec$[ebp+8], 2
	mov	eax, DWORD PTR _this$[ebp]
	mov	DWORD PTR [eax+100], 3
	mov	eax, DWORD PTR _this$[ebp]
	mov	DWORD PTR [eax+104], 1
	mov	esi, esp
	push	OFFSET ??_C@_00CNPNBAHC@?$AA@
	mov	ecx, DWORD PTR _this$[ebp]
	add	ecx, 108				; 0000006cH
	call	DWORD PTR __imp_??0?$basic_string@DU?$char_traits@D@std@@V?$allocator@D@2@@std@@QAE@PBD@Z
	cmp	esi, esp
	call	__RTC_CheckEsp
	mov	BYTE PTR __$EHRec$[ebp+8], 3
	mov	esi, esp
	push	OFFSET ??_C@_00CNPNBAHC@?$AA@
	mov	ecx, DWORD PTR _this$[ebp]
	add	ecx, 140				; 0000008cH
	call	DWORD PTR __imp_??0?$basic_string@DU?$char_traits@D@std@@V?$allocator@D@2@@std@@QAE@PBD@Z
	cmp	esi, esp
	call	__RTC_CheckEsp
	mov	BYTE PTR __$EHRec$[ebp+8], 4
	mov	esi, esp
	push	OFFSET ??_C@_00CNPNBAHC@?$AA@
	mov	ecx, DWORD PTR _this$[ebp]
	add	ecx, 172				; 000000acH
	call	DWORD PTR __imp_??0?$basic_string@DU?$char_traits@D@std@@V?$allocator@D@2@@std@@QAE@PBD@Z
	cmp	esi, esp
	call	__RTC_CheckEsp
	mov	eax, DWORD PTR _this$[ebp]
	mov	DWORD PTR [eax+204], 2
	mov	eax, DWORD PTR _this$[ebp]
	mov	DWORD PTR [eax+208], -1
	mov	DWORD PTR [eax+212], 0
	mov	eax, DWORD PTR _this$[ebp]
	mov	DWORD PTR [eax+216], -1
	mov	eax, DWORD PTR _this$[ebp]
	mov	DWORD PTR [eax+220], 0
	mov	eax, DWORD PTR _this$[ebp]
	mov	DWORD PTR [eax+224], 0
	mov	eax, DWORD PTR _this$[ebp]
	mov	DWORD PTR [eax+228], 800000000		; 2faf0800H
	mov	eax, DWORD PTR _this$[ebp]
	mov	DWORD PTR [eax+232], 0
	mov	eax, DWORD PTR _this$[ebp]
	mov	DWORD PTR [eax+236], 1
	mov	eax, DWORD PTR _this$[ebp]
	mov	DWORD PTR [eax+240], 0
	mov	eax, DWORD PTR _this$[ebp]
	mov	DWORD PTR [eax+244], 0
	mov	eax, DWORD PTR _this$[ebp]
	mov	DWORD PTR [eax+248], 0
	mov	eax, DWORD PTR _this$[ebp]
	mov	DWORD PTR [eax+252], 0
	mov	eax, DWORD PTR _this$[ebp]
	mov	DWORD PTR [eax+256], 0
	mov	eax, DWORD PTR _this$[ebp]
	mov	DWORD PTR [eax+260], 0
	mov	eax, DWORD PTR _this$[ebp]
	mov	DWORD PTR [eax+264], 0
	mov	eax, DWORD PTR _this$[ebp]
	mov	DWORD PTR [eax+268], 0
	mov	eax, DWORD PTR _this$[ebp]
	mov	DWORD PTR [eax+272], 0
	mov	eax, DWORD PTR _this$[ebp]
	mov	DWORD PTR [eax+276], 0
	mov	eax, DWORD PTR _this$[ebp]
	mov	DWORD PTR [eax+280], 0
	mov	eax, DWORD PTR _this$[ebp]
	mov	DWORD PTR [eax+284], 0
	mov	eax, DWORD PTR _this$[ebp]
	mov	DWORD PTR [eax+288], 0
	mov	eax, DWORD PTR _this$[ebp]
	mov	DWORD PTR [eax+292], 0
	mov	eax, DWORD PTR _this$[ebp]
	mov	DWORD PTR [eax+296], 0
	mov	eax, DWORD PTR _this$[ebp]
	mov	DWORD PTR [eax+300], -1
	mov	eax, DWORD PTR _this$[ebp]
	mov	DWORD PTR [eax+304], 1
	mov	eax, DWORD PTR _this$[ebp]
	mov	DWORD PTR [eax+308], 7
	mov	eax, DWORD PTR _this$[ebp]
	mov	BYTE PTR [eax+312], 0
	mov	eax, DWORD PTR _this$[ebp]
	mov	BYTE PTR [eax+313], 1
	mov	eax, DWORD PTR _this$[ebp]
	mov	BYTE PTR [eax+314], 0
	mov	eax, DWORD PTR _this$[ebp]
	mov	BYTE PTR [eax+315], 0
	mov	eax, DWORD PTR _this$[ebp]
	mov	DWORD PTR [eax+316], 0
	mov	eax, DWORD PTR _this$[ebp]
	mov	DWORD PTR [eax+320], 0
	mov	eax, DWORD PTR _this$[ebp]
	mov	DWORD PTR [eax+324], 0
	mov	eax, DWORD PTR _this$[ebp]
	mov	DWORD PTR [eax+328], 0
	mov	eax, DWORD PTR _this$[ebp]
	mov	DWORD PTR [eax+332], 0
	mov	eax, DWORD PTR _this$[ebp]
	fld	DWORD PTR __real@40000000
	fstp	DWORD PTR [eax+336]
	mov	eax, DWORD PTR _this$[ebp]
	fld	DWORD PTR __real@40000000
	fstp	DWORD PTR [eax+340]
	mov	eax, DWORD PTR _this$[ebp]
	mov	DWORD PTR [eax+344], -1
	mov	eax, DWORD PTR _this$[ebp]
	mov	DWORD PTR [eax+348], -1
	mov	eax, DWORD PTR _this$[ebp]
	mov	DWORD PTR [eax+352], -1
	mov	eax, DWORD PTR _this$[ebp]
	mov	DWORD PTR [eax+356], -1
	mov	eax, DWORD PTR _this$[ebp]
	mov	DWORD PTR [eax+360], -1
	mov	eax, DWORD PTR _this$[ebp]
	mov	DWORD PTR [eax+364], -1
	mov	eax, DWORD PTR _this$[ebp]
	mov	DWORD PTR [eax+368], -1
	mov	eax, DWORD PTR _this$[ebp]
	mov	DWORD PTR [eax+372], -1
	mov	eax, DWORD PTR _this$[ebp]
	mov	DWORD PTR [eax+376], -1
	mov	eax, DWORD PTR _this$[ebp]
	mov	DWORD PTR [eax+380], -1
	mov	eax, DWORD PTR _this$[ebp]
	mov	DWORD PTR [eax+384], -1
	mov	eax, DWORD PTR _this$[ebp]
	mov	DWORD PTR [eax+388], -1
	mov	eax, DWORD PTR _this$[ebp]
	mov	DWORD PTR [eax+392], -1
	mov	eax, DWORD PTR _this$[ebp]
	mov	DWORD PTR [eax+396], -1
	mov	eax, DWORD PTR _this$[ebp]
	mov	DWORD PTR [eax+400], -1
	mov	eax, DWORD PTR _this$[ebp]
	mov	DWORD PTR [eax+404], -1
	mov	eax, DWORD PTR _this$[ebp]
	mov	DWORD PTR [eax+408], -1
	mov	eax, DWORD PTR _this$[ebp]
	mov	DWORD PTR [eax+412], -1
	mov	eax, DWORD PTR _this$[ebp]
	mov	DWORD PTR [eax+416], -1
	mov	eax, DWORD PTR _this$[ebp]
	fld	DWORD PTR __real@bf800000
	fstp	DWORD PTR [eax+420]
	mov	eax, DWORD PTR _this$[ebp]
	fld	DWORD PTR __real@bf800000
	fstp	DWORD PTR [eax+424]
	mov	eax, DWORD PTR _this$[ebp]
	fld	DWORD PTR __real@bf800000
	fstp	DWORD PTR [eax+428]
	mov	eax, DWORD PTR _this$[ebp]
	fld	DWORD PTR __real@bf800000
	fstp	DWORD PTR [eax+432]
	mov	eax, DWORD PTR _this$[ebp]
	fld	DWORD PTR __real@bf800000
	fstp	DWORD PTR [eax+436]
	mov	eax, DWORD PTR _this$[ebp]
	mov	DWORD PTR [eax+440], -1
	mov	eax, DWORD PTR _this$[ebp]
	mov	DWORD PTR [eax+444], -1
	mov	eax, DWORD PTR _this$[ebp]
	mov	DWORD PTR [eax+448], -1
	mov	eax, DWORD PTR _this$[ebp]
	mov	DWORD PTR [eax+452], -1
	mov	eax, DWORD PTR _this$[ebp]
	fld	DWORD PTR __real@bf800000
	fstp	DWORD PTR [eax+456]
	mov	eax, DWORD PTR _this$[ebp]
	fld	DWORD PTR __real@bf800000
	fstp	DWORD PTR [eax+460]
	mov	eax, DWORD PTR _this$[ebp]
	mov	DWORD PTR [eax+464], -1
	mov	eax, DWORD PTR _this$[ebp]
	mov	DWORD PTR [eax+468], -1
	mov	eax, DWORD PTR _this$[ebp]
	mov	DWORD PTR [eax+472], -1
	mov	eax, DWORD PTR _this$[ebp]
	mov	DWORD PTR [eax+476], -1
	mov	eax, DWORD PTR _this$[ebp]
	mov	DWORD PTR [eax+480], -1
	mov	eax, DWORD PTR _this$[ebp]
	mov	DWORD PTR [eax+484], -1
	mov	eax, DWORD PTR _this$[ebp]
	mov	DWORD PTR [eax+488], -1
	mov	eax, DWORD PTR _this$[ebp]
	mov	DWORD PTR [eax+492], -1
	mov	eax, DWORD PTR _this$[ebp]
	mov	DWORD PTR [eax+496], -1
	mov	DWORD PTR __$EHRec$[ebp+8], -1
	mov	eax, DWORD PTR _this$[ebp]
	mov	ecx, DWORD PTR __$EHRec$[ebp]
	mov	DWORD PTR fs:0, ecx
	pop	ecx
	pop	edi
	pop	esi
	pop	ebx
	add	esp, 216				; 000000d8H
	cmp	ebp, esp
	call	__RTC_CheckEsp
	mov	esp, ebp
	pop	ebp
	ret	0
_TEXT	ENDS
;	COMDAT text$x
text$x	SEGMENT
__unwindfunclet$??0Settings@DRAMsimII@@QAE@XZ$0:
	mov	esi, esp
	mov	ecx, DWORD PTR _this$[ebp]
	call	DWORD PTR __imp_??1?$basic_string@DU?$char_traits@D@std@@V?$allocator@D@2@@std@@QAE@XZ
	cmp	esi, esp
	jmp	__RTC_CheckEsp
__unwindfunclet$??0Settings@DRAMsimII@@QAE@XZ$1:
	mov	ecx, DWORD PTR _this$[ebp]
	add	ecx, 36					; 00000024H
	mov	esi, esp
	call	DWORD PTR __imp_??1?$basic_string@DU?$char_traits@D@std@@V?$allocator@D@2@@std@@QAE@XZ
	cmp	esi, esp
	jmp	__RTC_CheckEsp
__unwindfunclet$??0Settings@DRAMsimII@@QAE@XZ$2:
	mov	ecx, DWORD PTR _this$[ebp]
	add	ecx, 68					; 00000044H
	mov	esi, esp
	call	DWORD PTR __imp_??1?$basic_string@DU?$char_traits@D@std@@V?$allocator@D@2@@std@@QAE@XZ
	cmp	esi, esp
	jmp	__RTC_CheckEsp
__unwindfunclet$??0Settings@DRAMsimII@@QAE@XZ$3:
	mov	ecx, DWORD PTR _this$[ebp]
	add	ecx, 108				; 0000006cH
	mov	esi, esp
	call	DWORD PTR __imp_??1?$basic_string@DU?$char_traits@D@std@@V?$allocator@D@2@@std@@QAE@XZ
	cmp	esi, esp
	jmp	__RTC_CheckEsp
__unwindfunclet$??0Settings@DRAMsimII@@QAE@XZ$4:
	mov	ecx, DWORD PTR _this$[ebp]
	add	ecx, 140				; 0000008cH
	mov	esi, esp
	call	DWORD PTR __imp_??1?$basic_string@DU?$char_traits@D@std@@V?$allocator@D@2@@std@@QAE@XZ
	cmp	esi, esp
	jmp	__RTC_CheckEsp
__ehhandler$??0Settings@DRAMsimII@@QAE@XZ:
	mov	edx, DWORD PTR [esp+8]
	lea	eax, DWORD PTR [edx+12]
	mov	ecx, DWORD PTR [edx-220]
	xor	ecx, eax
	call	@__security_check_cookie@4
	mov	eax, OFFSET __ehfuncinfo$??0Settings@DRAMsimII@@QAE@XZ
	jmp	___CxxFrameHandler3
text$x	ENDS
??0Settings@DRAMsimII@@QAE@XZ ENDP			; DRAMsimII::Settings::Settings
PUBLIC	??1bad_lexical_cast@boost@@UAE@XZ		; boost::bad_lexical_cast::~bad_lexical_cast
PUBLIC	??_C@_0BN@GNFCIOIH@Invalid?5numeric?5conversion?5?8?$AA@ ; `string'
PUBLIC	??_C@_01GEODFPGF@?8?$AA@			; `string'
PUBLIC	??_C@_05CGDPOPDB@plain?$AA@			; `string'
PUBLIC	??_C@_0N@NFCOPMLF@uncompressed?$AA@		; `string'
PUBLIC	??_C@_06DJDOIFHB@stdout?$AA@			; `string'
PUBLIC	??_C@_04JNGDPEGD@cout?$AA@			; `string'
PUBLIC	??_C@_03PLICKGJM@bz2?$AA@			; `string'
PUBLIC	??_C@_05EHMMIMML@bzip2?$AA@			; `string'
PUBLIC	??_C@_04LGJEOFGO@bzip?$AA@			; `string'
PUBLIC	??_C@_02JODNKINP@bz?$AA@			; `string'
PUBLIC	??_C@_02JIPGGKDE@gz?$AA@			; `string'
PUBLIC	??_C@_0BJ@EAMFAPHO@?$CC?0?5defaulting?5to?5uniform?$AA@ ; `string'
PUBLIC	??_C@_0CJ@MHDMDLGO@warn?3?5Unrecognized?5distribution?5@ ; `string'
PUBLIC	??_C@_06IKLLLDHL@normal?$AA@			; `string'
PUBLIC	??_C@_08EEGEOCFC@gaussian?$AA@			; `string'
PUBLIC	??_C@_07BLIFIMMB@poisson?$AA@			; `string'
PUBLIC	??_C@_07HIAOBKCE@uniform?$AA@			; `string'
PUBLIC	??_C@_08DKIENIFF@dramsim2?$AA@			; `string'
PUBLIC	??_C@_07PJFOMKOB@dramsim?$AA@			; `string'
PUBLIC	??_C@_03NBDIMCMP@ds2?$AA@			; `string'
PUBLIC	??_C@_02ELHCGPCE@ds?$AA@			; `string'
PUBLIC	??_C@_06JCBBOILC@MAPPED?$AA@			; `string'
PUBLIC	??_C@_06FJIHAPPM@Mapped?$AA@			; `string'
PUBLIC	??_C@_06JGDKDGGA@mapped?$AA@			; `string'
PUBLIC	??_C@_06BEOPDEGP@Random?$AA@			; `string'
PUBLIC	??_C@_06NPHJNDCB@RANDOM?$AA@			; `string'
PUBLIC	??_C@_06NLFCANPD@random?$AA@			; `string'
PUBLIC	??_C@_04FEBJENJH@Mase?$AA@			; `string'
PUBLIC	??_C@_04FJOCIAOL@MASE?$AA@			; `string'
PUBLIC	??_C@_04JFNIGCJD@mase?$AA@			; `string'
PUBLIC	??_C@_02PFGNNFLJ@K6?$AA@			; `string'
PUBLIC	??_C@_02MNCAJDFJ@k6?$AA@			; `string'
PUBLIC	??_C@_06GPECOJNK@drdram?$AA@			; `string'
PUBLIC	??_C@_04ECDFGADF@ddr3?$AA@			; `string'
PUBLIC	??_C@_03DICIDIDP@ddr?$AA@			; `string'
PUBLIC	??_C@_04FLCOFBHE@ddr2?$AA@			; `string'
PUBLIC	??_C@_03JFOJPFAA@opa?$AA@			; `string'
PUBLIC	??_C@_0BD@BOHPIEKD@openpageaggressive?$AA@	; `string'
PUBLIC	??_C@_03NPDPEKLI@cpa?$AA@			; `string'
PUBLIC	??_C@_0BD@ONBAOIDI@closepageoptimized?$AA@	; `string'
PUBLIC	??_C@_0BE@NKDLBAIH@closepageaggressive?$AA@	; `string'
PUBLIC	??_C@_04NBCGOLOM@clos?$AA@			; `string'
PUBLIC	??_C@_09DPNKIOOM@closepage?$AA@			; `string'
PUBLIC	??_C@_04PMOCAHAA@open?$AA@			; `string'
PUBLIC	??_C@_08PCFGALDC@openpage?$AA@			; `string'
PUBLIC	??_C@_06EMPKGMOC@cpbopt?$AA@			; `string'
PUBLIC	??_C@_0BF@NADPNKJJ@closepagebaselineopt?$AA@	; `string'
PUBLIC	??_C@_05FGMCINCD@loloc?$AA@			; `string'
PUBLIC	??_C@_0M@DEIIONA@lowlocality?$AA@		; `string'
PUBLIC	??_C@_0BF@IPEFDFOE@closepagelowlocality?$AA@	; `string'
PUBLIC	??_C@_05ECBDDKJF@hiloc?$AA@			; `string'
PUBLIC	??_C@_0N@NHNMELDO@highlocality?$AA@		; `string'
PUBLIC	??_C@_0BG@PGOELCDA@closepagehighlocality?$AA@	; `string'
PUBLIC	??_C@_06KEEMIHAP@sdhipf?$AA@			; `string'
PUBLIC	??_C@_0M@MDODDBPH@sdramhiperf?$AA@		; `string'
PUBLIC	??_C@_05HDBBEEBE@sdbas?$AA@			; `string'
PUBLIC	??_C@_09FJAPEJCC@sdrambase?$AA@			; `string'
PUBLIC	??_C@_09MNIAJHKG@intel845g?$AA@			; `string'
PUBLIC	??_C@_0BC@DHMALHMK@closepagebaseline?$AA@	; `string'
PUBLIC	??_C@_0L@DJOKFPOP@burgerbase?$AA@		; `string'
PUBLIC	??_C@_0CC@LHJBHNBH@Unrecognized?5ordering?5algorithm?3@ ; `string'
PUBLIC	??_C@_05PNEIGPN@frstq?$AA@			; `string'
PUBLIC	??_C@_0BE@GOEBDPNF@firstavailablequeue?$AA@	; `string'
PUBLIC	??_C@_05CEPJNFDO@frstr?$AA@			; `string'
PUBLIC	??_C@_0BD@CJCHMKHM@firstavailableriff?$AA@	; `string'
PUBLIC	??_C@_05EFBGJEKM@frsta?$AA@			; `string'
PUBLIC	??_C@_0P@BBLNJCK@firstavailable?$AA@		; `string'
PUBLIC	??_C@_0BC@DJMNKGKM@firstavailableage?$AA@	; `string'
PUBLIC	??_C@_0BH@EEHONOIO@commandpairrankhopping?$AA@	; `string'
PUBLIC	??_C@_0BG@PKODFPND@command_pair_rank_hop?$AA@	; `string'
PUBLIC	??_C@_0BD@BEDJFGLN@commandpairrankhop?$AA@	; `string'
PUBLIC	??_C@_04HGCBPIHC@cprh?$AA@			; `string'
PUBLIC	??_C@_03FFPBOPLO@rrr?$AA@			; `string'
PUBLIC	??_C@_0P@MMCAMKOA@rankroundrobin?$AA@		; `string'
PUBLIC	??_C@_03FOILICB@brr?$AA@			; `string'
PUBLIC	??_C@_0P@IIECFFKP@bankroundrobin?$AA@		; `string'
PUBLIC	??_C@_04IDBMHIHH@riff?$AA@			; `string'
PUBLIC	??_C@_06OLFOGHEN@strict?$AA@			; `string'
PUBLIC	??_C@_0BN@EGHKGBJE@refreshonechanallrankallbank?$AA@ ; `string'
PUBLIC	??_C@_0BE@LOENEJOO@bankstaggeredhidden?$AA@	; `string'
PUBLIC	??_C@_0P@CDMGJHHH@bankconcurrent?$AA@		; `string'
PUBLIC	??_C@_0L@KJOILEKD@no?5refresh?$AA@		; `string'
PUBLIC	??_C@_04CGFJFPFD@none?$AA@			; `string'
PUBLIC	??_C@_0FB@BDPKOACP@error?3?5Intel?5845G?5doesn?8t?5suppor@ ; `string'
PUBLIC	??$lexical_cast@_JV?$basic_string@DU?$char_traits@D@std@@V?$allocator@D@2@@std@@@boost@@YA_JABV?$basic_string@DU?$char_traits@D@std@@V?$allocator@D@2@@std@@@Z ; boost::lexical_cast<__int64,std::basic_string<char,std::char_traits<char>,std::allocator<char> > >
PUBLIC	??_C@_04LOAJBDKD@true?$AA@			; `string'
PUBLIC	??$lexical_cast@MV?$basic_string@DU?$char_traits@D@std@@V?$allocator@D@2@@std@@@boost@@YAMABV?$basic_string@DU?$char_traits@D@std@@V?$allocator@D@2@@std@@@Z ; boost::lexical_cast<float,std::basic_string<char,std::char_traits<char>,std::allocator<char> > >
PUBLIC	??$lexical_cast@IV?$basic_string@DU?$char_traits@D@std@@V?$allocator@D@2@@std@@@boost@@YAIABV?$basic_string@DU?$char_traits@D@std@@V?$allocator@D@2@@std@@@Z ; boost::lexical_cast<unsigned int,std::basic_string<char,std::char_traits<char>,std::allocator<char> > >
PUBLIC	??$?6U?$char_traits@D@std@@@std@@YAAAV?$basic_ostream@DU?$char_traits@D@std@@@0@AAV10@PBD@Z ; std::operator<<<std::char_traits<char> >
PUBLIC	??_C@_07OCDKBNAP@?5failed?$AA@			; `string'
PUBLIC	?dramTokenizer@Settings@DRAMsimII@@SA?AW4FileIOToken@2@ABV?$basic_string@DU?$char_traits@D@std@@V?$allocator@D@2@@std@@@Z ; DRAMsimII::Settings::dramTokenizer
PUBLIC	??$to_lower@V?$basic_string@DU?$char_traits@D@std@@V?$allocator@D@2@@std@@@algorithm@boost@@YAXAAV?$basic_string@DU?$char_traits@D@std@@V?$allocator@D@2@@std@@ABVlocale@3@@Z ; boost::algorithm::to_lower<std::basic_string<char,std::char_traits<char>,std::allocator<char> > >
PUBLIC	__$ArrayPad$
PUBLIC	?setKeyValue@Settings@DRAMsimII@@QAE_NABV?$basic_string@DU?$char_traits@D@std@@V?$allocator@D@2@@std@@0@Z ; DRAMsimII::Settings::setKeyValue
PUBLIC	??_R0?AVbad_lexical_cast@boost@@@8		; boost::bad_lexical_cast `RTTI Type Descriptor'
EXTRN	__imp_??$?8DU?$char_traits@D@std@@V?$allocator@D@1@@std@@YA_NABV?$basic_string@DU?$char_traits@D@std@@V?$allocator@D@2@@0@PBD@Z:PROC
EXTRN	__imp_??4?$basic_string@DU?$char_traits@D@std@@V?$allocator@D@2@@std@@QAEAAV01@ABV01@@Z:PROC
EXTRN	__imp_??6?$basic_ostream@DU?$char_traits@D@std@@@std@@QAEAAV01@P6AAAV01@AAV01@@Z@Z:PROC
EXTRN	__imp_?endl@std@@YAAAV?$basic_ostream@DU?$char_traits@D@std@@@1@AAV21@@Z:PROC
EXTRN	__imp_??$?6DU?$char_traits@D@std@@V?$allocator@D@1@@std@@YAAAV?$basic_ostream@DU?$char_traits@D@std@@@0@AAV10@ABV?$basic_string@DU?$char_traits@D@std@@V?$allocator@D@2@@0@@Z:PROC
EXTRN	__imp_?cerr@std@@3V?$basic_ostream@DU?$char_traits@D@std@@@1@A:BYTE
EXTRN	__imp_??1locale@std@@QAE@XZ:PROC
EXTRN	__imp_??0locale@std@@QAE@XZ:PROC
EXTRN	__imp_??0?$basic_string@DU?$char_traits@D@std@@V?$allocator@D@2@@std@@QAE@ABV01@@Z:PROC
EXTRN	@_RTC_CheckStackVars@8:PROC
EXTRN	??_7type_info@@6B@:QWORD			; type_info::`vftable'
;	COMDAT ??_R0?AVbad_lexical_cast@boost@@@8
_DATA	SEGMENT
??_R0?AVbad_lexical_cast@boost@@@8 DD FLAT:??_7type_info@@6B@ ; boost::bad_lexical_cast `RTTI Type Descriptor'
	DD	00H
	DB	'.?AVbad_lexical_cast@boost@@', 00H
_DATA	ENDS
;	COMDAT ??_C@_0BN@GNFCIOIH@Invalid?5numeric?5conversion?5?8?$AA@
CONST	SEGMENT
??_C@_0BN@GNFCIOIH@Invalid?5numeric?5conversion?5?8?$AA@ DB 'Invalid nume'
	DB	'ric conversion ''', 00H			; `string'
CONST	ENDS
;	COMDAT ??_C@_01GEODFPGF@?8?$AA@
CONST	SEGMENT
??_C@_01GEODFPGF@?8?$AA@ DB '''', 00H			; `string'
CONST	ENDS
;	COMDAT ??_C@_05CGDPOPDB@plain?$AA@
CONST	SEGMENT
??_C@_05CGDPOPDB@plain?$AA@ DB 'plain', 00H		; `string'
CONST	ENDS
;	COMDAT ??_C@_0N@NFCOPMLF@uncompressed?$AA@
CONST	SEGMENT
??_C@_0N@NFCOPMLF@uncompressed?$AA@ DB 'uncompressed', 00H ; `string'
CONST	ENDS
;	COMDAT ??_C@_06DJDOIFHB@stdout?$AA@
CONST	SEGMENT
??_C@_06DJDOIFHB@stdout?$AA@ DB 'stdout', 00H		; `string'
CONST	ENDS
;	COMDAT ??_C@_04JNGDPEGD@cout?$AA@
CONST	SEGMENT
??_C@_04JNGDPEGD@cout?$AA@ DB 'cout', 00H		; `string'
CONST	ENDS
;	COMDAT ??_C@_03PLICKGJM@bz2?$AA@
CONST	SEGMENT
??_C@_03PLICKGJM@bz2?$AA@ DB 'bz2', 00H			; `string'
CONST	ENDS
;	COMDAT ??_C@_05EHMMIMML@bzip2?$AA@
CONST	SEGMENT
??_C@_05EHMMIMML@bzip2?$AA@ DB 'bzip2', 00H		; `string'
CONST	ENDS
;	COMDAT ??_C@_04LGJEOFGO@bzip?$AA@
CONST	SEGMENT
??_C@_04LGJEOFGO@bzip?$AA@ DB 'bzip', 00H		; `string'
CONST	ENDS
;	COMDAT ??_C@_02JODNKINP@bz?$AA@
CONST	SEGMENT
??_C@_02JODNKINP@bz?$AA@ DB 'bz', 00H			; `string'
CONST	ENDS
;	COMDAT ??_C@_02JIPGGKDE@gz?$AA@
CONST	SEGMENT
??_C@_02JIPGGKDE@gz?$AA@ DB 'gz', 00H			; `string'
CONST	ENDS
;	COMDAT ??_C@_0BJ@EAMFAPHO@?$CC?0?5defaulting?5to?5uniform?$AA@
CONST	SEGMENT
??_C@_0BJ@EAMFAPHO@?$CC?0?5defaulting?5to?5uniform?$AA@ DB '", defaulting'
	DB	' to uniform', 00H				; `string'
CONST	ENDS
;	COMDAT ??_C@_0CJ@MHDMDLGO@warn?3?5Unrecognized?5distribution?5@
CONST	SEGMENT
??_C@_0CJ@MHDMDLGO@warn?3?5Unrecognized?5distribution?5@ DB 'warn: Unreco'
	DB	'gnized distribution model: "', 00H		; `string'
CONST	ENDS
;	COMDAT ??_C@_06IKLLLDHL@normal?$AA@
CONST	SEGMENT
??_C@_06IKLLLDHL@normal?$AA@ DB 'normal', 00H		; `string'
CONST	ENDS
;	COMDAT ??_C@_08EEGEOCFC@gaussian?$AA@
CONST	SEGMENT
??_C@_08EEGEOCFC@gaussian?$AA@ DB 'gaussian', 00H	; `string'
CONST	ENDS
;	COMDAT ??_C@_07BLIFIMMB@poisson?$AA@
CONST	SEGMENT
??_C@_07BLIFIMMB@poisson?$AA@ DB 'poisson', 00H		; `string'
CONST	ENDS
;	COMDAT ??_C@_07HIAOBKCE@uniform?$AA@
CONST	SEGMENT
??_C@_07HIAOBKCE@uniform?$AA@ DB 'uniform', 00H		; `string'
CONST	ENDS
;	COMDAT ??_C@_08DKIENIFF@dramsim2?$AA@
CONST	SEGMENT
??_C@_08DKIENIFF@dramsim2?$AA@ DB 'dramsim2', 00H	; `string'
CONST	ENDS
;	COMDAT ??_C@_07PJFOMKOB@dramsim?$AA@
CONST	SEGMENT
??_C@_07PJFOMKOB@dramsim?$AA@ DB 'dramsim', 00H		; `string'
CONST	ENDS
;	COMDAT ??_C@_03NBDIMCMP@ds2?$AA@
CONST	SEGMENT
??_C@_03NBDIMCMP@ds2?$AA@ DB 'ds2', 00H			; `string'
CONST	ENDS
;	COMDAT ??_C@_02ELHCGPCE@ds?$AA@
CONST	SEGMENT
??_C@_02ELHCGPCE@ds?$AA@ DB 'ds', 00H			; `string'
CONST	ENDS
;	COMDAT ??_C@_06JCBBOILC@MAPPED?$AA@
CONST	SEGMENT
??_C@_06JCBBOILC@MAPPED?$AA@ DB 'MAPPED', 00H		; `string'
CONST	ENDS
;	COMDAT ??_C@_06FJIHAPPM@Mapped?$AA@
CONST	SEGMENT
??_C@_06FJIHAPPM@Mapped?$AA@ DB 'Mapped', 00H		; `string'
CONST	ENDS
;	COMDAT ??_C@_06JGDKDGGA@mapped?$AA@
CONST	SEGMENT
??_C@_06JGDKDGGA@mapped?$AA@ DB 'mapped', 00H		; `string'
CONST	ENDS
;	COMDAT ??_C@_06BEOPDEGP@Random?$AA@
CONST	SEGMENT
??_C@_06BEOPDEGP@Random?$AA@ DB 'Random', 00H		; `string'
CONST	ENDS
;	COMDAT ??_C@_06NPHJNDCB@RANDOM?$AA@
CONST	SEGMENT
??_C@_06NPHJNDCB@RANDOM?$AA@ DB 'RANDOM', 00H		; `string'
CONST	ENDS
;	COMDAT ??_C@_06NLFCANPD@random?$AA@
CONST	SEGMENT
??_C@_06NLFCANPD@random?$AA@ DB 'random', 00H		; `string'
CONST	ENDS
;	COMDAT ??_C@_04FEBJENJH@Mase?$AA@
CONST	SEGMENT
??_C@_04FEBJENJH@Mase?$AA@ DB 'Mase', 00H		; `string'
CONST	ENDS
;	COMDAT ??_C@_04FJOCIAOL@MASE?$AA@
CONST	SEGMENT
??_C@_04FJOCIAOL@MASE?$AA@ DB 'MASE', 00H		; `string'
CONST	ENDS
;	COMDAT ??_C@_04JFNIGCJD@mase?$AA@
CONST	SEGMENT
??_C@_04JFNIGCJD@mase?$AA@ DB 'mase', 00H		; `string'
CONST	ENDS
;	COMDAT ??_C@_02PFGNNFLJ@K6?$AA@
CONST	SEGMENT
??_C@_02PFGNNFLJ@K6?$AA@ DB 'K6', 00H			; `string'
CONST	ENDS
;	COMDAT ??_C@_02MNCAJDFJ@k6?$AA@
CONST	SEGMENT
??_C@_02MNCAJDFJ@k6?$AA@ DB 'k6', 00H			; `string'
CONST	ENDS
;	COMDAT ??_C@_06GPECOJNK@drdram?$AA@
CONST	SEGMENT
??_C@_06GPECOJNK@drdram?$AA@ DB 'drdram', 00H		; `string'
CONST	ENDS
;	COMDAT ??_C@_04ECDFGADF@ddr3?$AA@
CONST	SEGMENT
??_C@_04ECDFGADF@ddr3?$AA@ DB 'ddr3', 00H		; `string'
CONST	ENDS
;	COMDAT ??_C@_03DICIDIDP@ddr?$AA@
CONST	SEGMENT
??_C@_03DICIDIDP@ddr?$AA@ DB 'ddr', 00H			; `string'
CONST	ENDS
;	COMDAT ??_C@_04FLCOFBHE@ddr2?$AA@
CONST	SEGMENT
??_C@_04FLCOFBHE@ddr2?$AA@ DB 'ddr2', 00H		; `string'
CONST	ENDS
;	COMDAT ??_C@_03JFOJPFAA@opa?$AA@
CONST	SEGMENT
??_C@_03JFOJPFAA@opa?$AA@ DB 'opa', 00H			; `string'
CONST	ENDS
;	COMDAT ??_C@_0BD@BOHPIEKD@openpageaggressive?$AA@
CONST	SEGMENT
??_C@_0BD@BOHPIEKD@openpageaggressive?$AA@ DB 'openpageaggressive', 00H ; `string'
CONST	ENDS
;	COMDAT ??_C@_03NPDPEKLI@cpa?$AA@
CONST	SEGMENT
??_C@_03NPDPEKLI@cpa?$AA@ DB 'cpa', 00H			; `string'
CONST	ENDS
;	COMDAT ??_C@_0BD@ONBAOIDI@closepageoptimized?$AA@
CONST	SEGMENT
??_C@_0BD@ONBAOIDI@closepageoptimized?$AA@ DB 'closepageoptimized', 00H ; `string'
CONST	ENDS
;	COMDAT ??_C@_0BE@NKDLBAIH@closepageaggressive?$AA@
CONST	SEGMENT
??_C@_0BE@NKDLBAIH@closepageaggressive?$AA@ DB 'closepageaggressive', 00H ; `string'
CONST	ENDS
;	COMDAT ??_C@_04NBCGOLOM@clos?$AA@
CONST	SEGMENT
??_C@_04NBCGOLOM@clos?$AA@ DB 'clos', 00H		; `string'
CONST	ENDS
;	COMDAT ??_C@_09DPNKIOOM@closepage?$AA@
CONST	SEGMENT
??_C@_09DPNKIOOM@closepage?$AA@ DB 'closepage', 00H	; `string'
CONST	ENDS
;	COMDAT ??_C@_04PMOCAHAA@open?$AA@
CONST	SEGMENT
??_C@_04PMOCAHAA@open?$AA@ DB 'open', 00H		; `string'
CONST	ENDS
;	COMDAT ??_C@_08PCFGALDC@openpage?$AA@
CONST	SEGMENT
??_C@_08PCFGALDC@openpage?$AA@ DB 'openpage', 00H	; `string'
CONST	ENDS
;	COMDAT ??_C@_06EMPKGMOC@cpbopt?$AA@
CONST	SEGMENT
??_C@_06EMPKGMOC@cpbopt?$AA@ DB 'cpbopt', 00H		; `string'
CONST	ENDS
;	COMDAT ??_C@_0BF@NADPNKJJ@closepagebaselineopt?$AA@
CONST	SEGMENT
??_C@_0BF@NADPNKJJ@closepagebaselineopt?$AA@ DB 'closepagebaselineopt', 00H ; `string'
CONST	ENDS
;	COMDAT ??_C@_05FGMCINCD@loloc?$AA@
CONST	SEGMENT
??_C@_05FGMCINCD@loloc?$AA@ DB 'loloc', 00H		; `string'
CONST	ENDS
;	COMDAT ??_C@_0M@DEIIONA@lowlocality?$AA@
CONST	SEGMENT
??_C@_0M@DEIIONA@lowlocality?$AA@ DB 'lowlocality', 00H	; `string'
CONST	ENDS
;	COMDAT ??_C@_0BF@IPEFDFOE@closepagelowlocality?$AA@
CONST	SEGMENT
??_C@_0BF@IPEFDFOE@closepagelowlocality?$AA@ DB 'closepagelowlocality', 00H ; `string'
CONST	ENDS
;	COMDAT ??_C@_05ECBDDKJF@hiloc?$AA@
CONST	SEGMENT
??_C@_05ECBDDKJF@hiloc?$AA@ DB 'hiloc', 00H		; `string'
CONST	ENDS
;	COMDAT ??_C@_0N@NHNMELDO@highlocality?$AA@
CONST	SEGMENT
??_C@_0N@NHNMELDO@highlocality?$AA@ DB 'highlocality', 00H ; `string'
CONST	ENDS
;	COMDAT ??_C@_0BG@PGOELCDA@closepagehighlocality?$AA@
CONST	SEGMENT
??_C@_0BG@PGOELCDA@closepagehighlocality?$AA@ DB 'closepagehighlocality', 00H ; `string'
CONST	ENDS
;	COMDAT ??_C@_06KEEMIHAP@sdhipf?$AA@
CONST	SEGMENT
??_C@_06KEEMIHAP@sdhipf?$AA@ DB 'sdhipf', 00H		; `string'
CONST	ENDS
;	COMDAT ??_C@_0M@MDODDBPH@sdramhiperf?$AA@
CONST	SEGMENT
??_C@_0M@MDODDBPH@sdramhiperf?$AA@ DB 'sdramhiperf', 00H ; `string'
CONST	ENDS
;	COMDAT ??_C@_05HDBBEEBE@sdbas?$AA@
CONST	SEGMENT
??_C@_05HDBBEEBE@sdbas?$AA@ DB 'sdbas', 00H		; `string'
CONST	ENDS
;	COMDAT ??_C@_09FJAPEJCC@sdrambase?$AA@
CONST	SEGMENT
??_C@_09FJAPEJCC@sdrambase?$AA@ DB 'sdrambase', 00H	; `string'
CONST	ENDS
;	COMDAT ??_C@_09MNIAJHKG@intel845g?$AA@
CONST	SEGMENT
??_C@_09MNIAJHKG@intel845g?$AA@ DB 'intel845g', 00H	; `string'
CONST	ENDS
;	COMDAT ??_C@_0BC@DHMALHMK@closepagebaseline?$AA@
CONST	SEGMENT
??_C@_0BC@DHMALHMK@closepagebaseline?$AA@ DB 'closepagebaseline', 00H ; `string'
CONST	ENDS
;	COMDAT ??_C@_0L@DJOKFPOP@burgerbase?$AA@
CONST	SEGMENT
??_C@_0L@DJOKFPOP@burgerbase?$AA@ DB 'burgerbase', 00H	; `string'
CONST	ENDS
;	COMDAT ??_C@_0CC@LHJBHNBH@Unrecognized?5ordering?5algorithm?3@
CONST	SEGMENT
??_C@_0CC@LHJBHNBH@Unrecognized?5ordering?5algorithm?3@ DB 'Unrecognized '
	DB	'ordering algorithm: ', 00H			; `string'
CONST	ENDS
;	COMDAT ??_C@_05PNEIGPN@frstq?$AA@
CONST	SEGMENT
??_C@_05PNEIGPN@frstq?$AA@ DB 'frstq', 00H		; `string'
CONST	ENDS
;	COMDAT ??_C@_0BE@GOEBDPNF@firstavailablequeue?$AA@
CONST	SEGMENT
??_C@_0BE@GOEBDPNF@firstavailablequeue?$AA@ DB 'firstavailablequeue', 00H ; `string'
CONST	ENDS
;	COMDAT ??_C@_05CEPJNFDO@frstr?$AA@
CONST	SEGMENT
??_C@_05CEPJNFDO@frstr?$AA@ DB 'frstr', 00H		; `string'
CONST	ENDS
;	COMDAT ??_C@_0BD@CJCHMKHM@firstavailableriff?$AA@
CONST	SEGMENT
??_C@_0BD@CJCHMKHM@firstavailableriff?$AA@ DB 'firstavailableriff', 00H ; `string'
CONST	ENDS
;	COMDAT ??_C@_05EFBGJEKM@frsta?$AA@
CONST	SEGMENT
??_C@_05EFBGJEKM@frsta?$AA@ DB 'frsta', 00H		; `string'
CONST	ENDS
;	COMDAT ??_C@_0P@BBLNJCK@firstavailable?$AA@
CONST	SEGMENT
??_C@_0P@BBLNJCK@firstavailable?$AA@ DB 'firstavailable', 00H ; `string'
CONST	ENDS
;	COMDAT ??_C@_0BC@DJMNKGKM@firstavailableage?$AA@
CONST	SEGMENT
??_C@_0BC@DJMNKGKM@firstavailableage?$AA@ DB 'firstavailableage', 00H ; `string'
CONST	ENDS
;	COMDAT ??_C@_0BH@EEHONOIO@commandpairrankhopping?$AA@
CONST	SEGMENT
??_C@_0BH@EEHONOIO@commandpairrankhopping?$AA@ DB 'commandpairrankhopping'
	DB	00H						; `string'
CONST	ENDS
;	COMDAT ??_C@_0BG@PKODFPND@command_pair_rank_hop?$AA@
CONST	SEGMENT
??_C@_0BG@PKODFPND@command_pair_rank_hop?$AA@ DB 'command_pair_rank_hop', 00H ; `string'
CONST	ENDS
;	COMDAT ??_C@_0BD@BEDJFGLN@commandpairrankhop?$AA@
CONST	SEGMENT
??_C@_0BD@BEDJFGLN@commandpairrankhop?$AA@ DB 'commandpairrankhop', 00H ; `string'
CONST	ENDS
;	COMDAT ??_C@_04HGCBPIHC@cprh?$AA@
CONST	SEGMENT
??_C@_04HGCBPIHC@cprh?$AA@ DB 'cprh', 00H		; `string'
CONST	ENDS
;	COMDAT ??_C@_03FFPBOPLO@rrr?$AA@
CONST	SEGMENT
??_C@_03FFPBOPLO@rrr?$AA@ DB 'rrr', 00H			; `string'
CONST	ENDS
;	COMDAT ??_C@_0P@MMCAMKOA@rankroundrobin?$AA@
CONST	SEGMENT
??_C@_0P@MMCAMKOA@rankroundrobin?$AA@ DB 'rankroundrobin', 00H ; `string'
CONST	ENDS
;	COMDAT ??_C@_03FOILICB@brr?$AA@
CONST	SEGMENT
??_C@_03FOILICB@brr?$AA@ DB 'brr', 00H			; `string'
CONST	ENDS
;	COMDAT ??_C@_0P@IIECFFKP@bankroundrobin?$AA@
CONST	SEGMENT
??_C@_0P@IIECFFKP@bankroundrobin?$AA@ DB 'bankroundrobin', 00H ; `string'
CONST	ENDS
;	COMDAT ??_C@_04IDBMHIHH@riff?$AA@
CONST	SEGMENT
??_C@_04IDBMHIHH@riff?$AA@ DB 'riff', 00H		; `string'
CONST	ENDS
;	COMDAT ??_C@_06OLFOGHEN@strict?$AA@
CONST	SEGMENT
??_C@_06OLFOGHEN@strict?$AA@ DB 'strict', 00H		; `string'
CONST	ENDS
;	COMDAT ??_C@_0BN@EGHKGBJE@refreshonechanallrankallbank?$AA@
CONST	SEGMENT
??_C@_0BN@EGHKGBJE@refreshonechanallrankallbank?$AA@ DB 'refreshonechanal'
	DB	'lrankallbank', 00H				; `string'
CONST	ENDS
;	COMDAT ??_C@_0BE@LOENEJOO@bankstaggeredhidden?$AA@
CONST	SEGMENT
??_C@_0BE@LOENEJOO@bankstaggeredhidden?$AA@ DB 'bankstaggeredhidden', 00H ; `string'
CONST	ENDS
;	COMDAT ??_C@_0P@CDMGJHHH@bankconcurrent?$AA@
CONST	SEGMENT
??_C@_0P@CDMGJHHH@bankconcurrent?$AA@ DB 'bankconcurrent', 00H ; `string'
CONST	ENDS
;	COMDAT ??_C@_0L@KJOILEKD@no?5refresh?$AA@
CONST	SEGMENT
??_C@_0L@KJOILEKD@no?5refresh?$AA@ DB 'no refresh', 00H	; `string'
CONST	ENDS
;	COMDAT ??_C@_04CGFJFPFD@none?$AA@
CONST	SEGMENT
??_C@_04CGFJFPFD@none?$AA@ DB 'none', 00H		; `string'
CONST	ENDS
;	COMDAT ??_C@_0FB@BDPKOACP@error?3?5Intel?5845G?5doesn?8t?5suppor@
CONST	SEGMENT
??_C@_0FB@BDPKOACP@error?3?5Intel?5845G?5doesn?8t?5suppor@ DB 'error: Int'
	DB	'el 845G doesn''t support multiple channels, resetting to SDRA'
	DB	'M Base Map', 00H				; `string'
CONST	ENDS
;	COMDAT ??_C@_04LOAJBDKD@true?$AA@
CONST	SEGMENT
??_C@_04LOAJBDKD@true?$AA@ DB 'true', 00H		; `string'
CONST	ENDS
;	COMDAT ??_C@_07OCDKBNAP@?5failed?$AA@
CONST	SEGMENT
??_C@_07OCDKBNAP@?5failed?$AA@ DB ' failed', 00H	; `string'
CONST	ENDS
;	COMDAT xdata$x
xdata$x	SEGMENT
__catchsym$?setKeyValue@Settings@DRAMsimII@@QAE_NABV?$basic_string@DU?$char_traits@D@std@@V?$allocator@D@2@@std@@0@Z$5 DD 00H
	DD	FLAT:??_R0?AVbad_lexical_cast@boost@@@8
	DD	0ffffff88H
	DD	FLAT:__catch$?setKeyValue@Settings@DRAMsimII@@QAE_NABV?$basic_string@DU?$char_traits@D@std@@V?$allocator@D@2@@std@@0@Z$0
__tryblocktable$?setKeyValue@Settings@DRAMsimII@@QAE_NABV?$basic_string@DU?$char_traits@D@std@@V?$allocator@D@2@@std@@0@Z DD 02H
	DD	02H
	DD	04H
	DD	01H
	DD	FLAT:__catchsym$?setKeyValue@Settings@DRAMsimII@@QAE_NABV?$basic_string@DU?$char_traits@D@std@@V?$allocator@D@2@@std@@0@Z$5
__ehfuncinfo$?setKeyValue@Settings@DRAMsimII@@QAE_NABV?$basic_string@DU?$char_traits@D@std@@V?$allocator@D@2@@std@@0@Z DD 019930522H
	DD	05H
	DD	FLAT:__unwindtable$?setKeyValue@Settings@DRAMsimII@@QAE_NABV?$basic_string@DU?$char_traits@D@std@@V?$allocator@D@2@@std@@0@Z
	DD	01H
	DD	FLAT:__tryblocktable$?setKeyValue@Settings@DRAMsimII@@QAE_NABV?$basic_string@DU?$char_traits@D@std@@V?$allocator@D@2@@std@@0@Z
	DD	2 DUP(00H)
	DD	00H
	DD	01H
__unwindtable$?setKeyValue@Settings@DRAMsimII@@QAE_NABV?$basic_string@DU?$char_traits@D@std@@V?$allocator@D@2@@std@@0@Z DD 0ffffffffH
	DD	FLAT:__unwindfunclet$?setKeyValue@Settings@DRAMsimII@@QAE_NABV?$basic_string@DU?$char_traits@D@std@@V?$allocator@D@2@@std@@0@Z$2
	DD	00H
	DD	FLAT:__unwindfunclet$?setKeyValue@Settings@DRAMsimII@@QAE_NABV?$basic_string@DU?$char_traits@D@std@@V?$allocator@D@2@@std@@0@Z$3
	DD	00H
	DD	00H
	DD	00H
	DD	00H
	DD	03H
	DD	FLAT:__unwindfunclet$?setKeyValue@Settings@DRAMsimII@@QAE_NABV?$basic_string@DU?$char_traits@D@std@@V?$allocator@D@2@@std@@0@Z$4
; Function compile flags: /Odtp /RTCcsu /ZI
xdata$x	ENDS
;	COMDAT ?setKeyValue@Settings@DRAMsimII@@QAE_NABV?$basic_string@DU?$char_traits@D@std@@V?$allocator@D@2@@std@@0@Z
_TEXT	SEGMENT
tv1064 = -396						; size = 4
tv1010 = -396						; size = 4
tv932 = -396						; size = 8
tv916 = -396						; size = 4
tv902 = -396						; size = 4
tv1063 = -392						; size = 4
tv1039 = -392						; size = 4
tv1038 = -392						; size = 4
tv1037 = -392						; size = 4
tv1014 = -392						; size = 4
tv1009 = -392						; size = 4
tv990 = -392						; size = 4
tv983 = -392						; size = 4
tv981 = -392						; size = 4
tv980 = -392						; size = 4
tv979 = -392						; size = 4
tv978 = -392						; size = 4
tv977 = -392						; size = 4
tv976 = -392						; size = 4
tv975 = -392						; size = 4
tv974 = -392						; size = 4
tv973 = -392						; size = 4
tv972 = -392						; size = 4
tv971 = -392						; size = 4
tv970 = -392						; size = 4
tv969 = -392						; size = 4
tv968 = -392						; size = 4
tv967 = -392						; size = 4
tv966 = -392						; size = 4
tv965 = -392						; size = 4
tv964 = -392						; size = 4
tv963 = -392						; size = 4
tv962 = -392						; size = 4
tv961 = -392						; size = 4
tv960 = -392						; size = 4
tv959 = -392						; size = 4
tv958 = -392						; size = 4
tv957 = -392						; size = 4
tv956 = -392						; size = 4
tv955 = -392						; size = 4
tv954 = -392						; size = 4
tv953 = -392						; size = 4
tv952 = -392						; size = 4
tv951 = -392						; size = 4
tv950 = -392						; size = 4
tv949 = -392						; size = 4
tv948 = -392						; size = 4
tv947 = -392						; size = 4
tv946 = -392						; size = 4
tv945 = -392						; size = 4
tv944 = -392						; size = 4
tv943 = -392						; size = 4
tv942 = -392						; size = 4
tv941 = -392						; size = 4
tv940 = -392						; size = 4
tv939 = -392						; size = 4
tv938 = -392						; size = 4
tv937 = -392						; size = 4
tv936 = -392						; size = 4
tv935 = -392						; size = 4
tv934 = -392						; size = 4
tv933 = -392						; size = 4
tv931 = -392						; size = 4
tv930 = -392						; size = 4
tv929 = -392						; size = 4
tv928 = -392						; size = 4
tv927 = -392						; size = 4
tv926 = -392						; size = 4
tv925 = -392						; size = 4
tv924 = -392						; size = 4
tv923 = -392						; size = 4
tv921 = -392						; size = 4
tv920 = -392						; size = 4
tv919 = -392						; size = 4
tv918 = -392						; size = 4
tv917 = -392						; size = 4
tv915 = -392						; size = 4
tv912 = -392						; size = 4
tv76 = -392						; size = 4
tv1073 = -389						; size = 1
tv1072 = -389						; size = 1
tv1071 = -389						; size = 1
tv1070 = -389						; size = 1
tv1069 = -389						; size = 1
tv1068 = -389						; size = 1
tv1067 = -389						; size = 1
tv1066 = -389						; size = 1
tv1065 = -389						; size = 1
tv1062 = -389						; size = 1
tv1061 = -389						; size = 1
tv1060 = -389						; size = 1
tv1059 = -389						; size = 1
tv1058 = -389						; size = 1
tv1057 = -389						; size = 1
tv1056 = -389						; size = 1
tv1055 = -389						; size = 1
tv1054 = -389						; size = 1
tv1053 = -389						; size = 1
tv1052 = -389						; size = 1
tv1051 = -389						; size = 1
tv1050 = -389						; size = 1
tv1049 = -389						; size = 1
tv1048 = -389						; size = 1
tv1047 = -389						; size = 1
tv1046 = -389						; size = 1
tv1045 = -389						; size = 1
tv1044 = -389						; size = 1
tv1043 = -389						; size = 1
tv1042 = -389						; size = 1
tv1041 = -389						; size = 1
tv1040 = -389						; size = 1
tv1036 = -389						; size = 1
tv1035 = -389						; size = 1
tv1034 = -389						; size = 1
tv1033 = -389						; size = 1
tv1032 = -389						; size = 1
tv1031 = -389						; size = 1
tv1030 = -389						; size = 1
tv1029 = -389						; size = 1
tv1028 = -389						; size = 1
tv1027 = -389						; size = 1
tv1026 = -389						; size = 1
tv1025 = -389						; size = 1
tv1024 = -389						; size = 1
tv1023 = -389						; size = 1
tv1022 = -389						; size = 1
tv1021 = -389						; size = 1
tv1020 = -389						; size = 1
tv1019 = -389						; size = 1
tv1018 = -389						; size = 1
tv1017 = -389						; size = 1
tv1016 = -389						; size = 1
tv1015 = -389						; size = 1
tv1013 = -389						; size = 1
tv1012 = -389						; size = 1
tv1011 = -389						; size = 1
tv1008 = -389						; size = 1
tv1007 = -389						; size = 1
tv1006 = -389						; size = 1
tv1005 = -389						; size = 1
tv1004 = -389						; size = 1
tv1003 = -389						; size = 1
tv1002 = -389						; size = 1
tv1001 = -389						; size = 1
tv1000 = -389						; size = 1
tv999 = -389						; size = 1
tv998 = -389						; size = 1
tv997 = -389						; size = 1
tv996 = -389						; size = 1
tv995 = -389						; size = 1
tv994 = -389						; size = 1
tv993 = -389						; size = 1
tv992 = -389						; size = 1
tv991 = -389						; size = 1
tv989 = -389						; size = 1
tv988 = -389						; size = 1
tv987 = -389						; size = 1
tv986 = -389						; size = 1
tv985 = -389						; size = 1
tv984 = -389						; size = 1
tv982 = -389						; size = 1
tv922 = -389						; size = 1
$T141798 = -384						; size = 4
$T141799 = -369						; size = 1
$T141800 = -357						; size = 1
$T141801 = -345						; size = 1
$T141802 = -333						; size = 1
$T141803 = -321						; size = 1
_exception$126067 = -120				; size = 20
_token$ = -92						; size = 4
_result$ = -77						; size = 1
_nodeValue$ = -68					; size = 32
_this$ = -28						; size = 4
__$ArrayPad$ = -20					; size = 4
__$EHRec$ = -16						; size = 16
_nodeName$ = 8						; size = 4
_value$ = 12						; size = 4
?setKeyValue@Settings@DRAMsimII@@QAE_NABV?$basic_string@DU?$char_traits@D@std@@V?$allocator@D@2@@std@@0@Z PROC ; DRAMsimII::Settings::setKeyValue, COMDAT
; _this$ = ecx

; 142  : {

	push	ebp
	mov	ebp, esp
	push	-1
	push	__ehhandler$?setKeyValue@Settings@DRAMsimII@@QAE_NABV?$basic_string@DU?$char_traits@D@std@@V?$allocator@D@2@@std@@0@Z
	mov	eax, DWORD PTR fs:0
	push	eax
	push	ecx
	sub	esp, 380				; 0000017cH
	push	ebx
	push	esi
	push	edi
	push	ecx
	lea	edi, DWORD PTR [ebp-396]
	mov	ecx, 95					; 0000005fH
	mov	eax, -858993460				; ccccccccH
	rep stosd
	pop	ecx
	mov	eax, DWORD PTR ___security_cookie
	xor	eax, ebp
	mov	DWORD PTR __$ArrayPad$[ebp], eax
	push	eax
	lea	eax, DWORD PTR __$EHRec$[ebp+4]
	mov	DWORD PTR fs:0, eax
	mov	DWORD PTR __$EHRec$[ebp], esp
	mov	DWORD PTR _this$[ebp], ecx

; 143  : 	string nodeValue = value;

	mov	esi, esp
	mov	eax, DWORD PTR _value$[ebp]
	push	eax
	lea	ecx, DWORD PTR _nodeValue$[ebp]
	call	DWORD PTR __imp_??0?$basic_string@DU?$char_traits@D@std@@V?$allocator@D@2@@std@@QAE@ABV01@@Z
	cmp	esi, esp
	call	__RTC_CheckEsp
	mov	DWORD PTR __$EHRec$[ebp+12], 0

; 144  : 	bool result = true;

	mov	BYTE PTR _result$[ebp], 1

; 145  : 	boost::algorithm::to_lower(nodeValue);

	mov	esi, esp
	lea	ecx, DWORD PTR $T141798[ebp]
	call	DWORD PTR __imp_??0locale@std@@QAE@XZ
	cmp	esi, esp
	call	__RTC_CheckEsp
	mov	DWORD PTR tv912[ebp], eax
	mov	eax, DWORD PTR tv912[ebp]
	mov	DWORD PTR tv902[ebp], eax
	mov	BYTE PTR __$EHRec$[ebp+12], 1
	mov	ecx, DWORD PTR tv902[ebp]
	push	ecx
	lea	edx, DWORD PTR _nodeValue$[ebp]
	push	edx
	call	??$to_lower@V?$basic_string@DU?$char_traits@D@std@@V?$allocator@D@2@@std@@@algorithm@boost@@YAXAAV?$basic_string@DU?$char_traits@D@std@@V?$allocator@D@2@@std@@ABVlocale@3@@Z ; boost::algorithm::to_lower<std::basic_string<char,std::char_traits<char>,std::allocator<char> > >
	add	esp, 8
	mov	BYTE PTR __$EHRec$[ebp+12], 0
	mov	esi, esp
	lea	ecx, DWORD PTR $T141798[ebp]
	call	DWORD PTR __imp_??1locale@std@@QAE@XZ
	cmp	esi, esp
	call	__RTC_CheckEsp

; 146  : 
; 147  : 	const FileIOToken token = dramTokenizer(nodeName);

	mov	eax, DWORD PTR _nodeName$[ebp]
	push	eax
	call	?dramTokenizer@Settings@DRAMsimII@@SA?AW4FileIOToken@2@ABV?$basic_string@DU?$char_traits@D@std@@V?$allocator@D@2@@std@@@Z ; DRAMsimII::Settings::dramTokenizer
	add	esp, 4
	mov	DWORD PTR _token$[ebp], eax

; 148  : 
; 149  : 	try
; 150  : 	{

	mov	BYTE PTR __$EHRec$[ebp+12], 2

; 151  : 		switch (token)

	mov	eax, DWORD PTR _token$[ebp]
	mov	DWORD PTR tv76[ebp], eax
	mov	ecx, DWORD PTR tv76[ebp]
	sub	ecx, 14					; 0000000eH
	mov	DWORD PTR tv76[ebp], ecx
	cmp	DWORD PTR tv76[ebp], 95			; 0000005fH
	ja	$LN1@setKeyValu
	mov	edx, DWORD PTR tv76[ebp]
	jmp	DWORD PTR $LN220@setKeyValu[edx*4]
$LN198@setKeyValu:

; 152  : 		{
; 153  : 		case unknown_token:
; 154  : 			cerr << nodeName << " failed" << endl;

	mov	esi, esp
	mov	eax, DWORD PTR _nodeName$[ebp]
	push	eax
	mov	ecx, DWORD PTR __imp_?cerr@std@@3V?$basic_ostream@DU?$char_traits@D@std@@@1@A
	push	ecx
	call	DWORD PTR __imp_??$?6DU?$char_traits@D@std@@V?$allocator@D@1@@std@@YAAAV?$basic_ostream@DU?$char_traits@D@std@@@0@AAV10@ABV?$basic_string@DU?$char_traits@D@std@@V?$allocator@D@2@@0@@Z
	add	esp, 8
	cmp	esi, esp
	call	__RTC_CheckEsp
	mov	DWORD PTR tv915[ebp], eax
	push	OFFSET ??_C@_07OCDKBNAP@?5failed?$AA@
	mov	edx, DWORD PTR tv915[ebp]
	push	edx
	call	??$?6U?$char_traits@D@std@@@std@@YAAAV?$basic_ostream@DU?$char_traits@D@std@@@0@AAV10@PBD@Z ; std::operator<<<std::char_traits<char> >
	add	esp, 8
	mov	DWORD PTR tv916[ebp], eax
	mov	esi, esp
	mov	eax, DWORD PTR __imp_?endl@std@@YAAAV?$basic_ostream@DU?$char_traits@D@std@@@1@AAV21@@Z
	push	eax
	mov	ecx, DWORD PTR tv916[ebp]
	call	DWORD PTR __imp_??6?$basic_ostream@DU?$char_traits@D@std@@@std@@QAEAAV01@P6AAAV01@AAV01@@Z@Z
	cmp	esi, esp
	call	__RTC_CheckEsp

; 155  : 			return false;

	mov	BYTE PTR $T141799[ebp], 0
	mov	DWORD PTR __$EHRec$[ebp+12], -1
	mov	esi, esp
	lea	ecx, DWORD PTR _nodeValue$[ebp]
	call	DWORD PTR __imp_??1?$basic_string@DU?$char_traits@D@std@@V?$allocator@D@2@@std@@QAE@XZ
	cmp	esi, esp
	call	__RTC_CheckEsp
	mov	al, BYTE PTR $T141799[ebp]
	jmp	$LN202@setKeyValu

; 156  : 			break;

	jmp	$LN199@setKeyValu
$LN197@setKeyValu:

; 157  : 		case cache_associativity_token:
; 158  : 			associativity = lexical_cast<unsigned>(nodeValue);

	lea	eax, DWORD PTR _nodeValue$[ebp]
	push	eax
	call	??$lexical_cast@IV?$basic_string@DU?$char_traits@D@std@@V?$allocator@D@2@@std@@@boost@@YAIABV?$basic_string@DU?$char_traits@D@std@@V?$allocator@D@2@@std@@@Z ; boost::lexical_cast<unsigned int,std::basic_string<char,std::char_traits<char>,std::allocator<char> > >
	add	esp, 4
	mov	DWORD PTR tv917[ebp], eax
	mov	ecx, DWORD PTR _this$[ebp]
	mov	edx, DWORD PTR tv917[ebp]
	mov	DWORD PTR [ecx+500], edx

; 159  : 			break;

	jmp	$LN199@setKeyValu
$LN196@setKeyValu:

; 160  : 		case cache_hitlatency_token:
; 161  : 			hitLatency = lexical_cast<unsigned>(nodeValue);

	lea	eax, DWORD PTR _nodeValue$[ebp]
	push	eax
	call	??$lexical_cast@IV?$basic_string@DU?$char_traits@D@std@@V?$allocator@D@2@@std@@@boost@@YAIABV?$basic_string@DU?$char_traits@D@std@@V?$allocator@D@2@@std@@@Z ; boost::lexical_cast<unsigned int,std::basic_string<char,std::char_traits<char>,std::allocator<char> > >
	add	esp, 4
	mov	DWORD PTR tv918[ebp], eax
	mov	ecx, DWORD PTR _this$[ebp]
	mov	edx, DWORD PTR tv918[ebp]
	mov	DWORD PTR [ecx+512], edx

; 162  : 			break;

	jmp	$LN199@setKeyValu
$LN195@setKeyValu:

; 163  : 		case cache_size_token:
; 164  : 			cacheSize = lexical_cast<unsigned>(nodeValue);

	lea	eax, DWORD PTR _nodeValue$[ebp]
	push	eax
	call	??$lexical_cast@IV?$basic_string@DU?$char_traits@D@std@@V?$allocator@D@2@@std@@@boost@@YAIABV?$basic_string@DU?$char_traits@D@std@@V?$allocator@D@2@@std@@@Z ; boost::lexical_cast<unsigned int,std::basic_string<char,std::char_traits<char>,std::allocator<char> > >
	add	esp, 4
	mov	DWORD PTR tv919[ebp], eax
	mov	ecx, DWORD PTR _this$[ebp]
	mov	edx, DWORD PTR tv919[ebp]
	mov	DWORD PTR [ecx+504], edx

; 165  : 			break;

	jmp	$LN199@setKeyValu
$LN194@setKeyValu:

; 166  : 		case cache_blocksize_token:
; 167  : 			blockSize = lexical_cast<unsigned>(nodeValue);

	lea	eax, DWORD PTR _nodeValue$[ebp]
	push	eax
	call	??$lexical_cast@IV?$basic_string@DU?$char_traits@D@std@@V?$allocator@D@2@@std@@@boost@@YAIABV?$basic_string@DU?$char_traits@D@std@@V?$allocator@D@2@@std@@@Z ; boost::lexical_cast<unsigned int,std::basic_string<char,std::char_traits<char>,std::allocator<char> > >
	add	esp, 4
	mov	DWORD PTR tv920[ebp], eax
	mov	ecx, DWORD PTR _this$[ebp]
	mov	edx, DWORD PTR tv920[ebp]
	mov	DWORD PTR [ecx+508], edx

; 168  : 			break;

	jmp	$LN199@setKeyValu
$LN193@setKeyValu:

; 169  : 		case cpu_to_memory_clock_ratio:
; 170  : 			cpuToMemoryClockRatio = lexical_cast<float>(nodeValue);

	lea	eax, DWORD PTR _nodeValue$[ebp]
	push	eax
	call	??$lexical_cast@MV?$basic_string@DU?$char_traits@D@std@@V?$allocator@D@2@@std@@@boost@@YAMABV?$basic_string@DU?$char_traits@D@std@@V?$allocator@D@2@@std@@@Z ; boost::lexical_cast<float,std::basic_string<char,std::char_traits<char>,std::allocator<char> > >
	add	esp, 4
	fstp	DWORD PTR tv921[ebp]
	mov	ecx, DWORD PTR _this$[ebp]
	fld	DWORD PTR tv921[ebp]
	fstp	DWORD PTR [ecx+420]

; 171  : 			break;

	jmp	$LN199@setKeyValu
$LN192@setKeyValu:

; 172  : 		case input_file_token:
; 173  : 			inFile = value;

	mov	esi, esp
	mov	eax, DWORD PTR _value$[ebp]
	push	eax
	mov	ecx, DWORD PTR _this$[ebp]
	add	ecx, 36					; 00000024H
	call	DWORD PTR __imp_??4?$basic_string@DU?$char_traits@D@std@@V?$allocator@D@2@@std@@QAEAAV01@ABV01@@Z
	cmp	esi, esp
	call	__RTC_CheckEsp

; 174  : 			break;

	jmp	$LN199@setKeyValu
$LN191@setKeyValu:

; 175  : 		case output_file_token:
; 176  : 			outFile = value;

	mov	esi, esp
	mov	eax, DWORD PTR _value$[ebp]
	push	eax
	mov	ecx, DWORD PTR _this$[ebp]
	add	ecx, 108				; 0000006cH
	call	DWORD PTR __imp_??4?$basic_string@DU?$char_traits@D@std@@V?$allocator@D@2@@std@@QAEAAV01@ABV01@@Z
	cmp	esi, esp
	call	__RTC_CheckEsp

; 177  : 			break;

	jmp	$LN199@setKeyValu
$LN190@setKeyValu:

; 178  : 		case output_file_dir_token:
; 179  : 			outFileDir = value;

	mov	esi, esp
	mov	eax, DWORD PTR _value$[ebp]
	push	eax
	mov	ecx, DWORD PTR _this$[ebp]
	add	ecx, 140				; 0000008cH
	call	DWORD PTR __imp_??4?$basic_string@DU?$char_traits@D@std@@V?$allocator@D@2@@std@@QAEAAV01@ABV01@@Z
	cmp	esi, esp
	call	__RTC_CheckEsp

; 180  : 			break;	

	jmp	$LN199@setKeyValu
$LN189@setKeyValu:

; 181  : 		case dbreporting_token:
; 182  : 			dbReporting = nodeValue == "true";

	mov	esi, esp
	push	OFFSET ??_C@_04LOAJBDKD@true?$AA@
	lea	eax, DWORD PTR _nodeValue$[ebp]
	push	eax
	call	DWORD PTR __imp_??$?8DU?$char_traits@D@std@@V?$allocator@D@1@@std@@YA_NABV?$basic_string@DU?$char_traits@D@std@@V?$allocator@D@2@@0@PBD@Z
	add	esp, 8
	cmp	esi, esp
	call	__RTC_CheckEsp
	mov	BYTE PTR tv922[ebp], al
	mov	ecx, DWORD PTR _this$[ebp]
	mov	dl, BYTE PTR tv922[ebp]
	mov	BYTE PTR [ecx+315], dl

; 183  : 			break;

	jmp	$LN199@setKeyValu
$LN188@setKeyValu:

; 184  : 		case epoch_token:
; 185  : 			epoch = lexical_cast<unsigned>(nodeValue);

	lea	eax, DWORD PTR _nodeValue$[ebp]
	push	eax
	call	??$lexical_cast@IV?$basic_string@DU?$char_traits@D@std@@V?$allocator@D@2@@std@@@boost@@YAIABV?$basic_string@DU?$char_traits@D@std@@V?$allocator@D@2@@std@@@Z ; boost::lexical_cast<unsigned int,std::basic_string<char,std::char_traits<char>,std::allocator<char> > >
	add	esp, 4
	mov	DWORD PTR tv923[ebp], eax
	mov	ecx, DWORD PTR _this$[ebp]
	mov	edx, DWORD PTR tv923[ebp]
	mov	DWORD PTR [ecx+32], edx

; 186  : 			break;

	jmp	$LN199@setKeyValu
$LN187@setKeyValu:

; 187  : 		case frequency_spec_token:
; 188  : 			frequencySpec = lexical_cast<unsigned>(nodeValue);

	lea	eax, DWORD PTR _nodeValue$[ebp]
	push	eax
	call	??$lexical_cast@IV?$basic_string@DU?$char_traits@D@std@@V?$allocator@D@2@@std@@@boost@@YAIABV?$basic_string@DU?$char_traits@D@std@@V?$allocator@D@2@@std@@@Z ; boost::lexical_cast<unsigned int,std::basic_string<char,std::char_traits<char>,std::allocator<char> > >
	add	esp, 4
	mov	DWORD PTR tv924[ebp], eax
	mov	ecx, DWORD PTR _this$[ebp]
	mov	edx, DWORD PTR tv924[ebp]
	mov	DWORD PTR [ecx+452], edx

; 189  : 			break;

	jmp	$LN199@setKeyValu
$LN186@setKeyValu:

; 190  : 		case p_dq_rd_token:
; 191  : 			PdqRD = lexical_cast<float>(nodeValue);

	lea	eax, DWORD PTR _nodeValue$[ebp]
	push	eax
	call	??$lexical_cast@MV?$basic_string@DU?$char_traits@D@std@@V?$allocator@D@2@@std@@@boost@@YAMABV?$basic_string@DU?$char_traits@D@std@@V?$allocator@D@2@@std@@@Z ; boost::lexical_cast<float,std::basic_string<char,std::char_traits<char>,std::allocator<char> > >
	add	esp, 4
	fstp	DWORD PTR tv925[ebp]
	mov	ecx, DWORD PTR _this$[ebp]
	fld	DWORD PTR tv925[ebp]
	fstp	DWORD PTR [ecx+424]

; 192  : 			break;

	jmp	$LN199@setKeyValu
$LN185@setKeyValu:

; 193  : 		case p_dq_wr_token:
; 194  : 			PdqWR = lexical_cast<float>(nodeValue);

	lea	eax, DWORD PTR _nodeValue$[ebp]
	push	eax
	call	??$lexical_cast@MV?$basic_string@DU?$char_traits@D@std@@V?$allocator@D@2@@std@@@boost@@YAMABV?$basic_string@DU?$char_traits@D@std@@V?$allocator@D@2@@std@@@Z ; boost::lexical_cast<float,std::basic_string<char,std::char_traits<char>,std::allocator<char> > >
	add	esp, 4
	fstp	DWORD PTR tv926[ebp]
	mov	ecx, DWORD PTR _this$[ebp]
	fld	DWORD PTR tv926[ebp]
	fstp	DWORD PTR [ecx+428]

; 195  : 			break;

	jmp	$LN199@setKeyValu
$LN184@setKeyValu:

; 196  : 		case p_dq_rd_oth_token:
; 197  : 			PdqRDoth = lexical_cast<float>(nodeValue);

	lea	eax, DWORD PTR _nodeValue$[ebp]
	push	eax
	call	??$lexical_cast@MV?$basic_string@DU?$char_traits@D@std@@V?$allocator@D@2@@std@@@boost@@YAMABV?$basic_string@DU?$char_traits@D@std@@V?$allocator@D@2@@std@@@Z ; boost::lexical_cast<float,std::basic_string<char,std::char_traits<char>,std::allocator<char> > >
	add	esp, 4
	fstp	DWORD PTR tv927[ebp]
	mov	ecx, DWORD PTR _this$[ebp]
	fld	DWORD PTR tv927[ebp]
	fstp	DWORD PTR [ecx+432]

; 198  : 			break;

	jmp	$LN199@setKeyValu
$LN183@setKeyValu:

; 199  : 		case p_dq_wr_oth_token:
; 200  : 			PdqWRoth = lexical_cast<float>(nodeValue);

	lea	eax, DWORD PTR _nodeValue$[ebp]
	push	eax
	call	??$lexical_cast@MV?$basic_string@DU?$char_traits@D@std@@V?$allocator@D@2@@std@@@boost@@YAMABV?$basic_string@DU?$char_traits@D@std@@V?$allocator@D@2@@std@@@Z ; boost::lexical_cast<float,std::basic_string<char,std::char_traits<char>,std::allocator<char> > >
	add	esp, 4
	fstp	DWORD PTR tv928[ebp]
	mov	ecx, DWORD PTR _this$[ebp]
	fld	DWORD PTR tv928[ebp]
	fstp	DWORD PTR [ecx+436]

; 201  : 			break;

	jmp	$LN199@setKeyValu
$LN182@setKeyValu:

; 202  : 		case dq_per_dram_token:
; 203  : 			DQperDRAM = lexical_cast<unsigned>(nodeValue);

	lea	eax, DWORD PTR _nodeValue$[ebp]
	push	eax
	call	??$lexical_cast@IV?$basic_string@DU?$char_traits@D@std@@V?$allocator@D@2@@std@@@boost@@YAIABV?$basic_string@DU?$char_traits@D@std@@V?$allocator@D@2@@std@@@Z ; boost::lexical_cast<unsigned int,std::basic_string<char,std::char_traits<char>,std::allocator<char> > >
	add	esp, 4
	mov	DWORD PTR tv929[ebp], eax
	mov	ecx, DWORD PTR _this$[ebp]
	mov	edx, DWORD PTR tv929[ebp]
	mov	DWORD PTR [ecx+440], edx

; 204  : 			break;

	jmp	$LN199@setKeyValu
$LN181@setKeyValu:

; 205  : 		case dqs_per_dram_token:
; 206  : 			DQSperDRAM = lexical_cast<unsigned>(nodeValue);

	lea	eax, DWORD PTR _nodeValue$[ebp]
	push	eax
	call	??$lexical_cast@IV?$basic_string@DU?$char_traits@D@std@@V?$allocator@D@2@@std@@@boost@@YAIABV?$basic_string@DU?$char_traits@D@std@@V?$allocator@D@2@@std@@@Z ; boost::lexical_cast<unsigned int,std::basic_string<char,std::char_traits<char>,std::allocator<char> > >
	add	esp, 4
	mov	DWORD PTR tv930[ebp], eax
	mov	ecx, DWORD PTR _this$[ebp]
	mov	edx, DWORD PTR tv930[ebp]
	mov	DWORD PTR [ecx+444], edx

; 207  : 			break;

	jmp	$LN199@setKeyValu
$LN180@setKeyValu:

; 208  : 		case dm_per_dram_token:
; 209  : 			DMperDRAM = lexical_cast<unsigned>(nodeValue);

	lea	eax, DWORD PTR _nodeValue$[ebp]
	push	eax
	call	??$lexical_cast@IV?$basic_string@DU?$char_traits@D@std@@V?$allocator@D@2@@std@@@boost@@YAIABV?$basic_string@DU?$char_traits@D@std@@V?$allocator@D@2@@std@@@Z ; boost::lexical_cast<unsigned int,std::basic_string<char,std::char_traits<char>,std::allocator<char> > >
	add	esp, 4
	mov	DWORD PTR tv931[ebp], eax
	mov	ecx, DWORD PTR _this$[ebp]
	mov	edx, DWORD PTR tv931[ebp]
	mov	DWORD PTR [ecx+448], edx

; 210  : 			break;

	jmp	$LN199@setKeyValu
$LN179@setKeyValu:

; 211  : 		case request_count_token:
; 212  : 			requestCount = lexical_cast<tick>(nodeValue);

	lea	eax, DWORD PTR _nodeValue$[ebp]
	push	eax
	call	??$lexical_cast@_JV?$basic_string@DU?$char_traits@D@std@@V?$allocator@D@2@@std@@@boost@@YA_JABV?$basic_string@DU?$char_traits@D@std@@V?$allocator@D@2@@std@@@Z ; boost::lexical_cast<__int64,std::basic_string<char,std::char_traits<char>,std::allocator<char> > >
	add	esp, 4
	mov	DWORD PTR tv932[ebp], eax
	mov	DWORD PTR tv932[ebp+4], edx
	mov	ecx, DWORD PTR _this$[ebp]
	mov	edx, DWORD PTR tv932[ebp]
	mov	DWORD PTR [ecx+208], edx
	mov	eax, DWORD PTR tv932[ebp+4]
	mov	DWORD PTR [ecx+212], eax

; 213  : 			break;

	jmp	$LN199@setKeyValu
$LN178@setKeyValu:

; 214  : 		case idd5_token:
; 215  : 			IDD5 = lexical_cast<unsigned>(nodeValue);

	lea	eax, DWORD PTR _nodeValue$[ebp]
	push	eax
	call	??$lexical_cast@IV?$basic_string@DU?$char_traits@D@std@@V?$allocator@D@2@@std@@@boost@@YAIABV?$basic_string@DU?$char_traits@D@std@@V?$allocator@D@2@@std@@@Z ; boost::lexical_cast<unsigned int,std::basic_string<char,std::char_traits<char>,std::allocator<char> > >
	add	esp, 4
	mov	DWORD PTR tv933[ebp], eax
	mov	ecx, DWORD PTR _this$[ebp]
	mov	edx, DWORD PTR tv933[ebp]
	mov	DWORD PTR [ecx+496], edx

; 216  : 			break;

	jmp	$LN199@setKeyValu
$LN177@setKeyValu:

; 217  : 		case idd4r_token:
; 218  : 			IDD4R = lexical_cast<unsigned>(nodeValue);

	lea	eax, DWORD PTR _nodeValue$[ebp]
	push	eax
	call	??$lexical_cast@IV?$basic_string@DU?$char_traits@D@std@@V?$allocator@D@2@@std@@@boost@@YAIABV?$basic_string@DU?$char_traits@D@std@@V?$allocator@D@2@@std@@@Z ; boost::lexical_cast<unsigned int,std::basic_string<char,std::char_traits<char>,std::allocator<char> > >
	add	esp, 4
	mov	DWORD PTR tv934[ebp], eax
	mov	ecx, DWORD PTR _this$[ebp]
	mov	edx, DWORD PTR tv934[ebp]
	mov	DWORD PTR [ecx+492], edx

; 219  : 			break;

	jmp	$LN199@setKeyValu
$LN176@setKeyValu:

; 220  : 		case idd4w_token:
; 221  : 			IDD4W = lexical_cast<unsigned>(nodeValue);

	lea	eax, DWORD PTR _nodeValue$[ebp]
	push	eax
	call	??$lexical_cast@IV?$basic_string@DU?$char_traits@D@std@@V?$allocator@D@2@@std@@@boost@@YAIABV?$basic_string@DU?$char_traits@D@std@@V?$allocator@D@2@@std@@@Z ; boost::lexical_cast<unsigned int,std::basic_string<char,std::char_traits<char>,std::allocator<char> > >
	add	esp, 4
	mov	DWORD PTR tv935[ebp], eax
	mov	ecx, DWORD PTR _this$[ebp]
	mov	edx, DWORD PTR tv935[ebp]
	mov	DWORD PTR [ecx+488], edx

; 222  : 			break;

	jmp	$LN199@setKeyValu
$LN175@setKeyValu:

; 223  : 		case idd3n_token:
; 224  : 			IDD3N = lexical_cast<unsigned>(nodeValue);

	lea	eax, DWORD PTR _nodeValue$[ebp]
	push	eax
	call	??$lexical_cast@IV?$basic_string@DU?$char_traits@D@std@@V?$allocator@D@2@@std@@@boost@@YAIABV?$basic_string@DU?$char_traits@D@std@@V?$allocator@D@2@@std@@@Z ; boost::lexical_cast<unsigned int,std::basic_string<char,std::char_traits<char>,std::allocator<char> > >
	add	esp, 4
	mov	DWORD PTR tv936[ebp], eax
	mov	ecx, DWORD PTR _this$[ebp]
	mov	edx, DWORD PTR tv936[ebp]
	mov	DWORD PTR [ecx+484], edx

; 225  : 			break;

	jmp	$LN199@setKeyValu
$LN174@setKeyValu:

; 226  : 		case idd3p_token:
; 227  : 			IDD3P = lexical_cast<unsigned>(nodeValue);

	lea	eax, DWORD PTR _nodeValue$[ebp]
	push	eax
	call	??$lexical_cast@IV?$basic_string@DU?$char_traits@D@std@@V?$allocator@D@2@@std@@@boost@@YAIABV?$basic_string@DU?$char_traits@D@std@@V?$allocator@D@2@@std@@@Z ; boost::lexical_cast<unsigned int,std::basic_string<char,std::char_traits<char>,std::allocator<char> > >
	add	esp, 4
	mov	DWORD PTR tv937[ebp], eax
	mov	ecx, DWORD PTR _this$[ebp]
	mov	edx, DWORD PTR tv937[ebp]
	mov	DWORD PTR [ecx+480], edx

; 228  : 			break;

	jmp	$LN199@setKeyValu
$LN173@setKeyValu:

; 229  : 		case idd2n_token:
; 230  : 			IDD2N = lexical_cast<unsigned>(nodeValue);

	lea	eax, DWORD PTR _nodeValue$[ebp]
	push	eax
	call	??$lexical_cast@IV?$basic_string@DU?$char_traits@D@std@@V?$allocator@D@2@@std@@@boost@@YAIABV?$basic_string@DU?$char_traits@D@std@@V?$allocator@D@2@@std@@@Z ; boost::lexical_cast<unsigned int,std::basic_string<char,std::char_traits<char>,std::allocator<char> > >
	add	esp, 4
	mov	DWORD PTR tv938[ebp], eax
	mov	ecx, DWORD PTR _this$[ebp]
	mov	edx, DWORD PTR tv938[ebp]
	mov	DWORD PTR [ecx+476], edx

; 231  : 			break;

	jmp	$LN199@setKeyValu
$LN172@setKeyValu:

; 232  : 		case idd2p_token:
; 233  : 			IDD2P = lexical_cast<unsigned>(nodeValue);

	lea	eax, DWORD PTR _nodeValue$[ebp]
	push	eax
	call	??$lexical_cast@IV?$basic_string@DU?$char_traits@D@std@@V?$allocator@D@2@@std@@@boost@@YAIABV?$basic_string@DU?$char_traits@D@std@@V?$allocator@D@2@@std@@@Z ; boost::lexical_cast<unsigned int,std::basic_string<char,std::char_traits<char>,std::allocator<char> > >
	add	esp, 4
	mov	DWORD PTR tv939[ebp], eax
	mov	ecx, DWORD PTR _this$[ebp]
	mov	edx, DWORD PTR tv939[ebp]
	mov	DWORD PTR [ecx+472], edx

; 234  : 			break;

	jmp	$LN199@setKeyValu
$LN171@setKeyValu:

; 235  : 		case average_interarrival_cycle_count:
; 236  : 			averageInterarrivalCycleCount = lexical_cast<unsigned>(nodeValue);

	lea	eax, DWORD PTR _nodeValue$[ebp]
	push	eax
	call	??$lexical_cast@IV?$basic_string@DU?$char_traits@D@std@@V?$allocator@D@2@@std@@@boost@@YAIABV?$basic_string@DU?$char_traits@D@std@@V?$allocator@D@2@@std@@@Z ; boost::lexical_cast<unsigned int,std::basic_string<char,std::char_traits<char>,std::allocator<char> > >
	add	esp, 4
	mov	DWORD PTR tv940[ebp], eax
	mov	ecx, DWORD PTR _this$[ebp]
	mov	edx, DWORD PTR tv940[ebp]
	mov	DWORD PTR [ecx+216], edx

; 237  : 			break;

	jmp	$LN199@setKeyValu
$LN170@setKeyValu:

; 238  : 		case idd0_token:
; 239  : 			IDD0 = lexical_cast<unsigned>(nodeValue);

	lea	eax, DWORD PTR _nodeValue$[ebp]
	push	eax
	call	??$lexical_cast@IV?$basic_string@DU?$char_traits@D@std@@V?$allocator@D@2@@std@@@boost@@YAIABV?$basic_string@DU?$char_traits@D@std@@V?$allocator@D@2@@std@@@Z ; boost::lexical_cast<unsigned int,std::basic_string<char,std::char_traits<char>,std::allocator<char> > >
	add	esp, 4
	mov	DWORD PTR tv941[ebp], eax
	mov	ecx, DWORD PTR _this$[ebp]
	mov	edx, DWORD PTR tv941[ebp]
	mov	DWORD PTR [ecx+464], edx

; 240  : 			break;

	jmp	$LN199@setKeyValu
$LN169@setKeyValu:

; 241  : 		case idd1_token:
; 242  : 			IDD1 = lexical_cast<unsigned>(nodeValue);

	lea	eax, DWORD PTR _nodeValue$[ebp]
	push	eax
	call	??$lexical_cast@IV?$basic_string@DU?$char_traits@D@std@@V?$allocator@D@2@@std@@@boost@@YAIABV?$basic_string@DU?$char_traits@D@std@@V?$allocator@D@2@@std@@@Z ; boost::lexical_cast<unsigned int,std::basic_string<char,std::char_traits<char>,std::allocator<char> > >
	add	esp, 4
	mov	DWORD PTR tv942[ebp], eax
	mov	ecx, DWORD PTR _this$[ebp]
	mov	edx, DWORD PTR tv942[ebp]
	mov	DWORD PTR [ecx+468], edx

; 243  : 			break;

	jmp	$LN199@setKeyValu
$LN168@setKeyValu:

; 244  : 		case vdd_token:
; 245  : 			VDD = lexical_cast<float>(nodeValue);

	lea	eax, DWORD PTR _nodeValue$[ebp]
	push	eax
	call	??$lexical_cast@MV?$basic_string@DU?$char_traits@D@std@@V?$allocator@D@2@@std@@@boost@@YAMABV?$basic_string@DU?$char_traits@D@std@@V?$allocator@D@2@@std@@@Z ; boost::lexical_cast<float,std::basic_string<char,std::char_traits<char>,std::allocator<char> > >
	add	esp, 4
	fstp	DWORD PTR tv943[ebp]
	mov	ecx, DWORD PTR _this$[ebp]
	fld	DWORD PTR tv943[ebp]
	fstp	DWORD PTR [ecx+460]

; 246  : 			break;

	jmp	$LN199@setKeyValu
$LN167@setKeyValu:

; 247  : 		case t_cwd_token:
; 248  : 			tCWD = lexical_cast<unsigned>(nodeValue);

	lea	eax, DWORD PTR _nodeValue$[ebp]
	push	eax
	call	??$lexical_cast@IV?$basic_string@DU?$char_traits@D@std@@V?$allocator@D@2@@std@@@boost@@YAIABV?$basic_string@DU?$char_traits@D@std@@V?$allocator@D@2@@std@@@Z ; boost::lexical_cast<unsigned int,std::basic_string<char,std::char_traits<char>,std::allocator<char> > >
	add	esp, 4
	mov	DWORD PTR tv944[ebp], eax
	mov	ecx, DWORD PTR _this$[ebp]
	mov	edx, DWORD PTR tv944[ebp]
	mov	DWORD PTR [ecx+360], edx

; 249  : 			break;

	jmp	$LN199@setKeyValu
$LN166@setKeyValu:

; 250  : 		case t_buffer_delay_token:
; 251  : 			tBufferDelay = lexical_cast<unsigned>(nodeValue);

	lea	eax, DWORD PTR _nodeValue$[ebp]
	push	eax
	call	??$lexical_cast@IV?$basic_string@DU?$char_traits@D@std@@V?$allocator@D@2@@std@@@boost@@YAIABV?$basic_string@DU?$char_traits@D@std@@V?$allocator@D@2@@std@@@Z ; boost::lexical_cast<unsigned int,std::basic_string<char,std::char_traits<char>,std::allocator<char> > >
	add	esp, 4
	mov	DWORD PTR tv945[ebp], eax
	mov	ecx, DWORD PTR _this$[ebp]
	mov	edx, DWORD PTR tv945[ebp]
	mov	DWORD PTR [ecx+416], edx

; 252  : 			break;

	jmp	$LN199@setKeyValu
$LN165@setKeyValu:

; 253  : 		case t_cmd_token:
; 254  : 			tCMD = lexical_cast<unsigned>(nodeValue);

	lea	eax, DWORD PTR _nodeValue$[ebp]
	push	eax
	call	??$lexical_cast@IV?$basic_string@DU?$char_traits@D@std@@V?$allocator@D@2@@std@@@boost@@YAIABV?$basic_string@DU?$char_traits@D@std@@V?$allocator@D@2@@std@@@Z ; boost::lexical_cast<unsigned int,std::basic_string<char,std::char_traits<char>,std::allocator<char> > >
	add	esp, 4
	mov	DWORD PTR tv946[ebp], eax
	mov	ecx, DWORD PTR _this$[ebp]
	mov	edx, DWORD PTR tv946[ebp]
	mov	DWORD PTR [ecx+408], edx

; 255  : 			break;

	jmp	$LN199@setKeyValu
$LN164@setKeyValu:

; 256  : 		case t_wtr_token:
; 257  : 			tWTR = lexical_cast<unsigned>(nodeValue);

	lea	eax, DWORD PTR _nodeValue$[ebp]
	push	eax
	call	??$lexical_cast@IV?$basic_string@DU?$char_traits@D@std@@V?$allocator@D@2@@std@@@boost@@YAIABV?$basic_string@DU?$char_traits@D@std@@V?$allocator@D@2@@std@@@Z ; boost::lexical_cast<unsigned int,std::basic_string<char,std::char_traits<char>,std::allocator<char> > >
	add	esp, 4
	mov	DWORD PTR tv947[ebp], eax
	mov	ecx, DWORD PTR _this$[ebp]
	mov	edx, DWORD PTR tv947[ebp]
	mov	DWORD PTR [ecx+404], edx

; 258  : 			break;

	jmp	$LN199@setKeyValu
$LN163@setKeyValu:

; 259  : 		case t_wr_token:
; 260  : 			tWR = lexical_cast<unsigned>(nodeValue);

	lea	eax, DWORD PTR _nodeValue$[ebp]
	push	eax
	call	??$lexical_cast@IV?$basic_string@DU?$char_traits@D@std@@V?$allocator@D@2@@std@@@boost@@YAIABV?$basic_string@DU?$char_traits@D@std@@V?$allocator@D@2@@std@@@Z ; boost::lexical_cast<unsigned int,std::basic_string<char,std::char_traits<char>,std::allocator<char> > >
	add	esp, 4
	mov	DWORD PTR tv948[ebp], eax
	mov	ecx, DWORD PTR _this$[ebp]
	mov	edx, DWORD PTR tv948[ebp]
	mov	DWORD PTR [ecx+400], edx

; 261  : 			break;

	jmp	$LN199@setKeyValu
$LN162@setKeyValu:

; 262  : 		case t_refi_token:
; 263  : 			tREFI = lexical_cast<unsigned>(nodeValue);

	lea	eax, DWORD PTR _nodeValue$[ebp]
	push	eax
	call	??$lexical_cast@IV?$basic_string@DU?$char_traits@D@std@@V?$allocator@D@2@@std@@@boost@@YAIABV?$basic_string@DU?$char_traits@D@std@@V?$allocator@D@2@@std@@@Z ; boost::lexical_cast<unsigned int,std::basic_string<char,std::char_traits<char>,std::allocator<char> > >
	add	esp, 4
	mov	DWORD PTR tv949[ebp], eax
	mov	ecx, DWORD PTR _this$[ebp]
	mov	edx, DWORD PTR tv949[ebp]
	mov	DWORD PTR [ecx+380], edx

; 264  : 			break;

	jmp	$LN199@setKeyValu
$LN161@setKeyValu:

; 265  : 		case t_rtrs_token:
; 266  : 			tRTRS = lexical_cast<unsigned>(nodeValue);

	lea	eax, DWORD PTR _nodeValue$[ebp]
	push	eax
	call	??$lexical_cast@IV?$basic_string@DU?$char_traits@D@std@@V?$allocator@D@2@@std@@@boost@@YAIABV?$basic_string@DU?$char_traits@D@std@@V?$allocator@D@2@@std@@@Z ; boost::lexical_cast<unsigned int,std::basic_string<char,std::char_traits<char>,std::allocator<char> > >
	add	esp, 4
	mov	DWORD PTR tv950[ebp], eax
	mov	ecx, DWORD PTR _this$[ebp]
	mov	edx, DWORD PTR tv950[ebp]
	mov	DWORD PTR [ecx+344], edx

; 267  : 			break;

	jmp	$LN199@setKeyValu
$LN160@setKeyValu:

; 268  : 		case t_rtp_token:
; 269  : 			tRTP = lexical_cast<unsigned>(nodeValue);

	lea	eax, DWORD PTR _nodeValue$[ebp]
	push	eax
	call	??$lexical_cast@IV?$basic_string@DU?$char_traits@D@std@@V?$allocator@D@2@@std@@@boost@@YAIABV?$basic_string@DU?$char_traits@D@std@@V?$allocator@D@2@@std@@@Z ; boost::lexical_cast<unsigned int,std::basic_string<char,std::char_traits<char>,std::allocator<char> > >
	add	esp, 4
	mov	DWORD PTR tv951[ebp], eax
	mov	ecx, DWORD PTR _this$[ebp]
	mov	edx, DWORD PTR tv951[ebp]
	mov	DWORD PTR [ecx+396], edx

; 270  : 			break;

	jmp	$LN199@setKeyValu
$LN159@setKeyValu:

; 271  : 		case t_rrd_token:
; 272  : 			tRRD = lexical_cast<unsigned>(nodeValue);

	lea	eax, DWORD PTR _nodeValue$[ebp]
	push	eax
	call	??$lexical_cast@IV?$basic_string@DU?$char_traits@D@std@@V?$allocator@D@2@@std@@@boost@@YAIABV?$basic_string@DU?$char_traits@D@std@@V?$allocator@D@2@@std@@@Z ; boost::lexical_cast<unsigned int,std::basic_string<char,std::char_traits<char>,std::allocator<char> > >
	add	esp, 4
	mov	DWORD PTR tv952[ebp], eax
	mov	ecx, DWORD PTR _this$[ebp]
	mov	edx, DWORD PTR tv952[ebp]
	mov	DWORD PTR [ecx+392], edx

; 273  : 			break;

	jmp	$LN199@setKeyValu
$LN158@setKeyValu:

; 274  : 		case t_rfc_token:
; 275  : 			tRFC = lexical_cast<unsigned>(nodeValue);

	lea	eax, DWORD PTR _nodeValue$[ebp]
	push	eax
	call	??$lexical_cast@IV?$basic_string@DU?$char_traits@D@std@@V?$allocator@D@2@@std@@@boost@@YAIABV?$basic_string@DU?$char_traits@D@std@@V?$allocator@D@2@@std@@@Z ; boost::lexical_cast<unsigned int,std::basic_string<char,std::char_traits<char>,std::allocator<char> > >
	add	esp, 4
	mov	DWORD PTR tv953[ebp], eax
	mov	ecx, DWORD PTR _this$[ebp]
	mov	edx, DWORD PTR tv953[ebp]
	mov	DWORD PTR [ecx+384], edx

; 276  : 			break;

	jmp	$LN199@setKeyValu
$LN157@setKeyValu:

; 277  : 		case t_rcd_token:
; 278  : 			tRCD = lexical_cast<unsigned>(nodeValue);

	lea	eax, DWORD PTR _nodeValue$[ebp]
	push	eax
	call	??$lexical_cast@IV?$basic_string@DU?$char_traits@D@std@@V?$allocator@D@2@@std@@@boost@@YAIABV?$basic_string@DU?$char_traits@D@std@@V?$allocator@D@2@@std@@@Z ; boost::lexical_cast<unsigned int,std::basic_string<char,std::char_traits<char>,std::allocator<char> > >
	add	esp, 4
	mov	DWORD PTR tv954[ebp], eax
	mov	ecx, DWORD PTR _this$[ebp]
	mov	edx, DWORD PTR tv954[ebp]
	mov	DWORD PTR [ecx+376], edx

; 279  : 			break;

	jmp	$LN199@setKeyValu
$LN156@setKeyValu:

; 280  : 		case t_rc_token:
; 281  : 			tRC = lexical_cast<unsigned>(nodeValue);

	lea	eax, DWORD PTR _nodeValue$[ebp]
	push	eax
	call	??$lexical_cast@IV?$basic_string@DU?$char_traits@D@std@@V?$allocator@D@2@@std@@@boost@@YAIABV?$basic_string@DU?$char_traits@D@std@@V?$allocator@D@2@@std@@@Z ; boost::lexical_cast<unsigned int,std::basic_string<char,std::char_traits<char>,std::allocator<char> > >
	add	esp, 4
	mov	DWORD PTR tv955[ebp], eax
	mov	ecx, DWORD PTR _this$[ebp]
	mov	edx, DWORD PTR tv955[ebp]
	mov	DWORD PTR [ecx+372], edx

; 282  : 			break;

	jmp	$LN199@setKeyValu
$LN155@setKeyValu:

; 283  : 		case t_rp_token:
; 284  : 			tRP = lexical_cast<unsigned>(nodeValue);

	lea	eax, DWORD PTR _nodeValue$[ebp]
	push	eax
	call	??$lexical_cast@IV?$basic_string@DU?$char_traits@D@std@@V?$allocator@D@2@@std@@@boost@@YAIABV?$basic_string@DU?$char_traits@D@std@@V?$allocator@D@2@@std@@@Z ; boost::lexical_cast<unsigned int,std::basic_string<char,std::char_traits<char>,std::allocator<char> > >
	add	esp, 4
	mov	DWORD PTR tv956[ebp], eax
	mov	ecx, DWORD PTR _this$[ebp]
	mov	edx, DWORD PTR tv956[ebp]
	mov	DWORD PTR [ecx+388], edx

; 285  : 			break;

	jmp	$LN199@setKeyValu
$LN154@setKeyValu:

; 286  : 		case t_ras_token:
; 287  : 			tRAS = lexical_cast<unsigned>(nodeValue);

	lea	eax, DWORD PTR _nodeValue$[ebp]
	push	eax
	call	??$lexical_cast@IV?$basic_string@DU?$char_traits@D@std@@V?$allocator@D@2@@std@@@boost@@YAIABV?$basic_string@DU?$char_traits@D@std@@V?$allocator@D@2@@std@@@Z ; boost::lexical_cast<unsigned int,std::basic_string<char,std::char_traits<char>,std::allocator<char> > >
	add	esp, 4
	mov	DWORD PTR tv957[ebp], eax
	mov	ecx, DWORD PTR _this$[ebp]
	mov	edx, DWORD PTR tv957[ebp]
	mov	DWORD PTR [ecx+368], edx

; 288  : 			break;

	jmp	$LN199@setKeyValu
$LN153@setKeyValu:

; 289  : 		case t_faw_token:
; 290  : 			tFAW = lexical_cast<unsigned>(nodeValue);

	lea	eax, DWORD PTR _nodeValue$[ebp]
	push	eax
	call	??$lexical_cast@IV?$basic_string@DU?$char_traits@D@std@@V?$allocator@D@2@@std@@@boost@@YAIABV?$basic_string@DU?$char_traits@D@std@@V?$allocator@D@2@@std@@@Z ; boost::lexical_cast<unsigned int,std::basic_string<char,std::char_traits<char>,std::allocator<char> > >
	add	esp, 4
	mov	DWORD PTR tv958[ebp], eax
	mov	ecx, DWORD PTR _this$[ebp]
	mov	edx, DWORD PTR tv958[ebp]
	mov	DWORD PTR [ecx+364], edx

; 291  : 			break;

	jmp	$LN199@setKeyValu
$LN152@setKeyValu:

; 292  : 		case t_cas_token:
; 293  : 			tCAS = lexical_cast<unsigned>(nodeValue);

	lea	eax, DWORD PTR _nodeValue$[ebp]
	push	eax
	call	??$lexical_cast@IV?$basic_string@DU?$char_traits@D@std@@V?$allocator@D@2@@std@@@boost@@YAIABV?$basic_string@DU?$char_traits@D@std@@V?$allocator@D@2@@std@@@Z ; boost::lexical_cast<unsigned int,std::basic_string<char,std::char_traits<char>,std::allocator<char> > >
	add	esp, 4
	mov	DWORD PTR tv959[ebp], eax
	mov	ecx, DWORD PTR _this$[ebp]
	mov	edx, DWORD PTR tv959[ebp]
	mov	DWORD PTR [ecx+356], edx

; 294  : 			break;

	jmp	$LN199@setKeyValu
$LN151@setKeyValu:

; 295  : 		case t_burst_token:
; 296  : 			tBurst = lexical_cast<unsigned>(nodeValue);

	lea	eax, DWORD PTR _nodeValue$[ebp]
	push	eax
	call	??$lexical_cast@IV?$basic_string@DU?$char_traits@D@std@@V?$allocator@D@2@@std@@@boost@@YAIABV?$basic_string@DU?$char_traits@D@std@@V?$allocator@D@2@@std@@@Z ; boost::lexical_cast<unsigned int,std::basic_string<char,std::char_traits<char>,std::allocator<char> > >
	add	esp, 4
	mov	DWORD PTR tv960[ebp], eax
	mov	ecx, DWORD PTR _this$[ebp]
	mov	edx, DWORD PTR tv960[ebp]
	mov	DWORD PTR [ecx+352], edx

; 297  : 			break;

	jmp	$LN199@setKeyValu
$LN150@setKeyValu:

; 298  : 		case t_al_token:
; 299  : 			tAL = lexical_cast<unsigned>(nodeValue);

	lea	eax, DWORD PTR _nodeValue$[ebp]
	push	eax
	call	??$lexical_cast@IV?$basic_string@DU?$char_traits@D@std@@V?$allocator@D@2@@std@@@boost@@YAIABV?$basic_string@DU?$char_traits@D@std@@V?$allocator@D@2@@std@@@Z ; boost::lexical_cast<unsigned int,std::basic_string<char,std::char_traits<char>,std::allocator<char> > >
	add	esp, 4
	mov	DWORD PTR tv961[ebp], eax
	mov	ecx, DWORD PTR _this$[ebp]
	mov	edx, DWORD PTR tv961[ebp]
	mov	DWORD PTR [ecx+348], edx

; 300  : 			break;

	jmp	$LN199@setKeyValu
$LN149@setKeyValu:

; 301  : 		case refresh_queue_depth_token:
; 302  : 			refreshQueueDepth = lexical_cast<unsigned>(nodeValue);

	lea	eax, DWORD PTR _nodeValue$[ebp]
	push	eax
	call	??$lexical_cast@IV?$basic_string@DU?$char_traits@D@std@@V?$allocator@D@2@@std@@@boost@@YAIABV?$basic_string@DU?$char_traits@D@std@@V?$allocator@D@2@@std@@@Z ; boost::lexical_cast<unsigned int,std::basic_string<char,std::char_traits<char>,std::allocator<char> > >
	add	esp, 4
	mov	DWORD PTR tv962[ebp], eax
	mov	ecx, DWORD PTR _this$[ebp]
	mov	edx, DWORD PTR tv962[ebp]
	mov	DWORD PTR [ecx+288], edx

; 303  : 			break;

	jmp	$LN199@setKeyValu
$LN148@setKeyValu:

; 304  : 		case bank_count_token:
; 305  : 			bankCount = lexical_cast<unsigned>(nodeValue);

	lea	eax, DWORD PTR _nodeValue$[ebp]
	push	eax
	call	??$lexical_cast@IV?$basic_string@DU?$char_traits@D@std@@V?$allocator@D@2@@std@@@boost@@YAIABV?$basic_string@DU?$char_traits@D@std@@V?$allocator@D@2@@std@@@Z ; boost::lexical_cast<unsigned int,std::basic_string<char,std::char_traits<char>,std::allocator<char> > >
	add	esp, 4
	mov	DWORD PTR tv963[ebp], eax
	mov	ecx, DWORD PTR _this$[ebp]
	mov	edx, DWORD PTR tv963[ebp]
	mov	DWORD PTR [ecx+332], edx

; 306  : 			break;

	jmp	$LN199@setKeyValu
$LN147@setKeyValu:

; 307  : 		case rank_count_token:
; 308  : 			rankCount = lexical_cast<unsigned>(nodeValue);

	lea	eax, DWORD PTR _nodeValue$[ebp]
	push	eax
	call	??$lexical_cast@IV?$basic_string@DU?$char_traits@D@std@@V?$allocator@D@2@@std@@@boost@@YAIABV?$basic_string@DU?$char_traits@D@std@@V?$allocator@D@2@@std@@@Z ; boost::lexical_cast<unsigned int,std::basic_string<char,std::char_traits<char>,std::allocator<char> > >
	add	esp, 4
	mov	DWORD PTR tv964[ebp], eax
	mov	ecx, DWORD PTR _this$[ebp]
	mov	edx, DWORD PTR tv964[ebp]
	mov	DWORD PTR [ecx+328], edx

; 309  : 			break;

	jmp	$LN199@setKeyValu
$LN146@setKeyValu:

; 310  : 		case channel_count_token:
; 311  : 			channelCount = lexical_cast<unsigned>(nodeValue);

	lea	eax, DWORD PTR _nodeValue$[ebp]
	push	eax
	call	??$lexical_cast@IV?$basic_string@DU?$char_traits@D@std@@V?$allocator@D@2@@std@@@boost@@YAIABV?$basic_string@DU?$char_traits@D@std@@V?$allocator@D@2@@std@@@Z ; boost::lexical_cast<unsigned int,std::basic_string<char,std::char_traits<char>,std::allocator<char> > >
	add	esp, 4
	mov	DWORD PTR tv965[ebp], eax
	mov	ecx, DWORD PTR _this$[ebp]
	mov	edx, DWORD PTR tv965[ebp]
	mov	DWORD PTR [ecx+324], edx

; 312  : 			if (addressMappingScheme == Address::INTEL845G_MAP)

	mov	eax, DWORD PTR _this$[ebp]
	cmp	DWORD PTR [eax+308], 6
	jne	SHORT $LN145@setKeyValu

; 313  : 			{
; 314  : 				cerr << "error: Intel 845G doesn't support multiple channels, resetting to SDRAM Base Map" << endl;

	push	OFFSET ??_C@_0FB@BDPKOACP@error?3?5Intel?5845G?5doesn?8t?5suppor@
	mov	eax, DWORD PTR __imp_?cerr@std@@3V?$basic_ostream@DU?$char_traits@D@std@@@1@A
	push	eax
	call	??$?6U?$char_traits@D@std@@@std@@YAAAV?$basic_ostream@DU?$char_traits@D@std@@@0@AAV10@PBD@Z ; std::operator<<<std::char_traits<char> >
	add	esp, 8
	mov	DWORD PTR tv966[ebp], eax
	mov	esi, esp
	mov	ecx, DWORD PTR __imp_?endl@std@@YAAAV?$basic_ostream@DU?$char_traits@D@std@@@1@AAV21@@Z
	push	ecx
	mov	ecx, DWORD PTR tv966[ebp]
	call	DWORD PTR __imp_??6?$basic_ostream@DU?$char_traits@D@std@@@std@@QAEAAV01@P6AAAV01@AAV01@@Z@Z
	cmp	esi, esp
	call	__RTC_CheckEsp

; 315  : 				addressMappingScheme = Address::SDRAM_BASE_MAP;

	mov	eax, DWORD PTR _this$[ebp]
	mov	DWORD PTR [eax+308], 1
$LN145@setKeyValu:

; 316  : 			}
; 317  : 			break;

	jmp	$LN199@setKeyValu
$LN144@setKeyValu:

; 318  : 		case short_burst_ratio_token:
; 319  : 			shortBurstRatio = lexical_cast<float>(nodeValue);

	lea	eax, DWORD PTR _nodeValue$[ebp]
	push	eax
	call	??$lexical_cast@MV?$basic_string@DU?$char_traits@D@std@@V?$allocator@D@2@@std@@@boost@@YAMABV?$basic_string@DU?$char_traits@D@std@@V?$allocator@D@2@@std@@@Z ; boost::lexical_cast<float,std::basic_string<char,std::char_traits<char>,std::allocator<char> > >
	add	esp, 4
	fstp	DWORD PTR tv967[ebp]
	mov	ecx, DWORD PTR _this$[ebp]
	fld	DWORD PTR tv967[ebp]
	fstp	DWORD PTR [ecx+336]

; 320  : 			break;

	jmp	$LN199@setKeyValu
$LN143@setKeyValu:

; 321  : 		case read_percentage_token:
; 322  : 			readPercentage = lexical_cast<float>(nodeValue);

	lea	eax, DWORD PTR _nodeValue$[ebp]
	push	eax
	call	??$lexical_cast@MV?$basic_string@DU?$char_traits@D@std@@V?$allocator@D@2@@std@@@boost@@YAMABV?$basic_string@DU?$char_traits@D@std@@V?$allocator@D@2@@std@@@Z ; boost::lexical_cast<float,std::basic_string<char,std::char_traits<char>,std::allocator<char> > >
	add	esp, 4
	fstp	DWORD PTR tv968[ebp]
	mov	ecx, DWORD PTR _this$[ebp]
	fld	DWORD PTR tv968[ebp]
	fstp	DWORD PTR [ecx+340]

; 323  : 			break;					

	jmp	$LN199@setKeyValu
$LN142@setKeyValu:

; 324  : 		case per_bank_queue_depth_token:
; 325  : 			perBankQueueDepth = lexical_cast<unsigned>(nodeValue);

	lea	eax, DWORD PTR _nodeValue$[ebp]
	push	eax
	call	??$lexical_cast@IV?$basic_string@DU?$char_traits@D@std@@V?$allocator@D@2@@std@@@boost@@YAIABV?$basic_string@DU?$char_traits@D@std@@V?$allocator@D@2@@std@@@Z ; boost::lexical_cast<unsigned int,std::basic_string<char,std::char_traits<char>,std::allocator<char> > >
	add	esp, 4
	mov	DWORD PTR tv969[ebp], eax
	mov	ecx, DWORD PTR _this$[ebp]
	mov	edx, DWORD PTR tv969[ebp]
	mov	DWORD PTR [ecx+244], edx

; 326  : 			break;

	jmp	$LN199@setKeyValu
$LN141@setKeyValu:

; 327  : 		case event_queue_depth_token:
; 328  : 			eventQueueDepth = lexical_cast<unsigned>(nodeValue);

	lea	eax, DWORD PTR _nodeValue$[ebp]
	push	eax
	call	??$lexical_cast@IV?$basic_string@DU?$char_traits@D@std@@V?$allocator@D@2@@std@@@boost@@YAIABV?$basic_string@DU?$char_traits@D@std@@V?$allocator@D@2@@std@@@Z ; boost::lexical_cast<unsigned int,std::basic_string<char,std::char_traits<char>,std::allocator<char> > >
	add	esp, 4
	mov	DWORD PTR tv970[ebp], eax
	mov	ecx, DWORD PTR _this$[ebp]
	mov	edx, DWORD PTR tv970[ebp]
	mov	DWORD PTR [ecx+284], edx

; 329  : 			break;

	jmp	$LN199@setKeyValu
$LN140@setKeyValu:

; 330  : 		case transaction_queue_depth_token:
; 331  : 			transactionQueueDepth = lexical_cast<unsigned>(nodeValue);

	lea	eax, DWORD PTR _nodeValue$[ebp]
	push	eax
	call	??$lexical_cast@IV?$basic_string@DU?$char_traits@D@std@@V?$allocator@D@2@@std@@@boost@@YAIABV?$basic_string@DU?$char_traits@D@std@@V?$allocator@D@2@@std@@@Z ; boost::lexical_cast<unsigned int,std::basic_string<char,std::char_traits<char>,std::allocator<char> > >
	add	esp, 4
	mov	DWORD PTR tv971[ebp], eax
	mov	ecx, DWORD PTR _this$[ebp]
	mov	edx, DWORD PTR tv971[ebp]
	mov	DWORD PTR [ecx+280], edx

; 332  : 			break;

	jmp	$LN199@setKeyValu
$LN139@setKeyValu:

; 333  : 		case decode_window_token:
; 334  : 			decodeWindow = lexical_cast<unsigned>(nodeValue);

	lea	eax, DWORD PTR _nodeValue$[ebp]
	push	eax
	call	??$lexical_cast@IV?$basic_string@DU?$char_traits@D@std@@V?$allocator@D@2@@std@@@boost@@YAIABV?$basic_string@DU?$char_traits@D@std@@V?$allocator@D@2@@std@@@Z ; boost::lexical_cast<unsigned int,std::basic_string<char,std::char_traits<char>,std::allocator<char> > >
	add	esp, 4
	mov	DWORD PTR tv972[ebp], eax
	mov	ecx, DWORD PTR _this$[ebp]
	mov	edx, DWORD PTR tv972[ebp]
	mov	DWORD PTR [ecx+300], edx

; 335  : 			break;

	jmp	$LN199@setKeyValu
$LN138@setKeyValu:

; 336  : 		case completion_queue_depth_token:
; 337  : 			completionQueueDepth = lexical_cast<unsigned>(nodeValue);

	lea	eax, DWORD PTR _nodeValue$[ebp]
	push	eax
	call	??$lexical_cast@IV?$basic_string@DU?$char_traits@D@std@@V?$allocator@D@2@@std@@@boost@@YAIABV?$basic_string@DU?$char_traits@D@std@@V?$allocator@D@2@@std@@@Z ; boost::lexical_cast<unsigned int,std::basic_string<char,std::char_traits<char>,std::allocator<char> > >
	add	esp, 4
	mov	DWORD PTR tv973[ebp], eax
	mov	ecx, DWORD PTR _this$[ebp]
	mov	edx, DWORD PTR tv973[ebp]
	mov	DWORD PTR [ecx+276], edx

; 338  : 			break;

	jmp	$LN199@setKeyValu
$LN137@setKeyValu:

; 339  : 		case history_queue_depth_token:
; 340  : 			historyQueueDepth = lexical_cast<unsigned>(nodeValue);

	lea	eax, DWORD PTR _nodeValue$[ebp]
	push	eax
	call	??$lexical_cast@IV?$basic_string@DU?$char_traits@D@std@@V?$allocator@D@2@@std@@@boost@@YAIABV?$basic_string@DU?$char_traits@D@std@@V?$allocator@D@2@@std@@@Z ; boost::lexical_cast<unsigned int,std::basic_string<char,std::char_traits<char>,std::allocator<char> > >
	add	esp, 4
	mov	DWORD PTR tv974[ebp], eax
	mov	ecx, DWORD PTR _this$[ebp]
	mov	edx, DWORD PTR tv974[ebp]
	mov	DWORD PTR [ecx+272], edx

; 341  : 			break;

	jmp	$LN199@setKeyValu
$LN136@setKeyValu:

; 342  : 		case cacheline_size_token:
; 343  : 			cacheLineSize = lexical_cast<unsigned>(nodeValue);

	lea	eax, DWORD PTR _nodeValue$[ebp]
	push	eax
	call	??$lexical_cast@IV?$basic_string@DU?$char_traits@D@std@@V?$allocator@D@2@@std@@@boost@@YAIABV?$basic_string@DU?$char_traits@D@std@@V?$allocator@D@2@@std@@@Z ; boost::lexical_cast<unsigned int,std::basic_string<char,std::char_traits<char>,std::allocator<char> > >
	add	esp, 4
	mov	DWORD PTR tv975[ebp], eax
	mov	ecx, DWORD PTR _this$[ebp]
	mov	edx, DWORD PTR tv975[ebp]
	mov	DWORD PTR [ecx+268], edx

; 344  : 			break;

	jmp	$LN199@setKeyValu
$LN135@setKeyValu:

; 345  : 		case row_size_token:
; 346  : 			rowSize = lexical_cast<unsigned>(nodeValue);

	lea	eax, DWORD PTR _nodeValue$[ebp]
	push	eax
	call	??$lexical_cast@IV?$basic_string@DU?$char_traits@D@std@@V?$allocator@D@2@@std@@@boost@@YAIABV?$basic_string@DU?$char_traits@D@std@@V?$allocator@D@2@@std@@@Z ; boost::lexical_cast<unsigned int,std::basic_string<char,std::char_traits<char>,std::allocator<char> > >
	add	esp, 4
	mov	DWORD PTR tv976[ebp], eax
	mov	ecx, DWORD PTR _this$[ebp]
	mov	edx, DWORD PTR tv976[ebp]
	mov	DWORD PTR [ecx+252], edx

; 347  : 			break;

	jmp	$LN199@setKeyValu
$LN134@setKeyValu:

; 348  : 		case col_size_token:
; 349  : 			columnSize = lexical_cast<unsigned>(nodeValue);

	lea	eax, DWORD PTR _nodeValue$[ebp]
	push	eax
	call	??$lexical_cast@IV?$basic_string@DU?$char_traits@D@std@@V?$allocator@D@2@@std@@@boost@@YAIABV?$basic_string@DU?$char_traits@D@std@@V?$allocator@D@2@@std@@@Z ; boost::lexical_cast<unsigned int,std::basic_string<char,std::char_traits<char>,std::allocator<char> > >
	add	esp, 4
	mov	DWORD PTR tv977[ebp], eax
	mov	ecx, DWORD PTR _this$[ebp]
	mov	edx, DWORD PTR tv977[ebp]
	mov	DWORD PTR [ecx+248], edx

; 350  : 			break;

	jmp	$LN199@setKeyValu
$LN133@setKeyValu:

; 351  : 		case channel_width_token:
; 352  : 			channelWidth = lexical_cast<unsigned>(nodeValue);

	lea	eax, DWORD PTR _nodeValue$[ebp]
	push	eax
	call	??$lexical_cast@IV?$basic_string@DU?$char_traits@D@std@@V?$allocator@D@2@@std@@@boost@@YAIABV?$basic_string@DU?$char_traits@D@std@@V?$allocator@D@2@@std@@@Z ; boost::lexical_cast<unsigned int,std::basic_string<char,std::char_traits<char>,std::allocator<char> > >
	add	esp, 4
	mov	DWORD PTR tv978[ebp], eax
	mov	ecx, DWORD PTR _this$[ebp]
	mov	edx, DWORD PTR tv978[ebp]
	mov	DWORD PTR [ecx+256], edx

; 353  : 			break;

	jmp	$LN199@setKeyValu
$LN132@setKeyValu:

; 354  : 		case col_count_token:
; 355  : 			columnCount = lexical_cast<unsigned>(nodeValue);

	lea	eax, DWORD PTR _nodeValue$[ebp]
	push	eax
	call	??$lexical_cast@IV?$basic_string@DU?$char_traits@D@std@@V?$allocator@D@2@@std@@@boost@@YAIABV?$basic_string@DU?$char_traits@D@std@@V?$allocator@D@2@@std@@@Z ; boost::lexical_cast<unsigned int,std::basic_string<char,std::char_traits<char>,std::allocator<char> > >
	add	esp, 4
	mov	DWORD PTR tv979[ebp], eax
	mov	ecx, DWORD PTR _this$[ebp]
	mov	edx, DWORD PTR tv979[ebp]
	mov	DWORD PTR [ecx+260], edx

; 356  : 			break;

	jmp	$LN199@setKeyValu
$LN131@setKeyValu:

; 357  : 		case row_count_token:
; 358  : 			rowCount = lexical_cast<unsigned>(nodeValue);

	lea	eax, DWORD PTR _nodeValue$[ebp]
	push	eax
	call	??$lexical_cast@IV?$basic_string@DU?$char_traits@D@std@@V?$allocator@D@2@@std@@@boost@@YAIABV?$basic_string@DU?$char_traits@D@std@@V?$allocator@D@2@@std@@@Z ; boost::lexical_cast<unsigned int,std::basic_string<char,std::char_traits<char>,std::allocator<char> > >
	add	esp, 4
	mov	DWORD PTR tv980[ebp], eax
	mov	ecx, DWORD PTR _this$[ebp]
	mov	edx, DWORD PTR tv980[ebp]
	mov	DWORD PTR [ecx+264], edx

; 359  : 			break;

	jmp	$LN199@setKeyValu
$LN130@setKeyValu:

; 360  : 		case cachelines_per_row_token:
; 361  : 			cachelinesPerRow = lexical_cast<unsigned>(nodeValue);

	lea	eax, DWORD PTR _nodeValue$[ebp]
	push	eax
	call	??$lexical_cast@IV?$basic_string@DU?$char_traits@D@std@@V?$allocator@D@2@@std@@@boost@@YAIABV?$basic_string@DU?$char_traits@D@std@@V?$allocator@D@2@@std@@@Z ; boost::lexical_cast<unsigned int,std::basic_string<char,std::char_traits<char>,std::allocator<char> > >
	add	esp, 4
	mov	DWORD PTR tv981[ebp], eax
	mov	ecx, DWORD PTR _this$[ebp]
	mov	edx, DWORD PTR tv981[ebp]
	mov	DWORD PTR [ecx+320], edx

; 362  : 			break;

	jmp	$LN199@setKeyValu
$LN129@setKeyValu:

; 363  : 		case posted_cas_token:
; 364  : 			postedCAS = nodeValue == "true";

	mov	esi, esp
	push	OFFSET ??_C@_04LOAJBDKD@true?$AA@
	lea	eax, DWORD PTR _nodeValue$[ebp]
	push	eax
	call	DWORD PTR __imp_??$?8DU?$char_traits@D@std@@V?$allocator@D@1@@std@@YA_NABV?$basic_string@DU?$char_traits@D@std@@V?$allocator@D@2@@0@PBD@Z
	add	esp, 8
	cmp	esi, esp
	call	__RTC_CheckEsp
	mov	BYTE PTR tv982[ebp], al
	mov	ecx, DWORD PTR _this$[ebp]
	mov	dl, BYTE PTR tv982[ebp]
	mov	BYTE PTR [ecx+312], dl

; 365  : 			break;

	jmp	$LN199@setKeyValu
$LN128@setKeyValu:

; 366  : 		case seniority_age_limit_token:
; 367  : 			seniorityAgeLimit = lexical_cast<unsigned>(nodeValue);

	lea	eax, DWORD PTR _nodeValue$[ebp]
	push	eax
	call	??$lexical_cast@IV?$basic_string@DU?$char_traits@D@std@@V?$allocator@D@2@@std@@@boost@@YAIABV?$basic_string@DU?$char_traits@D@std@@V?$allocator@D@2@@std@@@Z ; boost::lexical_cast<unsigned int,std::basic_string<char,std::char_traits<char>,std::allocator<char> > >
	add	esp, 4
	mov	DWORD PTR tv983[ebp], eax
	mov	ecx, DWORD PTR _this$[ebp]
	mov	edx, DWORD PTR tv983[ebp]
	mov	DWORD PTR [ecx+296], edx

; 368  : 			break;

	jmp	$LN199@setKeyValu
$LN127@setKeyValu:

; 369  : 		case refresh_policy_token:
; 370  : 			if (nodeValue == "none" || nodeValue == "no refresh")

	mov	esi, esp
	push	OFFSET ??_C@_04CGFJFPFD@none?$AA@
	lea	eax, DWORD PTR _nodeValue$[ebp]
	push	eax
	call	DWORD PTR __imp_??$?8DU?$char_traits@D@std@@V?$allocator@D@1@@std@@YA_NABV?$basic_string@DU?$char_traits@D@std@@V?$allocator@D@2@@0@PBD@Z
	add	esp, 8
	cmp	esi, esp
	call	__RTC_CheckEsp
	mov	BYTE PTR tv984[ebp], al
	movzx	ecx, BYTE PTR tv984[ebp]
	test	ecx, ecx
	jne	SHORT $LN125@setKeyValu
	mov	esi, esp
	push	OFFSET ??_C@_0L@KJOILEKD@no?5refresh?$AA@
	lea	eax, DWORD PTR _nodeValue$[ebp]
	push	eax
	call	DWORD PTR __imp_??$?8DU?$char_traits@D@std@@V?$allocator@D@1@@std@@YA_NABV?$basic_string@DU?$char_traits@D@std@@V?$allocator@D@2@@0@PBD@Z
	add	esp, 8
	cmp	esi, esp
	call	__RTC_CheckEsp
	mov	BYTE PTR tv985[ebp], al
	movzx	ecx, BYTE PTR tv985[ebp]
	test	ecx, ecx
	je	SHORT $LN126@setKeyValu
$LN125@setKeyValu:

; 371  : 				refreshPolicy = NO_REFRESH;

	mov	eax, DWORD PTR _this$[ebp]
	mov	DWORD PTR [eax+220], 0
	jmp	$LN118@setKeyValu
$LN126@setKeyValu:

; 372  : 			else if (nodeValue == "bankconcurrent")

	mov	esi, esp
	push	OFFSET ??_C@_0P@CDMGJHHH@bankconcurrent?$AA@
	lea	eax, DWORD PTR _nodeValue$[ebp]
	push	eax
	call	DWORD PTR __imp_??$?8DU?$char_traits@D@std@@V?$allocator@D@1@@std@@YA_NABV?$basic_string@DU?$char_traits@D@std@@V?$allocator@D@2@@0@PBD@Z
	add	esp, 8
	cmp	esi, esp
	call	__RTC_CheckEsp
	mov	BYTE PTR tv986[ebp], al
	movzx	ecx, BYTE PTR tv986[ebp]
	test	ecx, ecx
	je	SHORT $LN123@setKeyValu

; 373  : 				refreshPolicy = BANK_CONCURRENT;

	mov	eax, DWORD PTR _this$[ebp]
	mov	DWORD PTR [eax+220], 1
	jmp	$LN118@setKeyValu
$LN123@setKeyValu:

; 374  : 			else if (nodeValue == "bankstaggeredhidden")

	mov	esi, esp
	push	OFFSET ??_C@_0BE@LOENEJOO@bankstaggeredhidden?$AA@
	lea	eax, DWORD PTR _nodeValue$[ebp]
	push	eax
	call	DWORD PTR __imp_??$?8DU?$char_traits@D@std@@V?$allocator@D@1@@std@@YA_NABV?$basic_string@DU?$char_traits@D@std@@V?$allocator@D@2@@0@PBD@Z
	add	esp, 8
	cmp	esi, esp
	call	__RTC_CheckEsp
	mov	BYTE PTR tv987[ebp], al
	movzx	ecx, BYTE PTR tv987[ebp]
	test	ecx, ecx
	je	SHORT $LN121@setKeyValu

; 375  : 				refreshPolicy = BANK_STAGGERED_HIDDEN;

	mov	eax, DWORD PTR _this$[ebp]
	mov	DWORD PTR [eax+220], 2
	jmp	SHORT $LN118@setKeyValu
$LN121@setKeyValu:

; 376  : 			else if (nodeValue == "refreshonechanallrankallbank")

	mov	esi, esp
	push	OFFSET ??_C@_0BN@EGHKGBJE@refreshonechanallrankallbank?$AA@
	lea	eax, DWORD PTR _nodeValue$[ebp]
	push	eax
	call	DWORD PTR __imp_??$?8DU?$char_traits@D@std@@V?$allocator@D@1@@std@@YA_NABV?$basic_string@DU?$char_traits@D@std@@V?$allocator@D@2@@0@PBD@Z
	add	esp, 8
	cmp	esi, esp
	call	__RTC_CheckEsp
	mov	BYTE PTR tv988[ebp], al
	movzx	ecx, BYTE PTR tv988[ebp]
	test	ecx, ecx
	je	SHORT $LN119@setKeyValu

; 377  : 				refreshPolicy = ONE_CHANNEL_ALL_RANK_ALL_BANK;

	mov	eax, DWORD PTR _this$[ebp]
	mov	DWORD PTR [eax+220], 3

; 378  : 			else

	jmp	SHORT $LN118@setKeyValu
$LN119@setKeyValu:

; 379  : 				return false;

	mov	BYTE PTR $T141800[ebp], 0
	mov	DWORD PTR __$EHRec$[ebp+12], -1
	mov	esi, esp
	lea	ecx, DWORD PTR _nodeValue$[ebp]
	call	DWORD PTR __imp_??1?$basic_string@DU?$char_traits@D@std@@V?$allocator@D@2@@std@@QAE@XZ
	cmp	esi, esp
	call	__RTC_CheckEsp
	mov	al, BYTE PTR $T141800[ebp]
	jmp	$LN202@setKeyValu
$LN118@setKeyValu:

; 380  : 			break;

	jmp	$LN199@setKeyValu
$LN117@setKeyValu:

; 381  : 		case read_write_grouping_token:
; 382  : 			readWriteGrouping = nodeValue == "true";

	mov	esi, esp
	push	OFFSET ??_C@_04LOAJBDKD@true?$AA@
	lea	eax, DWORD PTR _nodeValue$[ebp]
	push	eax
	call	DWORD PTR __imp_??$?8DU?$char_traits@D@std@@V?$allocator@D@1@@std@@YA_NABV?$basic_string@DU?$char_traits@D@std@@V?$allocator@D@2@@0@PBD@Z
	add	esp, 8
	cmp	esi, esp
	call	__RTC_CheckEsp
	mov	BYTE PTR tv989[ebp], al
	mov	ecx, DWORD PTR _this$[ebp]
	mov	dl, BYTE PTR tv989[ebp]
	mov	BYTE PTR [ecx+313], dl

; 383  : 			break;

	jmp	$LN199@setKeyValu
$LN116@setKeyValu:

; 384  : 		case refresh_time_token:
; 385  : 			refreshTime = lexical_cast<unsigned>(nodeValue);

	lea	eax, DWORD PTR _nodeValue$[ebp]
	push	eax
	call	??$lexical_cast@IV?$basic_string@DU?$char_traits@D@std@@V?$allocator@D@2@@std@@@boost@@YAIABV?$basic_string@DU?$char_traits@D@std@@V?$allocator@D@2@@std@@@Z ; boost::lexical_cast<unsigned int,std::basic_string<char,std::char_traits<char>,std::allocator<char> > >
	add	esp, 4
	mov	DWORD PTR tv990[ebp], eax
	mov	ecx, DWORD PTR _this$[ebp]
	mov	edx, DWORD PTR tv990[ebp]
	mov	DWORD PTR [ecx+292], edx

; 386  : 			break;

	jmp	$LN199@setKeyValu
$LN115@setKeyValu:

; 387  : 		case system_configuration_type_token:
; 388  : 			// TODO: if baseline, then normal system, if FBD, then make a FBD system
; 389  : 
; 390  : 			break;

	jmp	$LN199@setKeyValu
$LN114@setKeyValu:

; 391  : 		case transaction_ordering_policy_token:
; 392  : 			if (nodeValue == "strict")

	mov	esi, esp
	push	OFFSET ??_C@_06OLFOGHEN@strict?$AA@
	lea	eax, DWORD PTR _nodeValue$[ebp]
	push	eax
	call	DWORD PTR __imp_??$?8DU?$char_traits@D@std@@V?$allocator@D@1@@std@@YA_NABV?$basic_string@DU?$char_traits@D@std@@V?$allocator@D@2@@0@PBD@Z
	add	esp, 8
	cmp	esi, esp
	call	__RTC_CheckEsp
	mov	BYTE PTR tv991[ebp], al
	movzx	ecx, BYTE PTR tv991[ebp]
	test	ecx, ecx
	je	SHORT $LN113@setKeyValu

; 393  : 				transactionOrderingAlgorithm = STRICT;

	mov	eax, DWORD PTR _this$[ebp]
	mov	DWORD PTR [eax+236], 1
	jmp	SHORT $LN110@setKeyValu
$LN113@setKeyValu:

; 394  : 			else if (nodeValue == "riff")

	mov	esi, esp
	push	OFFSET ??_C@_04IDBMHIHH@riff?$AA@
	lea	eax, DWORD PTR _nodeValue$[ebp]
	push	eax
	call	DWORD PTR __imp_??$?8DU?$char_traits@D@std@@V?$allocator@D@1@@std@@YA_NABV?$basic_string@DU?$char_traits@D@std@@V?$allocator@D@2@@0@PBD@Z
	add	esp, 8
	cmp	esi, esp
	call	__RTC_CheckEsp
	mov	BYTE PTR tv992[ebp], al
	movzx	ecx, BYTE PTR tv992[ebp]
	test	ecx, ecx
	je	SHORT $LN111@setKeyValu

; 395  : 				transactionOrderingAlgorithm = RIFF;

	mov	eax, DWORD PTR _this$[ebp]
	mov	DWORD PTR [eax+236], 0

; 396  : 			else

	jmp	SHORT $LN110@setKeyValu
$LN111@setKeyValu:

; 397  : 				transactionOrderingAlgorithm = STRICT;						

	mov	eax, DWORD PTR _this$[ebp]
	mov	DWORD PTR [eax+236], 1
$LN110@setKeyValu:

; 398  : 			break;

	jmp	$LN199@setKeyValu
$LN109@setKeyValu:

; 399  : 		case command_ordering_algorithm_token:
; 400  : 			if (nodeValue == "strict")

	mov	esi, esp
	push	OFFSET ??_C@_06OLFOGHEN@strict?$AA@
	lea	eax, DWORD PTR _nodeValue$[ebp]
	push	eax
	call	DWORD PTR __imp_??$?8DU?$char_traits@D@std@@V?$allocator@D@1@@std@@YA_NABV?$basic_string@DU?$char_traits@D@std@@V?$allocator@D@2@@0@PBD@Z
	add	esp, 8
	cmp	esi, esp
	call	__RTC_CheckEsp
	mov	BYTE PTR tv993[ebp], al
	movzx	ecx, BYTE PTR tv993[ebp]
	test	ecx, ecx
	je	SHORT $LN108@setKeyValu

; 401  : 				commandOrderingAlgorithm = STRICT_ORDER;

	mov	eax, DWORD PTR _this$[ebp]
	mov	DWORD PTR [eax+232], 0
	jmp	$LN89@setKeyValu
$LN108@setKeyValu:

; 402  : 			else if (nodeValue == "bankroundrobin" || nodeValue == "brr")

	mov	esi, esp
	push	OFFSET ??_C@_0P@IIECFFKP@bankroundrobin?$AA@
	lea	eax, DWORD PTR _nodeValue$[ebp]
	push	eax
	call	DWORD PTR __imp_??$?8DU?$char_traits@D@std@@V?$allocator@D@1@@std@@YA_NABV?$basic_string@DU?$char_traits@D@std@@V?$allocator@D@2@@0@PBD@Z
	add	esp, 8
	cmp	esi, esp
	call	__RTC_CheckEsp
	mov	BYTE PTR tv994[ebp], al
	movzx	ecx, BYTE PTR tv994[ebp]
	test	ecx, ecx
	jne	SHORT $LN105@setKeyValu
	mov	esi, esp
	push	OFFSET ??_C@_03FOILICB@brr?$AA@
	lea	eax, DWORD PTR _nodeValue$[ebp]
	push	eax
	call	DWORD PTR __imp_??$?8DU?$char_traits@D@std@@V?$allocator@D@1@@std@@YA_NABV?$basic_string@DU?$char_traits@D@std@@V?$allocator@D@2@@0@PBD@Z
	add	esp, 8
	cmp	esi, esp
	call	__RTC_CheckEsp
	mov	BYTE PTR tv995[ebp], al
	movzx	ecx, BYTE PTR tv995[ebp]
	test	ecx, ecx
	je	SHORT $LN106@setKeyValu
$LN105@setKeyValu:

; 403  : 				commandOrderingAlgorithm = BANK_ROUND_ROBIN;

	mov	eax, DWORD PTR _this$[ebp]
	mov	DWORD PTR [eax+232], 2
	jmp	$LN89@setKeyValu
$LN106@setKeyValu:

; 404  : 			else if (nodeValue == "rankroundrobin" || nodeValue == "rrr")

	mov	esi, esp
	push	OFFSET ??_C@_0P@MMCAMKOA@rankroundrobin?$AA@
	lea	eax, DWORD PTR _nodeValue$[ebp]
	push	eax
	call	DWORD PTR __imp_??$?8DU?$char_traits@D@std@@V?$allocator@D@1@@std@@YA_NABV?$basic_string@DU?$char_traits@D@std@@V?$allocator@D@2@@0@PBD@Z
	add	esp, 8
	cmp	esi, esp
	call	__RTC_CheckEsp
	mov	BYTE PTR tv996[ebp], al
	movzx	ecx, BYTE PTR tv996[ebp]
	test	ecx, ecx
	jne	SHORT $LN102@setKeyValu
	mov	esi, esp
	push	OFFSET ??_C@_03FFPBOPLO@rrr?$AA@
	lea	eax, DWORD PTR _nodeValue$[ebp]
	push	eax
	call	DWORD PTR __imp_??$?8DU?$char_traits@D@std@@V?$allocator@D@1@@std@@YA_NABV?$basic_string@DU?$char_traits@D@std@@V?$allocator@D@2@@0@PBD@Z
	add	esp, 8
	cmp	esi, esp
	call	__RTC_CheckEsp
	mov	BYTE PTR tv997[ebp], al
	movzx	ecx, BYTE PTR tv997[ebp]
	test	ecx, ecx
	je	SHORT $LN103@setKeyValu
