; Listing generated by Microsoft (R) Optimizing Compiler Version 15.00.30729.01 

	TITLE	c:\Users\CriuS\Documents\Visual Studio 2008\Projects\DRAMsimIIhg\src\reporting\soapC.cpp
	.686P
	.XMM
	include listing.inc
	.model	flat

INCLUDELIB MSVCRTD
INCLUDELIB OLDNAMES

PUBLIC	??_C@_04LOAJBDKD@true?$AA@			; `string'
PUBLIC	??_C@_05LAPONLG@false?$AA@			; `string'
PUBLIC	??_C@_0P@GHFPNOJB@bad?5allocation?$AA@		; `string'
PUBLIC	?_Value@?$_Is_swap_move@U_Swap_move_tag@std@@@std@@2_NB ; std::_Is_swap_move<std::_Swap_move_tag>::_Value
PUBLIC	?collate@?$_Locbase@H@std@@2HB			; std::_Locbase<int>::collate
PUBLIC	?ctype@?$_Locbase@H@std@@2HB			; std::_Locbase<int>::ctype
PUBLIC	?monetary@?$_Locbase@H@std@@2HB			; std::_Locbase<int>::monetary
PUBLIC	?numeric@?$_Locbase@H@std@@2HB			; std::_Locbase<int>::numeric
PUBLIC	?time@?$_Locbase@H@std@@2HB			; std::_Locbase<int>::time
PUBLIC	?messages@?$_Locbase@H@std@@2HB			; std::_Locbase<int>::messages
PUBLIC	?all@?$_Locbase@H@std@@2HB			; std::_Locbase<int>::all
PUBLIC	?none@?$_Locbase@H@std@@2HB			; std::_Locbase<int>::none
PUBLIC	?skipws@?$_Iosb@H@std@@2W4_Fmtflags@12@B	; std::_Iosb<int>::skipws
PUBLIC	?unitbuf@?$_Iosb@H@std@@2W4_Fmtflags@12@B	; std::_Iosb<int>::unitbuf
PUBLIC	?uppercase@?$_Iosb@H@std@@2W4_Fmtflags@12@B	; std::_Iosb<int>::uppercase
PUBLIC	?showbase@?$_Iosb@H@std@@2W4_Fmtflags@12@B	; std::_Iosb<int>::showbase
PUBLIC	?showpoint@?$_Iosb@H@std@@2W4_Fmtflags@12@B	; std::_Iosb<int>::showpoint
PUBLIC	?showpos@?$_Iosb@H@std@@2W4_Fmtflags@12@B	; std::_Iosb<int>::showpos
PUBLIC	?left@?$_Iosb@H@std@@2W4_Fmtflags@12@B		; std::_Iosb<int>::left
PUBLIC	?right@?$_Iosb@H@std@@2W4_Fmtflags@12@B		; std::_Iosb<int>::right
PUBLIC	?internal@?$_Iosb@H@std@@2W4_Fmtflags@12@B	; std::_Iosb<int>::internal
PUBLIC	?dec@?$_Iosb@H@std@@2W4_Fmtflags@12@B		; std::_Iosb<int>::dec
PUBLIC	?oct@?$_Iosb@H@std@@2W4_Fmtflags@12@B		; std::_Iosb<int>::oct
PUBLIC	?hex@?$_Iosb@H@std@@2W4_Fmtflags@12@B		; std::_Iosb<int>::hex
PUBLIC	?scientific@?$_Iosb@H@std@@2W4_Fmtflags@12@B	; std::_Iosb<int>::scientific
PUBLIC	?fixed@?$_Iosb@H@std@@2W4_Fmtflags@12@B		; std::_Iosb<int>::fixed
PUBLIC	?hexfloat@?$_Iosb@H@std@@2W4_Fmtflags@12@B	; std::_Iosb<int>::hexfloat
PUBLIC	?boolalpha@?$_Iosb@H@std@@2W4_Fmtflags@12@B	; std::_Iosb<int>::boolalpha
PUBLIC	?_Stdio@?$_Iosb@H@std@@2W4_Fmtflags@12@B	; std::_Iosb<int>::_Stdio
PUBLIC	?adjustfield@?$_Iosb@H@std@@2W4_Fmtflags@12@B	; std::_Iosb<int>::adjustfield
PUBLIC	?basefield@?$_Iosb@H@std@@2W4_Fmtflags@12@B	; std::_Iosb<int>::basefield
PUBLIC	?floatfield@?$_Iosb@H@std@@2W4_Fmtflags@12@B	; std::_Iosb<int>::floatfield
PUBLIC	?goodbit@?$_Iosb@H@std@@2W4_Iostate@12@B	; std::_Iosb<int>::goodbit
PUBLIC	?eofbit@?$_Iosb@H@std@@2W4_Iostate@12@B		; std::_Iosb<int>::eofbit
PUBLIC	?failbit@?$_Iosb@H@std@@2W4_Iostate@12@B	; std::_Iosb<int>::failbit
PUBLIC	?badbit@?$_Iosb@H@std@@2W4_Iostate@12@B		; std::_Iosb<int>::badbit
PUBLIC	?_Hardfail@?$_Iosb@H@std@@2W4_Iostate@12@B	; std::_Iosb<int>::_Hardfail
PUBLIC	?in@?$_Iosb@H@std@@2W4_Openmode@12@B		; std::_Iosb<int>::in
PUBLIC	?out@?$_Iosb@H@std@@2W4_Openmode@12@B		; std::_Iosb<int>::out
PUBLIC	?ate@?$_Iosb@H@std@@2W4_Openmode@12@B		; std::_Iosb<int>::ate
PUBLIC	?app@?$_Iosb@H@std@@2W4_Openmode@12@B		; std::_Iosb<int>::app
PUBLIC	?trunc@?$_Iosb@H@std@@2W4_Openmode@12@B		; std::_Iosb<int>::trunc
PUBLIC	?_Nocreate@?$_Iosb@H@std@@2W4_Openmode@12@B	; std::_Iosb<int>::_Nocreate
PUBLIC	?_Noreplace@?$_Iosb@H@std@@2W4_Openmode@12@B	; std::_Iosb<int>::_Noreplace
PUBLIC	?binary@?$_Iosb@H@std@@2W4_Openmode@12@B	; std::_Iosb<int>::binary
PUBLIC	?beg@?$_Iosb@H@std@@2W4_Seekdir@12@B		; std::_Iosb<int>::beg
PUBLIC	?cur@?$_Iosb@H@std@@2W4_Seekdir@12@B		; std::_Iosb<int>::cur
PUBLIC	?end@?$_Iosb@H@std@@2W4_Seekdir@12@B		; std::_Iosb<int>::end
CONST	SEGMENT
_soap_codes_bool DD 00H
	DD	FLAT:??_C@_05LAPONLG@false?$AA@
	DD	01H
	DD	FLAT:??_C@_04LOAJBDKD@true?$AA@
	DD	00H
	DD	00H
CONST	ENDS
;	COMDAT ??_C@_04LOAJBDKD@true?$AA@
CONST	SEGMENT
??_C@_04LOAJBDKD@true?$AA@ DB 'true', 00H		; `string'
CONST	ENDS
;	COMDAT ??_C@_05LAPONLG@false?$AA@
CONST	SEGMENT
??_C@_05LAPONLG@false?$AA@ DB 'false', 00H		; `string'
CONST	ENDS
;	COMDAT ?end@?$_Iosb@H@std@@2W4_Seekdir@12@B
CONST	SEGMENT
?end@?$_Iosb@H@std@@2W4_Seekdir@12@B DD 02H		; std::_Iosb<int>::end
CONST	ENDS
;	COMDAT ?cur@?$_Iosb@H@std@@2W4_Seekdir@12@B
CONST	SEGMENT
?cur@?$_Iosb@H@std@@2W4_Seekdir@12@B DD 01H		; std::_Iosb<int>::cur
CONST	ENDS
;	COMDAT ?beg@?$_Iosb@H@std@@2W4_Seekdir@12@B
CONST	SEGMENT
?beg@?$_Iosb@H@std@@2W4_Seekdir@12@B DD 00H		; std::_Iosb<int>::beg
CONST	ENDS
;	COMDAT ?binary@?$_Iosb@H@std@@2W4_Openmode@12@B
CONST	SEGMENT
?binary@?$_Iosb@H@std@@2W4_Openmode@12@B DD 020H	; std::_Iosb<int>::binary
CONST	ENDS
;	COMDAT ?_Noreplace@?$_Iosb@H@std@@2W4_Openmode@12@B
CONST	SEGMENT
?_Noreplace@?$_Iosb@H@std@@2W4_Openmode@12@B DD 080H	; std::_Iosb<int>::_Noreplace
CONST	ENDS
;	COMDAT ?_Nocreate@?$_Iosb@H@std@@2W4_Openmode@12@B
CONST	SEGMENT
?_Nocreate@?$_Iosb@H@std@@2W4_Openmode@12@B DD 040H	; std::_Iosb<int>::_Nocreate
CONST	ENDS
;	COMDAT ?trunc@?$_Iosb@H@std@@2W4_Openmode@12@B
CONST	SEGMENT
?trunc@?$_Iosb@H@std@@2W4_Openmode@12@B DD 010H		; std::_Iosb<int>::trunc
CONST	ENDS
;	COMDAT ?app@?$_Iosb@H@std@@2W4_Openmode@12@B
CONST	SEGMENT
?app@?$_Iosb@H@std@@2W4_Openmode@12@B DD 08H		; std::_Iosb<int>::app
CONST	ENDS
;	COMDAT ?ate@?$_Iosb@H@std@@2W4_Openmode@12@B
CONST	SEGMENT
?ate@?$_Iosb@H@std@@2W4_Openmode@12@B DD 04H		; std::_Iosb<int>::ate
CONST	ENDS
;	COMDAT ?out@?$_Iosb@H@std@@2W4_Openmode@12@B
CONST	SEGMENT
?out@?$_Iosb@H@std@@2W4_Openmode@12@B DD 02H		; std::_Iosb<int>::out
CONST	ENDS
;	COMDAT ?in@?$_Iosb@H@std@@2W4_Openmode@12@B
CONST	SEGMENT
?in@?$_Iosb@H@std@@2W4_Openmode@12@B DD 01H		; std::_Iosb<int>::in
CONST	ENDS
;	COMDAT ?_Hardfail@?$_Iosb@H@std@@2W4_Iostate@12@B
CONST	SEGMENT
?_Hardfail@?$_Iosb@H@std@@2W4_Iostate@12@B DD 010H	; std::_Iosb<int>::_Hardfail
CONST	ENDS
;	COMDAT ?badbit@?$_Iosb@H@std@@2W4_Iostate@12@B
CONST	SEGMENT
?badbit@?$_Iosb@H@std@@2W4_Iostate@12@B DD 04H		; std::_Iosb<int>::badbit
CONST	ENDS
;	COMDAT ?failbit@?$_Iosb@H@std@@2W4_Iostate@12@B
CONST	SEGMENT
?failbit@?$_Iosb@H@std@@2W4_Iostate@12@B DD 02H		; std::_Iosb<int>::failbit
CONST	ENDS
;	COMDAT ?eofbit@?$_Iosb@H@std@@2W4_Iostate@12@B
CONST	SEGMENT
?eofbit@?$_Iosb@H@std@@2W4_Iostate@12@B DD 01H		; std::_Iosb<int>::eofbit
CONST	ENDS
;	COMDAT ?goodbit@?$_Iosb@H@std@@2W4_Iostate@12@B
CONST	SEGMENT
?goodbit@?$_Iosb@H@std@@2W4_Iostate@12@B DD 00H		; std::_Iosb<int>::goodbit
CONST	ENDS
;	COMDAT ?floatfield@?$_Iosb@H@std@@2W4_Fmtflags@12@B
CONST	SEGMENT
?floatfield@?$_Iosb@H@std@@2W4_Fmtflags@12@B DD 03000H	; std::_Iosb<int>::floatfield
CONST	ENDS
;	COMDAT ?basefield@?$_Iosb@H@std@@2W4_Fmtflags@12@B
CONST	SEGMENT
?basefield@?$_Iosb@H@std@@2W4_Fmtflags@12@B DD 0e00H	; std::_Iosb<int>::basefield
CONST	ENDS
;	COMDAT ?adjustfield@?$_Iosb@H@std@@2W4_Fmtflags@12@B
CONST	SEGMENT
?adjustfield@?$_Iosb@H@std@@2W4_Fmtflags@12@B DD 01c0H	; std::_Iosb<int>::adjustfield
CONST	ENDS
;	COMDAT ?_Stdio@?$_Iosb@H@std@@2W4_Fmtflags@12@B
CONST	SEGMENT
?_Stdio@?$_Iosb@H@std@@2W4_Fmtflags@12@B DD 08000H	; std::_Iosb<int>::_Stdio
CONST	ENDS
;	COMDAT ?boolalpha@?$_Iosb@H@std@@2W4_Fmtflags@12@B
CONST	SEGMENT
?boolalpha@?$_Iosb@H@std@@2W4_Fmtflags@12@B DD 04000H	; std::_Iosb<int>::boolalpha
CONST	ENDS
;	COMDAT ?hexfloat@?$_Iosb@H@std@@2W4_Fmtflags@12@B
CONST	SEGMENT
?hexfloat@?$_Iosb@H@std@@2W4_Fmtflags@12@B DD 03000H	; std::_Iosb<int>::hexfloat
CONST	ENDS
;	COMDAT ?fixed@?$_Iosb@H@std@@2W4_Fmtflags@12@B
CONST	SEGMENT
?fixed@?$_Iosb@H@std@@2W4_Fmtflags@12@B DD 02000H	; std::_Iosb<int>::fixed
CONST	ENDS
;	COMDAT ?scientific@?$_Iosb@H@std@@2W4_Fmtflags@12@B
CONST	SEGMENT
?scientific@?$_Iosb@H@std@@2W4_Fmtflags@12@B DD 01000H	; std::_Iosb<int>::scientific
CONST	ENDS
;	COMDAT ?hex@?$_Iosb@H@std@@2W4_Fmtflags@12@B
CONST	SEGMENT
?hex@?$_Iosb@H@std@@2W4_Fmtflags@12@B DD 0800H		; std::_Iosb<int>::hex
CONST	ENDS
;	COMDAT ?oct@?$_Iosb@H@std@@2W4_Fmtflags@12@B
CONST	SEGMENT
?oct@?$_Iosb@H@std@@2W4_Fmtflags@12@B DD 0400H		; std::_Iosb<int>::oct
CONST	ENDS
;	COMDAT ?dec@?$_Iosb@H@std@@2W4_Fmtflags@12@B
CONST	SEGMENT
?dec@?$_Iosb@H@std@@2W4_Fmtflags@12@B DD 0200H		; std::_Iosb<int>::dec
CONST	ENDS
;	COMDAT ?internal@?$_Iosb@H@std@@2W4_Fmtflags@12@B
CONST	SEGMENT
?internal@?$_Iosb@H@std@@2W4_Fmtflags@12@B DD 0100H	; std::_Iosb<int>::internal
CONST	ENDS
;	COMDAT ?right@?$_Iosb@H@std@@2W4_Fmtflags@12@B
CONST	SEGMENT
?right@?$_Iosb@H@std@@2W4_Fmtflags@12@B DD 080H		; std::_Iosb<int>::right
CONST	ENDS
;	COMDAT ?left@?$_Iosb@H@std@@2W4_Fmtflags@12@B
CONST	SEGMENT
?left@?$_Iosb@H@std@@2W4_Fmtflags@12@B DD 040H		; std::_Iosb<int>::left
CONST	ENDS
;	COMDAT ?showpos@?$_Iosb@H@std@@2W4_Fmtflags@12@B
CONST	SEGMENT
?showpos@?$_Iosb@H@std@@2W4_Fmtflags@12@B DD 020H	; std::_Iosb<int>::showpos
CONST	ENDS
;	COMDAT ?showpoint@?$_Iosb@H@std@@2W4_Fmtflags@12@B
CONST	SEGMENT
?showpoint@?$_Iosb@H@std@@2W4_Fmtflags@12@B DD 010H	; std::_Iosb<int>::showpoint
CONST	ENDS
;	COMDAT ?showbase@?$_Iosb@H@std@@2W4_Fmtflags@12@B
CONST	SEGMENT
?showbase@?$_Iosb@H@std@@2W4_Fmtflags@12@B DD 08H	; std::_Iosb<int>::showbase
CONST	ENDS
;	COMDAT ?uppercase@?$_Iosb@H@std@@2W4_Fmtflags@12@B
CONST	SEGMENT
?uppercase@?$_Iosb@H@std@@2W4_Fmtflags@12@B DD 04H	; std::_Iosb<int>::uppercase
CONST	ENDS
;	COMDAT ?unitbuf@?$_Iosb@H@std@@2W4_Fmtflags@12@B
CONST	SEGMENT
?unitbuf@?$_Iosb@H@std@@2W4_Fmtflags@12@B DD 02H	; std::_Iosb<int>::unitbuf
CONST	ENDS
;	COMDAT ?skipws@?$_Iosb@H@std@@2W4_Fmtflags@12@B
CONST	SEGMENT
?skipws@?$_Iosb@H@std@@2W4_Fmtflags@12@B DD 01H		; std::_Iosb<int>::skipws
CONST	ENDS
;	COMDAT ?none@?$_Locbase@H@std@@2HB
CONST	SEGMENT
?none@?$_Locbase@H@std@@2HB DD 00H			; std::_Locbase<int>::none
CONST	ENDS
;	COMDAT ?all@?$_Locbase@H@std@@2HB
CONST	SEGMENT
?all@?$_Locbase@H@std@@2HB DD 03fH			; std::_Locbase<int>::all
CONST	ENDS
;	COMDAT ?messages@?$_Locbase@H@std@@2HB
CONST	SEGMENT
?messages@?$_Locbase@H@std@@2HB DD 020H			; std::_Locbase<int>::messages
CONST	ENDS
;	COMDAT ?time@?$_Locbase@H@std@@2HB
CONST	SEGMENT
?time@?$_Locbase@H@std@@2HB DD 010H			; std::_Locbase<int>::time
CONST	ENDS
;	COMDAT ?numeric@?$_Locbase@H@std@@2HB
CONST	SEGMENT
?numeric@?$_Locbase@H@std@@2HB DD 08H			; std::_Locbase<int>::numeric
CONST	ENDS
;	COMDAT ?monetary@?$_Locbase@H@std@@2HB
CONST	SEGMENT
?monetary@?$_Locbase@H@std@@2HB DD 04H			; std::_Locbase<int>::monetary
CONST	ENDS
;	COMDAT ?ctype@?$_Locbase@H@std@@2HB
CONST	SEGMENT
?ctype@?$_Locbase@H@std@@2HB DD 02H			; std::_Locbase<int>::ctype
CONST	ENDS
;	COMDAT ?collate@?$_Locbase@H@std@@2HB
CONST	SEGMENT
?collate@?$_Locbase@H@std@@2HB DD 01H			; std::_Locbase<int>::collate
CONST	ENDS
_DATA	SEGMENT
__bad_alloc_Message DD FLAT:??_C@_0P@GHFPNOJB@bad?5allocation?$AA@
_DATA	ENDS
;	COMDAT ??_C@_0P@GHFPNOJB@bad?5allocation?$AA@
CONST	SEGMENT
??_C@_0P@GHFPNOJB@bad?5allocation?$AA@ DB 'bad allocation', 00H ; `string'
CONST	ENDS
;	COMDAT ?_Value@?$_Is_swap_move@U_Swap_move_tag@std@@@std@@2_NB
CONST	SEGMENT
?_Value@?$_Is_swap_move@U_Swap_move_tag@std@@@std@@2_NB DB 01H ; std::_Is_swap_move<std::_Swap_move_tag>::_Value
CONST	ENDS
PUBLIC	?soap_serialize_SOAP_ENV__Header@@YAXPAUsoap@@PBUSOAP_ENV__Header@@@Z ; soap_serialize_SOAP_ENV__Header
PUBLIC	_soap_serializeheader
EXTRN	__RTC_CheckEsp:PROC
EXTRN	__RTC_Shutdown:PROC
EXTRN	__RTC_InitBase:PROC
;	COMDAT rtc$TMZ
; File c:\users\crius\documents\visual studio 2008\projects\dramsimiihg\src\reporting\soapc.cpp
rtc$TMZ	SEGMENT
__RTC_Shutdown.rtc$TMZ DD FLAT:__RTC_Shutdown
rtc$TMZ	ENDS
;	COMDAT rtc$IMZ
rtc$IMZ	SEGMENT
__RTC_InitBase.rtc$IMZ DD FLAT:__RTC_InitBase
; Function compile flags: /Odtp /RTCcsu /ZI
rtc$IMZ	ENDS
;	COMDAT _soap_serializeheader
_TEXT	SEGMENT
_soap$ = 8						; size = 4
_soap_serializeheader PROC				; COMDAT

; 16   : {

	push	ebp
	mov	ebp, esp
	sub	esp, 192				; 000000c0H
	push	ebx
	push	esi
	push	edi
	lea	edi, DWORD PTR [ebp-192]
	mov	ecx, 48					; 00000030H
	mov	eax, -858993460				; ccccccccH
	rep stosd

; 17   : 	if (soap->header)

	mov	eax, DWORD PTR _soap$[ebp]
	cmp	DWORD PTR [eax+12204], 0
	je	SHORT $LN2@soap_seria

; 18   : 		soap_serialize_SOAP_ENV__Header(soap, soap->header);

	mov	eax, DWORD PTR _soap$[ebp]
	mov	ecx, DWORD PTR [eax+12204]
	push	ecx
	mov	edx, DWORD PTR _soap$[ebp]
	push	edx
	call	?soap_serialize_SOAP_ENV__Header@@YAXPAUsoap@@PBUSOAP_ENV__Header@@@Z ; soap_serialize_SOAP_ENV__Header
	add	esp, 8
$LN2@soap_seria:

; 19   : }

	pop	edi
	pop	esi
	pop	ebx
	add	esp, 192				; 000000c0H
	cmp	ebp, esp
	call	__RTC_CheckEsp
	mov	esp, ebp
	pop	ebp
	ret	0
_soap_serializeheader ENDP
_TEXT	ENDS
PUBLIC	?soap_out_SOAP_ENV__Header@@YAHPAUsoap@@PBDHPBUSOAP_ENV__Header@@1@Z ; soap_out_SOAP_ENV__Header
PUBLIC	??_C@_0BA@GBPDPHCK@SOAP?9ENV?3Header?$AA@	; `string'
PUBLIC	_soap_putheader
;	COMDAT ??_C@_0BA@GBPDPHCK@SOAP?9ENV?3Header?$AA@
CONST	SEGMENT
??_C@_0BA@GBPDPHCK@SOAP?9ENV?3Header?$AA@ DB 'SOAP-ENV:Header', 00H ; `string'
; Function compile flags: /Odtp /RTCcsu /ZI
CONST	ENDS
;	COMDAT _soap_putheader
_TEXT	SEGMENT
_soap$ = 8						; size = 4
_soap_putheader PROC					; COMDAT

; 22   : {

	push	ebp
	mov	ebp, esp
	sub	esp, 192				; 000000c0H
	push	ebx
	push	esi
	push	edi
	lea	edi, DWORD PTR [ebp-192]
	mov	ecx, 48					; 00000030H
	mov	eax, -858993460				; ccccccccH
	rep stosd

; 23   : 	if (soap->header)

	mov	eax, DWORD PTR _soap$[ebp]
	cmp	DWORD PTR [eax+12204], 0
	je	SHORT $LN2@soap_puthe

; 24   : 	{	soap->part = SOAP_IN_HEADER;

	mov	eax, 3
	mov	ecx, DWORD PTR _soap$[ebp]
	mov	WORD PTR [ecx+87304], ax

; 25   : 		if (soap_out_SOAP_ENV__Header(soap, "SOAP-ENV:Header", 0, soap->header, NULL))

	push	0
	mov	eax, DWORD PTR _soap$[ebp]
	mov	ecx, DWORD PTR [eax+12204]
	push	ecx
	push	0
	push	OFFSET ??_C@_0BA@GBPDPHCK@SOAP?9ENV?3Header?$AA@
	mov	edx, DWORD PTR _soap$[ebp]
	push	edx
	call	?soap_out_SOAP_ENV__Header@@YAHPAUsoap@@PBDHPBUSOAP_ENV__Header@@1@Z ; soap_out_SOAP_ENV__Header
	add	esp, 20					; 00000014H
	test	eax, eax
	je	SHORT $LN1@soap_puthe

; 26   : 			return soap->error;

	mov	eax, DWORD PTR _soap$[ebp]
	mov	eax, DWORD PTR [eax+90460]
	jmp	SHORT $LN3@soap_puthe
$LN1@soap_puthe:

; 27   : 		soap->part = SOAP_END_HEADER;

	mov	eax, 4
	mov	ecx, DWORD PTR _soap$[ebp]
	mov	WORD PTR [ecx+87304], ax
$LN2@soap_puthe:

; 28   : 	}
; 29   : 	return SOAP_OK;

	xor	eax, eax
$LN3@soap_puthe:

; 30   : }

	pop	edi
	pop	esi
	pop	ebx
	add	esp, 192				; 000000c0H
	cmp	ebp, esp
	call	__RTC_CheckEsp
	mov	esp, ebp
	pop	ebp
	ret	0
_soap_putheader ENDP
_TEXT	ENDS
PUBLIC	?soap_in_SOAP_ENV__Header@@YAPAUSOAP_ENV__Header@@PAUsoap@@PBDPAU1@1@Z ; soap_in_SOAP_ENV__Header
PUBLIC	_soap_getheader
; Function compile flags: /Odtp /RTCcsu /ZI
;	COMDAT _soap_getheader
_TEXT	SEGMENT
_soap$ = 8						; size = 4
_soap_getheader PROC					; COMDAT

; 33   : {

	push	ebp
	mov	ebp, esp
	sub	esp, 192				; 000000c0H
	push	ebx
	push	esi
	push	edi
	lea	edi, DWORD PTR [ebp-192]
	mov	ecx, 48					; 00000030H
	mov	eax, -858993460				; ccccccccH
	rep stosd

; 34   : 	soap->part = SOAP_IN_HEADER;

	mov	eax, 3
	mov	ecx, DWORD PTR _soap$[ebp]
	mov	WORD PTR [ecx+87304], ax

; 35   : 	soap->header = soap_in_SOAP_ENV__Header(soap, "SOAP-ENV:Header", NULL, NULL);

	push	0
	push	0
	push	OFFSET ??_C@_0BA@GBPDPHCK@SOAP?9ENV?3Header?$AA@
	mov	eax, DWORD PTR _soap$[ebp]
	push	eax
	call	?soap_in_SOAP_ENV__Header@@YAPAUSOAP_ENV__Header@@PAUsoap@@PBDPAU1@1@Z ; soap_in_SOAP_ENV__Header
	add	esp, 16					; 00000010H
	mov	ecx, DWORD PTR _soap$[ebp]
	mov	DWORD PTR [ecx+12204], eax

; 36   : 	soap->part = SOAP_END_HEADER;

	mov	eax, 4
	mov	ecx, DWORD PTR _soap$[ebp]
	mov	WORD PTR [ecx+87304], ax

; 37   : 	return soap->header == NULL;

	mov	eax, DWORD PTR _soap$[ebp]
	xor	ecx, ecx
	cmp	DWORD PTR [eax+12204], 0
	sete	cl
	mov	eax, ecx

; 38   : }

	pop	edi
	pop	esi
	pop	ebx
	add	esp, 192				; 000000c0H
	cmp	ebp, esp
	call	__RTC_CheckEsp
	mov	esp, ebp
	pop	ebp
	ret	0
_soap_getheader ENDP
_TEXT	ENDS
PUBLIC	?soap_default_SOAP_ENV__Header@@YAXPAUsoap@@PAUSOAP_ENV__Header@@@Z ; soap_default_SOAP_ENV__Header
PUBLIC	?soap_new_SOAP_ENV__Header@@YAPAUSOAP_ENV__Header@@PAUsoap@@H@Z ; soap_new_SOAP_ENV__Header
PUBLIC	_soap_header
; Function compile flags: /Odtp /RTCcsu /ZI
;	COMDAT _soap_header
_TEXT	SEGMENT
_soap$ = 8						; size = 4
_soap_header PROC					; COMDAT

; 41   : {

	push	ebp
	mov	ebp, esp
	sub	esp, 192				; 000000c0H
	push	ebx
	push	esi
	push	edi
	lea	edi, DWORD PTR [ebp-192]
	mov	ecx, 48					; 00000030H
	mov	eax, -858993460				; ccccccccH
	rep stosd

; 42   : 	if (!soap->header)

	mov	eax, DWORD PTR _soap$[ebp]
	cmp	DWORD PTR [eax+12204], 0
	jne	SHORT $LN2@soap_heade

; 43   : 	{	soap->header = soap_new_SOAP_ENV__Header(soap, -1);

	push	-1
	mov	eax, DWORD PTR _soap$[ebp]
	push	eax
	call	?soap_new_SOAP_ENV__Header@@YAPAUSOAP_ENV__Header@@PAUsoap@@H@Z ; soap_new_SOAP_ENV__Header
	add	esp, 8
	mov	ecx, DWORD PTR _soap$[ebp]
	mov	DWORD PTR [ecx+12204], eax

; 44   : 		soap_default_SOAP_ENV__Header(soap, soap->header);

	mov	eax, DWORD PTR _soap$[ebp]
	mov	ecx, DWORD PTR [eax+12204]
	push	ecx
	mov	edx, DWORD PTR _soap$[ebp]
	push	edx
	call	?soap_default_SOAP_ENV__Header@@YAXPAUsoap@@PAUSOAP_ENV__Header@@@Z ; soap_default_SOAP_ENV__Header
	add	esp, 8
$LN2@soap_heade:

; 45   : 	}
; 46   : }

	pop	edi
	pop	esi
	pop	ebx
	add	esp, 192				; 000000c0H
	cmp	ebp, esp
	call	__RTC_CheckEsp
	mov	esp, ebp
	pop	ebp
	ret	0
_soap_header ENDP
_TEXT	ENDS
PUBLIC	?soap_default_SOAP_ENV__Reason@@YAXPAUsoap@@PAUSOAP_ENV__Reason@@@Z ; soap_default_SOAP_ENV__Reason
PUBLIC	?soap_new_SOAP_ENV__Reason@@YAPAUSOAP_ENV__Reason@@PAUsoap@@H@Z ; soap_new_SOAP_ENV__Reason
PUBLIC	?soap_default_SOAP_ENV__Code@@YAXPAUsoap@@PAUSOAP_ENV__Code@@@Z ; soap_default_SOAP_ENV__Code
PUBLIC	?soap_new_SOAP_ENV__Code@@YAPAUSOAP_ENV__Code@@PAUsoap@@H@Z ; soap_new_SOAP_ENV__Code
PUBLIC	?soap_default_SOAP_ENV__Fault@@YAXPAUsoap@@PAUSOAP_ENV__Fault@@@Z ; soap_default_SOAP_ENV__Fault
PUBLIC	?soap_new_SOAP_ENV__Fault@@YAPAUSOAP_ENV__Fault@@PAUsoap@@H@Z ; soap_new_SOAP_ENV__Fault
PUBLIC	_soap_fault
; Function compile flags: /Odtp /RTCcsu /ZI
;	COMDAT _soap_fault
_TEXT	SEGMENT
_soap$ = 8						; size = 4
_soap_fault PROC					; COMDAT

; 49   : {

	push	ebp
	mov	ebp, esp
	sub	esp, 192				; 000000c0H
	push	ebx
	push	esi
	push	edi
	lea	edi, DWORD PTR [ebp-192]
	mov	ecx, 48					; 00000030H
	mov	eax, -858993460				; ccccccccH
	rep stosd

; 50   : 	if (!soap->fault)

	mov	eax, DWORD PTR _soap$[ebp]
	cmp	DWORD PTR [eax+12208], 0
	jne	SHORT $LN4@soap_fault

; 51   : 	{	soap->fault = soap_new_SOAP_ENV__Fault(soap, -1);

	push	-1
	mov	eax, DWORD PTR _soap$[ebp]
	push	eax
	call	?soap_new_SOAP_ENV__Fault@@YAPAUSOAP_ENV__Fault@@PAUsoap@@H@Z ; soap_new_SOAP_ENV__Fault
	add	esp, 8
	mov	ecx, DWORD PTR _soap$[ebp]
	mov	DWORD PTR [ecx+12208], eax

; 52   : 		if (!soap->fault)

	mov	eax, DWORD PTR _soap$[ebp]
	cmp	DWORD PTR [eax+12208], 0
	jne	SHORT $LN3@soap_fault

; 53   : 			return;

	jmp	$LN5@soap_fault
$LN3@soap_fault:

; 54   : 		soap_default_SOAP_ENV__Fault(soap, soap->fault);

	mov	eax, DWORD PTR _soap$[ebp]
	mov	ecx, DWORD PTR [eax+12208]
	push	ecx
	mov	edx, DWORD PTR _soap$[ebp]
	push	edx
	call	?soap_default_SOAP_ENV__Fault@@YAXPAUsoap@@PAUSOAP_ENV__Fault@@@Z ; soap_default_SOAP_ENV__Fault
	add	esp, 8
$LN4@soap_fault:

; 55   : 	}
; 56   : 	if (soap->version == 2 && !soap->fault->SOAP_ENV__Code)

	mov	eax, DWORD PTR _soap$[ebp]
	movsx	ecx, WORD PTR [eax+6]
	cmp	ecx, 2
	jne	SHORT $LN2@soap_fault
	mov	eax, DWORD PTR _soap$[ebp]
	mov	ecx, DWORD PTR [eax+12208]
	cmp	DWORD PTR [ecx+16], 0
	jne	SHORT $LN2@soap_fault

; 57   : 	{	soap->fault->SOAP_ENV__Code = soap_new_SOAP_ENV__Code(soap, -1);

	push	-1
	mov	eax, DWORD PTR _soap$[ebp]
	push	eax
	call	?soap_new_SOAP_ENV__Code@@YAPAUSOAP_ENV__Code@@PAUsoap@@H@Z ; soap_new_SOAP_ENV__Code
	add	esp, 8
	mov	ecx, DWORD PTR _soap$[ebp]
	mov	edx, DWORD PTR [ecx+12208]
	mov	DWORD PTR [edx+16], eax

; 58   : 		soap_default_SOAP_ENV__Code(soap, soap->fault->SOAP_ENV__Code);

	mov	eax, DWORD PTR _soap$[ebp]
	mov	ecx, DWORD PTR [eax+12208]
	mov	edx, DWORD PTR [ecx+16]
	push	edx
	mov	eax, DWORD PTR _soap$[ebp]
	push	eax
	call	?soap_default_SOAP_ENV__Code@@YAXPAUsoap@@PAUSOAP_ENV__Code@@@Z ; soap_default_SOAP_ENV__Code
	add	esp, 8
$LN2@soap_fault:

; 59   : 	}
; 60   : 	if (soap->version == 2 && !soap->fault->SOAP_ENV__Reason)

	mov	eax, DWORD PTR _soap$[ebp]
	movsx	ecx, WORD PTR [eax+6]
	cmp	ecx, 2
	jne	SHORT $LN5@soap_fault
	mov	eax, DWORD PTR _soap$[ebp]
	mov	ecx, DWORD PTR [eax+12208]
	cmp	DWORD PTR [ecx+20], 0
	jne	SHORT $LN5@soap_fault

; 61   : 	{	soap->fault->SOAP_ENV__Reason = soap_new_SOAP_ENV__Reason(soap, -1);

	push	-1
	mov	eax, DWORD PTR _soap$[ebp]
	push	eax
	call	?soap_new_SOAP_ENV__Reason@@YAPAUSOAP_ENV__Reason@@PAUsoap@@H@Z ; soap_new_SOAP_ENV__Reason
	add	esp, 8
	mov	ecx, DWORD PTR _soap$[ebp]
	mov	edx, DWORD PTR [ecx+12208]
	mov	DWORD PTR [edx+20], eax

; 62   : 		soap_default_SOAP_ENV__Reason(soap, soap->fault->SOAP_ENV__Reason);

	mov	eax, DWORD PTR _soap$[ebp]
	mov	ecx, DWORD PTR [eax+12208]
	mov	edx, DWORD PTR [ecx+20]
	push	edx
	mov	eax, DWORD PTR _soap$[ebp]
	push	eax
	call	?soap_default_SOAP_ENV__Reason@@YAXPAUsoap@@PAUSOAP_ENV__Reason@@@Z ; soap_default_SOAP_ENV__Reason
	add	esp, 8
$LN5@soap_fault:

; 63   : 	}
; 64   : }

	pop	edi
	pop	esi
	pop	ebx
	add	esp, 192				; 000000c0H
	cmp	ebp, esp
	call	__RTC_CheckEsp
	mov	esp, ebp
	pop	ebp
	ret	0
_soap_fault ENDP
_TEXT	ENDS
PUBLIC	?soap_serialize_SOAP_ENV__Fault@@YAXPAUsoap@@PBUSOAP_ENV__Fault@@@Z ; soap_serialize_SOAP_ENV__Fault
PUBLIC	_soap_serializefault
; Function compile flags: /Odtp /RTCcsu /ZI
;	COMDAT _soap_serializefault
_TEXT	SEGMENT
_soap$ = 8						; size = 4
_soap_serializefault PROC				; COMDAT

; 67   : {

	push	ebp
	mov	ebp, esp
	sub	esp, 192				; 000000c0H
	push	ebx
	push	esi
	push	edi
	lea	edi, DWORD PTR [ebp-192]
	mov	ecx, 48					; 00000030H
	mov	eax, -858993460				; ccccccccH
	rep stosd

; 68   : 	soap_fault(soap);

	mov	eax, DWORD PTR _soap$[ebp]
	push	eax
	call	_soap_fault
	add	esp, 4

; 69   : 	if (soap->fault)

	mov	eax, DWORD PTR _soap$[ebp]
	cmp	DWORD PTR [eax+12208], 0
	je	SHORT $LN2@soap_seria@2

; 70   : 		soap_serialize_SOAP_ENV__Fault(soap, soap->fault);

	mov	eax, DWORD PTR _soap$[ebp]
	mov	ecx, DWORD PTR [eax+12208]
	push	ecx
	mov	edx, DWORD PTR _soap$[ebp]
	push	edx
	call	?soap_serialize_SOAP_ENV__Fault@@YAXPAUsoap@@PBUSOAP_ENV__Fault@@@Z ; soap_serialize_SOAP_ENV__Fault
	add	esp, 8
$LN2@soap_seria@2:

; 71   : }

	pop	edi
	pop	esi
	pop	ebx
	add	esp, 192				; 000000c0H
	cmp	ebp, esp
	call	__RTC_CheckEsp
	mov	esp, ebp
	pop	ebp
	ret	0
_soap_serializefault ENDP
_TEXT	ENDS
PUBLIC	?soap_put_SOAP_ENV__Fault@@YAHPAUsoap@@PBUSOAP_ENV__Fault@@PBD2@Z ; soap_put_SOAP_ENV__Fault
PUBLIC	??_C@_0P@GLDIJMBO@SOAP?9ENV?3Fault?$AA@		; `string'
PUBLIC	_soap_putfault
;	COMDAT ??_C@_0P@GLDIJMBO@SOAP?9ENV?3Fault?$AA@
CONST	SEGMENT
??_C@_0P@GLDIJMBO@SOAP?9ENV?3Fault?$AA@ DB 'SOAP-ENV:Fault', 00H ; `string'
; Function compile flags: /Odtp /RTCcsu /ZI
CONST	ENDS
;	COMDAT _soap_putfault
_TEXT	SEGMENT
_soap$ = 8						; size = 4
_soap_putfault PROC					; COMDAT

; 74   : {

	push	ebp
	mov	ebp, esp
	sub	esp, 192				; 000000c0H
	push	ebx
	push	esi
	push	edi
	lea	edi, DWORD PTR [ebp-192]
	mov	ecx, 48					; 00000030H
	mov	eax, -858993460				; ccccccccH
	rep stosd

; 75   : 	if (soap->fault)

	mov	eax, DWORD PTR _soap$[ebp]
	cmp	DWORD PTR [eax+12208], 0
	je	SHORT $LN1@soap_putfa

; 76   : 		return soap_put_SOAP_ENV__Fault(soap, soap->fault, "SOAP-ENV:Fault", NULL);

	push	0
	push	OFFSET ??_C@_0P@GLDIJMBO@SOAP?9ENV?3Fault?$AA@
	mov	eax, DWORD PTR _soap$[ebp]
	mov	ecx, DWORD PTR [eax+12208]
	push	ecx
	mov	edx, DWORD PTR _soap$[ebp]
	push	edx
	call	?soap_put_SOAP_ENV__Fault@@YAHPAUsoap@@PBUSOAP_ENV__Fault@@PBD2@Z ; soap_put_SOAP_ENV__Fault
	add	esp, 16					; 00000010H
	jmp	SHORT $LN2@soap_putfa
$LN1@soap_putfa:

; 77   : 	return SOAP_OK;

	xor	eax, eax
$LN2@soap_putfa:

; 78   : }

	pop	edi
	pop	esi
	pop	ebx
	add	esp, 192				; 000000c0H
	cmp	ebp, esp
	call	__RTC_CheckEsp
	mov	esp, ebp
	pop	ebp
	ret	0
_soap_putfault ENDP
_TEXT	ENDS
PUBLIC	?soap_get_SOAP_ENV__Fault@@YAPAUSOAP_ENV__Fault@@PAUsoap@@PAU1@PBD2@Z ; soap_get_SOAP_ENV__Fault
PUBLIC	_soap_getfault
; Function compile flags: /Odtp /RTCcsu /ZI
;	COMDAT _soap_getfault
_TEXT	SEGMENT
_soap$ = 8						; size = 4
_soap_getfault PROC					; COMDAT

; 81   : {

	push	ebp
	mov	ebp, esp
	sub	esp, 192				; 000000c0H
	push	ebx
	push	esi
	push	edi
	lea	edi, DWORD PTR [ebp-192]
	mov	ecx, 48					; 00000030H
	mov	eax, -858993460				; ccccccccH
	rep stosd

; 82   : 	return (soap->fault = soap_get_SOAP_ENV__Fault(soap, NULL, "SOAP-ENV:Fault", NULL)) == NULL;

	push	0
	push	OFFSET ??_C@_0P@GLDIJMBO@SOAP?9ENV?3Fault?$AA@
	push	0
	mov	eax, DWORD PTR _soap$[ebp]
	push	eax
	call	?soap_get_SOAP_ENV__Fault@@YAPAUSOAP_ENV__Fault@@PAUsoap@@PAU1@PBD2@Z ; soap_get_SOAP_ENV__Fault
	add	esp, 16					; 00000010H
	mov	ecx, DWORD PTR _soap$[ebp]
	mov	DWORD PTR [ecx+12208], eax
	mov	edx, DWORD PTR _soap$[ebp]
	xor	eax, eax
	cmp	DWORD PTR [edx+12208], 0
	sete	al

; 83   : }

	pop	edi
	pop	esi
	pop	ebx
	add	esp, 192				; 000000c0H
	cmp	ebp, esp
	call	__RTC_CheckEsp
	mov	esp, ebp
	pop	ebp
	ret	0
_soap_getfault ENDP
_TEXT	ENDS
PUBLIC	_soap_faultcode
; Function compile flags: /Odtp /RTCcsu /ZI
;	COMDAT _soap_faultcode
_TEXT	SEGMENT
_soap$ = 8						; size = 4
_soap_faultcode PROC					; COMDAT

; 86   : {

	push	ebp
	mov	ebp, esp
	sub	esp, 192				; 000000c0H
	push	ebx
	push	esi
	push	edi
	lea	edi, DWORD PTR [ebp-192]
	mov	ecx, 48					; 00000030H
	mov	eax, -858993460				; ccccccccH
	rep stosd

; 87   : 	soap_fault(soap);

	mov	eax, DWORD PTR _soap$[ebp]
	push	eax
	call	_soap_fault
	add	esp, 4

; 88   : 	if (soap->version == 2)

	mov	eax, DWORD PTR _soap$[ebp]
	movsx	ecx, WORD PTR [eax+6]
	cmp	ecx, 2
	jne	SHORT $LN1@soap_fault@2

; 89   : 		return (const char**)&soap->fault->SOAP_ENV__Code->SOAP_ENV__Value;

	mov	eax, DWORD PTR _soap$[ebp]
	mov	ecx, DWORD PTR [eax+12208]
	mov	eax, DWORD PTR [ecx+16]
	jmp	SHORT $LN2@soap_fault@2
$LN1@soap_fault@2:

; 90   : 	return (const char**)&soap->fault->faultcode;

	mov	eax, DWORD PTR _soap$[ebp]
	mov	eax, DWORD PTR [eax+12208]
$LN2@soap_fault@2:

; 91   : }

	pop	edi
	pop	esi
	pop	ebx
	add	esp, 192				; 000000c0H
	cmp	ebp, esp
	call	__RTC_CheckEsp
	mov	esp, ebp
	pop	ebp
	ret	0
_soap_faultcode ENDP
_TEXT	ENDS
PUBLIC	_soap_faultsubcode
; Function compile flags: /Odtp /RTCcsu /ZI
;	COMDAT _soap_faultsubcode
_TEXT	SEGMENT
_soap$ = 8						; size = 4
_soap_faultsubcode PROC					; COMDAT

; 94   : {

	push	ebp
	mov	ebp, esp
	sub	esp, 192				; 000000c0H
	push	ebx
	push	esi
	push	edi
	lea	edi, DWORD PTR [ebp-192]
	mov	ecx, 48					; 00000030H
	mov	eax, -858993460				; ccccccccH
	rep stosd

; 95   : 	soap_fault(soap);

	mov	eax, DWORD PTR _soap$[ebp]
	push	eax
	call	_soap_fault
	add	esp, 4

; 96   : 	if (soap->version == 2)

	mov	eax, DWORD PTR _soap$[ebp]
	movsx	ecx, WORD PTR [eax+6]
	cmp	ecx, 2
	jne	SHORT $LN2@soap_fault@3

; 97   : 	{	if (!soap->fault->SOAP_ENV__Code->SOAP_ENV__Subcode)

	mov	eax, DWORD PTR _soap$[ebp]
	mov	ecx, DWORD PTR [eax+12208]
	mov	edx, DWORD PTR [ecx+16]
	cmp	DWORD PTR [edx+4], 0
	jne	SHORT $LN1@soap_fault@3

; 98   : 		{	soap->fault->SOAP_ENV__Code->SOAP_ENV__Subcode = soap_new_SOAP_ENV__Code(soap, -1);

	push	-1
	mov	eax, DWORD PTR _soap$[ebp]
	push	eax
	call	?soap_new_SOAP_ENV__Code@@YAPAUSOAP_ENV__Code@@PAUsoap@@H@Z ; soap_new_SOAP_ENV__Code
	add	esp, 8
	mov	ecx, DWORD PTR _soap$[ebp]
	mov	edx, DWORD PTR [ecx+12208]
	mov	ecx, DWORD PTR [edx+16]
	mov	DWORD PTR [ecx+4], eax

; 99   : 			soap_default_SOAP_ENV__Code(soap, soap->fault->SOAP_ENV__Code->SOAP_ENV__Subcode);

	mov	eax, DWORD PTR _soap$[ebp]
	mov	ecx, DWORD PTR [eax+12208]
	mov	edx, DWORD PTR [ecx+16]
	mov	eax, DWORD PTR [edx+4]
	push	eax
	mov	ecx, DWORD PTR _soap$[ebp]
	push	ecx
	call	?soap_default_SOAP_ENV__Code@@YAXPAUsoap@@PAUSOAP_ENV__Code@@@Z ; soap_default_SOAP_ENV__Code
	add	esp, 8
$LN1@soap_fault@3:

; 100  : 		}
; 101  : 		return (const char**)&soap->fault->SOAP_ENV__Code->SOAP_ENV__Subcode->SOAP_ENV__Value;

	mov	eax, DWORD PTR _soap$[ebp]
	mov	ecx, DWORD PTR [eax+12208]
	mov	edx, DWORD PTR [ecx+16]
	mov	eax, DWORD PTR [edx+4]
	jmp	SHORT $LN3@soap_fault@3
$LN2@soap_fault@3:

; 102  : 	}
; 103  : 	return (const char**)&soap->fault->faultcode;

	mov	eax, DWORD PTR _soap$[ebp]
	mov	eax, DWORD PTR [eax+12208]
$LN3@soap_fault@3:

; 104  : }

	pop	edi
	pop	esi
	pop	ebx
	add	esp, 192				; 000000c0H
	cmp	ebp, esp
	call	__RTC_CheckEsp
	mov	esp, ebp
	pop	ebp
	ret	0
_soap_faultsubcode ENDP
_TEXT	ENDS
PUBLIC	_soap_faultstring
; Function compile flags: /Odtp /RTCcsu /ZI
;	COMDAT _soap_faultstring
_TEXT	SEGMENT
_soap$ = 8						; size = 4
_soap_faultstring PROC					; COMDAT

; 107  : {

	push	ebp
	mov	ebp, esp
	sub	esp, 192				; 000000c0H
	push	ebx
	push	esi
	push	edi
	lea	edi, DWORD PTR [ebp-192]
	mov	ecx, 48					; 00000030H
	mov	eax, -858993460				; ccccccccH
	rep stosd

; 108  : 	soap_fault(soap);

	mov	eax, DWORD PTR _soap$[ebp]
	push	eax
	call	_soap_fault
	add	esp, 4

; 109  : 	if (soap->version == 2)

	mov	eax, DWORD PTR _soap$[ebp]
	movsx	ecx, WORD PTR [eax+6]
	cmp	ecx, 2
	jne	SHORT $LN1@soap_fault@4

; 110  : 		return (const char**)&soap->fault->SOAP_ENV__Reason->SOAP_ENV__Text;

	mov	eax, DWORD PTR _soap$[ebp]
	mov	ecx, DWORD PTR [eax+12208]
	mov	eax, DWORD PTR [ecx+20]
	jmp	SHORT $LN2@soap_fault@4
$LN1@soap_fault@4:

; 111  : 	return (const char**)&soap->fault->faultstring;

	mov	eax, DWORD PTR _soap$[ebp]
	mov	eax, DWORD PTR [eax+12208]
	add	eax, 4
$LN2@soap_fault@4:

; 112  : }

	pop	edi
	pop	esi
	pop	ebx
	add	esp, 192				; 000000c0H
	cmp	ebp, esp
	call	__RTC_CheckEsp
	mov	esp, ebp
	pop	ebp
	ret	0
_soap_faultstring ENDP
_TEXT	ENDS
PUBLIC	?soap_new_SOAP_ENV__Detail@@YAPAUSOAP_ENV__Detail@@PAUsoap@@H@Z ; soap_new_SOAP_ENV__Detail
PUBLIC	?soap_default_SOAP_ENV__Detail@@YAXPAUsoap@@PAUSOAP_ENV__Detail@@@Z ; soap_default_SOAP_ENV__Detail
PUBLIC	_soap_faultdetail
EXTRN	_soap_malloc:PROC
; Function compile flags: /Odtp /RTCcsu /ZI
;	COMDAT _soap_faultdetail
_TEXT	SEGMENT
_soap$ = 8						; size = 4
_soap_faultdetail PROC					; COMDAT

; 115  : {

	push	ebp
	mov	ebp, esp
	sub	esp, 192				; 000000c0H
	push	ebx
	push	esi
	push	edi
	lea	edi, DWORD PTR [ebp-192]
	mov	ecx, 48					; 00000030H
	mov	eax, -858993460				; ccccccccH
	rep stosd

; 116  : 	soap_fault(soap);

	mov	eax, DWORD PTR _soap$[ebp]
	push	eax
	call	_soap_fault
	add	esp, 4

; 117  : 	if (soap->version == 1)

	mov	eax, DWORD PTR _soap$[ebp]
	movsx	ecx, WORD PTR [eax+6]
	cmp	ecx, 1
	jne	SHORT $LN3@soap_fault@5

; 118  : 	{	if (!soap->fault->detail)

	mov	eax, DWORD PTR _soap$[ebp]
	mov	ecx, DWORD PTR [eax+12208]
	cmp	DWORD PTR [ecx+12], 0
	jne	SHORT $LN2@soap_fault@5

; 119  : 		{	soap->fault->detail = (struct SOAP_ENV__Detail*)soap_malloc(soap, sizeof(struct SOAP_ENV__Detail));

	push	12					; 0000000cH
	mov	eax, DWORD PTR _soap$[ebp]
	push	eax
	call	_soap_malloc
	add	esp, 8
	mov	ecx, DWORD PTR _soap$[ebp]
	mov	edx, DWORD PTR [ecx+12208]
	mov	DWORD PTR [edx+12], eax

; 120  : 			soap_default_SOAP_ENV__Detail(soap, soap->fault->detail);

	mov	eax, DWORD PTR _soap$[ebp]
	mov	ecx, DWORD PTR [eax+12208]
	mov	edx, DWORD PTR [ecx+12]
	push	edx
	mov	eax, DWORD PTR _soap$[ebp]
	push	eax
	call	?soap_default_SOAP_ENV__Detail@@YAXPAUsoap@@PAUSOAP_ENV__Detail@@@Z ; soap_default_SOAP_ENV__Detail
	add	esp, 8
$LN2@soap_fault@5:

; 121  : 		}
; 122  : 		return (const char**)&soap->fault->detail->__any;

	mov	eax, DWORD PTR _soap$[ebp]
	mov	ecx, DWORD PTR [eax+12208]
	mov	eax, DWORD PTR [ecx+12]
	add	eax, 8
	jmp	SHORT $LN4@soap_fault@5
$LN3@soap_fault@5:

; 123  : 	}
; 124  : 	if (!soap->fault->SOAP_ENV__Detail)

	mov	eax, DWORD PTR _soap$[ebp]
	mov	ecx, DWORD PTR [eax+12208]
	cmp	DWORD PTR [ecx+32], 0
	jne	SHORT $LN1@soap_fault@5

; 125  : 	{	soap->fault->SOAP_ENV__Detail = soap_new_SOAP_ENV__Detail(soap, -1);

	push	-1
	mov	eax, DWORD PTR _soap$[ebp]
	push	eax
	call	?soap_new_SOAP_ENV__Detail@@YAPAUSOAP_ENV__Detail@@PAUsoap@@H@Z ; soap_new_SOAP_ENV__Detail
	add	esp, 8
	mov	ecx, DWORD PTR _soap$[ebp]
	mov	edx, DWORD PTR [ecx+12208]
	mov	DWORD PTR [edx+32], eax

; 126  : 		soap_default_SOAP_ENV__Detail(soap, soap->fault->SOAP_ENV__Detail);

	mov	eax, DWORD PTR _soap$[ebp]
	mov	ecx, DWORD PTR [eax+12208]
	mov	edx, DWORD PTR [ecx+32]
	push	edx
	mov	eax, DWORD PTR _soap$[ebp]
	push	eax
	call	?soap_default_SOAP_ENV__Detail@@YAXPAUsoap@@PAUSOAP_ENV__Detail@@@Z ; soap_default_SOAP_ENV__Detail
	add	esp, 8
$LN1@soap_fault@5:

; 127  : 	}
; 128  : 	return (const char**)&soap->fault->SOAP_ENV__Detail->__any;

	mov	eax, DWORD PTR _soap$[ebp]
	mov	ecx, DWORD PTR [eax+12208]
	mov	eax, DWORD PTR [ecx+32]
	add	eax, 8
$LN4@soap_fault@5:

; 129  : }

	pop	edi
	pop	esi
	pop	ebx
	add	esp, 192				; 000000c0H
	cmp	ebp, esp
	call	__RTC_CheckEsp
	mov	esp, ebp
	pop	ebp
	ret	0
_soap_faultdetail ENDP
_TEXT	ENDS
PUBLIC	?soap_ignore_element@@YAHPAUsoap@@@Z		; soap_ignore_element
PUBLIC	_soap_getelement
PUBLIC	?soap_getindependent@@YAHPAUsoap@@@Z		; soap_getindependent
EXTRN	@_RTC_CheckStackVars@8:PROC
; Function compile flags: /Odtp /RTCcsu /ZI
;	COMDAT ?soap_getindependent@@YAHPAUsoap@@@Z
_TEXT	SEGMENT
_t$ = -8						; size = 4
_soap$ = 8						; size = 4
?soap_getindependent@@YAHPAUsoap@@@Z PROC		; soap_getindependent, COMDAT

; 135  : {

	push	ebp
	mov	ebp, esp
	sub	esp, 204				; 000000ccH
	push	ebx
	push	esi
	push	edi
	lea	edi, DWORD PTR [ebp-204]
	mov	ecx, 51					; 00000033H
	mov	eax, -858993460				; ccccccccH
	rep stosd
$LN7@soap_getin:

; 136  : 	int t;
; 137  : 	for (;;)
; 138  : 		if (!soap_getelement(soap, &t))

	lea	eax, DWORD PTR _t$[ebp]
	push	eax
	mov	ecx, DWORD PTR _soap$[ebp]
	push	ecx
	call	_soap_getelement
	add	esp, 8
	test	eax, eax
	jne	SHORT $LN5@soap_getin

; 139  : 			if (soap->error || soap_ignore_element(soap))

	mov	eax, DWORD PTR _soap$[ebp]
	cmp	DWORD PTR [eax+90460], 0
	jne	SHORT $LN3@soap_getin
	mov	eax, DWORD PTR _soap$[ebp]
	push	eax
	call	?soap_ignore_element@@YAHPAUsoap@@@Z	; soap_ignore_element
	add	esp, 4
	test	eax, eax
	je	SHORT $LN5@soap_getin
$LN3@soap_getin:

; 140  : 				break;

	jmp	SHORT $LN6@soap_getin
$LN5@soap_getin:

; 141  : 	if (soap->error == SOAP_NO_TAG || soap->error == SOAP_EOF)

	jmp	SHORT $LN7@soap_getin
$LN6@soap_getin:
	mov	eax, DWORD PTR _soap$[ebp]
	cmp	DWORD PTR [eax+90460], 6
	je	SHORT $LN1@soap_getin
	mov	eax, DWORD PTR _soap$[ebp]
	cmp	DWORD PTR [eax+90460], -1
	jne	SHORT $LN2@soap_getin
$LN1@soap_getin:

; 142  : 		soap->error = SOAP_OK;

	mov	eax, DWORD PTR _soap$[ebp]
	mov	DWORD PTR [eax+90460], 0
$LN2@soap_getin:

; 143  : 	return soap->error;

	mov	eax, DWORD PTR _soap$[ebp]
	mov	eax, DWORD PTR [eax+90460]

; 144  : }

	push	edx
	mov	ecx, ebp
	push	eax
	lea	edx, DWORD PTR $LN12@soap_getin
	call	@_RTC_CheckStackVars@8
	pop	eax
	pop	edx
	pop	edi
	pop	esi
	pop	ebx
	add	esp, 204				; 000000ccH
	cmp	ebp, esp
	call	__RTC_CheckEsp
	mov	esp, ebp
	pop	ebp
	ret	0
	npad	3
$LN12@soap_getin:
	DD	1
	DD	$LN11@soap_getin
$LN11@soap_getin:
	DD	-8					; fffffff8H
	DD	4
	DD	$LN10@soap_getin
$LN10@soap_getin:
	DB	116					; 00000074H
	DB	0
?soap_getindependent@@YAHPAUsoap@@@Z ENDP		; soap_getindependent
_TEXT	ENDS
PUBLIC	?soap_in__QName@@YAPAPADPAUsoap@@PBDPAPAD1@Z	; soap_in__QName
PUBLIC	??_C@_09JDHJJDCF@xsd?3QName?$AA@		; `string'
PUBLIC	?soap_in__ns2__getSessionIDElement@@YAPAV_ns2__getSessionIDElement@@PAUsoap@@PBDPAV1@1@Z ; soap_in__ns2__getSessionIDElement
PUBLIC	?soap_in__ns2__getSessionIDResponseElement@@YAPAV_ns2__getSessionIDResponseElement@@PAUsoap@@PBDPAV1@1@Z ; soap_in__ns2__getSessionIDResponseElement
PUBLIC	?soap_in__ns2__getSettingsFileElement@@YAPAV_ns2__getSettingsFileElement@@PAUsoap@@PBDPAV1@1@Z ; soap_in__ns2__getSettingsFileElement
PUBLIC	?soap_in__ns2__getSettingsFileResponseElement@@YAPAV_ns2__getSettingsFileResponseElement@@PAUsoap@@PBDPAV1@1@Z ; soap_in__ns2__getSettingsFileResponseElement
PUBLIC	?soap_in__ns2__submitEpochResultElement@@YAPAV_ns2__submitEpochResultElement@@PAUsoap@@PBDPAV1@1@Z ; soap_in__ns2__submitEpochResultElement
PUBLIC	?soap_in__ns2__submitEpochResultResponseElement@@YAPAV_ns2__submitEpochResultResponseElement@@PAUsoap@@PBDPAV1@1@Z ; soap_in__ns2__submitEpochResultResponseElement
PUBLIC	?soap_in_string@@YAPAPADPAUsoap@@PBDPAPAD1@Z	; soap_in_string
PUBLIC	?soap_in_PointerTostd__string@@YAPAPAV?$basic_string@DU?$char_traits@D@std@@V?$allocator@D@2@@std@@PAUsoap@@PBDPAPAV12@1@Z ; soap_in_PointerTostd__string
PUBLIC	?soap_in_PointerTo_ns2__getSessionIDElement@@YAPAPAV_ns2__getSessionIDElement@@PAUsoap@@PBDPAPAV1@1@Z ; soap_in_PointerTo_ns2__getSessionIDElement
PUBLIC	??_C@_0BI@CHGDHCPP@ns2?3getSessionIDElement?$AA@ ; `string'
PUBLIC	?soap_in_PointerTo_ns2__getSessionIDResponseElement@@YAPAPAV_ns2__getSessionIDResponseElement@@PAUsoap@@PBDPAPAV1@1@Z ; soap_in_PointerTo_ns2__getSessionIDResponseElement
PUBLIC	??_C@_0CA@KPMHIEOJ@ns2?3getSessionIDResponseElement?$AA@ ; `string'
PUBLIC	?soap_in_PointerTo_ns2__getSettingsFileElement@@YAPAPAV_ns2__getSettingsFileElement@@PAUsoap@@PBDPAPAV1@1@Z ; soap_in_PointerTo_ns2__getSettingsFileElement
PUBLIC	??_C@_0BL@EBHOCBLE@ns2?3getSettingsFileElement?$AA@ ; `string'
PUBLIC	?soap_in_PointerTo_ns2__getSettingsFileResponseElement@@YAPAPAV_ns2__getSettingsFileResponseElement@@PAUsoap@@PBDPAPAV1@1@Z ; soap_in_PointerTo_ns2__getSettingsFileResponseElement
PUBLIC	??_C@_0CD@GADHDKNA@ns2?3getSettingsFileResponseEleme@ ; `string'
PUBLIC	?soap_in_PointerTo_ns2__submitEpochResultElement@@YAPAPAV_ns2__submitEpochResultElement@@PAUsoap@@PBDPAPAV1@1@Z ; soap_in_PointerTo_ns2__submitEpochResultElement
PUBLIC	??_C@_0BN@LEHNEPKC@ns2?3submitEpochResultElement?$AA@ ; `string'
PUBLIC	?soap_in_PointerTo_ns2__submitEpochResultResponseElement@@YAPAPAV_ns2__submitEpochResultResponseElement@@PAUsoap@@PBDPAPAV1@1@Z ; soap_in_PointerTo_ns2__submitEpochResultResponseElement
PUBLIC	??_C@_0CF@HCKJIEH@ns2?3submitEpochResultResponseEle@ ; `string'
PUBLIC	?soap_in_xsd__anyType@@YAPAVxsd__anyType@@PAUsoap@@PBDPAV1@1@Z ; soap_in_xsd__anyType
PUBLIC	??_C@_0M@NOIFKOBF@xsd?3anyType?$AA@		; `string'
PUBLIC	?soap_in_xsd__boolean@@YAPAVxsd__boolean@@PAUsoap@@PBDPAV1@1@Z ; soap_in_xsd__boolean
PUBLIC	?soap_in_xsd__float@@YAPAVxsd__float@@PAUsoap@@PBDPAV1@1@Z ; soap_in_xsd__float
PUBLIC	?soap_in_xsd__int@@YAPAVxsd__int@@PAUsoap@@PBDPAV1@1@Z ; soap_in_xsd__int
PUBLIC	?soap_in_xsd__long@@YAPAVxsd__long@@PAUsoap@@PBDPAV1@1@Z ; soap_in_xsd__long
PUBLIC	?soap_in_xsd__string@@YAPAVxsd__string@@PAUsoap@@PBDPAV1@1@Z ; soap_in_xsd__string
PUBLIC	?soap_in_std__string@@YAPAV?$basic_string@DU?$char_traits@D@std@@V?$allocator@D@2@@std@@PAUsoap@@PBDPAV12@1@Z ; soap_in_std__string
PUBLIC	??_C@_0L@DIJPMJCO@xsd?3string?$AA@		; `string'
PUBLIC	?soap_in_bool@@YAPA_NPAUsoap@@PBDPA_N1@Z	; soap_in_bool
PUBLIC	??_C@_0M@FGHMEICI@xsd?3boolean?$AA@		; `string'
PUBLIC	?soap_in_float@@YAPAMPAUsoap@@PBDPAM1@Z		; soap_in_float
PUBLIC	??_C@_09ILBLHFBD@xsd?3float?$AA@		; `string'
PUBLIC	?soap_in_LONG64@@YAPA_JPAUsoap@@PBDPA_J1@Z	; soap_in_LONG64
PUBLIC	??_C@_08PNDIDGIB@xsd?3long?$AA@			; `string'
PUBLIC	?soap_in_int@@YAPAHPAUsoap@@PBDPAH1@Z		; soap_in_int
PUBLIC	??_C@_07PCIGPDP@xsd?3int?$AA@			; `string'
PUBLIC	?soap_in_byte@@YAPADPAUsoap@@PBDPAD1@Z		; soap_in_byte
PUBLIC	??_C@_08BEPNMEIH@xsd?3byte?$AA@			; `string'
EXTRN	_soap_match_tag:PROC
EXTRN	_soap_lookup_type:PROC
EXTRN	_soap_peek_element:PROC
;	COMDAT ??_C@_09JDHJJDCF@xsd?3QName?$AA@
CONST	SEGMENT
??_C@_09JDHJJDCF@xsd?3QName?$AA@ DB 'xsd:QName', 00H	; `string'
CONST	ENDS
;	COMDAT ??_C@_0BI@CHGDHCPP@ns2?3getSessionIDElement?$AA@
CONST	SEGMENT
??_C@_0BI@CHGDHCPP@ns2?3getSessionIDElement?$AA@ DB 'ns2:getSessionIDElem'
	DB	'ent', 00H					; `string'
CONST	ENDS
;	COMDAT ??_C@_0CA@KPMHIEOJ@ns2?3getSessionIDResponseElement?$AA@
CONST	SEGMENT
??_C@_0CA@KPMHIEOJ@ns2?3getSessionIDResponseElement?$AA@ DB 'ns2:getSessi'
	DB	'onIDResponseElement', 00H			; `string'
CONST	ENDS
;	COMDAT ??_C@_0BL@EBHOCBLE@ns2?3getSettingsFileElement?$AA@
CONST	SEGMENT
??_C@_0BL@EBHOCBLE@ns2?3getSettingsFileElement?$AA@ DB 'ns2:getSettingsFi'
	DB	'leElement', 00H				; `string'
CONST	ENDS
;	COMDAT ??_C@_0CD@GADHDKNA@ns2?3getSettingsFileResponseEleme@
CONST	SEGMENT
??_C@_0CD@GADHDKNA@ns2?3getSettingsFileResponseEleme@ DB 'ns2:getSettings'
	DB	'FileResponseElement', 00H			; `string'
CONST	ENDS
;	COMDAT ??_C@_0BN@LEHNEPKC@ns2?3submitEpochResultElement?$AA@
CONST	SEGMENT
??_C@_0BN@LEHNEPKC@ns2?3submitEpochResultElement?$AA@ DB 'ns2:submitEpoch'
	DB	'ResultElement', 00H				; `string'
CONST	ENDS
;	COMDAT ??_C@_0CF@HCKJIEH@ns2?3submitEpochResultResponseEle@
CONST	SEGMENT
??_C@_0CF@HCKJIEH@ns2?3submitEpochResultResponseEle@ DB 'ns2:submitEpochR'
	DB	'esultResponseElement', 00H			; `string'
CONST	ENDS
;	COMDAT ??_C@_0M@NOIFKOBF@xsd?3anyType?$AA@
CONST	SEGMENT
??_C@_0M@NOIFKOBF@xsd?3anyType?$AA@ DB 'xsd:anyType', 00H ; `string'
CONST	ENDS
;	COMDAT ??_C@_0L@DIJPMJCO@xsd?3string?$AA@
CONST	SEGMENT
??_C@_0L@DIJPMJCO@xsd?3string?$AA@ DB 'xsd:string', 00H	; `string'
CONST	ENDS
;	COMDAT ??_C@_0M@FGHMEICI@xsd?3boolean?$AA@
CONST	SEGMENT
??_C@_0M@FGHMEICI@xsd?3boolean?$AA@ DB 'xsd:boolean', 00H ; `string'
CONST	ENDS
;	COMDAT ??_C@_09ILBLHFBD@xsd?3float?$AA@
CONST	SEGMENT
??_C@_09ILBLHFBD@xsd?3float?$AA@ DB 'xsd:float', 00H	; `string'
CONST	ENDS
;	COMDAT ??_C@_08PNDIDGIB@xsd?3long?$AA@
CONST	SEGMENT
??_C@_08PNDIDGIB@xsd?3long?$AA@ DB 'xsd:long', 00H	; `string'
CONST	ENDS
;	COMDAT ??_C@_07PCIGPDP@xsd?3int?$AA@
CONST	SEGMENT
??_C@_07PCIGPDP@xsd?3int?$AA@ DB 'xsd:int', 00H		; `string'
CONST	ENDS
;	COMDAT ??_C@_08BEPNMEIH@xsd?3byte?$AA@
CONST	SEGMENT
??_C@_08BEPNMEIH@xsd?3byte?$AA@ DB 'xsd:byte', 00H	; `string'
; Function compile flags: /Odtp /RTCcsu /ZI
CONST	ENDS
;	COMDAT _soap_getelement
_TEXT	SEGMENT
tv423 = -244						; size = 4
tv350 = -244						; size = 4
tv214 = -244						; size = 4
tv80 = -244						; size = 4
_s$86839 = -44						; size = 4
_s$86830 = -32						; size = 4
_t$86815 = -20						; size = 4
_s$86813 = -8						; size = 4
_soap$ = 8						; size = 4
_type$ = 12						; size = 4
_soap_getelement PROC					; COMDAT

; 153  : {

	push	ebp
	mov	ebp, esp
	sub	esp, 244				; 000000f4H
	push	ebx
	push	esi
	push	edi
	lea	edi, DWORD PTR [ebp-244]
	mov	ecx, 61					; 0000003dH
	mov	eax, -858993460				; ccccccccH
	rep stosd

; 154  : 	if (soap_peek_element(soap))

	mov	eax, DWORD PTR _soap$[ebp]
	push	eax
	call	_soap_peek_element
	add	esp, 4
	test	eax, eax
	je	SHORT $LN47@soap_getel

; 155  : 		return NULL;

	xor	eax, eax
	jmp	$LN48@soap_getel
$LN47@soap_getel:

; 156  : 	if (!*soap->id || !(*type = soap_lookup_type(soap, soap->id)))

	mov	eax, DWORD PTR _soap$[ebp]
	movsx	ecx, BYTE PTR [eax+81076]
	test	ecx, ecx
	je	SHORT $LN45@soap_getel
	mov	eax, DWORD PTR _soap$[ebp]
	add	eax, 81076				; 00013cb4H
	push	eax
	mov	ecx, DWORD PTR _soap$[ebp]
	push	ecx
	call	_soap_lookup_type
	add	esp, 8
	mov	edx, DWORD PTR _type$[ebp]
	mov	DWORD PTR [edx], eax
	mov	eax, DWORD PTR _type$[ebp]
	cmp	DWORD PTR [eax], 0
	jne	SHORT $LN46@soap_getel
$LN45@soap_getel:

; 157  : 		*type = soap_lookup_type(soap, soap->href);

	mov	eax, DWORD PTR _soap$[ebp]
	add	eax, 82100				; 000140b4H
	push	eax
	mov	ecx, DWORD PTR _soap$[ebp]
	push	ecx
	call	_soap_lookup_type
	add	esp, 8
	mov	edx, DWORD PTR _type$[ebp]
	mov	DWORD PTR [edx], eax
$LN46@soap_getel:

; 158  : 	switch (*type)

	mov	eax, DWORD PTR _type$[ebp]
	mov	ecx, DWORD PTR [eax]
	mov	DWORD PTR tv80[ebp], ecx
	mov	edx, DWORD PTR tv80[ebp]
	sub	edx, 1
	mov	DWORD PTR tv80[ebp], edx
	cmp	DWORD PTR tv80[ebp], 36			; 00000024H
	ja	$LN22@soap_getel
	mov	eax, DWORD PTR tv80[ebp]
	movzx	ecx, BYTE PTR $LN56@soap_getel[eax]
	jmp	DWORD PTR $LN57@soap_getel[ecx*4]
$LN42@soap_getel:

; 159  : 	{
; 160  : 	case SOAP_TYPE_byte:
; 161  : 		return soap_in_byte(soap, NULL, NULL, "xsd:byte");

	push	OFFSET ??_C@_08BEPNMEIH@xsd?3byte?$AA@
	push	0
	push	0
	mov	eax, DWORD PTR _soap$[ebp]
	push	eax
	call	?soap_in_byte@@YAPADPAUsoap@@PBDPAD1@Z	; soap_in_byte
	add	esp, 16					; 00000010H
	jmp	$LN48@soap_getel
$LN41@soap_getel:

; 162  : 	case SOAP_TYPE_int:
; 163  : 		return soap_in_int(soap, NULL, NULL, "xsd:int");

	push	OFFSET ??_C@_07PCIGPDP@xsd?3int?$AA@
	push	0
	push	0
	mov	eax, DWORD PTR _soap$[ebp]
	push	eax
	call	?soap_in_int@@YAPAHPAUsoap@@PBDPAH1@Z	; soap_in_int
	add	esp, 16					; 00000010H
	jmp	$LN48@soap_getel
$LN40@soap_getel:

; 164  : 	case SOAP_TYPE_LONG64:
; 165  : 		return soap_in_LONG64(soap, NULL, NULL, "xsd:long");

	push	OFFSET ??_C@_08PNDIDGIB@xsd?3long?$AA@
	push	0
	push	0
	mov	eax, DWORD PTR _soap$[ebp]
	push	eax
	call	?soap_in_LONG64@@YAPA_JPAUsoap@@PBDPA_J1@Z ; soap_in_LONG64
	add	esp, 16					; 00000010H
	jmp	$LN48@soap_getel
$LN39@soap_getel:

; 166  : 	case SOAP_TYPE_float:
; 167  : 		return soap_in_float(soap, NULL, NULL, "xsd:float");

	push	OFFSET ??_C@_09ILBLHFBD@xsd?3float?$AA@
	push	0
	push	0
	mov	eax, DWORD PTR _soap$[ebp]
	push	eax
	call	?soap_in_float@@YAPAMPAUsoap@@PBDPAM1@Z	; soap_in_float
	add	esp, 16					; 00000010H
	jmp	$LN48@soap_getel
$LN38@soap_getel:

; 168  : 	case SOAP_TYPE_bool:
; 169  : 		return soap_in_bool(soap, NULL, NULL, "xsd:boolean");

	push	OFFSET ??_C@_0M@FGHMEICI@xsd?3boolean?$AA@
	push	0
	push	0
	mov	eax, DWORD PTR _soap$[ebp]
	push	eax
	call	?soap_in_bool@@YAPA_NPAUsoap@@PBDPA_N1@Z ; soap_in_bool
	add	esp, 16					; 00000010H
	jmp	$LN48@soap_getel
$LN37@soap_getel:

; 170  : 	case SOAP_TYPE_std__string:
; 171  : 		return soap_in_std__string(soap, NULL, NULL, "xsd:string");

	push	OFFSET ??_C@_0L@DIJPMJCO@xsd?3string?$AA@
	push	0
	push	0
	mov	eax, DWORD PTR _soap$[ebp]
	push	eax
	call	?soap_in_std__string@@YAPAV?$basic_string@DU?$char_traits@D@std@@V?$allocator@D@2@@std@@PAUsoap@@PBDPAV12@1@Z ; soap_in_std__string
	add	esp, 16					; 00000010H
	jmp	$LN48@soap_getel
$LN36@soap_getel:

; 172  : 	case SOAP_TYPE_xsd__string:
; 173  : 		return soap_in_xsd__string(soap, NULL, NULL, "xsd:string");

	push	OFFSET ??_C@_0L@DIJPMJCO@xsd?3string?$AA@
	push	0
	push	0
	mov	eax, DWORD PTR _soap$[ebp]
	push	eax
	call	?soap_in_xsd__string@@YAPAVxsd__string@@PAUsoap@@PBDPAV1@1@Z ; soap_in_xsd__string
	add	esp, 16					; 00000010H
	jmp	$LN48@soap_getel
$LN35@soap_getel:

; 174  : 	case SOAP_TYPE_xsd__long:
; 175  : 		return soap_in_xsd__long(soap, NULL, NULL, "xsd:long");

	push	OFFSET ??_C@_08PNDIDGIB@xsd?3long?$AA@
	push	0
	push	0
	mov	eax, DWORD PTR _soap$[ebp]
	push	eax
	call	?soap_in_xsd__long@@YAPAVxsd__long@@PAUsoap@@PBDPAV1@1@Z ; soap_in_xsd__long
	add	esp, 16					; 00000010H
	jmp	$LN48@soap_getel
$LN34@soap_getel:

; 176  : 	case SOAP_TYPE_xsd__int:
; 177  : 		return soap_in_xsd__int(soap, NULL, NULL, "xsd:int");

	push	OFFSET ??_C@_07PCIGPDP@xsd?3int?$AA@
	push	0
	push	0
	mov	eax, DWORD PTR _soap$[ebp]
	push	eax
	call	?soap_in_xsd__int@@YAPAVxsd__int@@PAUsoap@@PBDPAV1@1@Z ; soap_in_xsd__int
	add	esp, 16					; 00000010H
	jmp	$LN48@soap_getel
$LN33@soap_getel:

; 178  : 	case SOAP_TYPE_xsd__float:
; 179  : 		return soap_in_xsd__float(soap, NULL, NULL, "xsd:float");

	push	OFFSET ??_C@_09ILBLHFBD@xsd?3float?$AA@
	push	0
	push	0
	mov	eax, DWORD PTR _soap$[ebp]
	push	eax
	call	?soap_in_xsd__float@@YAPAVxsd__float@@PAUsoap@@PBDPAV1@1@Z ; soap_in_xsd__float
	add	esp, 16					; 00000010H
	jmp	$LN48@soap_getel
$LN32@soap_getel:

; 180  : 	case SOAP_TYPE_xsd__boolean:
; 181  : 		return soap_in_xsd__boolean(soap, NULL, NULL, "xsd:boolean");

	push	OFFSET ??_C@_0M@FGHMEICI@xsd?3boolean?$AA@
	push	0
	push	0
	mov	eax, DWORD PTR _soap$[ebp]
	push	eax
	call	?soap_in_xsd__boolean@@YAPAVxsd__boolean@@PAUsoap@@PBDPAV1@1@Z ; soap_in_xsd__boolean
	add	esp, 16					; 00000010H
	jmp	$LN48@soap_getel
$LN31@soap_getel:

; 182  : 	case SOAP_TYPE_xsd__anyType:
; 183  : 		return soap_in_xsd__anyType(soap, NULL, NULL, "xsd:anyType");

	push	OFFSET ??_C@_0M@NOIFKOBF@xsd?3anyType?$AA@
	push	0
	push	0
	mov	eax, DWORD PTR _soap$[ebp]
	push	eax
	call	?soap_in_xsd__anyType@@YAPAVxsd__anyType@@PAUsoap@@PBDPAV1@1@Z ; soap_in_xsd__anyType
	add	esp, 16					; 00000010H
	jmp	$LN48@soap_getel
$LN30@soap_getel:

; 184  : 	case SOAP_TYPE_PointerTo_ns2__submitEpochResultResponseElement:
; 185  : 		return soap_in_PointerTo_ns2__submitEpochResultResponseElement(soap, NULL, NULL, "ns2:submitEpochResultResponseElement");

	push	OFFSET ??_C@_0CF@HCKJIEH@ns2?3submitEpochResultResponseEle@
	push	0
	push	0
	mov	eax, DWORD PTR _soap$[ebp]
	push	eax
	call	?soap_in_PointerTo_ns2__submitEpochResultResponseElement@@YAPAPAV_ns2__submitEpochResultResponseElement@@PAUsoap@@PBDPAPAV1@1@Z ; soap_in_PointerTo_ns2__submitEpochResultResponseElement
	add	esp, 16					; 00000010H
	jmp	$LN48@soap_getel
$LN29@soap_getel:

; 186  : 	case SOAP_TYPE_PointerTo_ns2__submitEpochResultElement:
; 187  : 		return soap_in_PointerTo_ns2__submitEpochResultElement(soap, NULL, NULL, "ns2:submitEpochResultElement");

	push	OFFSET ??_C@_0BN@LEHNEPKC@ns2?3submitEpochResultElement?$AA@
	push	0
	push	0
	mov	eax, DWORD PTR _soap$[ebp]
	push	eax
	call	?soap_in_PointerTo_ns2__submitEpochResultElement@@YAPAPAV_ns2__submitEpochResultElement@@PAUsoap@@PBDPAPAV1@1@Z ; soap_in_PointerTo_ns2__submitEpochResultElement
	add	esp, 16					; 00000010H
	jmp	$LN48@soap_getel
$LN28@soap_getel:

; 188  : 	case SOAP_TYPE_PointerTo_ns2__getSettingsFileResponseElement:
; 189  : 		return soap_in_PointerTo_ns2__getSettingsFileResponseElement(soap, NULL, NULL, "ns2:getSettingsFileResponseElement");

	push	OFFSET ??_C@_0CD@GADHDKNA@ns2?3getSettingsFileResponseEleme@
	push	0
	push	0
	mov	eax, DWORD PTR _soap$[ebp]
	push	eax
	call	?soap_in_PointerTo_ns2__getSettingsFileResponseElement@@YAPAPAV_ns2__getSettingsFileResponseElement@@PAUsoap@@PBDPAPAV1@1@Z ; soap_in_PointerTo_ns2__getSettingsFileResponseElement
	add	esp, 16					; 00000010H
	jmp	$LN48@soap_getel
$LN27@soap_getel:

; 190  : 	case SOAP_TYPE_PointerTo_ns2__getSettingsFileElement:
; 191  : 		return soap_in_PointerTo_ns2__getSettingsFileElement(soap, NULL, NULL, "ns2:getSettingsFileElement");

	push	OFFSET ??_C@_0BL@EBHOCBLE@ns2?3getSettingsFileElement?$AA@
	push	0
	push	0
	mov	eax, DWORD PTR _soap$[ebp]
	push	eax
	call	?soap_in_PointerTo_ns2__getSettingsFileElement@@YAPAPAV_ns2__getSettingsFileElement@@PAUsoap@@PBDPAPAV1@1@Z ; soap_in_PointerTo_ns2__getSettingsFileElement
	add	esp, 16					; 00000010H
	jmp	$LN48@soap_getel
$LN26@soap_getel:

; 192  : 	case SOAP_TYPE_PointerTo_ns2__getSessionIDResponseElement:
; 193  : 		return soap_in_PointerTo_ns2__getSessionIDResponseElement(soap, NULL, NULL, "ns2:getSessionIDResponseElement");

	push	OFFSET ??_C@_0CA@KPMHIEOJ@ns2?3getSessionIDResponseElement?$AA@
	push	0
	push	0
	mov	eax, DWORD PTR _soap$[ebp]
	push	eax
	call	?soap_in_PointerTo_ns2__getSessionIDResponseElement@@YAPAPAV_ns2__getSessionIDResponseElement@@PAUsoap@@PBDPAPAV1@1@Z ; soap_in_PointerTo_ns2__getSessionIDResponseElement
	add	esp, 16					; 00000010H
	jmp	$LN48@soap_getel
$LN25@soap_getel:

; 194  : 	case SOAP_TYPE_PointerTo_ns2__getSessionIDElement:
; 195  : 		return soap_in_PointerTo_ns2__getSessionIDElement(soap, NULL, NULL, "ns2:getSessionIDElement");

	push	OFFSET ??_C@_0BI@CHGDHCPP@ns2?3getSessionIDElement?$AA@
	push	0
	push	0
	mov	eax, DWORD PTR _soap$[ebp]
	push	eax
	call	?soap_in_PointerTo_ns2__getSessionIDElement@@YAPAPAV_ns2__getSessionIDElement@@PAUsoap@@PBDPAPAV1@1@Z ; soap_in_PointerTo_ns2__getSessionIDElement
	add	esp, 16					; 00000010H
	jmp	$LN48@soap_getel
$LN24@soap_getel:

; 196  : 	case SOAP_TYPE_PointerTostd__string:
; 197  : 		return soap_in_PointerTostd__string(soap, NULL, NULL, "xsd:string");

	push	OFFSET ??_C@_0L@DIJPMJCO@xsd?3string?$AA@
	push	0
	push	0
	mov	eax, DWORD PTR _soap$[ebp]
	push	eax
	call	?soap_in_PointerTostd__string@@YAPAPAV?$basic_string@DU?$char_traits@D@std@@V?$allocator@D@2@@std@@PAUsoap@@PBDPAPAV12@1@Z ; soap_in_PointerTostd__string
	add	esp, 16					; 00000010H
	jmp	$LN48@soap_getel
$LN23@soap_getel:

; 198  : 	case SOAP_TYPE_string:
; 199  : 	{	char **s;
; 200  : 		s = soap_in_string(soap, NULL, NULL, "xsd:string");

	push	OFFSET ??_C@_0L@DIJPMJCO@xsd?3string?$AA@
	push	0
	push	0
	mov	eax, DWORD PTR _soap$[ebp]
	push	eax
	call	?soap_in_string@@YAPAPADPAUsoap@@PBDPAPAD1@Z ; soap_in_string
	add	esp, 16					; 00000010H
	mov	DWORD PTR _s$86813[ebp], eax

; 201  : 		return s ? *s : NULL;

	cmp	DWORD PTR _s$86813[ebp], 0
	je	SHORT $LN50@soap_getel
	mov	eax, DWORD PTR _s$86813[ebp]
	mov	ecx, DWORD PTR [eax]
	mov	DWORD PTR tv214[ebp], ecx
	jmp	SHORT $LN51@soap_getel
$LN50@soap_getel:
	mov	DWORD PTR tv214[ebp], 0
$LN51@soap_getel:
	mov	eax, DWORD PTR tv214[ebp]
	jmp	$LN48@soap_getel
$LN22@soap_getel:

; 202  : 	}
; 203  : 	default:
; 204  : 	{	const char *t = soap->type;

	mov	eax, DWORD PTR _soap$[ebp]
	add	eax, 83124				; 000144b4H
	mov	DWORD PTR _t$86815[ebp], eax

; 205  : 		if (!*t)

	mov	eax, DWORD PTR _t$86815[ebp]
	movsx	ecx, BYTE PTR [eax]
	test	ecx, ecx
	jne	SHORT $LN21@soap_getel

; 206  : 			t = soap->tag;

	mov	eax, DWORD PTR _soap$[ebp]
	add	eax, 80052				; 000138b4H
	mov	DWORD PTR _t$86815[ebp], eax
$LN21@soap_getel:

; 207  : 		if (!soap_match_tag(soap, t, "xsd:string"))

	push	OFFSET ??_C@_0L@DIJPMJCO@xsd?3string?$AA@
	mov	eax, DWORD PTR _t$86815[ebp]
	push	eax
	mov	ecx, DWORD PTR _soap$[ebp]
	push	ecx
	call	_soap_match_tag
	add	esp, 12					; 0000000cH
	test	eax, eax
	jne	SHORT $LN20@soap_getel

; 208  : 		{	*type = SOAP_TYPE_std__string;

	mov	eax, DWORD PTR _type$[ebp]
	mov	DWORD PTR [eax], 18			; 00000012H

; 209  : 			return soap_in_std__string(soap, NULL, NULL, NULL);

	push	0
	push	0
	push	0
	mov	eax, DWORD PTR _soap$[ebp]
	push	eax
	call	?soap_in_std__string@@YAPAV?$basic_string@DU?$char_traits@D@std@@V?$allocator@D@2@@std@@PAUsoap@@PBDPAV12@1@Z ; soap_in_std__string
	add	esp, 16					; 00000010H
	jmp	$LN48@soap_getel
$LN20@soap_getel:

; 210  : 		}
; 211  : 		if (!soap_match_tag(soap, t, "xsd:string"))

	push	OFFSET ??_C@_0L@DIJPMJCO@xsd?3string?$AA@
	mov	eax, DWORD PTR _t$86815[ebp]
	push	eax
	mov	ecx, DWORD PTR _soap$[ebp]
	push	ecx
	call	_soap_match_tag
	add	esp, 12					; 0000000cH
	test	eax, eax
	jne	SHORT $LN19@soap_getel

; 212  : 		{	*type = SOAP_TYPE_xsd__string;

	mov	eax, DWORD PTR _type$[ebp]
	mov	DWORD PTR [eax], 17			; 00000011H

; 213  : 			return soap_in_xsd__string(soap, NULL, NULL, NULL);

	push	0
	push	0
	push	0
	mov	eax, DWORD PTR _soap$[ebp]
	push	eax
	call	?soap_in_xsd__string@@YAPAVxsd__string@@PAUsoap@@PBDPAV1@1@Z ; soap_in_xsd__string
	add	esp, 16					; 00000010H
	jmp	$LN48@soap_getel
$LN19@soap_getel:

; 214  : 		}
; 215  : 		if (!soap_match_tag(soap, t, "xsd:long"))

	push	OFFSET ??_C@_08PNDIDGIB@xsd?3long?$AA@
	mov	eax, DWORD PTR _t$86815[ebp]
	push	eax
	mov	ecx, DWORD PTR _soap$[ebp]
	push	ecx
	call	_soap_match_tag
	add	esp, 12					; 0000000cH
	test	eax, eax
	jne	SHORT $LN18@soap_getel

; 216  : 		{	*type = SOAP_TYPE_xsd__long;

	mov	eax, DWORD PTR _type$[ebp]
	mov	DWORD PTR [eax], 15			; 0000000fH

; 217  : 			return soap_in_xsd__long(soap, NULL, NULL, NULL);

	push	0
	push	0
	push	0
	mov	eax, DWORD PTR _soap$[ebp]
	push	eax
	call	?soap_in_xsd__long@@YAPAVxsd__long@@PAUsoap@@PBDPAV1@1@Z ; soap_in_xsd__long
	add	esp, 16					; 00000010H
	jmp	$LN48@soap_getel
$LN18@soap_getel:

; 218  : 		}
; 219  : 		if (!soap_match_tag(soap, t, "xsd:int"))

	push	OFFSET ??_C@_07PCIGPDP@xsd?3int?$AA@
	mov	eax, DWORD PTR _t$86815[ebp]
	push	eax
	mov	ecx, DWORD PTR _soap$[ebp]
	push	ecx
	call	_soap_match_tag
	add	esp, 12					; 0000000cH
	test	eax, eax
	jne	SHORT $LN17@soap_getel

; 220  : 		{	*type = SOAP_TYPE_xsd__int;

	mov	eax, DWORD PTR _type$[ebp]
	mov	DWORD PTR [eax], 14			; 0000000eH

; 221  : 			return soap_in_xsd__int(soap, NULL, NULL, NULL);

	push	0
	push	0
	push	0
	mov	eax, DWORD PTR _soap$[ebp]
	push	eax
	call	?soap_in_xsd__int@@YAPAVxsd__int@@PAUsoap@@PBDPAV1@1@Z ; soap_in_xsd__int
	add	esp, 16					; 00000010H
	jmp	$LN48@soap_getel
$LN17@soap_getel:

; 222  : 		}
; 223  : 		if (!soap_match_tag(soap, t, "xsd:float"))

	push	OFFSET ??_C@_09ILBLHFBD@xsd?3float?$AA@
	mov	eax, DWORD PTR _t$86815[ebp]
	push	eax
	mov	ecx, DWORD PTR _soap$[ebp]
	push	ecx
	call	_soap_match_tag
	add	esp, 12					; 0000000cH
	test	eax, eax
	jne	SHORT $LN16@soap_getel

; 224  : 		{	*type = SOAP_TYPE_xsd__float;

	mov	eax, DWORD PTR _type$[ebp]
	mov	DWORD PTR [eax], 12			; 0000000cH

; 225  : 			return soap_in_xsd__float(soap, NULL, NULL, NULL);

	push	0
	push	0
	push	0
	mov	eax, DWORD PTR _soap$[ebp]
	push	eax
	call	?soap_in_xsd__float@@YAPAVxsd__float@@PAUsoap@@PBDPAV1@1@Z ; soap_in_xsd__float
	add	esp, 16					; 00000010H
	jmp	$LN48@soap_getel
$LN16@soap_getel:

; 226  : 		}
; 227  : 		if (!soap_match_tag(soap, t, "xsd:boolean"))

	push	OFFSET ??_C@_0M@FGHMEICI@xsd?3boolean?$AA@
	mov	eax, DWORD PTR _t$86815[ebp]
	push	eax
	mov	ecx, DWORD PTR _soap$[ebp]
	push	ecx
	call	_soap_match_tag
	add	esp, 12					; 0000000cH
	test	eax, eax
	jne	SHORT $LN15@soap_getel

; 228  : 		{	*type = SOAP_TYPE_xsd__boolean;

	mov	eax, DWORD PTR _type$[ebp]
	mov	DWORD PTR [eax], 10			; 0000000aH

; 229  : 			return soap_in_xsd__boolean(soap, NULL, NULL, NULL);

	push	0
	push	0
	push	0
	mov	eax, DWORD PTR _soap$[ebp]
	push	eax
	call	?soap_in_xsd__boolean@@YAPAVxsd__boolean@@PAUsoap@@PBDPAV1@1@Z ; soap_in_xsd__boolean
	add	esp, 16					; 00000010H
	jmp	$LN48@soap_getel
$LN15@soap_getel:

; 230  : 		}
; 231  : 		if (!soap_match_tag(soap, t, "xsd:anyType"))

	push	OFFSET ??_C@_0M@NOIFKOBF@xsd?3anyType?$AA@
	mov	eax, DWORD PTR _t$86815[ebp]
	push	eax
	mov	ecx, DWORD PTR _soap$[ebp]
	push	ecx
	call	_soap_match_tag
	add	esp, 12					; 0000000cH
	test	eax, eax
	jne	SHORT $LN14@soap_getel

; 232  : 		{	*type = SOAP_TYPE_xsd__anyType;

	mov	eax, DWORD PTR _type$[ebp]
	mov	DWORD PTR [eax], 8

; 233  : 			return soap_in_xsd__anyType(soap, NULL, NULL, NULL);

	push	0
	push	0
	push	0
	mov	eax, DWORD PTR _soap$[ebp]
	push	eax
	call	?soap_in_xsd__anyType@@YAPAVxsd__anyType@@PAUsoap@@PBDPAV1@1@Z ; soap_in_xsd__anyType
	add	esp, 16					; 00000010H
	jmp	$LN48@soap_getel
$LN14@soap_getel:

; 234  : 		}
; 235  : 		if (!soap_match_tag(soap, t, "xsd:byte"))

	push	OFFSET ??_C@_08BEPNMEIH@xsd?3byte?$AA@
	mov	eax, DWORD PTR _t$86815[ebp]
	push	eax
	mov	ecx, DWORD PTR _soap$[ebp]
	push	ecx
	call	_soap_match_tag
	add	esp, 12					; 0000000cH
	test	eax, eax
	jne	SHORT $LN13@soap_getel

; 236  : 		{	*type = SOAP_TYPE_byte;

	mov	eax, DWORD PTR _type$[ebp]
	mov	DWORD PTR [eax], 3

; 237  : 			return soap_in_byte(soap, NULL, NULL, NULL);

	push	0
	push	0
	push	0
	mov	eax, DWORD PTR _soap$[ebp]
	push	eax
	call	?soap_in_byte@@YAPADPAUsoap@@PBDPAD1@Z	; soap_in_byte
	add	esp, 16					; 00000010H
	jmp	$LN48@soap_getel
$LN13@soap_getel:

; 238  : 		}
; 239  : 		if (!soap_match_tag(soap, t, "xsd:int"))

	push	OFFSET ??_C@_07PCIGPDP@xsd?3int?$AA@
	mov	eax, DWORD PTR _t$86815[ebp]
	push	eax
	mov	ecx, DWORD PTR _soap$[ebp]
	push	ecx
	call	_soap_match_tag
	add	esp, 12					; 0000000cH
	test	eax, eax
	jne	SHORT $LN12@soap_getel

; 240  : 		{	*type = SOAP_TYPE_int;

	mov	eax, DWORD PTR _type$[ebp]
	mov	DWORD PTR [eax], 1

; 241  : 			return soap_in_int(soap, NULL, NULL, NULL);

	push	0
	push	0
	push	0
	mov	eax, DWORD PTR _soap$[ebp]
	push	eax
	call	?soap_in_int@@YAPAHPAUsoap@@PBDPAH1@Z	; soap_in_int
	add	esp, 16					; 00000010H
	jmp	$LN48@soap_getel
$LN12@soap_getel:

; 242  : 		}
; 243  : 		if (!soap_match_tag(soap, t, "xsd:long"))

	push	OFFSET ??_C@_08PNDIDGIB@xsd?3long?$AA@
	mov	eax, DWORD PTR _t$86815[ebp]
	push	eax
	mov	ecx, DWORD PTR _soap$[ebp]
	push	ecx
	call	_soap_match_tag
	add	esp, 12					; 0000000cH
	test	eax, eax
	jne	SHORT $LN11@soap_getel

; 244  : 		{	*type = SOAP_TYPE_LONG64;

	mov	eax, DWORD PTR _type$[ebp]
	mov	DWORD PTR [eax], 16			; 00000010H

; 245  : 			return soap_in_LONG64(soap, NULL, NULL, NULL);

	push	0
	push	0
	push	0
	mov	eax, DWORD PTR _soap$[ebp]
	push	eax
	call	?soap_in_LONG64@@YAPA_JPAUsoap@@PBDPA_J1@Z ; soap_in_LONG64
	add	esp, 16					; 00000010H
	jmp	$LN48@soap_getel
$LN11@soap_getel:

; 246  : 		}
; 247  : 		if (!soap_match_tag(soap, t, "xsd:float"))

	push	OFFSET ??_C@_09ILBLHFBD@xsd?3float?$AA@
	mov	eax, DWORD PTR _t$86815[ebp]
	push	eax
	mov	ecx, DWORD PTR _soap$[ebp]
	push	ecx
	call	_soap_match_tag
	add	esp, 12					; 0000000cH
	test	eax, eax
	jne	SHORT $LN10@soap_getel

; 248  : 		{	*type = SOAP_TYPE_float;

	mov	eax, DWORD PTR _type$[ebp]
	mov	DWORD PTR [eax], 13			; 0000000dH

; 249  : 			return soap_in_float(soap, NULL, NULL, NULL);

	push	0
	push	0
	push	0
	mov	eax, DWORD PTR _soap$[ebp]
	push	eax
	call	?soap_in_float@@YAPAMPAUsoap@@PBDPAM1@Z	; soap_in_float
	add	esp, 16					; 00000010H
	jmp	$LN48@soap_getel
$LN10@soap_getel:

; 250  : 		}
; 251  : 		if (!soap_match_tag(soap, t, "xsd:boolean"))

	push	OFFSET ??_C@_0M@FGHMEICI@xsd?3boolean?$AA@
	mov	eax, DWORD PTR _t$86815[ebp]
	push	eax
	mov	ecx, DWORD PTR _soap$[ebp]
	push	ecx
	call	_soap_match_tag
	add	esp, 12					; 0000000cH
	test	eax, eax
	jne	SHORT $LN9@soap_getel

; 252  : 		{	*type = SOAP_TYPE_bool;

	mov	eax, DWORD PTR _type$[ebp]
	mov	DWORD PTR [eax], 11			; 0000000bH

; 253  : 			return soap_in_bool(soap, NULL, NULL, NULL);

	push	0
	push	0
	push	0
	mov	eax, DWORD PTR _soap$[ebp]
	push	eax
	call	?soap_in_bool@@YAPA_NPAUsoap@@PBDPA_N1@Z ; soap_in_bool
	add	esp, 16					; 00000010H
	jmp	$LN48@soap_getel
$LN9@soap_getel:

; 254  : 		}
; 255  : 		if (!soap_match_tag(soap, t, "xsd:string"))

	push	OFFSET ??_C@_0L@DIJPMJCO@xsd?3string?$AA@
	mov	eax, DWORD PTR _t$86815[ebp]
	push	eax
	mov	ecx, DWORD PTR _soap$[ebp]
	push	ecx
	call	_soap_match_tag
	add	esp, 12					; 0000000cH
	test	eax, eax
	jne	SHORT $LN8@soap_getel

; 256  : 		{	char **s;
; 257  : 			*type = SOAP_TYPE_string;

	mov	eax, DWORD PTR _type$[ebp]
	mov	DWORD PTR [eax], 4

; 258  : 			s = soap_in_string(soap, NULL, NULL, NULL);

	push	0
	push	0
	push	0
	mov	eax, DWORD PTR _soap$[ebp]
	push	eax
	call	?soap_in_string@@YAPAPADPAUsoap@@PBDPAPAD1@Z ; soap_in_string
	add	esp, 16					; 00000010H
	mov	DWORD PTR _s$86830[ebp], eax

; 259  : 			return s ? *s : NULL;

	cmp	DWORD PTR _s$86830[ebp], 0
	je	SHORT $LN52@soap_getel
	mov	eax, DWORD PTR _s$86830[ebp]
	mov	ecx, DWORD PTR [eax]
	mov	DWORD PTR tv350[ebp], ecx
	jmp	SHORT $LN53@soap_getel
$LN52@soap_getel:
	mov	DWORD PTR tv350[ebp], 0
$LN53@soap_getel:
	mov	eax, DWORD PTR tv350[ebp]
	jmp	$LN48@soap_getel
$LN8@soap_getel:

; 260  : 		}
; 261  : 		t = soap->tag;

	mov	eax, DWORD PTR _soap$[ebp]
	add	eax, 80052				; 000138b4H
	mov	DWORD PTR _t$86815[ebp], eax

; 262  : 		if (!soap_match_tag(soap, t, "ns2:submitEpochResultResponseElement"))

	push	OFFSET ??_C@_0CF@HCKJIEH@ns2?3submitEpochResultResponseEle@
	mov	eax, DWORD PTR _t$86815[ebp]
	push	eax
	mov	ecx, DWORD PTR _soap$[ebp]
	push	ecx
	call	_soap_match_tag
	add	esp, 12					; 0000000cH
	test	eax, eax
	jne	SHORT $LN7@soap_getel

; 263  : 		{	*type = SOAP_TYPE__ns2__submitEpochResultResponseElement;

	mov	eax, DWORD PTR _type$[ebp]
	mov	DWORD PTR [eax], 24			; 00000018H

; 264  : 			return soap_in__ns2__submitEpochResultResponseElement(soap, NULL, NULL, NULL);

	push	0
	push	0
	push	0
	mov	eax, DWORD PTR _soap$[ebp]
	push	eax
	call	?soap_in__ns2__submitEpochResultResponseElement@@YAPAV_ns2__submitEpochResultResponseElement@@PAUsoap@@PBDPAV1@1@Z ; soap_in__ns2__submitEpochResultResponseElement
	add	esp, 16					; 00000010H
	jmp	$LN48@soap_getel
$LN7@soap_getel:

; 265  : 		}
; 266  : 		if (!soap_match_tag(soap, t, "ns2:submitEpochResultElement"))

	push	OFFSET ??_C@_0BN@LEHNEPKC@ns2?3submitEpochResultElement?$AA@
	mov	eax, DWORD PTR _t$86815[ebp]
	push	eax
	mov	ecx, DWORD PTR _soap$[ebp]
	push	ecx
	call	_soap_match_tag
	add	esp, 12					; 0000000cH
	test	eax, eax
	jne	SHORT $LN6@soap_getel

; 267  : 		{	*type = SOAP_TYPE__ns2__submitEpochResultElement;

	mov	eax, DWORD PTR _type$[ebp]
	mov	DWORD PTR [eax], 23			; 00000017H

; 268  : 			return soap_in__ns2__submitEpochResultElement(soap, NULL, NULL, NULL);

	push	0
	push	0
	push	0
	mov	eax, DWORD PTR _soap$[ebp]
	push	eax
	call	?soap_in__ns2__submitEpochResultElement@@YAPAV_ns2__submitEpochResultElement@@PAUsoap@@PBDPAV1@1@Z ; soap_in__ns2__submitEpochResultElement
	add	esp, 16					; 00000010H
	jmp	$LN48@soap_getel
$LN6@soap_getel:

; 269  : 		}
; 270  : 		if (!soap_match_tag(soap, t, "ns2:getSettingsFileResponseElement"))

	push	OFFSET ??_C@_0CD@GADHDKNA@ns2?3getSettingsFileResponseEleme@
	mov	eax, DWORD PTR _t$86815[ebp]
	push	eax
	mov	ecx, DWORD PTR _soap$[ebp]
	push	ecx
	call	_soap_match_tag
	add	esp, 12					; 0000000cH
	test	eax, eax
	jne	SHORT $LN5@soap_getel

; 271  : 		{	*type = SOAP_TYPE__ns2__getSettingsFileResponseElement;

	mov	eax, DWORD PTR _type$[ebp]
	mov	DWORD PTR [eax], 22			; 00000016H

; 272  : 			return soap_in__ns2__getSettingsFileResponseElement(soap, NULL, NULL, NULL);

	push	0
	push	0
	push	0
	mov	eax, DWORD PTR _soap$[ebp]
	push	eax
	call	?soap_in__ns2__getSettingsFileResponseElement@@YAPAV_ns2__getSettingsFileResponseElement@@PAUsoap@@PBDPAV1@1@Z ; soap_in__ns2__getSettingsFileResponseElement
	add	esp, 16					; 00000010H
	jmp	$LN48@soap_getel
$LN5@soap_getel:

; 273  : 		}
; 274  : 		if (!soap_match_tag(soap, t, "ns2:getSettingsFileElement"))

	push	OFFSET ??_C@_0BL@EBHOCBLE@ns2?3getSettingsFileElement?$AA@
	mov	eax, DWORD PTR _t$86815[ebp]
	push	eax
	mov	ecx, DWORD PTR _soap$[ebp]
	push	ecx
	call	_soap_match_tag
	add	esp, 12					; 0000000cH
	test	eax, eax
	jne	SHORT $LN4@soap_getel

; 275  : 		{	*type = SOAP_TYPE__ns2__getSettingsFileElement;

	mov	eax, DWORD PTR _type$[ebp]
	mov	DWORD PTR [eax], 21			; 00000015H

; 276  : 			return soap_in__ns2__getSettingsFileElement(soap, NULL, NULL, NULL);

	push	0
	push	0
	push	0
	mov	eax, DWORD PTR _soap$[ebp]
	push	eax
	call	?soap_in__ns2__getSettingsFileElement@@YAPAV_ns2__getSettingsFileElement@@PAUsoap@@PBDPAV1@1@Z ; soap_in__ns2__getSettingsFileElement
	add	esp, 16					; 00000010H
	jmp	$LN48@soap_getel
$LN4@soap_getel:

; 277  : 		}
; 278  : 		if (!soap_match_tag(soap, t, "ns2:getSessionIDResponseElement"))

	push	OFFSET ??_C@_0CA@KPMHIEOJ@ns2?3getSessionIDResponseElement?$AA@
	mov	eax, DWORD PTR _t$86815[ebp]
	push	eax
	mov	ecx, DWORD PTR _soap$[ebp]
	push	ecx
	call	_soap_match_tag
	add	esp, 12					; 0000000cH
	test	eax, eax
	jne	SHORT $LN3@soap_getel

; 279  : 		{	*type = SOAP_TYPE__ns2__getSessionIDResponseElement;

	mov	eax, DWORD PTR _type$[ebp]
	mov	DWORD PTR [eax], 20			; 00000014H

; 280  : 			return soap_in__ns2__getSessionIDResponseElement(soap, NULL, NULL, NULL);

	push	0
	push	0
	push	0
	mov	eax, DWORD PTR _soap$[ebp]
	push	eax
	call	?soap_in__ns2__getSessionIDResponseElement@@YAPAV_ns2__getSessionIDResponseElement@@PAUsoap@@PBDPAV1@1@Z ; soap_in__ns2__getSessionIDResponseElement
	add	esp, 16					; 00000010H
	jmp	$LN48@soap_getel
$LN3@soap_getel:

; 281  : 		}
; 282  : 		if (!soap_match_tag(soap, t, "ns2:getSessionIDElement"))

	push	OFFSET ??_C@_0BI@CHGDHCPP@ns2?3getSessionIDElement?$AA@
	mov	eax, DWORD PTR _t$86815[ebp]
	push	eax
	mov	ecx, DWORD PTR _soap$[ebp]
	push	ecx
	call	_soap_match_tag
	add	esp, 12					; 0000000cH
	test	eax, eax
	jne	SHORT $LN2@soap_getel

; 283  : 		{	*type = SOAP_TYPE__ns2__getSessionIDElement;

	mov	eax, DWORD PTR _type$[ebp]
	mov	DWORD PTR [eax], 19			; 00000013H

; 284  : 			return soap_in__ns2__getSessionIDElement(soap, NULL, NULL, NULL);

	push	0
	push	0
	push	0
	mov	eax, DWORD PTR _soap$[ebp]
	push	eax
	call	?soap_in__ns2__getSessionIDElement@@YAPAV_ns2__getSessionIDElement@@PAUsoap@@PBDPAV1@1@Z ; soap_in__ns2__getSessionIDElement
	add	esp, 16					; 00000010H
	jmp	SHORT $LN48@soap_getel
$LN2@soap_getel:

; 285  : 		}
; 286  : 		if (!soap_match_tag(soap, t, "xsd:QName"))

	push	OFFSET ??_C@_09JDHJJDCF@xsd?3QName?$AA@
	mov	eax, DWORD PTR _t$86815[ebp]
	push	eax
	mov	ecx, DWORD PTR _soap$[ebp]
	push	ecx
	call	_soap_match_tag
	add	esp, 12					; 0000000cH
	test	eax, eax
	jne	SHORT $LN43@soap_getel

; 287  : 		{	char **s;
; 288  : 			*type = SOAP_TYPE__QName;

	mov	eax, DWORD PTR _type$[ebp]
	mov	DWORD PTR [eax], 5

; 289  : 			s = soap_in__QName(soap, NULL, NULL, NULL);

	push	0
	push	0
	push	0
	mov	eax, DWORD PTR _soap$[ebp]
	push	eax
	call	?soap_in__QName@@YAPAPADPAUsoap@@PBDPAPAD1@Z ; soap_in__QName
	add	esp, 16					; 00000010H
	mov	DWORD PTR _s$86839[ebp], eax

; 290  : 			return s ? *s : NULL;

	cmp	DWORD PTR _s$86839[ebp], 0
	je	SHORT $LN54@soap_getel
	mov	eax, DWORD PTR _s$86839[ebp]
	mov	ecx, DWORD PTR [eax]
	mov	DWORD PTR tv423[ebp], ecx
	jmp	SHORT $LN55@soap_getel
$LN54@soap_getel:
	mov	DWORD PTR tv423[ebp], 0
$LN55@soap_getel:
	mov	eax, DWORD PTR tv423[ebp]
	jmp	SHORT $LN48@soap_getel
$LN43@soap_getel:

; 291  : 		}
; 292  : 	}
; 293  : 	}
; 294  : 	soap->error = SOAP_TAG_MISMATCH;

	mov	eax, DWORD PTR _soap$[ebp]
	mov	DWORD PTR [eax+90460], 3

; 295  : 	return NULL;

	xor	eax, eax
$LN48@soap_getel:

; 296  : }

	pop	edi
	pop	esi
	pop	ebx
	add	esp, 244				; 000000f4H
	cmp	ebp, esp
	call	__RTC_CheckEsp
	mov	esp, ebp
	pop	ebp
	ret	0
$LN57@soap_getel:
	DD	$LN41@soap_getel
	DD	$LN42@soap_getel
	DD	$LN23@soap_getel
	DD	$LN31@soap_getel
	DD	$LN32@soap_getel
	DD	$LN38@soap_getel
	DD	$LN33@soap_getel
	DD	$LN39@soap_getel
	DD	$LN34@soap_getel
	DD	$LN35@soap_getel
	DD	$LN40@soap_getel
	DD	$LN36@soap_getel
	DD	$LN37@soap_getel
	DD	$LN24@soap_getel
	DD	$LN25@soap_getel
	DD	$LN26@soap_getel
	DD	$LN27@soap_getel
	DD	$LN28@soap_getel
	DD	$LN29@soap_getel
	DD	$LN30@soap_getel
	DD	$LN22@soap_getel
$LN56@soap_getel:
	DB	0
	DB	20					; 00000014H
	DB	1
	DB	2
	DB	20					; 00000014H
	DB	20					; 00000014H
	DB	20					; 00000014H
	DB	3
	DB	20					; 00000014H
	DB	4
	DB	5
	DB	6
	DB	7
	DB	8
	DB	9
	DB	10					; 0000000aH
	DB	11					; 0000000bH
	DB	12					; 0000000cH
	DB	20					; 00000014H
	DB	20					; 00000014H
	DB	20					; 00000014H
	DB	20					; 00000014H
	DB	20					; 00000014H
	DB	20					; 00000014H
	DB	13					; 0000000dH
	DB	20					; 00000014H
	DB	20					; 00000014H
	DB	14					; 0000000eH
	DB	15					; 0000000fH
	DB	20					; 00000014H
	DB	20					; 00000014H
	DB	16					; 00000010H
	DB	17					; 00000011H
	DB	20					; 00000014H
	DB	20					; 00000014H
	DB	18					; 00000012H
	DB	19					; 00000013H
_soap_getelement ENDP
_TEXT	ENDS
PUBLIC	??_C@_0BH@KDHAKAPA@IGNORING?5element?5?8?$CFs?8?6?$AA@ ; `string'
PUBLIC	??_C@_0BI@BALEIJAL@REJECTING?5element?5?8?$CFs?8?6?$AA@ ; `string'
PUBLIC	??_C@_09JEONCPHE@SOAP?9ENV?3?$AA@		; `string'
PUBLIC	??_C@_0DB@DOKGCGGN@Unexpected?5element?5?8?$CFs?8?5in?5input@ ; `string'
EXTRN	_soap_element_end_in:PROC
EXTRN	__imp__fflush:PROC
EXTRN	__imp__fprintf:PROC
EXTRN	_soap_open_logfile:PROC
;	COMDAT ??_C@_0BH@KDHAKAPA@IGNORING?5element?5?8?$CFs?8?6?$AA@
CONST	SEGMENT
??_C@_0BH@KDHAKAPA@IGNORING?5element?5?8?$CFs?8?6?$AA@ DB 'IGNORING eleme'
	DB	'nt ''%s''', 0aH, 00H			; `string'
CONST	ENDS
;	COMDAT ??_C@_0BI@BALEIJAL@REJECTING?5element?5?8?$CFs?8?6?$AA@
CONST	SEGMENT
??_C@_0BI@BALEIJAL@REJECTING?5element?5?8?$CFs?8?6?$AA@ DB 'REJECTING ele'
	DB	'ment ''%s''', 0aH, 00H			; `string'
CONST	ENDS
;	COMDAT ??_C@_09JEONCPHE@SOAP?9ENV?3?$AA@
CONST	SEGMENT
??_C@_09JEONCPHE@SOAP?9ENV?3?$AA@ DB 'SOAP-ENV:', 00H	; `string'
CONST	ENDS
;	COMDAT ??_C@_0DB@DOKGCGGN@Unexpected?5element?5?8?$CFs?8?5in?5input@
CONST	SEGMENT
??_C@_0DB@DOKGCGGN@Unexpected?5element?5?8?$CFs?8?5in?5input@ DB 'Unexpec'
	DB	'ted element ''%s'' in input (level=%u, %d)', 0aH, 00H ; `string'
; Function compile flags: /Odtp /RTCcsu /ZI
CONST	ENDS
;	COMDAT ?soap_ignore_element@@YAHPAUsoap@@@Z
_TEXT	SEGMENT
_fdebug$86870 = -44					; size = 4
_fdebug$86860 = -32					; size = 4
_fdebug$86849 = -20					; size = 4
_t$86844 = -8						; size = 4
_soap$ = 8						; size = 4
?soap_ignore_element@@YAHPAUsoap@@@Z PROC		; soap_ignore_element, COMDAT

; 304  : {

	push	ebp
	mov	ebp, esp
	sub	esp, 240				; 000000f0H
	push	ebx
	push	esi
	push	edi
	lea	edi, DWORD PTR [ebp-240]
	mov	ecx, 60					; 0000003cH
	mov	eax, -858993460				; ccccccccH
	rep stosd

; 305  : 	if (!soap_peek_element(soap))

	mov	eax, DWORD PTR _soap$[ebp]
	push	eax
	call	_soap_peek_element
	add	esp, 4
	test	eax, eax
	jne	$LN23@soap_ignor

; 306  : 	{	int t;
; 307  : 		DBGLOG(TEST, SOAP_MESSAGE(fdebug, "Unexpected element '%s' in input (level=%u, %d)\n", soap->tag, soap->level, soap->body));

	cmp	DWORD PTR _soap$[ebp], 0
	je	$LN22@soap_ignor
	mov	eax, DWORD PTR _soap$[ebp]
	cmp	DWORD PTR [eax+90568], 0
	jne	SHORT $LN21@soap_ignor
	push	2
	mov	eax, DWORD PTR _soap$[ebp]
	push	eax
	call	_soap_open_logfile
	add	esp, 8
$LN21@soap_ignor:
	mov	eax, DWORD PTR _soap$[ebp]
	cmp	DWORD PTR [eax+90568], 0
	je	SHORT $LN22@soap_ignor
	mov	eax, DWORD PTR _soap$[ebp]
	mov	ecx, DWORD PTR [eax+90568]
	mov	DWORD PTR _fdebug$86849[ebp], ecx
	mov	eax, DWORD PTR _soap$[ebp]
	movsx	ecx, WORD PTR [eax+12442]
	mov	esi, esp
	push	ecx
	mov	edx, DWORD PTR _soap$[ebp]
	mov	eax, DWORD PTR [edx+12444]
	push	eax
	mov	ecx, DWORD PTR _soap$[ebp]
	add	ecx, 80052				; 000138b4H
	push	ecx
	push	OFFSET ??_C@_0DB@DOKGCGGN@Unexpected?5element?5?8?$CFs?8?5in?5input@
	mov	edx, DWORD PTR _fdebug$86849[ebp]
	push	edx
	call	DWORD PTR __imp__fprintf
	add	esp, 20					; 00000014H
	cmp	esi, esp
	call	__RTC_CheckEsp
	mov	esi, esp
	mov	eax, DWORD PTR _fdebug$86849[ebp]
	push	eax
	call	DWORD PTR __imp__fflush
	add	esp, 4
	cmp	esi, esp
	call	__RTC_CheckEsp
$LN22@soap_ignor:

; 308  : 		if (soap->mustUnderstand && !soap->other)

	mov	eax, DWORD PTR _soap$[ebp]
	movsx	ecx, WORD PTR [eax+87298]
	test	ecx, ecx
	je	SHORT $LN19@soap_ignor
	mov	eax, DWORD PTR _soap$[ebp]
	movsx	ecx, WORD PTR [eax+87220]
	test	ecx, ecx
	jne	SHORT $LN19@soap_ignor

; 309  : 			return soap->error = SOAP_MUSTUNDERSTAND;

	mov	eax, DWORD PTR _soap$[ebp]
	mov	DWORD PTR [eax+90460], 8
	mov	eax, 8
	jmp	$LN24@soap_ignor
$LN19@soap_ignor:

; 310  : 		if (((soap->mode & SOAP_XML_STRICT) && soap->part != SOAP_IN_HEADER) || !soap_match_tag(soap, soap->tag, "SOAP-ENV:"))

	mov	eax, DWORD PTR _soap$[ebp]
	mov	ecx, DWORD PTR [eax+8]
	and	ecx, 4096				; 00001000H
	je	SHORT $LN16@soap_ignor
	mov	eax, DWORD PTR _soap$[ebp]
	movsx	ecx, WORD PTR [eax+87304]
	cmp	ecx, 3
	jne	SHORT $LN17@soap_ignor
$LN16@soap_ignor:
	push	OFFSET ??_C@_09JEONCPHE@SOAP?9ENV?3?$AA@
	mov	eax, DWORD PTR _soap$[ebp]
	add	eax, 80052				; 000138b4H
	push	eax
	mov	ecx, DWORD PTR _soap$[ebp]
	push	ecx
	call	_soap_match_tag
	add	esp, 12					; 0000000cH
	test	eax, eax
	jne	$LN18@soap_ignor
$LN17@soap_ignor:

; 311  : 		{	DBGLOG(TEST, SOAP_MESSAGE(fdebug, "REJECTING element '%s'\n", soap->tag));

	cmp	DWORD PTR _soap$[ebp], 0
	je	SHORT $LN15@soap_ignor
	mov	eax, DWORD PTR _soap$[ebp]
	cmp	DWORD PTR [eax+90568], 0
	jne	SHORT $LN14@soap_ignor
	push	2
	mov	eax, DWORD PTR _soap$[ebp]
	push	eax
	call	_soap_open_logfile
	add	esp, 8
$LN14@soap_ignor:
	mov	eax, DWORD PTR _soap$[ebp]
	cmp	DWORD PTR [eax+90568], 0
	je	SHORT $LN15@soap_ignor
	mov	eax, DWORD PTR _soap$[ebp]
	mov	ecx, DWORD PTR [eax+90568]
	mov	DWORD PTR _fdebug$86860[ebp], ecx
	mov	eax, DWORD PTR _soap$[ebp]
	add	eax, 80052				; 000138b4H
	mov	esi, esp
	push	eax
	push	OFFSET ??_C@_0BI@BALEIJAL@REJECTING?5element?5?8?$CFs?8?6?$AA@
	mov	ecx, DWORD PTR _fdebug$86860[ebp]
	push	ecx
	call	DWORD PTR __imp__fprintf
	add	esp, 12					; 0000000cH
	cmp	esi, esp
	call	__RTC_CheckEsp
	mov	esi, esp
	mov	eax, DWORD PTR _fdebug$86860[ebp]
	push	eax
	call	DWORD PTR __imp__fflush
	add	esp, 4
	cmp	esi, esp
	call	__RTC_CheckEsp
$LN15@soap_ignor:

; 312  : 			return soap->error = SOAP_TAG_MISMATCH;

	mov	eax, DWORD PTR _soap$[ebp]
	mov	DWORD PTR [eax+90460], 3
	mov	eax, 3
	jmp	$LN24@soap_ignor
$LN18@soap_ignor:

; 313  : 		}
; 314  : 		if (!*soap->id || !soap_getelement(soap, &t))

	mov	eax, DWORD PTR _soap$[ebp]
	movsx	ecx, BYTE PTR [eax+81076]
	test	ecx, ecx
	je	SHORT $LN11@soap_ignor
	lea	eax, DWORD PTR _t$86844[ebp]
	push	eax
	mov	ecx, DWORD PTR _soap$[ebp]
	push	ecx
	call	_soap_getelement
	add	esp, 8
	test	eax, eax
	jne	$LN23@soap_ignor
$LN11@soap_ignor:

; 315  : 		{	soap->peeked = 0;

	xor	eax, eax
	mov	ecx, DWORD PTR _soap$[ebp]
	mov	WORD PTR [ecx+87308], ax

; 316  : 			if (soap->fignore)

	mov	eax, DWORD PTR _soap$[ebp]
	cmp	DWORD PTR [eax+12324], 0
	je	SHORT $LN10@soap_ignor

; 317  : 				soap->error = soap->fignore(soap, soap->tag);

	mov	eax, DWORD PTR _soap$[ebp]
	add	eax, 80052				; 000138b4H
	mov	esi, esp
	push	eax
	mov	ecx, DWORD PTR _soap$[ebp]
	push	ecx
	mov	edx, DWORD PTR _soap$[ebp]
	mov	eax, DWORD PTR [edx+12324]
	call	eax
	add	esp, 8
	cmp	esi, esp
	call	__RTC_CheckEsp
	mov	ecx, DWORD PTR _soap$[ebp]
	mov	DWORD PTR [ecx+90460], eax

; 318  : 			else

	jmp	SHORT $LN9@soap_ignor
$LN10@soap_ignor:

; 319  : 				soap->error = SOAP_OK;

	mov	eax, DWORD PTR _soap$[ebp]
	mov	DWORD PTR [eax+90460], 0
$LN9@soap_ignor:

; 320  : 			DBGLOG(TEST, if (!soap->error) SOAP_MESSAGE(fdebug, "IGNORING element '%s'\n", soap->tag));

	cmp	DWORD PTR _soap$[ebp], 0
	je	SHORT $LN8@soap_ignor
	mov	eax, DWORD PTR _soap$[ebp]
	cmp	DWORD PTR [eax+90568], 0
	jne	SHORT $LN7@soap_ignor
	push	2
	mov	eax, DWORD PTR _soap$[ebp]
	push	eax
	call	_soap_open_logfile
	add	esp, 8
$LN7@soap_ignor:
	mov	eax, DWORD PTR _soap$[ebp]
	cmp	DWORD PTR [eax+90568], 0
	je	SHORT $LN8@soap_ignor
	mov	eax, DWORD PTR _soap$[ebp]
	mov	ecx, DWORD PTR [eax+90568]
	mov	DWORD PTR _fdebug$86870[ebp], ecx
	mov	eax, DWORD PTR _soap$[ebp]
	cmp	DWORD PTR [eax+90460], 0
	jne	SHORT $LN5@soap_ignor
	mov	eax, DWORD PTR _soap$[ebp]
	add	eax, 80052				; 000138b4H
	mov	esi, esp
	push	eax
	push	OFFSET ??_C@_0BH@KDHAKAPA@IGNORING?5element?5?8?$CFs?8?6?$AA@
	mov	ecx, DWORD PTR _fdebug$86870[ebp]
	push	ecx
	call	DWORD PTR __imp__fprintf
	add	esp, 12					; 0000000cH
	cmp	esi, esp
	call	__RTC_CheckEsp
$LN5@soap_ignor:
	mov	esi, esp
	mov	eax, DWORD PTR _fdebug$86870[ebp]
	push	eax
	call	DWORD PTR __imp__fflush
	add	esp, 4
	cmp	esi, esp
	call	__RTC_CheckEsp
$LN8@soap_ignor:

; 321  : 			if (!soap->error && soap->body)

	mov	eax, DWORD PTR _soap$[ebp]
	cmp	DWORD PTR [eax+90460], 0
	jne	SHORT $LN23@soap_ignor
	mov	eax, DWORD PTR _soap$[ebp]
	movsx	ecx, WORD PTR [eax+12442]
	test	ecx, ecx
	je	SHORT $LN23@soap_ignor

; 322  : 			{	soap->level++;

	mov	eax, DWORD PTR _soap$[ebp]
	mov	ecx, DWORD PTR [eax+12444]
	add	ecx, 1
	mov	edx, DWORD PTR _soap$[ebp]
	mov	DWORD PTR [edx+12444], ecx
$LN3@soap_ignor:

; 323  : 				while (!soap_ignore_element(soap))

	mov	eax, DWORD PTR _soap$[ebp]
	push	eax
	call	?soap_ignore_element@@YAHPAUsoap@@@Z	; soap_ignore_element
	add	esp, 4
	test	eax, eax
	jne	SHORT $LN2@soap_ignor

; 324  : 					;

	jmp	SHORT $LN3@soap_ignor
$LN2@soap_ignor:

; 325  : 				if (soap->error == SOAP_NO_TAG)

	mov	eax, DWORD PTR _soap$[ebp]
	cmp	DWORD PTR [eax+90460], 6
	jne	SHORT $LN23@soap_ignor

; 326  : 					soap->error = soap_element_end_in(soap, NULL);

	push	0
	mov	eax, DWORD PTR _soap$[ebp]
	push	eax
	call	_soap_element_end_in
	add	esp, 8
	mov	ecx, DWORD PTR _soap$[ebp]
	mov	DWORD PTR [ecx+90460], eax
$LN23@soap_ignor:

; 327  : 			}
; 328  : 		}
; 329  : 	}
; 330  : 	return soap->error;

	mov	eax, DWORD PTR _soap$[ebp]
	mov	eax, DWORD PTR [eax+90460]
$LN24@soap_ignor:

; 331  : }

	push	edx
	mov	ecx, ebp
	push	eax
	lea	edx, DWORD PTR $LN28@soap_ignor
	call	@_RTC_CheckStackVars@8
	pop	eax
	pop	edx
	pop	edi
	pop	esi
	pop	ebx
	add	esp, 240				; 000000f0H
	cmp	ebp, esp
	call	__RTC_CheckEsp
	mov	esp, ebp
	pop	ebp
	ret	0
	npad	1
$LN28@soap_ignor:
	DD	1
	DD	$LN27@soap_ignor
$LN27@soap_ignor:
	DD	-8					; fffffff8H
	DD	4
	DD	$LN26@soap_ignor
$LN26@soap_ignor:
	DB	116					; 00000074H
	DB	0
?soap_ignore_element@@YAHPAUsoap@@@Z ENDP		; soap_ignore_element
_TEXT	ENDS
PUBLIC	_soap_putelement
PUBLIC	??_C@_02EGCJHIOB@id?$AA@			; `string'
PUBLIC	?soap_putindependent@@YAHPAUsoap@@@Z		; soap_putindependent
;	COMDAT ??_C@_02EGCJHIOB@id?$AA@
CONST	SEGMENT
??_C@_02EGCJHIOB@id?$AA@ DB 'id', 00H			; `string'
; Function compile flags: /Odtp /RTCcsu /ZI
CONST	ENDS
;	COMDAT ?soap_putindependent@@YAHPAUsoap@@@Z
_TEXT	SEGMENT
_pp$ = -20						; size = 4
_i$ = -8						; size = 4
_soap$ = 8						; size = 4
?soap_putindependent@@YAHPAUsoap@@@Z PROC		; soap_putindependent, COMDAT

; 335  : {

	push	ebp
	mov	ebp, esp
	sub	esp, 216				; 000000d8H
	push	ebx
	push	esi
	push	edi
	lea	edi, DWORD PTR [ebp-216]
	mov	ecx, 54					; 00000036H
	mov	eax, -858993460				; ccccccccH
	rep stosd

; 336  : 	int i;
; 337  : 	struct soap_plist *pp;
; 338  : 	if (soap->version == 1 && soap->encodingStyle && !(soap->mode & (SOAP_XML_TREE | SOAP_XML_GRAPH)))

	mov	eax, DWORD PTR _soap$[ebp]
	movsx	ecx, WORD PTR [eax+6]
	cmp	ecx, 1
	jne	$LN10@soap_putin
	mov	eax, DWORD PTR _soap$[ebp]
	cmp	DWORD PTR [eax+40], 0
	je	$LN10@soap_putin
	mov	eax, DWORD PTR _soap$[ebp]
	mov	ecx, DWORD PTR [eax+8]
	and	ecx, 98304				; 00018000H
	jne	$LN10@soap_putin

; 339  : 		for (i = 0; i < SOAP_PTRHASH; i++)

	mov	DWORD PTR _i$[ebp], 0
	jmp	SHORT $LN9@soap_putin
$LN8@soap_putin:
	mov	eax, DWORD PTR _i$[ebp]
	add	eax, 1
	mov	DWORD PTR _i$[ebp], eax
$LN9@soap_putin:
	cmp	DWORD PTR _i$[ebp], 1024		; 00000400H
	jge	SHORT $LN10@soap_putin

; 340  : 			for (pp = soap->pht[i]; pp; pp = pp->next)

	mov	eax, DWORD PTR _i$[ebp]
	mov	ecx, DWORD PTR _soap$[ebp]
	mov	edx, DWORD PTR [ecx+eax*4+8100]
	mov	DWORD PTR _pp$[ebp], edx
	jmp	SHORT $LN6@soap_putin
$LN5@soap_putin:
	mov	eax, DWORD PTR _pp$[ebp]
	mov	ecx, DWORD PTR [eax]
	mov	DWORD PTR _pp$[ebp], ecx
$LN6@soap_putin:
	cmp	DWORD PTR _pp$[ebp], 0
	je	SHORT $LN4@soap_putin

; 341  : 				if (pp->mark1 == 2 || pp->mark2 == 2)

	mov	eax, DWORD PTR _pp$[ebp]
	movsx	ecx, BYTE PTR [eax+20]
	cmp	ecx, 2
	je	SHORT $LN2@soap_putin
	mov	eax, DWORD PTR _pp$[ebp]
	movsx	ecx, BYTE PTR [eax+21]
	cmp	ecx, 2
	jne	SHORT $LN3@soap_putin
$LN2@soap_putin:

; 342  : 					if (soap_putelement(soap, pp->ptr, "id", pp->id, pp->type))

	mov	eax, DWORD PTR _pp$[ebp]
	mov	ecx, DWORD PTR [eax+12]
	push	ecx
	mov	edx, DWORD PTR _pp$[ebp]
	mov	eax, DWORD PTR [edx+16]
	push	eax
	push	OFFSET ??_C@_02EGCJHIOB@id?$AA@
	mov	ecx, DWORD PTR _pp$[ebp]
	mov	edx, DWORD PTR [ecx+4]
	push	edx
	mov	eax, DWORD PTR _soap$[ebp]
	push	eax
	call	_soap_putelement
	add	esp, 20					; 00000014H
	test	eax, eax
	je	SHORT $LN3@soap_putin

; 343  : 						return soap->error;

	mov	eax, DWORD PTR _soap$[ebp]
	mov	eax, DWORD PTR [eax+90460]
	jmp	SHORT $LN11@soap_putin
$LN3@soap_putin:

; 344  : 	return SOAP_OK;

	jmp	SHORT $LN5@soap_putin
$LN4@soap_putin:
	jmp	$LN8@soap_putin
$LN10@soap_putin:
	xor	eax, eax
$LN11@soap_putin:

; 345  : }

	pop	edi
	pop	esi
	pop	ebx
	add	esp, 216				; 000000d8H
	cmp	ebp, esp
	call	__RTC_CheckEsp
	mov	esp, ebp
	pop	ebp
	ret	0
?soap_putindependent@@YAHPAUsoap@@@Z ENDP		; soap_putindependent
_TEXT	ENDS
PUBLIC	?soap_out_string@@YAHPAUsoap@@PBDHPBQAD1@Z	; soap_out_string
PUBLIC	?soap_out_PointerTostd__string@@YAHPAUsoap@@PBDHPBQAV?$basic_string@DU?$char_traits@D@std@@V?$allocator@D@2@@std@@1@Z ; soap_out_PointerTostd__string
PUBLIC	?soap_out_PointerTo_ns2__getSessionIDElement@@YAHPAUsoap@@PBDHPBQAV_ns2__getSessionIDElement@@1@Z ; soap_out_PointerTo_ns2__getSessionIDElement
PUBLIC	?soap_out_PointerTo_ns2__getSessionIDResponseElement@@YAHPAUsoap@@PBDHPBQAV_ns2__getSessionIDResponseElement@@1@Z ; soap_out_PointerTo_ns2__getSessionIDResponseElement
PUBLIC	?soap_out_PointerTo_ns2__getSettingsFileElement@@YAHPAUsoap@@PBDHPBQAV_ns2__getSettingsFileElement@@1@Z ; soap_out_PointerTo_ns2__getSettingsFileElement
PUBLIC	?soap_out_PointerTo_ns2__getSettingsFileResponseElement@@YAHPAUsoap@@PBDHPBQAV_ns2__getSettingsFileResponseElement@@1@Z ; soap_out_PointerTo_ns2__getSettingsFileResponseElement
PUBLIC	?soap_out_PointerTo_ns2__submitEpochResultElement@@YAHPAUsoap@@PBDHPBQAV_ns2__submitEpochResultElement@@1@Z ; soap_out_PointerTo_ns2__submitEpochResultElement
PUBLIC	?soap_out_PointerTo_ns2__submitEpochResultResponseElement@@YAHPAUsoap@@PBDHPBQAV_ns2__submitEpochResultResponseElement@@1@Z ; soap_out_PointerTo_ns2__submitEpochResultResponseElement
PUBLIC	?soap_out_std__string@@YAHPAUsoap@@PBDHPBV?$basic_string@DU?$char_traits@D@std@@V?$allocator@D@2@@std@@1@Z ; soap_out_std__string
PUBLIC	?soap_out_bool@@YAHPAUsoap@@PBDHPB_N1@Z		; soap_out_bool
PUBLIC	?soap_out_float@@YAHPAUsoap@@PBDHPBM1@Z		; soap_out_float
PUBLIC	?soap_out_LONG64@@YAHPAUsoap@@PBDHPB_J1@Z	; soap_out_LONG64
PUBLIC	?soap_out_int@@YAHPAUsoap@@PBDHPBH1@Z		; soap_out_int
PUBLIC	?soap_out_byte@@YAHPAUsoap@@PBDH11@Z		; soap_out_byte
; Function compile flags: /Odtp /RTCcsu /ZI
;	COMDAT _soap_putelement
_TEXT	SEGMENT
tv64 = -196						; size = 4
_soap$ = 8						; size = 4
_ptr$ = 12						; size = 4
_tag$ = 16						; size = 4
_id$ = 20						; size = 4
_type$ = 24						; size = 4
_soap_putelement PROC					; COMDAT

; 354  : {

	push	ebp
	mov	ebp, esp
	sub	esp, 196				; 000000c4H
	push	ebx
	push	esi
	push	edi
	lea	edi, DWORD PTR [ebp-196]
	mov	ecx, 49					; 00000031H
	mov	eax, -858993460				; ccccccccH
	rep stosd

; 355  : 	switch (type)

	mov	eax, DWORD PTR _type$[ebp]
	mov	DWORD PTR tv64[ebp], eax
	mov	ecx, DWORD PTR tv64[ebp]
	sub	ecx, 1
	mov	DWORD PTR tv64[ebp], ecx
	cmp	DWORD PTR tv64[ebp], 36			; 00000024H
	ja	$LN28@soap_putel
	mov	edx, DWORD PTR tv64[ebp]
	jmp	DWORD PTR $LN32@soap_putel[edx*4]
$LN27@soap_putel:

; 356  : 	{
; 357  : 	case SOAP_TYPE_byte:
; 358  : 		return soap_out_byte(soap, tag, id, (const char *)ptr, "xsd:byte");

	push	OFFSET ??_C@_08BEPNMEIH@xsd?3byte?$AA@
	mov	eax, DWORD PTR _ptr$[ebp]
	push	eax
	mov	ecx, DWORD PTR _id$[ebp]
	push	ecx
	mov	edx, DWORD PTR _tag$[ebp]
	push	edx
	mov	eax, DWORD PTR _soap$[ebp]
	push	eax
	call	?soap_out_byte@@YAHPAUsoap@@PBDH11@Z	; soap_out_byte
	add	esp, 20					; 00000014H
	jmp	$LN30@soap_putel
$LN26@soap_putel:

; 359  : 	case SOAP_TYPE_int:
; 360  : 		return soap_out_int(soap, tag, id, (const int *)ptr, "xsd:int");

	push	OFFSET ??_C@_07PCIGPDP@xsd?3int?$AA@
	mov	eax, DWORD PTR _ptr$[ebp]
	push	eax
	mov	ecx, DWORD PTR _id$[ebp]
	push	ecx
	mov	edx, DWORD PTR _tag$[ebp]
	push	edx
	mov	eax, DWORD PTR _soap$[ebp]
	push	eax
	call	?soap_out_int@@YAHPAUsoap@@PBDHPBH1@Z	; soap_out_int
	add	esp, 20					; 00000014H
	jmp	$LN30@soap_putel
$LN25@soap_putel:

; 361  : 	case SOAP_TYPE_LONG64:
; 362  : 		return soap_out_LONG64(soap, tag, id, (const LONG64 *)ptr, "xsd:long");

	push	OFFSET ??_C@_08PNDIDGIB@xsd?3long?$AA@
	mov	eax, DWORD PTR _ptr$[ebp]
	push	eax
	mov	ecx, DWORD PTR _id$[ebp]
	push	ecx
	mov	edx, DWORD PTR _tag$[ebp]
	push	edx
	mov	eax, DWORD PTR _soap$[ebp]
	push	eax
	call	?soap_out_LONG64@@YAHPAUsoap@@PBDHPB_J1@Z ; soap_out_LONG64
	add	esp, 20					; 00000014H
	jmp	$LN30@soap_putel
$LN24@soap_putel:

; 363  : 	case SOAP_TYPE_float:
; 364  : 		return soap_out_float(soap, tag, id, (const float *)ptr, "xsd:float");

	push	OFFSET ??_C@_09ILBLHFBD@xsd?3float?$AA@
	mov	eax, DWORD PTR _ptr$[ebp]
	push	eax
	mov	ecx, DWORD PTR _id$[ebp]
	push	ecx
	mov	edx, DWORD PTR _tag$[ebp]
	push	edx
	mov	eax, DWORD PTR _soap$[ebp]
	push	eax
	call	?soap_out_float@@YAHPAUsoap@@PBDHPBM1@Z	; soap_out_float
	add	esp, 20					; 00000014H
	jmp	$LN30@soap_putel
$LN23@soap_putel:

; 365  : 	case SOAP_TYPE_bool:
; 366  : 		return soap_out_bool(soap, tag, id, (const bool *)ptr, "xsd:boolean");

	push	OFFSET ??_C@_0M@FGHMEICI@xsd?3boolean?$AA@
	mov	eax, DWORD PTR _ptr$[ebp]
	push	eax
	mov	ecx, DWORD PTR _id$[ebp]
	push	ecx
	mov	edx, DWORD PTR _tag$[ebp]
	push	edx
	mov	eax, DWORD PTR _soap$[ebp]
	push	eax
	call	?soap_out_bool@@YAHPAUsoap@@PBDHPB_N1@Z	; soap_out_bool
	add	esp, 20					; 00000014H
	jmp	$LN30@soap_putel
$LN22@soap_putel:

; 367  : 	case SOAP_TYPE__ns2__submitEpochResultResponseElement:
; 368  : 		return ((_ns2__submitEpochResultResponseElement *)ptr)->soap_out(soap, "ns2:submitEpochResultResponseElement", id, NULL);

	mov	esi, esp
	push	0
	mov	eax, DWORD PTR _id$[ebp]
	push	eax
	push	OFFSET ??_C@_0CF@HCKJIEH@ns2?3submitEpochResultResponseEle@
	mov	ecx, DWORD PTR _soap$[ebp]
	push	ecx
	mov	edx, DWORD PTR _ptr$[ebp]
	mov	eax, DWORD PTR [edx]
	mov	ecx, DWORD PTR _ptr$[ebp]
	mov	edx, DWORD PTR [eax+16]
	call	edx
	cmp	esi, esp
	call	__RTC_CheckEsp
	jmp	$LN30@soap_putel
$LN21@soap_putel:

; 369  : 	case SOAP_TYPE__ns2__submitEpochResultElement:
; 370  : 		return ((_ns2__submitEpochResultElement *)ptr)->soap_out(soap, "ns2:submitEpochResultElement", id, NULL);

	mov	esi, esp
	push	0
	mov	eax, DWORD PTR _id$[ebp]
	push	eax
	push	OFFSET ??_C@_0BN@LEHNEPKC@ns2?3submitEpochResultElement?$AA@
	mov	ecx, DWORD PTR _soap$[ebp]
	push	ecx
	mov	edx, DWORD PTR _ptr$[ebp]
	mov	eax, DWORD PTR [edx]
	mov	ecx, DWORD PTR _ptr$[ebp]
	mov	edx, DWORD PTR [eax+16]
	call	edx
	cmp	esi, esp
	call	__RTC_CheckEsp
	jmp	$LN30@soap_putel
$LN20@soap_putel:

; 371  : 	case SOAP_TYPE__ns2__getSettingsFileResponseElement:
; 372  : 		return ((_ns2__getSettingsFileResponseElement *)ptr)->soap_out(soap, "ns2:getSettingsFileResponseElement", id, NULL);

	mov	esi, esp
	push	0
	mov	eax, DWORD PTR _id$[ebp]
	push	eax
	push	OFFSET ??_C@_0CD@GADHDKNA@ns2?3getSettingsFileResponseEleme@
	mov	ecx, DWORD PTR _soap$[ebp]
	push	ecx
	mov	edx, DWORD PTR _ptr$[ebp]
	mov	eax, DWORD PTR [edx]
	mov	ecx, DWORD PTR _ptr$[ebp]
	mov	edx, DWORD PTR [eax+16]
	call	edx
	cmp	esi, esp
	call	__RTC_CheckEsp
	jmp	$LN30@soap_putel
$LN19@soap_putel:

; 373  : 	case SOAP_TYPE__ns2__getSettingsFileElement:
; 374  : 		return ((_ns2__getSettingsFileElement *)ptr)->soap_out(soap, "ns2:getSettingsFileElement", id, NULL);

	mov	esi, esp
	push	0
	mov	eax, DWORD PTR _id$[ebp]
	push	eax
	push	OFFSET ??_C@_0BL@EBHOCBLE@ns2?3getSettingsFileElement?$AA@
	mov	ecx, DWORD PTR _soap$[ebp]
	push	ecx
	mov	edx, DWORD PTR _ptr$[ebp]
	mov	eax, DWORD PTR [edx]
	mov	ecx, DWORD PTR _ptr$[ebp]
	mov	edx, DWORD PTR [eax+16]
	call	edx
	cmp	esi, esp
	call	__RTC_CheckEsp
	jmp	$LN30@soap_putel
$LN18@soap_putel:

; 375  : 	case SOAP_TYPE__ns2__getSessionIDResponseElement:
; 376  : 		return ((_ns2__getSessionIDResponseElement *)ptr)->soap_out(soap, "ns2:getSessionIDResponseElement", id, NULL);

	mov	esi, esp
	push	0
	mov	eax, DWORD PTR _id$[ebp]
	push	eax
	push	OFFSET ??_C@_0CA@KPMHIEOJ@ns2?3getSessionIDResponseElement?$AA@
	mov	ecx, DWORD PTR _soap$[ebp]
	push	ecx
	mov	edx, DWORD PTR _ptr$[ebp]
	mov	eax, DWORD PTR [edx]
	mov	ecx, DWORD PTR _ptr$[ebp]
	mov	edx, DWORD PTR [eax+16]
	call	edx
	cmp	esi, esp
	call	__RTC_CheckEsp
	jmp	$LN30@soap_putel
$LN17@soap_putel:

; 377  : 	case SOAP_TYPE__ns2__getSessionIDElement:
; 378  : 		return ((_ns2__getSessionIDElement *)ptr)->soap_out(soap, "ns2:getSessionIDElement", id, NULL);

	mov	esi, esp
	push	0
	mov	eax, DWORD PTR _id$[ebp]
	push	eax
	push	OFFSET ??_C@_0BI@CHGDHCPP@ns2?3getSessionIDElement?$AA@
	mov	ecx, DWORD PTR _soap$[ebp]
	push	ecx
	mov	edx, DWORD PTR _ptr$[ebp]
	mov	eax, DWORD PTR [edx]
	mov	ecx, DWORD PTR _ptr$[ebp]
	mov	edx, DWORD PTR [eax+16]
	call	edx
	cmp	esi, esp
	call	__RTC_CheckEsp
	jmp	$LN30@soap_putel
$LN16@soap_putel:

; 379  : 	case SOAP_TYPE_std__string:
; 380  : 		return soap_out_std__string(soap, tag, id, (const std::string *)ptr, "xsd:string");

	push	OFFSET ??_C@_0L@DIJPMJCO@xsd?3string?$AA@
	mov	eax, DWORD PTR _ptr$[ebp]
	push	eax
	mov	ecx, DWORD PTR _id$[ebp]
	push	ecx
	mov	edx, DWORD PTR _tag$[ebp]
	push	edx
	mov	eax, DWORD PTR _soap$[ebp]
	push	eax
	call	?soap_out_std__string@@YAHPAUsoap@@PBDHPBV?$basic_string@DU?$char_traits@D@std@@V?$allocator@D@2@@std@@1@Z ; soap_out_std__string
	add	esp, 20					; 00000014H
	jmp	$LN30@soap_putel
$LN15@soap_putel:

; 381  : 	case SOAP_TYPE_xsd__string:
; 382  : 		return ((xsd__string *)ptr)->soap_out(soap, tag, id, "xsd:string");

	mov	esi, esp
	push	OFFSET ??_C@_0L@DIJPMJCO@xsd?3string?$AA@
	mov	eax, DWORD PTR _id$[ebp]
	push	eax
	mov	ecx, DWORD PTR _tag$[ebp]
	push	ecx
	mov	edx, DWORD PTR _soap$[ebp]
	push	edx
	mov	eax, DWORD PTR _ptr$[ebp]
	mov	edx, DWORD PTR [eax]
	mov	ecx, DWORD PTR _ptr$[ebp]
	mov	eax, DWORD PTR [edx+16]
	call	eax
	cmp	esi, esp
	call	__RTC_CheckEsp
	jmp	$LN30@soap_putel
$LN14@soap_putel:

; 383  : 	case SOAP_TYPE_xsd__long:
; 384  : 		return ((xsd__long *)ptr)->soap_out(soap, tag, id, "xsd:long");

	mov	esi, esp
	push	OFFSET ??_C@_08PNDIDGIB@xsd?3long?$AA@
	mov	eax, DWORD PTR _id$[ebp]
	push	eax
	mov	ecx, DWORD PTR _tag$[ebp]
	push	ecx
	mov	edx, DWORD PTR _soap$[ebp]
	push	edx
	mov	eax, DWORD PTR _ptr$[ebp]
	mov	edx, DWORD PTR [eax]
	mov	ecx, DWORD PTR _ptr$[ebp]
	mov	eax, DWORD PTR [edx+16]
	call	eax
	cmp	esi, esp
	call	__RTC_CheckEsp
	jmp	$LN30@soap_putel
$LN13@soap_putel:

; 385  : 	case SOAP_TYPE_xsd__int:
; 386  : 		return ((xsd__int *)ptr)->soap_out(soap, tag, id, "xsd:int");

	mov	esi, esp
	push	OFFSET ??_C@_07PCIGPDP@xsd?3int?$AA@
	mov	eax, DWORD PTR _id$[ebp]
	push	eax
	mov	ecx, DWORD PTR _tag$[ebp]
	push	ecx
	mov	edx, DWORD PTR _soap$[ebp]
	push	edx
	mov	eax, DWORD PTR _ptr$[ebp]
	mov	edx, DWORD PTR [eax]
	mov	ecx, DWORD PTR _ptr$[ebp]
	mov	eax, DWORD PTR [edx+16]
	call	eax
	cmp	esi, esp
	call	__RTC_CheckEsp
	jmp	$LN30@soap_putel
$LN12@soap_putel:

; 387  : 	case SOAP_TYPE_xsd__float:
; 388  : 		return ((xsd__float *)ptr)->soap_out(soap, tag, id, "xsd:float");

	mov	esi, esp
	push	OFFSET ??_C@_09ILBLHFBD@xsd?3float?$AA@
	mov	eax, DWORD PTR _id$[ebp]
	push	eax
	mov	ecx, DWORD PTR _tag$[ebp]
	push	ecx
	mov	edx, DWORD PTR _soap$[ebp]
	push	edx
	mov	eax, DWORD PTR _ptr$[ebp]
	mov	edx, DWORD PTR [eax]
	mov	ecx, DWORD PTR _ptr$[ebp]
	mov	eax, DWORD PTR [edx+16]
	call	eax
	cmp	esi, esp
	call	__RTC_CheckEsp
	jmp	$LN30@soap_putel
$LN11@soap_putel:

; 389  : 	case SOAP_TYPE_xsd__boolean:
; 390  : 		return ((xsd__boolean *)ptr)->soap_out(soap, tag, id, "xsd:boolean");

	mov	esi, esp
	push	OFFSET ??_C@_0M@FGHMEICI@xsd?3boolean?$AA@
	mov	eax, DWORD PTR _id$[ebp]
	push	eax
	mov	ecx, DWORD PTR _tag$[ebp]
	push	ecx
	mov	edx, DWORD PTR _soap$[ebp]
	push	edx
	mov	eax, DWORD PTR _ptr$[ebp]
	mov	edx, DWORD PTR [eax]
	mov	ecx, DWORD PTR _ptr$[ebp]
	mov	eax, DWORD PTR [edx+16]
	call	eax
	cmp	esi, esp
	call	__RTC_CheckEsp
	jmp	$LN30@soap_putel
$LN10@soap_putel:

; 391  : 	case SOAP_TYPE_xsd__anyType:
; 392  : 		return ((xsd__anyType *)ptr)->soap_out(soap, tag, id, "xsd:anyType");

	mov	esi, esp
	push	OFFSET ??_C@_0M@NOIFKOBF@xsd?3anyType?$AA@
	mov	eax, DWORD PTR _id$[ebp]
	push	eax
	mov	ecx, DWORD PTR _tag$[ebp]
	push	ecx
	mov	edx, DWORD PTR _soap$[ebp]
	push	edx
	mov	eax, DWORD PTR _ptr$[ebp]
	mov	edx, DWORD PTR [eax]
	mov	ecx, DWORD PTR _ptr$[ebp]
	mov	eax, DWORD PTR [edx+16]
	call	eax
	cmp	esi, esp
	call	__RTC_CheckEsp
	jmp	$LN30@soap_putel
$LN9@soap_putel:

; 393  : 	case SOAP_TYPE_PointerTo_ns2__submitEpochResultResponseElement:
; 394  : 		return soap_out_PointerTo_ns2__submitEpochResultResponseElement(soap, tag, id, (_ns2__submitEpochResultResponseElement *const*)ptr, "ns2:submitEpochResultResponseElement");

	push	OFFSET ??_C@_0CF@HCKJIEH@ns2?3submitEpochResultResponseEle@
	mov	eax, DWORD PTR _ptr$[ebp]
	push	eax
	mov	ecx, DWORD PTR _id$[ebp]
	push	ecx
	mov	edx, DWORD PTR _tag$[ebp]
	push	edx
	mov	eax, DWORD PTR _soap$[ebp]
	push	eax
	call	?soap_out_PointerTo_ns2__submitEpochResultResponseElement@@YAHPAUsoap@@PBDHPBQAV_ns2__submitEpochResultResponseElement@@1@Z ; soap_out_PointerTo_ns2__submitEpochResultResponseElement
	add	esp, 20					; 00000014H
	jmp	$LN30@soap_putel
$LN8@soap_putel:

; 395  : 	case SOAP_TYPE_PointerTo_ns2__submitEpochResultElement:
; 396  : 		return soap_out_PointerTo_ns2__submitEpochResultElement(soap, tag, id, (_ns2__submitEpochResultElement *const*)ptr, "ns2:submitEpochResultElement");

	push	OFFSET ??_C@_0BN@LEHNEPKC@ns2?3submitEpochResultElement?$AA@
	mov	eax, DWORD PTR _ptr$[ebp]
	push	eax
	mov	ecx, DWORD PTR _id$[ebp]
	push	ecx
	mov	edx, DWORD PTR _tag$[ebp]
	push	edx
	mov	eax, DWORD PTR _soap$[ebp]
	push	eax
	call	?soap_out_PointerTo_ns2__submitEpochResultElement@@YAHPAUsoap@@PBDHPBQAV_ns2__submitEpochResultElement@@1@Z ; soap_out_PointerTo_ns2__submitEpochResultElement
	add	esp, 20					; 00000014H
	jmp	$LN30@soap_putel
$LN7@soap_putel:

; 397  : 	case SOAP_TYPE_PointerTo_ns2__getSettingsFileResponseElement:
; 398  : 		return soap_out_PointerTo_ns2__getSettingsFileResponseElement(soap, tag, id, (_ns2__getSettingsFileResponseElement *const*)ptr, "ns2:getSettingsFileResponseElement");

	push	OFFSET ??_C@_0CD@GADHDKNA@ns2?3getSettingsFileResponseEleme@
	mov	eax, DWORD PTR _ptr$[ebp]
	push	eax
	mov	ecx, DWORD PTR _id$[ebp]
	push	ecx
	mov	edx, DWORD PTR _tag$[ebp]
	push	edx
	mov	eax, DWORD PTR _soap$[ebp]
	push	eax
	call	?soap_out_PointerTo_ns2__getSettingsFileResponseElement@@YAHPAUsoap@@PBDHPBQAV_ns2__getSettingsFileResponseElement@@1@Z ; soap_out_PointerTo_ns2__getSettingsFileResponseElement
	add	esp, 20					; 00000014H
	jmp	$LN30@soap_putel
$LN6@soap_putel:

; 399  : 	case SOAP_TYPE_PointerTo_ns2__getSettingsFileElement:
; 400  : 		return soap_out_PointerTo_ns2__getSettingsFileElement(soap, tag, id, (_ns2__getSettingsFileElement *const*)ptr, "ns2:getSettingsFileElement");

	push	OFFSET ??_C@_0BL@EBHOCBLE@ns2?3getSettingsFileElement?$AA@
	mov	eax, DWORD PTR _ptr$[ebp]
	push	eax
	mov	ecx, DWORD PTR _id$[ebp]
	push	ecx
	mov	edx, DWORD PTR _tag$[ebp]
	push	edx
	mov	eax, DWORD PTR _soap$[ebp]
	push	eax
	call	?soap_out_PointerTo_ns2__getSettingsFileElement@@YAHPAUsoap@@PBDHPBQAV_ns2__getSettingsFileElement@@1@Z ; soap_out_PointerTo_ns2__getSettingsFileElement
	add	esp, 20					; 00000014H
	jmp	$LN30@soap_putel
$LN5@soap_putel:

; 401  : 	case SOAP_TYPE_PointerTo_ns2__getSessionIDResponseElement:
; 402  : 		return soap_out_PointerTo_ns2__getSessionIDResponseElement(soap, tag, id, (_ns2__getSessionIDResponseElement *const*)ptr, "ns2:getSessionIDResponseElement");

	push	OFFSET ??_C@_0CA@KPMHIEOJ@ns2?3getSessionIDResponseElement?$AA@
	mov	eax, DWORD PTR _ptr$[ebp]
	push	eax
	mov	ecx, DWORD PTR _id$[ebp]
	push	ecx
	mov	edx, DWORD PTR _tag$[ebp]
	push	edx
	mov	eax, DWORD PTR _soap$[ebp]
	push	eax
	call	?soap_out_PointerTo_ns2__getSessionIDResponseElement@@YAHPAUsoap@@PBDHPBQAV_ns2__getSessionIDResponseElement@@1@Z ; soap_out_PointerTo_ns2__getSessionIDResponseElement
	add	esp, 20					; 00000014H
	jmp	SHORT $LN30@soap_putel
$LN4@soap_putel:

; 403  : 	case SOAP_TYPE_PointerTo_ns2__getSessionIDElement:
; 404  : 		return soap_out_PointerTo_ns2__getSessionIDElement(soap, tag, id, (_ns2__getSessionIDElement *const*)ptr, "ns2:getSessionIDElement");

	push	OFFSET ??_C@_0BI@CHGDHCPP@ns2?3getSessionIDElement?$AA@
	mov	eax, DWORD PTR _ptr$[ebp]
	push	eax
	mov	ecx, DWORD PTR _id$[ebp]
	push	ecx
	mov	edx, DWORD PTR _tag$[ebp]
	push	edx
	mov	eax, DWORD PTR _soap$[ebp]
	push	eax
	call	?soap_out_PointerTo_ns2__getSessionIDElement@@YAHPAUsoap@@PBDHPBQAV_ns2__getSessionIDElement@@1@Z ; soap_out_PointerTo_ns2__getSessionIDElement
	add	esp, 20					; 00000014H
	jmp	SHORT $LN30@soap_putel
$LN3@soap_putel:

; 405  : 	case SOAP_TYPE_PointerTostd__string:
; 406  : 		return soap_out_PointerTostd__string(soap, tag, id, (std::string *const*)ptr, "xsd:string");

	push	OFFSET ??_C@_0L@DIJPMJCO@xsd?3string?$AA@
	mov	eax, DWORD PTR _ptr$[ebp]
	push	eax
	mov	ecx, DWORD PTR _id$[ebp]
	push	ecx
	mov	edx, DWORD PTR _tag$[ebp]
	push	edx
	mov	eax, DWORD PTR _soap$[ebp]
	push	eax
	call	?soap_out_PointerTostd__string@@YAHPAUsoap@@PBDHPBQAV?$basic_string@DU?$char_traits@D@std@@V?$allocator@D@2@@std@@1@Z ; soap_out_PointerTostd__string
	add	esp, 20					; 00000014H
	jmp	SHORT $LN30@soap_putel
$LN2@soap_putel:

; 407  : 	case SOAP_TYPE__QName:
; 408  : 		return soap_out_string(soap, "xsd:QName", id, (char*const*)&ptr, NULL);

	push	0
	lea	eax, DWORD PTR _ptr$[ebp]
	push	eax
	mov	ecx, DWORD PTR _id$[ebp]
	push	ecx
	push	OFFSET ??_C@_09JDHJJDCF@xsd?3QName?$AA@
	mov	edx, DWORD PTR _soap$[ebp]
	push	edx
	call	?soap_out_string@@YAHPAUsoap@@PBDHPBQAD1@Z ; soap_out_string
	add	esp, 20					; 00000014H
	jmp	SHORT $LN30@soap_putel
$LN1@soap_putel:

; 409  : 	case SOAP_TYPE_string:
; 410  : 		return soap_out_string(soap, tag, id, (char*const*)&ptr, "xsd:string");

	push	OFFSET ??_C@_0L@DIJPMJCO@xsd?3string?$AA@
	lea	eax, DWORD PTR _ptr$[ebp]
	push	eax
	mov	ecx, DWORD PTR _id$[ebp]
	push	ecx
	mov	edx, DWORD PTR _tag$[ebp]
	push	edx
	mov	eax, DWORD PTR _soap$[ebp]
	push	eax
	call	?soap_out_string@@YAHPAUsoap@@PBDHPBQAD1@Z ; soap_out_string
	add	esp, 20					; 00000014H
	jmp	SHORT $LN30@soap_putel
$LN28@soap_putel:

; 411  : 	}
; 412  : 	return SOAP_OK;

	xor	eax, eax
$LN30@soap_putel:

; 413  : }

	pop	edi
	pop	esi
	pop	ebx
	add	esp, 196				; 000000c4H
	cmp	ebp, esp
	call	__RTC_CheckEsp
	mov	esp, ebp
	pop	ebp
	ret	0
	npad	1
$LN32@soap_putel:
	DD	$LN26@soap_putel
	DD	$LN28@soap_putel
	DD	$LN27@soap_putel
	DD	$LN1@soap_putel
	DD	$LN2@soap_putel
	DD	$LN28@soap_putel
	DD	$LN28@soap_putel
	DD	$LN10@soap_putel
	DD	$LN28@soap_putel
	DD	$LN11@soap_putel
	DD	$LN23@soap_putel
	DD	$LN12@soap_putel
	DD	$LN24@soap_putel
	DD	$LN13@soap_putel
	DD	$LN14@soap_putel
	DD	$LN25@soap_putel
	DD	$LN15@soap_putel
	DD	$LN16@soap_putel
	DD	$LN17@soap_putel
	DD	$LN18@soap_putel
	DD	$LN19@soap_putel
	DD	$LN20@soap_putel
	DD	$LN21@soap_putel
	DD	$LN22@soap_putel
	DD	$LN3@soap_putel
	DD	$LN28@soap_putel
	DD	$LN28@soap_putel
	DD	$LN4@soap_putel
	DD	$LN5@soap_putel
	DD	$LN28@soap_putel
	DD	$LN28@soap_putel
	DD	$LN6@soap_putel
	DD	$LN7@soap_putel
	DD	$LN28@soap_putel
	DD	$LN28@soap_putel
	DD	$LN8@soap_putel
	DD	$LN9@soap_putel
_soap_putelement ENDP
_TEXT	ENDS
PUBLIC	?soap_serialize_string@@YAXPAUsoap@@PBQAD@Z	; soap_serialize_string
PUBLIC	?soap_serialize_PointerTostd__string@@YAXPAUsoap@@PBQAV?$basic_string@DU?$char_traits@D@std@@V?$allocator@D@2@@std@@@Z ; soap_serialize_PointerTostd__string
PUBLIC	?soap_serialize_PointerTo_ns2__getSessionIDElement@@YAXPAUsoap@@PBQAV_ns2__getSessionIDElement@@@Z ; soap_serialize_PointerTo_ns2__getSessionIDElement
PUBLIC	?soap_serialize_PointerTo_ns2__getSessionIDResponseElement@@YAXPAUsoap@@PBQAV_ns2__getSessionIDResponseElement@@@Z ; soap_serialize_PointerTo_ns2__getSessionIDResponseElement
PUBLIC	?soap_serialize_PointerTo_ns2__getSettingsFileElement@@YAXPAUsoap@@PBQAV_ns2__getSettingsFileElement@@@Z ; soap_serialize_PointerTo_ns2__getSettingsFileElement
PUBLIC	?soap_serialize_PointerTo_ns2__getSettingsFileResponseElement@@YAXPAUsoap@@PBQAV_ns2__getSettingsFileResponseElement@@@Z ; soap_serialize_PointerTo_ns2__getSettingsFileResponseElement
PUBLIC	?soap_serialize_PointerTo_ns2__submitEpochResultElement@@YAXPAUsoap@@PBQAV_ns2__submitEpochResultElement@@@Z ; soap_serialize_PointerTo_ns2__submitEpochResultElement
PUBLIC	?soap_serialize_PointerTo_ns2__submitEpochResultResponseElement@@YAXPAUsoap@@PBQAV_ns2__submitEpochResultResponseElement@@@Z ; soap_serialize_PointerTo_ns2__submitEpochResultResponseElement
PUBLIC	?soap_serialize___ns1__getSessionID@@YAXPAUsoap@@PBU__ns1__getSessionID@@@Z ; soap_serialize___ns1__getSessionID
PUBLIC	?soap_serialize___ns1__getSettingsFile@@YAXPAUsoap@@PBU__ns1__getSettingsFile@@@Z ; soap_serialize___ns1__getSettingsFile
PUBLIC	?soap_serialize___ns1__submitEpochResult@@YAXPAUsoap@@PBU__ns1__submitEpochResult@@@Z ; soap_serialize___ns1__submitEpochResult
PUBLIC	?soap_serialize_std__string@@YAXPAUsoap@@PBV?$basic_string@DU?$char_traits@D@std@@V?$allocator@D@2@@std@@@Z ; soap_serialize_std__string
PUBLIC	_soap_markelement
; Function compile flags: /Odtp /RTCcsu /ZI
;	COMDAT _soap_markelement
_TEXT	SEGMENT
tv64 = -196						; size = 4
_soap$ = 8						; size = 4
_ptr$ = 12						; size = 4
_type$ = 16						; size = 4
_soap_markelement PROC					; COMDAT

; 426  : {

	push	ebp
	mov	ebp, esp
	sub	esp, 196				; 000000c4H
	push	ebx
	push	esi
	push	edi
	lea	edi, DWORD PTR [ebp-196]
	mov	ecx, 49					; 00000031H
	mov	eax, -858993460				; ccccccccH
	rep stosd

; 427  : 	(void)soap; (void)ptr; (void)type; /* appease -Wall -Werror */
; 428  : 	switch (type)

	mov	eax, DWORD PTR _type$[ebp]
	mov	DWORD PTR tv64[ebp], eax
	mov	ecx, DWORD PTR tv64[ebp]
	sub	ecx, 4
	mov	DWORD PTR tv64[ebp], ecx
	cmp	DWORD PTR tv64[ebp], 35			; 00000023H
	ja	$LN28@soap_marke
	mov	edx, DWORD PTR tv64[ebp]
	jmp	DWORD PTR $LN30@soap_marke[edx*4]
$LN25@soap_marke:

; 429  : 	{
; 430  : 	case SOAP_TYPE__ns2__submitEpochResultResponseElement:
; 431  : 		((_ns2__submitEpochResultResponseElement *)ptr)->soap_serialize(soap);

	mov	esi, esp
	mov	eax, DWORD PTR _soap$[ebp]
	push	eax
	mov	ecx, DWORD PTR _ptr$[ebp]
	mov	edx, DWORD PTR [ecx]
	mov	ecx, DWORD PTR _ptr$[ebp]
	mov	eax, DWORD PTR [edx+8]
	call	eax
	cmp	esi, esp
	call	__RTC_CheckEsp

; 432  : 		break;

	jmp	$LN28@soap_marke
$LN24@soap_marke:

; 433  : 	case SOAP_TYPE__ns2__submitEpochResultElement:
; 434  : 		((_ns2__submitEpochResultElement *)ptr)->soap_serialize(soap);

	mov	esi, esp
	mov	eax, DWORD PTR _soap$[ebp]
	push	eax
	mov	ecx, DWORD PTR _ptr$[ebp]
	mov	edx, DWORD PTR [ecx]
	mov	ecx, DWORD PTR _ptr$[ebp]
	mov	eax, DWORD PTR [edx+8]
	call	eax
	cmp	esi, esp
	call	__RTC_CheckEsp

; 435  : 		break;

	jmp	$LN28@soap_marke
$LN23@soap_marke:

; 436  : 	case SOAP_TYPE__ns2__getSettingsFileResponseElement:
; 437  : 		((_ns2__getSettingsFileResponseElement *)ptr)->soap_serialize(soap);

	mov	esi, esp
	mov	eax, DWORD PTR _soap$[ebp]
	push	eax
	mov	ecx, DWORD PTR _ptr$[ebp]
	mov	edx, DWORD PTR [ecx]
	mov	ecx, DWORD PTR _ptr$[ebp]
	mov	eax, DWORD PTR [edx+8]
	call	eax
	cmp	esi, esp
	call	__RTC_CheckEsp

; 438  : 		break;

	jmp	$LN28@soap_marke
$LN22@soap_marke:

; 439  : 	case SOAP_TYPE__ns2__getSettingsFileElement:
; 440  : 		((_ns2__getSettingsFileElement *)ptr)->soap_serialize(soap);

	mov	esi, esp
	mov	eax, DWORD PTR _soap$[ebp]
	push	eax
	mov	ecx, DWORD PTR _ptr$[ebp]
	mov	edx, DWORD PTR [ecx]
	mov	ecx, DWORD PTR _ptr$[ebp]
	mov	eax, DWORD PTR [edx+8]
	call	eax
	cmp	esi, esp
	call	__RTC_CheckEsp

; 441  : 		break;

	jmp	$LN28@soap_marke
$LN21@soap_marke:

; 442  : 	case SOAP_TYPE__ns2__getSessionIDResponseElement:
; 443  : 		((_ns2__getSessionIDResponseElement *)ptr)->soap_serialize(soap);

	mov	esi, esp
	mov	eax, DWORD PTR _soap$[ebp]
	push	eax
	mov	ecx, DWORD PTR _ptr$[ebp]
	mov	edx, DWORD PTR [ecx]
	mov	ecx, DWORD PTR _ptr$[ebp]
	mov	eax, DWORD PTR [edx+8]
	call	eax
	cmp	esi, esp
	call	__RTC_CheckEsp

; 444  : 		break;

	jmp	$LN28@soap_marke
$LN20@soap_marke:

; 445  : 	case SOAP_TYPE__ns2__getSessionIDElement:
; 446  : 		((_ns2__getSessionIDElement *)ptr)->soap_serialize(soap);

	mov	esi, esp
	mov	eax, DWORD PTR _soap$[ebp]
	push	eax
	mov	ecx, DWORD PTR _ptr$[ebp]
	mov	edx, DWORD PTR [ecx]
	mov	ecx, DWORD PTR _ptr$[ebp]
	mov	eax, DWORD PTR [edx+8]
	call	eax
	cmp	esi, esp
	call	__RTC_CheckEsp

; 447  : 		break;

	jmp	$LN28@soap_marke
$LN19@soap_marke:

; 448  : 	case SOAP_TYPE_std__string:
; 449  : 		soap_serialize_std__string(soap, (const std::string *)ptr);

	mov	eax, DWORD PTR _ptr$[ebp]
	push	eax
	mov	ecx, DWORD PTR _soap$[ebp]
	push	ecx
	call	?soap_serialize_std__string@@YAXPAUsoap@@PBV?$basic_string@DU?$char_traits@D@std@@V?$allocator@D@2@@std@@@Z ; soap_serialize_std__string
	add	esp, 8

; 450  : 		break;

	jmp	$LN28@soap_marke
$LN18@soap_marke:

; 451  : 	case SOAP_TYPE_xsd__string:
; 452  : 		((xsd__string *)ptr)->soap_serialize(soap);

	mov	esi, esp
	mov	eax, DWORD PTR _soap$[ebp]
	push	eax
	mov	ecx, DWORD PTR _ptr$[ebp]
	mov	edx, DWORD PTR [ecx]
	mov	ecx, DWORD PTR _ptr$[ebp]
	mov	eax, DWORD PTR [edx+8]
	call	eax
	cmp	esi, esp
	call	__RTC_CheckEsp

; 453  : 		break;

	jmp	$LN28@soap_marke
$LN17@soap_marke:

; 454  : 	case SOAP_TYPE_xsd__long:
; 455  : 		((xsd__long *)ptr)->soap_serialize(soap);

	mov	esi, esp
	mov	eax, DWORD PTR _soap$[ebp]
	push	eax
	mov	ecx, DWORD PTR _ptr$[ebp]
	mov	edx, DWORD PTR [ecx]
	mov	ecx, DWORD PTR _ptr$[ebp]
	mov	eax, DWORD PTR [edx+8]
	call	eax
	cmp	esi, esp
	call	__RTC_CheckEsp

; 456  : 		break;

	jmp	$LN28@soap_marke
$LN16@soap_marke:

; 457  : 	case SOAP_TYPE_xsd__int:
; 458  : 		((xsd__int *)ptr)->soap_serialize(soap);

	mov	esi, esp
	mov	eax, DWORD PTR _soap$[ebp]
	push	eax
	mov	ecx, DWORD PTR _ptr$[ebp]
	mov	edx, DWORD PTR [ecx]
	mov	ecx, DWORD PTR _ptr$[ebp]
	mov	eax, DWORD PTR [edx+8]
	call	eax
	cmp	esi, esp
	call	__RTC_CheckEsp

; 459  : 		break;

	jmp	$LN28@soap_marke
$LN15@soap_marke:

; 460  : 	case SOAP_TYPE_xsd__float:
; 461  : 		((xsd__float *)ptr)->soap_serialize(soap);

	mov	esi, esp
	mov	eax, DWORD PTR _soap$[ebp]
	push	eax
	mov	ecx, DWORD PTR _ptr$[ebp]
	mov	edx, DWORD PTR [ecx]
	mov	ecx, DWORD PTR _ptr$[ebp]
	mov	eax, DWORD PTR [edx+8]
	call	eax
	cmp	esi, esp
	call	__RTC_CheckEsp

; 462  : 		break;

	jmp	$LN28@soap_marke
$LN14@soap_marke:

; 463  : 	case SOAP_TYPE_xsd__boolean:
; 464  : 		((xsd__boolean *)ptr)->soap_serialize(soap);

	mov	esi, esp
	mov	eax, DWORD PTR _soap$[ebp]
	push	eax
	mov	ecx, DWORD PTR _ptr$[ebp]
	mov	edx, DWORD PTR [ecx]
	mov	ecx, DWORD PTR _ptr$[ebp]
	mov	eax, DWORD PTR [edx+8]
	call	eax
	cmp	esi, esp
	call	__RTC_CheckEsp

; 465  : 		break;

	jmp	$LN28@soap_marke
$LN13@soap_marke:

; 466  : 	case SOAP_TYPE_xsd__anyType:
; 467  : 		((xsd__anyType *)ptr)->soap_serialize(soap);

	mov	esi, esp
	mov	eax, DWORD PTR _soap$[ebp]
	push	eax
	mov	ecx, DWORD PTR _ptr$[ebp]
	mov	edx, DWORD PTR [ecx]
	mov	ecx, DWORD PTR _ptr$[ebp]
	mov	eax, DWORD PTR [edx+8]
	call	eax
	cmp	esi, esp
	call	__RTC_CheckEsp

; 468  : 		break;

	jmp	$LN28@soap_marke
$LN12@soap_marke:

; 469  : 	case SOAP_TYPE___ns1__submitEpochResult:
; 470  : 		soap_serialize___ns1__submitEpochResult(soap, (const struct __ns1__submitEpochResult *)ptr);

	mov	eax, DWORD PTR _ptr$[ebp]
	push	eax
	mov	ecx, DWORD PTR _soap$[ebp]
	push	ecx
	call	?soap_serialize___ns1__submitEpochResult@@YAXPAUsoap@@PBU__ns1__submitEpochResult@@@Z ; soap_serialize___ns1__submitEpochResult
	add	esp, 8

; 471  : 		break;

	jmp	$LN28@soap_marke
$LN11@soap_marke:

; 472  : 	case SOAP_TYPE___ns1__getSettingsFile:
; 473  : 		soap_serialize___ns1__getSettingsFile(soap, (const struct __ns1__getSettingsFile *)ptr);

	mov	eax, DWORD PTR _ptr$[ebp]
	push	eax
	mov	ecx, DWORD PTR _soap$[ebp]
	push	ecx
	call	?soap_serialize___ns1__getSettingsFile@@YAXPAUsoap@@PBU__ns1__getSettingsFile@@@Z ; soap_serialize___ns1__getSettingsFile
	add	esp, 8

; 474  : 		break;

	jmp	$LN28@soap_marke
$LN10@soap_marke:

; 475  : 	case SOAP_TYPE___ns1__getSessionID:
; 476  : 		soap_serialize___ns1__getSessionID(soap, (const struct __ns1__getSessionID *)ptr);

	mov	eax, DWORD PTR _ptr$[ebp]
	push	eax
	mov	ecx, DWORD PTR _soap$[ebp]
	push	ecx
	call	?soap_serialize___ns1__getSessionID@@YAXPAUsoap@@PBU__ns1__getSessionID@@@Z ; soap_serialize___ns1__getSessionID
	add	esp, 8

; 477  : 		break;

	jmp	$LN28@soap_marke
$LN9@soap_marke:

; 478  : 	case SOAP_TYPE_PointerTo_ns2__submitEpochResultResponseElement:
; 479  : 		soap_serialize_PointerTo_ns2__submitEpochResultResponseElement(soap, (_ns2__submitEpochResultResponseElement *const*)ptr);

	mov	eax, DWORD PTR _ptr$[ebp]
	push	eax
	mov	ecx, DWORD PTR _soap$[ebp]
	push	ecx
	call	?soap_serialize_PointerTo_ns2__submitEpochResultResponseElement@@YAXPAUsoap@@PBQAV_ns2__submitEpochResultResponseElement@@@Z ; soap_serialize_PointerTo_ns2__submitEpochResultResponseElement
	add	esp, 8

; 480  : 		break;

	jmp	$LN28@soap_marke
$LN8@soap_marke:

; 481  : 	case SOAP_TYPE_PointerTo_ns2__submitEpochResultElement:
; 482  : 		soap_serialize_PointerTo_ns2__submitEpochResultElement(soap, (_ns2__submitEpochResultElement *const*)ptr);

	mov	eax, DWORD PTR _ptr$[ebp]
	push	eax
	mov	ecx, DWORD PTR _soap$[ebp]
	push	ecx
	call	?soap_serialize_PointerTo_ns2__submitEpochResultElement@@YAXPAUsoap@@PBQAV_ns2__submitEpochResultElement@@@Z ; soap_serialize_PointerTo_ns2__submitEpochResultElement
	add	esp, 8

; 483  : 		break;

	jmp	SHORT $LN28@soap_marke
$LN7@soap_marke:

; 484  : 	case SOAP_TYPE_PointerTo_ns2__getSettingsFileResponseElement:
; 485  : 		soap_serialize_PointerTo_ns2__getSettingsFileResponseElement(soap, (_ns2__getSettingsFileResponseElement *const*)ptr);

	mov	eax, DWORD PTR _ptr$[ebp]
	push	eax
	mov	ecx, DWORD PTR _soap$[ebp]
	push	ecx
	call	?soap_serialize_PointerTo_ns2__getSettingsFileResponseElement@@YAXPAUsoap@@PBQAV_ns2__getSettingsFileResponseElement@@@Z ; soap_serialize_PointerTo_ns2__getSettingsFileResponseElement
	add	esp, 8

; 486  : 		break;

	jmp	SHORT $LN28@soap_marke
$LN6@soap_marke:

; 487  : 	case SOAP_TYPE_PointerTo_ns2__getSettingsFileElement:
; 488  : 		soap_serialize_PointerTo_ns2__getSettingsFileElement(soap, (_ns2__getSettingsFileElement *const*)ptr);

	mov	eax, DWORD PTR _ptr$[ebp]
	push	eax
	mov	ecx, DWORD PTR _soap$[ebp]
	push	ecx
	call	?soap_serialize_PointerTo_ns2__getSettingsFileElement@@YAXPAUsoap@@PBQAV_ns2__getSettingsFileElement@@@Z ; soap_serialize_PointerTo_ns2__getSettingsFileElement
	add	esp, 8

; 489  : 		break;

	jmp	SHORT $LN28@soap_marke
$LN5@soap_marke:

; 490  : 	case SOAP_TYPE_PointerTo_ns2__getSessionIDResponseElement:
; 491  : 		soap_serialize_PointerTo_ns2__getSessionIDResponseElement(soap, (_ns2__getSessionIDResponseElement *const*)ptr);

	mov	eax, DWORD PTR _ptr$[ebp]
	push	eax
	mov	ecx, DWORD PTR _soap$[ebp]
	push	ecx
	call	?soap_serialize_PointerTo_ns2__getSessionIDResponseElement@@YAXPAUsoap@@PBQAV_ns2__getSessionIDResponseElement@@@Z ; soap_serialize_PointerTo_ns2__getSessionIDResponseElement
	add	esp, 8

; 492  : 		break;

	jmp	SHORT $LN28@soap_marke
$LN4@soap_marke:

; 493  : 	case SOAP_TYPE_PointerTo_ns2__getSessionIDElement:
; 494  : 		soap_serialize_PointerTo_ns2__getSessionIDElement(soap, (_ns2__getSessionIDElement *const*)ptr);

	mov	eax, DWORD PTR _ptr$[ebp]
	push	eax
	mov	ecx, DWORD PTR _soap$[ebp]
	push	ecx
	call	?soap_serialize_PointerTo_ns2__getSessionIDElement@@YAXPAUsoap@@PBQAV_ns2__getSessionIDElement@@@Z ; soap_serialize_PointerTo_ns2__getSessionIDElement
	add	esp, 8

; 495  : 		break;

	jmp	SHORT $LN28@soap_marke
$LN3@soap_marke:

; 496  : 	case SOAP_TYPE_PointerTostd__string:
; 497  : 		soap_serialize_PointerTostd__string(soap, (std::string *const*)ptr);

	mov	eax, DWORD PTR _ptr$[ebp]
	push	eax
	mov	ecx, DWORD PTR _soap$[ebp]
	push	ecx
	call	?soap_serialize_PointerTostd__string@@YAXPAUsoap@@PBQAV?$basic_string@DU?$char_traits@D@std@@V?$allocator@D@2@@std@@@Z ; soap_serialize_PointerTostd__string
	add	esp, 8

; 498  : 		break;

	jmp	SHORT $LN28@soap_marke
$LN2@soap_marke:

; 499  : 	case SOAP_TYPE__QName:
; 500  : 		soap_serialize_string(soap, (char*const*)&ptr);

	lea	eax, DWORD PTR _ptr$[ebp]
	push	eax
	mov	ecx, DWORD PTR _soap$[ebp]
	push	ecx
	call	?soap_serialize_string@@YAXPAUsoap@@PBQAD@Z ; soap_serialize_string
	add	esp, 8

; 501  : 		break;

	jmp	SHORT $LN28@soap_marke
$LN1@soap_marke:

; 502  : 	case SOAP_TYPE_string:
; 503  : 		soap_serialize_string(soap, (char*const*)&ptr);

	lea	eax, DWORD PTR _ptr$[ebp]
	push	eax
	mov	ecx, DWORD PTR _soap$[ebp]
	push	ecx
	call	?soap_serialize_string@@YAXPAUsoap@@PBQAD@Z ; soap_serialize_string
	add	esp, 8
$LN28@soap_marke:

; 504  : 		break;
; 505  : 	}
; 506  : }

	pop	edi
	pop	esi
	pop	ebx
	add	esp, 196				; 000000c4H
	cmp	ebp, esp
	call	__RTC_CheckEsp
	mov	esp, ebp
	pop	ebp
	ret	0
	npad	1
$LN30@soap_marke:
	DD	$LN1@soap_marke
	DD	$LN2@soap_marke
	DD	$LN28@soap_marke
	DD	$LN28@soap_marke
	DD	$LN13@soap_marke
	DD	$LN28@soap_marke
	DD	$LN14@soap_marke
	DD	$LN28@soap_marke
	DD	$LN15@soap_marke
	DD	$LN28@soap_marke
	DD	$LN16@soap_marke
	DD	$LN17@soap_marke
	DD	$LN28@soap_marke
	DD	$LN18@soap_marke
	DD	$LN19@soap_marke
	DD	$LN20@soap_marke
	DD	$LN21@soap_marke
	DD	$LN22@soap_marke
	DD	$LN23@soap_marke
	DD	$LN24@soap_marke
	DD	$LN25@soap_marke
	DD	$LN3@soap_marke
	DD	$LN28@soap_marke
	DD	$LN28@soap_marke
	DD	$LN4@soap_marke
	DD	$LN5@soap_marke
	DD	$LN28@soap_marke
	DD	$LN10@soap_marke
	DD	$LN6@soap_marke
	DD	$LN7@soap_marke
	DD	$LN28@soap_marke
	DD	$LN11@soap_marke
	DD	$LN8@soap_marke
	DD	$LN9@soap_marke
	DD	$LN28@soap_marke
	DD	$LN12@soap_marke
_soap_markelement ENDP
_TEXT	ENDS
PUBLIC	?soap_instantiate_std__vectorTemplateOfint@@YAPAV?$vector@HV?$allocator@H@std@@@std@@PAUsoap@@HPBD1PAI@Z ; soap_instantiate_std__vectorTemplateOfint
PUBLIC	?soap_instantiate_std__vectorTemplateOffloat@@YAPAV?$vector@MV?$allocator@M@std@@@std@@PAUsoap@@HPBD1PAI@Z ; soap_instantiate_std__vectorTemplateOffloat
PUBLIC	?soap_instantiate_SOAP_ENV__Fault@@YAPAUSOAP_ENV__Fault@@PAUsoap@@HPBD1PAI@Z ; soap_instantiate_SOAP_ENV__Fault
PUBLIC	?soap_instantiate_SOAP_ENV__Reason@@YAPAUSOAP_ENV__Reason@@PAUsoap@@HPBD1PAI@Z ; soap_instantiate_SOAP_ENV__Reason
PUBLIC	?soap_instantiate_SOAP_ENV__Detail@@YAPAUSOAP_ENV__Detail@@PAUsoap@@HPBD1PAI@Z ; soap_instantiate_SOAP_ENV__Detail
PUBLIC	?soap_instantiate_SOAP_ENV__Code@@YAPAUSOAP_ENV__Code@@PAUsoap@@HPBD1PAI@Z ; soap_instantiate_SOAP_ENV__Code
PUBLIC	?soap_instantiate_SOAP_ENV__Header@@YAPAUSOAP_ENV__Header@@PAUsoap@@HPBD1PAI@Z ; soap_instantiate_SOAP_ENV__Header
PUBLIC	?soap_instantiate___ns1__submitEpochResult@@YAPAU__ns1__submitEpochResult@@PAUsoap@@HPBD1PAI@Z ; soap_instantiate___ns1__submitEpochResult
PUBLIC	?soap_instantiate___ns1__getSettingsFile@@YAPAU__ns1__getSettingsFile@@PAUsoap@@HPBD1PAI@Z ; soap_instantiate___ns1__getSettingsFile
PUBLIC	?soap_instantiate___ns1__getSessionID@@YAPAU__ns1__getSessionID@@PAUsoap@@HPBD1PAI@Z ; soap_instantiate___ns1__getSessionID
PUBLIC	?soap_instantiate__ns2__submitEpochResultResponseElement@@YAPAV_ns2__submitEpochResultResponseElement@@PAUsoap@@HPBD1PAI@Z ; soap_instantiate__ns2__submitEpochResultResponseElement
PUBLIC	?soap_instantiate__ns2__submitEpochResultElement@@YAPAV_ns2__submitEpochResultElement@@PAUsoap@@HPBD1PAI@Z ; soap_instantiate__ns2__submitEpochResultElement
PUBLIC	?soap_instantiate__ns2__getSettingsFileResponseElement@@YAPAV_ns2__getSettingsFileResponseElement@@PAUsoap@@HPBD1PAI@Z ; soap_instantiate__ns2__getSettingsFileResponseElement
PUBLIC	?soap_instantiate__ns2__getSettingsFileElement@@YAPAV_ns2__getSettingsFileElement@@PAUsoap@@HPBD1PAI@Z ; soap_instantiate__ns2__getSettingsFileElement
PUBLIC	?soap_instantiate__ns2__getSessionIDResponseElement@@YAPAV_ns2__getSessionIDResponseElement@@PAUsoap@@HPBD1PAI@Z ; soap_instantiate__ns2__getSessionIDResponseElement
PUBLIC	?soap_instantiate__ns2__getSessionIDElement@@YAPAV_ns2__getSessionIDElement@@PAUsoap@@HPBD1PAI@Z ; soap_instantiate__ns2__getSessionIDElement
PUBLIC	?soap_instantiate_xsd__string@@YAPAVxsd__string@@PAUsoap@@HPBD1PAI@Z ; soap_instantiate_xsd__string
PUBLIC	?soap_instantiate_std__string@@YAPAV?$basic_string@DU?$char_traits@D@std@@V?$allocator@D@2@@std@@PAUsoap@@HPBD1PAI@Z ; soap_instantiate_std__string
PUBLIC	?soap_instantiate_xsd__long@@YAPAVxsd__long@@PAUsoap@@HPBD1PAI@Z ; soap_instantiate_xsd__long
PUBLIC	?soap_instantiate_xsd__int@@YAPAVxsd__int@@PAUsoap@@HPBD1PAI@Z ; soap_instantiate_xsd__int
PUBLIC	?soap_instantiate_xsd__float@@YAPAVxsd__float@@PAUsoap@@HPBD1PAI@Z ; soap_instantiate_xsd__float
PUBLIC	?soap_instantiate_xsd__boolean@@YAPAVxsd__boolean@@PAUsoap@@HPBD1PAI@Z ; soap_instantiate_xsd__boolean
PUBLIC	?soap_instantiate_xsd__anyType@@YAPAVxsd__anyType@@PAUsoap@@HPBD1PAI@Z ; soap_instantiate_xsd__anyType
PUBLIC	?soap_instantiate@@YAPAXPAUsoap@@HPBD1PAI@Z	; soap_instantiate
; Function compile flags: /Odtp /RTCcsu /ZI
;	COMDAT ?soap_instantiate@@YAPAXPAUsoap@@HPBD1PAI@Z
_TEXT	SEGMENT
tv64 = -196						; size = 4
_soap$ = 8						; size = 4
_t$ = 12						; size = 4
_type$ = 16						; size = 4
_arrayType$ = 20					; size = 4
_n$ = 24						; size = 4
?soap_instantiate@@YAPAXPAUsoap@@HPBD1PAI@Z PROC	; soap_instantiate, COMDAT

; 514  : {

	push	ebp
	mov	ebp, esp
	sub	esp, 196				; 000000c4H
	push	ebx
	push	esi
	push	edi
	lea	edi, DWORD PTR [ebp-196]
	mov	ecx, 49					; 00000031H
	mov	eax, -858993460				; ccccccccH
	rep stosd

; 515  : 	switch (t)

	mov	eax, DWORD PTR _t$[ebp]
	mov	DWORD PTR tv64[ebp], eax
	mov	ecx, DWORD PTR tv64[ebp]
	sub	ecx, 8
	mov	DWORD PTR tv64[ebp], ecx
	cmp	DWORD PTR tv64[ebp], 39			; 00000027H
	ja	$LN24@soap_insta
	mov	edx, DWORD PTR tv64[ebp]
	movzx	eax, BYTE PTR $LN28@soap_insta[edx]
	jmp	DWORD PTR $LN29@soap_insta[eax*4]
$LN23@soap_insta:

; 516  : 	{
; 517  : 	case SOAP_TYPE_xsd__anyType:
; 518  : 		return (void*)soap_instantiate_xsd__anyType(soap, -1, type, arrayType, n);

	mov	eax, DWORD PTR _n$[ebp]
	push	eax
	mov	ecx, DWORD PTR _arrayType$[ebp]
	push	ecx
	mov	edx, DWORD PTR _type$[ebp]
	push	edx
	push	-1
	mov	eax, DWORD PTR _soap$[ebp]
	push	eax
	call	?soap_instantiate_xsd__anyType@@YAPAVxsd__anyType@@PAUsoap@@HPBD1PAI@Z ; soap_instantiate_xsd__anyType
	add	esp, 20					; 00000014H
	jmp	$LN26@soap_insta
$LN22@soap_insta:

; 519  : 	case SOAP_TYPE_xsd__boolean:
; 520  : 		return (void*)soap_instantiate_xsd__boolean(soap, -1, type, arrayType, n);

	mov	eax, DWORD PTR _n$[ebp]
	push	eax
	mov	ecx, DWORD PTR _arrayType$[ebp]
	push	ecx
	mov	edx, DWORD PTR _type$[ebp]
	push	edx
	push	-1
	mov	eax, DWORD PTR _soap$[ebp]
	push	eax
	call	?soap_instantiate_xsd__boolean@@YAPAVxsd__boolean@@PAUsoap@@HPBD1PAI@Z ; soap_instantiate_xsd__boolean
	add	esp, 20					; 00000014H
	jmp	$LN26@soap_insta
$LN21@soap_insta:

; 521  : 	case SOAP_TYPE_xsd__float:
; 522  : 		return (void*)soap_instantiate_xsd__float(soap, -1, type, arrayType, n);

	mov	eax, DWORD PTR _n$[ebp]
	push	eax
	mov	ecx, DWORD PTR _arrayType$[ebp]
	push	ecx
	mov	edx, DWORD PTR _type$[ebp]
	push	edx
	push	-1
	mov	eax, DWORD PTR _soap$[ebp]
	push	eax
	call	?soap_instantiate_xsd__float@@YAPAVxsd__float@@PAUsoap@@HPBD1PAI@Z ; soap_instantiate_xsd__float
	add	esp, 20					; 00000014H
	jmp	$LN26@soap_insta
$LN20@soap_insta:

; 523  : 	case SOAP_TYPE_xsd__int:
; 524  : 		return (void*)soap_instantiate_xsd__int(soap, -1, type, arrayType, n);

	mov	eax, DWORD PTR _n$[ebp]
	push	eax
	mov	ecx, DWORD PTR _arrayType$[ebp]
	push	ecx
	mov	edx, DWORD PTR _type$[ebp]
	push	edx
	push	-1
	mov	eax, DWORD PTR _soap$[ebp]
	push	eax
	call	?soap_instantiate_xsd__int@@YAPAVxsd__int@@PAUsoap@@HPBD1PAI@Z ; soap_instantiate_xsd__int
	add	esp, 20					; 00000014H
	jmp	$LN26@soap_insta
$LN19@soap_insta:

; 525  : 	case SOAP_TYPE_xsd__long:
; 526  : 		return (void*)soap_instantiate_xsd__long(soap, -1, type, arrayType, n);

	mov	eax, DWORD PTR _n$[ebp]
	push	eax
	mov	ecx, DWORD PTR _arrayType$[ebp]
	push	ecx
	mov	edx, DWORD PTR _type$[ebp]
	push	edx
	push	-1
	mov	eax, DWORD PTR _soap$[ebp]
	push	eax
	call	?soap_instantiate_xsd__long@@YAPAVxsd__long@@PAUsoap@@HPBD1PAI@Z ; soap_instantiate_xsd__long
	add	esp, 20					; 00000014H
	jmp	$LN26@soap_insta
$LN18@soap_insta:

; 527  : 	case SOAP_TYPE_std__string:
; 528  : 		return (void*)soap_instantiate_std__string(soap, -1, type, arrayType, n);

	mov	eax, DWORD PTR _n$[ebp]
	push	eax
	mov	ecx, DWORD PTR _arrayType$[ebp]
	push	ecx
	mov	edx, DWORD PTR _type$[ebp]
	push	edx
	push	-1
	mov	eax, DWORD PTR _soap$[ebp]
	push	eax
	call	?soap_instantiate_std__string@@YAPAV?$basic_string@DU?$char_traits@D@std@@V?$allocator@D@2@@std@@PAUsoap@@HPBD1PAI@Z ; soap_instantiate_std__string
	add	esp, 20					; 00000014H
	jmp	$LN26@soap_insta
$LN17@soap_insta:

; 529  : 	case SOAP_TYPE_xsd__string:
; 530  : 		return (void*)soap_instantiate_xsd__string(soap, -1, type, arrayType, n);

	mov	eax, DWORD PTR _n$[ebp]
	push	eax
	mov	ecx, DWORD PTR _arrayType$[ebp]
	push	ecx
	mov	edx, DWORD PTR _type$[ebp]
	push	edx
	push	-1
	mov	eax, DWORD PTR _soap$[ebp]
	push	eax
	call	?soap_instantiate_xsd__string@@YAPAVxsd__string@@PAUsoap@@HPBD1PAI@Z ; soap_instantiate_xsd__string
	add	esp, 20					; 00000014H
	jmp	$LN26@soap_insta
$LN16@soap_insta:

; 531  : 	case SOAP_TYPE__ns2__getSessionIDElement:
; 532  : 		return (void*)soap_instantiate__ns2__getSessionIDElement(soap, -1, type, arrayType, n);

	mov	eax, DWORD PTR _n$[ebp]
	push	eax
	mov	ecx, DWORD PTR _arrayType$[ebp]
	push	ecx
	mov	edx, DWORD PTR _type$[ebp]
	push	edx
	push	-1
	mov	eax, DWORD PTR _soap$[ebp]
	push	eax
	call	?soap_instantiate__ns2__getSessionIDElement@@YAPAV_ns2__getSessionIDElement@@PAUsoap@@HPBD1PAI@Z ; soap_instantiate__ns2__getSessionIDElement
	add	esp, 20					; 00000014H
	jmp	$LN26@soap_insta
$LN15@soap_insta:

; 533  : 	case SOAP_TYPE__ns2__getSessionIDResponseElement:
; 534  : 		return (void*)soap_instantiate__ns2__getSessionIDResponseElement(soap, -1, type, arrayType, n);

	mov	eax, DWORD PTR _n$[ebp]
	push	eax
	mov	ecx, DWORD PTR _arrayType$[ebp]
	push	ecx
	mov	edx, DWORD PTR _type$[ebp]
	push	edx
	push	-1
	mov	eax, DWORD PTR _soap$[ebp]
	push	eax
	call	?soap_instantiate__ns2__getSessionIDResponseElement@@YAPAV_ns2__getSessionIDResponseElement@@PAUsoap@@HPBD1PAI@Z ; soap_instantiate__ns2__getSessionIDResponseElement
	add	esp, 20					; 00000014H
	jmp	$LN26@soap_insta
$LN14@soap_insta:

; 535  : 	case SOAP_TYPE__ns2__getSettingsFileElement:
; 536  : 		return (void*)soap_instantiate__ns2__getSettingsFileElement(soap, -1, type, arrayType, n);

	mov	eax, DWORD PTR _n$[ebp]
	push	eax
	mov	ecx, DWORD PTR _arrayType$[ebp]
	push	ecx
	mov	edx, DWORD PTR _type$[ebp]
	push	edx
	push	-1
	mov	eax, DWORD PTR _soap$[ebp]
	push	eax
	call	?soap_instantiate__ns2__getSettingsFileElement@@YAPAV_ns2__getSettingsFileElement@@PAUsoap@@HPBD1PAI@Z ; soap_instantiate__ns2__getSettingsFileElement
	add	esp, 20					; 00000014H
	jmp	$LN26@soap_insta
$LN13@soap_insta:

; 537  : 	case SOAP_TYPE__ns2__getSettingsFileResponseElement:
; 538  : 		return (void*)soap_instantiate__ns2__getSettingsFileResponseElement(soap, -1, type, arrayType, n);

	mov	eax, DWORD PTR _n$[ebp]
	push	eax
	mov	ecx, DWORD PTR _arrayType$[ebp]
	push	ecx
	mov	edx, DWORD PTR _type$[ebp]
	push	edx
	push	-1
	mov	eax, DWORD PTR _soap$[ebp]
	push	eax
	call	?soap_instantiate__ns2__getSettingsFileResponseElement@@YAPAV_ns2__getSettingsFileResponseElement@@PAUsoap@@HPBD1PAI@Z ; soap_instantiate__ns2__getSettingsFileResponseElement
	add	esp, 20					; 00000014H
	jmp	$LN26@soap_insta
$LN12@soap_insta:

; 539  : 	case SOAP_TYPE__ns2__submitEpochResultElement:
; 540  : 		return (void*)soap_instantiate__ns2__submitEpochResultElement(soap, -1, type, arrayType, n);

	mov	eax, DWORD PTR _n$[ebp]
	push	eax
	mov	ecx, DWORD PTR _arrayType$[ebp]
	push	ecx
	mov	edx, DWORD PTR _type$[ebp]
	push	edx
	push	-1
	mov	eax, DWORD PTR _soap$[ebp]
	push	eax
	call	?soap_instantiate__ns2__submitEpochResultElement@@YAPAV_ns2__submitEpochResultElement@@PAUsoap@@HPBD1PAI@Z ; soap_instantiate__ns2__submitEpochResultElement
	add	esp, 20					; 00000014H
	jmp	$LN26@soap_insta
$LN11@soap_insta:

; 541  : 	case SOAP_TYPE__ns2__submitEpochResultResponseElement:
; 542  : 		return (void*)soap_instantiate__ns2__submitEpochResultResponseElement(soap, -1, type, arrayType, n);

	mov	eax, DWORD PTR _n$[ebp]
	push	eax
	mov	ecx, DWORD PTR _arrayType$[ebp]
	push	ecx
	mov	edx, DWORD PTR _type$[ebp]
	push	edx
	push	-1
	mov	eax, DWORD PTR _soap$[ebp]
	push	eax
	call	?soap_instantiate__ns2__submitEpochResultResponseElement@@YAPAV_ns2__submitEpochResultResponseElement@@PAUsoap@@HPBD1PAI@Z ; soap_instantiate__ns2__submitEpochResultResponseElement
	add	esp, 20					; 00000014H
	jmp	$LN26@soap_insta
$LN10@soap_insta:

; 543  : 	case SOAP_TYPE___ns1__getSessionID:
; 544  : 		return (void*)soap_instantiate___ns1__getSessionID(soap, -1, type, arrayType, n);

	mov	eax, DWORD PTR _n$[ebp]
	push	eax
	mov	ecx, DWORD PTR _arrayType$[ebp]
	push	ecx
	mov	edx, DWORD PTR _type$[ebp]
	push	edx
	push	-1
	mov	eax, DWORD PTR _soap$[ebp]
	push	eax
	call	?soap_instantiate___ns1__getSessionID@@YAPAU__ns1__getSessionID@@PAUsoap@@HPBD1PAI@Z ; soap_instantiate___ns1__getSessionID
	add	esp, 20					; 00000014H
	jmp	$LN26@soap_insta
$LN9@soap_insta:

; 545  : 	case SOAP_TYPE___ns1__getSettingsFile:
; 546  : 		return (void*)soap_instantiate___ns1__getSettingsFile(soap, -1, type, arrayType, n);

	mov	eax, DWORD PTR _n$[ebp]
	push	eax
	mov	ecx, DWORD PTR _arrayType$[ebp]
	push	ecx
	mov	edx, DWORD PTR _type$[ebp]
	push	edx
	push	-1
	mov	eax, DWORD PTR _soap$[ebp]
	push	eax
	call	?soap_instantiate___ns1__getSettingsFile@@YAPAU__ns1__getSettingsFile@@PAUsoap@@HPBD1PAI@Z ; soap_instantiate___ns1__getSettingsFile
	add	esp, 20					; 00000014H
	jmp	$LN26@soap_insta
$LN8@soap_insta:

; 547  : 	case SOAP_TYPE___ns1__submitEpochResult:
; 548  : 		return (void*)soap_instantiate___ns1__submitEpochResult(soap, -1, type, arrayType, n);

	mov	eax, DWORD PTR _n$[ebp]
	push	eax
	mov	ecx, DWORD PTR _arrayType$[ebp]
	push	ecx
	mov	edx, DWORD PTR _type$[ebp]
	push	edx
	push	-1
	mov	eax, DWORD PTR _soap$[ebp]
	push	eax
	call	?soap_instantiate___ns1__submitEpochResult@@YAPAU__ns1__submitEpochResult@@PAUsoap@@HPBD1PAI@Z ; soap_instantiate___ns1__submitEpochResult
	add	esp, 20					; 00000014H
	jmp	$LN26@soap_insta
$LN7@soap_insta:

; 549  : #ifndef WITH_NOGLOBAL
; 550  : 	case SOAP_TYPE_SOAP_ENV__Header:
; 551  : 		return (void*)soap_instantiate_SOAP_ENV__Header(soap, -1, type, arrayType, n);

	mov	eax, DWORD PTR _n$[ebp]
	push	eax
	mov	ecx, DWORD PTR _arrayType$[ebp]
	push	ecx
	mov	edx, DWORD PTR _type$[ebp]
	push	edx
	push	-1
	mov	eax, DWORD PTR _soap$[ebp]
	push	eax
	call	?soap_instantiate_SOAP_ENV__Header@@YAPAUSOAP_ENV__Header@@PAUsoap@@HPBD1PAI@Z ; soap_instantiate_SOAP_ENV__Header
	add	esp, 20					; 00000014H
	jmp	$LN26@soap_insta
$LN6@soap_insta:

; 552  : #endif
; 553  : #ifndef WITH_NOGLOBAL
; 554  : 	case SOAP_TYPE_SOAP_ENV__Code:
; 555  : 		return (void*)soap_instantiate_SOAP_ENV__Code(soap, -1, type, arrayType, n);

	mov	eax, DWORD PTR _n$[ebp]
	push	eax
	mov	ecx, DWORD PTR _arrayType$[ebp]
	push	ecx
	mov	edx, DWORD PTR _type$[ebp]
	push	edx
	push	-1
	mov	eax, DWORD PTR _soap$[ebp]
	push	eax
	call	?soap_instantiate_SOAP_ENV__Code@@YAPAUSOAP_ENV__Code@@PAUsoap@@HPBD1PAI@Z ; soap_instantiate_SOAP_ENV__Code
	add	esp, 20					; 00000014H
	jmp	$LN26@soap_insta
$LN5@soap_insta:

; 556  : #endif
; 557  : #ifndef WITH_NOGLOBAL
; 558  : 	case SOAP_TYPE_SOAP_ENV__Detail:
; 559  : 		return (void*)soap_instantiate_SOAP_ENV__Detail(soap, -1, type, arrayType, n);

	mov	eax, DWORD PTR _n$[ebp]
	push	eax
	mov	ecx, DWORD PTR _arrayType$[ebp]
	push	ecx
	mov	edx, DWORD PTR _type$[ebp]
	push	edx
	push	-1
	mov	eax, DWORD PTR _soap$[ebp]
	push	eax
	call	?soap_instantiate_SOAP_ENV__Detail@@YAPAUSOAP_ENV__Detail@@PAUsoap@@HPBD1PAI@Z ; soap_instantiate_SOAP_ENV__Detail
	add	esp, 20					; 00000014H
	jmp	SHORT $LN26@soap_insta
$LN4@soap_insta:

; 560  : #endif
; 561  : #ifndef WITH_NOGLOBAL
; 562  : 	case SOAP_TYPE_SOAP_ENV__Reason:
; 563  : 		return (void*)soap_instantiate_SOAP_ENV__Reason(soap, -1, type, arrayType, n);

	mov	eax, DWORD PTR _n$[ebp]
	push	eax
	mov	ecx, DWORD PTR _arrayType$[ebp]
	push	ecx
	mov	edx, DWORD PTR _type$[ebp]
	push	edx
	push	-1
	mov	eax, DWORD PTR _soap$[ebp]
	push	eax
	call	?soap_instantiate_SOAP_ENV__Reason@@YAPAUSOAP_ENV__Reason@@PAUsoap@@HPBD1PAI@Z ; soap_instantiate_SOAP_ENV__Reason
	add	esp, 20					; 00000014H
	jmp	SHORT $LN26@soap_insta
$LN3@soap_insta:

; 564  : #endif
; 565  : #ifndef WITH_NOGLOBAL
; 566  : 	case SOAP_TYPE_SOAP_ENV__Fault:
; 567  : 		return (void*)soap_instantiate_SOAP_ENV__Fault(soap, -1, type, arrayType, n);

	mov	eax, DWORD PTR _n$[ebp]
	push	eax
	mov	ecx, DWORD PTR _arrayType$[ebp]
	push	ecx
	mov	edx, DWORD PTR _type$[ebp]
	push	edx
	push	-1
	mov	eax, DWORD PTR _soap$[ebp]
	push	eax
	call	?soap_instantiate_SOAP_ENV__Fault@@YAPAUSOAP_ENV__Fault@@PAUsoap@@HPBD1PAI@Z ; soap_instantiate_SOAP_ENV__Fault
	add	esp, 20					; 00000014H
	jmp	SHORT $LN26@soap_insta
$LN2@soap_insta:

; 568  : #endif
; 569  : 	case SOAP_TYPE_std__vectorTemplateOffloat:
; 570  : 		return (void*)soap_instantiate_std__vectorTemplateOffloat(soap, -1, type, arrayType, n);

	mov	eax, DWORD PTR _n$[ebp]
	push	eax
	mov	ecx, DWORD PTR _arrayType$[ebp]
	push	ecx
	mov	edx, DWORD PTR _type$[ebp]
	push	edx
	push	-1
	mov	eax, DWORD PTR _soap$[ebp]
	push	eax
	call	?soap_instantiate_std__vectorTemplateOffloat@@YAPAV?$vector@MV?$allocator@M@std@@@std@@PAUsoap@@HPBD1PAI@Z ; soap_instantiate_std__vectorTemplateOffloat
	add	esp, 20					; 00000014H
	jmp	SHORT $LN26@soap_insta
$LN1@soap_insta:

; 571  : 	case SOAP_TYPE_std__vectorTemplateOfint:
; 572  : 		return (void*)soap_instantiate_std__vectorTemplateOfint(soap, -1, type, arrayType, n);

	mov	eax, DWORD PTR _n$[ebp]
	push	eax
	mov	ecx, DWORD PTR _arrayType$[ebp]
	push	ecx
	mov	edx, DWORD PTR _type$[ebp]
	push	edx
	push	-1
	mov	eax, DWORD PTR _soap$[ebp]
	push	eax
	call	?soap_instantiate_std__vectorTemplateOfint@@YAPAV?$vector@HV?$allocator@H@std@@@std@@PAUsoap@@HPBD1PAI@Z ; soap_instantiate_std__vectorTemplateOfint
	add	esp, 20					; 00000014H
	jmp	SHORT $LN26@soap_insta
$LN24@soap_insta:

; 573  : 	}
; 574  : 	return NULL;

	xor	eax, eax
$LN26@soap_insta:

; 575  : }

	pop	edi
	pop	esi
	pop	ebx
	add	esp, 196				; 000000c4H
	cmp	ebp, esp
	call	__RTC_CheckEsp
	mov	esp, ebp
	pop	ebp
	ret	0
	npad	1
$LN29@soap_insta:
	DD	$LN23@soap_insta
	DD	$LN22@soap_insta
	DD	$LN21@soap_insta
	DD	$LN20@soap_insta
	DD	$LN19@soap_insta
	DD	$LN17@soap_insta
	DD	$LN18@soap_insta
	DD	$LN16@soap_insta
	DD	$LN15@soap_insta
	DD	$LN14@soap_insta
	DD	$LN13@soap_insta
	DD	$LN12@soap_insta
	DD	$LN11@soap_insta
	DD	$LN1@soap_insta
	DD	$LN2@soap_insta
	DD	$LN10@soap_insta
	DD	$LN9@soap_insta
	DD	$LN8@soap_insta
	DD	$LN7@soap_insta
	DD	$LN6@soap_insta
	DD	$LN5@soap_insta
	DD	$LN4@soap_insta
	DD	$LN3@soap_insta
	DD	$LN24@soap_insta
$LN28@soap_insta:
	DB	0
	DB	23					; 00000017H
	DB	1
	DB	23					; 00000017H
	DB	2
	DB	23					; 00000017H
	DB	3
	DB	4
	DB	23					; 00000017H
	DB	5
	DB	6
	DB	7
	DB	8
	DB	9
	DB	10					; 0000000aH
	DB	11					; 0000000bH
	DB	12					; 0000000cH
	DB	23					; 00000017H
	DB	13					; 0000000dH
	DB	14					; 0000000eH
	DB	23					; 00000017H
	DB	23					; 00000017H
	DB	23					; 00000017H
	DB	15					; 0000000fH
	DB	23					; 00000017H
	DB	23					; 00000017H
	DB	23					; 00000017H
	DB	16					; 00000010H
	DB	23					; 00000017H
	DB	23					; 00000017H
	DB	23					; 00000017H
	DB	17					; 00000011H
	DB	18					; 00000012H
	DB	19					; 00000013H
	DB	23					; 00000017H
	DB	20					; 00000014H
	DB	23					; 00000017H
	DB	23					; 00000017H
	DB	21					; 00000015H
	DB	22					; 00000016H
?soap_instantiate@@YAPAXPAUsoap@@HPBD1PAI@Z ENDP	; soap_instantiate
_TEXT	ENDS
PUBLIC	??_E?$vector@HV?$allocator@H@std@@@std@@QAEPAXI@Z ; std::vector<int,std::allocator<int> >::`vector deleting destructor'
PUBLIC	??_G?$vector@HV?$allocator@H@std@@@std@@QAEPAXI@Z ; std::vector<int,std::allocator<int> >::`scalar deleting destructor'
PUBLIC	??_E?$vector@MV?$allocator@M@std@@@std@@QAEPAXI@Z ; std::vector<float,std::allocator<float> >::`vector deleting destructor'
PUBLIC	??_G?$vector@MV?$allocator@M@std@@@std@@QAEPAXI@Z ; std::vector<float,std::allocator<float> >::`scalar deleting destructor'
PUBLIC	??_E?$basic_string@DU?$char_traits@D@std@@V?$allocator@D@2@@std@@QAEPAXI@Z ; std::basic_string<char,std::char_traits<char>,std::allocator<char> >::`vector deleting destructor'
PUBLIC	??_G?$basic_string@DU?$char_traits@D@std@@V?$allocator@D@2@@std@@QAEPAXI@Z ; std::basic_string<char,std::char_traits<char>,std::allocator<char> >::`scalar deleting destructor'
PUBLIC	?soap_fdelete@@YAHPAUsoap_clist@@@Z		; soap_fdelete
EXTRN	??3@YAXPAX@Z:PROC				; operator delete
EXTRN	??_V@YAXPAX@Z:PROC				; operator delete[]
; Function compile flags: /Odtp /RTCcsu /ZI
;	COMDAT ?soap_fdelete@@YAHPAUsoap_clist@@@Z
_TEXT	SEGMENT
tv491 = -1256						; size = 4
tv436 = -1256						; size = 4
tv413 = -1256						; size = 4
tv390 = -1256						; size = 4
tv367 = -1256						; size = 4
tv344 = -1256						; size = 4
tv321 = -1256						; size = 4
tv244 = -1256						; size = 4
tv213 = -1256						; size = 4
tv182 = -1256						; size = 4
tv151 = -1256						; size = 4
tv88 = -1256						; size = 4
tv567 = -1252						; size = 4
tv561 = -1252						; size = 4
tv553 = -1252						; size = 4
tv547 = -1252						; size = 4
tv490 = -1252						; size = 4
tv446 = -1252						; size = 4
tv435 = -1252						; size = 4
tv423 = -1252						; size = 4
tv412 = -1252						; size = 4
tv400 = -1252						; size = 4
tv389 = -1252						; size = 4
tv377 = -1252						; size = 4
tv366 = -1252						; size = 4
tv354 = -1252						; size = 4
tv343 = -1252						; size = 4
tv331 = -1252						; size = 4
tv320 = -1252						; size = 4
tv272 = -1252						; size = 4
tv258 = -1252						; size = 4
tv252 = -1252						; size = 4
tv243 = -1252						; size = 4
tv227 = -1252						; size = 4
tv212 = -1252						; size = 4
tv196 = -1252						; size = 4
tv181 = -1252						; size = 4
tv165 = -1252						; size = 4
tv150 = -1252						; size = 4
tv134 = -1252						; size = 4
tv87 = -1252						; size = 4
tv75 = -1252						; size = 4
tv65 = -1252						; size = 4
$T100460 = -1244					; size = 4
$T100461 = -1232					; size = 4
$T100464 = -1220					; size = 4
$T100465 = -1208					; size = 4
$T100466 = -1196					; size = 4
$T100471 = -1184					; size = 4
$T100472 = -1172					; size = 4
$T100475 = -1160					; size = 4
$T100476 = -1148					; size = 4
$T100477 = -1136					; size = 4
$T100482 = -1124					; size = 4
$T100483 = -1112					; size = 4
$T100486 = -1100					; size = 4
$T100487 = -1088					; size = 4
$T100488 = -1076					; size = 4
$T100493 = -1064					; size = 4
$T100494 = -1052					; size = 4
$T100497 = -1040					; size = 4
$T100498 = -1028					; size = 4
$T100499 = -1016					; size = 4
$T100504 = -1004					; size = 4
$T100505 = -992						; size = 4
$T100508 = -980						; size = 4
$T100509 = -968						; size = 4
$T100510 = -956						; size = 4
$T100515 = -944						; size = 4
$T100516 = -932						; size = 4
$T100519 = -920						; size = 4
$T100520 = -908						; size = 4
$T100523 = -896						; size = 4
$T100524 = -884						; size = 4
$T100527 = -872						; size = 4
$T100528 = -860						; size = 4
$T100529 = -848						; size = 4
$T100534 = -836						; size = 4
$T100535 = -824						; size = 4
$T100538 = -812						; size = 4
$T100539 = -800						; size = 4
$T100540 = -788						; size = 4
$T100545 = -776						; size = 4
$T100546 = -764						; size = 4
$T100549 = -752						; size = 4
$T100550 = -740						; size = 4
$T100551 = -728						; size = 4
$T100556 = -716						; size = 4
$T100557 = -704						; size = 4
$T100560 = -692						; size = 4
$T100561 = -680						; size = 4
$T100562 = -668						; size = 4
$T100567 = -656						; size = 4
$T100568 = -644						; size = 4
$T100571 = -632						; size = 4
$T100572 = -620						; size = 4
$T100573 = -608						; size = 4
$T100578 = -596						; size = 4
$T100579 = -584						; size = 4
$T100582 = -572						; size = 4
$T100583 = -560						; size = 4
$T100584 = -548						; size = 4
$T100589 = -536						; size = 4
$T100590 = -524						; size = 4
$T100593 = -512						; size = 4
$T100594 = -500						; size = 4
$T100595 = -488						; size = 4
$T100600 = -476						; size = 4
$T100601 = -464						; size = 4
$T100602 = -452						; size = 4
$T100603 = -440						; size = 4
$T100604 = -428						; size = 4
$T100605 = -416						; size = 4
$T100606 = -404						; size = 4
$T100607 = -392						; size = 4
$T100608 = -380						; size = 4
$T100609 = -368						; size = 4
$T100610 = -356						; size = 4
$T100611 = -344						; size = 4
$T100612 = -332						; size = 4
$T100613 = -320						; size = 4
$T100614 = -308						; size = 4
$T100615 = -296						; size = 4
$T100616 = -284						; size = 4
$T100617 = -272						; size = 4
$T100620 = -260						; size = 4
$T100621 = -248						; size = 4
$T100624 = -236						; size = 4
$T100625 = -224						; size = 4
$T100628 = -212						; size = 4
$T100629 = -200						; size = 4
_p$ = 8							; size = 4
?soap_fdelete@@YAHPAUsoap_clist@@@Z PROC		; soap_fdelete, COMDAT

; 578  : {	switch (p->type)

	push	ebp
	mov	ebp, esp
	sub	esp, 1256				; 000004e8H
	push	ebx
	push	esi
	push	edi
	lea	edi, DWORD PTR [ebp-1256]
	mov	ecx, 314				; 0000013aH
	mov	eax, -858993460				; ccccccccH
	rep stosd
	mov	eax, DWORD PTR _p$[ebp]
	mov	ecx, DWORD PTR [eax+8]
	mov	DWORD PTR tv65[ebp], ecx
	mov	edx, DWORD PTR tv65[ebp]
	sub	edx, 8
	mov	DWORD PTR tv65[ebp], edx
	cmp	DWORD PTR tv65[ebp], 39			; 00000027H
	ja	$LN1@soap_fdele
	mov	eax, DWORD PTR tv65[ebp]
	movzx	ecx, BYTE PTR $LN159@soap_fdele[eax]
	jmp	DWORD PTR $LN160@soap_fdele[ecx*4]
$LN70@soap_fdele:

; 579  : 	{
; 580  : 	case SOAP_TYPE_xsd__anyType:
; 581  : 		if (p->size < 0)

	mov	eax, DWORD PTR _p$[ebp]
	cmp	DWORD PTR [eax+12], 0
	jge	SHORT $LN69@soap_fdele

; 582  : 			delete (xsd__anyType*)p->ptr;

	mov	eax, DWORD PTR _p$[ebp]
	mov	ecx, DWORD PTR [eax+4]
	mov	DWORD PTR $T100461[ebp], ecx
	mov	edx, DWORD PTR $T100461[ebp]
	mov	DWORD PTR $T100460[ebp], edx
	cmp	DWORD PTR $T100460[ebp], 0
	je	SHORT $LN75@soap_fdele
	mov	esi, esp
	push	1
	mov	eax, DWORD PTR $T100460[ebp]
	mov	edx, DWORD PTR [eax]
	mov	ecx, DWORD PTR $T100460[ebp]
	mov	eax, DWORD PTR [edx+28]
	call	eax
	cmp	esi, esp
	call	__RTC_CheckEsp
	mov	DWORD PTR tv75[ebp], eax
	jmp	SHORT $LN76@soap_fdele
$LN75@soap_fdele:
	mov	DWORD PTR tv75[ebp], 0
$LN76@soap_fdele:

; 583  : 		else

	jmp	$LN68@soap_fdele
$LN69@soap_fdele:

; 584  : 			delete[] (xsd__anyType*)p->ptr;

	mov	eax, DWORD PTR _p$[ebp]
	mov	ecx, DWORD PTR [eax+4]
	mov	DWORD PTR $T100466[ebp], ecx
	mov	edx, DWORD PTR $T100466[ebp]
	mov	DWORD PTR $T100465[ebp], edx
	mov	eax, DWORD PTR $T100465[ebp]
	mov	DWORD PTR $T100464[ebp], eax
	cmp	DWORD PTR $T100464[ebp], 0
	je	SHORT $LN79@soap_fdele
	mov	ecx, DWORD PTR $T100464[ebp]
	cmp	DWORD PTR [ecx-4], 0
	je	SHORT $LN77@soap_fdele
	mov	esi, esp
	push	3
	mov	edx, DWORD PTR $T100465[ebp]
	mov	eax, DWORD PTR [edx]
	mov	ecx, DWORD PTR $T100465[ebp]
	mov	edx, DWORD PTR [eax+28]
	call	edx
	cmp	esi, esp
	call	__RTC_CheckEsp
	mov	DWORD PTR tv87[ebp], eax
	jmp	SHORT $LN78@soap_fdele
$LN77@soap_fdele:
	mov	eax, DWORD PTR $T100464[ebp]
	sub	eax, 4
	push	eax
	call	??_V@YAXPAX@Z				; operator delete[]
	add	esp, 4
	mov	DWORD PTR tv87[ebp], 0
$LN78@soap_fdele:
	mov	ecx, DWORD PTR tv87[ebp]
	mov	DWORD PTR tv88[ebp], ecx
	jmp	SHORT $LN68@soap_fdele
$LN79@soap_fdele:
	mov	DWORD PTR tv88[ebp], 0
$LN68@soap_fdele:

; 585  : 		break;

	jmp	$LN71@soap_fdele
$LN67@soap_fdele:

; 586  : 	case SOAP_TYPE_xsd__boolean:
; 587  : 		if (p->size < 0)

	mov	eax, DWORD PTR _p$[ebp]
	cmp	DWORD PTR [eax+12], 0
	jge	SHORT $LN66@soap_fdele

; 588  : 			delete (xsd__boolean*)p->ptr;

	mov	eax, DWORD PTR _p$[ebp]
	mov	ecx, DWORD PTR [eax+4]
	mov	DWORD PTR $T100472[ebp], ecx
	mov	edx, DWORD PTR $T100472[ebp]
	mov	DWORD PTR $T100471[ebp], edx
	cmp	DWORD PTR $T100471[ebp], 0
	je	SHORT $LN81@soap_fdele
	mov	esi, esp
	push	1
	mov	eax, DWORD PTR $T100471[ebp]
	mov	edx, DWORD PTR [eax]
	mov	ecx, DWORD PTR $T100471[ebp]
	mov	eax, DWORD PTR [edx+28]
	call	eax
	cmp	esi, esp
	call	__RTC_CheckEsp
	mov	DWORD PTR tv134[ebp], eax
	jmp	SHORT $LN82@soap_fdele
$LN81@soap_fdele:
	mov	DWORD PTR tv134[ebp], 0
$LN82@soap_fdele:

; 589  : 		else

	jmp	$LN65@soap_fdele
$LN66@soap_fdele:

; 590  : 			delete[] (xsd__boolean*)p->ptr;

	mov	eax, DWORD PTR _p$[ebp]
	mov	ecx, DWORD PTR [eax+4]
	mov	DWORD PTR $T100477[ebp], ecx
	mov	edx, DWORD PTR $T100477[ebp]
	mov	DWORD PTR $T100476[ebp], edx
	mov	eax, DWORD PTR $T100476[ebp]
	mov	DWORD PTR $T100475[ebp], eax
	cmp	DWORD PTR $T100475[ebp], 0
	je	SHORT $LN85@soap_fdele
	mov	ecx, DWORD PTR $T100475[ebp]
	cmp	DWORD PTR [ecx-4], 0
	je	SHORT $LN83@soap_fdele
	mov	esi, esp
	push	3
	mov	edx, DWORD PTR $T100476[ebp]
	mov	eax, DWORD PTR [edx]
	mov	ecx, DWORD PTR $T100476[ebp]
	mov	edx, DWORD PTR [eax+28]
	call	edx
	cmp	esi, esp
	call	__RTC_CheckEsp
	mov	DWORD PTR tv150[ebp], eax
	jmp	SHORT $LN84@soap_fdele
$LN83@soap_fdele:
	mov	eax, DWORD PTR $T100475[ebp]
	sub	eax, 4
	push	eax
	call	??_V@YAXPAX@Z				; operator delete[]
	add	esp, 4
	mov	DWORD PTR tv150[ebp], 0
$LN84@soap_fdele:
	mov	ecx, DWORD PTR tv150[ebp]
	mov	DWORD PTR tv151[ebp], ecx
	jmp	SHORT $LN65@soap_fdele
$LN85@soap_fdele:
	mov	DWORD PTR tv151[ebp], 0
$LN65@soap_fdele:

; 591  : 		break;

	jmp	$LN71@soap_fdele
$LN64@soap_fdele:

; 592  : 	case SOAP_TYPE_xsd__float:
; 593  : 		if (p->size < 0)

	mov	eax, DWORD PTR _p$[ebp]
	cmp	DWORD PTR [eax+12], 0
	jge	SHORT $LN63@soap_fdele

; 594  : 			delete (xsd__float*)p->ptr;

	mov	eax, DWORD PTR _p$[ebp]
	mov	ecx, DWORD PTR [eax+4]
	mov	DWORD PTR $T100483[ebp], ecx
	mov	edx, DWORD PTR $T100483[ebp]
	mov	DWORD PTR $T100482[ebp], edx
	cmp	DWORD PTR $T100482[ebp], 0
	je	SHORT $LN87@soap_fdele
	mov	esi, esp
	push	1
	mov	eax, DWORD PTR $T100482[ebp]
	mov	edx, DWORD PTR [eax]
	mov	ecx, DWORD PTR $T100482[ebp]
	mov	eax, DWORD PTR [edx+28]
	call	eax
	cmp	esi, esp
	call	__RTC_CheckEsp
	mov	DWORD PTR tv165[ebp], eax
	jmp	SHORT $LN88@soap_fdele
$LN87@soap_fdele:
	mov	DWORD PTR tv165[ebp], 0
$LN88@soap_fdele:

; 595  : 		else

	jmp	$LN62@soap_fdele
$LN63@soap_fdele:

; 596  : 			delete[] (xsd__float*)p->ptr;

	mov	eax, DWORD PTR _p$[ebp]
	mov	ecx, DWORD PTR [eax+4]
	mov	DWORD PTR $T100488[ebp], ecx
	mov	edx, DWORD PTR $T100488[ebp]
	mov	DWORD PTR $T100487[ebp], edx
	mov	eax, DWORD PTR $T100487[ebp]
	mov	DWORD PTR $T100486[ebp], eax
	cmp	DWORD PTR $T100486[ebp], 0
	je	SHORT $LN91@soap_fdele
	mov	ecx, DWORD PTR $T100486[ebp]
	cmp	DWORD PTR [ecx-4], 0
	je	SHORT $LN89@soap_fdele
	mov	esi, esp
	push	3
	mov	edx, DWORD PTR $T100487[ebp]
	mov	eax, DWORD PTR [edx]
	mov	ecx, DWORD PTR $T100487[ebp]
	mov	edx, DWORD PTR [eax+28]
	call	edx
	cmp	esi, esp
	call	__RTC_CheckEsp
	mov	DWORD PTR tv181[ebp], eax
	jmp	SHORT $LN90@soap_fdele
$LN89@soap_fdele:
	mov	eax, DWORD PTR $T100486[ebp]
	sub	eax, 4
	push	eax
	call	??_V@YAXPAX@Z				; operator delete[]
	add	esp, 4
	mov	DWORD PTR tv181[ebp], 0
$LN90@soap_fdele:
	mov	ecx, DWORD PTR tv181[ebp]
	mov	DWORD PTR tv182[ebp], ecx
	jmp	SHORT $LN62@soap_fdele
$LN91@soap_fdele:
	mov	DWORD PTR tv182[ebp], 0
$LN62@soap_fdele:

; 597  : 		break;

	jmp	$LN71@soap_fdele
$LN61@soap_fdele:

; 598  : 	case SOAP_TYPE_xsd__int:
; 599  : 		if (p->size < 0)

	mov	eax, DWORD PTR _p$[ebp]
	cmp	DWORD PTR [eax+12], 0
	jge	SHORT $LN60@soap_fdele

; 600  : 			delete (xsd__int*)p->ptr;

	mov	eax, DWORD PTR _p$[ebp]
	mov	ecx, DWORD PTR [eax+4]
	mov	DWORD PTR $T100494[ebp], ecx
	mov	edx, DWORD PTR $T100494[ebp]
	mov	DWORD PTR $T100493[ebp], edx
	cmp	DWORD PTR $T100493[ebp], 0
	je	SHORT $LN93@soap_fdele
	mov	esi, esp
	push	1
	mov	eax, DWORD PTR $T100493[ebp]
	mov	edx, DWORD PTR [eax]
	mov	ecx, DWORD PTR $T100493[ebp]
	mov	eax, DWORD PTR [edx+28]
	call	eax
	cmp	esi, esp
	call	__RTC_CheckEsp
	mov	DWORD PTR tv196[ebp], eax
	jmp	SHORT $LN94@soap_fdele
$LN93@soap_fdele:
	mov	DWORD PTR tv196[ebp], 0
$LN94@soap_fdele:

; 601  : 		else

	jmp	$LN59@soap_fdele
$LN60@soap_fdele:

; 602  : 			delete[] (xsd__int*)p->ptr;

	mov	eax, DWORD PTR _p$[ebp]
	mov	ecx, DWORD PTR [eax+4]
	mov	DWORD PTR $T100499[ebp], ecx
	mov	edx, DWORD PTR $T100499[ebp]
	mov	DWORD PTR $T100498[ebp], edx
	mov	eax, DWORD PTR $T100498[ebp]
	mov	DWORD PTR $T100497[ebp], eax
	cmp	DWORD PTR $T100497[ebp], 0
	je	SHORT $LN97@soap_fdele
	mov	ecx, DWORD PTR $T100497[ebp]
	cmp	DWORD PTR [ecx-4], 0
	je	SHORT $LN95@soap_fdele
	mov	esi, esp
	push	3
	mov	edx, DWORD PTR $T100498[ebp]
	mov	eax, DWORD PTR [edx]
	mov	ecx, DWORD PTR $T100498[ebp]
	mov	edx, DWORD PTR [eax+28]
	call	edx
	cmp	esi, esp
	call	__RTC_CheckEsp
	mov	DWORD PTR tv212[ebp], eax
	jmp	SHORT $LN96@soap_fdele
$LN95@soap_fdele:
	mov	eax, DWORD PTR $T100497[ebp]
	sub	eax, 4
	push	eax
	call	??_V@YAXPAX@Z				; operator delete[]
	add	esp, 4
	mov	DWORD PTR tv212[ebp], 0
$LN96@soap_fdele:
	mov	ecx, DWORD PTR tv212[ebp]
	mov	DWORD PTR tv213[ebp], ecx
	jmp	SHORT $LN59@soap_fdele
$LN97@soap_fdele:
	mov	DWORD PTR tv213[ebp], 0
$LN59@soap_fdele:

; 603  : 		break;

	jmp	$LN71@soap_fdele
$LN58@soap_fdele:

; 604  : 	case SOAP_TYPE_xsd__long:
; 605  : 		if (p->size < 0)

	mov	eax, DWORD PTR _p$[ebp]
	cmp	DWORD PTR [eax+12], 0
	jge	SHORT $LN57@soap_fdele

; 606  : 			delete (xsd__long*)p->ptr;

	mov	eax, DWORD PTR _p$[ebp]
	mov	ecx, DWORD PTR [eax+4]
	mov	DWORD PTR $T100505[ebp], ecx
	mov	edx, DWORD PTR $T100505[ebp]
	mov	DWORD PTR $T100504[ebp], edx
	cmp	DWORD PTR $T100504[ebp], 0
	je	SHORT $LN99@soap_fdele
	mov	esi, esp
	push	1
	mov	eax, DWORD PTR $T100504[ebp]
	mov	edx, DWORD PTR [eax]
	mov	ecx, DWORD PTR $T100504[ebp]
	mov	eax, DWORD PTR [edx+28]
	call	eax
	cmp	esi, esp
	call	__RTC_CheckEsp
	mov	DWORD PTR tv227[ebp], eax
	jmp	SHORT $LN100@soap_fdele
$LN99@soap_fdele:
	mov	DWORD PTR tv227[ebp], 0
$LN100@soap_fdele:

; 607  : 		else

	jmp	$LN56@soap_fdele
$LN57@soap_fdele:

; 608  : 			delete[] (xsd__long*)p->ptr;

	mov	eax, DWORD PTR _p$[ebp]
	mov	ecx, DWORD PTR [eax+4]
	mov	DWORD PTR $T100510[ebp], ecx
	mov	edx, DWORD PTR $T100510[ebp]
	mov	DWORD PTR $T100509[ebp], edx
	mov	eax, DWORD PTR $T100509[ebp]
	mov	DWORD PTR $T100508[ebp], eax
	cmp	DWORD PTR $T100508[ebp], 0
	je	SHORT $LN103@soap_fdele
	mov	ecx, DWORD PTR $T100508[ebp]
	cmp	DWORD PTR [ecx-4], 0
	je	SHORT $LN101@soap_fdele
	mov	esi, esp
	push	3
	mov	edx, DWORD PTR $T100509[ebp]
	mov	eax, DWORD PTR [edx]
	mov	ecx, DWORD PTR $T100509[ebp]
	mov	edx, DWORD PTR [eax+28]
	call	edx
	cmp	esi, esp
	call	__RTC_CheckEsp
	mov	DWORD PTR tv243[ebp], eax
	jmp	SHORT $LN102@soap_fdele
$LN101@soap_fdele:
	mov	eax, DWORD PTR $T100508[ebp]
	sub	eax, 4
	push	eax
	call	??_V@YAXPAX@Z				; operator delete[]
	add	esp, 4
	mov	DWORD PTR tv243[ebp], 0
$LN102@soap_fdele:
	mov	ecx, DWORD PTR tv243[ebp]
	mov	DWORD PTR tv244[ebp], ecx
	jmp	SHORT $LN56@soap_fdele
$LN103@soap_fdele:
	mov	DWORD PTR tv244[ebp], 0
$LN56@soap_fdele:

; 609  : 		break;

	jmp	$LN71@soap_fdele
$LN55@soap_fdele:

; 610  : 	case SOAP_TYPE_std__string:
; 611  : 		if (p->size < 0)

	mov	eax, DWORD PTR _p$[ebp]
	cmp	DWORD PTR [eax+12], 0
	jge	SHORT $LN54@soap_fdele

; 612  : 			delete (std::string*)p->ptr;

	mov	eax, DWORD PTR _p$[ebp]
	mov	ecx, DWORD PTR [eax+4]
	mov	DWORD PTR $T100516[ebp], ecx
	mov	edx, DWORD PTR $T100516[ebp]
	mov	DWORD PTR $T100515[ebp], edx
	cmp	DWORD PTR $T100515[ebp], 0
	je	SHORT $LN105@soap_fdele
	push	1
	mov	ecx, DWORD PTR $T100515[ebp]
	call	??_G?$basic_string@DU?$char_traits@D@std@@V?$allocator@D@2@@std@@QAEPAXI@Z
	mov	DWORD PTR tv252[ebp], eax
	jmp	SHORT $LN106@soap_fdele
$LN105@soap_fdele:
	mov	DWORD PTR tv252[ebp], 0
$LN106@soap_fdele:

; 613  : 		else

	jmp	SHORT $LN53@soap_fdele
$LN54@soap_fdele:

; 614  : 			delete[] (std::string*)p->ptr;

	mov	eax, DWORD PTR _p$[ebp]
	mov	ecx, DWORD PTR [eax+4]
	mov	DWORD PTR $T100520[ebp], ecx
	mov	edx, DWORD PTR $T100520[ebp]
	mov	DWORD PTR $T100519[ebp], edx
	cmp	DWORD PTR $T100519[ebp], 0
	je	SHORT $LN107@soap_fdele
	push	3
	mov	ecx, DWORD PTR $T100519[ebp]
	call	??_E?$basic_string@DU?$char_traits@D@std@@V?$allocator@D@2@@std@@QAEPAXI@Z
	mov	DWORD PTR tv258[ebp], eax
	jmp	SHORT $LN53@soap_fdele
$LN107@soap_fdele:
	mov	DWORD PTR tv258[ebp], 0
$LN53@soap_fdele:

; 615  : 		break;

	jmp	$LN71@soap_fdele
$LN52@soap_fdele:

; 616  : 	case SOAP_TYPE_xsd__string:
; 617  : 		if (p->size < 0)

	mov	eax, DWORD PTR _p$[ebp]
	cmp	DWORD PTR [eax+12], 0
	jge	SHORT $LN51@soap_fdele

; 618  : 			delete (xsd__string*)p->ptr;

	mov	eax, DWORD PTR _p$[ebp]
	mov	ecx, DWORD PTR [eax+4]
	mov	DWORD PTR $T100524[ebp], ecx
	mov	edx, DWORD PTR $T100524[ebp]
	mov	DWORD PTR $T100523[ebp], edx
	cmp	DWORD PTR $T100523[ebp], 0
	je	SHORT $LN109@soap_fdele
	mov	esi, esp
	push	1
	mov	eax, DWORD PTR $T100523[ebp]
	mov	edx, DWORD PTR [eax]
	mov	ecx, DWORD PTR $T100523[ebp]
	mov	eax, DWORD PTR [edx+28]
	call	eax
	cmp	esi, esp
	call	__RTC_CheckEsp
	mov	DWORD PTR tv272[ebp], eax
	jmp	SHORT $LN110@soap_fdele
$LN109@soap_fdele:
	mov	DWORD PTR tv272[ebp], 0
$LN110@soap_fdele:

; 619  : 		else

	jmp	$LN50@soap_fdele
$LN51@soap_fdele:

; 620  : 			delete[] (xsd__string*)p->ptr;

	mov	eax, DWORD PTR _p$[ebp]
	mov	ecx, DWORD PTR [eax+4]
	mov	DWORD PTR $T100529[ebp], ecx
	mov	edx, DWORD PTR $T100529[ebp]
	mov	DWORD PTR $T100528[ebp], edx
	mov	eax, DWORD PTR $T100528[ebp]
	mov	DWORD PTR $T100527[ebp], eax
	cmp	DWORD PTR $T100527[ebp], 0
	je	SHORT $LN113@soap_fdele
	mov	ecx, DWORD PTR $T100527[ebp]
	cmp	DWORD PTR [ecx-4], 0
	je	SHORT $LN111@soap_fdele
	mov	esi, esp
	push	3
	mov	edx, DWORD PTR $T100528[ebp]
	mov	eax, DWORD PTR [edx]
	mov	ecx, DWORD PTR $T100528[ebp]
	mov	edx, DWORD PTR [eax+28]
	call	edx
	cmp	esi, esp
	call	__RTC_CheckEsp
	mov	DWORD PTR tv320[ebp], eax
	jmp	SHORT $LN112@soap_fdele
$LN111@soap_fdele:
	mov	eax, DWORD PTR $T100527[ebp]
	sub	eax, 4
	push	eax
	call	??_V@YAXPAX@Z				; operator delete[]
	add	esp, 4
	mov	DWORD PTR tv320[ebp], 0
$LN112@soap_fdele:
	mov	ecx, DWORD PTR tv320[ebp]
	mov	DWORD PTR tv321[ebp], ecx
	jmp	SHORT $LN50@soap_fdele
$LN113@soap_fdele:
	mov	DWORD PTR tv321[ebp], 0
$LN50@soap_fdele:

; 621  : 		break;

	jmp	$LN71@soap_fdele
$LN49@soap_fdele:

; 622  : 	case SOAP_TYPE__ns2__getSessionIDElement:
; 623  : 		if (p->size < 0)

	mov	eax, DWORD PTR _p$[ebp]
	cmp	DWORD PTR [eax+12], 0
	jge	SHORT $LN48@soap_fdele

; 624  : 			delete (_ns2__getSessionIDElement*)p->ptr;

	mov	eax, DWORD PTR _p$[ebp]
	mov	ecx, DWORD PTR [eax+4]
	mov	DWORD PTR $T100535[ebp], ecx
	mov	edx, DWORD PTR $T100535[ebp]
	mov	DWORD PTR $T100534[ebp], edx
	cmp	DWORD PTR $T100534[ebp], 0
	je	SHORT $LN115@soap_fdele
	mov	esi, esp
	push	1
	mov	eax, DWORD PTR $T100534[ebp]
	mov	edx, DWORD PTR [eax]
	mov	ecx, DWORD PTR $T100534[ebp]
	mov	eax, DWORD PTR [edx+28]
	call	eax
	cmp	esi, esp
	call	__RTC_CheckEsp
	mov	DWORD PTR tv331[ebp], eax
	jmp	SHORT $LN116@soap_fdele
$LN115@soap_fdele:
	mov	DWORD PTR tv331[ebp], 0
$LN116@soap_fdele:

; 625  : 		else

	jmp	$LN47@soap_fdele
$LN48@soap_fdele:

; 626  : 			delete[] (_ns2__getSessionIDElement*)p->ptr;

	mov	eax, DWORD PTR _p$[ebp]
	mov	ecx, DWORD PTR [eax+4]
	mov	DWORD PTR $T100540[ebp], ecx
	mov	edx, DWORD PTR $T100540[ebp]
	mov	DWORD PTR $T100539[ebp], edx
	mov	eax, DWORD PTR $T100539[ebp]
	mov	DWORD PTR $T100538[ebp], eax
	cmp	DWORD PTR $T100538[ebp], 0
	je	SHORT $LN119@soap_fdele
	mov	ecx, DWORD PTR $T100538[ebp]
	cmp	DWORD PTR [ecx-4], 0
	je	SHORT $LN117@soap_fdele
	mov	esi, esp
	push	3
	mov	edx, DWORD PTR $T100539[ebp]
	mov	eax, DWORD PTR [edx]
	mov	ecx, DWORD PTR $T100539[ebp]
	mov	edx, DWORD PTR [eax+28]
	call	edx
	cmp	esi, esp
	call	__RTC_CheckEsp
	mov	DWORD PTR tv343[ebp], eax
	jmp	SHORT $LN118@soap_fdele
$LN117@soap_fdele:
	mov	eax, DWORD PTR $T100538[ebp]
	sub	eax, 4
	push	eax
	call	??_V@YAXPAX@Z				; operator delete[]
	add	esp, 4
	mov	DWORD PTR tv343[ebp], 0
$LN118@soap_fdele:
	mov	ecx, DWORD PTR tv343[ebp]
	mov	DWORD PTR tv344[ebp], ecx
	jmp	SHORT $LN47@soap_fdele
$LN119@soap_fdele:
	mov	DWORD PTR tv344[ebp], 0
$LN47@soap_fdele:

; 627  : 		break;

	jmp	$LN71@soap_fdele
$LN46@soap_fdele:

; 628  : 	case SOAP_TYPE__ns2__getSessionIDResponseElement:
; 629  : 		if (p->size < 0)

	mov	eax, DWORD PTR _p$[ebp]
	cmp	DWORD PTR [eax+12], 0
	jge	SHORT $LN45@soap_fdele

; 630  : 			delete (_ns2__getSessionIDResponseElement*)p->ptr;

	mov	eax, DWORD PTR _p$[ebp]
	mov	ecx, DWORD PTR [eax+4]
	mov	DWORD PTR $T100546[ebp], ecx
	mov	edx, DWORD PTR $T100546[ebp]
	mov	DWORD PTR $T100545[ebp], edx
	cmp	DWORD PTR $T100545[ebp], 0
	je	SHORT $LN121@soap_fdele
	mov	esi, esp
	push	1
	mov	eax, DWORD PTR $T100545[ebp]
	mov	edx, DWORD PTR [eax]
	mov	ecx, DWORD PTR $T100545[ebp]
	mov	eax, DWORD PTR [edx+28]
	call	eax
	cmp	esi, esp
	call	__RTC_CheckEsp
	mov	DWORD PTR tv354[ebp], eax
	jmp	SHORT $LN122@soap_fdele
$LN121@soap_fdele:
	mov	DWORD PTR tv354[ebp], 0
$LN122@soap_fdele:

; 631  : 		else

	jmp	$LN44@soap_fdele
$LN45@soap_fdele:

; 632  : 			delete[] (_ns2__getSessionIDResponseElement*)p->ptr;

	mov	eax, DWORD PTR _p$[ebp]
	mov	ecx, DWORD PTR [eax+4]
	mov	DWORD PTR $T100551[ebp], ecx
	mov	edx, DWORD PTR $T100551[ebp]
	mov	DWORD PTR $T100550[ebp], edx
	mov	eax, DWORD PTR $T100550[ebp]
	mov	DWORD PTR $T100549[ebp], eax
	cmp	DWORD PTR $T100549[ebp], 0
	je	SHORT $LN125@soap_fdele
	mov	ecx, DWORD PTR $T100549[ebp]
	cmp	DWORD PTR [ecx-4], 0
	je	SHORT $LN123@soap_fdele
	mov	esi, esp
	push	3
	mov	edx, DWORD PTR $T100550[ebp]
	mov	eax, DWORD PTR [edx]
	mov	ecx, DWORD PTR $T100550[ebp]
	mov	edx, DWORD PTR [eax+28]
	call	edx
	cmp	esi, esp
	call	__RTC_CheckEsp
	mov	DWORD PTR tv366[ebp], eax
	jmp	SHORT $LN124@soap_fdele
$LN123@soap_fdele:
	mov	eax, DWORD PTR $T100549[ebp]
	sub	eax, 4
	push	eax
	call	??_V@YAXPAX@Z				; operator delete[]
	add	esp, 4
	mov	DWORD PTR tv366[ebp], 0
$LN124@soap_fdele:
	mov	ecx, DWORD PTR tv366[ebp]
	mov	DWORD PTR tv367[ebp], ecx
	jmp	SHORT $LN44@soap_fdele
$LN125@soap_fdele:
	mov	DWORD PTR tv367[ebp], 0
$LN44@soap_fdele:

; 633  : 		break;

	jmp	$LN71@soap_fdele
$LN43@soap_fdele:

; 634  : 	case SOAP_TYPE__ns2__getSettingsFileElement:
; 635  : 		if (p->size < 0)

	mov	eax, DWORD PTR _p$[ebp]
	cmp	DWORD PTR [eax+12], 0
	jge	SHORT $LN42@soap_fdele

; 636  : 			delete (_ns2__getSettingsFileElement*)p->ptr;

	mov	eax, DWORD PTR _p$[ebp]
	mov	ecx, DWORD PTR [eax+4]
	mov	DWORD PTR $T100557[ebp], ecx
	mov	edx, DWORD PTR $T100557[ebp]
	mov	DWORD PTR $T100556[ebp], edx
	cmp	DWORD PTR $T100556[ebp], 0
	je	SHORT $LN127@soap_fdele
	mov	esi, esp
	push	1
	mov	eax, DWORD PTR $T100556[ebp]
	mov	edx, DWORD PTR [eax]
	mov	ecx, DWORD PTR $T100556[ebp]
	mov	eax, DWORD PTR [edx+28]
	call	eax
	cmp	esi, esp
	call	__RTC_CheckEsp
	mov	DWORD PTR tv377[ebp], eax
	jmp	SHORT $LN128@soap_fdele
$LN127@soap_fdele:
	mov	DWORD PTR tv377[ebp], 0
$LN128@soap_fdele:

; 637  : 		else

	jmp	$LN41@soap_fdele
$LN42@soap_fdele:

; 638  : 			delete[] (_ns2__getSettingsFileElement*)p->ptr;

	mov	eax, DWORD PTR _p$[ebp]
	mov	ecx, DWORD PTR [eax+4]
	mov	DWORD PTR $T100562[ebp], ecx
	mov	edx, DWORD PTR $T100562[ebp]
	mov	DWORD PTR $T100561[ebp], edx
	mov	eax, DWORD PTR $T100561[ebp]
	mov	DWORD PTR $T100560[ebp], eax
	cmp	DWORD PTR $T100560[ebp], 0
	je	SHORT $LN131@soap_fdele
	mov	ecx, DWORD PTR $T100560[ebp]
	cmp	DWORD PTR [ecx-4], 0
	je	SHORT $LN129@soap_fdele
	mov	esi, esp
	push	3
	mov	edx, DWORD PTR $T100561[ebp]
	mov	eax, DWORD PTR [edx]
	mov	ecx, DWORD PTR $T100561[ebp]
	mov	edx, DWORD PTR [eax+28]
	call	edx
	cmp	esi, esp
	call	__RTC_CheckEsp
	mov	DWORD PTR tv389[ebp], eax
	jmp	SHORT $LN130@soap_fdele
$LN129@soap_fdele:
	mov	eax, DWORD PTR $T100560[ebp]
	sub	eax, 4
	push	eax
	call	??_V@YAXPAX@Z				; operator delete[]
	add	esp, 4
	mov	DWORD PTR tv389[ebp], 0
$LN130@soap_fdele:
	mov	ecx, DWORD PTR tv389[ebp]
	mov	DWORD PTR tv390[ebp], ecx
	jmp	SHORT $LN41@soap_fdele
$LN131@soap_fdele:
	mov	DWORD PTR tv390[ebp], 0
$LN41@soap_fdele:

; 639  : 		break;

	jmp	$LN71@soap_fdele
$LN40@soap_fdele:

; 640  : 	case SOAP_TYPE__ns2__getSettingsFileResponseElement:
; 641  : 		if (p->size < 0)

	mov	eax, DWORD PTR _p$[ebp]
	cmp	DWORD PTR [eax+12], 0
	jge	SHORT $LN39@soap_fdele

; 642  : 			delete (_ns2__getSettingsFileResponseElement*)p->ptr;

	mov	eax, DWORD PTR _p$[ebp]
	mov	ecx, DWORD PTR [eax+4]
	mov	DWORD PTR $T100568[ebp], ecx
	mov	edx, DWORD PTR $T100568[ebp]
	mov	DWORD PTR $T100567[ebp], edx
	cmp	DWORD PTR $T100567[ebp], 0
	je	SHORT $LN133@soap_fdele
	mov	esi, esp
	push	1
	mov	eax, DWORD PTR $T100567[ebp]
	mov	edx, DWORD PTR [eax]
	mov	ecx, DWORD PTR $T100567[ebp]
	mov	eax, DWORD PTR [edx+28]
	call	eax
	cmp	esi, esp
	call	__RTC_CheckEsp
	mov	DWORD PTR tv400[ebp], eax
	jmp	SHORT $LN134@soap_fdele
$LN133@soap_fdele:
	mov	DWORD PTR tv400[ebp], 0
$LN134@soap_fdele:

; 643  : 		else

	jmp	$LN38@soap_fdele
$LN39@soap_fdele:

; 644  : 			delete[] (_ns2__getSettingsFileResponseElement*)p->ptr;

	mov	eax, DWORD PTR _p$[ebp]
	mov	ecx, DWORD PTR [eax+4]
	mov	DWORD PTR $T100573[ebp], ecx
	mov	edx, DWORD PTR $T100573[ebp]
	mov	DWORD PTR $T100572[ebp], edx
	mov	eax, DWORD PTR $T100572[ebp]
	mov	DWORD PTR $T100571[ebp], eax
	cmp	DWORD PTR $T100571[ebp], 0
	je	SHORT $LN137@soap_fdele
	mov	ecx, DWORD PTR $T100571[ebp]
	cmp	DWORD PTR [ecx-4], 0
	je	SHORT $LN135@soap_fdele
	mov	esi, esp
	push	3
	mov	edx, DWORD PTR $T100572[ebp]
	mov	eax, DWORD PTR [edx]
	mov	ecx, DWORD PTR $T100572[ebp]
	mov	edx, DWORD PTR [eax+28]
	call	edx
	cmp	esi, esp
	call	__RTC_CheckEsp
	mov	DWORD PTR tv412[ebp], eax
	jmp	SHORT $LN136@soap_fdele
$LN135@soap_fdele:
	mov	eax, DWORD PTR $T100571[ebp]
	sub	eax, 4
	push	eax
	call	??_V@YAXPAX@Z				; operator delete[]
	add	esp, 4
	mov	DWORD PTR tv412[ebp], 0
$LN136@soap_fdele:
	mov	ecx, DWORD PTR tv412[ebp]
	mov	DWORD PTR tv413[ebp], ecx
	jmp	SHORT $LN38@soap_fdele
$LN137@soap_fdele:
	mov	DWORD PTR tv413[ebp], 0
$LN38@soap_fdele:

; 645  : 		break;

	jmp	$LN71@soap_fdele
$LN37@soap_fdele:

; 646  : 	case SOAP_TYPE__ns2__submitEpochResultElement:
; 647  : 		if (p->size < 0)

	mov	eax, DWORD PTR _p$[ebp]
	cmp	DWORD PTR [eax+12], 0
	jge	SHORT $LN36@soap_fdele

; 648  : 			delete (_ns2__submitEpochResultElement*)p->ptr;

	mov	eax, DWORD PTR _p$[ebp]
	mov	ecx, DWORD PTR [eax+4]
	mov	DWORD PTR $T100579[ebp], ecx
	mov	edx, DWORD PTR $T100579[ebp]
	mov	DWORD PTR $T100578[ebp], edx
	cmp	DWORD PTR $T100578[ebp], 0
	je	SHORT $LN139@soap_fdele
	mov	esi, esp
	push	1
	mov	eax, DWORD PTR $T100578[ebp]
	mov	edx, DWORD PTR [eax]
	mov	ecx, DWORD PTR $T100578[ebp]
	mov	eax, DWORD PTR [edx+28]
	call	eax
	cmp	esi, esp
	call	__RTC_CheckEsp
	mov	DWORD PTR tv423[ebp], eax
	jmp	SHORT $LN140@soap_fdele
$LN139@soap_fdele:
	mov	DWORD PTR tv423[ebp], 0
$LN140@soap_fdele:

; 649  : 		else

	jmp	$LN35@soap_fdele
$LN36@soap_fdele:

; 650  : 			delete[] (_ns2__submitEpochResultElement*)p->ptr;

	mov	eax, DWORD PTR _p$[ebp]
	mov	ecx, DWORD PTR [eax+4]
	mov	DWORD PTR $T100584[ebp], ecx
	mov	edx, DWORD PTR $T100584[ebp]
	mov	DWORD PTR $T100583[ebp], edx
	mov	eax, DWORD PTR $T100583[ebp]
	mov	DWORD PTR $T100582[ebp], eax
	cmp	DWORD PTR $T100582[ebp], 0
	je	SHORT $LN143@soap_fdele
	mov	ecx, DWORD PTR $T100582[ebp]
	cmp	DWORD PTR [ecx-4], 0
	je	SHORT $LN141@soap_fdele
	mov	esi, esp
	push	3
	mov	edx, DWORD PTR $T100583[ebp]
	mov	eax, DWORD PTR [edx]
	mov	ecx, DWORD PTR $T100583[ebp]
	mov	edx, DWORD PTR [eax+28]
	call	edx
	cmp	esi, esp
	call	__RTC_CheckEsp
	mov	DWORD PTR tv435[ebp], eax
	jmp	SHORT $LN142@soap_fdele
$LN141@soap_fdele:
	mov	eax, DWORD PTR $T100582[ebp]
	sub	eax, 4
	push	eax
	call	??_V@YAXPAX@Z				; operator delete[]
	add	esp, 4
	mov	DWORD PTR tv435[ebp], 0
$LN142@soap_fdele:
	mov	ecx, DWORD PTR tv435[ebp]
	mov	DWORD PTR tv436[ebp], ecx
	jmp	SHORT $LN35@soap_fdele
$LN143@soap_fdele:
	mov	DWORD PTR tv436[ebp], 0
$LN35@soap_fdele:

; 651  : 		break;

	jmp	$LN71@soap_fdele
$LN34@soap_fdele:

; 652  : 	case SOAP_TYPE__ns2__submitEpochResultResponseElement:
; 653  : 		if (p->size < 0)

	mov	eax, DWORD PTR _p$[ebp]
	cmp	DWORD PTR [eax+12], 0
	jge	SHORT $LN33@soap_fdele

; 654  : 			delete (_ns2__submitEpochResultResponseElement*)p->ptr;

	mov	eax, DWORD PTR _p$[ebp]
	mov	ecx, DWORD PTR [eax+4]
	mov	DWORD PTR $T100590[ebp], ecx
	mov	edx, DWORD PTR $T100590[ebp]
	mov	DWORD PTR $T100589[ebp], edx
	cmp	DWORD PTR $T100589[ebp], 0
	je	SHORT $LN145@soap_fdele
	mov	esi, esp
	push	1
	mov	eax, DWORD PTR $T100589[ebp]
	mov	edx, DWORD PTR [eax]
	mov	ecx, DWORD PTR $T100589[ebp]
	mov	eax, DWORD PTR [edx+28]
	call	eax
	cmp	esi, esp
	call	__RTC_CheckEsp
	mov	DWORD PTR tv446[ebp], eax
	jmp	SHORT $LN146@soap_fdele
$LN145@soap_fdele:
	mov	DWORD PTR tv446[ebp], 0
$LN146@soap_fdele:

; 655  : 		else

	jmp	$LN32@soap_fdele
$LN33@soap_fdele:

; 656  : 			delete[] (_ns2__submitEpochResultResponseElement*)p->ptr;

	mov	eax, DWORD PTR _p$[ebp]
	mov	ecx, DWORD PTR [eax+4]
	mov	DWORD PTR $T100595[ebp], ecx
	mov	edx, DWORD PTR $T100595[ebp]
	mov	DWORD PTR $T100594[ebp], edx
	mov	eax, DWORD PTR $T100594[ebp]
	mov	DWORD PTR $T100593[ebp], eax
	cmp	DWORD PTR $T100593[ebp], 0
	je	SHORT $LN149@soap_fdele
	mov	ecx, DWORD PTR $T100593[ebp]
	cmp	DWORD PTR [ecx-4], 0
	je	SHORT $LN147@soap_fdele
	mov	esi, esp
	push	3
	mov	edx, DWORD PTR $T100594[ebp]
	mov	eax, DWORD PTR [edx]
	mov	ecx, DWORD PTR $T100594[ebp]
	mov	edx, DWORD PTR [eax+28]
	call	edx
	cmp	esi, esp
	call	__RTC_CheckEsp
	mov	DWORD PTR tv490[ebp], eax
	jmp	SHORT $LN148@soap_fdele
$LN147@soap_fdele:
	mov	eax, DWORD PTR $T100593[ebp]
	sub	eax, 4
	push	eax
	call	??_V@YAXPAX@Z				; operator delete[]
	add	esp, 4
	mov	DWORD PTR tv490[ebp], 0
$LN148@soap_fdele:
	mov	ecx, DWORD PTR tv490[ebp]
	mov	DWORD PTR tv491[ebp], ecx
	jmp	SHORT $LN32@soap_fdele
$LN149@soap_fdele:
	mov	DWORD PTR tv491[ebp], 0
$LN32@soap_fdele:

; 657  : 		break;

	jmp	$LN71@soap_fdele
$LN31@soap_fdele:

; 658  : 	case SOAP_TYPE___ns1__getSessionID:
; 659  : 		if (p->size < 0)

	mov	eax, DWORD PTR _p$[ebp]
	cmp	DWORD PTR [eax+12], 0
	jge	SHORT $LN30@soap_fdele

; 660  : 			delete (struct __ns1__getSessionID*)p->ptr;

	mov	eax, DWORD PTR _p$[ebp]
	mov	ecx, DWORD PTR [eax+4]
	mov	DWORD PTR $T100600[ebp], ecx
	mov	edx, DWORD PTR $T100600[ebp]
	push	edx
	call	??3@YAXPAX@Z				; operator delete
	add	esp, 4

; 661  : 		else

	jmp	SHORT $LN29@soap_fdele
$LN30@soap_fdele:

; 662  : 			delete[] (struct __ns1__getSessionID*)p->ptr;

	mov	eax, DWORD PTR _p$[ebp]
	mov	ecx, DWORD PTR [eax+4]
	mov	DWORD PTR $T100601[ebp], ecx
	mov	edx, DWORD PTR $T100601[ebp]
	push	edx
	call	??_V@YAXPAX@Z				; operator delete[]
	add	esp, 4
$LN29@soap_fdele:

; 663  : 		break;

	jmp	$LN71@soap_fdele
$LN28@soap_fdele:

; 664  : 	case SOAP_TYPE___ns1__getSettingsFile:
; 665  : 		if (p->size < 0)

	mov	eax, DWORD PTR _p$[ebp]
	cmp	DWORD PTR [eax+12], 0
	jge	SHORT $LN27@soap_fdele

; 666  : 			delete (struct __ns1__getSettingsFile*)p->ptr;

	mov	eax, DWORD PTR _p$[ebp]
	mov	ecx, DWORD PTR [eax+4]
	mov	DWORD PTR $T100602[ebp], ecx
	mov	edx, DWORD PTR $T100602[ebp]
	push	edx
	call	??3@YAXPAX@Z				; operator delete
	add	esp, 4

; 667  : 		else

	jmp	SHORT $LN26@soap_fdele
$LN27@soap_fdele:

; 668  : 			delete[] (struct __ns1__getSettingsFile*)p->ptr;

	mov	eax, DWORD PTR _p$[ebp]
	mov	ecx, DWORD PTR [eax+4]
	mov	DWORD PTR $T100603[ebp], ecx
	mov	edx, DWORD PTR $T100603[ebp]
	push	edx
	call	??_V@YAXPAX@Z				; operator delete[]
	add	esp, 4
$LN26@soap_fdele:

; 669  : 		break;

	jmp	$LN71@soap_fdele
$LN25@soap_fdele:

; 670  : 	case SOAP_TYPE___ns1__submitEpochResult:
; 671  : 		if (p->size < 0)

	mov	eax, DWORD PTR _p$[ebp]
	cmp	DWORD PTR [eax+12], 0
	jge	SHORT $LN24@soap_fdele

; 672  : 			delete (struct __ns1__submitEpochResult*)p->ptr;

	mov	eax, DWORD PTR _p$[ebp]
	mov	ecx, DWORD PTR [eax+4]
	mov	DWORD PTR $T100604[ebp], ecx
	mov	edx, DWORD PTR $T100604[ebp]
	push	edx
	call	??3@YAXPAX@Z				; operator delete
	add	esp, 4

; 673  : 		else

	jmp	SHORT $LN23@soap_fdele
$LN24@soap_fdele:

; 674  : 			delete[] (struct __ns1__submitEpochResult*)p->ptr;

	mov	eax, DWORD PTR _p$[ebp]
	mov	ecx, DWORD PTR [eax+4]
	mov	DWORD PTR $T100605[ebp], ecx
	mov	edx, DWORD PTR $T100605[ebp]
	push	edx
	call	??_V@YAXPAX@Z				; operator delete[]
	add	esp, 4
$LN23@soap_fdele:

; 675  : 		break;

	jmp	$LN71@soap_fdele
$LN22@soap_fdele:

; 676  : 	case SOAP_TYPE_SOAP_ENV__Header:
; 677  : 		if (p->size < 0)

	mov	eax, DWORD PTR _p$[ebp]
	cmp	DWORD PTR [eax+12], 0
	jge	SHORT $LN21@soap_fdele

; 678  : 			delete (struct SOAP_ENV__Header*)p->ptr;

	mov	eax, DWORD PTR _p$[ebp]
	mov	ecx, DWORD PTR [eax+4]
	mov	DWORD PTR $T100606[ebp], ecx
	mov	edx, DWORD PTR $T100606[ebp]
	push	edx
	call	??3@YAXPAX@Z				; operator delete
	add	esp, 4

; 679  : 		else

	jmp	SHORT $LN20@soap_fdele
$LN21@soap_fdele:

; 680  : 			delete[] (struct SOAP_ENV__Header*)p->ptr;

	mov	eax, DWORD PTR _p$[ebp]
	mov	ecx, DWORD PTR [eax+4]
	mov	DWORD PTR $T100607[ebp], ecx
	mov	edx, DWORD PTR $T100607[ebp]
	push	edx
	call	??_V@YAXPAX@Z				; operator delete[]
	add	esp, 4
$LN20@soap_fdele:

; 681  : 		break;

	jmp	$LN71@soap_fdele
$LN19@soap_fdele:

; 682  : 	case SOAP_TYPE_SOAP_ENV__Code:
; 683  : 		if (p->size < 0)

	mov	eax, DWORD PTR _p$[ebp]
	cmp	DWORD PTR [eax+12], 0
	jge	SHORT $LN18@soap_fdele

; 684  : 			delete (struct SOAP_ENV__Code*)p->ptr;

	mov	eax, DWORD PTR _p$[ebp]
	mov	ecx, DWORD PTR [eax+4]
	mov	DWORD PTR $T100608[ebp], ecx
	mov	edx, DWORD PTR $T100608[ebp]
	push	edx
	call	??3@YAXPAX@Z				; operator delete
	add	esp, 4

; 685  : 		else

	jmp	SHORT $LN17@soap_fdele
$LN18@soap_fdele:

; 686  : 			delete[] (struct SOAP_ENV__Code*)p->ptr;

	mov	eax, DWORD PTR _p$[ebp]
	mov	ecx, DWORD PTR [eax+4]
	mov	DWORD PTR $T100609[ebp], ecx
	mov	edx, DWORD PTR $T100609[ebp]
	push	edx
	call	??_V@YAXPAX@Z				; operator delete[]
	add	esp, 4
$LN17@soap_fdele:

; 687  : 		break;

	jmp	$LN71@soap_fdele
$LN16@soap_fdele:

; 688  : 	case SOAP_TYPE_SOAP_ENV__Detail:
; 689  : 		if (p->size < 0)

	mov	eax, DWORD PTR _p$[ebp]
	cmp	DWORD PTR [eax+12], 0
	jge	SHORT $LN15@soap_fdele

; 690  : 			delete (struct SOAP_ENV__Detail*)p->ptr;

	mov	eax, DWORD PTR _p$[ebp]
	mov	ecx, DWORD PTR [eax+4]
	mov	DWORD PTR $T100610[ebp], ecx
	mov	edx, DWORD PTR $T100610[ebp]
	push	edx
	call	??3@YAXPAX@Z				; operator delete
	add	esp, 4

; 691  : 		else

	jmp	SHORT $LN14@soap_fdele
$LN15@soap_fdele:

; 692  : 			delete[] (struct SOAP_ENV__Detail*)p->ptr;

	mov	eax, DWORD PTR _p$[ebp]
	mov	ecx, DWORD PTR [eax+4]
	mov	DWORD PTR $T100611[ebp], ecx
	mov	edx, DWORD PTR $T100611[ebp]
	push	edx
	call	??_V@YAXPAX@Z				; operator delete[]
	add	esp, 4
$LN14@soap_fdele:

; 693  : 		break;

	jmp	$LN71@soap_fdele
$LN13@soap_fdele:

; 694  : 	case SOAP_TYPE_SOAP_ENV__Reason:
; 695  : 		if (p->size < 0)

	mov	eax, DWORD PTR _p$[ebp]
	cmp	DWORD PTR [eax+12], 0
	jge	SHORT $LN12@soap_fdele

; 696  : 			delete (struct SOAP_ENV__Reason*)p->ptr;

	mov	eax, DWORD PTR _p$[ebp]
	mov	ecx, DWORD PTR [eax+4]
	mov	DWORD PTR $T100612[ebp], ecx
	mov	edx, DWORD PTR $T100612[ebp]
	push	edx
	call	??3@YAXPAX@Z				; operator delete
	add	esp, 4

; 697  : 		else

	jmp	SHORT $LN11@soap_fdele
$LN12@soap_fdele:

; 698  : 			delete[] (struct SOAP_ENV__Reason*)p->ptr;

	mov	eax, DWORD PTR _p$[ebp]
	mov	ecx, DWORD PTR [eax+4]
	mov	DWORD PTR $T100613[ebp], ecx
	mov	edx, DWORD PTR $T100613[ebp]
	push	edx
	call	??_V@YAXPAX@Z				; operator delete[]
	add	esp, 4
$LN11@soap_fdele:

; 699  : 		break;

	jmp	$LN71@soap_fdele
$LN10@soap_fdele:

; 700  : 	case SOAP_TYPE_SOAP_ENV__Fault:
; 701  : 		if (p->size < 0)

	mov	eax, DWORD PTR _p$[ebp]
	cmp	DWORD PTR [eax+12], 0
	jge	SHORT $LN9@soap_fdele

; 702  : 			delete (struct SOAP_ENV__Fault*)p->ptr;

	mov	eax, DWORD PTR _p$[ebp]
	mov	ecx, DWORD PTR [eax+4]
	mov	DWORD PTR $T100614[ebp], ecx
	mov	edx, DWORD PTR $T100614[ebp]
	push	edx
	call	??3@YAXPAX@Z				; operator delete
	add	esp, 4

; 703  : 		else

	jmp	SHORT $LN8@soap_fdele
$LN9@soap_fdele:

; 704  : 			delete[] (struct SOAP_ENV__Fault*)p->ptr;

	mov	eax, DWORD PTR _p$[ebp]
	mov	ecx, DWORD PTR [eax+4]
	mov	DWORD PTR $T100615[ebp], ecx
	mov	edx, DWORD PTR $T100615[ebp]
	push	edx
	call	??_V@YAXPAX@Z				; operator delete[]
	add	esp, 4
$LN8@soap_fdele:

; 705  : 		break;

	jmp	$LN71@soap_fdele
$LN7@soap_fdele:

; 706  : 	case SOAP_TYPE_std__vectorTemplateOffloat:
; 707  : 		if (p->size < 0)

	mov	eax, DWORD PTR _p$[ebp]
	cmp	DWORD PTR [eax+12], 0
	jge	SHORT $LN6@soap_fdele

; 708  : 			delete (std::vector<float >*)p->ptr;

	mov	eax, DWORD PTR _p$[ebp]
	mov	ecx, DWORD PTR [eax+4]
	mov	DWORD PTR $T100617[ebp], ecx
	mov	edx, DWORD PTR $T100617[ebp]
	mov	DWORD PTR $T100616[ebp], edx
	cmp	DWORD PTR $T100616[ebp], 0
	je	SHORT $LN151@soap_fdele
	push	1
	mov	ecx, DWORD PTR $T100616[ebp]
	call	??_G?$vector@MV?$allocator@M@std@@@std@@QAEPAXI@Z
	mov	DWORD PTR tv547[ebp], eax
	jmp	SHORT $LN152@soap_fdele
$LN151@soap_fdele:
	mov	DWORD PTR tv547[ebp], 0
$LN152@soap_fdele:

; 709  : 		else

	jmp	SHORT $LN5@soap_fdele
$LN6@soap_fdele:

; 710  : 			delete[] (std::vector<float >*)p->ptr;

	mov	eax, DWORD PTR _p$[ebp]
	mov	ecx, DWORD PTR [eax+4]
	mov	DWORD PTR $T100621[ebp], ecx
	mov	edx, DWORD PTR $T100621[ebp]
	mov	DWORD PTR $T100620[ebp], edx
	cmp	DWORD PTR $T100620[ebp], 0
	je	SHORT $LN153@soap_fdele
	push	3
	mov	ecx, DWORD PTR $T100620[ebp]
	call	??_E?$vector@MV?$allocator@M@std@@@std@@QAEPAXI@Z
	mov	DWORD PTR tv553[ebp], eax
	jmp	SHORT $LN5@soap_fdele
$LN153@soap_fdele:
	mov	DWORD PTR tv553[ebp], 0
$LN5@soap_fdele:

; 711  : 		break;

	jmp	$LN71@soap_fdele
$LN4@soap_fdele:

; 712  : 	case SOAP_TYPE_std__vectorTemplateOfint:
; 713  : 		if (p->size < 0)

	mov	eax, DWORD PTR _p$[ebp]
	cmp	DWORD PTR [eax+12], 0
	jge	SHORT $LN3@soap_fdele

; 714  : 			delete (std::vector<int >*)p->ptr;

	mov	eax, DWORD PTR _p$[ebp]
	mov	ecx, DWORD PTR [eax+4]
	mov	DWORD PTR $T100625[ebp], ecx
	mov	edx, DWORD PTR $T100625[ebp]
	mov	DWORD PTR $T100624[ebp], edx
	cmp	DWORD PTR $T100624[ebp], 0
	je	SHORT $LN155@soap_fdele
	push	1
	mov	ecx, DWORD PTR $T100624[ebp]
	call	??_G?$vector@HV?$allocator@H@std@@@std@@QAEPAXI@Z
	mov	DWORD PTR tv561[ebp], eax
	jmp	SHORT $LN156@soap_fdele
$LN155@soap_fdele:
	mov	DWORD PTR tv561[ebp], 0
$LN156@soap_fdele:

; 715  : 		else

	jmp	SHORT $LN2@soap_fdele
$LN3@soap_fdele:

; 716  : 			delete[] (std::vector<int >*)p->ptr;

	mov	eax, DWORD PTR _p$[ebp]
	mov	ecx, DWORD PTR [eax+4]
	mov	DWORD PTR $T100629[ebp], ecx
	mov	edx, DWORD PTR $T100629[ebp]
	mov	DWORD PTR $T100628[ebp], edx
	cmp	DWORD PTR $T100628[ebp], 0
	je	SHORT $LN157@soap_fdele
	push	3
	mov	ecx, DWORD PTR $T100628[ebp]
	call	??_E?$vector@HV?$allocator@H@std@@@std@@QAEPAXI@Z
	mov	DWORD PTR tv567[ebp], eax
	jmp	SHORT $LN2@soap_fdele
$LN157@soap_fdele:
	mov	DWORD PTR tv567[ebp], 0
$LN2@soap_fdele:

; 717  : 		break;

	jmp	SHORT $LN71@soap_fdele
$LN1@soap_fdele:

; 718  : 	default:	return SOAP_ERR;

	or	eax, -1
	jmp	SHORT $LN73@soap_fdele
$LN71@soap_fdele:

; 719  : 	}
; 720  : 	return SOAP_OK;

	xor	eax, eax
$LN73@soap_fdele:

; 721  : }

	pop	edi
	pop	esi
	pop	ebx
	add	esp, 1256				; 000004e8H
	cmp	ebp, esp
	call	__RTC_CheckEsp
	mov	esp, ebp
	pop	ebp
	ret	0
	npad	2
$LN160@soap_fdele:
	DD	$LN70@soap_fdele
	DD	$LN67@soap_fdele
	DD	$LN64@soap_fdele
	DD	$LN61@soap_fdele
	DD	$LN58@soap_fdele
	DD	$LN52@soap_fdele
	DD	$LN55@soap_fdele
	DD	$LN49@soap_fdele
	DD	$LN46@soap_fdele
	DD	$LN43@soap_fdele
	DD	$LN40@soap_fdele
	DD	$LN37@soap_fdele
	DD	$LN34@soap_fdele
	DD	$LN4@soap_fdele
	DD	$LN7@soap_fdele
	DD	$LN31@soap_fdele
	DD	$LN28@soap_fdele
	DD	$LN25@soap_fdele
	DD	$LN22@soap_fdele
	DD	$LN19@soap_fdele
	DD	$LN16@soap_fdele
	DD	$LN13@soap_fdele
	DD	$LN10@soap_fdele
	DD	$LN1@soap_fdele
$LN159@soap_fdele:
	DB	0
	DB	23					; 00000017H
	DB	1
	DB	23					; 00000017H
	DB	2
	DB	23					; 00000017H
	DB	3
	DB	4
	DB	23					; 00000017H
	DB	5
	DB	6
	DB	7
	DB	8
	DB	9
	DB	10					; 0000000aH
	DB	11					; 0000000bH
	DB	12					; 0000000cH
	DB	23					; 00000017H
	DB	13					; 0000000dH
	DB	14					; 0000000eH
	DB	23					; 00000017H
	DB	23					; 00000017H
	DB	23					; 00000017H
	DB	15					; 0000000fH
	DB	23					; 00000017H
	DB	23					; 00000017H
	DB	23					; 00000017H
	DB	16					; 00000010H
	DB	23					; 00000017H
	DB	23					; 00000017H
	DB	23					; 00000017H
	DB	17					; 00000011H
	DB	18					; 00000012H
	DB	19					; 00000013H
	DB	23					; 00000017H
	DB	20					; 00000014H
	DB	23					; 00000017H
	DB	23					; 00000017H
	DB	21					; 00000015H
	DB	22					; 00000016H
?soap_fdelete@@YAHPAUsoap_clist@@@Z ENDP		; soap_fdelete
_TEXT	ENDS
EXTRN	__imp_??1?$basic_string@DU?$char_traits@D@std@@V?$allocator@D@2@@std@@QAE@XZ:PROC
; Function compile flags: /Odtp /RTCcsu /ZI
;	COMDAT ??_G?$basic_string@DU?$char_traits@D@std@@V?$allocator@D@2@@std@@QAEPAXI@Z
_TEXT	SEGMENT
_this$ = -8						; size = 4
___flags$ = 8						; size = 4
??_G?$basic_string@DU?$char_traits@D@std@@V?$allocator@D@2@@std@@QAEPAXI@Z PROC ; std::basic_string<char,std::char_traits<char>,std::allocator<char> >::`scalar deleting destructor', COMDAT
; _this$ = ecx
	push	ebp
	mov	ebp, esp
	sub	esp, 204				; 000000ccH
	push	ebx
	push	esi
	push	edi
	push	ecx
	lea	edi, DWORD PTR [ebp-204]
	mov	ecx, 51					; 00000033H
	mov	eax, -858993460				; ccccccccH
	rep stosd
	pop	ecx
	mov	DWORD PTR _this$[ebp], ecx
	mov	esi, esp
	mov	ecx, DWORD PTR _this$[ebp]
	call	DWORD PTR __imp_??1?$basic_string@DU?$char_traits@D@std@@V?$allocator@D@2@@std@@QAE@XZ
	cmp	esi, esp
	call	__RTC_CheckEsp
	mov	eax, DWORD PTR ___flags$[ebp]
	and	eax, 1
	je	SHORT $LN1@scalar
	mov	eax, DWORD PTR _this$[ebp]
	push	eax
	call	??3@YAXPAX@Z				; operator delete
	add	esp, 4
$LN1@scalar:
	mov	eax, DWORD PTR _this$[ebp]
	pop	edi
	pop	esi
	pop	ebx
	add	esp, 204				; 000000ccH
	cmp	ebp, esp
	call	__RTC_CheckEsp
	mov	esp, ebp
	pop	ebp
	ret	4
??_G?$basic_string@DU?$char_traits@D@std@@V?$allocator@D@2@@std@@QAEPAXI@Z ENDP ; std::basic_string<char,std::char_traits<char>,std::allocator<char> >::`scalar deleting destructor'
_TEXT	ENDS
EXTRN	??_M@YGXPAXIHP6EX0@Z@Z:PROC			; `eh vector destructor iterator'
; Function compile flags: /Odtp /RTCcsu /ZI
;	COMDAT ??_E?$basic_string@DU?$char_traits@D@std@@V?$allocator@D@2@@std@@QAEPAXI@Z
_TEXT	SEGMENT
_this$ = -8						; size = 4
___flags$ = 8						; size = 4
??_E?$basic_string@DU?$char_traits@D@std@@V?$allocator@D@2@@std@@QAEPAXI@Z PROC ; std::basic_string<char,std::char_traits<char>,std::allocator<char> >::`vector deleting destructor', COMDAT
; _this$ = ecx
	push	ebp
	mov	ebp, esp
	sub	esp, 204				; 000000ccH
	push	ebx
	push	esi
	push	edi
	push	ecx
	lea	edi, DWORD PTR [ebp-204]
	mov	ecx, 51					; 00000033H
	mov	eax, -858993460				; ccccccccH
	rep stosd
	pop	ecx
	mov	DWORD PTR _this$[ebp], ecx
	mov	eax, DWORD PTR ___flags$[ebp]
	and	eax, 2
	je	SHORT $LN3@vector
	mov	eax, DWORD PTR __imp_??1?$basic_string@DU?$char_traits@D@std@@V?$allocator@D@2@@std@@QAE@XZ
	push	eax
	mov	ecx, DWORD PTR _this$[ebp]
	mov	edx, DWORD PTR [ecx-4]
	push	edx
	push	32					; 00000020H
	mov	eax, DWORD PTR _this$[ebp]
	push	eax
	call	??_M@YGXPAXIHP6EX0@Z@Z
	mov	eax, DWORD PTR ___flags$[ebp]
	and	eax, 1
	je	SHORT $LN2@vector
	mov	eax, DWORD PTR _this$[ebp]
	sub	eax, 4
	push	eax
	call	??_V@YAXPAX@Z				; operator delete[]
	add	esp, 4
$LN2@vector:
	mov	eax, DWORD PTR _this$[ebp]
	sub	eax, 4
	jmp	SHORT $LN4@vector
$LN3@vector:
	mov	esi, esp
	mov	ecx, DWORD PTR _this$[ebp]
	call	DWORD PTR __imp_??1?$basic_string@DU?$char_traits@D@std@@V?$allocator@D@2@@std@@QAE@XZ
	cmp	esi, esp
	call	__RTC_CheckEsp
	mov	eax, DWORD PTR ___flags$[ebp]
	and	eax, 1
	je	SHORT $LN1@vector
	mov	eax, DWORD PTR _this$[ebp]
	push	eax
	call	??3@YAXPAX@Z				; operator delete
	add	esp, 4
$LN1@vector:
	mov	eax, DWORD PTR _this$[ebp]
$LN4@vector:
	pop	edi
	pop	esi
	pop	ebx
	add	esp, 204				; 000000ccH
	cmp	ebp, esp
	call	__RTC_CheckEsp
	mov	esp, ebp
	pop	ebp
	ret	4
??_E?$basic_string@DU?$char_traits@D@std@@V?$allocator@D@2@@std@@QAEPAXI@Z ENDP ; std::basic_string<char,std::char_traits<char>,std::allocator<char> >::`vector deleting destructor'
_TEXT	ENDS
PUBLIC	??1?$vector@MV?$allocator@M@std@@@std@@QAE@XZ	; std::vector<float,std::allocator<float> >::~vector<float,std::allocator<float> >
; Function compile flags: /Odtp /RTCcsu /ZI
;	COMDAT ??_G?$vector@MV?$allocator@M@std@@@std@@QAEPAXI@Z
_TEXT	SEGMENT
_this$ = -8						; size = 4
___flags$ = 8						; size = 4
??_G?$vector@MV?$allocator@M@std@@@std@@QAEPAXI@Z PROC	; std::vector<float,std::allocator<float> >::`scalar deleting destructor', COMDAT
; _this$ = ecx
	push	ebp
	mov	ebp, esp
	sub	esp, 204				; 000000ccH
	push	ebx
	push	esi
	push	edi
	push	ecx
	lea	edi, DWORD PTR [ebp-204]
	mov	ecx, 51					; 00000033H
	mov	eax, -858993460				; ccccccccH
	rep stosd
	pop	ecx
	mov	DWORD PTR _this$[ebp], ecx
	mov	ecx, DWORD PTR _this$[ebp]
	call	??1?$vector@MV?$allocator@M@std@@@std@@QAE@XZ ; std::vector<float,std::allocator<float> >::~vector<float,std::allocator<float> >
	mov	eax, DWORD PTR ___flags$[ebp]
	and	eax, 1
	je	SHORT $LN1@scalar@2
	mov	eax, DWORD PTR _this$[ebp]
	push	eax
	call	??3@YAXPAX@Z				; operator delete
	add	esp, 4
$LN1@scalar@2:
	mov	eax, DWORD PTR _this$[ebp]
	pop	edi
	pop	esi
	pop	ebx
	add	esp, 204				; 000000ccH
	cmp	ebp, esp
	call	__RTC_CheckEsp
	mov	esp, ebp
	pop	ebp
	ret	4
??_G?$vector@MV?$allocator@M@std@@@std@@QAEPAXI@Z ENDP	; std::vector<float,std::allocator<float> >::`scalar deleting destructor'
; Function compile flags: /Odtp /RTCcsu /ZI
_TEXT	ENDS
;	COMDAT ??_E?$vector@MV?$allocator@M@std@@@std@@QAEPAXI@Z
_TEXT	SEGMENT
_this$ = -8						; size = 4
___flags$ = 8						; size = 4
??_E?$vector@MV?$allocator@M@std@@@std@@QAEPAXI@Z PROC	; std::vector<float,std::allocator<float> >::`vector deleting destructor', COMDAT
; _this$ = ecx
	push	ebp
	mov	ebp, esp
	sub	esp, 204				; 000000ccH
	push	ebx
	push	esi
	push	edi
	push	ecx
	lea	edi, DWORD PTR [ebp-204]
	mov	ecx, 51					; 00000033H
	mov	eax, -858993460				; ccccccccH
	rep stosd
	pop	ecx
	mov	DWORD PTR _this$[ebp], ecx
	mov	eax, DWORD PTR ___flags$[ebp]
	and	eax, 2
	je	SHORT $LN3@vector@2
	push	OFFSET ??1?$vector@MV?$allocator@M@std@@@std@@QAE@XZ ; std::vector<float,std::allocator<float> >::~vector<float,std::allocator<float> >
	mov	eax, DWORD PTR _this$[ebp]
	mov	ecx, DWORD PTR [eax-4]
	push	ecx
	push	20					; 00000014H
	mov	edx, DWORD PTR _this$[ebp]
	push	edx
	call	??_M@YGXPAXIHP6EX0@Z@Z
	mov	eax, DWORD PTR ___flags$[ebp]
	and	eax, 1
	je	SHORT $LN2@vector@2
	mov	eax, DWORD PTR _this$[ebp]
	sub	eax, 4
	push	eax
	call	??_V@YAXPAX@Z				; operator delete[]
	add	esp, 4
$LN2@vector@2:
	mov	eax, DWORD PTR _this$[ebp]
	sub	eax, 4
	jmp	SHORT $LN4@vector@2
$LN3@vector@2:
	mov	ecx, DWORD PTR _this$[ebp]
	call	??1?$vector@MV?$allocator@M@std@@@std@@QAE@XZ ; std::vector<float,std::allocator<float> >::~vector<float,std::allocator<float> >
	mov	eax, DWORD PTR ___flags$[ebp]
	and	eax, 1
	je	SHORT $LN1@vector@2
	mov	eax, DWORD PTR _this$[ebp]
	push	eax
	call	??3@YAXPAX@Z				; operator delete
	add	esp, 4
$LN1@vector@2:
	mov	eax, DWORD PTR _this$[ebp]
$LN4@vector@2:
	pop	edi
	pop	esi
	pop	ebx
	add	esp, 204				; 000000ccH
	cmp	ebp, esp
	call	__RTC_CheckEsp
	mov	esp, ebp
	pop	ebp
	ret	4
??_E?$vector@MV?$allocator@M@std@@@std@@QAEPAXI@Z ENDP	; std::vector<float,std::allocator<float> >::`vector deleting destructor'
_TEXT	ENDS
PUBLIC	??1?$vector@HV?$allocator@H@std@@@std@@QAE@XZ	; std::vector<int,std::allocator<int> >::~vector<int,std::allocator<int> >
; Function compile flags: /Odtp /RTCcsu /ZI
;	COMDAT ??_G?$vector@HV?$allocator@H@std@@@std@@QAEPAXI@Z
_TEXT	SEGMENT
_this$ = -8						; size = 4
___flags$ = 8						; size = 4
??_G?$vector@HV?$allocator@H@std@@@std@@QAEPAXI@Z PROC	; std::vector<int,std::allocator<int> >::`scalar deleting destructor', COMDAT
; _this$ = ecx
	push	ebp
	mov	ebp, esp
	sub	esp, 204				; 000000ccH
	push	ebx
	push	esi
	push	edi
	push	ecx
	lea	edi, DWORD PTR [ebp-204]
	mov	ecx, 51					; 00000033H
	mov	eax, -858993460				; ccccccccH
	rep stosd
	pop	ecx
	mov	DWORD PTR _this$[ebp], ecx
	mov	ecx, DWORD PTR _this$[ebp]
	call	??1?$vector@HV?$allocator@H@std@@@std@@QAE@XZ ; std::vector<int,std::allocator<int> >::~vector<int,std::allocator<int> >
	mov	eax, DWORD PTR ___flags$[ebp]
	and	eax, 1
	je	SHORT $LN1@scalar@3
	mov	eax, DWORD PTR _this$[ebp]
	push	eax
	call	??3@YAXPAX@Z				; operator delete
	add	esp, 4
$LN1@scalar@3:
	mov	eax, DWORD PTR _this$[ebp]
	pop	edi
	pop	esi
	pop	ebx
	add	esp, 204				; 000000ccH
	cmp	ebp, esp
	call	__RTC_CheckEsp
	mov	esp, ebp
	pop	ebp
	ret	4
??_G?$vector@HV?$allocator@H@std@@@std@@QAEPAXI@Z ENDP	; std::vector<int,std::allocator<int> >::`scalar deleting destructor'
; Function compile flags: /Odtp /RTCcsu /ZI
_TEXT	ENDS
;	COMDAT ??_E?$vector@HV?$allocator@H@std@@@std@@QAEPAXI@Z
_TEXT	SEGMENT
_this$ = -8						; size = 4
___flags$ = 8						; size = 4
??_E?$vector@HV?$allocator@H@std@@@std@@QAEPAXI@Z PROC	; std::vector<int,std::allocator<int> >::`vector deleting destructor', COMDAT
; _this$ = ecx
	push	ebp
	mov	ebp, esp
	sub	esp, 204				; 000000ccH
	push	ebx
	push	esi
	push	edi
	push	ecx
	lea	edi, DWORD PTR [ebp-204]
	mov	ecx, 51					; 00000033H
	mov	eax, -858993460				; ccccccccH
	rep stosd
	pop	ecx
	mov	DWORD PTR _this$[ebp], ecx
	mov	eax, DWORD PTR ___flags$[ebp]
	and	eax, 2
	je	SHORT $LN3@vector@3
	push	OFFSET ??1?$vector@HV?$allocator@H@std@@@std@@QAE@XZ ; std::vector<int,std::allocator<int> >::~vector<int,std::allocator<int> >
	mov	eax, DWORD PTR _this$[ebp]
	mov	ecx, DWORD PTR [eax-4]
	push	ecx
	push	20					; 00000014H
	mov	edx, DWORD PTR _this$[ebp]
	push	edx
	call	??_M@YGXPAXIHP6EX0@Z@Z
	mov	eax, DWORD PTR ___flags$[ebp]
	and	eax, 1
	je	SHORT $LN2@vector@3
	mov	eax, DWORD PTR _this$[ebp]
	sub	eax, 4
	push	eax
	call	??_V@YAXPAX@Z				; operator delete[]
	add	esp, 4
$LN2@vector@3:
	mov	eax, DWORD PTR _this$[ebp]
	sub	eax, 4
	jmp	SHORT $LN4@vector@3
$LN3@vector@3:
	mov	ecx, DWORD PTR _this$[ebp]
	call	??1?$vector@HV?$allocator@H@std@@@std@@QAE@XZ ; std::vector<int,std::allocator<int> >::~vector<int,std::allocator<int> >
	mov	eax, DWORD PTR ___flags$[ebp]
	and	eax, 1
	je	SHORT $LN1@vector@3
	mov	eax, DWORD PTR _this$[ebp]
	push	eax
	call	??3@YAXPAX@Z				; operator delete
	add	esp, 4
$LN1@vector@3:
	mov	eax, DWORD PTR _this$[ebp]
$LN4@vector@3:
	pop	edi
	pop	esi
	pop	ebx
	add	esp, 204				; 000000ccH
	cmp	ebp, esp
	call	__RTC_CheckEsp
	mov	esp, ebp
	pop	ebp
	ret	4
??_E?$vector@HV?$allocator@H@std@@@std@@QAEPAXI@Z ENDP	; std::vector<int,std::allocator<int> >::`vector deleting destructor'
_TEXT	ENDS
PUBLIC	?soap_class_id_enter@@YAPAXPAUsoap@@PBDPAXHI11@Z ; soap_class_id_enter
EXTRN	_soap_id_enter:PROC
; Function compile flags: /Odtp /RTCcsu /ZI
;	COMDAT ?soap_class_id_enter@@YAPAXPAUsoap@@PBDPAXHI11@Z
_TEXT	SEGMENT
_soap$ = 8						; size = 4
_id$ = 12						; size = 4
_p$ = 16						; size = 4
_t$ = 20						; size = 4
_n$ = 24						; size = 4
_type$ = 28						; size = 4
_arrayType$ = 32					; size = 4
?soap_class_id_enter@@YAPAXPAUsoap@@PBDPAXHI11@Z PROC	; soap_class_id_enter, COMDAT

; 724  : {	return soap_id_enter(soap, id, p, t, n, 0, type, arrayType, soap_instantiate);

	push	ebp
	mov	ebp, esp
	sub	esp, 192				; 000000c0H
	push	ebx
	push	esi
	push	edi
	lea	edi, DWORD PTR [ebp-192]
	mov	ecx, 48					; 00000030H
	mov	eax, -858993460				; ccccccccH
	rep stosd
	push	OFFSET ?soap_instantiate@@YAPAXPAUsoap@@HPBD1PAI@Z ; soap_instantiate
	mov	eax, DWORD PTR _arrayType$[ebp]
	push	eax
	mov	ecx, DWORD PTR _type$[ebp]
	push	ecx
	push	0
	mov	edx, DWORD PTR _n$[ebp]
	push	edx
	mov	eax, DWORD PTR _t$[ebp]
	push	eax
	mov	ecx, DWORD PTR _p$[ebp]
	push	ecx
	mov	edx, DWORD PTR _id$[ebp]
	push	edx
	mov	eax, DWORD PTR _soap$[ebp]
	push	eax
	call	_soap_id_enter
	add	esp, 36					; 00000024H

; 725  : }

	pop	edi
	pop	esi
	pop	ebx
	add	esp, 192				; 000000c0H
	cmp	ebp, esp
	call	__RTC_CheckEsp
	mov	esp, ebp
	pop	ebp
	ret	0
?soap_class_id_enter@@YAPAXPAUsoap@@PBDPAXHI11@Z ENDP	; soap_class_id_enter
_TEXT	ENDS
PUBLIC	?soap_container_insert@@YAXPAUsoap@@HHPAXIPBXI@Z ; soap_container_insert
PUBLIC	?soap_container_id_forward@@YAPAXPAUsoap@@PBDPAXIHHII@Z ; soap_container_id_forward
EXTRN	_soap_id_forward:PROC
; Function compile flags: /Odtp /RTCcsu /ZI
;	COMDAT ?soap_container_id_forward@@YAPAXPAUsoap@@PBDPAXIHHII@Z
_TEXT	SEGMENT
_soap$ = 8						; size = 4
_href$ = 12						; size = 4
_p$ = 16						; size = 4
_len$ = 20						; size = 4
_st$ = 24						; size = 4
_tt$ = 28						; size = 4
_n$ = 32						; size = 4
_k$ = 36						; size = 4
?soap_container_id_forward@@YAPAXPAUsoap@@PBDPAXIHHII@Z PROC ; soap_container_id_forward, COMDAT

; 728  : {	return soap_id_forward(soap, href, p, len, st, tt, n, k, soap_container_insert);

	push	ebp
	mov	ebp, esp
	sub	esp, 192				; 000000c0H
	push	ebx
	push	esi
	push	edi
	lea	edi, DWORD PTR [ebp-192]
	mov	ecx, 48					; 00000030H
	mov	eax, -858993460				; ccccccccH
	rep stosd
	push	OFFSET ?soap_container_insert@@YAXPAUsoap@@HHPAXIPBXI@Z ; soap_container_insert
	mov	eax, DWORD PTR _k$[ebp]
	push	eax
	mov	ecx, DWORD PTR _n$[ebp]
	push	ecx
	mov	edx, DWORD PTR _tt$[ebp]
	push	edx
	mov	eax, DWORD PTR _st$[ebp]
	push	eax
	mov	ecx, DWORD PTR _len$[ebp]
	push	ecx
	mov	edx, DWORD PTR _p$[ebp]
	push	edx
	mov	eax, DWORD PTR _href$[ebp]
	push	eax
	mov	ecx, DWORD PTR _soap$[ebp]
	push	ecx
	call	_soap_id_forward
	add	esp, 36					; 00000024H

; 729  : }

	pop	edi
	pop	esi
	pop	ebx
	add	esp, 192				; 000000c0H
	cmp	ebp, esp
	call	__RTC_CheckEsp
	mov	esp, ebp
	pop	ebp
	ret	0
?soap_container_id_forward@@YAPAXPAUsoap@@PBDPAXIHHII@Z ENDP ; soap_container_id_forward
_TEXT	ENDS
PUBLIC	??_C@_0CA@OPBHAEBF@Could?5not?5insert?5type?$DN?$CFd?5in?5?$CFd?6?$AA@ ; `string'
PUBLIC	??A?$vector@HV?$allocator@H@std@@@std@@QAEAAHI@Z ; std::vector<int,std::allocator<int> >::operator[]
PUBLIC	??A?$vector@MV?$allocator@M@std@@@std@@QAEAAMI@Z ; std::vector<float,std::allocator<float> >::operator[]
PUBLIC	??_C@_0DO@FBODOPPA@Container?5insert?5type?$DN?$CFd?5in?5?$CFd?5l@ ; `string'
EXTRN	__fltused:DWORD
;	COMDAT ??_C@_0CA@OPBHAEBF@Could?5not?5insert?5type?$DN?$CFd?5in?5?$CFd?6?$AA@
CONST	SEGMENT
??_C@_0CA@OPBHAEBF@Could?5not?5insert?5type?$DN?$CFd?5in?5?$CFd?6?$AA@ DB 'C'
	DB	'ould not insert type=%d in %d', 0aH, 00H	; `string'
CONST	ENDS
;	COMDAT ??_C@_0DO@FBODOPPA@Container?5insert?5type?$DN?$CFd?5in?5?$CFd?5l@
CONST	SEGMENT
??_C@_0DO@FBODOPPA@Container?5insert?5type?$DN?$CFd?5in?5?$CFd?5l@ DB 'Co'
	DB	'ntainer insert type=%d in %d location=%p object=%p len=%lu', 0aH
	DB	00H						; `string'
; Function compile flags: /Odtp /RTCcsu /ZI
CONST	ENDS
;	COMDAT ?soap_container_insert@@YAXPAUsoap@@HHPAXIPBXI@Z
_TEXT	SEGMENT
tv64 = -232						; size = 4
_fdebug$87402 = -32					; size = 4
_fdebug$87389 = -20					; size = 4
_fdebug$87375 = -8					; size = 4
_soap$ = 8						; size = 4
_st$ = 12						; size = 4
_tt$ = 16						; size = 4
_p$ = 20						; size = 4
_len$ = 24						; size = 4
_q$ = 28						; size = 4
_n$ = 32						; size = 4
?soap_container_insert@@YAXPAUsoap@@HHPAXIPBXI@Z PROC	; soap_container_insert, COMDAT

; 736  : {	switch (tt)

	push	ebp
	mov	ebp, esp
	sub	esp, 232				; 000000e8H
	push	ebx
	push	esi
	push	edi
	lea	edi, DWORD PTR [ebp-232]
	mov	ecx, 58					; 0000003aH
	mov	eax, -858993460				; ccccccccH
	rep stosd
	mov	eax, DWORD PTR _tt$[ebp]
	mov	DWORD PTR tv64[ebp], eax
	cmp	DWORD PTR tv64[ebp], 26			; 0000001aH
	je	$LN8@soap_conta
	cmp	DWORD PTR tv64[ebp], 27			; 0000001bH
	je	SHORT $LN12@soap_conta
	jmp	$LN4@soap_conta
$LN12@soap_conta:

; 737  : 	{
; 738  : 	case SOAP_TYPE_std__vectorTemplateOffloat:
; 739  : 		DBGLOG(TEST, SOAP_MESSAGE(fdebug, "Container insert type=%d in %d location=%p object=%p len=%lu\n", st, tt, p, q, (unsigned long)len));

	cmp	DWORD PTR _soap$[ebp], 0
	je	SHORT $LN9@soap_conta
	mov	eax, DWORD PTR _soap$[ebp]
	cmp	DWORD PTR [eax+90568], 0
	jne	SHORT $LN10@soap_conta
	push	2
	mov	eax, DWORD PTR _soap$[ebp]
	push	eax
	call	_soap_open_logfile
	add	esp, 8
$LN10@soap_conta:
	mov	eax, DWORD PTR _soap$[ebp]
	cmp	DWORD PTR [eax+90568], 0
	je	SHORT $LN9@soap_conta
	mov	eax, DWORD PTR _soap$[ebp]
	mov	ecx, DWORD PTR [eax+90568]
	mov	DWORD PTR _fdebug$87375[ebp], ecx
	mov	esi, esp
	mov	eax, DWORD PTR _len$[ebp]
	push	eax
	mov	ecx, DWORD PTR _q$[ebp]
	push	ecx
	mov	edx, DWORD PTR _p$[ebp]
	push	edx
	mov	eax, DWORD PTR _tt$[ebp]
	push	eax
	mov	ecx, DWORD PTR _st$[ebp]
	push	ecx
	push	OFFSET ??_C@_0DO@FBODOPPA@Container?5insert?5type?$DN?$CFd?5in?5?$CFd?5l@
	mov	edx, DWORD PTR _fdebug$87375[ebp]
	push	edx
	call	DWORD PTR __imp__fprintf
	add	esp, 28					; 0000001cH
	cmp	esi, esp
	call	__RTC_CheckEsp
	mov	esi, esp
	mov	eax, DWORD PTR _fdebug$87375[ebp]
	push	eax
	call	DWORD PTR __imp__fflush
	add	esp, 4
	cmp	esi, esp
	call	__RTC_CheckEsp
$LN9@soap_conta:

; 740  : 		(*(std::vector<float >*)p)[len] = *(float *)q;

	mov	eax, DWORD PTR _len$[ebp]
	push	eax
	mov	ecx, DWORD PTR _p$[ebp]
	call	??A?$vector@MV?$allocator@M@std@@@std@@QAEAAMI@Z ; std::vector<float,std::allocator<float> >::operator[]
	mov	ecx, DWORD PTR _q$[ebp]
	fld	DWORD PTR [ecx]
	fstp	DWORD PTR [eax]

; 741  : 		break;

	jmp	$LN13@soap_conta
$LN8@soap_conta:

; 742  : 	case SOAP_TYPE_std__vectorTemplateOfint:
; 743  : 		DBGLOG(TEST, SOAP_MESSAGE(fdebug, "Container insert type=%d in %d location=%p object=%p len=%lu\n", st, tt, p, q, (unsigned long)len));

	cmp	DWORD PTR _soap$[ebp], 0
	je	SHORT $LN5@soap_conta
	mov	eax, DWORD PTR _soap$[ebp]
	cmp	DWORD PTR [eax+90568], 0
	jne	SHORT $LN6@soap_conta
	push	2
	mov	eax, DWORD PTR _soap$[ebp]
	push	eax
	call	_soap_open_logfile
	add	esp, 8
$LN6@soap_conta:
	mov	eax, DWORD PTR _soap$[ebp]
	cmp	DWORD PTR [eax+90568], 0
	je	SHORT $LN5@soap_conta
	mov	eax, DWORD PTR _soap$[ebp]
	mov	ecx, DWORD PTR [eax+90568]
	mov	DWORD PTR _fdebug$87389[ebp], ecx
	mov	esi, esp
	mov	eax, DWORD PTR _len$[ebp]
	push	eax
	mov	ecx, DWORD PTR _q$[ebp]
	push	ecx
	mov	edx, DWORD PTR _p$[ebp]
	push	edx
	mov	eax, DWORD PTR _tt$[ebp]
	push	eax
	mov	ecx, DWORD PTR _st$[ebp]
	push	ecx
	push	OFFSET ??_C@_0DO@FBODOPPA@Container?5insert?5type?$DN?$CFd?5in?5?$CFd?5l@
	mov	edx, DWORD PTR _fdebug$87389[ebp]
	push	edx
	call	DWORD PTR __imp__fprintf
	add	esp, 28					; 0000001cH
	cmp	esi, esp
	call	__RTC_CheckEsp
	mov	esi, esp
	mov	eax, DWORD PTR _fdebug$87389[ebp]
	push	eax
	call	DWORD PTR __imp__fflush
	add	esp, 4
	cmp	esi, esp
	call	__RTC_CheckEsp
$LN5@soap_conta:

; 744  : 		(*(std::vector<int >*)p)[len] = *(int *)q;

	mov	eax, DWORD PTR _len$[ebp]
	push	eax
	mov	ecx, DWORD PTR _p$[ebp]
	call	??A?$vector@HV?$allocator@H@std@@@std@@QAEAAHI@Z ; std::vector<int,std::allocator<int> >::operator[]
	mov	ecx, DWORD PTR _q$[ebp]
	mov	edx, DWORD PTR [ecx]
	mov	DWORD PTR [eax], edx

; 745  : 		break;

	jmp	SHORT $LN13@soap_conta
$LN4@soap_conta:

; 746  : 	default:
; 747  : 		DBGLOG(TEST, SOAP_MESSAGE(fdebug, "Could not insert type=%d in %d\n", st, tt));

	cmp	DWORD PTR _soap$[ebp], 0
	je	SHORT $LN1@soap_conta
	mov	eax, DWORD PTR _soap$[ebp]
	cmp	DWORD PTR [eax+90568], 0
	jne	SHORT $LN2@soap_conta
	push	2
	mov	eax, DWORD PTR _soap$[ebp]
	push	eax
	call	_soap_open_logfile
	add	esp, 8
$LN2@soap_conta:
	mov	eax, DWORD PTR _soap$[ebp]
	cmp	DWORD PTR [eax+90568], 0
	je	SHORT $LN1@soap_conta
	mov	eax, DWORD PTR _soap$[ebp]
	mov	ecx, DWORD PTR [eax+90568]
	mov	DWORD PTR _fdebug$87402[ebp], ecx
	mov	esi, esp
	mov	eax, DWORD PTR _tt$[ebp]
	push	eax
	mov	ecx, DWORD PTR _st$[ebp]
	push	ecx
	push	OFFSET ??_C@_0CA@OPBHAEBF@Could?5not?5insert?5type?$DN?$CFd?5in?5?$CFd?6?$AA@
	mov	edx, DWORD PTR _fdebug$87402[ebp]
	push	edx
	call	DWORD PTR __imp__fprintf
	add	esp, 16					; 00000010H
	cmp	esi, esp
	call	__RTC_CheckEsp
	mov	esi, esp
	mov	eax, DWORD PTR _fdebug$87402[ebp]
	push	eax
	call	DWORD PTR __imp__fflush
	add	esp, 4
	cmp	esi, esp
	call	__RTC_CheckEsp
$LN1@soap_conta:
$LN13@soap_conta:

; 748  : 	}
; 749  : #ifdef WIN32
; 750  : #pragma warning(pop)
; 751  : #endif
; 752  : }

	pop	edi
	pop	esi
	pop	ebx
	add	esp, 232				; 000000e8H
	cmp	ebp, esp
	call	__RTC_CheckEsp
	mov	esp, ebp
	pop	ebp
	ret	0
?soap_container_insert@@YAXPAUsoap@@HHPAXIPBXI@Z ENDP	; soap_container_insert
_TEXT	ENDS
PUBLIC	?soap_default_byte@@YAXPAUsoap@@PAD@Z		; soap_default_byte
; Function compile flags: /Odtp /RTCcsu /ZI
;	COMDAT ?soap_default_byte@@YAXPAUsoap@@PAD@Z
_TEXT	SEGMENT
_soap$ = 8						; size = 4
_a$ = 12						; size = 4
?soap_default_byte@@YAXPAUsoap@@PAD@Z PROC		; soap_default_byte, COMDAT

; 755  : {	(void)soap; /* appease -Wall -Werror */

	push	ebp
	mov	ebp, esp
	sub	esp, 192				; 000000c0H
	push	ebx
	push	esi
	push	edi
	lea	edi, DWORD PTR [ebp-192]
	mov	ecx, 48					; 00000030H
	mov	eax, -858993460				; ccccccccH
	rep stosd

; 756  : #ifdef SOAP_DEFAULT_byte
; 757  : 	*a = SOAP_DEFAULT_byte;
; 758  : #else
; 759  : 	*a = (char)0;

	mov	eax, DWORD PTR _a$[ebp]
	mov	BYTE PTR [eax], 0

; 760  : #endif
; 761  : }

	pop	edi
	pop	esi
	pop	ebx
	mov	esp, ebp
	pop	ebp
	ret	0
?soap_default_byte@@YAXPAUsoap@@PAD@Z ENDP		; soap_default_byte
_TEXT	ENDS
PUBLIC	?soap_put_byte@@YAHPAUsoap@@PBD11@Z		; soap_put_byte
EXTRN	_soap_embed:PROC
; Function compile flags: /Odtp /RTCcsu /ZI
;	COMDAT ?soap_put_byte@@YAHPAUsoap@@PBD11@Z
_TEXT	SEGMENT
_id$ = -8						; size = 4
_soap$ = 8						; size = 4
_a$ = 12						; size = 4
_tag$ = 16						; size = 4
_type$ = 20						; size = 4
?soap_put_byte@@YAHPAUsoap@@PBD11@Z PROC		; soap_put_byte, COMDAT

; 764  : {

	push	ebp
	mov	ebp, esp
	sub	esp, 204				; 000000ccH
	push	ebx
	push	esi
	push	edi
	lea	edi, DWORD PTR [ebp-204]
	mov	ecx, 51					; 00000033H
	mov	eax, -858993460				; ccccccccH
	rep stosd

; 765  : 	register int id = soap_embed(soap, (void*)a, NULL, 0, tag, SOAP_TYPE_byte);

	push	3
	mov	eax, DWORD PTR _tag$[ebp]
	push	eax
	push	0
	push	0
	mov	ecx, DWORD PTR _a$[ebp]
	push	ecx
	mov	edx, DWORD PTR _soap$[ebp]
	push	edx
	call	_soap_embed
	add	esp, 24					; 00000018H
	mov	DWORD PTR _id$[ebp], eax

; 766  : 	if (soap_out_byte(soap, tag, id, a, type))

	mov	eax, DWORD PTR _type$[ebp]
	push	eax
	mov	ecx, DWORD PTR _a$[ebp]
	push	ecx
	mov	edx, DWORD PTR _id$[ebp]
	push	edx
	mov	eax, DWORD PTR _tag$[ebp]
	push	eax
	mov	ecx, DWORD PTR _soap$[ebp]
	push	ecx
	call	?soap_out_byte@@YAHPAUsoap@@PBDH11@Z	; soap_out_byte
	add	esp, 20					; 00000014H
	test	eax, eax
	je	SHORT $LN1@soap_put_b

; 767  : 		return soap->error;

	mov	eax, DWORD PTR _soap$[ebp]
	mov	eax, DWORD PTR [eax+90460]
	jmp	SHORT $LN2@soap_put_b
$LN1@soap_put_b:

; 768  : 	return soap_putindependent(soap);

	mov	eax, DWORD PTR _soap$[ebp]
	push	eax
	call	?soap_putindependent@@YAHPAUsoap@@@Z	; soap_putindependent
	add	esp, 4
$LN2@soap_put_b:

; 769  : }

	pop	edi
	pop	esi
	pop	ebx
	add	esp, 204				; 000000ccH
	cmp	ebp, esp
	call	__RTC_CheckEsp
	mov	esp, ebp
	pop	ebp
	ret	0
?soap_put_byte@@YAHPAUsoap@@PBD11@Z ENDP		; soap_put_byte
_TEXT	ENDS
EXTRN	_soap_outbyte:PROC
; Function compile flags: /Odtp /RTCcsu /ZI
;	COMDAT ?soap_out_byte@@YAHPAUsoap@@PBDH11@Z
_TEXT	SEGMENT
_soap$ = 8						; size = 4
_tag$ = 12						; size = 4
_id$ = 16						; size = 4
_a$ = 20						; size = 4
_type$ = 24						; size = 4
?soap_out_byte@@YAHPAUsoap@@PBDH11@Z PROC		; soap_out_byte, COMDAT

; 772  : {

	push	ebp
	mov	ebp, esp
	sub	esp, 192				; 000000c0H
	push	ebx
	push	esi
	push	edi
	lea	edi, DWORD PTR [ebp-192]
	mov	ecx, 48					; 00000030H
	mov	eax, -858993460				; ccccccccH
	rep stosd

; 773  : 	return soap_outbyte(soap, tag, id, a, type, SOAP_TYPE_byte);

	push	3
	mov	eax, DWORD PTR _type$[ebp]
	push	eax
	mov	ecx, DWORD PTR _a$[ebp]
	push	ecx
	mov	edx, DWORD PTR _id$[ebp]
	push	edx
	mov	eax, DWORD PTR _tag$[ebp]
	push	eax
	mov	ecx, DWORD PTR _soap$[ebp]
	push	ecx
	call	_soap_outbyte
	add	esp, 24					; 00000018H

; 774  : }

	pop	edi
	pop	esi
	pop	ebx
	add	esp, 192				; 000000c0H
	cmp	ebp, esp
	call	__RTC_CheckEsp
	mov	esp, ebp
	pop	ebp
	ret	0
?soap_out_byte@@YAHPAUsoap@@PBDH11@Z ENDP		; soap_out_byte
_TEXT	ENDS
PUBLIC	?soap_get_byte@@YAPADPAUsoap@@PADPBD2@Z		; soap_get_byte
; Function compile flags: /Odtp /RTCcsu /ZI
;	COMDAT ?soap_get_byte@@YAPADPAUsoap@@PADPBD2@Z
_TEXT	SEGMENT
_soap$ = 8						; size = 4
_p$ = 12						; size = 4
_tag$ = 16						; size = 4
_type$ = 20						; size = 4
?soap_get_byte@@YAPADPAUsoap@@PADPBD2@Z PROC		; soap_get_byte, COMDAT

; 777  : {

	push	ebp
	mov	ebp, esp
	sub	esp, 192				; 000000c0H
	push	ebx
	push	esi
	push	edi
	lea	edi, DWORD PTR [ebp-192]
	mov	ecx, 48					; 00000030H
	mov	eax, -858993460				; ccccccccH
	rep stosd

; 778  : 	if ((p = soap_in_byte(soap, tag, p, type)))

	mov	eax, DWORD PTR _type$[ebp]
	push	eax
	mov	ecx, DWORD PTR _p$[ebp]
	push	ecx
	mov	edx, DWORD PTR _tag$[ebp]
	push	edx
	mov	eax, DWORD PTR _soap$[ebp]
	push	eax
	call	?soap_in_byte@@YAPADPAUsoap@@PBDPAD1@Z	; soap_in_byte
	add	esp, 16					; 00000010H
	mov	DWORD PTR _p$[ebp], eax
	cmp	DWORD PTR _p$[ebp], 0
	je	SHORT $LN2@soap_get_b

; 779  : 		if (soap_getindependent(soap))

	mov	eax, DWORD PTR _soap$[ebp]
	push	eax
	call	?soap_getindependent@@YAHPAUsoap@@@Z	; soap_getindependent
	add	esp, 4
	test	eax, eax
	je	SHORT $LN2@soap_get_b

; 780  : 			return NULL;

	xor	eax, eax
	jmp	SHORT $LN3@soap_get_b
$LN2@soap_get_b:

; 781  : 	return p;

	mov	eax, DWORD PTR _p$[ebp]
$LN3@soap_get_b:

; 782  : }

	pop	edi
	pop	esi
	pop	ebx
	add	esp, 192				; 000000c0H
	cmp	ebp, esp
	call	__RTC_CheckEsp
	mov	esp, ebp
	pop	ebp
	ret	0
?soap_get_byte@@YAPADPAUsoap@@PADPBD2@Z ENDP		; soap_get_byte
_TEXT	ENDS
EXTRN	_soap_inbyte:PROC
; Function compile flags: /Odtp /RTCcsu /ZI
;	COMDAT ?soap_in_byte@@YAPADPAUsoap@@PBDPAD1@Z
_TEXT	SEGMENT
_soap$ = 8						; size = 4
_tag$ = 12						; size = 4
_a$ = 16						; size = 4
_type$ = 20						; size = 4
?soap_in_byte@@YAPADPAUsoap@@PBDPAD1@Z PROC		; soap_in_byte, COMDAT

; 785  : {

	push	ebp
	mov	ebp, esp
	sub	esp, 192				; 000000c0H
	push	ebx
	push	esi
	push	edi
	lea	edi, DWORD PTR [ebp-192]
	mov	ecx, 48					; 00000030H
	mov	eax, -858993460				; ccccccccH
	rep stosd

; 786  : 	return soap_inbyte(soap, tag, a, type, SOAP_TYPE_byte);

	push	3
	mov	eax, DWORD PTR _type$[ebp]
	push	eax
	mov	ecx, DWORD PTR _a$[ebp]
	push	ecx
	mov	edx, DWORD PTR _tag$[ebp]
	push	edx
	mov	eax, DWORD PTR _soap$[ebp]
	push	eax
	call	_soap_inbyte
	add	esp, 20					; 00000014H

; 787  : }

	pop	edi
	pop	esi
	pop	ebx
	add	esp, 192				; 000000c0H
	cmp	ebp, esp
	call	__RTC_CheckEsp
	mov	esp, ebp
	pop	ebp
	ret	0
?soap_in_byte@@YAPADPAUsoap@@PBDPAD1@Z ENDP		; soap_in_byte
_TEXT	ENDS
PUBLIC	?soap_default_int@@YAXPAUsoap@@PAH@Z		; soap_default_int
; Function compile flags: /Odtp /RTCcsu /ZI
;	COMDAT ?soap_default_int@@YAXPAUsoap@@PAH@Z
_TEXT	SEGMENT
_soap$ = 8						; size = 4
_a$ = 12						; size = 4
?soap_default_int@@YAXPAUsoap@@PAH@Z PROC		; soap_default_int, COMDAT

; 790  : {	(void)soap; /* appease -Wall -Werror */

	push	ebp
	mov	ebp, esp
	sub	esp, 192				; 000000c0H
	push	ebx
	push	esi
	push	edi
	lea	edi, DWORD PTR [ebp-192]
	mov	ecx, 48					; 00000030H
	mov	eax, -858993460				; ccccccccH
	rep stosd

; 791  : #ifdef SOAP_DEFAULT_int
; 792  : 	*a = SOAP_DEFAULT_int;
; 793  : #else
; 794  : 	*a = (int)0;

	mov	eax, DWORD PTR _a$[ebp]
	mov	DWORD PTR [eax], 0

; 795  : #endif
; 796  : }

	pop	edi
	pop	esi
	pop	ebx
	mov	esp, ebp
	pop	ebp
	ret	0
?soap_default_int@@YAXPAUsoap@@PAH@Z ENDP		; soap_default_int
_TEXT	ENDS
PUBLIC	?soap_put_int@@YAHPAUsoap@@PBHPBD2@Z		; soap_put_int
; Function compile flags: /Odtp /RTCcsu /ZI
;	COMDAT ?soap_put_int@@YAHPAUsoap@@PBHPBD2@Z
_TEXT	SEGMENT
_id$ = -8						; size = 4
_soap$ = 8						; size = 4
_a$ = 12						; size = 4
_tag$ = 16						; size = 4
_type$ = 20						; size = 4
?soap_put_int@@YAHPAUsoap@@PBHPBD2@Z PROC		; soap_put_int, COMDAT

; 799  : {

	push	ebp
	mov	ebp, esp
	sub	esp, 204				; 000000ccH
	push	ebx
	push	esi
	push	edi
	lea	edi, DWORD PTR [ebp-204]
	mov	ecx, 51					; 00000033H
	mov	eax, -858993460				; ccccccccH
	rep stosd

; 800  : 	register int id = soap_embed(soap, (void*)a, NULL, 0, tag, SOAP_TYPE_int);

	push	1
	mov	eax, DWORD PTR _tag$[ebp]
	push	eax
	push	0
	push	0
	mov	ecx, DWORD PTR _a$[ebp]
	push	ecx
	mov	edx, DWORD PTR _soap$[ebp]
	push	edx
	call	_soap_embed
	add	esp, 24					; 00000018H
	mov	DWORD PTR _id$[ebp], eax

; 801  : 	if (soap_out_int(soap, tag, id, a, type))

	mov	eax, DWORD PTR _type$[ebp]
	push	eax
	mov	ecx, DWORD PTR _a$[ebp]
	push	ecx
	mov	edx, DWORD PTR _id$[ebp]
	push	edx
	mov	eax, DWORD PTR _tag$[ebp]
	push	eax
	mov	ecx, DWORD PTR _soap$[ebp]
	push	ecx
	call	?soap_out_int@@YAHPAUsoap@@PBDHPBH1@Z	; soap_out_int
	add	esp, 20					; 00000014H
	test	eax, eax
	je	SHORT $LN1@soap_put_i

; 802  : 		return soap->error;

	mov	eax, DWORD PTR _soap$[ebp]
	mov	eax, DWORD PTR [eax+90460]
	jmp	SHORT $LN2@soap_put_i
$LN1@soap_put_i:

; 803  : 	return soap_putindependent(soap);

	mov	eax, DWORD PTR _soap$[ebp]
	push	eax
	call	?soap_putindependent@@YAHPAUsoap@@@Z	; soap_putindependent
	add	esp, 4
$LN2@soap_put_i:

; 804  : }

	pop	edi
	pop	esi
	pop	ebx
	add	esp, 204				; 000000ccH
	cmp	ebp, esp
	call	__RTC_CheckEsp
	mov	esp, ebp
	pop	ebp
	ret	0
?soap_put_int@@YAHPAUsoap@@PBHPBD2@Z ENDP		; soap_put_int
_TEXT	ENDS
EXTRN	_soap_outint:PROC
; Function compile flags: /Odtp /RTCcsu /ZI
;	COMDAT ?soap_out_int@@YAHPAUsoap@@PBDHPBH1@Z
_TEXT	SEGMENT
_soap$ = 8						; size = 4
_tag$ = 12						; size = 4
_id$ = 16						; size = 4
_a$ = 20						; size = 4
_type$ = 24						; size = 4
?soap_out_int@@YAHPAUsoap@@PBDHPBH1@Z PROC		; soap_out_int, COMDAT

; 807  : {

	push	ebp
	mov	ebp, esp
	sub	esp, 192				; 000000c0H
	push	ebx
	push	esi
	push	edi
	lea	edi, DWORD PTR [ebp-192]
	mov	ecx, 48					; 00000030H
	mov	eax, -858993460				; ccccccccH
	rep stosd

; 808  : 	return soap_outint(soap, tag, id, a, type, SOAP_TYPE_int);

	push	1
	mov	eax, DWORD PTR _type$[ebp]
	push	eax
	mov	ecx, DWORD PTR _a$[ebp]
	push	ecx
	mov	edx, DWORD PTR _id$[ebp]
	push	edx
	mov	eax, DWORD PTR _tag$[ebp]
	push	eax
	mov	ecx, DWORD PTR _soap$[ebp]
	push	ecx
	call	_soap_outint
	add	esp, 24					; 00000018H

; 809  : }

	pop	edi
	pop	esi
	pop	ebx
	add	esp, 192				; 000000c0H
	cmp	ebp, esp
	call	__RTC_CheckEsp
	mov	esp, ebp
	pop	ebp
	ret	0
?soap_out_int@@YAHPAUsoap@@PBDHPBH1@Z ENDP		; soap_out_int
_TEXT	ENDS
PUBLIC	?soap_get_int@@YAPAHPAUsoap@@PAHPBD2@Z		; soap_get_int
; Function compile flags: /Odtp /RTCcsu /ZI
;	COMDAT ?soap_get_int@@YAPAHPAUsoap@@PAHPBD2@Z
_TEXT	SEGMENT
_soap$ = 8						; size = 4
_p$ = 12						; size = 4
_tag$ = 16						; size = 4
_type$ = 20						; size = 4
?soap_get_int@@YAPAHPAUsoap@@PAHPBD2@Z PROC		; soap_get_int, COMDAT

; 812  : {

	push	ebp
	mov	ebp, esp
	sub	esp, 192				; 000000c0H
	push	ebx
	push	esi
	push	edi
	lea	edi, DWORD PTR [ebp-192]
	mov	ecx, 48					; 00000030H
	mov	eax, -858993460				; ccccccccH
	rep stosd

; 813  : 	if ((p = soap_in_int(soap, tag, p, type)))

	mov	eax, DWORD PTR _type$[ebp]
	push	eax
	mov	ecx, DWORD PTR _p$[ebp]
	push	ecx
	mov	edx, DWORD PTR _tag$[ebp]
	push	edx
	mov	eax, DWORD PTR _soap$[ebp]
	push	eax
	call	?soap_in_int@@YAPAHPAUsoap@@PBDPAH1@Z	; soap_in_int
	add	esp, 16					; 00000010H
	mov	DWORD PTR _p$[ebp], eax
	cmp	DWORD PTR _p$[ebp], 0
	je	SHORT $LN2@soap_get_i

; 814  : 		if (soap_getindependent(soap))

	mov	eax, DWORD PTR _soap$[ebp]
	push	eax
	call	?soap_getindependent@@YAHPAUsoap@@@Z	; soap_getindependent
	add	esp, 4
	test	eax, eax
	je	SHORT $LN2@soap_get_i

; 815  : 			return NULL;

	xor	eax, eax
	jmp	SHORT $LN3@soap_get_i
$LN2@soap_get_i:

; 816  : 	return p;

	mov	eax, DWORD PTR _p$[ebp]
$LN3@soap_get_i:

; 817  : }

	pop	edi
	pop	esi
	pop	ebx
	add	esp, 192				; 000000c0H
	cmp	ebp, esp
	call	__RTC_CheckEsp
	mov	esp, ebp
	pop	ebp
	ret	0
?soap_get_int@@YAPAHPAUsoap@@PAHPBD2@Z ENDP		; soap_get_int
_TEXT	ENDS
EXTRN	_soap_inint:PROC
; Function compile flags: /Odtp /RTCcsu /ZI
;	COMDAT ?soap_in_int@@YAPAHPAUsoap@@PBDPAH1@Z
_TEXT	SEGMENT
_soap$ = 8						; size = 4
_tag$ = 12						; size = 4
_a$ = 16						; size = 4
_type$ = 20						; size = 4
?soap_in_int@@YAPAHPAUsoap@@PBDPAH1@Z PROC		; soap_in_int, COMDAT

; 820  : {

	push	ebp
	mov	ebp, esp
	sub	esp, 192				; 000000c0H
	push	ebx
	push	esi
	push	edi
	lea	edi, DWORD PTR [ebp-192]
	mov	ecx, 48					; 00000030H
	mov	eax, -858993460				; ccccccccH
	rep stosd

; 821  : 	return soap_inint(soap, tag, a, type, SOAP_TYPE_int);

	push	1
	mov	eax, DWORD PTR _type$[ebp]
	push	eax
	mov	ecx, DWORD PTR _a$[ebp]
	push	ecx
	mov	edx, DWORD PTR _tag$[ebp]
	push	edx
	mov	eax, DWORD PTR _soap$[ebp]
	push	eax
	call	_soap_inint
	add	esp, 20					; 00000014H

; 822  : }

	pop	edi
	pop	esi
	pop	ebx
	add	esp, 192				; 000000c0H
	cmp	ebp, esp
	call	__RTC_CheckEsp
	mov	esp, ebp
	pop	ebp
	ret	0
?soap_in_int@@YAPAHPAUsoap@@PBDPAH1@Z ENDP		; soap_in_int
_TEXT	ENDS
PUBLIC	?soap_default_LONG64@@YAXPAUsoap@@PA_J@Z	; soap_default_LONG64
; Function compile flags: /Odtp /RTCcsu /ZI
;	COMDAT ?soap_default_LONG64@@YAXPAUsoap@@PA_J@Z
_TEXT	SEGMENT
_soap$ = 8						; size = 4
_a$ = 12						; size = 4
?soap_default_LONG64@@YAXPAUsoap@@PA_J@Z PROC		; soap_default_LONG64, COMDAT

; 825  : {	(void)soap; /* appease -Wall -Werror */

	push	ebp
	mov	ebp, esp
	sub	esp, 192				; 000000c0H
	push	ebx
	push	esi
	push	edi
	lea	edi, DWORD PTR [ebp-192]
	mov	ecx, 48					; 00000030H
	mov	eax, -858993460				; ccccccccH
	rep stosd

; 826  : #ifdef SOAP_DEFAULT_LONG64
; 827  : 	*a = SOAP_DEFAULT_LONG64;
; 828  : #else
; 829  : 	*a = (LONG64)0;

	mov	eax, DWORD PTR _a$[ebp]
	mov	DWORD PTR [eax], 0
	mov	DWORD PTR [eax+4], 0

; 830  : #endif
; 831  : }

	pop	edi
	pop	esi
	pop	ebx
	mov	esp, ebp
	pop	ebp
	ret	0
?soap_default_LONG64@@YAXPAUsoap@@PA_J@Z ENDP		; soap_default_LONG64
_TEXT	ENDS
PUBLIC	?soap_put_LONG64@@YAHPAUsoap@@PB_JPBD2@Z	; soap_put_LONG64
; Function compile flags: /Odtp /RTCcsu /ZI
;	COMDAT ?soap_put_LONG64@@YAHPAUsoap@@PB_JPBD2@Z
_TEXT	SEGMENT
_id$ = -8						; size = 4
_soap$ = 8						; size = 4
_a$ = 12						; size = 4
_tag$ = 16						; size = 4
_type$ = 20						; size = 4
?soap_put_LONG64@@YAHPAUsoap@@PB_JPBD2@Z PROC		; soap_put_LONG64, COMDAT

; 834  : {

	push	ebp
	mov	ebp, esp
	sub	esp, 204				; 000000ccH
	push	ebx
	push	esi
	push	edi
	lea	edi, DWORD PTR [ebp-204]
	mov	ecx, 51					; 00000033H
	mov	eax, -858993460				; ccccccccH
	rep stosd

; 835  : 	register int id = soap_embed(soap, (void*)a, NULL, 0, tag, SOAP_TYPE_LONG64);

	push	16					; 00000010H
	mov	eax, DWORD PTR _tag$[ebp]
	push	eax
	push	0
	push	0
	mov	ecx, DWORD PTR _a$[ebp]
	push	ecx
	mov	edx, DWORD PTR _soap$[ebp]
	push	edx
	call	_soap_embed
	add	esp, 24					; 00000018H
	mov	DWORD PTR _id$[ebp], eax

; 836  : 	if (soap_out_LONG64(soap, tag, id, a, type))

	mov	eax, DWORD PTR _type$[ebp]
	push	eax
	mov	ecx, DWORD PTR _a$[ebp]
	push	ecx
	mov	edx, DWORD PTR _id$[ebp]
	push	edx
	mov	eax, DWORD PTR _tag$[ebp]
	push	eax
	mov	ecx, DWORD PTR _soap$[ebp]
	push	ecx
	call	?soap_out_LONG64@@YAHPAUsoap@@PBDHPB_J1@Z ; soap_out_LONG64
	add	esp, 20					; 00000014H
	test	eax, eax
	je	SHORT $LN1@soap_put_L

; 837  : 		return soap->error;

	mov	eax, DWORD PTR _soap$[ebp]
	mov	eax, DWORD PTR [eax+90460]
	jmp	SHORT $LN2@soap_put_L
$LN1@soap_put_L:

; 838  : 	return soap_putindependent(soap);

	mov	eax, DWORD PTR _soap$[ebp]
	push	eax
	call	?soap_putindependent@@YAHPAUsoap@@@Z	; soap_putindependent
	add	esp, 4
$LN2@soap_put_L:

; 839  : }

	pop	edi
	pop	esi
	pop	ebx
	add	esp, 204				; 000000ccH
	cmp	ebp, esp
	call	__RTC_CheckEsp
	mov	esp, ebp
	pop	ebp
	ret	0
?soap_put_LONG64@@YAHPAUsoap@@PB_JPBD2@Z ENDP		; soap_put_LONG64
_TEXT	ENDS
EXTRN	_soap_outLONG64:PROC
; Function compile flags: /Odtp /RTCcsu /ZI
;	COMDAT ?soap_out_LONG64@@YAHPAUsoap@@PBDHPB_J1@Z
_TEXT	SEGMENT
_soap$ = 8						; size = 4
_tag$ = 12						; size = 4
_id$ = 16						; size = 4
_a$ = 20						; size = 4
_type$ = 24						; size = 4
?soap_out_LONG64@@YAHPAUsoap@@PBDHPB_J1@Z PROC		; soap_out_LONG64, COMDAT

; 842  : {

	push	ebp
	mov	ebp, esp
	sub	esp, 192				; 000000c0H
	push	ebx
	push	esi
	push	edi
	lea	edi, DWORD PTR [ebp-192]
	mov	ecx, 48					; 00000030H
	mov	eax, -858993460				; ccccccccH
	rep stosd

; 843  : 	return soap_outLONG64(soap, tag, id, a, type, SOAP_TYPE_LONG64);

	push	16					; 00000010H
	mov	eax, DWORD PTR _type$[ebp]
	push	eax
	mov	ecx, DWORD PTR _a$[ebp]
	push	ecx
	mov	edx, DWORD PTR _id$[ebp]
	push	edx
	mov	eax, DWORD PTR _tag$[ebp]
	push	eax
	mov	ecx, DWORD PTR _soap$[ebp]
	push	ecx
	call	_soap_outLONG64
	add	esp, 24					; 00000018H

; 844  : }

	pop	edi
	pop	esi
	pop	ebx
	add	esp, 192				; 000000c0H
	cmp	ebp, esp
	call	__RTC_CheckEsp
	mov	esp, ebp
	pop	ebp
	ret	0
?soap_out_LONG64@@YAHPAUsoap@@PBDHPB_J1@Z ENDP		; soap_out_LONG64
_TEXT	ENDS
PUBLIC	?soap_get_LONG64@@YAPA_JPAUsoap@@PA_JPBD2@Z	; soap_get_LONG64
; Function compile flags: /Odtp /RTCcsu /ZI
;	COMDAT ?soap_get_LONG64@@YAPA_JPAUsoap@@PA_JPBD2@Z
_TEXT	SEGMENT
_soap$ = 8						; size = 4
_p$ = 12						; size = 4
_tag$ = 16						; size = 4
_type$ = 20						; size = 4
?soap_get_LONG64@@YAPA_JPAUsoap@@PA_JPBD2@Z PROC	; soap_get_LONG64, COMDAT

; 847  : {

	push	ebp
	mov	ebp, esp
	sub	esp, 192				; 000000c0H
	push	ebx
	push	esi
	push	edi
	lea	edi, DWORD PTR [ebp-192]
	mov	ecx, 48					; 00000030H
	mov	eax, -858993460				; ccccccccH
	rep stosd

; 848  : 	if ((p = soap_in_LONG64(soap, tag, p, type)))

	mov	eax, DWORD PTR _type$[ebp]
	push	eax
	mov	ecx, DWORD PTR _p$[ebp]
	push	ecx
	mov	edx, DWORD PTR _tag$[ebp]
	push	edx
	mov	eax, DWORD PTR _soap$[ebp]
	push	eax
	call	?soap_in_LONG64@@YAPA_JPAUsoap@@PBDPA_J1@Z ; soap_in_LONG64
	add	esp, 16					; 00000010H
	mov	DWORD PTR _p$[ebp], eax
	cmp	DWORD PTR _p$[ebp], 0
	je	SHORT $LN2@soap_get_L

; 849  : 		if (soap_getindependent(soap))

	mov	eax, DWORD PTR _soap$[ebp]
	push	eax
	call	?soap_getindependent@@YAHPAUsoap@@@Z	; soap_getindependent
	add	esp, 4
	test	eax, eax
	je	SHORT $LN2@soap_get_L

; 850  : 			return NULL;

	xor	eax, eax
	jmp	SHORT $LN3@soap_get_L
$LN2@soap_get_L:

; 851  : 	return p;

	mov	eax, DWORD PTR _p$[ebp]
$LN3@soap_get_L:

; 852  : }

	pop	edi
	pop	esi
	pop	ebx
	add	esp, 192				; 000000c0H
	cmp	ebp, esp
	call	__RTC_CheckEsp
	mov	esp, ebp
	pop	ebp
	ret	0
?soap_get_LONG64@@YAPA_JPAUsoap@@PA_JPBD2@Z ENDP	; soap_get_LONG64
_TEXT	ENDS
EXTRN	_soap_inLONG64:PROC
; Function compile flags: /Odtp /RTCcsu /ZI
;	COMDAT ?soap_in_LONG64@@YAPA_JPAUsoap@@PBDPA_J1@Z
_TEXT	SEGMENT
_soap$ = 8						; size = 4
_tag$ = 12						; size = 4
_a$ = 16						; size = 4
_type$ = 20						; size = 4
?soap_in_LONG64@@YAPA_JPAUsoap@@PBDPA_J1@Z PROC		; soap_in_LONG64, COMDAT

; 855  : {

	push	ebp
	mov	ebp, esp
	sub	esp, 192				; 000000c0H
	push	ebx
	push	esi
	push	edi
	lea	edi, DWORD PTR [ebp-192]
	mov	ecx, 48					; 00000030H
	mov	eax, -858993460				; ccccccccH
	rep stosd

; 856  : 	return soap_inLONG64(soap, tag, a, type, SOAP_TYPE_LONG64);

	push	16					; 00000010H
	mov	eax, DWORD PTR _type$[ebp]
	push	eax
	mov	ecx, DWORD PTR _a$[ebp]
	push	ecx
	mov	edx, DWORD PTR _tag$[ebp]
	push	edx
	mov	eax, DWORD PTR _soap$[ebp]
	push	eax
	call	_soap_inLONG64
	add	esp, 20					; 00000014H

; 857  : }

	pop	edi
	pop	esi
	pop	ebx
	add	esp, 192				; 000000c0H
	cmp	ebp, esp
	call	__RTC_CheckEsp
	mov	esp, ebp
	pop	ebp
	ret	0
?soap_in_LONG64@@YAPA_JPAUsoap@@PBDPA_J1@Z ENDP		; soap_in_LONG64
_TEXT	ENDS
PUBLIC	__real@00000000
PUBLIC	?soap_default_float@@YAXPAUsoap@@PAM@Z		; soap_default_float
;	COMDAT __real@00000000
CONST	SEGMENT
__real@00000000 DD 000000000r			; 0
; Function compile flags: /Odtp /RTCcsu /ZI
CONST	ENDS
;	COMDAT ?soap_default_float@@YAXPAUsoap@@PAM@Z
_TEXT	SEGMENT
_soap$ = 8						; size = 4
_a$ = 12						; size = 4
?soap_default_float@@YAXPAUsoap@@PAM@Z PROC		; soap_default_float, COMDAT

; 860  : {	(void)soap; /* appease -Wall -Werror */

	push	ebp
	mov	ebp, esp
	sub	esp, 192				; 000000c0H
	push	ebx
	push	esi
	push	edi
	lea	edi, DWORD PTR [ebp-192]
	mov	ecx, 48					; 00000030H
	mov	eax, -858993460				; ccccccccH
	rep stosd

; 861  : #ifdef SOAP_DEFAULT_float
; 862  : 	*a = SOAP_DEFAULT_float;
; 863  : #else
; 864  : 	*a = (float)0;

	mov	eax, DWORD PTR _a$[ebp]
	fldz
	fstp	DWORD PTR [eax]

; 865  : #endif
; 866  : }

	pop	edi
	pop	esi
	pop	ebx
	mov	esp, ebp
	pop	ebp
	ret	0
?soap_default_float@@YAXPAUsoap@@PAM@Z ENDP		; soap_default_float
_TEXT	ENDS
PUBLIC	?soap_put_float@@YAHPAUsoap@@PBMPBD2@Z		; soap_put_float
; Function compile flags: /Odtp /RTCcsu /ZI
;	COMDAT ?soap_put_float@@YAHPAUsoap@@PBMPBD2@Z
_TEXT	SEGMENT
_id$ = -8						; size = 4
_soap$ = 8						; size = 4
_a$ = 12						; size = 4
_tag$ = 16						; size = 4
_type$ = 20						; size = 4
?soap_put_float@@YAHPAUsoap@@PBMPBD2@Z PROC		; soap_put_float, COMDAT

; 869  : {

	push	ebp
	mov	ebp, esp
	sub	esp, 204				; 000000ccH
	push	ebx
	push	esi
	push	edi
	lea	edi, DWORD PTR [ebp-204]
	mov	ecx, 51					; 00000033H
	mov	eax, -858993460				; ccccccccH
	rep stosd

; 870  : 	register int id = soap_embed(soap, (void*)a, NULL, 0, tag, SOAP_TYPE_float);

	push	13					; 0000000dH
	mov	eax, DWORD PTR _tag$[ebp]
	push	eax
	push	0
	push	0
	mov	ecx, DWORD PTR _a$[ebp]
	push	ecx
	mov	edx, DWORD PTR _soap$[ebp]
	push	edx
	call	_soap_embed
	add	esp, 24					; 00000018H
	mov	DWORD PTR _id$[ebp], eax

; 871  : 	if (soap_out_float(soap, tag, id, a, type))

	mov	eax, DWORD PTR _type$[ebp]
	push	eax
	mov	ecx, DWORD PTR _a$[ebp]
	push	ecx
	mov	edx, DWORD PTR _id$[ebp]
	push	edx
	mov	eax, DWORD PTR _tag$[ebp]
	push	eax
	mov	ecx, DWORD PTR _soap$[ebp]
	push	ecx
	call	?soap_out_float@@YAHPAUsoap@@PBDHPBM1@Z	; soap_out_float
	add	esp, 20					; 00000014H
	test	eax, eax
	je	SHORT $LN1@soap_put_f

; 872  : 		return soap->error;

	mov	eax, DWORD PTR _soap$[ebp]
	mov	eax, DWORD PTR [eax+90460]
	jmp	SHORT $LN2@soap_put_f
$LN1@soap_put_f:

; 873  : 	return soap_putindependent(soap);

	mov	eax, DWORD PTR _soap$[ebp]
	push	eax
	call	?soap_putindependent@@YAHPAUsoap@@@Z	; soap_putindependent
	add	esp, 4
$LN2@soap_put_f:

; 874  : }

	pop	edi
	pop	esi
	pop	ebx
	add	esp, 204				; 000000ccH
	cmp	ebp, esp
	call	__RTC_CheckEsp
	mov	esp, ebp
	pop	ebp
	ret	0
?soap_put_float@@YAHPAUsoap@@PBMPBD2@Z ENDP		; soap_put_float
_TEXT	ENDS
EXTRN	_soap_outfloat:PROC
; Function compile flags: /Odtp /RTCcsu /ZI
;	COMDAT ?soap_out_float@@YAHPAUsoap@@PBDHPBM1@Z
_TEXT	SEGMENT
_soap$ = 8						; size = 4
_tag$ = 12						; size = 4
_id$ = 16						; size = 4
_a$ = 20						; size = 4
_type$ = 24						; size = 4
?soap_out_float@@YAHPAUsoap@@PBDHPBM1@Z PROC		; soap_out_float, COMDAT

; 877  : {

	push	ebp
	mov	ebp, esp
	sub	esp, 192				; 000000c0H
	push	ebx
	push	esi
	push	edi
	lea	edi, DWORD PTR [ebp-192]
	mov	ecx, 48					; 00000030H
	mov	eax, -858993460				; ccccccccH
	rep stosd

; 878  : 	return soap_outfloat(soap, tag, id, a, type, SOAP_TYPE_float);

	push	13					; 0000000dH
	mov	eax, DWORD PTR _type$[ebp]
	push	eax
	mov	ecx, DWORD PTR _a$[ebp]
	push	ecx
	mov	edx, DWORD PTR _id$[ebp]
	push	edx
	mov	eax, DWORD PTR _tag$[ebp]
	push	eax
	mov	ecx, DWORD PTR _soap$[ebp]
	push	ecx
	call	_soap_outfloat
	add	esp, 24					; 00000018H

; 879  : }

	pop	edi
	pop	esi
	pop	ebx
	add	esp, 192				; 000000c0H
	cmp	ebp, esp
	call	__RTC_CheckEsp
	mov	esp, ebp
	pop	ebp
	ret	0
?soap_out_float@@YAHPAUsoap@@PBDHPBM1@Z ENDP		; soap_out_float
_TEXT	ENDS
PUBLIC	?soap_get_float@@YAPAMPAUsoap@@PAMPBD2@Z	; soap_get_float
; Function compile flags: /Odtp /RTCcsu /ZI
;	COMDAT ?soap_get_float@@YAPAMPAUsoap@@PAMPBD2@Z
_TEXT	SEGMENT
_soap$ = 8						; size = 4
_p$ = 12						; size = 4
_tag$ = 16						; size = 4
_type$ = 20						; size = 4
?soap_get_float@@YAPAMPAUsoap@@PAMPBD2@Z PROC		; soap_get_float, COMDAT

; 882  : {

	push	ebp
	mov	ebp, esp
	sub	esp, 192				; 000000c0H
	push	ebx
	push	esi
	push	edi
	lea	edi, DWORD PTR [ebp-192]
	mov	ecx, 48					; 00000030H
	mov	eax, -858993460				; ccccccccH
	rep stosd

; 883  : 	if ((p = soap_in_float(soap, tag, p, type)))

	mov	eax, DWORD PTR _type$[ebp]
	push	eax
	mov	ecx, DWORD PTR _p$[ebp]
	push	ecx
	mov	edx, DWORD PTR _tag$[ebp]
	push	edx
	mov	eax, DWORD PTR _soap$[ebp]
	push	eax
	call	?soap_in_float@@YAPAMPAUsoap@@PBDPAM1@Z	; soap_in_float
	add	esp, 16					; 00000010H
	mov	DWORD PTR _p$[ebp], eax
	cmp	DWORD PTR _p$[ebp], 0
	je	SHORT $LN2@soap_get_f

; 884  : 		if (soap_getindependent(soap))

	mov	eax, DWORD PTR _soap$[ebp]
	push	eax
	call	?soap_getindependent@@YAHPAUsoap@@@Z	; soap_getindependent
	add	esp, 4
	test	eax, eax
	je	SHORT $LN2@soap_get_f

; 885  : 			return NULL;

	xor	eax, eax
	jmp	SHORT $LN3@soap_get_f
$LN2@soap_get_f:

; 886  : 	return p;

	mov	eax, DWORD PTR _p$[ebp]
$LN3@soap_get_f:

; 887  : }

	pop	edi
	pop	esi
	pop	ebx
	add	esp, 192				; 000000c0H
	cmp	ebp, esp
	call	__RTC_CheckEsp
	mov	esp, ebp
	pop	ebp
	ret	0
?soap_get_float@@YAPAMPAUsoap@@PAMPBD2@Z ENDP		; soap_get_float
_TEXT	ENDS
EXTRN	_soap_infloat:PROC
; Function compile flags: /Odtp /RTCcsu /ZI
;	COMDAT ?soap_in_float@@YAPAMPAUsoap@@PBDPAM1@Z
_TEXT	SEGMENT
_soap$ = 8						; size = 4
_tag$ = 12						; size = 4
_a$ = 16						; size = 4
_type$ = 20						; size = 4
?soap_in_float@@YAPAMPAUsoap@@PBDPAM1@Z PROC		; soap_in_float, COMDAT

; 890  : {

	push	ebp
	mov	ebp, esp
	sub	esp, 192				; 000000c0H
	push	ebx
	push	esi
	push	edi
	lea	edi, DWORD PTR [ebp-192]
	mov	ecx, 48					; 00000030H
	mov	eax, -858993460				; ccccccccH
	rep stosd

; 891  : 	return soap_infloat(soap, tag, a, type, SOAP_TYPE_float);

	push	13					; 0000000dH
	mov	eax, DWORD PTR _type$[ebp]
	push	eax
	mov	ecx, DWORD PTR _a$[ebp]
	push	ecx
	mov	edx, DWORD PTR _tag$[ebp]
	push	edx
	mov	eax, DWORD PTR _soap$[ebp]
	push	eax
	call	_soap_infloat
	add	esp, 20					; 00000014H

; 892  : }

	pop	edi
	pop	esi
	pop	ebx
	add	esp, 192				; 000000c0H
	cmp	ebp, esp
	call	__RTC_CheckEsp
	mov	esp, ebp
	pop	ebp
	ret	0
?soap_in_float@@YAPAMPAUsoap@@PBDPAM1@Z ENDP		; soap_in_float
_TEXT	ENDS
PUBLIC	?soap_default_bool@@YAXPAUsoap@@PA_N@Z		; soap_default_bool
; Function compile flags: /Odtp /RTCcsu /ZI
;	COMDAT ?soap_default_bool@@YAXPAUsoap@@PA_N@Z
_TEXT	SEGMENT
_soap$ = 8						; size = 4
_a$ = 12						; size = 4
?soap_default_bool@@YAXPAUsoap@@PA_N@Z PROC		; soap_default_bool, COMDAT

; 895  : {	(void)soap; /* appease -Wall -Werror */

	push	ebp
	mov	ebp, esp
	sub	esp, 192				; 000000c0H
	push	ebx
	push	esi
	push	edi
	lea	edi, DWORD PTR [ebp-192]
	mov	ecx, 48					; 00000030H
	mov	eax, -858993460				; ccccccccH
	rep stosd

; 896  : #ifdef SOAP_DEFAULT_bool
; 897  : 	*a = SOAP_DEFAULT_bool;
; 898  : #else
; 899  : 	*a = (bool)0;

	mov	eax, DWORD PTR _a$[ebp]
	mov	BYTE PTR [eax], 0

; 900  : #endif
; 901  : }

	pop	edi
	pop	esi
	pop	ebx
	mov	esp, ebp
	pop	ebp
	ret	0
?soap_default_bool@@YAXPAUsoap@@PA_N@Z ENDP		; soap_default_bool
_TEXT	ENDS
PUBLIC	?soap_put_bool@@YAHPAUsoap@@PB_NPBD2@Z		; soap_put_bool
; Function compile flags: /Odtp /RTCcsu /ZI
;	COMDAT ?soap_put_bool@@YAHPAUsoap@@PB_NPBD2@Z
_TEXT	SEGMENT
_id$ = -8						; size = 4
_soap$ = 8						; size = 4
_a$ = 12						; size = 4
_tag$ = 16						; size = 4
_type$ = 20						; size = 4
?soap_put_bool@@YAHPAUsoap@@PB_NPBD2@Z PROC		; soap_put_bool, COMDAT

; 904  : {

	push	ebp
	mov	ebp, esp
	sub	esp, 204				; 000000ccH
	push	ebx
	push	esi
	push	edi
	lea	edi, DWORD PTR [ebp-204]
	mov	ecx, 51					; 00000033H
	mov	eax, -858993460				; ccccccccH
	rep stosd

; 905  : 	register int id = soap_embed(soap, (void*)a, NULL, 0, tag, SOAP_TYPE_bool);

	push	11					; 0000000bH
	mov	eax, DWORD PTR _tag$[ebp]
	push	eax
	push	0
	push	0
	mov	ecx, DWORD PTR _a$[ebp]
	push	ecx
	mov	edx, DWORD PTR _soap$[ebp]
	push	edx
	call	_soap_embed
	add	esp, 24					; 00000018H
	mov	DWORD PTR _id$[ebp], eax

; 906  : 	if (soap_out_bool(soap, tag, id, a, type))

	mov	eax, DWORD PTR _type$[ebp]
	push	eax
	mov	ecx, DWORD PTR _a$[ebp]
	push	ecx
	mov	edx, DWORD PTR _id$[ebp]
	push	edx
	mov	eax, DWORD PTR _tag$[ebp]
	push	eax
	mov	ecx, DWORD PTR _soap$[ebp]
	push	ecx
	call	?soap_out_bool@@YAHPAUsoap@@PBDHPB_N1@Z	; soap_out_bool
	add	esp, 20					; 00000014H
	test	eax, eax
	je	SHORT $LN1@soap_put_b@2

; 907  : 		return soap->error;

	mov	eax, DWORD PTR _soap$[ebp]
	mov	eax, DWORD PTR [eax+90460]
	jmp	SHORT $LN2@soap_put_b@2
$LN1@soap_put_b@2:

; 908  : 	return soap_putindependent(soap);

	mov	eax, DWORD PTR _soap$[ebp]
	push	eax
	call	?soap_putindependent@@YAHPAUsoap@@@Z	; soap_putindependent
	add	esp, 4
$LN2@soap_put_b@2:

; 909  : }

	pop	edi
	pop	esi
	pop	ebx
	add	esp, 204				; 000000ccH
	cmp	ebp, esp
	call	__RTC_CheckEsp
	mov	esp, ebp
	pop	ebp
	ret	0
?soap_put_bool@@YAHPAUsoap@@PB_NPBD2@Z ENDP		; soap_put_bool
_TEXT	ENDS
PUBLIC	?soap_bool2s@@YAPBDPAUsoap@@_N@Z		; soap_bool2s
EXTRN	_soap_code_str:PROC
; Function compile flags: /Odtp /RTCcsu /ZI
;	COMDAT ?soap_bool2s@@YAPBDPAUsoap@@_N@Z
_TEXT	SEGMENT
_soap$ = 8						; size = 4
_n$ = 12						; size = 1
?soap_bool2s@@YAPBDPAUsoap@@_N@Z PROC			; soap_bool2s, COMDAT

; 918  : {	return soap_code_str(soap_codes_bool, n!=0);

	push	ebp
	mov	ebp, esp
	sub	esp, 192				; 000000c0H
	push	ebx
	push	esi
	push	edi
	lea	edi, DWORD PTR [ebp-192]
	mov	ecx, 48					; 00000030H
	mov	eax, -858993460				; ccccccccH
	rep stosd
	movzx	eax, BYTE PTR _n$[ebp]
	neg	eax
	sbb	eax, eax
	neg	eax
	push	eax
	push	OFFSET _soap_codes_bool
	call	_soap_code_str
	add	esp, 8

; 919  : }

	pop	edi
	pop	esi
	pop	ebx
	add	esp, 192				; 000000c0H
	cmp	ebp, esp
	call	__RTC_CheckEsp
	mov	esp, ebp
	pop	ebp
	ret	0
?soap_bool2s@@YAPBDPAUsoap@@_N@Z ENDP			; soap_bool2s
_TEXT	ENDS
EXTRN	_soap_element_end_out:PROC
EXTRN	_soap_send:PROC
EXTRN	_soap_element_begin_out:PROC
EXTRN	_soap_embedded_id:PROC
; Function compile flags: /Odtp /RTCcsu /ZI
;	COMDAT ?soap_out_bool@@YAHPAUsoap@@PBDHPB_N1@Z
_TEXT	SEGMENT
_soap$ = 8						; size = 4
_tag$ = 12						; size = 4
_id$ = 16						; size = 4
_a$ = 20						; size = 4
_type$ = 24						; size = 4
?soap_out_bool@@YAHPAUsoap@@PBDHPB_N1@Z PROC		; soap_out_bool, COMDAT

; 922  : {	if (soap_element_begin_out(soap, tag, soap_embedded_id(soap, id, a, SOAP_TYPE_bool), type) || soap_send(soap, soap_bool2s(soap, *a)))

	push	ebp
	mov	ebp, esp
	sub	esp, 192				; 000000c0H
	push	ebx
	push	esi
	push	edi
	lea	edi, DWORD PTR [ebp-192]
	mov	ecx, 48					; 00000030H
	mov	eax, -858993460				; ccccccccH
	rep stosd
	mov	eax, DWORD PTR _type$[ebp]
	push	eax
	push	11					; 0000000bH
	mov	ecx, DWORD PTR _a$[ebp]
	push	ecx
	mov	edx, DWORD PTR _id$[ebp]
	push	edx
	mov	eax, DWORD PTR _soap$[ebp]
	push	eax
	call	_soap_embedded_id
	add	esp, 16					; 00000010H
	push	eax
	mov	ecx, DWORD PTR _tag$[ebp]
	push	ecx
	mov	edx, DWORD PTR _soap$[ebp]
	push	edx
	call	_soap_element_begin_out
	add	esp, 16					; 00000010H
	test	eax, eax
	jne	SHORT $LN1@soap_out_b
	mov	eax, DWORD PTR _a$[ebp]
	movzx	ecx, BYTE PTR [eax]
	push	ecx
	mov	edx, DWORD PTR _soap$[ebp]
	push	edx
	call	?soap_bool2s@@YAPBDPAUsoap@@_N@Z	; soap_bool2s
	add	esp, 8
	push	eax
	mov	eax, DWORD PTR _soap$[ebp]
	push	eax
	call	_soap_send
	add	esp, 8
	test	eax, eax
	je	SHORT $LN2@soap_out_b
$LN1@soap_out_b:

; 923  : 		return soap->error;

	mov	eax, DWORD PTR _soap$[ebp]
	mov	eax, DWORD PTR [eax+90460]
	jmp	SHORT $LN3@soap_out_b
$LN2@soap_out_b:

; 924  : 	return soap_element_end_out(soap, tag);

	mov	eax, DWORD PTR _tag$[ebp]
	push	eax
	mov	ecx, DWORD PTR _soap$[ebp]
	push	ecx
	call	_soap_element_end_out
	add	esp, 8
$LN3@soap_out_b:

; 925  : }

	pop	edi
	pop	esi
	pop	ebx
	add	esp, 192				; 000000c0H
	cmp	ebp, esp
	call	__RTC_CheckEsp
	mov	esp, ebp
	pop	ebp
	ret	0
?soap_out_bool@@YAHPAUsoap@@PBDHPB_N1@Z ENDP		; soap_out_bool
_TEXT	ENDS
PUBLIC	?soap_get_bool@@YAPA_NPAUsoap@@PA_NPBD2@Z	; soap_get_bool
; Function compile flags: /Odtp /RTCcsu /ZI
;	COMDAT ?soap_get_bool@@YAPA_NPAUsoap@@PA_NPBD2@Z
_TEXT	SEGMENT
_soap$ = 8						; size = 4
_p$ = 12						; size = 4
_tag$ = 16						; size = 4
_type$ = 20						; size = 4
?soap_get_bool@@YAPA_NPAUsoap@@PA_NPBD2@Z PROC		; soap_get_bool, COMDAT

; 928  : {

	push	ebp
	mov	ebp, esp
	sub	esp, 192				; 000000c0H
	push	ebx
	push	esi
	push	edi
	lea	edi, DWORD PTR [ebp-192]
	mov	ecx, 48					; 00000030H
	mov	eax, -858993460				; ccccccccH
	rep stosd

; 929  : 	if ((p = soap_in_bool(soap, tag, p, type)))

	mov	eax, DWORD PTR _type$[ebp]
	push	eax
	mov	ecx, DWORD PTR _p$[ebp]
	push	ecx
	mov	edx, DWORD PTR _tag$[ebp]
	push	edx
	mov	eax, DWORD PTR _soap$[ebp]
	push	eax
	call	?soap_in_bool@@YAPA_NPAUsoap@@PBDPA_N1@Z ; soap_in_bool
	add	esp, 16					; 00000010H
	mov	DWORD PTR _p$[ebp], eax
	cmp	DWORD PTR _p$[ebp], 0
	je	SHORT $LN2@soap_get_b@2

; 930  : 		if (soap_getindependent(soap))

	mov	eax, DWORD PTR _soap$[ebp]
	push	eax
	call	?soap_getindependent@@YAHPAUsoap@@@Z	; soap_getindependent
	add	esp, 4
	test	eax, eax
	je	SHORT $LN2@soap_get_b@2

; 931  : 			return NULL;

	xor	eax, eax
	jmp	SHORT $LN3@soap_get_b@2
$LN2@soap_get_b@2:

; 932  : 	return p;

	mov	eax, DWORD PTR _p$[ebp]
$LN3@soap_get_b@2:

; 933  : }

	pop	edi
	pop	esi
	pop	ebx
	add	esp, 192				; 000000c0H
	cmp	ebp, esp
	call	__RTC_CheckEsp
	mov	esp, ebp
	pop	ebp
	ret	0
?soap_get_bool@@YAPA_NPAUsoap@@PA_NPBD2@Z ENDP		; soap_get_bool
_TEXT	ENDS
PUBLIC	?soap_s2bool@@YAHPAUsoap@@PBDPA_N@Z		; soap_s2bool
EXTRN	_soap_s2long:PROC
EXTRN	_soap_code:PROC
; Function compile flags: /Odtp /RTCcsu /ZI
;	COMDAT ?soap_s2bool@@YAHPAUsoap@@PBDPA_N@Z
_TEXT	SEGMENT
_n$87597 = -20						; size = 4
_map$ = -8						; size = 4
_soap$ = 8						; size = 4
_s$ = 12						; size = 4
_a$ = 16						; size = 4
?soap_s2bool@@YAHPAUsoap@@PBDPA_N@Z PROC		; soap_s2bool, COMDAT

; 936  : {

	push	ebp
	mov	ebp, esp
	sub	esp, 216				; 000000d8H
	push	ebx
	push	esi
	push	edi
	lea	edi, DWORD PTR [ebp-216]
	mov	ecx, 54					; 00000036H
	mov	eax, -858993460				; ccccccccH
	rep stosd

; 937  : 	const struct soap_code_map *map;
; 938  : 	if (!s)

	cmp	DWORD PTR _s$[ebp], 0
	jne	SHORT $LN5@soap_s2boo

; 939  : 		return SOAP_OK;

	xor	eax, eax
	jmp	SHORT $LN6@soap_s2boo
$LN5@soap_s2boo:

; 940  : 	map = soap_code(soap_codes_bool, s);

	mov	eax, DWORD PTR _s$[ebp]
	push	eax
	push	OFFSET _soap_codes_bool
	call	_soap_code
	add	esp, 8
	mov	DWORD PTR _map$[ebp], eax

; 941  : 	if (map)

	cmp	DWORD PTR _map$[ebp], 0
	je	SHORT $LN4@soap_s2boo

; 942  : 		*a = (bool)(map->code != 0);

	mov	eax, DWORD PTR _map$[ebp]
	cmp	DWORD PTR [eax], 0
	setne	cl
	mov	edx, DWORD PTR _a$[ebp]
	mov	BYTE PTR [edx], cl

; 943  : 	else

	jmp	SHORT $LN3@soap_s2boo
$LN4@soap_s2boo:

; 944  : 	{	long n;
; 945  : 		if (soap_s2long(soap, s, &n) || n < 0 || n > 1)

	lea	eax, DWORD PTR _n$87597[ebp]
	push	eax
	mov	ecx, DWORD PTR _s$[ebp]
	push	ecx
	mov	edx, DWORD PTR _soap$[ebp]
	push	edx
	call	_soap_s2long
	add	esp, 12					; 0000000cH
	test	eax, eax
	jne	SHORT $LN1@soap_s2boo
	cmp	DWORD PTR _n$87597[ebp], 0
	jl	SHORT $LN1@soap_s2boo
	cmp	DWORD PTR _n$87597[ebp], 1
	jle	SHORT $LN2@soap_s2boo
$LN1@soap_s2boo:

; 946  : 			return soap->error = SOAP_TYPE;

	mov	eax, DWORD PTR _soap$[ebp]
	mov	DWORD PTR [eax+90460], 4
	mov	eax, 4
	jmp	SHORT $LN6@soap_s2boo
$LN2@soap_s2boo:

; 947  : 		*a = (bool)(n != 0);

	cmp	DWORD PTR _n$87597[ebp], 0
	setne	al
	mov	ecx, DWORD PTR _a$[ebp]
	mov	BYTE PTR [ecx], al
$LN3@soap_s2boo:

; 948  : 	}
; 949  : 	return SOAP_OK;

	xor	eax, eax
$LN6@soap_s2boo:

; 950  : }

	push	edx
	mov	ecx, ebp
	push	eax
	lea	edx, DWORD PTR $LN10@soap_s2boo
	call	@_RTC_CheckStackVars@8
	pop	eax
	pop	edx
	pop	edi
	pop	esi
	pop	ebx
	add	esp, 216				; 000000d8H
	cmp	ebp, esp
	call	__RTC_CheckEsp
	mov	esp, ebp
	pop	ebp
	ret	0
	npad	3
$LN10@soap_s2boo:
	DD	1
	DD	$LN9@soap_s2boo
$LN9@soap_s2boo:
	DD	-20					; ffffffecH
	DD	4
	DD	$LN8@soap_s2boo
$LN8@soap_s2boo:
	DB	110					; 0000006eH
	DB	0
?soap_s2bool@@YAHPAUsoap@@PBDPA_N@Z ENDP		; soap_s2bool
_TEXT	ENDS
PUBLIC	??_C@_08FGCKPNBL@?3boolean?$AA@			; `string'
EXTRN	_soap_value:PROC
EXTRN	_soap_element_begin_in:PROC
;	COMDAT ??_C@_08FGCKPNBL@?3boolean?$AA@
CONST	SEGMENT
??_C@_08FGCKPNBL@?3boolean?$AA@ DB ':boolean', 00H	; `string'
; Function compile flags: /Odtp /RTCcsu /ZI
CONST	ENDS
;	COMDAT ?soap_in_bool@@YAPA_NPAUsoap@@PBDPA_N1@Z
_TEXT	SEGMENT
_soap$ = 8						; size = 4
_tag$ = 12						; size = 4
_a$ = 16						; size = 4
_type$ = 20						; size = 4
?soap_in_bool@@YAPA_NPAUsoap@@PBDPA_N1@Z PROC		; soap_in_bool, COMDAT

; 953  : {

	push	ebp
	mov	ebp, esp
	sub	esp, 192				; 000000c0H
	push	ebx
	push	esi
	push	edi
	lea	edi, DWORD PTR [ebp-192]
	mov	ecx, 48					; 00000030H
	mov	eax, -858993460				; ccccccccH
	rep stosd

; 954  : 	if (soap_element_begin_in(soap, tag, 0, NULL))

	push	0
	push	0
	mov	eax, DWORD PTR _tag$[ebp]
	push	eax
	mov	ecx, DWORD PTR _soap$[ebp]
	push	ecx
	call	_soap_element_begin_in
	add	esp, 16					; 00000010H
	test	eax, eax
	je	SHORT $LN8@soap_in_bo

; 955  : 		return NULL;

	xor	eax, eax
	jmp	$LN9@soap_in_bo
$LN8@soap_in_bo:

; 956  : 	if (*soap->type && soap_match_tag(soap, soap->type, type) && soap_match_tag(soap, soap->type, ":boolean"))

	mov	eax, DWORD PTR _soap$[ebp]
	movsx	ecx, BYTE PTR [eax+83124]
	test	ecx, ecx
	je	SHORT $LN7@soap_in_bo
	mov	eax, DWORD PTR _type$[ebp]
	push	eax
	mov	ecx, DWORD PTR _soap$[ebp]
	add	ecx, 83124				; 000144b4H
	push	ecx
	mov	edx, DWORD PTR _soap$[ebp]
	push	edx
	call	_soap_match_tag
	add	esp, 12					; 0000000cH
	test	eax, eax
	je	SHORT $LN7@soap_in_bo
	push	OFFSET ??_C@_08FGCKPNBL@?3boolean?$AA@
	mov	eax, DWORD PTR _soap$[ebp]
	add	eax, 83124				; 000144b4H
	push	eax
	mov	ecx, DWORD PTR _soap$[ebp]
	push	ecx
	call	_soap_match_tag
	add	esp, 12					; 0000000cH
	test	eax, eax
	je	SHORT $LN7@soap_in_bo

; 957  : 	{	soap->error = SOAP_TYPE;

	mov	eax, DWORD PTR _soap$[ebp]
	mov	DWORD PTR [eax+90460], 4

; 958  : 		return NULL;

	xor	eax, eax
	jmp	$LN9@soap_in_bo
$LN7@soap_in_bo:

; 959  : 	}
; 960  : 	a = (bool *)soap_id_enter(soap, soap->id, a, SOAP_TYPE_bool, sizeof(bool), 0, NULL, NULL, NULL);

	push	0
	push	0
	push	0
	push	0
	push	1
	push	11					; 0000000bH
	mov	eax, DWORD PTR _a$[ebp]
	push	eax
	mov	ecx, DWORD PTR _soap$[ebp]
	add	ecx, 81076				; 00013cb4H
	push	ecx
	mov	edx, DWORD PTR _soap$[ebp]
	push	edx
	call	_soap_id_enter
	add	esp, 36					; 00000024H
	mov	DWORD PTR _a$[ebp], eax

; 961  : 	if (!a)

	cmp	DWORD PTR _a$[ebp], 0
	jne	SHORT $LN6@soap_in_bo

; 962  : 		return NULL;

	xor	eax, eax
	jmp	$LN9@soap_in_bo
$LN6@soap_in_bo:

; 963  : 	if (soap->body && !*soap->href)

	mov	eax, DWORD PTR _soap$[ebp]
	movsx	ecx, WORD PTR [eax+12442]
	test	ecx, ecx
	je	SHORT $LN5@soap_in_bo
	mov	eax, DWORD PTR _soap$[ebp]
	movsx	ecx, BYTE PTR [eax+82100]
	test	ecx, ecx
	jne	SHORT $LN5@soap_in_bo

; 964  : 	{	if (!a || soap_s2bool(soap, soap_value(soap), a) || soap_element_end_in(soap, tag))

	cmp	DWORD PTR _a$[ebp], 0
	je	SHORT $LN3@soap_in_bo
	mov	eax, DWORD PTR _a$[ebp]
	push	eax
	mov	ecx, DWORD PTR _soap$[ebp]
	push	ecx
	call	_soap_value
	add	esp, 4
	push	eax
	mov	edx, DWORD PTR _soap$[ebp]
	push	edx
	call	?soap_s2bool@@YAHPAUsoap@@PBDPA_N@Z	; soap_s2bool
	add	esp, 12					; 0000000cH
	test	eax, eax
	jne	SHORT $LN3@soap_in_bo
	mov	eax, DWORD PTR _tag$[ebp]
	push	eax
	mov	ecx, DWORD PTR _soap$[ebp]
	push	ecx
	call	_soap_element_end_in
	add	esp, 8
	test	eax, eax
	je	SHORT $LN4@soap_in_bo
$LN3@soap_in_bo:

; 965  : 			return NULL;

	xor	eax, eax
	jmp	SHORT $LN9@soap_in_bo
$LN4@soap_in_bo:

; 966  : 	}
; 967  : 	else

	jmp	SHORT $LN2@soap_in_bo
$LN5@soap_in_bo:

; 968  : 	{	a = (bool *)soap_id_forward(soap, soap->href, (void*)a, 0, SOAP_TYPE_bool, 0, sizeof(bool), 0, NULL);

	push	0
	push	0
	push	1
	push	0
	push	11					; 0000000bH
	push	0
	mov	eax, DWORD PTR _a$[ebp]
	push	eax
	mov	ecx, DWORD PTR _soap$[ebp]
	add	ecx, 82100				; 000140b4H
	push	ecx
	mov	edx, DWORD PTR _soap$[ebp]
	push	edx
	call	_soap_id_forward
	add	esp, 36					; 00000024H
	mov	DWORD PTR _a$[ebp], eax

; 969  : 		if (soap->body && soap_element_end_in(soap, tag))

	mov	eax, DWORD PTR _soap$[ebp]
	movsx	ecx, WORD PTR [eax+12442]
	test	ecx, ecx
	je	SHORT $LN2@soap_in_bo
	mov	eax, DWORD PTR _tag$[ebp]
	push	eax
	mov	ecx, DWORD PTR _soap$[ebp]
	push	ecx
	call	_soap_element_end_in
	add	esp, 8
	test	eax, eax
	je	SHORT $LN2@soap_in_bo

; 970  : 			return NULL;

	xor	eax, eax
	jmp	SHORT $LN9@soap_in_bo
$LN2@soap_in_bo:

; 971  : 	}
; 972  : 	return a;

	mov	eax, DWORD PTR _a$[ebp]
$LN9@soap_in_bo:

; 973  : }

	pop	edi
	pop	esi
	pop	ebx
	add	esp, 192				; 000000c0H
	cmp	ebp, esp
	call	__RTC_CheckEsp
	mov	esp, ebp
	pop	ebp
	ret	0
?soap_in_bool@@YAPA_NPAUsoap@@PBDPA_N1@Z ENDP		; soap_in_bool
_TEXT	ENDS
PUBLIC	?soap_default@_ns2__submitEpochResultResponseElement@@UAEXPAUsoap@@@Z ; _ns2__submitEpochResultResponseElement::soap_default
; Function compile flags: /Odtp /RTCcsu /ZI
;	COMDAT ?soap_default@_ns2__submitEpochResultResponseElement@@UAEXPAUsoap@@@Z
_TEXT	SEGMENT
_this$ = -8						; size = 4
_soap$ = 8						; size = 4
?soap_default@_ns2__submitEpochResultResponseElement@@UAEXPAUsoap@@@Z PROC ; _ns2__submitEpochResultResponseElement::soap_default, COMDAT
; _this$ = ecx

; 976  : {

	push	ebp
	mov	ebp, esp
	sub	esp, 204				; 000000ccH
	push	ebx
	push	esi
	push	edi
	push	ecx
	lea	edi, DWORD PTR [ebp-204]
	mov	ecx, 51					; 00000033H
	mov	eax, -858993460				; ccccccccH
	rep stosd
	pop	ecx
	mov	DWORD PTR _this$[ebp], ecx

; 977  : 	this->soap = soap;

	mov	eax, DWORD PTR _this$[ebp]
	mov	ecx, DWORD PTR _soap$[ebp]
	mov	DWORD PTR [eax+8], ecx

; 978  : 	soap_default_bool(soap, &this->_ns2__submitEpochResultResponseElement::result);

	mov	eax, DWORD PTR _this$[ebp]
	add	eax, 4
	push	eax
	mov	ecx, DWORD PTR _soap$[ebp]
	push	ecx
	call	?soap_default_bool@@YAXPAUsoap@@PA_N@Z	; soap_default_bool
	add	esp, 8

; 979  : 	/* transient soap skipped */
; 980  : }

	pop	edi
	pop	esi
	pop	ebx
	add	esp, 204				; 000000ccH
	cmp	ebp, esp
	call	__RTC_CheckEsp
	mov	esp, ebp
	pop	ebp
	ret	4
?soap_default@_ns2__submitEpochResultResponseElement@@UAEXPAUsoap@@@Z ENDP ; _ns2__submitEpochResultResponseElement::soap_default
_TEXT	ENDS
PUBLIC	?soap_serialize@_ns2__submitEpochResultResponseElement@@UBEXPAUsoap@@@Z ; _ns2__submitEpochResultResponseElement::soap_serialize
; Function compile flags: /Odtp /RTCcsu /ZI
;	COMDAT ?soap_serialize@_ns2__submitEpochResultResponseElement@@UBEXPAUsoap@@@Z
_TEXT	SEGMENT
_this$ = -8						; size = 4
_soap$ = 8						; size = 4
?soap_serialize@_ns2__submitEpochResultResponseElement@@UBEXPAUsoap@@@Z PROC ; _ns2__submitEpochResultResponseElement::soap_serialize, COMDAT
; _this$ = ecx

; 983  : {

	push	ebp
	mov	ebp, esp
	sub	esp, 204				; 000000ccH
	push	ebx
	push	esi
	push	edi
	push	ecx
	lea	edi, DWORD PTR [ebp-204]
	mov	ecx, 51					; 00000033H
	mov	eax, -858993460				; ccccccccH
	rep stosd
	pop	ecx
	mov	DWORD PTR _this$[ebp], ecx

; 984  : 	(void)soap; /* appease -Wall -Werror */
; 985  : 	/* transient soap skipped */
; 986  : }

	pop	edi
	pop	esi
	pop	ebx
	mov	esp, ebp
	pop	ebp
	ret	4
?soap_serialize@_ns2__submitEpochResultResponseElement@@UBEXPAUsoap@@@Z ENDP ; _ns2__submitEpochResultResponseElement::soap_serialize
_TEXT	ENDS
PUBLIC	?soap_put@_ns2__submitEpochResultResponseElement@@UBEHPAUsoap@@PBD1@Z ; _ns2__submitEpochResultResponseElement::soap_put
; Function compile flags: /Odtp /RTCcsu /ZI
;	COMDAT ?soap_put@_ns2__submitEpochResultResponseElement@@UBEHPAUsoap@@PBD1@Z
_TEXT	SEGMENT
_id$ = -20						; size = 4
_this$ = -8						; size = 4
_soap$ = 8						; size = 4
_tag$ = 12						; size = 4
_type$ = 16						; size = 4
?soap_put@_ns2__submitEpochResultResponseElement@@UBEHPAUsoap@@PBD1@Z PROC ; _ns2__submitEpochResultResponseElement::soap_put, COMDAT
; _this$ = ecx

; 989  : {

	push	ebp
	mov	ebp, esp
	sub	esp, 216				; 000000d8H
	push	ebx
	push	esi
	push	edi
	push	ecx
	lea	edi, DWORD PTR [ebp-216]
	mov	ecx, 54					; 00000036H
	mov	eax, -858993460				; ccccccccH
	rep stosd
	pop	ecx
	mov	DWORD PTR _this$[ebp], ecx

; 990  : 	register int id = soap_embed(soap, (void*)this, NULL, 0, tag, SOAP_TYPE__ns2__submitEpochResultResponseElement);

	push	24					; 00000018H
	mov	eax, DWORD PTR _tag$[ebp]
	push	eax
	push	0
	push	0
	mov	ecx, DWORD PTR _this$[ebp]
	push	ecx
	mov	edx, DWORD PTR _soap$[ebp]
	push	edx
	call	_soap_embed
	add	esp, 24					; 00000018H
	mov	DWORD PTR _id$[ebp], eax

; 991  : 	if (this->soap_out(soap, tag, id, type))

	mov	esi, esp
	mov	eax, DWORD PTR _type$[ebp]
	push	eax
	mov	ecx, DWORD PTR _id$[ebp]
	push	ecx
	mov	edx, DWORD PTR _tag$[ebp]
	push	edx
	mov	eax, DWORD PTR _soap$[ebp]
	push	eax
	mov	ecx, DWORD PTR _this$[ebp]
	mov	edx, DWORD PTR [ecx]
	mov	ecx, DWORD PTR _this$[ebp]
	mov	eax, DWORD PTR [edx+16]
	call	eax
	cmp	esi, esp
	call	__RTC_CheckEsp
	test	eax, eax
	je	SHORT $LN1@soap_put

; 992  : 		return soap->error;

	mov	eax, DWORD PTR _soap$[ebp]
	mov	eax, DWORD PTR [eax+90460]
	jmp	SHORT $LN2@soap_put
$LN1@soap_put:

; 993  : 	return soap_putindependent(soap);

	mov	eax, DWORD PTR _soap$[ebp]
	push	eax
	call	?soap_putindependent@@YAHPAUsoap@@@Z	; soap_putindependent
	add	esp, 4
$LN2@soap_put:

; 994  : }

	pop	edi
	pop	esi
	pop	ebx
	add	esp, 216				; 000000d8H
	cmp	ebp, esp
	call	__RTC_CheckEsp
	mov	esp, ebp
	pop	ebp
	ret	12					; 0000000cH
?soap_put@_ns2__submitEpochResultResponseElement@@UBEHPAUsoap@@PBD1@Z ENDP ; _ns2__submitEpochResultResponseElement::soap_put
_TEXT	ENDS
PUBLIC	?soap_out__ns2__submitEpochResultResponseElement@@YAHPAUsoap@@PBDHPBV_ns2__submitEpochResultResponseElement@@1@Z ; soap_out__ns2__submitEpochResultResponseElement
PUBLIC	?soap_out@_ns2__submitEpochResultResponseElement@@UBEHPAUsoap@@PBDH1@Z ; _ns2__submitEpochResultResponseElement::soap_out
; Function compile flags: /Odtp /RTCcsu /ZI
;	COMDAT ?soap_out@_ns2__submitEpochResultResponseElement@@UBEHPAUsoap@@PBDH1@Z
_TEXT	SEGMENT
_this$ = -8						; size = 4
_soap$ = 8						; size = 4
_tag$ = 12						; size = 4
_id$ = 16						; size = 4
_type$ = 20						; size = 4
?soap_out@_ns2__submitEpochResultResponseElement@@UBEHPAUsoap@@PBDH1@Z PROC ; _ns2__submitEpochResultResponseElement::soap_out, COMDAT
; _this$ = ecx

; 997  : {

	push	ebp
	mov	ebp, esp
	sub	esp, 204				; 000000ccH
	push	ebx
	push	esi
	push	edi
	push	ecx
	lea	edi, DWORD PTR [ebp-204]
	mov	ecx, 51					; 00000033H
	mov	eax, -858993460				; ccccccccH
	rep stosd
	pop	ecx
	mov	DWORD PTR _this$[ebp], ecx

; 998  : 	return soap_out__ns2__submitEpochResultResponseElement(soap, tag, id, this, type);

	mov	eax, DWORD PTR _type$[ebp]
	push	eax
	mov	ecx, DWORD PTR _this$[ebp]
	push	ecx
	mov	edx, DWORD PTR _id$[ebp]
	push	edx
	mov	eax, DWORD PTR _tag$[ebp]
	push	eax
	mov	ecx, DWORD PTR _soap$[ebp]
	push	ecx
	call	?soap_out__ns2__submitEpochResultResponseElement@@YAHPAUsoap@@PBDHPBV_ns2__submitEpochResultResponseElement@@1@Z ; soap_out__ns2__submitEpochResultResponseElement
	add	esp, 20					; 00000014H

; 999  : }

	pop	edi
	pop	esi
	pop	ebx
	add	esp, 204				; 000000ccH
	cmp	ebp, esp
	call	__RTC_CheckEsp
	mov	esp, ebp
	pop	ebp
	ret	16					; 00000010H
?soap_out@_ns2__submitEpochResultResponseElement@@UBEHPAUsoap@@PBDH1@Z ENDP ; _ns2__submitEpochResultResponseElement::soap_out
_TEXT	ENDS
PUBLIC	??_C@_00CNPNBAHC@?$AA@				; `string'
PUBLIC	??_C@_0L@FEKNHBLL@ns2?3result?$AA@		; `string'
EXTRN	_soap_element_result:PROC
;	COMDAT ??_C@_00CNPNBAHC@?$AA@
CONST	SEGMENT
??_C@_00CNPNBAHC@?$AA@ DB 00H				; `string'
CONST	ENDS
;	COMDAT ??_C@_0L@FEKNHBLL@ns2?3result?$AA@
CONST	SEGMENT
??_C@_0L@FEKNHBLL@ns2?3result?$AA@ DB 'ns2:result', 00H	; `string'
; Function compile flags: /Odtp /RTCcsu /ZI
CONST	ENDS
;	COMDAT ?soap_out__ns2__submitEpochResultResponseElement@@YAHPAUsoap@@PBDHPBV_ns2__submitEpochResultResponseElement@@1@Z
_TEXT	SEGMENT
_soap$ = 8						; size = 4
_tag$ = 12						; size = 4
_id$ = 16						; size = 4
_a$ = 20						; size = 4
_type$ = 24						; size = 4
?soap_out__ns2__submitEpochResultResponseElement@@YAHPAUsoap@@PBDHPBV_ns2__submitEpochResultResponseElement@@1@Z PROC ; soap_out__ns2__submitEpochResultResponseElement, COMDAT

; 1002 : {

	push	ebp
	mov	ebp, esp
	sub	esp, 192				; 000000c0H
	push	ebx
	push	esi
	push	edi
	lea	edi, DWORD PTR [ebp-192]
	mov	ecx, 48					; 00000030H
	mov	eax, -858993460				; ccccccccH
	rep stosd

; 1003 : 	if (soap_element_begin_out(soap, tag, soap_embedded_id(soap, id, a, SOAP_TYPE__ns2__submitEpochResultResponseElement), type))

	mov	eax, DWORD PTR _type$[ebp]
	push	eax
	push	24					; 00000018H
	mov	ecx, DWORD PTR _a$[ebp]
	push	ecx
	mov	edx, DWORD PTR _id$[ebp]
	push	edx
	mov	eax, DWORD PTR _soap$[ebp]
	push	eax
	call	_soap_embedded_id
	add	esp, 16					; 00000010H
	push	eax
	mov	ecx, DWORD PTR _tag$[ebp]
	push	ecx
	mov	edx, DWORD PTR _soap$[ebp]
	push	edx
	call	_soap_element_begin_out
	add	esp, 16					; 00000010H
	test	eax, eax
	je	SHORT $LN2@soap_out__

; 1004 : 		return soap->error;

	mov	eax, DWORD PTR _soap$[ebp]
	mov	eax, DWORD PTR [eax+90460]
	jmp	SHORT $LN3@soap_out__
$LN2@soap_out__:

; 1005 : 	soap_element_result(soap, "ns2:result");

	push	OFFSET ??_C@_0L@FEKNHBLL@ns2?3result?$AA@
	mov	eax, DWORD PTR _soap$[ebp]
	push	eax
	call	_soap_element_result
	add	esp, 8

