; Listing generated by Microsoft (R) Optimizing Compiler Version 15.00.30729.01 

	TITLE	c:\Users\CriuS\Documents\Visual Studio 2008\Projects\DRAMsimIIhg\src\reporting\soapClient.cpp
	.686P
	.XMM
	include listing.inc
	.model	flat

INCLUDELIB MSVCRTD
INCLUDELIB OLDNAMES

PUBLIC	??_C@_0P@GHFPNOJB@bad?5allocation?$AA@		; `string'
PUBLIC	?_Value@?$_Is_swap_move@U_Swap_move_tag@std@@@std@@2_NB ; std::_Is_swap_move<std::_Swap_move_tag>::_Value
PUBLIC	?collate@?$_Locbase@H@std@@2HB			; std::_Locbase<int>::collate
PUBLIC	?ctype@?$_Locbase@H@std@@2HB			; std::_Locbase<int>::ctype
PUBLIC	?monetary@?$_Locbase@H@std@@2HB			; std::_Locbase<int>::monetary
PUBLIC	?numeric@?$_Locbase@H@std@@2HB			; std::_Locbase<int>::numeric
PUBLIC	?time@?$_Locbase@H@std@@2HB			; std::_Locbase<int>::time
PUBLIC	?messages@?$_Locbase@H@std@@2HB			; std::_Locbase<int>::messages
PUBLIC	?all@?$_Locbase@H@std@@2HB			; std::_Locbase<int>::all
PUBLIC	?none@?$_Locbase@H@std@@2HB			; std::_Locbase<int>::none
PUBLIC	?skipws@?$_Iosb@H@std@@2W4_Fmtflags@12@B	; std::_Iosb<int>::skipws
PUBLIC	?unitbuf@?$_Iosb@H@std@@2W4_Fmtflags@12@B	; std::_Iosb<int>::unitbuf
PUBLIC	?uppercase@?$_Iosb@H@std@@2W4_Fmtflags@12@B	; std::_Iosb<int>::uppercase
PUBLIC	?showbase@?$_Iosb@H@std@@2W4_Fmtflags@12@B	; std::_Iosb<int>::showbase
PUBLIC	?showpoint@?$_Iosb@H@std@@2W4_Fmtflags@12@B	; std::_Iosb<int>::showpoint
PUBLIC	?showpos@?$_Iosb@H@std@@2W4_Fmtflags@12@B	; std::_Iosb<int>::showpos
PUBLIC	?left@?$_Iosb@H@std@@2W4_Fmtflags@12@B		; std::_Iosb<int>::left
PUBLIC	?right@?$_Iosb@H@std@@2W4_Fmtflags@12@B		; std::_Iosb<int>::right
PUBLIC	?internal@?$_Iosb@H@std@@2W4_Fmtflags@12@B	; std::_Iosb<int>::internal
PUBLIC	?dec@?$_Iosb@H@std@@2W4_Fmtflags@12@B		; std::_Iosb<int>::dec
PUBLIC	?oct@?$_Iosb@H@std@@2W4_Fmtflags@12@B		; std::_Iosb<int>::oct
PUBLIC	?hex@?$_Iosb@H@std@@2W4_Fmtflags@12@B		; std::_Iosb<int>::hex
PUBLIC	?scientific@?$_Iosb@H@std@@2W4_Fmtflags@12@B	; std::_Iosb<int>::scientific
PUBLIC	?fixed@?$_Iosb@H@std@@2W4_Fmtflags@12@B		; std::_Iosb<int>::fixed
PUBLIC	?hexfloat@?$_Iosb@H@std@@2W4_Fmtflags@12@B	; std::_Iosb<int>::hexfloat
PUBLIC	?boolalpha@?$_Iosb@H@std@@2W4_Fmtflags@12@B	; std::_Iosb<int>::boolalpha
PUBLIC	?_Stdio@?$_Iosb@H@std@@2W4_Fmtflags@12@B	; std::_Iosb<int>::_Stdio
PUBLIC	?adjustfield@?$_Iosb@H@std@@2W4_Fmtflags@12@B	; std::_Iosb<int>::adjustfield
PUBLIC	?basefield@?$_Iosb@H@std@@2W4_Fmtflags@12@B	; std::_Iosb<int>::basefield
PUBLIC	?floatfield@?$_Iosb@H@std@@2W4_Fmtflags@12@B	; std::_Iosb<int>::floatfield
PUBLIC	?goodbit@?$_Iosb@H@std@@2W4_Iostate@12@B	; std::_Iosb<int>::goodbit
PUBLIC	?eofbit@?$_Iosb@H@std@@2W4_Iostate@12@B		; std::_Iosb<int>::eofbit
PUBLIC	?failbit@?$_Iosb@H@std@@2W4_Iostate@12@B	; std::_Iosb<int>::failbit
PUBLIC	?badbit@?$_Iosb@H@std@@2W4_Iostate@12@B		; std::_Iosb<int>::badbit
PUBLIC	?_Hardfail@?$_Iosb@H@std@@2W4_Iostate@12@B	; std::_Iosb<int>::_Hardfail
PUBLIC	?in@?$_Iosb@H@std@@2W4_Openmode@12@B		; std::_Iosb<int>::in
PUBLIC	?out@?$_Iosb@H@std@@2W4_Openmode@12@B		; std::_Iosb<int>::out
PUBLIC	?ate@?$_Iosb@H@std@@2W4_Openmode@12@B		; std::_Iosb<int>::ate
PUBLIC	?app@?$_Iosb@H@std@@2W4_Openmode@12@B		; std::_Iosb<int>::app
PUBLIC	?trunc@?$_Iosb@H@std@@2W4_Openmode@12@B		; std::_Iosb<int>::trunc
PUBLIC	?_Nocreate@?$_Iosb@H@std@@2W4_Openmode@12@B	; std::_Iosb<int>::_Nocreate
PUBLIC	?_Noreplace@?$_Iosb@H@std@@2W4_Openmode@12@B	; std::_Iosb<int>::_Noreplace
PUBLIC	?binary@?$_Iosb@H@std@@2W4_Openmode@12@B	; std::_Iosb<int>::binary
PUBLIC	?beg@?$_Iosb@H@std@@2W4_Seekdir@12@B		; std::_Iosb<int>::beg
PUBLIC	?cur@?$_Iosb@H@std@@2W4_Seekdir@12@B		; std::_Iosb<int>::cur
PUBLIC	?end@?$_Iosb@H@std@@2W4_Seekdir@12@B		; std::_Iosb<int>::end
;	COMDAT ?end@?$_Iosb@H@std@@2W4_Seekdir@12@B
CONST	SEGMENT
?end@?$_Iosb@H@std@@2W4_Seekdir@12@B DD 02H		; std::_Iosb<int>::end
CONST	ENDS
;	COMDAT ?cur@?$_Iosb@H@std@@2W4_Seekdir@12@B
CONST	SEGMENT
?cur@?$_Iosb@H@std@@2W4_Seekdir@12@B DD 01H		; std::_Iosb<int>::cur
CONST	ENDS
;	COMDAT ?beg@?$_Iosb@H@std@@2W4_Seekdir@12@B
CONST	SEGMENT
?beg@?$_Iosb@H@std@@2W4_Seekdir@12@B DD 00H		; std::_Iosb<int>::beg
CONST	ENDS
;	COMDAT ?binary@?$_Iosb@H@std@@2W4_Openmode@12@B
CONST	SEGMENT
?binary@?$_Iosb@H@std@@2W4_Openmode@12@B DD 020H	; std::_Iosb<int>::binary
CONST	ENDS
;	COMDAT ?_Noreplace@?$_Iosb@H@std@@2W4_Openmode@12@B
CONST	SEGMENT
?_Noreplace@?$_Iosb@H@std@@2W4_Openmode@12@B DD 080H	; std::_Iosb<int>::_Noreplace
CONST	ENDS
;	COMDAT ?_Nocreate@?$_Iosb@H@std@@2W4_Openmode@12@B
CONST	SEGMENT
?_Nocreate@?$_Iosb@H@std@@2W4_Openmode@12@B DD 040H	; std::_Iosb<int>::_Nocreate
CONST	ENDS
;	COMDAT ?trunc@?$_Iosb@H@std@@2W4_Openmode@12@B
CONST	SEGMENT
?trunc@?$_Iosb@H@std@@2W4_Openmode@12@B DD 010H		; std::_Iosb<int>::trunc
CONST	ENDS
;	COMDAT ?app@?$_Iosb@H@std@@2W4_Openmode@12@B
CONST	SEGMENT
?app@?$_Iosb@H@std@@2W4_Openmode@12@B DD 08H		; std::_Iosb<int>::app
CONST	ENDS
;	COMDAT ?ate@?$_Iosb@H@std@@2W4_Openmode@12@B
CONST	SEGMENT
?ate@?$_Iosb@H@std@@2W4_Openmode@12@B DD 04H		; std::_Iosb<int>::ate
CONST	ENDS
;	COMDAT ?out@?$_Iosb@H@std@@2W4_Openmode@12@B
CONST	SEGMENT
?out@?$_Iosb@H@std@@2W4_Openmode@12@B DD 02H		; std::_Iosb<int>::out
CONST	ENDS
;	COMDAT ?in@?$_Iosb@H@std@@2W4_Openmode@12@B
CONST	SEGMENT
?in@?$_Iosb@H@std@@2W4_Openmode@12@B DD 01H		; std::_Iosb<int>::in
CONST	ENDS
;	COMDAT ?_Hardfail@?$_Iosb@H@std@@2W4_Iostate@12@B
CONST	SEGMENT
?_Hardfail@?$_Iosb@H@std@@2W4_Iostate@12@B DD 010H	; std::_Iosb<int>::_Hardfail
CONST	ENDS
;	COMDAT ?badbit@?$_Iosb@H@std@@2W4_Iostate@12@B
CONST	SEGMENT
?badbit@?$_Iosb@H@std@@2W4_Iostate@12@B DD 04H		; std::_Iosb<int>::badbit
CONST	ENDS
;	COMDAT ?failbit@?$_Iosb@H@std@@2W4_Iostate@12@B
CONST	SEGMENT
?failbit@?$_Iosb@H@std@@2W4_Iostate@12@B DD 02H		; std::_Iosb<int>::failbit
CONST	ENDS
;	COMDAT ?eofbit@?$_Iosb@H@std@@2W4_Iostate@12@B
CONST	SEGMENT
?eofbit@?$_Iosb@H@std@@2W4_Iostate@12@B DD 01H		; std::_Iosb<int>::eofbit
CONST	ENDS
;	COMDAT ?goodbit@?$_Iosb@H@std@@2W4_Iostate@12@B
CONST	SEGMENT
?goodbit@?$_Iosb@H@std@@2W4_Iostate@12@B DD 00H		; std::_Iosb<int>::goodbit
CONST	ENDS
;	COMDAT ?floatfield@?$_Iosb@H@std@@2W4_Fmtflags@12@B
CONST	SEGMENT
?floatfield@?$_Iosb@H@std@@2W4_Fmtflags@12@B DD 03000H	; std::_Iosb<int>::floatfield
CONST	ENDS
;	COMDAT ?basefield@?$_Iosb@H@std@@2W4_Fmtflags@12@B
CONST	SEGMENT
?basefield@?$_Iosb@H@std@@2W4_Fmtflags@12@B DD 0e00H	; std::_Iosb<int>::basefield
CONST	ENDS
;	COMDAT ?adjustfield@?$_Iosb@H@std@@2W4_Fmtflags@12@B
CONST	SEGMENT
?adjustfield@?$_Iosb@H@std@@2W4_Fmtflags@12@B DD 01c0H	; std::_Iosb<int>::adjustfield
CONST	ENDS
;	COMDAT ?_Stdio@?$_Iosb@H@std@@2W4_Fmtflags@12@B
CONST	SEGMENT
?_Stdio@?$_Iosb@H@std@@2W4_Fmtflags@12@B DD 08000H	; std::_Iosb<int>::_Stdio
CONST	ENDS
;	COMDAT ?boolalpha@?$_Iosb@H@std@@2W4_Fmtflags@12@B
CONST	SEGMENT
?boolalpha@?$_Iosb@H@std@@2W4_Fmtflags@12@B DD 04000H	; std::_Iosb<int>::boolalpha
CONST	ENDS
;	COMDAT ?hexfloat@?$_Iosb@H@std@@2W4_Fmtflags@12@B
CONST	SEGMENT
?hexfloat@?$_Iosb@H@std@@2W4_Fmtflags@12@B DD 03000H	; std::_Iosb<int>::hexfloat
CONST	ENDS
;	COMDAT ?fixed@?$_Iosb@H@std@@2W4_Fmtflags@12@B
CONST	SEGMENT
?fixed@?$_Iosb@H@std@@2W4_Fmtflags@12@B DD 02000H	; std::_Iosb<int>::fixed
CONST	ENDS
;	COMDAT ?scientific@?$_Iosb@H@std@@2W4_Fmtflags@12@B
CONST	SEGMENT
?scientific@?$_Iosb@H@std@@2W4_Fmtflags@12@B DD 01000H	; std::_Iosb<int>::scientific
CONST	ENDS
;	COMDAT ?hex@?$_Iosb@H@std@@2W4_Fmtflags@12@B
CONST	SEGMENT
?hex@?$_Iosb@H@std@@2W4_Fmtflags@12@B DD 0800H		; std::_Iosb<int>::hex
CONST	ENDS
;	COMDAT ?oct@?$_Iosb@H@std@@2W4_Fmtflags@12@B
CONST	SEGMENT
?oct@?$_Iosb@H@std@@2W4_Fmtflags@12@B DD 0400H		; std::_Iosb<int>::oct
CONST	ENDS
;	COMDAT ?dec@?$_Iosb@H@std@@2W4_Fmtflags@12@B
CONST	SEGMENT
?dec@?$_Iosb@H@std@@2W4_Fmtflags@12@B DD 0200H		; std::_Iosb<int>::dec
CONST	ENDS
;	COMDAT ?internal@?$_Iosb@H@std@@2W4_Fmtflags@12@B
CONST	SEGMENT
?internal@?$_Iosb@H@std@@2W4_Fmtflags@12@B DD 0100H	; std::_Iosb<int>::internal
CONST	ENDS
;	COMDAT ?right@?$_Iosb@H@std@@2W4_Fmtflags@12@B
CONST	SEGMENT
?right@?$_Iosb@H@std@@2W4_Fmtflags@12@B DD 080H		; std::_Iosb<int>::right
CONST	ENDS
;	COMDAT ?left@?$_Iosb@H@std@@2W4_Fmtflags@12@B
CONST	SEGMENT
?left@?$_Iosb@H@std@@2W4_Fmtflags@12@B DD 040H		; std::_Iosb<int>::left
CONST	ENDS
;	COMDAT ?showpos@?$_Iosb@H@std@@2W4_Fmtflags@12@B
CONST	SEGMENT
?showpos@?$_Iosb@H@std@@2W4_Fmtflags@12@B DD 020H	; std::_Iosb<int>::showpos
CONST	ENDS
;	COMDAT ?showpoint@?$_Iosb@H@std@@2W4_Fmtflags@12@B
CONST	SEGMENT
?showpoint@?$_Iosb@H@std@@2W4_Fmtflags@12@B DD 010H	; std::_Iosb<int>::showpoint
CONST	ENDS
;	COMDAT ?showbase@?$_Iosb@H@std@@2W4_Fmtflags@12@B
CONST	SEGMENT
?showbase@?$_Iosb@H@std@@2W4_Fmtflags@12@B DD 08H	; std::_Iosb<int>::showbase
CONST	ENDS
;	COMDAT ?uppercase@?$_Iosb@H@std@@2W4_Fmtflags@12@B
CONST	SEGMENT
?uppercase@?$_Iosb@H@std@@2W4_Fmtflags@12@B DD 04H	; std::_Iosb<int>::uppercase
CONST	ENDS
;	COMDAT ?unitbuf@?$_Iosb@H@std@@2W4_Fmtflags@12@B
CONST	SEGMENT
?unitbuf@?$_Iosb@H@std@@2W4_Fmtflags@12@B DD 02H	; std::_Iosb<int>::unitbuf
CONST	ENDS
;	COMDAT ?skipws@?$_Iosb@H@std@@2W4_Fmtflags@12@B
CONST	SEGMENT
?skipws@?$_Iosb@H@std@@2W4_Fmtflags@12@B DD 01H		; std::_Iosb<int>::skipws
CONST	ENDS
;	COMDAT ?none@?$_Locbase@H@std@@2HB
CONST	SEGMENT
?none@?$_Locbase@H@std@@2HB DD 00H			; std::_Locbase<int>::none
CONST	ENDS
;	COMDAT ?all@?$_Locbase@H@std@@2HB
CONST	SEGMENT
?all@?$_Locbase@H@std@@2HB DD 03fH			; std::_Locbase<int>::all
CONST	ENDS
;	COMDAT ?messages@?$_Locbase@H@std@@2HB
CONST	SEGMENT
?messages@?$_Locbase@H@std@@2HB DD 020H			; std::_Locbase<int>::messages
CONST	ENDS
;	COMDAT ?time@?$_Locbase@H@std@@2HB
CONST	SEGMENT
?time@?$_Locbase@H@std@@2HB DD 010H			; std::_Locbase<int>::time
CONST	ENDS
;	COMDAT ?numeric@?$_Locbase@H@std@@2HB
CONST	SEGMENT
?numeric@?$_Locbase@H@std@@2HB DD 08H			; std::_Locbase<int>::numeric
CONST	ENDS
;	COMDAT ?monetary@?$_Locbase@H@std@@2HB
CONST	SEGMENT
?monetary@?$_Locbase@H@std@@2HB DD 04H			; std::_Locbase<int>::monetary
CONST	ENDS
;	COMDAT ?ctype@?$_Locbase@H@std@@2HB
CONST	SEGMENT
?ctype@?$_Locbase@H@std@@2HB DD 02H			; std::_Locbase<int>::ctype
CONST	ENDS
;	COMDAT ?collate@?$_Locbase@H@std@@2HB
CONST	SEGMENT
?collate@?$_Locbase@H@std@@2HB DD 01H			; std::_Locbase<int>::collate
CONST	ENDS
_DATA	SEGMENT
__bad_alloc_Message DD FLAT:??_C@_0P@GHFPNOJB@bad?5allocation?$AA@
_DATA	ENDS
;	COMDAT ??_C@_0P@GHFPNOJB@bad?5allocation?$AA@
CONST	SEGMENT
??_C@_0P@GHFPNOJB@bad?5allocation?$AA@ DB 'bad allocation', 00H ; `string'
CONST	ENDS
;	COMDAT ?_Value@?$_Is_swap_move@U_Swap_move_tag@std@@@std@@2_NB
CONST	SEGMENT
?_Value@?$_Is_swap_move@U_Swap_move_tag@std@@@std@@2_NB DB 01H ; std::_Is_swap_move<std::_Swap_move_tag>::_Value
CONST	ENDS
PUBLIC	??_C@_0CA@KPMHIEOJ@ns2?3getSessionIDResponseElement?$AA@ ; `string'
PUBLIC	??_C@_0BC@MMOHEKHG@?9ns1?3getSessionID?$AA@	; `string'
PUBLIC	??_C@_00CNPNBAHC@?$AA@				; `string'
PUBLIC	??_C@_0CF@POEJDBMI@http?3?1?1DRAMsimReporter?1?1getSessi@ ; `string'
PUBLIC	??_C@_0DJ@LMOMBNJL@http?3?1?1id2?4gentag?4com?37777?1DRAMs@ ; `string'
PUBLIC	?soap_call___ns1__getSessionID@@YAHPAUsoap@@PBD1PAV_ns2__getSessionIDElement@@PAV_ns2__getSessionIDResponseElement@@@Z ; soap_call___ns1__getSessionID
EXTRN	_soap_end_recv:PROC
EXTRN	_soap_envelope_end_in:PROC
EXTRN	_soap_body_end_in:PROC
EXTRN	_soap_recv_fault:PROC
EXTRN	_soap_body_begin_in:PROC
EXTRN	_soap_recv_header:PROC
EXTRN	_soap_envelope_begin_in:PROC
EXTRN	_soap_begin_recv:PROC
EXTRN	_soap_closesock:PROC
EXTRN	_soap_end_send:PROC
EXTRN	_soap_connect:PROC
EXTRN	_soap_end_count:PROC
EXTRN	_soap_envelope_end_out:PROC
EXTRN	_soap_body_end_out:PROC
EXTRN	?soap_put___ns1__getSessionID@@YAHPAUsoap@@PBU__ns1__getSessionID@@PBD2@Z:PROC ; soap_put___ns1__getSessionID
EXTRN	_soap_body_begin_out:PROC
EXTRN	_soap_putheader:PROC
EXTRN	_soap_envelope_begin_out:PROC
EXTRN	_soap_begin_count:PROC
EXTRN	?soap_serialize___ns1__getSessionID@@YAXPAUsoap@@PBU__ns1__getSessionID@@@Z:PROC ; soap_serialize___ns1__getSessionID
EXTRN	_soap_serializeheader:PROC
EXTRN	_soap_begin:PROC
EXTRN	@_RTC_CheckStackVars@8:PROC
EXTRN	__RTC_CheckEsp:PROC
EXTRN	__RTC_Shutdown:PROC
EXTRN	__RTC_InitBase:PROC
;	COMDAT ??_C@_0CA@KPMHIEOJ@ns2?3getSessionIDResponseElement?$AA@
; File c:\users\crius\documents\visual studio 2008\projects\dramsimiihg\src\reporting\soapclient.cpp
CONST	SEGMENT
??_C@_0CA@KPMHIEOJ@ns2?3getSessionIDResponseElement?$AA@ DB 'ns2:getSessi'
	DB	'onIDResponseElement', 00H			; `string'
CONST	ENDS
;	COMDAT ??_C@_0BC@MMOHEKHG@?9ns1?3getSessionID?$AA@
CONST	SEGMENT
??_C@_0BC@MMOHEKHG@?9ns1?3getSessionID?$AA@ DB '-ns1:getSessionID', 00H ; `string'
CONST	ENDS
;	COMDAT ??_C@_00CNPNBAHC@?$AA@
CONST	SEGMENT
??_C@_00CNPNBAHC@?$AA@ DB 00H				; `string'
CONST	ENDS
;	COMDAT ??_C@_0CF@POEJDBMI@http?3?1?1DRAMsimReporter?1?1getSessi@
CONST	SEGMENT
??_C@_0CF@POEJDBMI@http?3?1?1DRAMsimReporter?1?1getSessi@ DB 'http://DRAM'
	DB	'simReporter//getSessionID', 00H		; `string'
CONST	ENDS
;	COMDAT ??_C@_0DJ@LMOMBNJL@http?3?1?1id2?4gentag?4com?37777?1DRAMs@
CONST	SEGMENT
??_C@_0DJ@LMOMBNJL@http?3?1?1id2?4gentag?4com?37777?1DRAMs@ DB 'http://id'
	DB	'2.gentag.com:7777/DRAMsim/DRAMsimWSSoapHttpPort', 00H ; `string'
CONST	ENDS
;	COMDAT rtc$TMZ
rtc$TMZ	SEGMENT
__RTC_Shutdown.rtc$TMZ DD FLAT:__RTC_Shutdown
rtc$TMZ	ENDS
;	COMDAT rtc$IMZ
rtc$IMZ	SEGMENT
__RTC_InitBase.rtc$IMZ DD FLAT:__RTC_InitBase
; Function compile flags: /Odtp /RTCcsu /ZI
rtc$IMZ	ENDS
;	COMDAT ?soap_call___ns1__getSessionID@@YAHPAUsoap@@PBD1PAV_ns2__getSessionIDElement@@PAV_ns2__getSessionIDResponseElement@@@Z
_TEXT	SEGMENT
_soap_tmp___ns1__getSessionID$ = -8			; size = 4
_soap$ = 8						; size = 4
_soap_endpoint$ = 12					; size = 4
_soap_action$ = 16					; size = 4
_ns2__getSessionIDElement$ = 20				; size = 4
_ns2__getSessionIDResponseElement$ = 24			; size = 4
?soap_call___ns1__getSessionID@@YAHPAUsoap@@PBD1PAV_ns2__getSessionIDElement@@PAV_ns2__getSessionIDResponseElement@@@Z PROC ; soap_call___ns1__getSessionID, COMDAT

; 13   : {	struct __ns1__getSessionID soap_tmp___ns1__getSessionID;

	push	ebp
	mov	ebp, esp
	sub	esp, 204				; 000000ccH
	push	ebx
	push	esi
	push	edi
	lea	edi, DWORD PTR [ebp-204]
	mov	ecx, 51					; 00000033H
	mov	eax, -858993460				; ccccccccH
	rep stosd

; 14   : 	if (!soap_endpoint)

	cmp	DWORD PTR _soap_endpoint$[ebp], 0
	jne	SHORT $LN16@soap_call_

; 15   : 		soap_endpoint = "http://id2.gentag.com:7777/DRAMsim/DRAMsimWSSoapHttpPort";

	mov	DWORD PTR _soap_endpoint$[ebp], OFFSET ??_C@_0DJ@LMOMBNJL@http?3?1?1id2?4gentag?4com?37777?1DRAMs@
$LN16@soap_call_:

; 16   : 	if (!soap_action)

	cmp	DWORD PTR _soap_action$[ebp], 0
	jne	SHORT $LN15@soap_call_

; 17   : 		soap_action = "http://DRAMsimReporter//getSessionID";

	mov	DWORD PTR _soap_action$[ebp], OFFSET ??_C@_0CF@POEJDBMI@http?3?1?1DRAMsimReporter?1?1getSessi@
$LN15@soap_call_:

; 18   : 	soap->encodingStyle = NULL;

	mov	eax, DWORD PTR _soap$[ebp]
	mov	DWORD PTR [eax+40], 0

; 19   : 	soap_tmp___ns1__getSessionID.ns2__getSessionIDElement = ns2__getSessionIDElement;

	mov	eax, DWORD PTR _ns2__getSessionIDElement$[ebp]
	mov	DWORD PTR _soap_tmp___ns1__getSessionID$[ebp], eax

; 20   : 	soap_begin(soap);

	mov	eax, DWORD PTR _soap$[ebp]
	push	eax
	call	_soap_begin
	add	esp, 4

; 21   : 	soap_serializeheader(soap);

	mov	eax, DWORD PTR _soap$[ebp]
	push	eax
	call	_soap_serializeheader
	add	esp, 4

; 22   : 	soap_serialize___ns1__getSessionID(soap, &soap_tmp___ns1__getSessionID);

	lea	eax, DWORD PTR _soap_tmp___ns1__getSessionID$[ebp]
	push	eax
	mov	ecx, DWORD PTR _soap$[ebp]
	push	ecx
	call	?soap_serialize___ns1__getSessionID@@YAXPAUsoap@@PBU__ns1__getSessionID@@@Z ; soap_serialize___ns1__getSessionID
	add	esp, 8

; 23   : 	if (soap_begin_count(soap))

	mov	eax, DWORD PTR _soap$[ebp]
	push	eax
	call	_soap_begin_count
	add	esp, 4
	test	eax, eax
	je	SHORT $LN14@soap_call_

; 24   : 		return soap->error;

	mov	eax, DWORD PTR _soap$[ebp]
	mov	eax, DWORD PTR [eax+90460]
	jmp	$LN17@soap_call_
$LN14@soap_call_:

; 25   : 	if (soap->mode & SOAP_IO_LENGTH)

	mov	eax, DWORD PTR _soap$[ebp]
	mov	ecx, DWORD PTR [eax+8]
	and	ecx, 8
	je	SHORT $LN13@soap_call_

; 26   : 	{	if (soap_envelope_begin_out(soap)
; 27   : 		 || soap_putheader(soap)
; 28   : 		 || soap_body_begin_out(soap)
; 29   : 		 || soap_put___ns1__getSessionID(soap, &soap_tmp___ns1__getSessionID, "-ns1:getSessionID", "")
; 30   : 		 || soap_body_end_out(soap)
; 31   : 		 || soap_envelope_end_out(soap))

	mov	eax, DWORD PTR _soap$[ebp]
	push	eax
	call	_soap_envelope_begin_out
	add	esp, 4
	test	eax, eax
	jne	SHORT $LN11@soap_call_
	mov	eax, DWORD PTR _soap$[ebp]
	push	eax
	call	_soap_putheader
	add	esp, 4
	test	eax, eax
	jne	SHORT $LN11@soap_call_
	mov	eax, DWORD PTR _soap$[ebp]
	push	eax
	call	_soap_body_begin_out
	add	esp, 4
	test	eax, eax
	jne	SHORT $LN11@soap_call_
	push	OFFSET ??_C@_00CNPNBAHC@?$AA@
	push	OFFSET ??_C@_0BC@MMOHEKHG@?9ns1?3getSessionID?$AA@
	lea	eax, DWORD PTR _soap_tmp___ns1__getSessionID$[ebp]
	push	eax
	mov	ecx, DWORD PTR _soap$[ebp]
	push	ecx
	call	?soap_put___ns1__getSessionID@@YAHPAUsoap@@PBU__ns1__getSessionID@@PBD2@Z ; soap_put___ns1__getSessionID
	add	esp, 16					; 00000010H
	test	eax, eax
	jne	SHORT $LN11@soap_call_
	mov	eax, DWORD PTR _soap$[ebp]
	push	eax
	call	_soap_body_end_out
	add	esp, 4
	test	eax, eax
	jne	SHORT $LN11@soap_call_
	mov	eax, DWORD PTR _soap$[ebp]
	push	eax
	call	_soap_envelope_end_out
	add	esp, 4
	test	eax, eax
	je	SHORT $LN13@soap_call_
$LN11@soap_call_:

; 32   : 			 return soap->error;

	mov	eax, DWORD PTR _soap$[ebp]
	mov	eax, DWORD PTR [eax+90460]
	jmp	$LN17@soap_call_
$LN13@soap_call_:

; 33   : 	}
; 34   : 	if (soap_end_count(soap))

	mov	eax, DWORD PTR _soap$[ebp]
	push	eax
	call	_soap_end_count
	add	esp, 4
	test	eax, eax
	je	SHORT $LN10@soap_call_

; 35   : 		return soap->error;

	mov	eax, DWORD PTR _soap$[ebp]
	mov	eax, DWORD PTR [eax+90460]
	jmp	$LN17@soap_call_
$LN10@soap_call_:

; 36   : 	if (soap_connect(soap, soap_endpoint, soap_action)
; 37   : 	 || soap_envelope_begin_out(soap)
; 38   : 	 || soap_putheader(soap)
; 39   : 	 || soap_body_begin_out(soap)
; 40   : 	 || soap_put___ns1__getSessionID(soap, &soap_tmp___ns1__getSessionID, "-ns1:getSessionID", "")
; 41   : 	 || soap_body_end_out(soap)
; 42   : 	 || soap_envelope_end_out(soap)
; 43   : 	 || soap_end_send(soap))

	mov	eax, DWORD PTR _soap_action$[ebp]
	push	eax
	mov	ecx, DWORD PTR _soap_endpoint$[ebp]
	push	ecx
	mov	edx, DWORD PTR _soap$[ebp]
	push	edx
	call	_soap_connect
	add	esp, 12					; 0000000cH
	test	eax, eax
	jne	SHORT $LN8@soap_call_
	mov	eax, DWORD PTR _soap$[ebp]
	push	eax
	call	_soap_envelope_begin_out
	add	esp, 4
	test	eax, eax
	jne	SHORT $LN8@soap_call_
	mov	eax, DWORD PTR _soap$[ebp]
	push	eax
	call	_soap_putheader
	add	esp, 4
	test	eax, eax
	jne	SHORT $LN8@soap_call_
	mov	eax, DWORD PTR _soap$[ebp]
	push	eax
	call	_soap_body_begin_out
	add	esp, 4
	test	eax, eax
	jne	SHORT $LN8@soap_call_
	push	OFFSET ??_C@_00CNPNBAHC@?$AA@
	push	OFFSET ??_C@_0BC@MMOHEKHG@?9ns1?3getSessionID?$AA@
	lea	eax, DWORD PTR _soap_tmp___ns1__getSessionID$[ebp]
	push	eax
	mov	ecx, DWORD PTR _soap$[ebp]
	push	ecx
	call	?soap_put___ns1__getSessionID@@YAHPAUsoap@@PBU__ns1__getSessionID@@PBD2@Z ; soap_put___ns1__getSessionID
	add	esp, 16					; 00000010H
	test	eax, eax
	jne	SHORT $LN8@soap_call_
	mov	eax, DWORD PTR _soap$[ebp]
	push	eax
	call	_soap_body_end_out
	add	esp, 4
	test	eax, eax
	jne	SHORT $LN8@soap_call_
	mov	eax, DWORD PTR _soap$[ebp]
	push	eax
	call	_soap_envelope_end_out
	add	esp, 4
	test	eax, eax
	jne	SHORT $LN8@soap_call_
	mov	eax, DWORD PTR _soap$[ebp]
	push	eax
	call	_soap_end_send
	add	esp, 4
	test	eax, eax
	je	SHORT $LN9@soap_call_
$LN8@soap_call_:

; 44   : 		return soap_closesock(soap);

	mov	eax, DWORD PTR _soap$[ebp]
	push	eax
	call	_soap_closesock
	add	esp, 4
	jmp	$LN17@soap_call_
$LN9@soap_call_:

; 45   : 	if (!ns2__getSessionIDResponseElement)

	cmp	DWORD PTR _ns2__getSessionIDResponseElement$[ebp], 0
	jne	SHORT $LN7@soap_call_

; 46   : 		return soap_closesock(soap);

	mov	eax, DWORD PTR _soap$[ebp]
	push	eax
	call	_soap_closesock
	add	esp, 4
	jmp	$LN17@soap_call_
$LN7@soap_call_:

; 47   : 	ns2__getSessionIDResponseElement->soap_default(soap);

	mov	esi, esp
	mov	eax, DWORD PTR _soap$[ebp]
	push	eax
	mov	ecx, DWORD PTR _ns2__getSessionIDResponseElement$[ebp]
	mov	edx, DWORD PTR [ecx]
	mov	ecx, DWORD PTR _ns2__getSessionIDResponseElement$[ebp]
	mov	eax, DWORD PTR [edx+4]
	call	eax
	cmp	esi, esp
	call	__RTC_CheckEsp

; 48   : 	if (soap_begin_recv(soap)
; 49   : 	 || soap_envelope_begin_in(soap)
; 50   : 	 || soap_recv_header(soap)
; 51   : 	 || soap_body_begin_in(soap))

	mov	eax, DWORD PTR _soap$[ebp]
	push	eax
	call	_soap_begin_recv
	add	esp, 4
	test	eax, eax
	jne	SHORT $LN5@soap_call_
	mov	eax, DWORD PTR _soap$[ebp]
	push	eax
	call	_soap_envelope_begin_in
	add	esp, 4
	test	eax, eax
	jne	SHORT $LN5@soap_call_
	mov	eax, DWORD PTR _soap$[ebp]
	push	eax
	call	_soap_recv_header
	add	esp, 4
	test	eax, eax
	jne	SHORT $LN5@soap_call_
	mov	eax, DWORD PTR _soap$[ebp]
	push	eax
	call	_soap_body_begin_in
	add	esp, 4
	test	eax, eax
	je	SHORT $LN6@soap_call_
$LN5@soap_call_:

; 52   : 		return soap_closesock(soap);

	mov	eax, DWORD PTR _soap$[ebp]
	push	eax
	call	_soap_closesock
	add	esp, 4
	jmp	$LN17@soap_call_
$LN6@soap_call_:

; 53   : 	ns2__getSessionIDResponseElement->soap_get(soap, "ns2:getSessionIDResponseElement", "");

	mov	esi, esp
	push	OFFSET ??_C@_00CNPNBAHC@?$AA@
	push	OFFSET ??_C@_0CA@KPMHIEOJ@ns2?3getSessionIDResponseElement?$AA@
	mov	eax, DWORD PTR _soap$[ebp]
	push	eax
	mov	ecx, DWORD PTR _ns2__getSessionIDResponseElement$[ebp]
	mov	edx, DWORD PTR [ecx]
	mov	ecx, DWORD PTR _ns2__getSessionIDResponseElement$[ebp]
	mov	eax, DWORD PTR [edx+20]
	call	eax
	cmp	esi, esp
	call	__RTC_CheckEsp

; 54   : 	if (soap->error)

	mov	eax, DWORD PTR _soap$[ebp]
	cmp	DWORD PTR [eax+90460], 0
	je	SHORT $LN4@soap_call_

; 55   : 	{	if (soap->error == SOAP_TAG_MISMATCH && soap->level == 2)

	mov	eax, DWORD PTR _soap$[ebp]
	cmp	DWORD PTR [eax+90460], 3
	jne	SHORT $LN3@soap_call_
	mov	eax, DWORD PTR _soap$[ebp]
	cmp	DWORD PTR [eax+12444], 2
	jne	SHORT $LN3@soap_call_

; 56   : 			return soap_recv_fault(soap);

	mov	eax, DWORD PTR _soap$[ebp]
	push	eax
	call	_soap_recv_fault
	add	esp, 4
	jmp	SHORT $LN17@soap_call_
$LN3@soap_call_:

; 57   : 		return soap_closesock(soap);

	mov	eax, DWORD PTR _soap$[ebp]
	push	eax
	call	_soap_closesock
	add	esp, 4
	jmp	SHORT $LN17@soap_call_
$LN4@soap_call_:

; 58   : 	}
; 59   : 	if (soap_body_end_in(soap)
; 60   : 	 || soap_envelope_end_in(soap)
; 61   : 	 || soap_end_recv(soap))

	mov	eax, DWORD PTR _soap$[ebp]
	push	eax
	call	_soap_body_end_in
	add	esp, 4
	test	eax, eax
	jne	SHORT $LN1@soap_call_
	mov	eax, DWORD PTR _soap$[ebp]
	push	eax
	call	_soap_envelope_end_in
	add	esp, 4
	test	eax, eax
	jne	SHORT $LN1@soap_call_
	mov	eax, DWORD PTR _soap$[ebp]
	push	eax
	call	_soap_end_recv
	add	esp, 4
	test	eax, eax
	je	SHORT $LN2@soap_call_
$LN1@soap_call_:

; 62   : 		return soap_closesock(soap);

	mov	eax, DWORD PTR _soap$[ebp]
	push	eax
	call	_soap_closesock
	add	esp, 4
	jmp	SHORT $LN17@soap_call_
$LN2@soap_call_:

; 63   : 	return soap_closesock(soap);

	mov	eax, DWORD PTR _soap$[ebp]
	push	eax
	call	_soap_closesock
	add	esp, 4
$LN17@soap_call_:

; 64   : }

	push	edx
	mov	ecx, ebp
	push	eax
	lea	edx, DWORD PTR $LN21@soap_call_
	call	@_RTC_CheckStackVars@8
	pop	eax
	pop	edx
	pop	edi
	pop	esi
	pop	ebx
	add	esp, 204				; 000000ccH
	cmp	ebp, esp
	call	__RTC_CheckEsp
	mov	esp, ebp
	pop	ebp
	ret	0
	npad	1
$LN21@soap_call_:
	DD	1
	DD	$LN20@soap_call_
$LN20@soap_call_:
	DD	-8					; fffffff8H
	DD	4
	DD	$LN19@soap_call_
$LN19@soap_call_:
	DB	115					; 00000073H
	DB	111					; 0000006fH
	DB	97					; 00000061H
	DB	112					; 00000070H
	DB	95					; 0000005fH
	DB	116					; 00000074H
	DB	109					; 0000006dH
	DB	112					; 00000070H
	DB	95					; 0000005fH
	DB	95					; 0000005fH
	DB	95					; 0000005fH
	DB	110					; 0000006eH
	DB	115					; 00000073H
	DB	49					; 00000031H
	DB	95					; 0000005fH
	DB	95					; 0000005fH
	DB	103					; 00000067H
	DB	101					; 00000065H
	DB	116					; 00000074H
	DB	83					; 00000053H
	DB	101					; 00000065H
	DB	115					; 00000073H
	DB	115					; 00000073H
	DB	105					; 00000069H
	DB	111					; 0000006fH
	DB	110					; 0000006eH
	DB	73					; 00000049H
	DB	68					; 00000044H
	DB	0
?soap_call___ns1__getSessionID@@YAHPAUsoap@@PBD1PAV_ns2__getSessionIDElement@@PAV_ns2__getSessionIDResponseElement@@@Z ENDP ; soap_call___ns1__getSessionID
_TEXT	ENDS
PUBLIC	??_C@_0CD@GADHDKNA@ns2?3getSettingsFileResponseEleme@ ; `string'
PUBLIC	??_C@_0BF@DGBJONEJ@?9ns1?3getSettingsFile?$AA@	; `string'
PUBLIC	??_C@_0CI@EHMBALD@http?3?1?1DRAMsimReporter?1?1getSetti@ ; `string'
PUBLIC	?soap_call___ns1__getSettingsFile@@YAHPAUsoap@@PBD1PAV_ns2__getSettingsFileElement@@PAV_ns2__getSettingsFileResponseElement@@@Z ; soap_call___ns1__getSettingsFile
EXTRN	?soap_put___ns1__getSettingsFile@@YAHPAUsoap@@PBU__ns1__getSettingsFile@@PBD2@Z:PROC ; soap_put___ns1__getSettingsFile
EXTRN	?soap_serialize___ns1__getSettingsFile@@YAXPAUsoap@@PBU__ns1__getSettingsFile@@@Z:PROC ; soap_serialize___ns1__getSettingsFile
;	COMDAT ??_C@_0CD@GADHDKNA@ns2?3getSettingsFileResponseEleme@
CONST	SEGMENT
??_C@_0CD@GADHDKNA@ns2?3getSettingsFileResponseEleme@ DB 'ns2:getSettings'
	DB	'FileResponseElement', 00H			; `string'
CONST	ENDS
;	COMDAT ??_C@_0BF@DGBJONEJ@?9ns1?3getSettingsFile?$AA@
CONST	SEGMENT
??_C@_0BF@DGBJONEJ@?9ns1?3getSettingsFile?$AA@ DB '-ns1:getSettingsFile', 00H ; `string'
CONST	ENDS
;	COMDAT ??_C@_0CI@EHMBALD@http?3?1?1DRAMsimReporter?1?1getSetti@
CONST	SEGMENT
??_C@_0CI@EHMBALD@http?3?1?1DRAMsimReporter?1?1getSetti@ DB 'http://DRAMs'
	DB	'imReporter//getSettingsFile', 00H		; `string'
; Function compile flags: /Odtp /RTCcsu /ZI
CONST	ENDS
;	COMDAT ?soap_call___ns1__getSettingsFile@@YAHPAUsoap@@PBD1PAV_ns2__getSettingsFileElement@@PAV_ns2__getSettingsFileResponseElement@@@Z
_TEXT	SEGMENT
_soap_tmp___ns1__getSettingsFile$ = -8			; size = 4
_soap$ = 8						; size = 4
_soap_endpoint$ = 12					; size = 4
_soap_action$ = 16					; size = 4
_ns2__getSettingsFileElement$ = 20			; size = 4
_ns2__getSettingsFileResponseElement$ = 24		; size = 4
?soap_call___ns1__getSettingsFile@@YAHPAUsoap@@PBD1PAV_ns2__getSettingsFileElement@@PAV_ns2__getSettingsFileResponseElement@@@Z PROC ; soap_call___ns1__getSettingsFile, COMDAT

; 67   : {	struct __ns1__getSettingsFile soap_tmp___ns1__getSettingsFile;

	push	ebp
	mov	ebp, esp
	sub	esp, 204				; 000000ccH
	push	ebx
	push	esi
	push	edi
	lea	edi, DWORD PTR [ebp-204]
	mov	ecx, 51					; 00000033H
	mov	eax, -858993460				; ccccccccH
	rep stosd

; 68   : 	if (!soap_endpoint)

	cmp	DWORD PTR _soap_endpoint$[ebp], 0
	jne	SHORT $LN16@soap_call_@2

; 69   : 		soap_endpoint = "http://id2.gentag.com:7777/DRAMsim/DRAMsimWSSoapHttpPort";

	mov	DWORD PTR _soap_endpoint$[ebp], OFFSET ??_C@_0DJ@LMOMBNJL@http?3?1?1id2?4gentag?4com?37777?1DRAMs@
$LN16@soap_call_@2:

; 70   : 	if (!soap_action)

	cmp	DWORD PTR _soap_action$[ebp], 0
	jne	SHORT $LN15@soap_call_@2

; 71   : 		soap_action = "http://DRAMsimReporter//getSettingsFile";

	mov	DWORD PTR _soap_action$[ebp], OFFSET ??_C@_0CI@EHMBALD@http?3?1?1DRAMsimReporter?1?1getSetti@
$LN15@soap_call_@2:

; 72   : 	soap->encodingStyle = NULL;

	mov	eax, DWORD PTR _soap$[ebp]
	mov	DWORD PTR [eax+40], 0

; 73   : 	soap_tmp___ns1__getSettingsFile.ns2__getSettingsFileElement = ns2__getSettingsFileElement;

	mov	eax, DWORD PTR _ns2__getSettingsFileElement$[ebp]
	mov	DWORD PTR _soap_tmp___ns1__getSettingsFile$[ebp], eax

; 74   : 	soap_begin(soap);

	mov	eax, DWORD PTR _soap$[ebp]
	push	eax
	call	_soap_begin
	add	esp, 4

; 75   : 	soap_serializeheader(soap);

	mov	eax, DWORD PTR _soap$[ebp]
	push	eax
	call	_soap_serializeheader
	add	esp, 4

; 76   : 	soap_serialize___ns1__getSettingsFile(soap, &soap_tmp___ns1__getSettingsFile);

	lea	eax, DWORD PTR _soap_tmp___ns1__getSettingsFile$[ebp]
	push	eax
	mov	ecx, DWORD PTR _soap$[ebp]
	push	ecx
	call	?soap_serialize___ns1__getSettingsFile@@YAXPAUsoap@@PBU__ns1__getSettingsFile@@@Z ; soap_serialize___ns1__getSettingsFile
	add	esp, 8

; 77   : 	if (soap_begin_count(soap))

	mov	eax, DWORD PTR _soap$[ebp]
	push	eax
	call	_soap_begin_count
	add	esp, 4
	test	eax, eax
	je	SHORT $LN14@soap_call_@2

; 78   : 		return soap->error;

	mov	eax, DWORD PTR _soap$[ebp]
	mov	eax, DWORD PTR [eax+90460]
	jmp	$LN17@soap_call_@2
$LN14@soap_call_@2:

; 79   : 	if (soap->mode & SOAP_IO_LENGTH)

	mov	eax, DWORD PTR _soap$[ebp]
	mov	ecx, DWORD PTR [eax+8]
	and	ecx, 8
	je	SHORT $LN13@soap_call_@2

; 80   : 	{	if (soap_envelope_begin_out(soap)
; 81   : 		 || soap_putheader(soap)
; 82   : 		 || soap_body_begin_out(soap)
; 83   : 		 || soap_put___ns1__getSettingsFile(soap, &soap_tmp___ns1__getSettingsFile, "-ns1:getSettingsFile", "")
; 84   : 		 || soap_body_end_out(soap)
; 85   : 		 || soap_envelope_end_out(soap))

	mov	eax, DWORD PTR _soap$[ebp]
	push	eax
	call	_soap_envelope_begin_out
	add	esp, 4
	test	eax, eax
	jne	SHORT $LN11@soap_call_@2
	mov	eax, DWORD PTR _soap$[ebp]
	push	eax
	call	_soap_putheader
	add	esp, 4
	test	eax, eax
	jne	SHORT $LN11@soap_call_@2
	mov	eax, DWORD PTR _soap$[ebp]
	push	eax
	call	_soap_body_begin_out
	add	esp, 4
	test	eax, eax
	jne	SHORT $LN11@soap_call_@2
	push	OFFSET ??_C@_00CNPNBAHC@?$AA@
	push	OFFSET ??_C@_0BF@DGBJONEJ@?9ns1?3getSettingsFile?$AA@
	lea	eax, DWORD PTR _soap_tmp___ns1__getSettingsFile$[ebp]
	push	eax
	mov	ecx, DWORD PTR _soap$[ebp]
	push	ecx
	call	?soap_put___ns1__getSettingsFile@@YAHPAUsoap@@PBU__ns1__getSettingsFile@@PBD2@Z ; soap_put___ns1__getSettingsFile
	add	esp, 16					; 00000010H
	test	eax, eax
	jne	SHORT $LN11@soap_call_@2
	mov	eax, DWORD PTR _soap$[ebp]
	push	eax
	call	_soap_body_end_out
	add	esp, 4
	test	eax, eax
	jne	SHORT $LN11@soap_call_@2
	mov	eax, DWORD PTR _soap$[ebp]
	push	eax
	call	_soap_envelope_end_out
	add	esp, 4
	test	eax, eax
	je	SHORT $LN13@soap_call_@2
$LN11@soap_call_@2:

; 86   : 			 return soap->error;

	mov	eax, DWORD PTR _soap$[ebp]
	mov	eax, DWORD PTR [eax+90460]
	jmp	$LN17@soap_call_@2
$LN13@soap_call_@2:

; 87   : 	}
; 88   : 	if (soap_end_count(soap))

	mov	eax, DWORD PTR _soap$[ebp]
	push	eax
	call	_soap_end_count
	add	esp, 4
	test	eax, eax
	je	SHORT $LN10@soap_call_@2

; 89   : 		return soap->error;

	mov	eax, DWORD PTR _soap$[ebp]
	mov	eax, DWORD PTR [eax+90460]
	jmp	$LN17@soap_call_@2
$LN10@soap_call_@2:

; 90   : 	if (soap_connect(soap, soap_endpoint, soap_action)
; 91   : 	 || soap_envelope_begin_out(soap)
; 92   : 	 || soap_putheader(soap)
; 93   : 	 || soap_body_begin_out(soap)
; 94   : 	 || soap_put___ns1__getSettingsFile(soap, &soap_tmp___ns1__getSettingsFile, "-ns1:getSettingsFile", "")
; 95   : 	 || soap_body_end_out(soap)
; 96   : 	 || soap_envelope_end_out(soap)
; 97   : 	 || soap_end_send(soap))

	mov	eax, DWORD PTR _soap_action$[ebp]
	push	eax
	mov	ecx, DWORD PTR _soap_endpoint$[ebp]
	push	ecx
	mov	edx, DWORD PTR _soap$[ebp]
	push	edx
	call	_soap_connect
	add	esp, 12					; 0000000cH
	test	eax, eax
	jne	SHORT $LN8@soap_call_@2
	mov	eax, DWORD PTR _soap$[ebp]
	push	eax
	call	_soap_envelope_begin_out
	add	esp, 4
	test	eax, eax
	jne	SHORT $LN8@soap_call_@2
	mov	eax, DWORD PTR _soap$[ebp]
	push	eax
	call	_soap_putheader
	add	esp, 4
	test	eax, eax
	jne	SHORT $LN8@soap_call_@2
	mov	eax, DWORD PTR _soap$[ebp]
	push	eax
	call	_soap_body_begin_out
	add	esp, 4
	test	eax, eax
	jne	SHORT $LN8@soap_call_@2
	push	OFFSET ??_C@_00CNPNBAHC@?$AA@
	push	OFFSET ??_C@_0BF@DGBJONEJ@?9ns1?3getSettingsFile?$AA@
	lea	eax, DWORD PTR _soap_tmp___ns1__getSettingsFile$[ebp]
	push	eax
	mov	ecx, DWORD PTR _soap$[ebp]
	push	ecx
	call	?soap_put___ns1__getSettingsFile@@YAHPAUsoap@@PBU__ns1__getSettingsFile@@PBD2@Z ; soap_put___ns1__getSettingsFile
	add	esp, 16					; 00000010H
	test	eax, eax
	jne	SHORT $LN8@soap_call_@2
	mov	eax, DWORD PTR _soap$[ebp]
	push	eax
	call	_soap_body_end_out
	add	esp, 4
	test	eax, eax
	jne	SHORT $LN8@soap_call_@2
	mov	eax, DWORD PTR _soap$[ebp]
	push	eax
	call	_soap_envelope_end_out
	add	esp, 4
	test	eax, eax
	jne	SHORT $LN8@soap_call_@2
	mov	eax, DWORD PTR _soap$[ebp]
	push	eax
	call	_soap_end_send
	add	esp, 4
	test	eax, eax
	je	SHORT $LN9@soap_call_@2
$LN8@soap_call_@2:

; 98   : 		return soap_closesock(soap);

	mov	eax, DWORD PTR _soap$[ebp]
	push	eax
	call	_soap_closesock
	add	esp, 4
	jmp	$LN17@soap_call_@2
$LN9@soap_call_@2:

; 99   : 	if (!ns2__getSettingsFileResponseElement)

	cmp	DWORD PTR _ns2__getSettingsFileResponseElement$[ebp], 0
	jne	SHORT $LN7@soap_call_@2

; 100  : 		return soap_closesock(soap);

	mov	eax, DWORD PTR _soap$[ebp]
	push	eax
	call	_soap_closesock
	add	esp, 4
	jmp	$LN17@soap_call_@2
$LN7@soap_call_@2:

; 101  : 	ns2__getSettingsFileResponseElement->soap_default(soap);

	mov	esi, esp
	mov	eax, DWORD PTR _soap$[ebp]
	push	eax
	mov	ecx, DWORD PTR _ns2__getSettingsFileResponseElement$[ebp]
	mov	edx, DWORD PTR [ecx]
	mov	ecx, DWORD PTR _ns2__getSettingsFileResponseElement$[ebp]
	mov	eax, DWORD PTR [edx+4]
	call	eax
	cmp	esi, esp
	call	__RTC_CheckEsp

; 102  : 	if (soap_begin_recv(soap)
; 103  : 	 || soap_envelope_begin_in(soap)
; 104  : 	 || soap_recv_header(soap)
; 105  : 	 || soap_body_begin_in(soap))

	mov	eax, DWORD PTR _soap$[ebp]
	push	eax
	call	_soap_begin_recv
	add	esp, 4
	test	eax, eax
	jne	SHORT $LN5@soap_call_@2
	mov	eax, DWORD PTR _soap$[ebp]
	push	eax
	call	_soap_envelope_begin_in
	add	esp, 4
	test	eax, eax
	jne	SHORT $LN5@soap_call_@2
	mov	eax, DWORD PTR _soap$[ebp]
	push	eax
	call	_soap_recv_header
	add	esp, 4
	test	eax, eax
	jne	SHORT $LN5@soap_call_@2
	mov	eax, DWORD PTR _soap$[ebp]
	push	eax
	call	_soap_body_begin_in
	add	esp, 4
	test	eax, eax
	je	SHORT $LN6@soap_call_@2
$LN5@soap_call_@2:

; 106  : 		return soap_closesock(soap);

	mov	eax, DWORD PTR _soap$[ebp]
	push	eax
	call	_soap_closesock
	add	esp, 4
	jmp	$LN17@soap_call_@2
$LN6@soap_call_@2:

; 107  : 	ns2__getSettingsFileResponseElement->soap_get(soap, "ns2:getSettingsFileResponseElement", "");

	mov	esi, esp
	push	OFFSET ??_C@_00CNPNBAHC@?$AA@
	push	OFFSET ??_C@_0CD@GADHDKNA@ns2?3getSettingsFileResponseEleme@
	mov	eax, DWORD PTR _soap$[ebp]
	push	eax
	mov	ecx, DWORD PTR _ns2__getSettingsFileResponseElement$[ebp]
	mov	edx, DWORD PTR [ecx]
	mov	ecx, DWORD PTR _ns2__getSettingsFileResponseElement$[ebp]
	mov	eax, DWORD PTR [edx+20]
	call	eax
	cmp	esi, esp
	call	__RTC_CheckEsp

; 108  : 	if (soap->error)

	mov	eax, DWORD PTR _soap$[ebp]
	cmp	DWORD PTR [eax+90460], 0
	je	SHORT $LN4@soap_call_@2

; 109  : 	{	if (soap->error == SOAP_TAG_MISMATCH && soap->level == 2)

	mov	eax, DWORD PTR _soap$[ebp]
	cmp	DWORD PTR [eax+90460], 3
	jne	SHORT $LN3@soap_call_@2
	mov	eax, DWORD PTR _soap$[ebp]
	cmp	DWORD PTR [eax+12444], 2
	jne	SHORT $LN3@soap_call_@2

; 110  : 			return soap_recv_fault(soap);

	mov	eax, DWORD PTR _soap$[ebp]
	push	eax
	call	_soap_recv_fault
	add	esp, 4
	jmp	SHORT $LN17@soap_call_@2
$LN3@soap_call_@2:

; 111  : 		return soap_closesock(soap);

	mov	eax, DWORD PTR _soap$[ebp]
	push	eax
	call	_soap_closesock
	add	esp, 4
	jmp	SHORT $LN17@soap_call_@2
$LN4@soap_call_@2:

; 112  : 	}
; 113  : 	if (soap_body_end_in(soap)
; 114  : 	 || soap_envelope_end_in(soap)
; 115  : 	 || soap_end_recv(soap))

	mov	eax, DWORD PTR _soap$[ebp]
	push	eax
	call	_soap_body_end_in
	add	esp, 4
	test	eax, eax
	jne	SHORT $LN1@soap_call_@2
	mov	eax, DWORD PTR _soap$[ebp]
	push	eax
	call	_soap_envelope_end_in
	add	esp, 4
	test	eax, eax
	jne	SHORT $LN1@soap_call_@2
	mov	eax, DWORD PTR _soap$[ebp]
	push	eax
	call	_soap_end_recv
	add	esp, 4
	test	eax, eax
	je	SHORT $LN2@soap_call_@2
$LN1@soap_call_@2:

; 116  : 		return soap_closesock(soap);

	mov	eax, DWORD PTR _soap$[ebp]
	push	eax
	call	_soap_closesock
	add	esp, 4
	jmp	SHORT $LN17@soap_call_@2
$LN2@soap_call_@2:

; 117  : 	return soap_closesock(soap);

	mov	eax, DWORD PTR _soap$[ebp]
	push	eax
	call	_soap_closesock
	add	esp, 4
$LN17@soap_call_@2:

; 118  : }

	push	edx
	mov	ecx, ebp
	push	eax
	lea	edx, DWORD PTR $LN21@soap_call_@2
	call	@_RTC_CheckStackVars@8
	pop	eax
	pop	edx
	pop	edi
	pop	esi
	pop	ebx
	add	esp, 204				; 000000ccH
	cmp	ebp, esp
	call	__RTC_CheckEsp
	mov	esp, ebp
	pop	ebp
	ret	0
	npad	1
$LN21@soap_call_@2:
	DD	1
	DD	$LN20@soap_call_@2
$LN20@soap_call_@2:
	DD	-8					; fffffff8H
	DD	4
	DD	$LN19@soap_call_@2
$LN19@soap_call_@2:
	DB	115					; 00000073H
	DB	111					; 0000006fH
	DB	97					; 00000061H
	DB	112					; 00000070H
	DB	95					; 0000005fH
	DB	116					; 00000074H
	DB	109					; 0000006dH
	DB	112					; 00000070H
	DB	95					; 0000005fH
	DB	95					; 0000005fH
	DB	95					; 0000005fH
	DB	110					; 0000006eH
	DB	115					; 00000073H
	DB	49					; 00000031H
	DB	95					; 0000005fH
	DB	95					; 0000005fH
	DB	103					; 00000067H
	DB	101					; 00000065H
	DB	116					; 00000074H
	DB	83					; 00000053H
	DB	101					; 00000065H
	DB	116					; 00000074H
	DB	116					; 00000074H
	DB	105					; 00000069H
	DB	110					; 0000006eH
	DB	103					; 00000067H
	DB	115					; 00000073H
	DB	70					; 00000046H
	DB	105					; 00000069H
	DB	108					; 0000006cH
	DB	101					; 00000065H
	DB	0
?soap_call___ns1__getSettingsFile@@YAHPAUsoap@@PBD1PAV_ns2__getSettingsFileElement@@PAV_ns2__getSettingsFileResponseElement@@@Z ENDP ; soap_call___ns1__getSettingsFile
_TEXT	ENDS
PUBLIC	??_C@_0CF@HCKJIEH@ns2?3submitEpochResultResponseEle@ ; `string'
PUBLIC	??_C@_0BH@OGGBAHLG@?9ns1?3submitEpochResult?$AA@ ; `string'
PUBLIC	??_C@_0CK@MLDOLCEF@http?3?1?1DRAMsimReporter?1?1submitEp@ ; `string'
PUBLIC	?soap_call___ns1__submitEpochResult@@YAHPAUsoap@@PBD1PAV_ns2__submitEpochResultElement@@PAV_ns2__submitEpochResultResponseElement@@@Z ; soap_call___ns1__submitEpochResult
EXTRN	?soap_put___ns1__submitEpochResult@@YAHPAUsoap@@PBU__ns1__submitEpochResult@@PBD2@Z:PROC ; soap_put___ns1__submitEpochResult
EXTRN	?soap_serialize___ns1__submitEpochResult@@YAXPAUsoap@@PBU__ns1__submitEpochResult@@@Z:PROC ; soap_serialize___ns1__submitEpochResult
;	COMDAT ??_C@_0CF@HCKJIEH@ns2?3submitEpochResultResponseEle@
CONST	SEGMENT
??_C@_0CF@HCKJIEH@ns2?3submitEpochResultResponseEle@ DB 'ns2:submitEpochR'
	DB	'esultResponseElement', 00H			; `string'
CONST	ENDS
;	COMDAT ??_C@_0BH@OGGBAHLG@?9ns1?3submitEpochResult?$AA@
CONST	SEGMENT
??_C@_0BH@OGGBAHLG@?9ns1?3submitEpochResult?$AA@ DB '-ns1:submitEpochResu'
	DB	'lt', 00H					; `string'
CONST	ENDS
;	COMDAT ??_C@_0CK@MLDOLCEF@http?3?1?1DRAMsimReporter?1?1submitEp@
CONST	SEGMENT
??_C@_0CK@MLDOLCEF@http?3?1?1DRAMsimReporter?1?1submitEp@ DB 'http://DRAM'
	DB	'simReporter//submitEpochResult', 00H	; `string'
; Function compile flags: /Odtp /RTCcsu /ZI
CONST	ENDS
;	COMDAT ?soap_call___ns1__submitEpochResult@@YAHPAUsoap@@PBD1PAV_ns2__submitEpochResultElement@@PAV_ns2__submitEpochResultResponseElement@@@Z
_TEXT	SEGMENT
_soap_tmp___ns1__submitEpochResult$ = -8		; size = 4
_soap$ = 8						; size = 4
_soap_endpoint$ = 12					; size = 4
_soap_action$ = 16					; size = 4
_ns2__submitEpochResultElement$ = 20			; size = 4
_ns2__submitEpochResultResponseElement$ = 24		; size = 4
?soap_call___ns1__submitEpochResult@@YAHPAUsoap@@PBD1PAV_ns2__submitEpochResultElement@@PAV_ns2__submitEpochResultResponseElement@@@Z PROC ; soap_call___ns1__submitEpochResult, COMDAT

; 121  : {	struct __ns1__submitEpochResult soap_tmp___ns1__submitEpochResult;

	push	ebp
	mov	ebp, esp
	sub	esp, 204				; 000000ccH
	push	ebx
	push	esi
	push	edi
	lea	edi, DWORD PTR [ebp-204]
	mov	ecx, 51					; 00000033H
	mov	eax, -858993460				; ccccccccH
	rep stosd

; 122  : 	if (!soap_endpoint)

	cmp	DWORD PTR _soap_endpoint$[ebp], 0
	jne	SHORT $LN16@soap_call_@3

; 123  : 		soap_endpoint = "http://id2.gentag.com:7777/DRAMsim/DRAMsimWSSoapHttpPort";

	mov	DWORD PTR _soap_endpoint$[ebp], OFFSET ??_C@_0DJ@LMOMBNJL@http?3?1?1id2?4gentag?4com?37777?1DRAMs@
$LN16@soap_call_@3:

; 124  : 	if (!soap_action)

	cmp	DWORD PTR _soap_action$[ebp], 0
	jne	SHORT $LN15@soap_call_@3

; 125  : 		soap_action = "http://DRAMsimReporter//submitEpochResult";

	mov	DWORD PTR _soap_action$[ebp], OFFSET ??_C@_0CK@MLDOLCEF@http?3?1?1DRAMsimReporter?1?1submitEp@
$LN15@soap_call_@3:

; 126  : 	soap->encodingStyle = NULL;

	mov	eax, DWORD PTR _soap$[ebp]
	mov	DWORD PTR [eax+40], 0

; 127  : 	soap_tmp___ns1__submitEpochResult.ns2__submitEpochResultElement = ns2__submitEpochResultElement;

	mov	eax, DWORD PTR _ns2__submitEpochResultElement$[ebp]
	mov	DWORD PTR _soap_tmp___ns1__submitEpochResult$[ebp], eax

; 128  : 	soap_begin(soap);

	mov	eax, DWORD PTR _soap$[ebp]
	push	eax
	call	_soap_begin
	add	esp, 4

; 129  : 	soap_serializeheader(soap);

	mov	eax, DWORD PTR _soap$[ebp]
	push	eax
	call	_soap_serializeheader
	add	esp, 4

; 130  : 	soap_serialize___ns1__submitEpochResult(soap, &soap_tmp___ns1__submitEpochResult);

	lea	eax, DWORD PTR _soap_tmp___ns1__submitEpochResult$[ebp]
	push	eax
	mov	ecx, DWORD PTR _soap$[ebp]
	push	ecx
	call	?soap_serialize___ns1__submitEpochResult@@YAXPAUsoap@@PBU__ns1__submitEpochResult@@@Z ; soap_serialize___ns1__submitEpochResult
	add	esp, 8

; 131  : 	if (soap_begin_count(soap))

	mov	eax, DWORD PTR _soap$[ebp]
	push	eax
	call	_soap_begin_count
	add	esp, 4
	test	eax, eax
	je	SHORT $LN14@soap_call_@3

; 132  : 		return soap->error;

	mov	eax, DWORD PTR _soap$[ebp]
	mov	eax, DWORD PTR [eax+90460]
	jmp	$LN17@soap_call_@3
$LN14@soap_call_@3:

; 133  : 	if (soap->mode & SOAP_IO_LENGTH)

	mov	eax, DWORD PTR _soap$[ebp]
	mov	ecx, DWORD PTR [eax+8]
	and	ecx, 8
	je	SHORT $LN13@soap_call_@3

; 134  : 	{	if (soap_envelope_begin_out(soap)
; 135  : 		 || soap_putheader(soap)
; 136  : 		 || soap_body_begin_out(soap)
; 137  : 		 || soap_put___ns1__submitEpochResult(soap, &soap_tmp___ns1__submitEpochResult, "-ns1:submitEpochResult", "")
; 138  : 		 || soap_body_end_out(soap)
; 139  : 		 || soap_envelope_end_out(soap))

	mov	eax, DWORD PTR _soap$[ebp]
	push	eax
	call	_soap_envelope_begin_out
	add	esp, 4
	test	eax, eax
	jne	SHORT $LN11@soap_call_@3
	mov	eax, DWORD PTR _soap$[ebp]
	push	eax
	call	_soap_putheader
	add	esp, 4
	test	eax, eax
	jne	SHORT $LN11@soap_call_@3
	mov	eax, DWORD PTR _soap$[ebp]
	push	eax
	call	_soap_body_begin_out
	add	esp, 4
	test	eax, eax
	jne	SHORT $LN11@soap_call_@3
	push	OFFSET ??_C@_00CNPNBAHC@?$AA@
	push	OFFSET ??_C@_0BH@OGGBAHLG@?9ns1?3submitEpochResult?$AA@
	lea	eax, DWORD PTR _soap_tmp___ns1__submitEpochResult$[ebp]
	push	eax
	mov	ecx, DWORD PTR _soap$[ebp]
	push	ecx
	call	?soap_put___ns1__submitEpochResult@@YAHPAUsoap@@PBU__ns1__submitEpochResult@@PBD2@Z ; soap_put___ns1__submitEpochResult
	add	esp, 16					; 00000010H
	test	eax, eax
	jne	SHORT $LN11@soap_call_@3
	mov	eax, DWORD PTR _soap$[ebp]
	push	eax
	call	_soap_body_end_out
	add	esp, 4
	test	eax, eax
	jne	SHORT $LN11@soap_call_@3
	mov	eax, DWORD PTR _soap$[ebp]
	push	eax
	call	_soap_envelope_end_out
	add	esp, 4
	test	eax, eax
	je	SHORT $LN13@soap_call_@3
$LN11@soap_call_@3:

; 140  : 			 return soap->error;

	mov	eax, DWORD PTR _soap$[ebp]
	mov	eax, DWORD PTR [eax+90460]
	jmp	$LN17@soap_call_@3
$LN13@soap_call_@3:

; 141  : 	}
; 142  : 	if (soap_end_count(soap))

	mov	eax, DWORD PTR _soap$[ebp]
	push	eax
	call	_soap_end_count
	add	esp, 4
	test	eax, eax
	je	SHORT $LN10@soap_call_@3

; 143  : 		return soap->error;

	mov	eax, DWORD PTR _soap$[ebp]
	mov	eax, DWORD PTR [eax+90460]
	jmp	$LN17@soap_call_@3
$LN10@soap_call_@3:

; 144  : 	if (soap_connect(soap, soap_endpoint, soap_action)
; 145  : 	 || soap_envelope_begin_out(soap)
; 146  : 	 || soap_putheader(soap)
; 147  : 	 || soap_body_begin_out(soap)
; 148  : 	 || soap_put___ns1__submitEpochResult(soap, &soap_tmp___ns1__submitEpochResult, "-ns1:submitEpochResult", "")
; 149  : 	 || soap_body_end_out(soap)
; 150  : 	 || soap_envelope_end_out(soap)
; 151  : 	 || soap_end_send(soap))

	mov	eax, DWORD PTR _soap_action$[ebp]
	push	eax
	mov	ecx, DWORD PTR _soap_endpoint$[ebp]
	push	ecx
	mov	edx, DWORD PTR _soap$[ebp]
	push	edx
	call	_soap_connect
	add	esp, 12					; 0000000cH
	test	eax, eax
	jne	SHORT $LN8@soap_call_@3
	mov	eax, DWORD PTR _soap$[ebp]
	push	eax
	call	_soap_envelope_begin_out
	add	esp, 4
	test	eax, eax
	jne	SHORT $LN8@soap_call_@3
	mov	eax, DWORD PTR _soap$[ebp]
	push	eax
	call	_soap_putheader
	add	esp, 4
	test	eax, eax
	jne	SHORT $LN8@soap_call_@3
	mov	eax, DWORD PTR _soap$[ebp]
	push	eax
	call	_soap_body_begin_out
	add	esp, 4
	test	eax, eax
	jne	SHORT $LN8@soap_call_@3
	push	OFFSET ??_C@_00CNPNBAHC@?$AA@
	push	OFFSET ??_C@_0BH@OGGBAHLG@?9ns1?3submitEpochResult?$AA@
	lea	eax, DWORD PTR _soap_tmp___ns1__submitEpochResult$[ebp]
	push	eax
	mov	ecx, DWORD PTR _soap$[ebp]
	push	ecx
	call	?soap_put___ns1__submitEpochResult@@YAHPAUsoap@@PBU__ns1__submitEpochResult@@PBD2@Z ; soap_put___ns1__submitEpochResult
	add	esp, 16					; 00000010H
	test	eax, eax
	jne	SHORT $LN8@soap_call_@3
	mov	eax, DWORD PTR _soap$[ebp]
	push	eax
	call	_soap_body_end_out
	add	esp, 4
	test	eax, eax
	jne	SHORT $LN8@soap_call_@3
	mov	eax, DWORD PTR _soap$[ebp]
	push	eax
	call	_soap_envelope_end_out
	add	esp, 4
	test	eax, eax
	jne	SHORT $LN8@soap_call_@3
	mov	eax, DWORD PTR _soap$[ebp]
	push	eax
	call	_soap_end_send
	add	esp, 4
	test	eax, eax
	je	SHORT $LN9@soap_call_@3
$LN8@soap_call_@3:

; 152  : 		return soap_closesock(soap);

	mov	eax, DWORD PTR _soap$[ebp]
	push	eax
	call	_soap_closesock
	add	esp, 4
	jmp	$LN17@soap_call_@3
$LN9@soap_call_@3:

; 153  : 	if (!ns2__submitEpochResultResponseElement)

	cmp	DWORD PTR _ns2__submitEpochResultResponseElement$[ebp], 0
	jne	SHORT $LN7@soap_call_@3

; 154  : 		return soap_closesock(soap);

	mov	eax, DWORD PTR _soap$[ebp]
	push	eax
	call	_soap_closesock
	add	esp, 4
	jmp	$LN17@soap_call_@3
$LN7@soap_call_@3:

; 155  : 	ns2__submitEpochResultResponseElement->soap_default(soap);

	mov	esi, esp
	mov	eax, DWORD PTR _soap$[ebp]
	push	eax
	mov	ecx, DWORD PTR _ns2__submitEpochResultResponseElement$[ebp]
	mov	edx, DWORD PTR [ecx]
	mov	ecx, DWORD PTR _ns2__submitEpochResultResponseElement$[ebp]
	mov	eax, DWORD PTR [edx+4]
	call	eax
	cmp	esi, esp
	call	__RTC_CheckEsp

; 156  : 	if (soap_begin_recv(soap)
; 157  : 	 || soap_envelope_begin_in(soap)
; 158  : 	 || soap_recv_header(soap)
; 159  : 	 || soap_body_begin_in(soap))

	mov	eax, DWORD PTR _soap$[ebp]
	push	eax
	call	_soap_begin_recv
	add	esp, 4
	test	eax, eax
	jne	SHORT $LN5@soap_call_@3
	mov	eax, DWORD PTR _soap$[ebp]
	push	eax
	call	_soap_envelope_begin_in
	add	esp, 4
	test	eax, eax
	jne	SHORT $LN5@soap_call_@3
	mov	eax, DWORD PTR _soap$[ebp]
	push	eax
	call	_soap_recv_header
	add	esp, 4
	test	eax, eax
	jne	SHORT $LN5@soap_call_@3
	mov	eax, DWORD PTR _soap$[ebp]
	push	eax
	call	_soap_body_begin_in
	add	esp, 4
	test	eax, eax
	je	SHORT $LN6@soap_call_@3
$LN5@soap_call_@3:

; 160  : 		return soap_closesock(soap);

	mov	eax, DWORD PTR _soap$[ebp]
	push	eax
	call	_soap_closesock
	add	esp, 4
	jmp	$LN17@soap_call_@3
$LN6@soap_call_@3:

; 161  : 	ns2__submitEpochResultResponseElement->soap_get(soap, "ns2:submitEpochResultResponseElement", "");

	mov	esi, esp
	push	OFFSET ??_C@_00CNPNBAHC@?$AA@
	push	OFFSET ??_C@_0CF@HCKJIEH@ns2?3submitEpochResultResponseEle@
	mov	eax, DWORD PTR _soap$[ebp]
	push	eax
	mov	ecx, DWORD PTR _ns2__submitEpochResultResponseElement$[ebp]
	mov	edx, DWORD PTR [ecx]
	mov	ecx, DWORD PTR _ns2__submitEpochResultResponseElement$[ebp]
	mov	eax, DWORD PTR [edx+20]
	call	eax
	cmp	esi, esp
	call	__RTC_CheckEsp

; 162  : 	if (soap->error)

	mov	eax, DWORD PTR _soap$[ebp]
	cmp	DWORD PTR [eax+90460], 0
	je	SHORT $LN4@soap_call_@3

; 163  : 	{	if (soap->error == SOAP_TAG_MISMATCH && soap->level == 2)

	mov	eax, DWORD PTR _soap$[ebp]
	cmp	DWORD PTR [eax+90460], 3
	jne	SHORT $LN3@soap_call_@3
	mov	eax, DWORD PTR _soap$[ebp]
	cmp	DWORD PTR [eax+12444], 2
	jne	SHORT $LN3@soap_call_@3

; 164  : 			return soap_recv_fault(soap);

	mov	eax, DWORD PTR _soap$[ebp]
	push	eax
	call	_soap_recv_fault
	add	esp, 4
	jmp	SHORT $LN17@soap_call_@3
$LN3@soap_call_@3:

; 165  : 		return soap_closesock(soap);

	mov	eax, DWORD PTR _soap$[ebp]
	push	eax
	call	_soap_closesock
	add	esp, 4
	jmp	SHORT $LN17@soap_call_@3
$LN4@soap_call_@3:

; 166  : 	}
; 167  : 	if (soap_body_end_in(soap)
; 168  : 	 || soap_envelope_end_in(soap)
; 169  : 	 || soap_end_recv(soap))

	mov	eax, DWORD PTR _soap$[ebp]
	push	eax
	call	_soap_body_end_in
	add	esp, 4
	test	eax, eax
	jne	SHORT $LN1@soap_call_@3
	mov	eax, DWORD PTR _soap$[ebp]
	push	eax
	call	_soap_envelope_end_in
	add	esp, 4
	test	eax, eax
	jne	SHORT $LN1@soap_call_@3
	mov	eax, DWORD PTR _soap$[ebp]
	push	eax
	call	_soap_end_recv
	add	esp, 4
	test	eax, eax
	je	SHORT $LN2@soap_call_@3
$LN1@soap_call_@3:

; 170  : 		return soap_closesock(soap);

	mov	eax, DWORD PTR _soap$[ebp]
	push	eax
	call	_soap_closesock
	add	esp, 4
	jmp	SHORT $LN17@soap_call_@3
$LN2@soap_call_@3:

; 171  : 	return soap_closesock(soap);

	mov	eax, DWORD PTR _soap$[ebp]
	push	eax
	call	_soap_closesock
	add	esp, 4
$LN17@soap_call_@3:

; 172  : }

	push	edx
	mov	ecx, ebp
	push	eax
	lea	edx, DWORD PTR $LN21@soap_call_@3
	call	@_RTC_CheckStackVars@8
	pop	eax
	pop	edx
	pop	edi
	pop	esi
	pop	ebx
	add	esp, 204				; 000000ccH
	cmp	ebp, esp
	call	__RTC_CheckEsp
	mov	esp, ebp
	pop	ebp
	ret	0
	npad	1
$LN21@soap_call_@3:
	DD	1
	DD	$LN20@soap_call_@3
$LN20@soap_call_@3:
	DD	-8					; fffffff8H
	DD	4
	DD	$LN19@soap_call_@3
$LN19@soap_call_@3:
	DB	115					; 00000073H
	DB	111					; 0000006fH
	DB	97					; 00000061H
	DB	112					; 00000070H
	DB	95					; 0000005fH
	DB	116					; 00000074H
	DB	109					; 0000006dH
	DB	112					; 00000070H
	DB	95					; 0000005fH
	DB	95					; 0000005fH
	DB	95					; 0000005fH
	DB	110					; 0000006eH
	DB	115					; 00000073H
	DB	49					; 00000031H
	DB	95					; 0000005fH
	DB	95					; 0000005fH
	DB	115					; 00000073H
	DB	117					; 00000075H
	DB	98					; 00000062H
	DB	109					; 0000006dH
	DB	105					; 00000069H
	DB	116					; 00000074H
	DB	69					; 00000045H
	DB	112					; 00000070H
	DB	111					; 0000006fH
	DB	99					; 00000063H
	DB	104					; 00000068H
	DB	82					; 00000052H
	DB	101					; 00000065H
	DB	115					; 00000073H
	DB	117					; 00000075H
	DB	108					; 0000006cH
	DB	116					; 00000074H
	DB	0
?soap_call___ns1__submitEpochResult@@YAHPAUsoap@@PBD1PAV_ns2__submitEpochResultElement@@PAV_ns2__submitEpochResultResponseElement@@@Z ENDP ; soap_call___ns1__submitEpochResult
_TEXT	ENDS
END
