; Listing generated by Microsoft (R) Optimizing Compiler Version 15.00.30729.01 

	TITLE	c:\Users\CriuS\Documents\Visual Studio 2008\Projects\DRAMsimIIhg\src\reporting\stdsoap2.cpp
	.686P
	.XMM
	include listing.inc
	.model	flat

INCLUDELIB MSVCRTD
INCLUDELIB OLDNAMES

PUBLIC	??_C@_07JJJGGCEE@x?9token?$AA@			; `string'
PUBLIC	??_C@_0L@EPBKNKII@ietf?9token?$AA@		; `string'
PUBLIC	??_C@_06JEFEFGEJ@base64?$AA@			; `string'
PUBLIC	??_C@_0BB@CAHAECFA@quoted?9printable?$AA@	; `string'
PUBLIC	??_C@_06FNFBAEBE@binary?$AA@			; `string'
PUBLIC	??_C@_04DFPGIIHA@8bit?$AA@			; `string'
PUBLIC	??_C@_04LHKGBPKB@7bit?$AA@			; `string'
PUBLIC	??_C@_0BL@GBBFKFHI@HTTP?5Version?5not?5supported?$AA@ ; `string'
PUBLIC	??_C@_0BB@PHMOGCPC@Gateway?5Time?9out?$AA@	; `string'
PUBLIC	??_C@_0BE@NGHLFKBN@Service?5Unavailable?$AA@	; `string'
PUBLIC	??_C@_0M@BNCNLPGM@Bad?5Gateway?$AA@		; `string'
PUBLIC	??_C@_0BA@JGKGKAME@Not?5Implemented?$AA@	; `string'
PUBLIC	??_C@_0BG@NJGANGCC@Internal?5Server?5Error?$AA@	; `string'
PUBLIC	??_C@_0BD@NDMHPAED@Expectation?5Failed?$AA@	; `string'
PUBLIC	??_C@_0CA@KGJNFKJM@Requested?5range?5not?5satisfiable?$AA@ ; `string'
PUBLIC	??_C@_0BH@HLJJIAEN@Unsupported?5Media?5Type?$AA@ ; `string'
PUBLIC	??_C@_0BG@PMALKKB@Request?9URI?5Too?5Large?$AA@	; `string'
PUBLIC	??_C@_0BJ@MMEIEOIG@Request?5Entity?5Too?5Large?$AA@ ; `string'
PUBLIC	??_C@_0BE@BBDBJOM@Precondition?5Failed?$AA@	; `string'
PUBLIC	??_C@_0BA@JCKHPIPI@Length?5Required?$AA@	; `string'
PUBLIC	??_C@_04OKIIBCCG@Gone?$AA@			; `string'
PUBLIC	??_C@_08OJCIFGDF@Conflict?$AA@			; `string'
PUBLIC	??_C@_0BB@GKNJPEJG@Request?5Time?9out?$AA@	; `string'
PUBLIC	??_C@_0BO@ONPAAOGI@Proxy?5Authentication?5Required?$AA@ ; `string'
PUBLIC	??_C@_0P@HHIDFAOI@Not?5Acceptable?$AA@		; `string'
PUBLIC	??_C@_0BD@CCIPIALO@Method?5Not?5Allowed?$AA@	; `string'
PUBLIC	??_C@_09CFCBFJND@Not?5Found?$AA@		; `string'
PUBLIC	??_C@_09LMDIMFJD@Forbidden?$AA@			; `string'
PUBLIC	??_C@_0BB@LMPIHCBH@Payment?5Required?$AA@	; `string'
PUBLIC	??_C@_0N@OOAPMOJA@Unauthorized?$AA@		; `string'
PUBLIC	??_C@_0M@LNAIDEEG@Bad?5Request?$AA@		; `string'
PUBLIC	??_C@_0BD@PJMNAMDM@Temporary?5Redirect?$AA@	; `string'
PUBLIC	??_C@_09JFBGBFIM@Use?5Proxy?$AA@		; `string'
PUBLIC	??_C@_0N@IFEFAIJB@Not?5Modified?$AA@		; `string'
PUBLIC	??_C@_09FAMPMKIP@See?5Other?$AA@		; `string'
PUBLIC	??_C@_05JDGHEPJG@Found?$AA@			; `string'
PUBLIC	??_C@_0BC@BPBCNFPI@Moved?5Permanently?$AA@	; `string'
PUBLIC	??_C@_0BB@HLFEHKPE@Multiple?5Choices?$AA@	; `string'
PUBLIC	??_C@_0BA@NNLNHGMN@Partial?5Content?$AA@	; `string'
PUBLIC	??_C@_0O@BFFLKCLE@Reset?5Content?$AA@		; `string'
PUBLIC	??_C@_0L@FDPJCNGK@No?5Content?$AA@		; `string'
PUBLIC	??_C@_0BO@NKBPKPBI@Non?9Authoritative?5Information?$AA@ ; `string'
PUBLIC	??_C@_08DOBOODLA@Accepted?$AA@			; `string'
PUBLIC	??_C@_07BBIDHECN@Created?$AA@			; `string'
PUBLIC	??_C@_02GIPFHKNO@OK?$AA@			; `string'
PUBLIC	??_C@_0L@GGLPAOMP@No?5Address?$AA@		; `string'
PUBLIC	??_C@_07NNGPDNPG@No?5Data?$AA@			; `string'
PUBLIC	??_C@_0M@IFLIHMFH@No?5Recovery?$AA@		; `string'
PUBLIC	??_C@_09NOIJLNLL@Try?5Again?$AA@		; `string'
PUBLIC	??_C@_0P@CAFMJNJH@Host?5not?5found?$AA@		; `string'
PUBLIC	??_C@_04BILJKGCK@yuml?$AA@			; `string'
PUBLIC	??_C@_05LIICDAEF@thorn?$AA@			; `string'
PUBLIC	??_C@_06BBMKGLNL@yacute?$AA@			; `string'
PUBLIC	??_C@_04NNEJELCL@uuml?$AA@			; `string'
PUBLIC	??_C@_05JEMLPDGA@ucirc?$AA@			; `string'
PUBLIC	??_C@_06NGGKABKP@uacute?$AA@			; `string'
PUBLIC	??_C@_06IBEMEICG@ugrave?$AA@			; `string'
PUBLIC	??_C@_06LGBAFOGO@oslash?$AA@			; `string'
PUBLIC	??_C@_06FFHJEHBN@divide?$AA@			; `string'
PUBLIC	??_C@_04PHBJMEAI@ouml?$AA@			; `string'
PUBLIC	??_C@_06DNFIPCMD@otilde?$AA@			; `string'
PUBLIC	??_C@_05DGIGNCJN@ocirc?$AA@			; `string'
PUBLIC	??_C@_06BFMEMCCP@oacute?$AA@			; `string'
PUBLIC	??_C@_06ECOCILKG@ograve?$AA@			; `string'
PUBLIC	??_C@_06JLCPPJHH@ntilde?$AA@			; `string'
PUBLIC	??_C@_03CMJPAGPB@eth?$AA@			; `string'
PUBLIC	??_C@_04HIFJDBKI@iuml?$AA@			; `string'
PUBLIC	??_C@_05OANPDBIA@icirc?$AA@			; `string'
PUBLIC	??_C@_06HGBEPHBF@iacute?$AA@			; `string'
PUBLIC	??_C@_06CBDCLOJM@igrave?$AA@			; `string'
PUBLIC	??_C@_04LNKJNMKJ@euml?$AA@			; `string'
PUBLIC	??_C@_05JHBNPBPL@ecirc?$AA@			; `string'
PUBLIC	??_C@_06LBLEJNGB@eacute?$AA@			; `string'
PUBLIC	??_C@_06OGJCNEOI@egrave?$AA@			; `string'
PUBLIC	??_C@_06DNHFEHGA@ccedil?$AA@			; `string'
PUBLIC	??_C@_05MAANDPOK@aelig?$AA@			; `string'
PUBLIC	??_C@_05CAFMJCMP@aring?$AA@			; `string'
PUBLIC	??_C@_04EICJHKGJ@auml?$AA@			; `string'
PUBLIC	??_C@_06GNGHIJJO@atilde?$AA@			; `string'
PUBLIC	??_C@_05MIMLDON@acirc?$AA@			; `string'
PUBLIC	??_C@_06EFPLLJHC@aacute?$AA@			; `string'
PUBLIC	??_C@_06BCNNPAPL@agrave?$AA@			; `string'
PUBLIC	??_C@_05GMKDJMCJ@szlig?$AA@			; `string'
PUBLIC	??_C@_05HDBENHAL@THORN?$AA@			; `string'
PUBLIC	??_C@_06NOHHFCEH@Yacute?$AA@			; `string'
PUBLIC	??_C@_04BMIIGECP@Uuml?$AA@			; `string'
PUBLIC	??_C@_05JDGHPGFG@Ucirc?$AA@			; `string'
PUBLIC	??_C@_06BJNHDIDD@Uacute?$AA@			; `string'
PUBLIC	??_C@_06EOPBHBLK@Ugrave?$AA@			; `string'
PUBLIC	??_C@_06HJKNGHPC@Oslash?$AA@			; `string'
PUBLIC	??_C@_05MJOOAIJH@times?$AA@			; `string'
PUBLIC	??_C@_04DGNIOLAM@Ouml?$AA@			; `string'
PUBLIC	??_C@_06PCOFMLFP@Otilde?$AA@			; `string'
PUBLIC	??_C@_05DBCKNHKL@Ocirc?$AA@			; `string'
PUBLIC	??_C@_06NKHJPLLD@Oacute?$AA@			; `string'
PUBLIC	??_C@_06INFPLCDK@Ograve?$AA@			; `string'
PUBLIC	??_C@_06FEJCMAOL@Ntilde?$AA@			; `string'
PUBLIC	??_C@_03CBGEMLIN@ETH?$AA@			; `string'
PUBLIC	??_C@_04LJJIBOKM@Iuml?$AA@			; `string'
PUBLIC	??_C@_05OHHDDELG@Icirc?$AA@			; `string'
PUBLIC	??_C@_06LJKJMOIJ@Iacute?$AA@			; `string'
PUBLIC	??_C@_06OOIPIHAA@Igrave?$AA@			; `string'
PUBLIC	??_C@_04HMGIPDKN@Euml?$AA@			; `string'
PUBLIC	??_C@_05JALBPEMN@Ecirc?$AA@			; `string'
PUBLIC	??_C@_06HOAJKEPN@Eacute?$AA@			; `string'
PUBLIC	??_C@_06CJCPONHE@Egrave?$AA@			; `string'
PUBLIC	??_C@_06PCMIHOPM@Ccedil?$AA@			; `string'
PUBLIC	??_C@_05GGABFNI@AElig?$AA@			; `string'
PUBLIC	??_C@_05CHPAJHPJ@Aring?$AA@			; `string'
PUBLIC	??_C@_04IJOIFFGN@Auml?$AA@			; `string'
PUBLIC	??_C@_06KCNKLAAC@Atilde?$AA@			; `string'
PUBLIC	??_C@_05LCALGNL@Acirc?$AA@			; `string'
PUBLIC	??_C@_06IKEGIAOO@Aacute?$AA@			; `string'
PUBLIC	??_C@_06NNGAMJGH@Agrave?$AA@			; `string'
PUBLIC	??_C@_06JMONPFKG@iquest?$AA@			; `string'
PUBLIC	??_C@_06NMNJFLLK@frac34?$AA@			; `string'
PUBLIC	??_C@_06IJAHCIFC@frac12?$AA@			; `string'
PUBLIC	??_C@_06NPFNIPNE@frac14?$AA@			; `string'
PUBLIC	??_C@_05MPFJLGEB@raquo?$AA@			; `string'
PUBLIC	??_C@_04HMAEPGHP@ordm?$AA@			; `string'
PUBLIC	??_C@_04EJOCKNLB@sup1?$AA@			; `string'
PUBLIC	??_C@_05KLIFGPMF@cedil?$AA@			; `string'
PUBLIC	??_C@_06HHCHNCAA@middot?$AA@			; `string'
PUBLIC	??_C@_04GIAGJOJD@para?$AA@			; `string'
PUBLIC	??_C@_05PCPGMEFP@micro?$AA@			; `string'
PUBLIC	??_C@_05EEJEIAPO@acute?$AA@			; `string'
PUBLIC	??_C@_04HLNEMPDD@sup3?$AA@			; `string'
PUBLIC	??_C@_04GCMPPOHC@sup2?$AA@			; `string'
PUBLIC	??_C@_06CAEEBBM@plusmn?$AA@			; `string'
PUBLIC	??_C@_03OFPLEBM@deg?$AA@			; `string'
PUBLIC	??_C@_04IMHNEFHF@macr?$AA@			; `string'
PUBLIC	??_C@_03HLCNLMFP@reg?$AA@			; `string'
PUBLIC	??_C@_03BPAIHHLG@shy?$AA@			; `string'
PUBLIC	??_C@_03NJKJADM@not?$AA@			; `string'
PUBLIC	??_C@_05PGIFNFKK@laquo?$AA@			; `string'
PUBLIC	??_C@_04JPPACPLE@ordf?$AA@			; `string'
PUBLIC	??_C@_04COAGEIMF@copy?$AA@			; `string'
PUBLIC	??_C@_03LBNAMJF@uml?$AA@			; `string'
PUBLIC	??_C@_04IKJFFMEH@sect?$AA@			; `string'
PUBLIC	??_C@_06ILPBEBAD@brvbar?$AA@			; `string'
PUBLIC	??_C@_03HNOOIABH@yen?$AA@			; `string'
PUBLIC	??_C@_06HEGEHONB@curren?$AA@			; `string'
PUBLIC	??_C@_05EBEEKLCG@pound?$AA@			; `string'
PUBLIC	??_C@_04OCKNFIJG@cent?$AA@			; `string'
PUBLIC	??_C@_05BNEGCBFC@iexcl?$AA@			; `string'
PUBLIC	??_C@_04PHHIFBLJ@nbsp?$AA@			; `string'
PUBLIC	??_C@_0P@GHFPNOJB@bad?5allocation?$AA@		; `string'
PUBLIC	?_Value@?$_Is_swap_move@U_Swap_move_tag@std@@@std@@2_NB ; std::_Is_swap_move<std::_Swap_move_tag>::_Value
PUBLIC	?collate@?$_Locbase@H@std@@2HB			; std::_Locbase<int>::collate
PUBLIC	?ctype@?$_Locbase@H@std@@2HB			; std::_Locbase<int>::ctype
PUBLIC	?monetary@?$_Locbase@H@std@@2HB			; std::_Locbase<int>::monetary
PUBLIC	?numeric@?$_Locbase@H@std@@2HB			; std::_Locbase<int>::numeric
PUBLIC	?time@?$_Locbase@H@std@@2HB			; std::_Locbase<int>::time
PUBLIC	?messages@?$_Locbase@H@std@@2HB			; std::_Locbase<int>::messages
PUBLIC	?all@?$_Locbase@H@std@@2HB			; std::_Locbase<int>::all
PUBLIC	?none@?$_Locbase@H@std@@2HB			; std::_Locbase<int>::none
PUBLIC	?skipws@?$_Iosb@H@std@@2W4_Fmtflags@12@B	; std::_Iosb<int>::skipws
PUBLIC	?unitbuf@?$_Iosb@H@std@@2W4_Fmtflags@12@B	; std::_Iosb<int>::unitbuf
PUBLIC	?uppercase@?$_Iosb@H@std@@2W4_Fmtflags@12@B	; std::_Iosb<int>::uppercase
PUBLIC	?showbase@?$_Iosb@H@std@@2W4_Fmtflags@12@B	; std::_Iosb<int>::showbase
PUBLIC	?showpoint@?$_Iosb@H@std@@2W4_Fmtflags@12@B	; std::_Iosb<int>::showpoint
PUBLIC	?showpos@?$_Iosb@H@std@@2W4_Fmtflags@12@B	; std::_Iosb<int>::showpos
PUBLIC	?left@?$_Iosb@H@std@@2W4_Fmtflags@12@B		; std::_Iosb<int>::left
PUBLIC	?right@?$_Iosb@H@std@@2W4_Fmtflags@12@B		; std::_Iosb<int>::right
PUBLIC	?internal@?$_Iosb@H@std@@2W4_Fmtflags@12@B	; std::_Iosb<int>::internal
PUBLIC	?dec@?$_Iosb@H@std@@2W4_Fmtflags@12@B		; std::_Iosb<int>::dec
PUBLIC	?oct@?$_Iosb@H@std@@2W4_Fmtflags@12@B		; std::_Iosb<int>::oct
PUBLIC	?hex@?$_Iosb@H@std@@2W4_Fmtflags@12@B		; std::_Iosb<int>::hex
PUBLIC	?scientific@?$_Iosb@H@std@@2W4_Fmtflags@12@B	; std::_Iosb<int>::scientific
PUBLIC	?fixed@?$_Iosb@H@std@@2W4_Fmtflags@12@B		; std::_Iosb<int>::fixed
PUBLIC	?hexfloat@?$_Iosb@H@std@@2W4_Fmtflags@12@B	; std::_Iosb<int>::hexfloat
PUBLIC	?boolalpha@?$_Iosb@H@std@@2W4_Fmtflags@12@B	; std::_Iosb<int>::boolalpha
PUBLIC	?_Stdio@?$_Iosb@H@std@@2W4_Fmtflags@12@B	; std::_Iosb<int>::_Stdio
PUBLIC	?adjustfield@?$_Iosb@H@std@@2W4_Fmtflags@12@B	; std::_Iosb<int>::adjustfield
PUBLIC	?basefield@?$_Iosb@H@std@@2W4_Fmtflags@12@B	; std::_Iosb<int>::basefield
PUBLIC	?floatfield@?$_Iosb@H@std@@2W4_Fmtflags@12@B	; std::_Iosb<int>::floatfield
PUBLIC	?goodbit@?$_Iosb@H@std@@2W4_Iostate@12@B	; std::_Iosb<int>::goodbit
PUBLIC	?eofbit@?$_Iosb@H@std@@2W4_Iostate@12@B		; std::_Iosb<int>::eofbit
PUBLIC	?failbit@?$_Iosb@H@std@@2W4_Iostate@12@B	; std::_Iosb<int>::failbit
PUBLIC	?badbit@?$_Iosb@H@std@@2W4_Iostate@12@B		; std::_Iosb<int>::badbit
PUBLIC	?_Hardfail@?$_Iosb@H@std@@2W4_Iostate@12@B	; std::_Iosb<int>::_Hardfail
PUBLIC	?in@?$_Iosb@H@std@@2W4_Openmode@12@B		; std::_Iosb<int>::in
PUBLIC	?out@?$_Iosb@H@std@@2W4_Openmode@12@B		; std::_Iosb<int>::out
PUBLIC	?ate@?$_Iosb@H@std@@2W4_Openmode@12@B		; std::_Iosb<int>::ate
PUBLIC	?app@?$_Iosb@H@std@@2W4_Openmode@12@B		; std::_Iosb<int>::app
PUBLIC	?trunc@?$_Iosb@H@std@@2W4_Openmode@12@B		; std::_Iosb<int>::trunc
PUBLIC	?_Nocreate@?$_Iosb@H@std@@2W4_Openmode@12@B	; std::_Iosb<int>::_Nocreate
PUBLIC	?_Noreplace@?$_Iosb@H@std@@2W4_Openmode@12@B	; std::_Iosb<int>::_Noreplace
PUBLIC	?binary@?$_Iosb@H@std@@2W4_Openmode@12@B	; std::_Iosb<int>::binary
PUBLIC	?beg@?$_Iosb@H@std@@2W4_Seekdir@12@B		; std::_Iosb<int>::beg
PUBLIC	?cur@?$_Iosb@H@std@@2W4_Seekdir@12@B		; std::_Iosb<int>::cur
PUBLIC	?end@?$_Iosb@H@std@@2W4_Seekdir@12@B		; std::_Iosb<int>::end
PUBLIC	_soap_double_nan
_BSS	SEGMENT
_tcp_done DD	01H DUP (?)
_BSS	ENDS
;	COMDAT ??_C@_07JJJGGCEE@x?9token?$AA@
CONST	SEGMENT
??_C@_07JJJGGCEE@x?9token?$AA@ DB 'x-token', 00H	; `string'
CONST	ENDS
;	COMDAT ??_C@_0L@EPBKNKII@ietf?9token?$AA@
CONST	SEGMENT
??_C@_0L@EPBKNKII@ietf?9token?$AA@ DB 'ietf-token', 00H	; `string'
CONST	ENDS
;	COMDAT ??_C@_06JEFEFGEJ@base64?$AA@
CONST	SEGMENT
??_C@_06JEFEFGEJ@base64?$AA@ DB 'base64', 00H		; `string'
CONST	ENDS
;	COMDAT ??_C@_0BB@CAHAECFA@quoted?9printable?$AA@
CONST	SEGMENT
??_C@_0BB@CAHAECFA@quoted?9printable?$AA@ DB 'quoted-printable', 00H ; `string'
CONST	ENDS
;	COMDAT ??_C@_06FNFBAEBE@binary?$AA@
CONST	SEGMENT
??_C@_06FNFBAEBE@binary?$AA@ DB 'binary', 00H		; `string'
CONST	ENDS
;	COMDAT ??_C@_04DFPGIIHA@8bit?$AA@
CONST	SEGMENT
??_C@_04DFPGIIHA@8bit?$AA@ DB '8bit', 00H		; `string'
CONST	ENDS
;	COMDAT ??_C@_04LHKGBPKB@7bit?$AA@
CONST	SEGMENT
??_C@_04LHKGBPKB@7bit?$AA@ DB '7bit', 00H		; `string'
CONST	ENDS
;	COMDAT ??_C@_0BL@GBBFKFHI@HTTP?5Version?5not?5supported?$AA@
CONST	SEGMENT
??_C@_0BL@GBBFKFHI@HTTP?5Version?5not?5supported?$AA@ DB 'HTTP Version no'
	DB	't supported', 00H				; `string'
CONST	ENDS
;	COMDAT ??_C@_0BB@PHMOGCPC@Gateway?5Time?9out?$AA@
CONST	SEGMENT
??_C@_0BB@PHMOGCPC@Gateway?5Time?9out?$AA@ DB 'Gateway Time-out', 00H ; `string'
CONST	ENDS
;	COMDAT ??_C@_0BE@NGHLFKBN@Service?5Unavailable?$AA@
CONST	SEGMENT
??_C@_0BE@NGHLFKBN@Service?5Unavailable?$AA@ DB 'Service Unavailable', 00H ; `string'
CONST	ENDS
;	COMDAT ??_C@_0M@BNCNLPGM@Bad?5Gateway?$AA@
CONST	SEGMENT
??_C@_0M@BNCNLPGM@Bad?5Gateway?$AA@ DB 'Bad Gateway', 00H ; `string'
CONST	ENDS
;	COMDAT ??_C@_0BA@JGKGKAME@Not?5Implemented?$AA@
CONST	SEGMENT
??_C@_0BA@JGKGKAME@Not?5Implemented?$AA@ DB 'Not Implemented', 00H ; `string'
CONST	ENDS
;	COMDAT ??_C@_0BG@NJGANGCC@Internal?5Server?5Error?$AA@
CONST	SEGMENT
??_C@_0BG@NJGANGCC@Internal?5Server?5Error?$AA@ DB 'Internal Server Error'
	DB	00H						; `string'
CONST	ENDS
;	COMDAT ??_C@_0BD@NDMHPAED@Expectation?5Failed?$AA@
CONST	SEGMENT
??_C@_0BD@NDMHPAED@Expectation?5Failed?$AA@ DB 'Expectation Failed', 00H ; `string'
CONST	ENDS
;	COMDAT ??_C@_0CA@KGJNFKJM@Requested?5range?5not?5satisfiable?$AA@
CONST	SEGMENT
??_C@_0CA@KGJNFKJM@Requested?5range?5not?5satisfiable?$AA@ DB 'Requested '
	DB	'range not satisfiable', 00H			; `string'
CONST	ENDS
;	COMDAT ??_C@_0BH@HLJJIAEN@Unsupported?5Media?5Type?$AA@
CONST	SEGMENT
??_C@_0BH@HLJJIAEN@Unsupported?5Media?5Type?$AA@ DB 'Unsupported Media Ty'
	DB	'pe', 00H					; `string'
CONST	ENDS
;	COMDAT ??_C@_0BG@PMALKKB@Request?9URI?5Too?5Large?$AA@
CONST	SEGMENT
??_C@_0BG@PMALKKB@Request?9URI?5Too?5Large?$AA@ DB 'Request-URI Too Large'
	DB	00H						; `string'
CONST	ENDS
;	COMDAT ??_C@_0BJ@MMEIEOIG@Request?5Entity?5Too?5Large?$AA@
CONST	SEGMENT
??_C@_0BJ@MMEIEOIG@Request?5Entity?5Too?5Large?$AA@ DB 'Request Entity To'
	DB	'o Large', 00H				; `string'
CONST	ENDS
;	COMDAT ??_C@_0BE@BBDBJOM@Precondition?5Failed?$AA@
CONST	SEGMENT
??_C@_0BE@BBDBJOM@Precondition?5Failed?$AA@ DB 'Precondition Failed', 00H ; `string'
CONST	ENDS
;	COMDAT ??_C@_0BA@JCKHPIPI@Length?5Required?$AA@
CONST	SEGMENT
??_C@_0BA@JCKHPIPI@Length?5Required?$AA@ DB 'Length Required', 00H ; `string'
CONST	ENDS
;	COMDAT ??_C@_04OKIIBCCG@Gone?$AA@
CONST	SEGMENT
??_C@_04OKIIBCCG@Gone?$AA@ DB 'Gone', 00H		; `string'
CONST	ENDS
;	COMDAT ??_C@_08OJCIFGDF@Conflict?$AA@
CONST	SEGMENT
??_C@_08OJCIFGDF@Conflict?$AA@ DB 'Conflict', 00H	; `string'
CONST	ENDS
;	COMDAT ??_C@_0BB@GKNJPEJG@Request?5Time?9out?$AA@
CONST	SEGMENT
??_C@_0BB@GKNJPEJG@Request?5Time?9out?$AA@ DB 'Request Time-out', 00H ; `string'
CONST	ENDS
;	COMDAT ??_C@_0BO@ONPAAOGI@Proxy?5Authentication?5Required?$AA@
CONST	SEGMENT
??_C@_0BO@ONPAAOGI@Proxy?5Authentication?5Required?$AA@ DB 'Proxy Authent'
	DB	'ication Required', 00H			; `string'
CONST	ENDS
;	COMDAT ??_C@_0P@HHIDFAOI@Not?5Acceptable?$AA@
CONST	SEGMENT
??_C@_0P@HHIDFAOI@Not?5Acceptable?$AA@ DB 'Not Acceptable', 00H ; `string'
CONST	ENDS
;	COMDAT ??_C@_0BD@CCIPIALO@Method?5Not?5Allowed?$AA@
CONST	SEGMENT
??_C@_0BD@CCIPIALO@Method?5Not?5Allowed?$AA@ DB 'Method Not Allowed', 00H ; `string'
CONST	ENDS
;	COMDAT ??_C@_09CFCBFJND@Not?5Found?$AA@
CONST	SEGMENT
??_C@_09CFCBFJND@Not?5Found?$AA@ DB 'Not Found', 00H	; `string'
CONST	ENDS
;	COMDAT ??_C@_09LMDIMFJD@Forbidden?$AA@
CONST	SEGMENT
??_C@_09LMDIMFJD@Forbidden?$AA@ DB 'Forbidden', 00H	; `string'
CONST	ENDS
;	COMDAT ??_C@_0BB@LMPIHCBH@Payment?5Required?$AA@
CONST	SEGMENT
??_C@_0BB@LMPIHCBH@Payment?5Required?$AA@ DB 'Payment Required', 00H ; `string'
CONST	ENDS
;	COMDAT ??_C@_0N@OOAPMOJA@Unauthorized?$AA@
CONST	SEGMENT
??_C@_0N@OOAPMOJA@Unauthorized?$AA@ DB 'Unauthorized', 00H ; `string'
CONST	ENDS
;	COMDAT ??_C@_0M@LNAIDEEG@Bad?5Request?$AA@
CONST	SEGMENT
??_C@_0M@LNAIDEEG@Bad?5Request?$AA@ DB 'Bad Request', 00H ; `string'
CONST	ENDS
;	COMDAT ??_C@_0BD@PJMNAMDM@Temporary?5Redirect?$AA@
CONST	SEGMENT
??_C@_0BD@PJMNAMDM@Temporary?5Redirect?$AA@ DB 'Temporary Redirect', 00H ; `string'
CONST	ENDS
;	COMDAT ??_C@_09JFBGBFIM@Use?5Proxy?$AA@
CONST	SEGMENT
??_C@_09JFBGBFIM@Use?5Proxy?$AA@ DB 'Use Proxy', 00H	; `string'
CONST	ENDS
;	COMDAT ??_C@_0N@IFEFAIJB@Not?5Modified?$AA@
CONST	SEGMENT
??_C@_0N@IFEFAIJB@Not?5Modified?$AA@ DB 'Not Modified', 00H ; `string'
CONST	ENDS
;	COMDAT ??_C@_09FAMPMKIP@See?5Other?$AA@
CONST	SEGMENT
??_C@_09FAMPMKIP@See?5Other?$AA@ DB 'See Other', 00H	; `string'
CONST	ENDS
;	COMDAT ??_C@_05JDGHEPJG@Found?$AA@
CONST	SEGMENT
??_C@_05JDGHEPJG@Found?$AA@ DB 'Found', 00H		; `string'
CONST	ENDS
;	COMDAT ??_C@_0BC@BPBCNFPI@Moved?5Permanently?$AA@
CONST	SEGMENT
??_C@_0BC@BPBCNFPI@Moved?5Permanently?$AA@ DB 'Moved Permanently', 00H ; `string'
CONST	ENDS
;	COMDAT ??_C@_0BB@HLFEHKPE@Multiple?5Choices?$AA@
CONST	SEGMENT
??_C@_0BB@HLFEHKPE@Multiple?5Choices?$AA@ DB 'Multiple Choices', 00H ; `string'
CONST	ENDS
;	COMDAT ??_C@_0BA@NNLNHGMN@Partial?5Content?$AA@
CONST	SEGMENT
??_C@_0BA@NNLNHGMN@Partial?5Content?$AA@ DB 'Partial Content', 00H ; `string'
CONST	ENDS
;	COMDAT ??_C@_0O@BFFLKCLE@Reset?5Content?$AA@
CONST	SEGMENT
??_C@_0O@BFFLKCLE@Reset?5Content?$AA@ DB 'Reset Content', 00H ; `string'
CONST	ENDS
;	COMDAT ??_C@_0L@FDPJCNGK@No?5Content?$AA@
CONST	SEGMENT
??_C@_0L@FDPJCNGK@No?5Content?$AA@ DB 'No Content', 00H	; `string'
CONST	ENDS
;	COMDAT ??_C@_0BO@NKBPKPBI@Non?9Authoritative?5Information?$AA@
CONST	SEGMENT
??_C@_0BO@NKBPKPBI@Non?9Authoritative?5Information?$AA@ DB 'Non-Authorita'
	DB	'tive Information', 00H			; `string'
CONST	ENDS
;	COMDAT ??_C@_08DOBOODLA@Accepted?$AA@
CONST	SEGMENT
??_C@_08DOBOODLA@Accepted?$AA@ DB 'Accepted', 00H	; `string'
CONST	ENDS
;	COMDAT ??_C@_07BBIDHECN@Created?$AA@
CONST	SEGMENT
??_C@_07BBIDHECN@Created?$AA@ DB 'Created', 00H		; `string'
CONST	ENDS
;	COMDAT ??_C@_02GIPFHKNO@OK?$AA@
CONST	SEGMENT
??_C@_02GIPFHKNO@OK?$AA@ DB 'OK', 00H			; `string'
CONST	ENDS
;	COMDAT ??_C@_0L@GGLPAOMP@No?5Address?$AA@
CONST	SEGMENT
??_C@_0L@GGLPAOMP@No?5Address?$AA@ DB 'No Address', 00H	; `string'
CONST	ENDS
;	COMDAT ??_C@_07NNGPDNPG@No?5Data?$AA@
CONST	SEGMENT
??_C@_07NNGPDNPG@No?5Data?$AA@ DB 'No Data', 00H	; `string'
CONST	ENDS
;	COMDAT ??_C@_0M@IFLIHMFH@No?5Recovery?$AA@
CONST	SEGMENT
??_C@_0M@IFLIHMFH@No?5Recovery?$AA@ DB 'No Recovery', 00H ; `string'
CONST	ENDS
;	COMDAT ??_C@_09NOIJLNLL@Try?5Again?$AA@
CONST	SEGMENT
??_C@_09NOIJLNLL@Try?5Again?$AA@ DB 'Try Again', 00H	; `string'
CONST	ENDS
;	COMDAT ??_C@_0P@CAFMJNJH@Host?5not?5found?$AA@
CONST	SEGMENT
??_C@_0P@CAFMJNJH@Host?5not?5found?$AA@ DB 'Host not found', 00H ; `string'
CONST	ENDS
;	COMDAT ??_C@_04BILJKGCK@yuml?$AA@
CONST	SEGMENT
??_C@_04BILJKGCK@yuml?$AA@ DB 'yuml', 00H		; `string'
CONST	ENDS
;	COMDAT ??_C@_05LIICDAEF@thorn?$AA@
CONST	SEGMENT
??_C@_05LIICDAEF@thorn?$AA@ DB 'thorn', 00H		; `string'
CONST	ENDS
;	COMDAT ??_C@_06BBMKGLNL@yacute?$AA@
CONST	SEGMENT
??_C@_06BBMKGLNL@yacute?$AA@ DB 'yacute', 00H		; `string'
CONST	ENDS
;	COMDAT ??_C@_04NNEJELCL@uuml?$AA@
CONST	SEGMENT
??_C@_04NNEJELCL@uuml?$AA@ DB 'uuml', 00H		; `string'
CONST	ENDS
;	COMDAT ??_C@_05JEMLPDGA@ucirc?$AA@
CONST	SEGMENT
??_C@_05JEMLPDGA@ucirc?$AA@ DB 'ucirc', 00H		; `string'
CONST	ENDS
;	COMDAT ??_C@_06NGGKABKP@uacute?$AA@
CONST	SEGMENT
??_C@_06NGGKABKP@uacute?$AA@ DB 'uacute', 00H		; `string'
CONST	ENDS
;	COMDAT ??_C@_06IBEMEICG@ugrave?$AA@
CONST	SEGMENT
??_C@_06IBEMEICG@ugrave?$AA@ DB 'ugrave', 00H		; `string'
CONST	ENDS
;	COMDAT ??_C@_06LGBAFOGO@oslash?$AA@
CONST	SEGMENT
??_C@_06LGBAFOGO@oslash?$AA@ DB 'oslash', 00H		; `string'
CONST	ENDS
;	COMDAT ??_C@_06FFHJEHBN@divide?$AA@
CONST	SEGMENT
??_C@_06FFHJEHBN@divide?$AA@ DB 'divide', 00H		; `string'
CONST	ENDS
;	COMDAT ??_C@_04PHBJMEAI@ouml?$AA@
CONST	SEGMENT
??_C@_04PHBJMEAI@ouml?$AA@ DB 'ouml', 00H		; `string'
CONST	ENDS
;	COMDAT ??_C@_06DNFIPCMD@otilde?$AA@
CONST	SEGMENT
??_C@_06DNFIPCMD@otilde?$AA@ DB 'otilde', 00H		; `string'
CONST	ENDS
;	COMDAT ??_C@_05DGIGNCJN@ocirc?$AA@
CONST	SEGMENT
??_C@_05DGIGNCJN@ocirc?$AA@ DB 'ocirc', 00H		; `string'
CONST	ENDS
;	COMDAT ??_C@_06BFMEMCCP@oacute?$AA@
CONST	SEGMENT
??_C@_06BFMEMCCP@oacute?$AA@ DB 'oacute', 00H		; `string'
CONST	ENDS
;	COMDAT ??_C@_06ECOCILKG@ograve?$AA@
CONST	SEGMENT
??_C@_06ECOCILKG@ograve?$AA@ DB 'ograve', 00H		; `string'
CONST	ENDS
;	COMDAT ??_C@_06JLCPPJHH@ntilde?$AA@
CONST	SEGMENT
??_C@_06JLCPPJHH@ntilde?$AA@ DB 'ntilde', 00H		; `string'
CONST	ENDS
;	COMDAT ??_C@_03CMJPAGPB@eth?$AA@
CONST	SEGMENT
??_C@_03CMJPAGPB@eth?$AA@ DB 'eth', 00H			; `string'
CONST	ENDS
;	COMDAT ??_C@_04HIFJDBKI@iuml?$AA@
CONST	SEGMENT
??_C@_04HIFJDBKI@iuml?$AA@ DB 'iuml', 00H		; `string'
CONST	ENDS
;	COMDAT ??_C@_05OANPDBIA@icirc?$AA@
CONST	SEGMENT
??_C@_05OANPDBIA@icirc?$AA@ DB 'icirc', 00H		; `string'
CONST	ENDS
;	COMDAT ??_C@_06HGBEPHBF@iacute?$AA@
CONST	SEGMENT
??_C@_06HGBEPHBF@iacute?$AA@ DB 'iacute', 00H		; `string'
CONST	ENDS
;	COMDAT ??_C@_06CBDCLOJM@igrave?$AA@
CONST	SEGMENT
??_C@_06CBDCLOJM@igrave?$AA@ DB 'igrave', 00H		; `string'
CONST	ENDS
;	COMDAT ??_C@_04LNKJNMKJ@euml?$AA@
CONST	SEGMENT
??_C@_04LNKJNMKJ@euml?$AA@ DB 'euml', 00H		; `string'
CONST	ENDS
;	COMDAT ??_C@_05JHBNPBPL@ecirc?$AA@
CONST	SEGMENT
??_C@_05JHBNPBPL@ecirc?$AA@ DB 'ecirc', 00H		; `string'
CONST	ENDS
;	COMDAT ??_C@_06LBLEJNGB@eacute?$AA@
CONST	SEGMENT
??_C@_06LBLEJNGB@eacute?$AA@ DB 'eacute', 00H		; `string'
CONST	ENDS
;	COMDAT ??_C@_06OGJCNEOI@egrave?$AA@
CONST	SEGMENT
??_C@_06OGJCNEOI@egrave?$AA@ DB 'egrave', 00H		; `string'
CONST	ENDS
;	COMDAT ??_C@_06DNHFEHGA@ccedil?$AA@
CONST	SEGMENT
??_C@_06DNHFEHGA@ccedil?$AA@ DB 'ccedil', 00H		; `string'
CONST	ENDS
;	COMDAT ??_C@_05MAANDPOK@aelig?$AA@
CONST	SEGMENT
??_C@_05MAANDPOK@aelig?$AA@ DB 'aelig', 00H		; `string'
CONST	ENDS
;	COMDAT ??_C@_05CAFMJCMP@aring?$AA@
CONST	SEGMENT
??_C@_05CAFMJCMP@aring?$AA@ DB 'aring', 00H		; `string'
CONST	ENDS
;	COMDAT ??_C@_04EICJHKGJ@auml?$AA@
CONST	SEGMENT
??_C@_04EICJHKGJ@auml?$AA@ DB 'auml', 00H		; `string'
CONST	ENDS
;	COMDAT ??_C@_06GNGHIJJO@atilde?$AA@
CONST	SEGMENT
??_C@_06GNGHIJJO@atilde?$AA@ DB 'atilde', 00H		; `string'
CONST	ENDS
;	COMDAT ??_C@_05MIMLDON@acirc?$AA@
CONST	SEGMENT
??_C@_05MIMLDON@acirc?$AA@ DB 'acirc', 00H		; `string'
CONST	ENDS
;	COMDAT ??_C@_06EFPLLJHC@aacute?$AA@
CONST	SEGMENT
??_C@_06EFPLLJHC@aacute?$AA@ DB 'aacute', 00H		; `string'
CONST	ENDS
;	COMDAT ??_C@_06BCNNPAPL@agrave?$AA@
CONST	SEGMENT
??_C@_06BCNNPAPL@agrave?$AA@ DB 'agrave', 00H		; `string'
CONST	ENDS
;	COMDAT ??_C@_05GMKDJMCJ@szlig?$AA@
CONST	SEGMENT
??_C@_05GMKDJMCJ@szlig?$AA@ DB 'szlig', 00H		; `string'
CONST	ENDS
;	COMDAT ??_C@_05HDBENHAL@THORN?$AA@
CONST	SEGMENT
??_C@_05HDBENHAL@THORN?$AA@ DB 'THORN', 00H		; `string'
CONST	ENDS
;	COMDAT ??_C@_06NOHHFCEH@Yacute?$AA@
CONST	SEGMENT
??_C@_06NOHHFCEH@Yacute?$AA@ DB 'Yacute', 00H		; `string'
CONST	ENDS
;	COMDAT ??_C@_04BMIIGECP@Uuml?$AA@
CONST	SEGMENT
??_C@_04BMIIGECP@Uuml?$AA@ DB 'Uuml', 00H		; `string'
CONST	ENDS
;	COMDAT ??_C@_05JDGHPGFG@Ucirc?$AA@
CONST	SEGMENT
??_C@_05JDGHPGFG@Ucirc?$AA@ DB 'Ucirc', 00H		; `string'
CONST	ENDS
;	COMDAT ??_C@_06BJNHDIDD@Uacute?$AA@
CONST	SEGMENT
??_C@_06BJNHDIDD@Uacute?$AA@ DB 'Uacute', 00H		; `string'
CONST	ENDS
;	COMDAT ??_C@_06EOPBHBLK@Ugrave?$AA@
CONST	SEGMENT
??_C@_06EOPBHBLK@Ugrave?$AA@ DB 'Ugrave', 00H		; `string'
CONST	ENDS
;	COMDAT ??_C@_06HJKNGHPC@Oslash?$AA@
CONST	SEGMENT
??_C@_06HJKNGHPC@Oslash?$AA@ DB 'Oslash', 00H		; `string'
CONST	ENDS
;	COMDAT ??_C@_05MJOOAIJH@times?$AA@
CONST	SEGMENT
??_C@_05MJOOAIJH@times?$AA@ DB 'times', 00H		; `string'
CONST	ENDS
;	COMDAT ??_C@_04DGNIOLAM@Ouml?$AA@
CONST	SEGMENT
??_C@_04DGNIOLAM@Ouml?$AA@ DB 'Ouml', 00H		; `string'
CONST	ENDS
;	COMDAT ??_C@_06PCOFMLFP@Otilde?$AA@
CONST	SEGMENT
??_C@_06PCOFMLFP@Otilde?$AA@ DB 'Otilde', 00H		; `string'
CONST	ENDS
;	COMDAT ??_C@_05DBCKNHKL@Ocirc?$AA@
CONST	SEGMENT
??_C@_05DBCKNHKL@Ocirc?$AA@ DB 'Ocirc', 00H		; `string'
CONST	ENDS
;	COMDAT ??_C@_06NKHJPLLD@Oacute?$AA@
CONST	SEGMENT
??_C@_06NKHJPLLD@Oacute?$AA@ DB 'Oacute', 00H		; `string'
CONST	ENDS
;	COMDAT ??_C@_06INFPLCDK@Ograve?$AA@
CONST	SEGMENT
??_C@_06INFPLCDK@Ograve?$AA@ DB 'Ograve', 00H		; `string'
CONST	ENDS
;	COMDAT ??_C@_06FEJCMAOL@Ntilde?$AA@
CONST	SEGMENT
??_C@_06FEJCMAOL@Ntilde?$AA@ DB 'Ntilde', 00H		; `string'
CONST	ENDS
;	COMDAT ??_C@_03CBGEMLIN@ETH?$AA@
CONST	SEGMENT
??_C@_03CBGEMLIN@ETH?$AA@ DB 'ETH', 00H			; `string'
CONST	ENDS
;	COMDAT ??_C@_04LJJIBOKM@Iuml?$AA@
CONST	SEGMENT
??_C@_04LJJIBOKM@Iuml?$AA@ DB 'Iuml', 00H		; `string'
CONST	ENDS
;	COMDAT ??_C@_05OHHDDELG@Icirc?$AA@
CONST	SEGMENT
??_C@_05OHHDDELG@Icirc?$AA@ DB 'Icirc', 00H		; `string'
CONST	ENDS
;	COMDAT ??_C@_06LJKJMOIJ@Iacute?$AA@
CONST	SEGMENT
??_C@_06LJKJMOIJ@Iacute?$AA@ DB 'Iacute', 00H		; `string'
CONST	ENDS
;	COMDAT ??_C@_06OOIPIHAA@Igrave?$AA@
CONST	SEGMENT
??_C@_06OOIPIHAA@Igrave?$AA@ DB 'Igrave', 00H		; `string'
CONST	ENDS
;	COMDAT ??_C@_04HMGIPDKN@Euml?$AA@
CONST	SEGMENT
??_C@_04HMGIPDKN@Euml?$AA@ DB 'Euml', 00H		; `string'
CONST	ENDS
;	COMDAT ??_C@_05JALBPEMN@Ecirc?$AA@
CONST	SEGMENT
??_C@_05JALBPEMN@Ecirc?$AA@ DB 'Ecirc', 00H		; `string'
CONST	ENDS
;	COMDAT ??_C@_06HOAJKEPN@Eacute?$AA@
CONST	SEGMENT
??_C@_06HOAJKEPN@Eacute?$AA@ DB 'Eacute', 00H		; `string'
CONST	ENDS
;	COMDAT ??_C@_06CJCPONHE@Egrave?$AA@
CONST	SEGMENT
??_C@_06CJCPONHE@Egrave?$AA@ DB 'Egrave', 00H		; `string'
CONST	ENDS
;	COMDAT ??_C@_06PCMIHOPM@Ccedil?$AA@
CONST	SEGMENT
??_C@_06PCMIHOPM@Ccedil?$AA@ DB 'Ccedil', 00H		; `string'
CONST	ENDS
;	COMDAT ??_C@_05GGABFNI@AElig?$AA@
CONST	SEGMENT
??_C@_05GGABFNI@AElig?$AA@ DB 'AElig', 00H		; `string'
CONST	ENDS
;	COMDAT ??_C@_05CHPAJHPJ@Aring?$AA@
CONST	SEGMENT
??_C@_05CHPAJHPJ@Aring?$AA@ DB 'Aring', 00H		; `string'
CONST	ENDS
;	COMDAT ??_C@_04IJOIFFGN@Auml?$AA@
CONST	SEGMENT
??_C@_04IJOIFFGN@Auml?$AA@ DB 'Auml', 00H		; `string'
CONST	ENDS
;	COMDAT ??_C@_06KCNKLAAC@Atilde?$AA@
CONST	SEGMENT
??_C@_06KCNKLAAC@Atilde?$AA@ DB 'Atilde', 00H		; `string'
CONST	ENDS
;	COMDAT ??_C@_05LCALGNL@Acirc?$AA@
CONST	SEGMENT
??_C@_05LCALGNL@Acirc?$AA@ DB 'Acirc', 00H		; `string'
CONST	ENDS
;	COMDAT ??_C@_06IKEGIAOO@Aacute?$AA@
CONST	SEGMENT
??_C@_06IKEGIAOO@Aacute?$AA@ DB 'Aacute', 00H		; `string'
CONST	ENDS
;	COMDAT ??_C@_06NNGAMJGH@Agrave?$AA@
CONST	SEGMENT
??_C@_06NNGAMJGH@Agrave?$AA@ DB 'Agrave', 00H		; `string'
CONST	ENDS
;	COMDAT ??_C@_06JMONPFKG@iquest?$AA@
CONST	SEGMENT
??_C@_06JMONPFKG@iquest?$AA@ DB 'iquest', 00H		; `string'
CONST	ENDS
;	COMDAT ??_C@_06NMNJFLLK@frac34?$AA@
CONST	SEGMENT
??_C@_06NMNJFLLK@frac34?$AA@ DB 'frac34', 00H		; `string'
CONST	ENDS
;	COMDAT ??_C@_06IJAHCIFC@frac12?$AA@
CONST	SEGMENT
??_C@_06IJAHCIFC@frac12?$AA@ DB 'frac12', 00H		; `string'
CONST	ENDS
;	COMDAT ??_C@_06NPFNIPNE@frac14?$AA@
CONST	SEGMENT
??_C@_06NPFNIPNE@frac14?$AA@ DB 'frac14', 00H		; `string'
CONST	ENDS
;	COMDAT ??_C@_05MPFJLGEB@raquo?$AA@
CONST	SEGMENT
??_C@_05MPFJLGEB@raquo?$AA@ DB 'raquo', 00H		; `string'
CONST	ENDS
;	COMDAT ??_C@_04HMAEPGHP@ordm?$AA@
CONST	SEGMENT
??_C@_04HMAEPGHP@ordm?$AA@ DB 'ordm', 00H		; `string'
CONST	ENDS
;	COMDAT ??_C@_04EJOCKNLB@sup1?$AA@
CONST	SEGMENT
??_C@_04EJOCKNLB@sup1?$AA@ DB 'sup1', 00H		; `string'
CONST	ENDS
;	COMDAT ??_C@_05KLIFGPMF@cedil?$AA@
CONST	SEGMENT
??_C@_05KLIFGPMF@cedil?$AA@ DB 'cedil', 00H		; `string'
CONST	ENDS
;	COMDAT ??_C@_06HHCHNCAA@middot?$AA@
CONST	SEGMENT
??_C@_06HHCHNCAA@middot?$AA@ DB 'middot', 00H		; `string'
CONST	ENDS
;	COMDAT ??_C@_04GIAGJOJD@para?$AA@
CONST	SEGMENT
??_C@_04GIAGJOJD@para?$AA@ DB 'para', 00H		; `string'
CONST	ENDS
;	COMDAT ??_C@_05PCPGMEFP@micro?$AA@
CONST	SEGMENT
??_C@_05PCPGMEFP@micro?$AA@ DB 'micro', 00H		; `string'
CONST	ENDS
;	COMDAT ??_C@_05EEJEIAPO@acute?$AA@
CONST	SEGMENT
??_C@_05EEJEIAPO@acute?$AA@ DB 'acute', 00H		; `string'
CONST	ENDS
;	COMDAT ??_C@_04HLNEMPDD@sup3?$AA@
CONST	SEGMENT
??_C@_04HLNEMPDD@sup3?$AA@ DB 'sup3', 00H		; `string'
CONST	ENDS
;	COMDAT ??_C@_04GCMPPOHC@sup2?$AA@
CONST	SEGMENT
??_C@_04GCMPPOHC@sup2?$AA@ DB 'sup2', 00H		; `string'
CONST	ENDS
;	COMDAT ??_C@_06CAEEBBM@plusmn?$AA@
CONST	SEGMENT
??_C@_06CAEEBBM@plusmn?$AA@ DB 'plusmn', 00H		; `string'
CONST	ENDS
;	COMDAT ??_C@_03OFPLEBM@deg?$AA@
CONST	SEGMENT
??_C@_03OFPLEBM@deg?$AA@ DB 'deg', 00H			; `string'
CONST	ENDS
;	COMDAT ??_C@_04IMHNEFHF@macr?$AA@
CONST	SEGMENT
??_C@_04IMHNEFHF@macr?$AA@ DB 'macr', 00H		; `string'
CONST	ENDS
;	COMDAT ??_C@_03HLCNLMFP@reg?$AA@
CONST	SEGMENT
??_C@_03HLCNLMFP@reg?$AA@ DB 'reg', 00H			; `string'
CONST	ENDS
;	COMDAT ??_C@_03BPAIHHLG@shy?$AA@
CONST	SEGMENT
??_C@_03BPAIHHLG@shy?$AA@ DB 'shy', 00H			; `string'
CONST	ENDS
;	COMDAT ??_C@_03NJKJADM@not?$AA@
CONST	SEGMENT
??_C@_03NJKJADM@not?$AA@ DB 'not', 00H			; `string'
CONST	ENDS
;	COMDAT ??_C@_05PGIFNFKK@laquo?$AA@
CONST	SEGMENT
??_C@_05PGIFNFKK@laquo?$AA@ DB 'laquo', 00H		; `string'
CONST	ENDS
;	COMDAT ??_C@_04JPPACPLE@ordf?$AA@
CONST	SEGMENT
??_C@_04JPPACPLE@ordf?$AA@ DB 'ordf', 00H		; `string'
CONST	ENDS
;	COMDAT ??_C@_04COAGEIMF@copy?$AA@
CONST	SEGMENT
??_C@_04COAGEIMF@copy?$AA@ DB 'copy', 00H		; `string'
CONST	ENDS
;	COMDAT ??_C@_03LBNAMJF@uml?$AA@
CONST	SEGMENT
??_C@_03LBNAMJF@uml?$AA@ DB 'uml', 00H			; `string'
CONST	ENDS
;	COMDAT ??_C@_04IKJFFMEH@sect?$AA@
CONST	SEGMENT
??_C@_04IKJFFMEH@sect?$AA@ DB 'sect', 00H		; `string'
CONST	ENDS
;	COMDAT ??_C@_06ILPBEBAD@brvbar?$AA@
CONST	SEGMENT
??_C@_06ILPBEBAD@brvbar?$AA@ DB 'brvbar', 00H		; `string'
CONST	ENDS
;	COMDAT ??_C@_03HNOOIABH@yen?$AA@
CONST	SEGMENT
??_C@_03HNOOIABH@yen?$AA@ DB 'yen', 00H			; `string'
CONST	ENDS
;	COMDAT ??_C@_06HEGEHONB@curren?$AA@
CONST	SEGMENT
??_C@_06HEGEHONB@curren?$AA@ DB 'curren', 00H		; `string'
CONST	ENDS
;	COMDAT ??_C@_05EBEEKLCG@pound?$AA@
CONST	SEGMENT
??_C@_05EBEEKLCG@pound?$AA@ DB 'pound', 00H		; `string'
CONST	ENDS
;	COMDAT ??_C@_04OCKNFIJG@cent?$AA@
CONST	SEGMENT
??_C@_04OCKNFIJG@cent?$AA@ DB 'cent', 00H		; `string'
CONST	ENDS
;	COMDAT ??_C@_05BNEGCBFC@iexcl?$AA@
CONST	SEGMENT
??_C@_05BNEGCBFC@iexcl?$AA@ DB 'iexcl', 00H		; `string'
CONST	ENDS
;	COMDAT ??_C@_04PHHIFBLJ@nbsp?$AA@
CONST	SEGMENT
??_C@_04PHHIFBLJ@nbsp?$AA@ DB 'nbsp', 00H		; `string'
CONST	ENDS
CONST	SEGMENT
_soap_env1 DB	'http://schemas.xmlsoap.org/soap/envelope/', 00H
	ORG $+2
_soap_enc1 DB	'http://schemas.xmlsoap.org/soap/encoding/', 00H
	ORG $+2
_soap_env2 DB	'http://www.w3.org/2003/05/soap-envelope', 00H
_soap_enc2 DB	'http://www.w3.org/2003/05/soap-encoding', 00H
_soap_rpc DB	'http://www.w3.org/2003/05/soap-rpc', 00H
	ORG $+1
_soap_double_nan DD 0ffffffffH
	DD	0ffffffffH
_soap_indent DB	0aH, 09H, 09H, 09H, 09H, 09H, 09H, 09H, 09H, 09H, 00H
	ORG $+1
_soap_base64o DB 'ABCDEFGHIJKLMNOPQRSTUVWXYZabcdefghijklmnopqrstuvwxyz012'
	DB	'3456789+/', 00H
	ORG $+7
_soap_base64i DB '>XXX?456789:;<=XXXXXXX', 00H, 01H, 02H, 03H, 04H, 05H, 06H
	DB	07H, 08H, 09H, 0aH, 0bH, 0cH, 0dH, 0eH, 0fH, 010H, 011H, 012H, 013H
	DB	014H, 015H, 016H, 017H, 018H, 019H, 'XXXXXX', 01aH, 01bH, 01cH
	DB	01dH, 01eH, 01fH, ' !"#$%&''()*+,-./0123', 00H
	ORG $+3
_soap_padding DB 00H, 00H, 00H, 00H
_html_entity_codes DD 0a0H
	DD	FLAT:??_C@_04PHHIFBLJ@nbsp?$AA@
	DD	0a1H
	DD	FLAT:??_C@_05BNEGCBFC@iexcl?$AA@
	DD	0a2H
	DD	FLAT:??_C@_04OCKNFIJG@cent?$AA@
	DD	0a3H
	DD	FLAT:??_C@_05EBEEKLCG@pound?$AA@
	DD	0a4H
	DD	FLAT:??_C@_06HEGEHONB@curren?$AA@
	DD	0a5H
	DD	FLAT:??_C@_03HNOOIABH@yen?$AA@
	DD	0a6H
	DD	FLAT:??_C@_06ILPBEBAD@brvbar?$AA@
	DD	0a7H
	DD	FLAT:??_C@_04IKJFFMEH@sect?$AA@
	DD	0a8H
	DD	FLAT:??_C@_03LBNAMJF@uml?$AA@
	DD	0a9H
	DD	FLAT:??_C@_04COAGEIMF@copy?$AA@
	DD	0aaH
	DD	FLAT:??_C@_04JPPACPLE@ordf?$AA@
	DD	0abH
	DD	FLAT:??_C@_05PGIFNFKK@laquo?$AA@
	DD	0acH
	DD	FLAT:??_C@_03NJKJADM@not?$AA@
	DD	0adH
	DD	FLAT:??_C@_03BPAIHHLG@shy?$AA@
	DD	0aeH
	DD	FLAT:??_C@_03HLCNLMFP@reg?$AA@
	DD	0afH
	DD	FLAT:??_C@_04IMHNEFHF@macr?$AA@
	DD	0b0H
	DD	FLAT:??_C@_03OFPLEBM@deg?$AA@
	DD	0b1H
	DD	FLAT:??_C@_06CAEEBBM@plusmn?$AA@
	DD	0b2H
	DD	FLAT:??_C@_04GCMPPOHC@sup2?$AA@
	DD	0b3H
	DD	FLAT:??_C@_04HLNEMPDD@sup3?$AA@
	DD	0b4H
	DD	FLAT:??_C@_05EEJEIAPO@acute?$AA@
	DD	0b5H
	DD	FLAT:??_C@_05PCPGMEFP@micro?$AA@
	DD	0b6H
	DD	FLAT:??_C@_04GIAGJOJD@para?$AA@
	DD	0b7H
	DD	FLAT:??_C@_06HHCHNCAA@middot?$AA@
	DD	0b8H
	DD	FLAT:??_C@_05KLIFGPMF@cedil?$AA@
	DD	0b9H
	DD	FLAT:??_C@_04EJOCKNLB@sup1?$AA@
	DD	0baH
	DD	FLAT:??_C@_04HMAEPGHP@ordm?$AA@
	DD	0bbH
	DD	FLAT:??_C@_05MPFJLGEB@raquo?$AA@
	DD	0bcH
	DD	FLAT:??_C@_06NPFNIPNE@frac14?$AA@
	DD	0bdH
	DD	FLAT:??_C@_06IJAHCIFC@frac12?$AA@
	DD	0beH
	DD	FLAT:??_C@_06NMNJFLLK@frac34?$AA@
	DD	0bfH
	DD	FLAT:??_C@_06JMONPFKG@iquest?$AA@
	DD	0c0H
	DD	FLAT:??_C@_06NNGAMJGH@Agrave?$AA@
	DD	0c1H
	DD	FLAT:??_C@_06IKEGIAOO@Aacute?$AA@
	DD	0c2H
	DD	FLAT:??_C@_05LCALGNL@Acirc?$AA@
	DD	0c3H
	DD	FLAT:??_C@_06KCNKLAAC@Atilde?$AA@
	DD	0c4H
	DD	FLAT:??_C@_04IJOIFFGN@Auml?$AA@
	DD	0c5H
	DD	FLAT:??_C@_05CHPAJHPJ@Aring?$AA@
	DD	0c6H
	DD	FLAT:??_C@_05GGABFNI@AElig?$AA@
	DD	0c7H
	DD	FLAT:??_C@_06PCMIHOPM@Ccedil?$AA@
	DD	0c8H
	DD	FLAT:??_C@_06CJCPONHE@Egrave?$AA@
	DD	0c9H
	DD	FLAT:??_C@_06HOAJKEPN@Eacute?$AA@
	DD	0caH
	DD	FLAT:??_C@_05JALBPEMN@Ecirc?$AA@
	DD	0cbH
	DD	FLAT:??_C@_04HMGIPDKN@Euml?$AA@
	DD	0ccH
	DD	FLAT:??_C@_06OOIPIHAA@Igrave?$AA@
	DD	0cdH
	DD	FLAT:??_C@_06LJKJMOIJ@Iacute?$AA@
	DD	0ceH
	DD	FLAT:??_C@_05OHHDDELG@Icirc?$AA@
	DD	0cfH
	DD	FLAT:??_C@_04LJJIBOKM@Iuml?$AA@
	DD	0d0H
	DD	FLAT:??_C@_03CBGEMLIN@ETH?$AA@
	DD	0d1H
	DD	FLAT:??_C@_06FEJCMAOL@Ntilde?$AA@
	DD	0d2H
	DD	FLAT:??_C@_06INFPLCDK@Ograve?$AA@
	DD	0d3H
	DD	FLAT:??_C@_06NKHJPLLD@Oacute?$AA@
	DD	0d4H
	DD	FLAT:??_C@_05DBCKNHKL@Ocirc?$AA@
	DD	0d5H
	DD	FLAT:??_C@_06PCOFMLFP@Otilde?$AA@
	DD	0d6H
	DD	FLAT:??_C@_04DGNIOLAM@Ouml?$AA@
	DD	0d7H
	DD	FLAT:??_C@_05MJOOAIJH@times?$AA@
	DD	0d8H
	DD	FLAT:??_C@_06HJKNGHPC@Oslash?$AA@
	DD	0d9H
	DD	FLAT:??_C@_06EOPBHBLK@Ugrave?$AA@
	DD	0daH
	DD	FLAT:??_C@_06BJNHDIDD@Uacute?$AA@
	DD	0dbH
	DD	FLAT:??_C@_05JDGHPGFG@Ucirc?$AA@
	DD	0dcH
	DD	FLAT:??_C@_04BMIIGECP@Uuml?$AA@
	DD	0ddH
	DD	FLAT:??_C@_06NOHHFCEH@Yacute?$AA@
	DD	0deH
	DD	FLAT:??_C@_05HDBENHAL@THORN?$AA@
	DD	0dfH
	DD	FLAT:??_C@_05GMKDJMCJ@szlig?$AA@
	DD	0e0H
	DD	FLAT:??_C@_06BCNNPAPL@agrave?$AA@
	DD	0e1H
	DD	FLAT:??_C@_06EFPLLJHC@aacute?$AA@
	DD	0e2H
	DD	FLAT:??_C@_05MIMLDON@acirc?$AA@
	DD	0e3H
	DD	FLAT:??_C@_06GNGHIJJO@atilde?$AA@
	DD	0e4H
	DD	FLAT:??_C@_04EICJHKGJ@auml?$AA@
	DD	0e5H
	DD	FLAT:??_C@_05CAFMJCMP@aring?$AA@
	DD	0e6H
	DD	FLAT:??_C@_05MAANDPOK@aelig?$AA@
	DD	0e7H
	DD	FLAT:??_C@_06DNHFEHGA@ccedil?$AA@
	DD	0e8H
	DD	FLAT:??_C@_06OGJCNEOI@egrave?$AA@
	DD	0e9H
	DD	FLAT:??_C@_06LBLEJNGB@eacute?$AA@
	DD	0eaH
	DD	FLAT:??_C@_05JHBNPBPL@ecirc?$AA@
	DD	0ebH
	DD	FLAT:??_C@_04LNKJNMKJ@euml?$AA@
	DD	0ecH
	DD	FLAT:??_C@_06CBDCLOJM@igrave?$AA@
	DD	0edH
	DD	FLAT:??_C@_06HGBEPHBF@iacute?$AA@
	DD	0eeH
	DD	FLAT:??_C@_05OANPDBIA@icirc?$AA@
	DD	0efH
	DD	FLAT:??_C@_04HIFJDBKI@iuml?$AA@
	DD	0f0H
	DD	FLAT:??_C@_03CMJPAGPB@eth?$AA@
	DD	0f1H
	DD	FLAT:??_C@_06JLCPPJHH@ntilde?$AA@
	DD	0f2H
	DD	FLAT:??_C@_06ECOCILKG@ograve?$AA@
	DD	0f3H
	DD	FLAT:??_C@_06BFMEMCCP@oacute?$AA@
	DD	0f4H
	DD	FLAT:??_C@_05DGIGNCJN@ocirc?$AA@
	DD	0f5H
	DD	FLAT:??_C@_06DNFIPCMD@otilde?$AA@
	DD	0f6H
	DD	FLAT:??_C@_04PHBJMEAI@ouml?$AA@
	DD	0f7H
	DD	FLAT:??_C@_06FFHJEHBN@divide?$AA@
	DD	0f8H
	DD	FLAT:??_C@_06LGBAFOGO@oslash?$AA@
	DD	0f9H
	DD	FLAT:??_C@_06IBEMEICG@ugrave?$AA@
	DD	0faH
	DD	FLAT:??_C@_06NGGKABKP@uacute?$AA@
	DD	0fbH
	DD	FLAT:??_C@_05JEMLPDGA@ucirc?$AA@
	DD	0fcH
	DD	FLAT:??_C@_04NNEJELCL@uuml?$AA@
	DD	0fdH
	DD	FLAT:??_C@_06BBMKGLNL@yacute?$AA@
	DD	0feH
	DD	FLAT:??_C@_05LIICDAEF@thorn?$AA@
	DD	0ffH
	DD	FLAT:??_C@_04BILJKGCK@yuml?$AA@
	DD	00H
	DD	00H
_h_error_codes DD 02af9H
	DD	FLAT:??_C@_0P@CAFMJNJH@Host?5not?5found?$AA@
	DD	02afaH
	DD	FLAT:??_C@_09NOIJLNLL@Try?5Again?$AA@
	DD	02afbH
	DD	FLAT:??_C@_0M@IFLIHMFH@No?5Recovery?$AA@
	DD	02afcH
	DD	FLAT:??_C@_07NNGPDNPG@No?5Data?$AA@
	DD	02afcH
	DD	FLAT:??_C@_0L@GGLPAOMP@No?5Address?$AA@
	DD	00H
	DD	00H
_h_http_error_codes DD 0c8H
	DD	FLAT:??_C@_02GIPFHKNO@OK?$AA@
	DD	0c9H
	DD	FLAT:??_C@_07BBIDHECN@Created?$AA@
	DD	0caH
	DD	FLAT:??_C@_08DOBOODLA@Accepted?$AA@
	DD	0cbH
	DD	FLAT:??_C@_0BO@NKBPKPBI@Non?9Authoritative?5Information?$AA@
	DD	0ccH
	DD	FLAT:??_C@_0L@FDPJCNGK@No?5Content?$AA@
	DD	0cdH
	DD	FLAT:??_C@_0O@BFFLKCLE@Reset?5Content?$AA@
	DD	0ceH
	DD	FLAT:??_C@_0BA@NNLNHGMN@Partial?5Content?$AA@
	DD	012cH
	DD	FLAT:??_C@_0BB@HLFEHKPE@Multiple?5Choices?$AA@
	DD	012dH
	DD	FLAT:??_C@_0BC@BPBCNFPI@Moved?5Permanently?$AA@
	DD	012eH
	DD	FLAT:??_C@_05JDGHEPJG@Found?$AA@
	DD	012fH
	DD	FLAT:??_C@_09FAMPMKIP@See?5Other?$AA@
	DD	0130H
	DD	FLAT:??_C@_0N@IFEFAIJB@Not?5Modified?$AA@
	DD	0131H
	DD	FLAT:??_C@_09JFBGBFIM@Use?5Proxy?$AA@
	DD	0133H
	DD	FLAT:??_C@_0BD@PJMNAMDM@Temporary?5Redirect?$AA@
	DD	0190H
	DD	FLAT:??_C@_0M@LNAIDEEG@Bad?5Request?$AA@
	DD	0191H
	DD	FLAT:??_C@_0N@OOAPMOJA@Unauthorized?$AA@
	DD	0192H
	DD	FLAT:??_C@_0BB@LMPIHCBH@Payment?5Required?$AA@
	DD	0193H
	DD	FLAT:??_C@_09LMDIMFJD@Forbidden?$AA@
	DD	0194H
	DD	FLAT:??_C@_09CFCBFJND@Not?5Found?$AA@
	DD	0195H
	DD	FLAT:??_C@_0BD@CCIPIALO@Method?5Not?5Allowed?$AA@
	DD	0196H
	DD	FLAT:??_C@_0P@HHIDFAOI@Not?5Acceptable?$AA@
	DD	0197H
	DD	FLAT:??_C@_0BO@ONPAAOGI@Proxy?5Authentication?5Required?$AA@
	DD	0198H
	DD	FLAT:??_C@_0BB@GKNJPEJG@Request?5Time?9out?$AA@
	DD	0199H
	DD	FLAT:??_C@_08OJCIFGDF@Conflict?$AA@
	DD	019aH
	DD	FLAT:??_C@_04OKIIBCCG@Gone?$AA@
	DD	019bH
	DD	FLAT:??_C@_0BA@JCKHPIPI@Length?5Required?$AA@
	DD	019cH
	DD	FLAT:??_C@_0BE@BBDBJOM@Precondition?5Failed?$AA@
	DD	019dH
	DD	FLAT:??_C@_0BJ@MMEIEOIG@Request?5Entity?5Too?5Large?$AA@
	DD	019eH
	DD	FLAT:??_C@_0BG@PMALKKB@Request?9URI?5Too?5Large?$AA@
	DD	019fH
	DD	FLAT:??_C@_0BH@HLJJIAEN@Unsupported?5Media?5Type?$AA@
	DD	01a0H
	DD	FLAT:??_C@_0CA@KGJNFKJM@Requested?5range?5not?5satisfiable?$AA@
	DD	01a1H
	DD	FLAT:??_C@_0BD@NDMHPAED@Expectation?5Failed?$AA@
	DD	01f4H
	DD	FLAT:??_C@_0BG@NJGANGCC@Internal?5Server?5Error?$AA@
	DD	01f5H
	DD	FLAT:??_C@_0BA@JGKGKAME@Not?5Implemented?$AA@
	DD	01f6H
	DD	FLAT:??_C@_0M@BNCNLPGM@Bad?5Gateway?$AA@
	DD	01f7H
	DD	FLAT:??_C@_0BE@NGHLFKBN@Service?5Unavailable?$AA@
	DD	01f8H
	DD	FLAT:??_C@_0BB@PHMOGCPC@Gateway?5Time?9out?$AA@
	DD	01f9H
	DD	FLAT:??_C@_0BL@GBBFKFHI@HTTP?5Version?5not?5supported?$AA@
	DD	00H
	DD	00H
_mime_codes DD	01H
	DD	FLAT:??_C@_04LHKGBPKB@7bit?$AA@
	DD	02H
	DD	FLAT:??_C@_04DFPGIIHA@8bit?$AA@
	DD	03H
	DD	FLAT:??_C@_06FNFBAEBE@binary?$AA@
	DD	04H
	DD	FLAT:??_C@_0BB@CAHAECFA@quoted?9printable?$AA@
	DD	05H
	DD	FLAT:??_C@_06JEFEFGEJ@base64?$AA@
	DD	06H
	DD	FLAT:??_C@_0L@EPBKNKII@ietf?9token?$AA@
	DD	07H
	DD	FLAT:??_C@_07JJJGGCEE@x?9token?$AA@
	DD	00H
	DD	00H
CONST	ENDS
;	COMDAT ?end@?$_Iosb@H@std@@2W4_Seekdir@12@B
CONST	SEGMENT
?end@?$_Iosb@H@std@@2W4_Seekdir@12@B DD 02H		; std::_Iosb<int>::end
CONST	ENDS
;	COMDAT ?cur@?$_Iosb@H@std@@2W4_Seekdir@12@B
CONST	SEGMENT
?cur@?$_Iosb@H@std@@2W4_Seekdir@12@B DD 01H		; std::_Iosb<int>::cur
CONST	ENDS
;	COMDAT ?beg@?$_Iosb@H@std@@2W4_Seekdir@12@B
CONST	SEGMENT
?beg@?$_Iosb@H@std@@2W4_Seekdir@12@B DD 00H		; std::_Iosb<int>::beg
CONST	ENDS
;	COMDAT ?binary@?$_Iosb@H@std@@2W4_Openmode@12@B
CONST	SEGMENT
?binary@?$_Iosb@H@std@@2W4_Openmode@12@B DD 020H	; std::_Iosb<int>::binary
CONST	ENDS
;	COMDAT ?_Noreplace@?$_Iosb@H@std@@2W4_Openmode@12@B
CONST	SEGMENT
?_Noreplace@?$_Iosb@H@std@@2W4_Openmode@12@B DD 080H	; std::_Iosb<int>::_Noreplace
CONST	ENDS
;	COMDAT ?_Nocreate@?$_Iosb@H@std@@2W4_Openmode@12@B
CONST	SEGMENT
?_Nocreate@?$_Iosb@H@std@@2W4_Openmode@12@B DD 040H	; std::_Iosb<int>::_Nocreate
CONST	ENDS
;	COMDAT ?trunc@?$_Iosb@H@std@@2W4_Openmode@12@B
CONST	SEGMENT
?trunc@?$_Iosb@H@std@@2W4_Openmode@12@B DD 010H		; std::_Iosb<int>::trunc
CONST	ENDS
;	COMDAT ?app@?$_Iosb@H@std@@2W4_Openmode@12@B
CONST	SEGMENT
?app@?$_Iosb@H@std@@2W4_Openmode@12@B DD 08H		; std::_Iosb<int>::app
CONST	ENDS
;	COMDAT ?ate@?$_Iosb@H@std@@2W4_Openmode@12@B
CONST	SEGMENT
?ate@?$_Iosb@H@std@@2W4_Openmode@12@B DD 04H		; std::_Iosb<int>::ate
CONST	ENDS
;	COMDAT ?out@?$_Iosb@H@std@@2W4_Openmode@12@B
CONST	SEGMENT
?out@?$_Iosb@H@std@@2W4_Openmode@12@B DD 02H		; std::_Iosb<int>::out
CONST	ENDS
;	COMDAT ?in@?$_Iosb@H@std@@2W4_Openmode@12@B
CONST	SEGMENT
?in@?$_Iosb@H@std@@2W4_Openmode@12@B DD 01H		; std::_Iosb<int>::in
CONST	ENDS
;	COMDAT ?_Hardfail@?$_Iosb@H@std@@2W4_Iostate@12@B
CONST	SEGMENT
?_Hardfail@?$_Iosb@H@std@@2W4_Iostate@12@B DD 010H	; std::_Iosb<int>::_Hardfail
CONST	ENDS
;	COMDAT ?badbit@?$_Iosb@H@std@@2W4_Iostate@12@B
CONST	SEGMENT
?badbit@?$_Iosb@H@std@@2W4_Iostate@12@B DD 04H		; std::_Iosb<int>::badbit
CONST	ENDS
;	COMDAT ?failbit@?$_Iosb@H@std@@2W4_Iostate@12@B
CONST	SEGMENT
?failbit@?$_Iosb@H@std@@2W4_Iostate@12@B DD 02H		; std::_Iosb<int>::failbit
CONST	ENDS
;	COMDAT ?eofbit@?$_Iosb@H@std@@2W4_Iostate@12@B
CONST	SEGMENT
?eofbit@?$_Iosb@H@std@@2W4_Iostate@12@B DD 01H		; std::_Iosb<int>::eofbit
CONST	ENDS
;	COMDAT ?goodbit@?$_Iosb@H@std@@2W4_Iostate@12@B
CONST	SEGMENT
?goodbit@?$_Iosb@H@std@@2W4_Iostate@12@B DD 00H		; std::_Iosb<int>::goodbit
CONST	ENDS
;	COMDAT ?floatfield@?$_Iosb@H@std@@2W4_Fmtflags@12@B
CONST	SEGMENT
?floatfield@?$_Iosb@H@std@@2W4_Fmtflags@12@B DD 03000H	; std::_Iosb<int>::floatfield
CONST	ENDS
;	COMDAT ?basefield@?$_Iosb@H@std@@2W4_Fmtflags@12@B
CONST	SEGMENT
?basefield@?$_Iosb@H@std@@2W4_Fmtflags@12@B DD 0e00H	; std::_Iosb<int>::basefield
CONST	ENDS
;	COMDAT ?adjustfield@?$_Iosb@H@std@@2W4_Fmtflags@12@B
CONST	SEGMENT
?adjustfield@?$_Iosb@H@std@@2W4_Fmtflags@12@B DD 01c0H	; std::_Iosb<int>::adjustfield
CONST	ENDS
;	COMDAT ?_Stdio@?$_Iosb@H@std@@2W4_Fmtflags@12@B
CONST	SEGMENT
?_Stdio@?$_Iosb@H@std@@2W4_Fmtflags@12@B DD 08000H	; std::_Iosb<int>::_Stdio
CONST	ENDS
;	COMDAT ?boolalpha@?$_Iosb@H@std@@2W4_Fmtflags@12@B
CONST	SEGMENT
?boolalpha@?$_Iosb@H@std@@2W4_Fmtflags@12@B DD 04000H	; std::_Iosb<int>::boolalpha
CONST	ENDS
;	COMDAT ?hexfloat@?$_Iosb@H@std@@2W4_Fmtflags@12@B
CONST	SEGMENT
?hexfloat@?$_Iosb@H@std@@2W4_Fmtflags@12@B DD 03000H	; std::_Iosb<int>::hexfloat
CONST	ENDS
;	COMDAT ?fixed@?$_Iosb@H@std@@2W4_Fmtflags@12@B
CONST	SEGMENT
?fixed@?$_Iosb@H@std@@2W4_Fmtflags@12@B DD 02000H	; std::_Iosb<int>::fixed
CONST	ENDS
;	COMDAT ?scientific@?$_Iosb@H@std@@2W4_Fmtflags@12@B
CONST	SEGMENT
?scientific@?$_Iosb@H@std@@2W4_Fmtflags@12@B DD 01000H	; std::_Iosb<int>::scientific
CONST	ENDS
;	COMDAT ?hex@?$_Iosb@H@std@@2W4_Fmtflags@12@B
CONST	SEGMENT
?hex@?$_Iosb@H@std@@2W4_Fmtflags@12@B DD 0800H		; std::_Iosb<int>::hex
CONST	ENDS
;	COMDAT ?oct@?$_Iosb@H@std@@2W4_Fmtflags@12@B
CONST	SEGMENT
?oct@?$_Iosb@H@std@@2W4_Fmtflags@12@B DD 0400H		; std::_Iosb<int>::oct
CONST	ENDS
;	COMDAT ?dec@?$_Iosb@H@std@@2W4_Fmtflags@12@B
CONST	SEGMENT
?dec@?$_Iosb@H@std@@2W4_Fmtflags@12@B DD 0200H		; std::_Iosb<int>::dec
CONST	ENDS
;	COMDAT ?internal@?$_Iosb@H@std@@2W4_Fmtflags@12@B
CONST	SEGMENT
?internal@?$_Iosb@H@std@@2W4_Fmtflags@12@B DD 0100H	; std::_Iosb<int>::internal
CONST	ENDS
;	COMDAT ?right@?$_Iosb@H@std@@2W4_Fmtflags@12@B
CONST	SEGMENT
?right@?$_Iosb@H@std@@2W4_Fmtflags@12@B DD 080H		; std::_Iosb<int>::right
CONST	ENDS
;	COMDAT ?left@?$_Iosb@H@std@@2W4_Fmtflags@12@B
CONST	SEGMENT
?left@?$_Iosb@H@std@@2W4_Fmtflags@12@B DD 040H		; std::_Iosb<int>::left
CONST	ENDS
;	COMDAT ?showpos@?$_Iosb@H@std@@2W4_Fmtflags@12@B
CONST	SEGMENT
?showpos@?$_Iosb@H@std@@2W4_Fmtflags@12@B DD 020H	; std::_Iosb<int>::showpos
CONST	ENDS
;	COMDAT ?showpoint@?$_Iosb@H@std@@2W4_Fmtflags@12@B
CONST	SEGMENT
?showpoint@?$_Iosb@H@std@@2W4_Fmtflags@12@B DD 010H	; std::_Iosb<int>::showpoint
CONST	ENDS
;	COMDAT ?showbase@?$_Iosb@H@std@@2W4_Fmtflags@12@B
CONST	SEGMENT
?showbase@?$_Iosb@H@std@@2W4_Fmtflags@12@B DD 08H	; std::_Iosb<int>::showbase
CONST	ENDS
;	COMDAT ?uppercase@?$_Iosb@H@std@@2W4_Fmtflags@12@B
CONST	SEGMENT
?uppercase@?$_Iosb@H@std@@2W4_Fmtflags@12@B DD 04H	; std::_Iosb<int>::uppercase
CONST	ENDS
;	COMDAT ?unitbuf@?$_Iosb@H@std@@2W4_Fmtflags@12@B
CONST	SEGMENT
?unitbuf@?$_Iosb@H@std@@2W4_Fmtflags@12@B DD 02H	; std::_Iosb<int>::unitbuf
CONST	ENDS
;	COMDAT ?skipws@?$_Iosb@H@std@@2W4_Fmtflags@12@B
CONST	SEGMENT
?skipws@?$_Iosb@H@std@@2W4_Fmtflags@12@B DD 01H		; std::_Iosb<int>::skipws
CONST	ENDS
;	COMDAT ?none@?$_Locbase@H@std@@2HB
CONST	SEGMENT
?none@?$_Locbase@H@std@@2HB DD 00H			; std::_Locbase<int>::none
CONST	ENDS
;	COMDAT ?all@?$_Locbase@H@std@@2HB
CONST	SEGMENT
?all@?$_Locbase@H@std@@2HB DD 03fH			; std::_Locbase<int>::all
CONST	ENDS
;	COMDAT ?messages@?$_Locbase@H@std@@2HB
CONST	SEGMENT
?messages@?$_Locbase@H@std@@2HB DD 020H			; std::_Locbase<int>::messages
CONST	ENDS
;	COMDAT ?time@?$_Locbase@H@std@@2HB
CONST	SEGMENT
?time@?$_Locbase@H@std@@2HB DD 010H			; std::_Locbase<int>::time
CONST	ENDS
;	COMDAT ?numeric@?$_Locbase@H@std@@2HB
CONST	SEGMENT
?numeric@?$_Locbase@H@std@@2HB DD 08H			; std::_Locbase<int>::numeric
CONST	ENDS
;	COMDAT ?monetary@?$_Locbase@H@std@@2HB
CONST	SEGMENT
?monetary@?$_Locbase@H@std@@2HB DD 04H			; std::_Locbase<int>::monetary
CONST	ENDS
;	COMDAT ?ctype@?$_Locbase@H@std@@2HB
CONST	SEGMENT
?ctype@?$_Locbase@H@std@@2HB DD 02H			; std::_Locbase<int>::ctype
CONST	ENDS
;	COMDAT ?collate@?$_Locbase@H@std@@2HB
CONST	SEGMENT
?collate@?$_Locbase@H@std@@2HB DD 01H			; std::_Locbase<int>::collate
CONST	ENDS
;	COMDAT ?_Value@?$_Is_swap_move@U_Swap_move_tag@std@@@std@@2_NB
CONST	SEGMENT
?_Value@?$_Is_swap_move@U_Swap_move_tag@std@@@std@@2_NB DB 01H ; std::_Is_swap_move<std::_Swap_move_tag>::_Value
CONST	ENDS
_DATA	SEGMENT
__bad_alloc_Message DD FLAT:??_C@_0P@GHFPNOJB@bad?5allocation?$AA@
_DATA	ENDS
;	COMDAT ??_C@_0P@GHFPNOJB@bad?5allocation?$AA@
CONST	SEGMENT
??_C@_0P@GHFPNOJB@bad?5allocation?$AA@ DB 'bad allocation', 00H ; `string'
CONST	ENDS
PUBLIC	_soap_flush_raw
PUBLIC	_soap_flush
PUBLIC	_soap_send_raw
EXTRN	_memcpy:PROC
EXTRN	__RTC_CheckEsp:PROC
EXTRN	__RTC_Shutdown:PROC
EXTRN	__RTC_InitBase:PROC
;	COMDAT rtc$TMZ
; File c:\users\crius\documents\visual studio 2008\projects\dramsimiihg\src\reporting\stdsoap2.cpp
rtc$TMZ	SEGMENT
__RTC_Shutdown.rtc$TMZ DD FLAT:__RTC_Shutdown
rtc$TMZ	ENDS
;	COMDAT rtc$IMZ
rtc$IMZ	SEGMENT
__RTC_InitBase.rtc$IMZ DD FLAT:__RTC_InitBase
; Function compile flags: /Odtp /RTCcsu /ZI
rtc$IMZ	ENDS
;	COMDAT _soap_send_raw
_TEXT	SEGMENT
_i$82426 = -8						; size = 4
_soap$ = 8						; size = 4
_s$ = 12						; size = 4
_n$ = 16						; size = 4
_soap_send_raw PROC					; COMDAT

; 711  : { if (!n)

	push	ebp
	mov	ebp, esp
	sub	esp, 204				; 000000ccH
	push	ebx
	push	esi
	push	edi
	lea	edi, DWORD PTR [ebp-204]
	mov	ecx, 51					; 00000033H
	mov	eax, -858993460				; ccccccccH
	rep stosd
	cmp	DWORD PTR _n$[ebp], 0
	jne	SHORT $LN7@soap_send_

; 712  :     return SOAP_OK;

	xor	eax, eax
	jmp	$LN8@soap_send_
$LN7@soap_send_:

; 713  :   if (soap->mode & SOAP_IO_LENGTH)

	mov	eax, DWORD PTR _soap$[ebp]
	mov	ecx, DWORD PTR [eax+8]
	and	ecx, 8
	je	SHORT $LN6@soap_send_

; 714  :   { soap->count += n;

	mov	eax, DWORD PTR _soap$[ebp]
	mov	ecx, DWORD PTR [eax+12448]
	add	ecx, DWORD PTR _n$[ebp]
	mov	edx, DWORD PTR _soap$[ebp]
	mov	DWORD PTR [edx+12448], ecx

; 715  : #ifndef WITH_LEANER
; 716  :     if (soap->fpreparesend && (soap->mode & SOAP_IO) != SOAP_IO_STORE)

	mov	eax, DWORD PTR _soap$[ebp]
	cmp	DWORD PTR [eax+12344], 0
	je	SHORT $LN5@soap_send_
	mov	eax, DWORD PTR _soap$[ebp]
	mov	ecx, DWORD PTR [eax+8]
	and	ecx, 3
	cmp	ecx, 2
	je	SHORT $LN5@soap_send_

; 717  :       return soap->error = soap->fpreparesend(soap, s, n);

	mov	esi, esp
	mov	eax, DWORD PTR _n$[ebp]
	push	eax
	mov	ecx, DWORD PTR _s$[ebp]
	push	ecx
	mov	edx, DWORD PTR _soap$[ebp]
	push	edx
	mov	eax, DWORD PTR _soap$[ebp]
	mov	ecx, DWORD PTR [eax+12344]
	call	ecx
	add	esp, 12					; 0000000cH
	cmp	esi, esp
	call	__RTC_CheckEsp
	mov	edx, DWORD PTR _soap$[ebp]
	mov	DWORD PTR [edx+90460], eax
	mov	eax, DWORD PTR _soap$[ebp]
	mov	eax, DWORD PTR [eax+90460]
	jmp	$LN8@soap_send_
$LN5@soap_send_:

; 718  : #endif
; 719  :     return SOAP_OK;

	xor	eax, eax
	jmp	$LN8@soap_send_
$LN6@soap_send_:

; 720  :   }
; 721  :   if (soap->mode & SOAP_IO)

	mov	eax, DWORD PTR _soap$[ebp]
	mov	ecx, DWORD PTR [eax+8]
	and	ecx, 3
	je	$LN4@soap_send_

; 722  :   { register size_t i = SOAP_BUFLEN - soap->bufidx;

	mov	eax, DWORD PTR _soap$[ebp]
	mov	ecx, 65536				; 00010000H
	sub	ecx, DWORD PTR [eax+12428]
	mov	DWORD PTR _i$82426[ebp], ecx
$LN3@soap_send_:

; 723  :     while (n >= i)

	mov	eax, DWORD PTR _n$[ebp]
	cmp	eax, DWORD PTR _i$82426[ebp]
	jb	SHORT $LN2@soap_send_

; 724  :     { memcpy(soap->buf + soap->bufidx, s, i);

	mov	eax, DWORD PTR _i$82426[ebp]
	push	eax
	mov	ecx, DWORD PTR _s$[ebp]
	push	ecx
	mov	edx, DWORD PTR _soap$[ebp]
	mov	eax, DWORD PTR [edx+12428]
	mov	ecx, DWORD PTR _soap$[ebp]
	lea	edx, DWORD PTR [ecx+eax+12468]
	push	edx
	call	_memcpy
	add	esp, 12					; 0000000cH

; 725  :       soap->bufidx = SOAP_BUFLEN;

	mov	eax, DWORD PTR _soap$[ebp]
	mov	DWORD PTR [eax+12428], 65536		; 00010000H

; 726  :       if (soap_flush(soap))

	mov	eax, DWORD PTR _soap$[ebp]
	push	eax
	call	_soap_flush
	add	esp, 4
	test	eax, eax
	je	SHORT $LN1@soap_send_

; 727  :         return soap->error;

	mov	eax, DWORD PTR _soap$[ebp]
	mov	eax, DWORD PTR [eax+90460]
	jmp	SHORT $LN8@soap_send_
$LN1@soap_send_:

; 728  :       s += i;

	mov	eax, DWORD PTR _s$[ebp]
	add	eax, DWORD PTR _i$82426[ebp]
	mov	DWORD PTR _s$[ebp], eax

; 729  :       n -= i;

	mov	eax, DWORD PTR _n$[ebp]
	sub	eax, DWORD PTR _i$82426[ebp]
	mov	DWORD PTR _n$[ebp], eax

; 730  :       i = SOAP_BUFLEN;

	mov	DWORD PTR _i$82426[ebp], 65536		; 00010000H

; 731  :     }

	jmp	SHORT $LN3@soap_send_
$LN2@soap_send_:

; 732  :     memcpy(soap->buf + soap->bufidx, s, n);

	mov	eax, DWORD PTR _n$[ebp]
	push	eax
	mov	ecx, DWORD PTR _s$[ebp]
	push	ecx
	mov	edx, DWORD PTR _soap$[ebp]
	mov	eax, DWORD PTR [edx+12428]
	mov	ecx, DWORD PTR _soap$[ebp]
	lea	edx, DWORD PTR [ecx+eax+12468]
	push	edx
	call	_memcpy
	add	esp, 12					; 0000000cH

; 733  :     soap->bufidx += n;

	mov	eax, DWORD PTR _soap$[ebp]
	mov	ecx, DWORD PTR [eax+12428]
	add	ecx, DWORD PTR _n$[ebp]
	mov	edx, DWORD PTR _soap$[ebp]
	mov	DWORD PTR [edx+12428], ecx

; 734  :     return SOAP_OK;

	xor	eax, eax
	jmp	SHORT $LN8@soap_send_
$LN4@soap_send_:

; 735  :   }
; 736  :   return soap_flush_raw(soap, s, n);

	mov	eax, DWORD PTR _n$[ebp]
	push	eax
	mov	ecx, DWORD PTR _s$[ebp]
	push	ecx
	mov	edx, DWORD PTR _soap$[ebp]
	push	edx
	call	_soap_flush_raw
	add	esp, 12					; 0000000cH
$LN8@soap_send_:

; 737  : }

	pop	edi
	pop	esi
	pop	ebx
	add	esp, 204				; 000000ccH
	cmp	ebp, esp
	call	__RTC_CheckEsp
	mov	esp, ebp
	pop	ebp
	ret	0
_soap_send_raw ENDP
; Function compile flags: /Odtp /RTCcsu /ZI
_TEXT	ENDS
;	COMDAT _soap_flush
_TEXT	SEGMENT
_n$ = -8						; size = 4
_soap$ = 8						; size = 4
_soap_flush PROC					; COMDAT

; 746  : { register size_t n = soap->bufidx;

	push	ebp
	mov	ebp, esp
	sub	esp, 204				; 000000ccH
	push	ebx
	push	esi
	push	edi
	lea	edi, DWORD PTR [ebp-204]
	mov	ecx, 51					; 00000033H
	mov	eax, -858993460				; ccccccccH
	rep stosd
	mov	eax, DWORD PTR _soap$[ebp]
	mov	ecx, DWORD PTR [eax+12428]
	mov	DWORD PTR _n$[ebp], ecx

; 747  :   if (n)

	cmp	DWORD PTR _n$[ebp], 0
	je	SHORT $LN1@soap_flush

; 748  :   { soap->bufidx = 0;

	mov	eax, DWORD PTR _soap$[ebp]
	mov	DWORD PTR [eax+12428], 0

; 749  : #ifdef WITH_ZLIB
; 750  :     if (soap->mode & SOAP_ENC_ZLIB)
; 751  :     { soap->d_stream->next_in = (Byte*)soap->buf;
; 752  :       soap->d_stream->avail_in = (unsigned int)n;
; 753  : #ifdef WITH_GZIP
; 754  :       soap->z_crc = crc32(soap->z_crc, (Byte*)soap->buf, (unsigned int)n);
; 755  : #endif
; 756  :       do
; 757  :       { DBGLOG(TEST, SOAP_MESSAGE(fdebug, "Deflating %u bytes\n", soap->d_stream->avail_in));
; 758  :         if (deflate(soap->d_stream, Z_NO_FLUSH) != Z_OK)
; 759  :         { DBGLOG(TEST, SOAP_MESSAGE(fdebug, "Unable to deflate: %s\n", soap->d_stream->msg?soap->d_stream->msg:""));
; 760  :           return soap->error = SOAP_ZLIB_ERROR;
; 761  :         }
; 762  :         if (!soap->d_stream->avail_out)
; 763  :         { if (soap_flush_raw(soap, soap->z_buf, SOAP_BUFLEN))
; 764  :             return soap->error;
; 765  :           soap->d_stream->next_out = (Byte*)soap->z_buf;
; 766  :           soap->d_stream->avail_out = SOAP_BUFLEN;
; 767  :         }
; 768  :       } while (soap->d_stream->avail_in);
; 769  :     }
; 770  :     else
; 771  : #endif
; 772  :       return soap_flush_raw(soap, soap->buf, n);

	mov	eax, DWORD PTR _n$[ebp]
	push	eax
	mov	ecx, DWORD PTR _soap$[ebp]
	add	ecx, 12468				; 000030b4H
	push	ecx
	mov	edx, DWORD PTR _soap$[ebp]
	push	edx
	call	_soap_flush_raw
	add	esp, 12					; 0000000cH
	jmp	SHORT $LN2@soap_flush
$LN1@soap_flush:

; 773  :   }
; 774  :   return SOAP_OK;

	xor	eax, eax
$LN2@soap_flush:

; 775  : }

	pop	edi
	pop	esi
	pop	ebx
	add	esp, 204				; 000000ccH
	cmp	ebp, esp
	call	__RTC_CheckEsp
	mov	esp, ebp
	pop	ebp
	ret	0
_soap_flush ENDP
_TEXT	ENDS
PUBLIC	_soap_open_logfile
PUBLIC	??_C@_07FCIFDIFE@?$AN?6?$CFlX?$AN?6?$AA@	; `string'
PUBLIC	_soap_push_block
PUBLIC	__$ArrayPad$
EXTRN	__imp__fflush:PROC
EXTRN	__imp__fwrite:PROC
EXTRN	_strlen:PROC
EXTRN	__imp__sprintf:PROC
EXTRN	___security_cookie:DWORD
EXTRN	@__security_check_cookie@4:PROC
EXTRN	@_RTC_CheckStackVars@8:PROC
;	COMDAT ??_C@_07FCIFDIFE@?$AN?6?$CFlX?$AN?6?$AA@
CONST	SEGMENT
??_C@_07FCIFDIFE@?$AN?6?$CFlX?$AN?6?$AA@ DB 0dH, 0aH, '%lX', 0dH, 0aH, 00H ; `string'
; Function compile flags: /Odtp /RTCcsu /ZI
CONST	ENDS
;	COMDAT _soap_flush_raw
_TEXT	SEGMENT
_rc$82461 = -60						; size = 4
_rc$82454 = -48						; size = 4
_t$82447 = -36						; size = 16
_t$82442 = -12						; size = 4
__$ArrayPad$ = -4					; size = 4
_soap$ = 8						; size = 4
_s$ = 12						; size = 4
_n$ = 16						; size = 4
_soap_flush_raw PROC					; COMDAT

; 784  : { if ((soap->mode & SOAP_IO) == SOAP_IO_STORE)

	push	ebp
	mov	ebp, esp
	sub	esp, 256				; 00000100H
	push	ebx
	push	esi
	push	edi
	lea	edi, DWORD PTR [ebp-256]
	mov	ecx, 64					; 00000040H
	mov	eax, -858993460				; ccccccccH
	rep stosd
	mov	eax, DWORD PTR ___security_cookie
	xor	eax, ebp
	mov	DWORD PTR __$ArrayPad$[ebp], eax
	mov	eax, DWORD PTR _soap$[ebp]
	mov	ecx, DWORD PTR [eax+8]
	and	ecx, 3
	cmp	ecx, 2
	jne	$LN13@soap_flush@2

; 785  :   { register char *t;
; 786  :     if (!(t = (char*)soap_push_block(soap, n)))

	mov	eax, DWORD PTR _n$[ebp]
	push	eax
	mov	ecx, DWORD PTR _soap$[ebp]
	push	ecx
	call	_soap_push_block
	add	esp, 8
	mov	DWORD PTR _t$82442[ebp], eax
	cmp	DWORD PTR _t$82442[ebp], 0
	jne	SHORT $LN12@soap_flush@2

; 787  :       return soap->error = SOAP_EOM;

	mov	eax, DWORD PTR _soap$[ebp]
	mov	DWORD PTR [eax+90460], 20		; 00000014H
	mov	eax, 20					; 00000014H
	jmp	$LN14@soap_flush@2
$LN12@soap_flush@2:

; 788  :     memcpy(t, s, n);

	mov	eax, DWORD PTR _n$[ebp]
	push	eax
	mov	ecx, DWORD PTR _s$[ebp]
	push	ecx
	mov	edx, DWORD PTR _t$82442[ebp]
	push	edx
	call	_memcpy
	add	esp, 12					; 0000000cH

; 789  : #ifndef WITH_LEANER
; 790  :     if (soap->fpreparesend)

	mov	eax, DWORD PTR _soap$[ebp]
	cmp	DWORD PTR [eax+12344], 0
	je	SHORT $LN11@soap_flush@2

; 791  :       return soap->error = soap->fpreparesend(soap, s, n);

	mov	esi, esp
	mov	eax, DWORD PTR _n$[ebp]
	push	eax
	mov	ecx, DWORD PTR _s$[ebp]
	push	ecx
	mov	edx, DWORD PTR _soap$[ebp]
	push	edx
	mov	eax, DWORD PTR _soap$[ebp]
	mov	ecx, DWORD PTR [eax+12344]
	call	ecx
	add	esp, 12					; 0000000cH
	cmp	esi, esp
	call	__RTC_CheckEsp
	mov	edx, DWORD PTR _soap$[ebp]
	mov	DWORD PTR [edx+90460], eax
	mov	eax, DWORD PTR _soap$[ebp]
	mov	eax, DWORD PTR [eax+90460]
	jmp	$LN14@soap_flush@2
$LN11@soap_flush@2:

; 792  : #endif
; 793  :     return SOAP_OK;

	xor	eax, eax
	jmp	$LN14@soap_flush@2
$LN13@soap_flush@2:

; 794  :   }
; 795  : #ifndef WITH_LEANER
; 796  :   if ((soap->mode & SOAP_IO) == SOAP_IO_CHUNK)

	mov	eax, DWORD PTR _soap$[ebp]
	mov	ecx, DWORD PTR [eax+8]
	and	ecx, 3
	cmp	ecx, 3
	jne	$LN10@soap_flush@2

; 797  :   { char t[16];
; 798  :     sprintf(t, "\r\n%lX\r\n" + (soap->chunksize ? 0 : 2), (unsigned long)n);

	mov	esi, esp
	mov	eax, DWORD PTR _n$[ebp]
	push	eax
	mov	ecx, DWORD PTR _soap$[ebp]
	mov	edx, DWORD PTR [ecx+87312]
	neg	edx
	sbb	edx, edx
	and	edx, -2					; fffffffeH
	add	edx, 2
	add	edx, OFFSET ??_C@_07FCIFDIFE@?$AN?6?$CFlX?$AN?6?$AA@
	push	edx
	lea	eax, DWORD PTR _t$82447[ebp]
	push	eax
	call	DWORD PTR __imp__sprintf
	add	esp, 12					; 0000000cH
	cmp	esi, esp
	call	__RTC_CheckEsp

; 799  :     DBGMSG(SENT, t, strlen(t));

	cmp	DWORD PTR _soap$[ebp], 0
	je	$LN9@soap_flush@2
	mov	eax, DWORD PTR _soap$[ebp]
	cmp	DWORD PTR [eax+90564], 0
	jne	SHORT $LN8@soap_flush@2
	push	1
	mov	eax, DWORD PTR _soap$[ebp]
	push	eax
	call	_soap_open_logfile
	add	esp, 8
$LN8@soap_flush@2:
	mov	eax, DWORD PTR _soap$[ebp]
	cmp	DWORD PTR [eax+90564], 0
	je	SHORT $LN9@soap_flush@2
	mov	esi, esp
	mov	eax, DWORD PTR _soap$[ebp]
	mov	ecx, DWORD PTR [eax+90564]
	push	ecx
	lea	edx, DWORD PTR _t$82447[ebp]
	push	edx
	call	_strlen
	add	esp, 4
	push	eax
	push	1
	lea	eax, DWORD PTR _t$82447[ebp]
	push	eax
	call	DWORD PTR __imp__fwrite
	add	esp, 16					; 00000010H
	cmp	esi, esp
	call	__RTC_CheckEsp
	mov	DWORD PTR _rc$82454[ebp], eax
	cmp	DWORD PTR _rc$82454[ebp], 0
	jae	SHORT $LN6@soap_flush@2
	mov	eax, DWORD PTR _rc$82454[ebp]
	add	eax, 1
	mov	DWORD PTR _rc$82454[ebp], eax
$LN6@soap_flush@2:
	mov	esi, esp
	mov	eax, DWORD PTR _soap$[ebp]
	mov	ecx, DWORD PTR [eax+90564]
	push	ecx
	call	DWORD PTR __imp__fflush
	add	esp, 4
	cmp	esi, esp
	call	__RTC_CheckEsp
$LN9@soap_flush@2:

; 800  :     if ((soap->error = soap->fsend(soap, t, strlen(t))))

	lea	eax, DWORD PTR _t$82447[ebp]
	push	eax
	call	_strlen
	add	esp, 4
	mov	esi, esp
	push	eax
	lea	ecx, DWORD PTR _t$82447[ebp]
	push	ecx
	mov	edx, DWORD PTR _soap$[ebp]
	push	edx
	mov	eax, DWORD PTR _soap$[ebp]
	mov	ecx, DWORD PTR [eax+12308]
	call	ecx
	add	esp, 12					; 0000000cH
	cmp	esi, esp
	call	__RTC_CheckEsp
	mov	edx, DWORD PTR _soap$[ebp]
	mov	DWORD PTR [edx+90460], eax
	mov	eax, DWORD PTR _soap$[ebp]
	cmp	DWORD PTR [eax+90460], 0
	je	SHORT $LN5@soap_flush@2

; 801  :       return soap->error;

	mov	eax, DWORD PTR _soap$[ebp]
	mov	eax, DWORD PTR [eax+90460]
	jmp	$LN14@soap_flush@2
$LN5@soap_flush@2:

; 802  :     soap->chunksize += n;

	mov	eax, DWORD PTR _soap$[ebp]
	mov	ecx, DWORD PTR [eax+87312]
	add	ecx, DWORD PTR _n$[ebp]
	mov	edx, DWORD PTR _soap$[ebp]
	mov	DWORD PTR [edx+87312], ecx
$LN10@soap_flush@2:

; 803  :   }
; 804  :   DBGMSG(SENT, s, n);

	cmp	DWORD PTR _soap$[ebp], 0
	je	SHORT $LN4@soap_flush@2
	mov	eax, DWORD PTR _soap$[ebp]
	cmp	DWORD PTR [eax+90564], 0
	jne	SHORT $LN3@soap_flush@2
	push	1
	mov	eax, DWORD PTR _soap$[ebp]
	push	eax
	call	_soap_open_logfile
	add	esp, 8
$LN3@soap_flush@2:
	mov	eax, DWORD PTR _soap$[ebp]
	cmp	DWORD PTR [eax+90564], 0
	je	SHORT $LN4@soap_flush@2
	mov	esi, esp
	mov	eax, DWORD PTR _soap$[ebp]
	mov	ecx, DWORD PTR [eax+90564]
	push	ecx
	mov	edx, DWORD PTR _n$[ebp]
	push	edx
	push	1
	mov	eax, DWORD PTR _s$[ebp]
	push	eax
	call	DWORD PTR __imp__fwrite
	add	esp, 16					; 00000010H
	cmp	esi, esp
	call	__RTC_CheckEsp
	mov	DWORD PTR _rc$82461[ebp], eax
	cmp	DWORD PTR _rc$82461[ebp], 0
	jae	SHORT $LN1@soap_flush@2
	mov	eax, DWORD PTR _rc$82461[ebp]
	add	eax, 1
	mov	DWORD PTR _rc$82461[ebp], eax
$LN1@soap_flush@2:
	mov	esi, esp
	mov	eax, DWORD PTR _soap$[ebp]
	mov	ecx, DWORD PTR [eax+90564]
	push	ecx
	call	DWORD PTR __imp__fflush
	add	esp, 4
	cmp	esi, esp
	call	__RTC_CheckEsp
$LN4@soap_flush@2:

; 805  : #endif
; 806  :   return soap->error = soap->fsend(soap, s, n);

	mov	esi, esp
	mov	eax, DWORD PTR _n$[ebp]
	push	eax
	mov	ecx, DWORD PTR _s$[ebp]
	push	ecx
	mov	edx, DWORD PTR _soap$[ebp]
	push	edx
	mov	eax, DWORD PTR _soap$[ebp]
	mov	ecx, DWORD PTR [eax+12308]
	call	ecx
	add	esp, 12					; 0000000cH
	cmp	esi, esp
	call	__RTC_CheckEsp
	mov	edx, DWORD PTR _soap$[ebp]
	mov	DWORD PTR [edx+90460], eax
	mov	eax, DWORD PTR _soap$[ebp]
	mov	eax, DWORD PTR [eax+90460]
$LN14@soap_flush@2:

; 807  : }

	push	edx
	mov	ecx, ebp
	push	eax
	lea	edx, DWORD PTR $LN18@soap_flush@2
	call	@_RTC_CheckStackVars@8
	pop	eax
	pop	edx
	pop	edi
	pop	esi
	pop	ebx
	mov	ecx, DWORD PTR __$ArrayPad$[ebp]
	xor	ecx, ebp
	call	@__security_check_cookie@4
	add	esp, 256				; 00000100H
	cmp	ebp, esp
	call	__RTC_CheckEsp
	mov	esp, ebp
	pop	ebp
	ret	0
	npad	2
$LN18@soap_flush@2:
	DD	1
	DD	$LN17@soap_flush@2
$LN17@soap_flush@2:
	DD	-36					; ffffffdcH
	DD	16					; 00000010H
	DD	$LN16@soap_flush@2
$LN16@soap_flush@2:
	DB	116					; 00000074H
	DB	0
_soap_flush_raw ENDP
_TEXT	ENDS
PUBLIC	_soap_send
; Function compile flags: /Odtp /RTCcsu /ZI
;	COMDAT _soap_send
_TEXT	SEGMENT
_soap$ = 8						; size = 4
_s$ = 12						; size = 4
_soap_send PROC						; COMDAT

; 816  : { if (s)

	push	ebp
	mov	ebp, esp
	sub	esp, 192				; 000000c0H
	push	ebx
	push	esi
	push	edi
	lea	edi, DWORD PTR [ebp-192]
	mov	ecx, 48					; 00000030H
	mov	eax, -858993460				; ccccccccH
	rep stosd
	cmp	DWORD PTR _s$[ebp], 0
	je	SHORT $LN1@soap_send

; 817  :     return soap_send_raw(soap, s, strlen(s));

	mov	eax, DWORD PTR _s$[ebp]
	push	eax
	call	_strlen
	add	esp, 4
	push	eax
	mov	ecx, DWORD PTR _s$[ebp]
	push	ecx
	mov	edx, DWORD PTR _soap$[ebp]
	push	edx
	call	_soap_send_raw
	add	esp, 12					; 0000000cH
	jmp	SHORT $LN2@soap_send
$LN1@soap_send:

; 818  :   return SOAP_OK;

	xor	eax, eax
$LN2@soap_send:

; 819  : }

	pop	edi
	pop	esi
	pop	ebx
	add	esp, 192				; 000000c0H
	cmp	ebp, esp
	call	__RTC_CheckEsp
	mov	esp, ebp
	pop	ebp
	ret	0
_soap_send ENDP
_TEXT	ENDS
PUBLIC	_soap_send2
; Function compile flags: /Odtp /RTCcsu /ZI
;	COMDAT _soap_send2
_TEXT	SEGMENT
_soap$ = 8						; size = 4
_s1$ = 12						; size = 4
_s2$ = 16						; size = 4
_soap_send2 PROC					; COMDAT

; 829  : { if (soap_send(soap, s1))

	push	ebp
	mov	ebp, esp
	sub	esp, 192				; 000000c0H
	push	ebx
	push	esi
	push	edi
	lea	edi, DWORD PTR [ebp-192]
	mov	ecx, 48					; 00000030H
	mov	eax, -858993460				; ccccccccH
	rep stosd
	mov	eax, DWORD PTR _s1$[ebp]
	push	eax
	mov	ecx, DWORD PTR _soap$[ebp]
	push	ecx
	call	_soap_send
	add	esp, 8
	test	eax, eax
	je	SHORT $LN1@soap_send2

; 830  :     return soap->error;

	mov	eax, DWORD PTR _soap$[ebp]
	mov	eax, DWORD PTR [eax+90460]
	jmp	SHORT $LN2@soap_send2
$LN1@soap_send2:

; 831  :   return soap_send(soap, s2);

	mov	eax, DWORD PTR _s2$[ebp]
	push	eax
	mov	ecx, DWORD PTR _soap$[ebp]
	push	ecx
	call	_soap_send
	add	esp, 8
$LN2@soap_send2:

; 832  : }

	pop	edi
	pop	esi
	pop	ebx
	add	esp, 192				; 000000c0H
	cmp	ebp, esp
	call	__RTC_CheckEsp
	mov	esp, ebp
	pop	ebp
	ret	0
_soap_send2 ENDP
_TEXT	ENDS
PUBLIC	_soap_send3
; Function compile flags: /Odtp /RTCcsu /ZI
;	COMDAT _soap_send3
_TEXT	SEGMENT
_soap$ = 8						; size = 4
_s1$ = 12						; size = 4
_s2$ = 16						; size = 4
_s3$ = 20						; size = 4
_soap_send3 PROC					; COMDAT

; 843  : { if (soap_send(soap, s1)

	push	ebp
	mov	ebp, esp
	sub	esp, 192				; 000000c0H
	push	ebx
	push	esi
	push	edi
	lea	edi, DWORD PTR [ebp-192]
	mov	ecx, 48					; 00000030H
	mov	eax, -858993460				; ccccccccH
	rep stosd

; 844  :    || soap_send(soap, s2))

	mov	eax, DWORD PTR _s1$[ebp]
	push	eax
	mov	ecx, DWORD PTR _soap$[ebp]
	push	ecx
	call	_soap_send
	add	esp, 8
	test	eax, eax
	jne	SHORT $LN1@soap_send3
	mov	eax, DWORD PTR _s2$[ebp]
	push	eax
	mov	ecx, DWORD PTR _soap$[ebp]
	push	ecx
	call	_soap_send
	add	esp, 8
	test	eax, eax
	je	SHORT $LN2@soap_send3
$LN1@soap_send3:

; 845  :     return soap->error;

	mov	eax, DWORD PTR _soap$[ebp]
	mov	eax, DWORD PTR [eax+90460]
	jmp	SHORT $LN3@soap_send3
$LN2@soap_send3:

; 846  :   return soap_send(soap, s3);

	mov	eax, DWORD PTR _s3$[ebp]
	push	eax
	mov	ecx, DWORD PTR _soap$[ebp]
	push	ecx
	call	_soap_send
	add	esp, 8
$LN3@soap_send3:

; 847  : }

	pop	edi
	pop	esi
	pop	ebx
	add	esp, 192				; 000000c0H
	cmp	ebp, esp
	call	__RTC_CheckEsp
	mov	esp, ebp
	pop	ebp
	ret	0
_soap_send3 ENDP
_TEXT	ENDS
PUBLIC	??_C@_0BO@BPPEEPFK@Read?5?$CFu?5bytes?5from?5socket?5?$CFd?6?$AA@ ; `string'
PUBLIC	??_C@_0DH@OPILDOG@Passed?5end?5of?5buffer?5for?5chunked@ ; `string'
PUBLIC	??_C@_0CG@KPDEBNJE@Moving?5buf?5len?5to?5idx?$DN?$CFu?5len?$DN?$CFu?5@ ; `string'
PUBLIC	??_C@_0BI@DEMCILKJ@End?5of?5chunked?5message?6?$AA@ ; `string'
PUBLIC	??_C@_0BH@LMGDHKCF@Chunk?5size?5?$DN?5?$CFs?5?$CIhex?$CJ?6?$AA@ ; `string'
PUBLIC	??_C@_0CE@EDBJBBKG@Getting?5chunk?5size?5?$CIidx?$DN?$CFu?5len?$DN?$CF@ ; `string'
PUBLIC	??_C@_0CI@OGFPOEIN@Read?5?$CFu?5bytes?5?$CIchunked?$CJ?5from?5soc@ ; `string'
PUBLIC	??_C@_0BO@HBPHHPDN@Getting?5chunk?3?5read?5?$CFu?5bytes?6?$AA@ ; `string'
PUBLIC	__$ArrayPad$
PUBLIC	_soap_recv_raw
EXTRN	__imp__strtoul:PROC
EXTRN	__imp__fprintf:PROC
EXTRN	@_RTC_Check_4_to_1@4:PROC
;	COMDAT ??_C@_0BO@BPPEEPFK@Read?5?$CFu?5bytes?5from?5socket?5?$CFd?6?$AA@
CONST	SEGMENT
??_C@_0BO@BPPEEPFK@Read?5?$CFu?5bytes?5from?5socket?5?$CFd?6?$AA@ DB 'Rea'
	DB	'd %u bytes from socket %d', 0aH, 00H	; `string'
CONST	ENDS
;	COMDAT ??_C@_0DH@OPILDOG@Passed?5end?5of?5buffer?5for?5chunked@
CONST	SEGMENT
??_C@_0DH@OPILDOG@Passed?5end?5of?5buffer?5for?5chunked@ DB 'Passed end o'
	DB	'f buffer for chunked HTTP (%u bytes left)', 0aH, 00H ; `string'
CONST	ENDS
;	COMDAT ??_C@_0CG@KPDEBNJE@Moving?5buf?5len?5to?5idx?$DN?$CFu?5len?$DN?$CFu?5@
CONST	SEGMENT
??_C@_0CG@KPDEBNJE@Moving?5buf?5len?5to?5idx?$DN?$CFu?5len?$DN?$CFu?5@ DB 'M'
	DB	'oving buf len to idx=%u len=%u (%s)', 0aH, 00H ; `string'
CONST	ENDS
;	COMDAT ??_C@_0BI@DEMCILKJ@End?5of?5chunked?5message?6?$AA@
CONST	SEGMENT
??_C@_0BI@DEMCILKJ@End?5of?5chunked?5message?6?$AA@ DB 'End of chunked me'
	DB	'ssage', 0aH, 00H				; `string'
CONST	ENDS
;	COMDAT ??_C@_0BH@LMGDHKCF@Chunk?5size?5?$DN?5?$CFs?5?$CIhex?$CJ?6?$AA@
CONST	SEGMENT
??_C@_0BH@LMGDHKCF@Chunk?5size?5?$DN?5?$CFs?5?$CIhex?$CJ?6?$AA@ DB 'Chunk'
	DB	' size = %s (hex)', 0aH, 00H			; `string'
CONST	ENDS
;	COMDAT ??_C@_0CE@EDBJBBKG@Getting?5chunk?5size?5?$CIidx?$DN?$CFu?5len?$DN?$CF@
CONST	SEGMENT
??_C@_0CE@EDBJBBKG@Getting?5chunk?5size?5?$CIidx?$DN?$CFu?5len?$DN?$CF@ DB 'G'
	DB	'etting chunk size (idx=%u len=%u)', 0aH, 00H ; `string'
CONST	ENDS
;	COMDAT ??_C@_0CI@OGFPOEIN@Read?5?$CFu?5bytes?5?$CIchunked?$CJ?5from?5soc@
CONST	SEGMENT
??_C@_0CI@OGFPOEIN@Read?5?$CFu?5bytes?5?$CIchunked?$CJ?5from?5soc@ DB 'Re'
	DB	'ad %u bytes (chunked) from socket %d', 0aH, 00H ; `string'
CONST	ENDS
;	COMDAT ??_C@_0BO@HBPHHPDN@Getting?5chunk?3?5read?5?$CFu?5bytes?6?$AA@
CONST	SEGMENT
??_C@_0BO@HBPHHPDN@Getting?5chunk?3?5read?5?$CFu?5bytes?6?$AA@ DB 'Gettin'
	DB	'g chunk: read %u bytes', 0aH, 00H		; `string'
; Function compile flags: /Odtp /RTCcsu /ZI
CONST	ENDS
;	COMDAT _soap_recv_raw
_TEXT	SEGMENT
tv75 = -384						; size = 4
_rc$82691 = -184					; size = 4
_fdebug$82685 = -172					; size = 4
_fdebug$82674 = -160					; size = 4
_fdebug$82665 = -148					; size = 4
_fdebug$82655 = -136					; size = 4
_fdebug$82648 = -124					; size = 4
_fdebug$82622 = -112					; size = 4
_rc$82614 = -100					; size = 4
_fdebug$82607 = -88					; size = 4
_rc$82600 = -76						; size = 4
_fdebug$82593 = -64					; size = 4
_tmp$82587 = -52					; size = 8
_t$82586 = -36						; size = 4
_c$82585 = -24						; size = 4
_ret$ = -12						; size = 4
__$ArrayPad$ = -4					; size = 4
_soap$ = 8						; size = 4
_soap_recv_raw PROC					; COMDAT

; 1080 : { register size_t ret;

	push	ebp
	mov	ebp, esp
	sub	esp, 384				; 00000180H
	push	ebx
	push	esi
	push	edi
	lea	edi, DWORD PTR [ebp-384]
	mov	ecx, 96					; 00000060H
	mov	eax, -858993460				; ccccccccH
	rep stosd
	mov	eax, DWORD PTR ___security_cookie
	xor	eax, ebp
	mov	DWORD PTR __$ArrayPad$[ebp], eax

; 1081 : #ifdef WITH_ZLIB
; 1082 :   if (soap->mode & SOAP_ENC_ZLIB)
; 1083 :   { if (soap->d_stream->next_out == Z_NULL)
; 1084 :       return EOF;
; 1085 :     if (soap->d_stream->avail_in || !soap->d_stream->avail_out)
; 1086 :     { register int r;
; 1087 :       DBGLOG(TEST, SOAP_MESSAGE(fdebug, "Inflating\n"));
; 1088 :       soap->d_stream->next_out = (Byte*)soap->buf;
; 1089 :       soap->d_stream->avail_out = SOAP_BUFLEN;
; 1090 :       r = inflate(soap->d_stream, Z_NO_FLUSH);
; 1091 :       if (r == Z_OK || r == Z_STREAM_END)
; 1092 :       { soap->bufidx = 0;
; 1093 :         ret = soap->buflen = SOAP_BUFLEN - soap->d_stream->avail_out;
; 1094 :         if (soap->zlib_in == SOAP_ZLIB_GZIP)
; 1095 :           soap->z_crc = crc32(soap->z_crc, (Byte*)soap->buf, (unsigned int)ret);
; 1096 :         if (r == Z_STREAM_END)
; 1097 :         { DBGLOG(TEST, SOAP_MESSAGE(fdebug, "Inflated %lu->%lu bytes\n", soap->d_stream->total_in, soap->d_stream->total_out));
; 1098 :           soap->z_ratio_in = (float)soap->d_stream->total_in / (float)soap->d_stream->total_out;
; 1099 :           soap->d_stream->next_out = Z_NULL;
; 1100 :         }
; 1101 :         if (ret)
; 1102 :         { soap->count += ret;
; 1103 :           DBGLOG(RECV, SOAP_MESSAGE(fdebug, "\n---- decompressed ----\n"));
; 1104 :           DBGMSG(RECV, soap->buf, ret);
; 1105 :           DBGLOG(RECV, SOAP_MESSAGE(fdebug, "\n----\n"));
; 1106 :           return SOAP_OK;
; 1107 :         }
; 1108 :       }
; 1109 :       else if (r != Z_BUF_ERROR)
; 1110 :       { DBGLOG(TEST, SOAP_MESSAGE(fdebug, "Inflate error: %s\n", soap->d_stream->msg?soap->d_stream->msg:""));
; 1111 :         soap->d_stream->next_out = Z_NULL;
; 1112 :         soap->error = SOAP_ZLIB_ERROR;
; 1113 :         return EOF;
; 1114 :       }
; 1115 :     }
; 1116 : zlib_again:
; 1117 :     if ((soap->mode & SOAP_IO) == SOAP_IO_CHUNK && !soap->chunksize)
; 1118 :     { memcpy(soap->buf, soap->z_buf, SOAP_BUFLEN);
; 1119 :       soap->buflen = soap->z_buflen;
; 1120 :     }
; 1121 :     DBGLOG(RECV, SOAP_MESSAGE(fdebug, "\n---- compressed ----\n"));
; 1122 :   }
; 1123 : #endif
; 1124 : #ifndef WITH_NOHTTP
; 1125 :   if ((soap->mode & SOAP_IO) == SOAP_IO_CHUNK) /* read HTTP chunked transfer */

	mov	eax, DWORD PTR _soap$[ebp]
	mov	ecx, DWORD PTR [eax+8]
	and	ecx, 3
	cmp	ecx, 3
	jne	$LN62@soap_recv_
$LN61@soap_recv_:

; 1126 :   { for (;;)
; 1127 :     { register soap_wchar c;
; 1128 :       char *t, tmp[8];
; 1129 :       if (soap->chunksize)

	mov	eax, DWORD PTR _soap$[ebp]
	cmp	DWORD PTR [eax+87312], 0
	je	$LN59@soap_recv_

; 1130 :       { soap->buflen = ret = soap->frecv(soap, soap->buf, soap->chunksize > SOAP_BUFLEN ? SOAP_BUFLEN : soap->chunksize);

	mov	eax, DWORD PTR _soap$[ebp]
	cmp	DWORD PTR [eax+87312], 65536		; 00010000H
	jbe	SHORT $LN65@soap_recv_
	mov	DWORD PTR tv75[ebp], 65536		; 00010000H
	jmp	SHORT $LN66@soap_recv_
$LN65@soap_recv_:
	mov	ecx, DWORD PTR _soap$[ebp]
	mov	edx, DWORD PTR [ecx+87312]
	mov	DWORD PTR tv75[ebp], edx
$LN66@soap_recv_:
	mov	esi, esp
	mov	eax, DWORD PTR tv75[ebp]
	push	eax
	mov	ecx, DWORD PTR _soap$[ebp]
	add	ecx, 12468				; 000030b4H
	push	ecx
	mov	edx, DWORD PTR _soap$[ebp]
	push	edx
	mov	eax, DWORD PTR _soap$[ebp]
	mov	ecx, DWORD PTR [eax+12312]
	call	ecx
	add	esp, 12					; 0000000cH
	cmp	esi, esp
	call	__RTC_CheckEsp
	mov	DWORD PTR _ret$[ebp], eax
	mov	edx, DWORD PTR _soap$[ebp]
	mov	eax, DWORD PTR _ret$[ebp]
	mov	DWORD PTR [edx+12432], eax

; 1131 :         DBGLOG(TEST, SOAP_MESSAGE(fdebug, "Getting chunk: read %u bytes\n", (unsigned int)ret));

	cmp	DWORD PTR _soap$[ebp], 0
	je	SHORT $LN58@soap_recv_
	mov	eax, DWORD PTR _soap$[ebp]
	cmp	DWORD PTR [eax+90568], 0
	jne	SHORT $LN57@soap_recv_
	push	2
	mov	eax, DWORD PTR _soap$[ebp]
	push	eax
	call	_soap_open_logfile
	add	esp, 8
$LN57@soap_recv_:
	mov	eax, DWORD PTR _soap$[ebp]
	cmp	DWORD PTR [eax+90568], 0
	je	SHORT $LN58@soap_recv_
	mov	eax, DWORD PTR _soap$[ebp]
	mov	ecx, DWORD PTR [eax+90568]
	mov	DWORD PTR _fdebug$82593[ebp], ecx
	mov	esi, esp
	mov	eax, DWORD PTR _ret$[ebp]
	push	eax
	push	OFFSET ??_C@_0BO@HBPHHPDN@Getting?5chunk?3?5read?5?$CFu?5bytes?6?$AA@
	mov	ecx, DWORD PTR _fdebug$82593[ebp]
	push	ecx
	call	DWORD PTR __imp__fprintf
	add	esp, 12					; 0000000cH
	cmp	esi, esp
	call	__RTC_CheckEsp
	mov	esi, esp
	mov	eax, DWORD PTR _fdebug$82593[ebp]
	push	eax
	call	DWORD PTR __imp__fflush
	add	esp, 4
	cmp	esi, esp
	call	__RTC_CheckEsp
$LN58@soap_recv_:

; 1132 :         DBGMSG(RECV, soap->buf, ret);

	cmp	DWORD PTR _soap$[ebp], 0
	je	SHORT $LN55@soap_recv_
	mov	eax, DWORD PTR _soap$[ebp]
	cmp	DWORD PTR [eax+90560], 0
	jne	SHORT $LN54@soap_recv_
	push	0
	mov	eax, DWORD PTR _soap$[ebp]
	push	eax
	call	_soap_open_logfile
	add	esp, 8
$LN54@soap_recv_:
	mov	eax, DWORD PTR _soap$[ebp]
	cmp	DWORD PTR [eax+90560], 0
	je	SHORT $LN55@soap_recv_
	mov	esi, esp
	mov	eax, DWORD PTR _soap$[ebp]
	mov	ecx, DWORD PTR [eax+90560]
	push	ecx
	mov	edx, DWORD PTR _ret$[ebp]
	push	edx
	push	1
	mov	eax, DWORD PTR _soap$[ebp]
	add	eax, 12468				; 000030b4H
	push	eax
	call	DWORD PTR __imp__fwrite
	add	esp, 16					; 00000010H
	cmp	esi, esp
	call	__RTC_CheckEsp
	mov	DWORD PTR _rc$82600[ebp], eax
	cmp	DWORD PTR _rc$82600[ebp], 0
	jae	SHORT $LN52@soap_recv_
	mov	eax, DWORD PTR _rc$82600[ebp]
	add	eax, 1
	mov	DWORD PTR _rc$82600[ebp], eax
$LN52@soap_recv_:
	mov	esi, esp
	mov	eax, DWORD PTR _soap$[ebp]
	mov	ecx, DWORD PTR [eax+90560]
	push	ecx
	call	DWORD PTR __imp__fflush
	add	esp, 4
	cmp	esi, esp
	call	__RTC_CheckEsp
$LN55@soap_recv_:

; 1133 :         soap->bufidx = 0;

	mov	eax, DWORD PTR _soap$[ebp]
	mov	DWORD PTR [eax+12428], 0

; 1134 :         soap->chunksize -= ret;

	mov	eax, DWORD PTR _soap$[ebp]
	mov	ecx, DWORD PTR [eax+87312]
	sub	ecx, DWORD PTR _ret$[ebp]
	mov	edx, DWORD PTR _soap$[ebp]
	mov	DWORD PTR [edx+87312], ecx

; 1135 :         break;

	jmp	$LN60@soap_recv_
$LN59@soap_recv_:

; 1136 :       }
; 1137 :       t = tmp;

	lea	eax, DWORD PTR _tmp$82587[ebp]
	mov	DWORD PTR _t$82586[ebp], eax

; 1138 :       if (!soap->chunkbuflen)

	mov	eax, DWORD PTR _soap$[ebp]
	cmp	DWORD PTR [eax+87316], 0
	jne	$LN51@soap_recv_

; 1139 :       { soap->chunkbuflen = ret = soap->frecv(soap, soap->buf, SOAP_BUFLEN);

	mov	esi, esp
	push	65536					; 00010000H
	mov	eax, DWORD PTR _soap$[ebp]
	add	eax, 12468				; 000030b4H
	push	eax
	mov	ecx, DWORD PTR _soap$[ebp]
	push	ecx
	mov	edx, DWORD PTR _soap$[ebp]
	mov	eax, DWORD PTR [edx+12312]
	call	eax
	add	esp, 12					; 0000000cH
	cmp	esi, esp
	call	__RTC_CheckEsp
	mov	DWORD PTR _ret$[ebp], eax
	mov	ecx, DWORD PTR _soap$[ebp]
	mov	edx, DWORD PTR _ret$[ebp]
	mov	DWORD PTR [ecx+87316], edx

; 1140 :         DBGLOG(TEST, SOAP_MESSAGE(fdebug, "Read %u bytes (chunked) from socket %d\n", (unsigned int)ret, soap->socket));

	cmp	DWORD PTR _soap$[ebp], 0
	je	SHORT $LN50@soap_recv_
	mov	eax, DWORD PTR _soap$[ebp]
	cmp	DWORD PTR [eax+90568], 0
	jne	SHORT $LN49@soap_recv_
	push	2
	mov	eax, DWORD PTR _soap$[ebp]
	push	eax
	call	_soap_open_logfile
	add	esp, 8
$LN49@soap_recv_:
	mov	eax, DWORD PTR _soap$[ebp]
	cmp	DWORD PTR [eax+90568], 0
	je	SHORT $LN50@soap_recv_
	mov	eax, DWORD PTR _soap$[ebp]
	mov	ecx, DWORD PTR [eax+90568]
	mov	DWORD PTR _fdebug$82607[ebp], ecx
	mov	esi, esp
	mov	eax, DWORD PTR _soap$[ebp]
	mov	ecx, DWORD PTR [eax+12408]
	push	ecx
	mov	edx, DWORD PTR _ret$[ebp]
	push	edx
	push	OFFSET ??_C@_0CI@OGFPOEIN@Read?5?$CFu?5bytes?5?$CIchunked?$CJ?5from?5soc@
	mov	eax, DWORD PTR _fdebug$82607[ebp]
	push	eax
	call	DWORD PTR __imp__fprintf
	add	esp, 16					; 00000010H
	cmp	esi, esp
	call	__RTC_CheckEsp
	mov	esi, esp
	mov	eax, DWORD PTR _fdebug$82607[ebp]
	push	eax
	call	DWORD PTR __imp__fflush
	add	esp, 4
	cmp	esi, esp
	call	__RTC_CheckEsp
$LN50@soap_recv_:

; 1141 :         DBGMSG(RECV, soap->buf, ret);

	cmp	DWORD PTR _soap$[ebp], 0
	je	SHORT $LN47@soap_recv_
	mov	eax, DWORD PTR _soap$[ebp]
	cmp	DWORD PTR [eax+90560], 0
	jne	SHORT $LN46@soap_recv_
	push	0
	mov	eax, DWORD PTR _soap$[ebp]
	push	eax
	call	_soap_open_logfile
	add	esp, 8
$LN46@soap_recv_:
	mov	eax, DWORD PTR _soap$[ebp]
	cmp	DWORD PTR [eax+90560], 0
	je	SHORT $LN47@soap_recv_
	mov	esi, esp
	mov	eax, DWORD PTR _soap$[ebp]
	mov	ecx, DWORD PTR [eax+90560]
	push	ecx
	mov	edx, DWORD PTR _ret$[ebp]
	push	edx
	push	1
	mov	eax, DWORD PTR _soap$[ebp]
	add	eax, 12468				; 000030b4H
	push	eax
	call	DWORD PTR __imp__fwrite
	add	esp, 16					; 00000010H
	cmp	esi, esp
	call	__RTC_CheckEsp
	mov	DWORD PTR _rc$82614[ebp], eax
	cmp	DWORD PTR _rc$82614[ebp], 0
	jae	SHORT $LN44@soap_recv_
	mov	eax, DWORD PTR _rc$82614[ebp]
	add	eax, 1
	mov	DWORD PTR _rc$82614[ebp], eax
$LN44@soap_recv_:
	mov	esi, esp
	mov	eax, DWORD PTR _soap$[ebp]
	mov	ecx, DWORD PTR [eax+90560]
	push	ecx
	call	DWORD PTR __imp__fflush
	add	esp, 4
	cmp	esi, esp
	call	__RTC_CheckEsp
$LN47@soap_recv_:

; 1142 :         soap->bufidx = 0;

	mov	eax, DWORD PTR _soap$[ebp]
	mov	DWORD PTR [eax+12428], 0

; 1143 :         if (!ret)

	cmp	DWORD PTR _ret$[ebp], 0
	jne	SHORT $LN43@soap_recv_

; 1144 :           return soap->ahead = EOF;

	mov	eax, DWORD PTR _soap$[ebp]
	mov	DWORD PTR [eax+12436], -1
	or	eax, -1
	jmp	$LN63@soap_recv_
$LN43@soap_recv_:

; 1145 :       }
; 1146 :       else

	jmp	SHORT $LN42@soap_recv_
$LN51@soap_recv_:

; 1147 :         soap->bufidx = soap->buflen;

	mov	eax, DWORD PTR _soap$[ebp]
	mov	ecx, DWORD PTR _soap$[ebp]
	mov	edx, DWORD PTR [ecx+12432]
	mov	DWORD PTR [eax+12428], edx
$LN42@soap_recv_:

; 1148 :       soap->buflen = soap->chunkbuflen;

	mov	eax, DWORD PTR _soap$[ebp]
	mov	ecx, DWORD PTR _soap$[ebp]
	mov	edx, DWORD PTR [ecx+87316]
	mov	DWORD PTR [eax+12432], edx

; 1149 :       DBGLOG(TEST, SOAP_MESSAGE(fdebug, "Getting chunk size (idx=%u len=%u)\n", (unsigned int)soap->bufidx, (unsigned int)soap->buflen));

	cmp	DWORD PTR _soap$[ebp], 0
	je	SHORT $LN38@soap_recv_
	mov	eax, DWORD PTR _soap$[ebp]
	cmp	DWORD PTR [eax+90568], 0
	jne	SHORT $LN40@soap_recv_
	push	2
	mov	eax, DWORD PTR _soap$[ebp]
	push	eax
	call	_soap_open_logfile
	add	esp, 8
$LN40@soap_recv_:
	mov	eax, DWORD PTR _soap$[ebp]
	cmp	DWORD PTR [eax+90568], 0
	je	SHORT $LN38@soap_recv_
	mov	eax, DWORD PTR _soap$[ebp]
	mov	ecx, DWORD PTR [eax+90568]
	mov	DWORD PTR _fdebug$82622[ebp], ecx
	mov	esi, esp
	mov	eax, DWORD PTR _soap$[ebp]
	mov	ecx, DWORD PTR [eax+12432]
	push	ecx
	mov	edx, DWORD PTR _soap$[ebp]
	mov	eax, DWORD PTR [edx+12428]
	push	eax
	push	OFFSET ??_C@_0CE@EDBJBBKG@Getting?5chunk?5size?5?$CIidx?$DN?$CFu?5len?$DN?$CF@
	mov	ecx, DWORD PTR _fdebug$82622[ebp]
	push	ecx
	call	DWORD PTR __imp__fprintf
	add	esp, 16					; 00000010H
	cmp	esi, esp
	call	__RTC_CheckEsp
	mov	esi, esp
	mov	eax, DWORD PTR _fdebug$82622[ebp]
	push	eax
	call	DWORD PTR __imp__fflush
	add	esp, 4
	cmp	esi, esp
	call	__RTC_CheckEsp
$LN38@soap_recv_:

; 1150 :       while (!soap_isxdigit((int)(c = soap_getchunkchar(soap))))

	mov	eax, DWORD PTR _soap$[ebp]
	push	eax
	call	_soap_getchunkchar
	add	esp, 4
	mov	DWORD PTR _c$82585[ebp], eax
	mov	ecx, DWORD PTR _c$82585[ebp]
	push	ecx
	call	_soap_isxdigit
	add	esp, 4
	test	eax, eax
	jne	SHORT $LN35@soap_recv_

; 1151 :       { if ((int)c == EOF)

	cmp	DWORD PTR _c$82585[ebp], -1
	jne	SHORT $LN36@soap_recv_

; 1152 :           return soap->ahead = EOF;

	mov	eax, DWORD PTR _soap$[ebp]
	mov	DWORD PTR [eax+12436], -1
	or	eax, -1
	jmp	$LN63@soap_recv_
$LN36@soap_recv_:

; 1153 :       }

	jmp	SHORT $LN38@soap_recv_
$LN35@soap_recv_:

; 1154 :       do
; 1155 :         *t++ = (char)c;

	mov	ecx, DWORD PTR _c$82585[ebp]
	call	@_RTC_Check_4_to_1@4
	mov	ecx, DWORD PTR _t$82586[ebp]
	mov	BYTE PTR [ecx], al
	mov	edx, DWORD PTR _t$82586[ebp]
	add	edx, 1
	mov	DWORD PTR _t$82586[ebp], edx

; 1156 :       while (soap_isxdigit((int)(c = soap_getchunkchar(soap))) && t - tmp < 7);

	mov	eax, DWORD PTR _soap$[ebp]
	push	eax
	call	_soap_getchunkchar
	add	esp, 4
	mov	DWORD PTR _c$82585[ebp], eax
	mov	ecx, DWORD PTR _c$82585[ebp]
	push	ecx
	call	_soap_isxdigit
	add	esp, 4
	test	eax, eax
	je	SHORT $LN31@soap_recv_
	mov	eax, DWORD PTR _t$82586[ebp]
	lea	ecx, DWORD PTR _tmp$82587[ebp]
	sub	eax, ecx
	cmp	eax, 7
	jl	SHORT $LN35@soap_recv_
$LN31@soap_recv_:

; 1157 :       while ((int)c != EOF && c != '\n')

	cmp	DWORD PTR _c$82585[ebp], -1
	je	SHORT $LN30@soap_recv_
	cmp	DWORD PTR _c$82585[ebp], 10		; 0000000aH
	je	SHORT $LN30@soap_recv_

; 1158 :         c = soap_getchunkchar(soap);

	mov	eax, DWORD PTR _soap$[ebp]
	push	eax
	call	_soap_getchunkchar
	add	esp, 4
	mov	DWORD PTR _c$82585[ebp], eax
	jmp	SHORT $LN31@soap_recv_
$LN30@soap_recv_:

; 1159 :       if ((int)c == EOF)

	cmp	DWORD PTR _c$82585[ebp], -1
	jne	SHORT $LN29@soap_recv_

; 1160 :         return soap->ahead = EOF;

	mov	eax, DWORD PTR _soap$[ebp]
	mov	DWORD PTR [eax+12436], -1
	or	eax, -1
	jmp	$LN63@soap_recv_
$LN29@soap_recv_:

; 1161 :       *t = '\0';

	mov	eax, DWORD PTR _t$82586[ebp]
	mov	BYTE PTR [eax], 0

; 1162 :       DBGLOG(TEST, SOAP_MESSAGE(fdebug, "Chunk size = %s (hex)\n", tmp));

	cmp	DWORD PTR _soap$[ebp], 0
	je	SHORT $LN28@soap_recv_
	mov	eax, DWORD PTR _soap$[ebp]
	cmp	DWORD PTR [eax+90568], 0
	jne	SHORT $LN27@soap_recv_
	push	2
	mov	eax, DWORD PTR _soap$[ebp]
	push	eax
	call	_soap_open_logfile
	add	esp, 8
$LN27@soap_recv_:
	mov	eax, DWORD PTR _soap$[ebp]
	cmp	DWORD PTR [eax+90568], 0
	je	SHORT $LN28@soap_recv_
	mov	eax, DWORD PTR _soap$[ebp]
	mov	ecx, DWORD PTR [eax+90568]
	mov	DWORD PTR _fdebug$82648[ebp], ecx
	mov	esi, esp
	lea	eax, DWORD PTR _tmp$82587[ebp]
	push	eax
	push	OFFSET ??_C@_0BH@LMGDHKCF@Chunk?5size?5?$DN?5?$CFs?5?$CIhex?$CJ?6?$AA@
	mov	ecx, DWORD PTR _fdebug$82648[ebp]
	push	ecx
	call	DWORD PTR __imp__fprintf
	add	esp, 12					; 0000000cH
	cmp	esi, esp
	call	__RTC_CheckEsp
	mov	esi, esp
	mov	eax, DWORD PTR _fdebug$82648[ebp]
	push	eax
	call	DWORD PTR __imp__fflush
	add	esp, 4
	cmp	esi, esp
	call	__RTC_CheckEsp
$LN28@soap_recv_:

; 1163 :       soap->chunksize = soap_strtoul(tmp, &t, 16);

	mov	esi, esp
	push	16					; 00000010H
	lea	eax, DWORD PTR _t$82586[ebp]
	push	eax
	lea	ecx, DWORD PTR _tmp$82587[ebp]
	push	ecx
	call	DWORD PTR __imp__strtoul
	add	esp, 12					; 0000000cH
	cmp	esi, esp
	call	__RTC_CheckEsp
	mov	edx, DWORD PTR _soap$[ebp]
	mov	DWORD PTR [edx+87312], eax

; 1164 :       if (!soap->chunksize)

	mov	eax, DWORD PTR _soap$[ebp]
	cmp	DWORD PTR [eax+87312], 0
	jne	$LN25@soap_recv_

; 1165 :       { soap->chunkbuflen = 0;

	mov	eax, DWORD PTR _soap$[ebp]
	mov	DWORD PTR [eax+87316], 0

; 1166 :         DBGLOG(TEST, SOAP_MESSAGE(fdebug, "End of chunked message\n"));

	cmp	DWORD PTR _soap$[ebp], 0
	je	SHORT $LN21@soap_recv_
	mov	eax, DWORD PTR _soap$[ebp]
	cmp	DWORD PTR [eax+90568], 0
	jne	SHORT $LN23@soap_recv_
	push	2
	mov	eax, DWORD PTR _soap$[ebp]
	push	eax
	call	_soap_open_logfile
	add	esp, 8
$LN23@soap_recv_:
	mov	eax, DWORD PTR _soap$[ebp]
	cmp	DWORD PTR [eax+90568], 0
	je	SHORT $LN21@soap_recv_
	mov	eax, DWORD PTR _soap$[ebp]
	mov	ecx, DWORD PTR [eax+90568]
	mov	DWORD PTR _fdebug$82655[ebp], ecx
	mov	esi, esp
	push	OFFSET ??_C@_0BI@DEMCILKJ@End?5of?5chunked?5message?6?$AA@
	mov	eax, DWORD PTR _fdebug$82655[ebp]
	push	eax
	call	DWORD PTR __imp__fprintf
	add	esp, 8
	cmp	esi, esp
	call	__RTC_CheckEsp
	mov	esi, esp
	mov	eax, DWORD PTR _fdebug$82655[ebp]
	push	eax
	call	DWORD PTR __imp__fflush
	add	esp, 4
	cmp	esi, esp
	call	__RTC_CheckEsp
$LN21@soap_recv_:

; 1167 :         while ((int)c != EOF && c != '\n')

	cmp	DWORD PTR _c$82585[ebp], -1
	je	SHORT $LN20@soap_recv_
	cmp	DWORD PTR _c$82585[ebp], 10		; 0000000aH
	je	SHORT $LN20@soap_recv_

; 1168 :           c = soap_getchunkchar(soap);

	mov	eax, DWORD PTR _soap$[ebp]
	push	eax
	call	_soap_getchunkchar
	add	esp, 4
	mov	DWORD PTR _c$82585[ebp], eax
	jmp	SHORT $LN21@soap_recv_
$LN20@soap_recv_:

; 1169 :         ret = 0;

	mov	DWORD PTR _ret$[ebp], 0

; 1170 :         soap->ahead = EOF;

	mov	eax, DWORD PTR _soap$[ebp]
	mov	DWORD PTR [eax+12436], -1

; 1171 : 	break;

	jmp	$LN60@soap_recv_
$LN25@soap_recv_:

; 1172 :       }
; 1173 :       soap->buflen = soap->bufidx + soap->chunksize;

	mov	eax, DWORD PTR _soap$[ebp]
	mov	ecx, DWORD PTR [eax+12428]
	mov	edx, DWORD PTR _soap$[ebp]
	add	ecx, DWORD PTR [edx+87312]
	mov	eax, DWORD PTR _soap$[ebp]
	mov	DWORD PTR [eax+12432], ecx

; 1174 :       DBGLOG(TEST, SOAP_MESSAGE(fdebug, "Moving buf len to idx=%u len=%u (%s)\n", (unsigned int)soap->bufidx, (unsigned int)soap->buflen, tmp));

	cmp	DWORD PTR _soap$[ebp], 0
	je	$LN19@soap_recv_
	mov	eax, DWORD PTR _soap$[ebp]
	cmp	DWORD PTR [eax+90568], 0
	jne	SHORT $LN18@soap_recv_
	push	2
	mov	eax, DWORD PTR _soap$[ebp]
	push	eax
	call	_soap_open_logfile
	add	esp, 8
$LN18@soap_recv_:
	mov	eax, DWORD PTR _soap$[ebp]
	cmp	DWORD PTR [eax+90568], 0
	je	SHORT $LN19@soap_recv_
	mov	eax, DWORD PTR _soap$[ebp]
	mov	ecx, DWORD PTR [eax+90568]
	mov	DWORD PTR _fdebug$82665[ebp], ecx
	mov	esi, esp
	lea	eax, DWORD PTR _tmp$82587[ebp]
	push	eax
	mov	ecx, DWORD PTR _soap$[ebp]
	mov	edx, DWORD PTR [ecx+12432]
	push	edx
	mov	eax, DWORD PTR _soap$[ebp]
	mov	ecx, DWORD PTR [eax+12428]
	push	ecx
	push	OFFSET ??_C@_0CG@KPDEBNJE@Moving?5buf?5len?5to?5idx?$DN?$CFu?5len?$DN?$CFu?5@
	mov	edx, DWORD PTR _fdebug$82665[ebp]
	push	edx
	call	DWORD PTR __imp__fprintf
	add	esp, 20					; 00000014H
	cmp	esi, esp
	call	__RTC_CheckEsp
	mov	esi, esp
	mov	eax, DWORD PTR _fdebug$82665[ebp]
	push	eax
	call	DWORD PTR __imp__fflush
	add	esp, 4
	cmp	esi, esp
	call	__RTC_CheckEsp
$LN19@soap_recv_:

; 1175 :       if (soap->buflen > soap->chunkbuflen)

	mov	eax, DWORD PTR _soap$[ebp]
	mov	ecx, DWORD PTR _soap$[ebp]
	mov	edx, DWORD PTR [eax+12432]
	cmp	edx, DWORD PTR [ecx+87316]
	jbe	$LN16@soap_recv_

; 1176 :       { soap->buflen = soap->chunkbuflen;

	mov	eax, DWORD PTR _soap$[ebp]
	mov	ecx, DWORD PTR _soap$[ebp]
	mov	edx, DWORD PTR [ecx+87316]
	mov	DWORD PTR [eax+12432], edx

; 1177 :         soap->chunksize -= soap->buflen - soap->bufidx;

	mov	eax, DWORD PTR _soap$[ebp]
	mov	ecx, DWORD PTR _soap$[ebp]
	mov	edx, DWORD PTR [eax+12432]
	sub	edx, DWORD PTR [ecx+12428]
	mov	eax, DWORD PTR _soap$[ebp]
	mov	ecx, DWORD PTR [eax+87312]
	sub	ecx, edx
	mov	edx, DWORD PTR _soap$[ebp]
	mov	DWORD PTR [edx+87312], ecx

; 1178 :         soap->chunkbuflen = 0;

	mov	eax, DWORD PTR _soap$[ebp]
	mov	DWORD PTR [eax+87316], 0

; 1179 :         DBGLOG(TEST, SOAP_MESSAGE(fdebug, "Passed end of buffer for chunked HTTP (%u bytes left)\n", (unsigned int)(soap->buflen - soap->bufidx)));

	cmp	DWORD PTR _soap$[ebp], 0
	je	SHORT $LN15@soap_recv_
	mov	eax, DWORD PTR _soap$[ebp]
	cmp	DWORD PTR [eax+90568], 0
	jne	SHORT $LN14@soap_recv_
	push	2
	mov	eax, DWORD PTR _soap$[ebp]
	push	eax
	call	_soap_open_logfile
	add	esp, 8
$LN14@soap_recv_:
	mov	eax, DWORD PTR _soap$[ebp]
	cmp	DWORD PTR [eax+90568], 0
	je	SHORT $LN15@soap_recv_
	mov	eax, DWORD PTR _soap$[ebp]
	mov	ecx, DWORD PTR [eax+90568]
	mov	DWORD PTR _fdebug$82674[ebp], ecx
	mov	eax, DWORD PTR _soap$[ebp]
	mov	ecx, DWORD PTR _soap$[ebp]
	mov	edx, DWORD PTR [eax+12432]
	sub	edx, DWORD PTR [ecx+12428]
	mov	esi, esp
	push	edx
	push	OFFSET ??_C@_0DH@OPILDOG@Passed?5end?5of?5buffer?5for?5chunked@
	mov	eax, DWORD PTR _fdebug$82674[ebp]
	push	eax
	call	DWORD PTR __imp__fprintf
	add	esp, 12					; 0000000cH
	cmp	esi, esp
	call	__RTC_CheckEsp
	mov	esi, esp
	mov	eax, DWORD PTR _fdebug$82674[ebp]
	push	eax
	call	DWORD PTR __imp__fflush
	add	esp, 4
	cmp	esi, esp
	call	__RTC_CheckEsp
$LN15@soap_recv_:
	jmp	SHORT $LN12@soap_recv_
$LN16@soap_recv_:

; 1180 :       }
; 1181 :       else if (soap->chunkbuflen)

	mov	eax, DWORD PTR _soap$[ebp]
	cmp	DWORD PTR [eax+87316], 0
	je	SHORT $LN12@soap_recv_

; 1182 :         soap->chunksize = 0;

	mov	eax, DWORD PTR _soap$[ebp]
	mov	DWORD PTR [eax+87312], 0
$LN12@soap_recv_:

; 1183 :       ret = soap->buflen - soap->bufidx;

	mov	eax, DWORD PTR _soap$[ebp]
	mov	ecx, DWORD PTR _soap$[ebp]
	mov	edx, DWORD PTR [eax+12432]
	sub	edx, DWORD PTR [ecx+12428]
	mov	DWORD PTR _ret$[ebp], edx

; 1184 :       if (ret)

	je	SHORT $LN10@soap_recv_

; 1185 :         break;

	jmp	SHORT $LN60@soap_recv_
$LN10@soap_recv_:

; 1186 :     }

	jmp	$LN61@soap_recv_
$LN60@soap_recv_:

; 1187 :   }
; 1188 :   else

	jmp	$LN9@soap_recv_
$LN62@soap_recv_:

; 1189 : #endif
; 1190 :   { soap->bufidx = 0;

	mov	eax, DWORD PTR _soap$[ebp]
	mov	DWORD PTR [eax+12428], 0

; 1191 :     soap->buflen = ret = soap->frecv(soap, soap->buf, SOAP_BUFLEN);

	mov	esi, esp
	push	65536					; 00010000H
	mov	eax, DWORD PTR _soap$[ebp]
	add	eax, 12468				; 000030b4H
	push	eax
	mov	ecx, DWORD PTR _soap$[ebp]
	push	ecx
	mov	edx, DWORD PTR _soap$[ebp]
	mov	eax, DWORD PTR [edx+12312]
	call	eax
	add	esp, 12					; 0000000cH
	cmp	esi, esp
	call	__RTC_CheckEsp
	mov	DWORD PTR _ret$[ebp], eax
	mov	ecx, DWORD PTR _soap$[ebp]
	mov	edx, DWORD PTR _ret$[ebp]
	mov	DWORD PTR [ecx+12432], edx

; 1192 :     DBGLOG(TEST, SOAP_MESSAGE(fdebug, "Read %u bytes from socket %d\n", (unsigned int)ret, soap->socket));

	cmp	DWORD PTR _soap$[ebp], 0
	je	SHORT $LN8@soap_recv_
	mov	eax, DWORD PTR _soap$[ebp]
	cmp	DWORD PTR [eax+90568], 0
	jne	SHORT $LN7@soap_recv_
	push	2
	mov	eax, DWORD PTR _soap$[ebp]
	push	eax
	call	_soap_open_logfile
	add	esp, 8
$LN7@soap_recv_:
	mov	eax, DWORD PTR _soap$[ebp]
	cmp	DWORD PTR [eax+90568], 0
	je	SHORT $LN8@soap_recv_
	mov	eax, DWORD PTR _soap$[ebp]
	mov	ecx, DWORD PTR [eax+90568]
	mov	DWORD PTR _fdebug$82685[ebp], ecx
	mov	esi, esp
	mov	eax, DWORD PTR _soap$[ebp]
	mov	ecx, DWORD PTR [eax+12408]
	push	ecx
	mov	edx, DWORD PTR _ret$[ebp]
	push	edx
	push	OFFSET ??_C@_0BO@BPPEEPFK@Read?5?$CFu?5bytes?5from?5socket?5?$CFd?6?$AA@
	mov	eax, DWORD PTR _fdebug$82685[ebp]
	push	eax
	call	DWORD PTR __imp__fprintf
	add	esp, 16					; 00000010H
	cmp	esi, esp
	call	__RTC_CheckEsp
	mov	esi, esp
	mov	eax, DWORD PTR _fdebug$82685[ebp]
	push	eax
	call	DWORD PTR __imp__fflush
	add	esp, 4
	cmp	esi, esp
	call	__RTC_CheckEsp
$LN8@soap_recv_:

; 1193 :     DBGMSG(RECV, soap->buf, ret);

	cmp	DWORD PTR _soap$[ebp], 0
	je	$LN9@soap_recv_
	mov	eax, DWORD PTR _soap$[ebp]
	cmp	DWORD PTR [eax+90560], 0
	jne	SHORT $LN4@soap_recv_
	push	0
	mov	eax, DWORD PTR _soap$[ebp]
	push	eax
	call	_soap_open_logfile
	add	esp, 8
$LN4@soap_recv_:
	mov	eax, DWORD PTR _soap$[ebp]
	cmp	DWORD PTR [eax+90560], 0
	je	SHORT $LN9@soap_recv_
	mov	esi, esp
	mov	eax, DWORD PTR _soap$[ebp]
	mov	ecx, DWORD PTR [eax+90560]
	push	ecx
	mov	edx, DWORD PTR _ret$[ebp]
	push	edx
	push	1
	mov	eax, DWORD PTR _soap$[ebp]
	add	eax, 12468				; 000030b4H
	push	eax
	call	DWORD PTR __imp__fwrite
	add	esp, 16					; 00000010H
	cmp	esi, esp
	call	__RTC_CheckEsp
	mov	DWORD PTR _rc$82691[ebp], eax
	cmp	DWORD PTR _rc$82691[ebp], 0
	jae	SHORT $LN2@soap_recv_
	mov	eax, DWORD PTR _rc$82691[ebp]
	add	eax, 1
	mov	DWORD PTR _rc$82691[ebp], eax
$LN2@soap_recv_:
	mov	esi, esp
	mov	eax, DWORD PTR _soap$[ebp]
	mov	ecx, DWORD PTR [eax+90560]
	push	ecx
	call	DWORD PTR __imp__fflush
	add	esp, 4
	cmp	esi, esp
	call	__RTC_CheckEsp
$LN9@soap_recv_:

; 1194 :   }
; 1195 : #ifndef WITH_LEANER
; 1196 :   if (soap->fpreparerecv && (soap->error = soap->fpreparerecv(soap, soap->buf, ret)))

	mov	eax, DWORD PTR _soap$[ebp]
	cmp	DWORD PTR [eax+12348], 0
	je	SHORT $LN1@soap_recv_
	mov	esi, esp
	mov	eax, DWORD PTR _ret$[ebp]
	push	eax
	mov	ecx, DWORD PTR _soap$[ebp]
	add	ecx, 12468				; 000030b4H
	push	ecx
	mov	edx, DWORD PTR _soap$[ebp]
	push	edx
	mov	eax, DWORD PTR _soap$[ebp]
	mov	ecx, DWORD PTR [eax+12348]
	call	ecx
	add	esp, 12					; 0000000cH
	cmp	esi, esp
	call	__RTC_CheckEsp
	mov	edx, DWORD PTR _soap$[ebp]
	mov	DWORD PTR [edx+90460], eax
	mov	eax, DWORD PTR _soap$[ebp]
	cmp	DWORD PTR [eax+90460], 0
	je	SHORT $LN1@soap_recv_

; 1197 :     return soap->error;

	mov	eax, DWORD PTR _soap$[ebp]
	mov	eax, DWORD PTR [eax+90460]
	jmp	SHORT $LN63@soap_recv_
$LN1@soap_recv_:

; 1198 : #endif
; 1199 : #ifdef WITH_ZLIB
; 1200 :   if (soap->mode & SOAP_ENC_ZLIB)
; 1201 :   { register int r;
; 1202 :     memcpy(soap->z_buf, soap->buf, SOAP_BUFLEN);
; 1203 :     soap->d_stream->next_in = (Byte*)(soap->z_buf + soap->bufidx);
; 1204 :     soap->d_stream->avail_in = (unsigned int)ret;
; 1205 :     soap->d_stream->next_out = (Byte*)soap->buf;
; 1206 :     soap->d_stream->avail_out = SOAP_BUFLEN;
; 1207 :     r = inflate(soap->d_stream, Z_NO_FLUSH);
; 1208 :     if (r == Z_OK || r == Z_STREAM_END)
; 1209 :     { soap->bufidx = 0;
; 1210 :       soap->z_buflen = soap->buflen;
; 1211 :       soap->buflen = SOAP_BUFLEN - soap->d_stream->avail_out;
; 1212 :       if (soap->zlib_in == SOAP_ZLIB_GZIP)
; 1213 :         soap->z_crc = crc32(soap->z_crc, (Byte*)soap->buf, (unsigned int)soap->buflen);
; 1214 :       DBGLOG(TEST, SOAP_MESSAGE(fdebug, "Inflated %u bytes\n", (unsigned int)soap->buflen));
; 1215 :       if (ret && !soap->buflen)
; 1216 :         goto zlib_again;
; 1217 :       ret = soap->buflen;
; 1218 :       if (r == Z_STREAM_END)
; 1219 :       { DBGLOG(TEST, SOAP_MESSAGE(fdebug, "Inflated total %lu->%lu bytes\n", soap->d_stream->total_in, soap->d_stream->total_out));
; 1220 :         soap->z_ratio_in = (float)soap->d_stream->total_in / (float)soap->d_stream->total_out;
; 1221 :         soap->d_stream->next_out = Z_NULL;
; 1222 :       }
; 1223 :       DBGLOG(RECV, SOAP_MESSAGE(fdebug, "\n---- decompressed ----\n"));
; 1224 :       DBGMSG(RECV, soap->buf, ret);
; 1225 :     }
; 1226 :     else
; 1227 :     { DBGLOG(TEST, SOAP_MESSAGE(fdebug, "Unable to inflate: (%d) %s\n", r, soap->d_stream->msg?soap->d_stream->msg:""));
; 1228 :       soap->d_stream->next_out = Z_NULL;
; 1229 :       soap->error = SOAP_ZLIB_ERROR;
; 1230 :       return EOF;
; 1231 :     }
; 1232 :   }
; 1233 : #endif
; 1234 :   soap->count += ret;

	mov	eax, DWORD PTR _soap$[ebp]
	mov	ecx, DWORD PTR [eax+12448]
	add	ecx, DWORD PTR _ret$[ebp]
	mov	edx, DWORD PTR _soap$[ebp]
	mov	DWORD PTR [edx+12448], ecx

; 1235 :   return !ret;

	xor	eax, eax
	cmp	DWORD PTR _ret$[ebp], 0
	sete	al
$LN63@soap_recv_:

; 1236 : }

	push	edx
	mov	ecx, ebp
	push	eax
	lea	edx, DWORD PTR $LN70@soap_recv_
	call	@_RTC_CheckStackVars@8
	pop	eax
	pop	edx
	pop	edi
	pop	esi
	pop	ebx
	mov	ecx, DWORD PTR __$ArrayPad$[ebp]
	xor	ecx, ebp
	call	@__security_check_cookie@4
	add	esp, 384				; 00000180H
	cmp	ebp, esp
	call	__RTC_CheckEsp
	mov	esp, ebp
	pop	ebp
	ret	0
	npad	3
$LN70@soap_recv_:
	DD	2
	DD	$LN69@soap_recv_
$LN69@soap_recv_:
	DD	-36					; ffffffdcH
	DD	4
	DD	$LN67@soap_recv_
	DD	-52					; ffffffccH
	DD	8
	DD	$LN68@soap_recv_
$LN68@soap_recv_:
	DB	116					; 00000074H
	DB	109					; 0000006dH
	DB	112					; 00000070H
	DB	0
$LN67@soap_recv_:
	DB	116					; 00000074H
	DB	0
_soap_recv_raw ENDP
; Function compile flags: /Odtp /RTCcsu /ZI
_TEXT	ENDS
;	COMDAT _soap_getchunkchar
_TEXT	SEGMENT
tv167 = -220						; size = 4
tv74 = -220						; size = 4
_rc$82571 = -20						; size = 4
_fdebug$82564 = -8					; size = 4
_soap$ = 8						; size = 4
_soap_getchunkchar PROC					; COMDAT

; 1053 : { if (soap->bufidx < soap->buflen)

	push	ebp
	mov	ebp, esp
	sub	esp, 220				; 000000dcH
	push	ebx
	push	esi
	push	edi
	lea	edi, DWORD PTR [ebp-220]
	mov	ecx, 55					; 00000037H
	mov	eax, -858993460				; ccccccccH
	rep stosd
	mov	eax, DWORD PTR _soap$[ebp]
	mov	ecx, DWORD PTR _soap$[ebp]
	mov	edx, DWORD PTR [eax+12428]
	cmp	edx, DWORD PTR [ecx+12432]
	jae	SHORT $LN9@soap_getch

; 1054 :     return soap->buf[soap->bufidx++];

	mov	eax, DWORD PTR _soap$[ebp]
	mov	ecx, DWORD PTR [eax+12428]
	mov	edx, DWORD PTR _soap$[ebp]
	movsx	eax, BYTE PTR [edx+ecx+12468]
	mov	DWORD PTR tv74[ebp], eax
	mov	ecx, DWORD PTR _soap$[ebp]
	mov	edx, DWORD PTR [ecx+12428]
	add	edx, 1
	mov	eax, DWORD PTR _soap$[ebp]
	mov	DWORD PTR [eax+12428], edx
	mov	eax, DWORD PTR tv74[ebp]
	jmp	$LN10@soap_getch
$LN9@soap_getch:

; 1055 :   soap->bufidx = 0;

	mov	eax, DWORD PTR _soap$[ebp]
	mov	DWORD PTR [eax+12428], 0

; 1056 :   soap->buflen = soap->chunkbuflen = soap->frecv(soap, soap->buf, SOAP_BUFLEN);

	mov	esi, esp
	push	65536					; 00010000H
	mov	eax, DWORD PTR _soap$[ebp]
	add	eax, 12468				; 000030b4H
	push	eax
	mov	ecx, DWORD PTR _soap$[ebp]
	push	ecx
	mov	edx, DWORD PTR _soap$[ebp]
	mov	eax, DWORD PTR [edx+12312]
	call	eax
	add	esp, 12					; 0000000cH
	cmp	esi, esp
	call	__RTC_CheckEsp
	mov	ecx, DWORD PTR _soap$[ebp]
	mov	DWORD PTR [ecx+87316], eax
	mov	edx, DWORD PTR _soap$[ebp]
	mov	eax, DWORD PTR _soap$[ebp]
	mov	ecx, DWORD PTR [eax+87316]
	mov	DWORD PTR [edx+12432], ecx

; 1057 :   DBGLOG(TEST, SOAP_MESSAGE(fdebug, "Read %u bytes from socket %d\n", (unsigned int)soap->buflen, soap->socket));

	cmp	DWORD PTR _soap$[ebp], 0
	je	SHORT $LN8@soap_getch
	mov	eax, DWORD PTR _soap$[ebp]
	cmp	DWORD PTR [eax+90568], 0
	jne	SHORT $LN7@soap_getch
	push	2
	mov	eax, DWORD PTR _soap$[ebp]
	push	eax
	call	_soap_open_logfile
	add	esp, 8
$LN7@soap_getch:
	mov	eax, DWORD PTR _soap$[ebp]
	cmp	DWORD PTR [eax+90568], 0
	je	SHORT $LN8@soap_getch
	mov	eax, DWORD PTR _soap$[ebp]
	mov	ecx, DWORD PTR [eax+90568]
	mov	DWORD PTR _fdebug$82564[ebp], ecx
	mov	esi, esp
	mov	eax, DWORD PTR _soap$[ebp]
	mov	ecx, DWORD PTR [eax+12408]
	push	ecx
	mov	edx, DWORD PTR _soap$[ebp]
	mov	eax, DWORD PTR [edx+12432]
	push	eax
	push	OFFSET ??_C@_0BO@BPPEEPFK@Read?5?$CFu?5bytes?5from?5socket?5?$CFd?6?$AA@
	mov	ecx, DWORD PTR _fdebug$82564[ebp]
	push	ecx
	call	DWORD PTR __imp__fprintf
	add	esp, 16					; 00000010H
	cmp	esi, esp
	call	__RTC_CheckEsp
	mov	esi, esp
	mov	eax, DWORD PTR _fdebug$82564[ebp]
	push	eax
	call	DWORD PTR __imp__fflush
	add	esp, 4
	cmp	esi, esp
	call	__RTC_CheckEsp
$LN8@soap_getch:

; 1058 :   DBGMSG(RECV, soap->buf, soap->buflen);

	cmp	DWORD PTR _soap$[ebp], 0
	je	$LN5@soap_getch
	mov	eax, DWORD PTR _soap$[ebp]
	cmp	DWORD PTR [eax+90560], 0
	jne	SHORT $LN4@soap_getch
	push	0
	mov	eax, DWORD PTR _soap$[ebp]
	push	eax
	call	_soap_open_logfile
	add	esp, 8
$LN4@soap_getch:
	mov	eax, DWORD PTR _soap$[ebp]
	cmp	DWORD PTR [eax+90560], 0
	je	SHORT $LN5@soap_getch
	mov	esi, esp
	mov	eax, DWORD PTR _soap$[ebp]
	mov	ecx, DWORD PTR [eax+90560]
	push	ecx
	mov	edx, DWORD PTR _soap$[ebp]
	mov	eax, DWORD PTR [edx+12432]
	push	eax
	push	1
	mov	ecx, DWORD PTR _soap$[ebp]
	add	ecx, 12468				; 000030b4H
	push	ecx
	call	DWORD PTR __imp__fwrite
	add	esp, 16					; 00000010H
	cmp	esi, esp
	call	__RTC_CheckEsp
	mov	DWORD PTR _rc$82571[ebp], eax
	cmp	DWORD PTR _rc$82571[ebp], 0
	jae	SHORT $LN2@soap_getch
	mov	eax, DWORD PTR _rc$82571[ebp]
	add	eax, 1
	mov	DWORD PTR _rc$82571[ebp], eax
$LN2@soap_getch:
	mov	esi, esp
	mov	eax, DWORD PTR _soap$[ebp]
	mov	ecx, DWORD PTR [eax+90560]
	push	ecx
	call	DWORD PTR __imp__fflush
	add	esp, 4
	cmp	esi, esp
	call	__RTC_CheckEsp
$LN5@soap_getch:

; 1059 :   if (soap->buflen)

	mov	eax, DWORD PTR _soap$[ebp]
	cmp	DWORD PTR [eax+12432], 0
	je	SHORT $LN1@soap_getch

; 1060 :     return soap->buf[soap->bufidx++];

	mov	eax, DWORD PTR _soap$[ebp]
	mov	ecx, DWORD PTR [eax+12428]
	mov	edx, DWORD PTR _soap$[ebp]
	movsx	eax, BYTE PTR [edx+ecx+12468]
	mov	DWORD PTR tv167[ebp], eax
	mov	ecx, DWORD PTR _soap$[ebp]
	mov	edx, DWORD PTR [ecx+12428]
	add	edx, 1
	mov	eax, DWORD PTR _soap$[ebp]
	mov	DWORD PTR [eax+12428], edx
	mov	eax, DWORD PTR tv167[ebp]
	jmp	SHORT $LN10@soap_getch
$LN1@soap_getch:

; 1061 :   return EOF;

	or	eax, -1
$LN10@soap_getch:

; 1062 : }

	pop	edi
	pop	esi
	pop	ebx
	add	esp, 220				; 000000dcH
	cmp	ebp, esp
	call	__RTC_CheckEsp
	mov	esp, ebp
	pop	ebp
	ret	0
_soap_getchunkchar ENDP
; Function compile flags: /Odtp /RTCcsu /ZI
_TEXT	ENDS
;	COMDAT _soap_isxdigit
_TEXT	SEGMENT
tv70 = -196						; size = 4
_c$ = 8							; size = 4
_soap_isxdigit PROC					; COMDAT

; 1070 : { return (c >= '0' && c <= '9') || (c >= 'A' && c <= 'F') || (c >= 'a' && c <= 'f');

	push	ebp
	mov	ebp, esp
	sub	esp, 196				; 000000c4H
	push	ebx
	push	esi
	push	edi
	lea	edi, DWORD PTR [ebp-196]
	mov	ecx, 49					; 00000031H
	mov	eax, -858993460				; ccccccccH
	rep stosd
	cmp	DWORD PTR _c$[ebp], 48			; 00000030H
	jl	SHORT $LN3@soap_isxdi
	cmp	DWORD PTR _c$[ebp], 57			; 00000039H
	jle	SHORT $LN5@soap_isxdi
$LN3@soap_isxdi:
	cmp	DWORD PTR _c$[ebp], 65			; 00000041H
	jl	SHORT $LN4@soap_isxdi
	cmp	DWORD PTR _c$[ebp], 70			; 00000046H
	jle	SHORT $LN5@soap_isxdi
$LN4@soap_isxdi:
	cmp	DWORD PTR _c$[ebp], 97			; 00000061H
	jl	SHORT $LN6@soap_isxdi
	cmp	DWORD PTR _c$[ebp], 102			; 00000066H
	jle	SHORT $LN5@soap_isxdi
$LN6@soap_isxdi:
	mov	DWORD PTR tv70[ebp], 0
	jmp	SHORT $LN7@soap_isxdi
$LN5@soap_isxdi:
	mov	DWORD PTR tv70[ebp], 1
$LN7@soap_isxdi:
	mov	eax, DWORD PTR tv70[ebp]

; 1071 : }

	pop	edi
	pop	esi
	pop	ebx
	mov	esp, ebp
	pop	ebp
	ret	0
_soap_isxdigit ENDP
_TEXT	ENDS
PUBLIC	??_C@_0BP@DMDBKBBH@?$CFlu?5bytes?5remaining?0?5count?$DN?$CFu?6?$AA@ ; `string'
PUBLIC	??_C@_0DF@HCKKPCCH@Get?5next?5DIME?5hdr?5for?5chunked?5DI@ ; `string'
PUBLIC	??_C@_0BE@BAFKLKAC@?$CFu?5bytes?5remaining?6?$AA@ ; `string'
PUBLIC	??_C@_0M@GDABLMIG@Last?5chunk?6?$AA@		; `string'
PUBLIC	??_C@_0P@FAJIPIIP@More?5chunking?6?$AA@		; `string'
PUBLIC	??_C@_0BL@EHOPGBHA@Get?5DIME?5chunk?5?$CI?$CFu?5bytes?$CJ?6?$AA@ ; `string'
PUBLIC	??_C@_0BN@HCGGJFMA@Get?5DIME?5hdr?5for?5next?5chunk?6?$AA@ ; `string'
PUBLIC	??_C@_0BK@DPFBJGHD@Skip?5padding?5?$CI?$CFld?5bytes?$CJ?6?$AA@ ; `string'
PUBLIC	??_C@_0CI@HNMGENOD@DIME?5hdr?5for?5chunked?5DIME?5is?5in?5@ ; `string'
PUBLIC	__$ArrayPad$
PUBLIC	_soap_recv
;	COMDAT ??_C@_0BP@DMDBKBBH@?$CFlu?5bytes?5remaining?0?5count?$DN?$CFu?6?$AA@
CONST	SEGMENT
??_C@_0BP@DMDBKBBH@?$CFlu?5bytes?5remaining?0?5count?$DN?$CFu?6?$AA@ DB '%'
	DB	'lu bytes remaining, count=%u', 0aH, 00H	; `string'
CONST	ENDS
;	COMDAT ??_C@_0DF@HCKKPCCH@Get?5next?5DIME?5hdr?5for?5chunked?5DI@
CONST	SEGMENT
??_C@_0DF@HCKKPCCH@Get?5next?5DIME?5hdr?5for?5chunked?5DI@ DB 'Get next D'
	DB	'IME hdr for chunked DIME (%u bytes chunk)', 0aH, 00H ; `string'
CONST	ENDS
;	COMDAT ??_C@_0BE@BAFKLKAC@?$CFu?5bytes?5remaining?6?$AA@
CONST	SEGMENT
??_C@_0BE@BAFKLKAC@?$CFu?5bytes?5remaining?6?$AA@ DB '%u bytes remaining', 0aH
	DB	00H						; `string'
CONST	ENDS
;	COMDAT ??_C@_0M@GDABLMIG@Last?5chunk?6?$AA@
CONST	SEGMENT
??_C@_0M@GDABLMIG@Last?5chunk?6?$AA@ DB 'Last chunk', 0aH, 00H ; `string'
CONST	ENDS
;	COMDAT ??_C@_0P@FAJIPIIP@More?5chunking?6?$AA@
CONST	SEGMENT
??_C@_0P@FAJIPIIP@More?5chunking?6?$AA@ DB 'More chunking', 0aH, 00H ; `string'
CONST	ENDS
;	COMDAT ??_C@_0BL@EHOPGBHA@Get?5DIME?5chunk?5?$CI?$CFu?5bytes?$CJ?6?$AA@
CONST	SEGMENT
??_C@_0BL@EHOPGBHA@Get?5DIME?5chunk?5?$CI?$CFu?5bytes?$CJ?6?$AA@ DB 'Get '
	DB	'DIME chunk (%u bytes)', 0aH, 00H		; `string'
CONST	ENDS
;	COMDAT ??_C@_0BN@HCGGJFMA@Get?5DIME?5hdr?5for?5next?5chunk?6?$AA@
CONST	SEGMENT
??_C@_0BN@HCGGJFMA@Get?5DIME?5hdr?5for?5next?5chunk?6?$AA@ DB 'Get DIME h'
	DB	'dr for next chunk', 0aH, 00H		; `string'
CONST	ENDS
;	COMDAT ??_C@_0BK@DPFBJGHD@Skip?5padding?5?$CI?$CFld?5bytes?$CJ?6?$AA@
CONST	SEGMENT
??_C@_0BK@DPFBJGHD@Skip?5padding?5?$CI?$CFld?5bytes?$CJ?6?$AA@ DB 'Skip p'
	DB	'adding (%ld bytes)', 0aH, 00H		; `string'
CONST	ENDS
;	COMDAT ??_C@_0CI@HNMGENOD@DIME?5hdr?5for?5chunked?5DIME?5is?5in?5@
CONST	SEGMENT
??_C@_0CI@HNMGENOD@DIME?5hdr?5for?5chunked?5DIME?5is?5in?5@ DB 'DIME hdr '
	DB	'for chunked DIME is in buffer', 0aH, 00H	; `string'
; Function compile flags: /Odtp /RTCcsu /ZI
CONST	ENDS
;	COMDAT _soap_recv
_TEXT	SEGMENT
_fdebug$82782 = -152					; size = 4
_fdebug$82772 = -140					; size = 4
_fdebug$82764 = -128					; size = 4
_fdebug$82758 = -116					; size = 4
_fdebug$82749 = -104					; size = 4
_fdebug$82741 = -92					; size = 4
_fdebug$82725 = -80					; size = 4
_fdebug$82712 = -68					; size = 4
_fdebug$82706 = -56					; size = 4
_tmp$82701 = -44					; size = 12
_i$82700 = -24						; size = 4
_s$82699 = -12						; size = 4
__$ArrayPad$ = -4					; size = 4
_soap$ = 8						; size = 4
_soap_recv PROC						; COMDAT

; 1245 : {

	push	ebp
	mov	ebp, esp
	sub	esp, 348				; 0000015cH
	push	ebx
	push	esi
	push	edi
	lea	edi, DWORD PTR [ebp-348]
	mov	ecx, 87					; 00000057H
	mov	eax, -858993460				; ccccccccH
	rep stosd
	mov	eax, DWORD PTR ___security_cookie
	xor	eax, ebp
	mov	DWORD PTR __$ArrayPad$[ebp], eax

; 1246 : #ifndef WITH_LEANER
; 1247 :   if (soap->mode & SOAP_ENC_DIME)

	mov	eax, DWORD PTR _soap$[ebp]
	mov	ecx, DWORD PTR [eax+8]
	and	ecx, 128				; 00000080H
	je	$LN47@soap_recv

; 1248 :   { if (soap->dime.buflen)

	mov	eax, DWORD PTR _soap$[ebp]
	cmp	DWORD PTR [eax+90488], 0
	je	$LN46@soap_recv

; 1249 :     { char *s;
; 1250 :       int i;
; 1251 :       unsigned char tmp[12];
; 1252 :       DBGLOG(TEST, SOAP_MESSAGE(fdebug, "DIME hdr for chunked DIME is in buffer\n"));

	cmp	DWORD PTR _soap$[ebp], 0
	je	SHORT $LN45@soap_recv
	mov	eax, DWORD PTR _soap$[ebp]
	cmp	DWORD PTR [eax+90568], 0
	jne	SHORT $LN44@soap_recv
	push	2
	mov	eax, DWORD PTR _soap$[ebp]
	push	eax
	call	_soap_open_logfile
	add	esp, 8
$LN44@soap_recv:
	mov	eax, DWORD PTR _soap$[ebp]
	cmp	DWORD PTR [eax+90568], 0
	je	SHORT $LN45@soap_recv
	mov	eax, DWORD PTR _soap$[ebp]
	mov	ecx, DWORD PTR [eax+90568]
	mov	DWORD PTR _fdebug$82706[ebp], ecx
	mov	esi, esp
	push	OFFSET ??_C@_0CI@HNMGENOD@DIME?5hdr?5for?5chunked?5DIME?5is?5in?5@
	mov	eax, DWORD PTR _fdebug$82706[ebp]
	push	eax
	call	DWORD PTR __imp__fprintf
	add	esp, 8
	cmp	esi, esp
	call	__RTC_CheckEsp
	mov	esi, esp
	mov	eax, DWORD PTR _fdebug$82706[ebp]
	push	eax
	call	DWORD PTR __imp__fflush
	add	esp, 4
	cmp	esi, esp
	call	__RTC_CheckEsp
$LN45@soap_recv:

; 1253 :       soap->count += soap->dime.buflen - soap->buflen;

	mov	eax, DWORD PTR _soap$[ebp]
	mov	ecx, DWORD PTR _soap$[ebp]
	mov	edx, DWORD PTR [eax+90488]
	sub	edx, DWORD PTR [ecx+12432]
	mov	eax, DWORD PTR _soap$[ebp]
	add	edx, DWORD PTR [eax+12448]
	mov	ecx, DWORD PTR _soap$[ebp]
	mov	DWORD PTR [ecx+12448], edx

; 1254 :       soap->buflen = soap->dime.buflen;

	mov	eax, DWORD PTR _soap$[ebp]
	mov	ecx, DWORD PTR _soap$[ebp]
	mov	edx, DWORD PTR [ecx+90488]
	mov	DWORD PTR [eax+12432], edx

; 1255 :       DBGLOG(TEST, SOAP_MESSAGE(fdebug, "Skip padding (%ld bytes)\n", -(long)soap->dime.size&3));

	cmp	DWORD PTR _soap$[ebp], 0
	je	SHORT $LN42@soap_recv
	mov	eax, DWORD PTR _soap$[ebp]
	cmp	DWORD PTR [eax+90568], 0
	jne	SHORT $LN41@soap_recv
	push	2
	mov	eax, DWORD PTR _soap$[ebp]
	push	eax
	call	_soap_open_logfile
	add	esp, 8
$LN41@soap_recv:
	mov	eax, DWORD PTR _soap$[ebp]
	cmp	DWORD PTR [eax+90568], 0
	je	SHORT $LN42@soap_recv
	mov	eax, DWORD PTR _soap$[ebp]
	mov	ecx, DWORD PTR [eax+90568]
	mov	DWORD PTR _fdebug$82712[ebp], ecx
	mov	eax, DWORD PTR _soap$[ebp]
	mov	ecx, DWORD PTR [eax+90480]
	neg	ecx
	and	ecx, 3
	mov	esi, esp
	push	ecx
	push	OFFSET ??_C@_0BK@DPFBJGHD@Skip?5padding?5?$CI?$CFld?5bytes?$CJ?6?$AA@
	mov	edx, DWORD PTR _fdebug$82712[ebp]
	push	edx
	call	DWORD PTR __imp__fprintf
	add	esp, 12					; 0000000cH
	cmp	esi, esp
	call	__RTC_CheckEsp
	mov	esi, esp
	mov	eax, DWORD PTR _fdebug$82712[ebp]
	push	eax
	call	DWORD PTR __imp__fflush
	add	esp, 4
	cmp	esi, esp
	call	__RTC_CheckEsp
$LN42@soap_recv:

; 1256 :       for (i = -(long)soap->dime.size&3; i > 0; i--)

	mov	eax, DWORD PTR _soap$[ebp]
	mov	ecx, DWORD PTR [eax+90480]
	neg	ecx
	and	ecx, 3
	mov	DWORD PTR _i$82700[ebp], ecx
	jmp	SHORT $LN39@soap_recv
$LN38@soap_recv:
	mov	eax, DWORD PTR _i$82700[ebp]
	sub	eax, 1
	mov	DWORD PTR _i$82700[ebp], eax
$LN39@soap_recv:
	cmp	DWORD PTR _i$82700[ebp], 0
	jle	SHORT $LN37@soap_recv

; 1257 :       { soap->bufidx++;

	mov	eax, DWORD PTR _soap$[ebp]
	mov	ecx, DWORD PTR [eax+12428]
	add	ecx, 1
	mov	edx, DWORD PTR _soap$[ebp]
	mov	DWORD PTR [edx+12428], ecx

; 1258 :         if (soap->bufidx >= soap->buflen)

	mov	eax, DWORD PTR _soap$[ebp]
	mov	ecx, DWORD PTR _soap$[ebp]
	mov	edx, DWORD PTR [eax+12428]
	cmp	edx, DWORD PTR [ecx+12432]
	jb	SHORT $LN36@soap_recv

; 1259 :           if (soap_recv_raw(soap))

	mov	eax, DWORD PTR _soap$[ebp]
	push	eax
	call	_soap_recv_raw
	add	esp, 4
	test	eax, eax
	je	SHORT $LN36@soap_recv

; 1260 :             return EOF;

	or	eax, -1
	jmp	$LN48@soap_recv
$LN36@soap_recv:

; 1261 :       }

	jmp	SHORT $LN38@soap_recv
$LN37@soap_recv:

; 1262 :       DBGLOG(TEST, SOAP_MESSAGE(fdebug, "Get DIME hdr for next chunk\n"));

	cmp	DWORD PTR _soap$[ebp], 0
	je	SHORT $LN34@soap_recv
	mov	eax, DWORD PTR _soap$[ebp]
	cmp	DWORD PTR [eax+90568], 0
	jne	SHORT $LN33@soap_recv
	push	2
	mov	eax, DWORD PTR _soap$[ebp]
	push	eax
	call	_soap_open_logfile
	add	esp, 8
$LN33@soap_recv:
	mov	eax, DWORD PTR _soap$[ebp]
	cmp	DWORD PTR [eax+90568], 0
	je	SHORT $LN34@soap_recv
	mov	eax, DWORD PTR _soap$[ebp]
	mov	ecx, DWORD PTR [eax+90568]
	mov	DWORD PTR _fdebug$82725[ebp], ecx
	mov	esi, esp
	push	OFFSET ??_C@_0BN@HCGGJFMA@Get?5DIME?5hdr?5for?5next?5chunk?6?$AA@
	mov	eax, DWORD PTR _fdebug$82725[ebp]
	push	eax
	call	DWORD PTR __imp__fprintf
	add	esp, 8
	cmp	esi, esp
	call	__RTC_CheckEsp
	mov	esi, esp
	mov	eax, DWORD PTR _fdebug$82725[ebp]
	push	eax
	call	DWORD PTR __imp__fflush
	add	esp, 4
	cmp	esi, esp
	call	__RTC_CheckEsp
$LN34@soap_recv:

; 1263 :       s = (char*)tmp;

	lea	eax, DWORD PTR _tmp$82701[ebp]
	mov	DWORD PTR _s$82699[ebp], eax

; 1264 :       for (i = 12; i > 0; i--)

	mov	DWORD PTR _i$82700[ebp], 12		; 0000000cH
	jmp	SHORT $LN31@soap_recv
$LN30@soap_recv:
	mov	eax, DWORD PTR _i$82700[ebp]
	sub	eax, 1
	mov	DWORD PTR _i$82700[ebp], eax
$LN31@soap_recv:
	cmp	DWORD PTR _i$82700[ebp], 0
	jle	SHORT $LN29@soap_recv

; 1265 :       { *s++ = soap->buf[soap->bufidx++];

	mov	eax, DWORD PTR _soap$[ebp]
	mov	ecx, DWORD PTR [eax+12428]
	mov	edx, DWORD PTR _s$82699[ebp]
	mov	eax, DWORD PTR _soap$[ebp]
	mov	cl, BYTE PTR [eax+ecx+12468]
	mov	BYTE PTR [edx], cl
	mov	edx, DWORD PTR _s$82699[ebp]
	add	edx, 1
	mov	DWORD PTR _s$82699[ebp], edx
	mov	eax, DWORD PTR _soap$[ebp]
	mov	ecx, DWORD PTR [eax+12428]
	add	ecx, 1
	mov	edx, DWORD PTR _soap$[ebp]
	mov	DWORD PTR [edx+12428], ecx

; 1266 :         if (soap->bufidx >= soap->buflen)

	mov	eax, DWORD PTR _soap$[ebp]
	mov	ecx, DWORD PTR _soap$[ebp]
	mov	edx, DWORD PTR [eax+12428]
	cmp	edx, DWORD PTR [ecx+12432]
	jb	SHORT $LN28@soap_recv

; 1267 :           if (soap_recv_raw(soap))

	mov	eax, DWORD PTR _soap$[ebp]
	push	eax
	call	_soap_recv_raw
	add	esp, 4
	test	eax, eax
	je	SHORT $LN28@soap_recv

; 1268 :             return EOF;

	or	eax, -1
	jmp	$LN48@soap_recv
$LN28@soap_recv:

; 1269 :       }

	jmp	SHORT $LN30@soap_recv
$LN29@soap_recv:

; 1270 :       soap->dime.flags = tmp[0] & 0x7;

	movzx	ecx, BYTE PTR _tmp$82701[ebp]
	and	ecx, 7
	call	@_RTC_Check_4_to_1@4
	mov	ecx, DWORD PTR _soap$[ebp]
	mov	BYTE PTR [ecx+90492], al

; 1271 :       soap->dime.size = ((size_t)tmp[8] << 24) | ((size_t)tmp[9] << 16) | ((size_t)tmp[10] << 8) | ((size_t)tmp[11]);

	movzx	eax, BYTE PTR _tmp$82701[ebp+8]
	shl	eax, 24					; 00000018H
	movzx	ecx, BYTE PTR _tmp$82701[ebp+9]
	shl	ecx, 16					; 00000010H
	or	eax, ecx
	movzx	edx, BYTE PTR _tmp$82701[ebp+10]
	shl	edx, 8
	or	eax, edx
	movzx	ecx, BYTE PTR _tmp$82701[ebp+11]
	or	eax, ecx
	mov	edx, DWORD PTR _soap$[ebp]
	mov	DWORD PTR [edx+90480], eax

; 1272 :       DBGLOG(TEST, SOAP_MESSAGE(fdebug, "Get DIME chunk (%u bytes)\n", (unsigned int)soap->dime.size));

	cmp	DWORD PTR _soap$[ebp], 0
	je	SHORT $LN26@soap_recv
	mov	eax, DWORD PTR _soap$[ebp]
	cmp	DWORD PTR [eax+90568], 0
	jne	SHORT $LN25@soap_recv
	push	2
	mov	eax, DWORD PTR _soap$[ebp]
	push	eax
	call	_soap_open_logfile
	add	esp, 8
$LN25@soap_recv:
	mov	eax, DWORD PTR _soap$[ebp]
	cmp	DWORD PTR [eax+90568], 0
	je	SHORT $LN26@soap_recv
	mov	eax, DWORD PTR _soap$[ebp]
	mov	ecx, DWORD PTR [eax+90568]
	mov	DWORD PTR _fdebug$82741[ebp], ecx
	mov	esi, esp
	mov	eax, DWORD PTR _soap$[ebp]
	mov	ecx, DWORD PTR [eax+90480]
	push	ecx
	push	OFFSET ??_C@_0BL@EHOPGBHA@Get?5DIME?5chunk?5?$CI?$CFu?5bytes?$CJ?6?$AA@
	mov	edx, DWORD PTR _fdebug$82741[ebp]
	push	edx
	call	DWORD PTR __imp__fprintf
	add	esp, 12					; 0000000cH
	cmp	esi, esp
	call	__RTC_CheckEsp
	mov	esi, esp
	mov	eax, DWORD PTR _fdebug$82741[ebp]
	push	eax
	call	DWORD PTR __imp__fflush
	add	esp, 4
	cmp	esi, esp
	call	__RTC_CheckEsp
$LN26@soap_recv:

; 1273 :       if (soap->dime.flags & SOAP_DIME_CF)

	mov	eax, DWORD PTR _soap$[ebp]
	movsx	ecx, BYTE PTR [eax+90492]
	and	ecx, 1
	je	$LN23@soap_recv

; 1274 :       { DBGLOG(TEST, SOAP_MESSAGE(fdebug, "More chunking\n"));

	cmp	DWORD PTR _soap$[ebp], 0
	je	SHORT $LN22@soap_recv
	mov	eax, DWORD PTR _soap$[ebp]
	cmp	DWORD PTR [eax+90568], 0
	jne	SHORT $LN21@soap_recv
	push	2
	mov	eax, DWORD PTR _soap$[ebp]
	push	eax
	call	_soap_open_logfile
	add	esp, 8
$LN21@soap_recv:
	mov	eax, DWORD PTR _soap$[ebp]
	cmp	DWORD PTR [eax+90568], 0
	je	SHORT $LN22@soap_recv
	mov	eax, DWORD PTR _soap$[ebp]
	mov	ecx, DWORD PTR [eax+90568]
	mov	DWORD PTR _fdebug$82749[ebp], ecx
	mov	esi, esp
	push	OFFSET ??_C@_0P@FAJIPIIP@More?5chunking?6?$AA@
	mov	eax, DWORD PTR _fdebug$82749[ebp]
	push	eax
	call	DWORD PTR __imp__fprintf
	add	esp, 8
	cmp	esi, esp
	call	__RTC_CheckEsp
	mov	esi, esp
	mov	eax, DWORD PTR _fdebug$82749[ebp]
	push	eax
	call	DWORD PTR __imp__fflush
	add	esp, 4
	cmp	esi, esp
	call	__RTC_CheckEsp
$LN22@soap_recv:

; 1275 :         soap->dime.chunksize = soap->dime.size;

	mov	eax, DWORD PTR _soap$[ebp]
	mov	ecx, DWORD PTR _soap$[ebp]
	mov	edx, DWORD PTR [ecx+90480]
	mov	DWORD PTR [eax+90484], edx

; 1276 :         if (soap->buflen - soap->bufidx >= soap->dime.size)

	mov	eax, DWORD PTR _soap$[ebp]
	mov	ecx, DWORD PTR _soap$[ebp]
	mov	edx, DWORD PTR [eax+12432]
	sub	edx, DWORD PTR [ecx+12428]
	mov	eax, DWORD PTR _soap$[ebp]
	cmp	edx, DWORD PTR [eax+90480]
	jb	SHORT $LN19@soap_recv

; 1277 :         { soap->dime.buflen = soap->buflen;

	mov	eax, DWORD PTR _soap$[ebp]
	mov	ecx, DWORD PTR _soap$[ebp]
	mov	edx, DWORD PTR [ecx+12432]
	mov	DWORD PTR [eax+90488], edx

; 1278 :           soap->buflen = soap->bufidx + soap->dime.chunksize;

	mov	eax, DWORD PTR _soap$[ebp]
	mov	ecx, DWORD PTR [eax+12428]
	mov	edx, DWORD PTR _soap$[ebp]
	add	ecx, DWORD PTR [edx+90484]
	mov	eax, DWORD PTR _soap$[ebp]
	mov	DWORD PTR [eax+12432], ecx

; 1279 :         }
; 1280 :         else

	jmp	SHORT $LN18@soap_recv
$LN19@soap_recv:

; 1281 :           soap->dime.chunksize -= soap->buflen - soap->bufidx;

	mov	eax, DWORD PTR _soap$[ebp]
	mov	ecx, DWORD PTR _soap$[ebp]
	mov	edx, DWORD PTR [eax+12432]
	sub	edx, DWORD PTR [ecx+12428]
	mov	eax, DWORD PTR _soap$[ebp]
	mov	ecx, DWORD PTR [eax+90484]
	sub	ecx, edx
	mov	edx, DWORD PTR _soap$[ebp]
	mov	DWORD PTR [edx+90484], ecx
$LN18@soap_recv:

; 1282 :       }
; 1283 :       else

	jmp	$LN17@soap_recv
$LN23@soap_recv:

; 1284 :       { DBGLOG(TEST, SOAP_MESSAGE(fdebug, "Last chunk\n"));

	cmp	DWORD PTR _soap$[ebp], 0
	je	SHORT $LN16@soap_recv
	mov	eax, DWORD PTR _soap$[ebp]
	cmp	DWORD PTR [eax+90568], 0
	jne	SHORT $LN15@soap_recv
	push	2
	mov	eax, DWORD PTR _soap$[ebp]
	push	eax
	call	_soap_open_logfile
	add	esp, 8
$LN15@soap_recv:
	mov	eax, DWORD PTR _soap$[ebp]
	cmp	DWORD PTR [eax+90568], 0
	je	SHORT $LN16@soap_recv
	mov	eax, DWORD PTR _soap$[ebp]
	mov	ecx, DWORD PTR [eax+90568]
	mov	DWORD PTR _fdebug$82758[ebp], ecx
	mov	esi, esp
	push	OFFSET ??_C@_0M@GDABLMIG@Last?5chunk?6?$AA@
	mov	eax, DWORD PTR _fdebug$82758[ebp]
	push	eax
	call	DWORD PTR __imp__fprintf
	add	esp, 8
	cmp	esi, esp
	call	__RTC_CheckEsp
	mov	esi, esp
	mov	eax, DWORD PTR _fdebug$82758[ebp]
	push	eax
	call	DWORD PTR __imp__fflush
	add	esp, 4
	cmp	esi, esp
	call	__RTC_CheckEsp
$LN16@soap_recv:

; 1285 :         soap->dime.buflen = 0;

	mov	eax, DWORD PTR _soap$[ebp]
	mov	DWORD PTR [eax+90488], 0

; 1286 :         soap->dime.chunksize = 0;

	mov	eax, DWORD PTR _soap$[ebp]
	mov	DWORD PTR [eax+90484], 0
$LN17@soap_recv:

; 1287 :       }
; 1288 :       soap->count = soap->buflen - soap->bufidx;

	mov	eax, DWORD PTR _soap$[ebp]
	mov	ecx, DWORD PTR _soap$[ebp]
	mov	edx, DWORD PTR [eax+12432]
	sub	edx, DWORD PTR [ecx+12428]
	mov	eax, DWORD PTR _soap$[ebp]
	mov	DWORD PTR [eax+12448], edx

; 1289 :       DBGLOG(TEST, SOAP_MESSAGE(fdebug, "%u bytes remaining\n", (unsigned int)soap->count));

	cmp	DWORD PTR _soap$[ebp], 0
	je	SHORT $LN13@soap_recv
	mov	eax, DWORD PTR _soap$[ebp]
	cmp	DWORD PTR [eax+90568], 0
	jne	SHORT $LN12@soap_recv
	push	2
	mov	eax, DWORD PTR _soap$[ebp]
	push	eax
	call	_soap_open_logfile
	add	esp, 8
$LN12@soap_recv:
	mov	eax, DWORD PTR _soap$[ebp]
	cmp	DWORD PTR [eax+90568], 0
	je	SHORT $LN13@soap_recv
	mov	eax, DWORD PTR _soap$[ebp]
	mov	ecx, DWORD PTR [eax+90568]
	mov	DWORD PTR _fdebug$82764[ebp], ecx
	mov	esi, esp
	mov	eax, DWORD PTR _soap$[ebp]
	mov	ecx, DWORD PTR [eax+12448]
	push	ecx
	push	OFFSET ??_C@_0BE@BAFKLKAC@?$CFu?5bytes?5remaining?6?$AA@
	mov	edx, DWORD PTR _fdebug$82764[ebp]
	push	edx
	call	DWORD PTR __imp__fprintf
	add	esp, 12					; 0000000cH
	cmp	esi, esp
	call	__RTC_CheckEsp
	mov	esi, esp
	mov	eax, DWORD PTR _fdebug$82764[ebp]
	push	eax
	call	DWORD PTR __imp__fflush
	add	esp, 4
	cmp	esi, esp
	call	__RTC_CheckEsp
$LN13@soap_recv:

; 1290 :       return SOAP_OK;

	xor	eax, eax
	jmp	$LN48@soap_recv
$LN46@soap_recv:

; 1291 :     }
; 1292 :     if (soap->dime.chunksize)

	mov	eax, DWORD PTR _soap$[ebp]
	cmp	DWORD PTR [eax+90484], 0
	je	$LN47@soap_recv

; 1293 :     { DBGLOG(TEST, SOAP_MESSAGE(fdebug, "Get next DIME hdr for chunked DIME (%u bytes chunk)\n", (unsigned int)soap->dime.chunksize));

	cmp	DWORD PTR _soap$[ebp], 0
	je	SHORT $LN9@soap_recv
	mov	eax, DWORD PTR _soap$[ebp]
	cmp	DWORD PTR [eax+90568], 0
	jne	SHORT $LN8@soap_recv
	push	2
	mov	eax, DWORD PTR _soap$[ebp]
	push	eax
	call	_soap_open_logfile
	add	esp, 8
$LN8@soap_recv:
	mov	eax, DWORD PTR _soap$[ebp]
	cmp	DWORD PTR [eax+90568], 0
	je	SHORT $LN9@soap_recv
	mov	eax, DWORD PTR _soap$[ebp]
	mov	ecx, DWORD PTR [eax+90568]
	mov	DWORD PTR _fdebug$82772[ebp], ecx
	mov	esi, esp
	mov	eax, DWORD PTR _soap$[ebp]
	mov	ecx, DWORD PTR [eax+90484]
	push	ecx
	push	OFFSET ??_C@_0DF@HCKKPCCH@Get?5next?5DIME?5hdr?5for?5chunked?5DI@
	mov	edx, DWORD PTR _fdebug$82772[ebp]
	push	edx
	call	DWORD PTR __imp__fprintf
	add	esp, 12					; 0000000cH
	cmp	esi, esp
	call	__RTC_CheckEsp
	mov	esi, esp
	mov	eax, DWORD PTR _fdebug$82772[ebp]
	push	eax
	call	DWORD PTR __imp__fflush
	add	esp, 4
	cmp	esi, esp
	call	__RTC_CheckEsp
$LN9@soap_recv:

; 1294 :       if (soap_recv_raw(soap))

	mov	eax, DWORD PTR _soap$[ebp]
	push	eax
	call	_soap_recv_raw
	add	esp, 4
	test	eax, eax
	je	SHORT $LN6@soap_recv

; 1295 :         return EOF;

	or	eax, -1
	jmp	$LN48@soap_recv
$LN6@soap_recv:

; 1296 :       if (soap->buflen - soap->bufidx >= soap->dime.chunksize)

	mov	eax, DWORD PTR _soap$[ebp]
	mov	ecx, DWORD PTR _soap$[ebp]
	mov	edx, DWORD PTR [eax+12432]
	sub	edx, DWORD PTR [ecx+12428]
	mov	eax, DWORD PTR _soap$[ebp]
	cmp	edx, DWORD PTR [eax+90484]
	jb	SHORT $LN5@soap_recv

; 1297 :       { soap->dime.buflen = soap->buflen;

	mov	eax, DWORD PTR _soap$[ebp]
	mov	ecx, DWORD PTR _soap$[ebp]
	mov	edx, DWORD PTR [ecx+12432]
	mov	DWORD PTR [eax+90488], edx

; 1298 :         soap->count -= soap->buflen - soap->bufidx - soap->dime.chunksize;

	mov	eax, DWORD PTR _soap$[ebp]
	mov	ecx, DWORD PTR _soap$[ebp]
	mov	edx, DWORD PTR [eax+12432]
	sub	edx, DWORD PTR [ecx+12428]
	mov	eax, DWORD PTR _soap$[ebp]
	sub	edx, DWORD PTR [eax+90484]
	mov	ecx, DWORD PTR _soap$[ebp]
	mov	eax, DWORD PTR [ecx+12448]
	sub	eax, edx
	mov	ecx, DWORD PTR _soap$[ebp]
	mov	DWORD PTR [ecx+12448], eax

; 1299 :         soap->buflen = soap->bufidx + soap->dime.chunksize;

	mov	eax, DWORD PTR _soap$[ebp]
	mov	ecx, DWORD PTR [eax+12428]
	mov	edx, DWORD PTR _soap$[ebp]
	add	ecx, DWORD PTR [edx+90484]
	mov	eax, DWORD PTR _soap$[ebp]
	mov	DWORD PTR [eax+12432], ecx

; 1300 :       }
; 1301 :       else

	jmp	SHORT $LN4@soap_recv
$LN5@soap_recv:

; 1302 :         soap->dime.chunksize -= soap->buflen - soap->bufidx;

	mov	eax, DWORD PTR _soap$[ebp]
	mov	ecx, DWORD PTR _soap$[ebp]
	mov	edx, DWORD PTR [eax+12432]
	sub	edx, DWORD PTR [ecx+12428]
	mov	eax, DWORD PTR _soap$[ebp]
	mov	ecx, DWORD PTR [eax+90484]
	sub	ecx, edx
	mov	edx, DWORD PTR _soap$[ebp]
	mov	DWORD PTR [edx+90484], ecx
$LN4@soap_recv:

; 1303 :       DBGLOG(TEST, SOAP_MESSAGE(fdebug, "%lu bytes remaining, count=%u\n", (unsigned long)(soap->buflen-soap->bufidx), (unsigned int)soap->count));

	cmp	DWORD PTR _soap$[ebp], 0
	je	$LN3@soap_recv
	mov	eax, DWORD PTR _soap$[ebp]
	cmp	DWORD PTR [eax+90568], 0
	jne	SHORT $LN2@soap_recv
	push	2
	mov	eax, DWORD PTR _soap$[ebp]
	push	eax
	call	_soap_open_logfile
	add	esp, 8
$LN2@soap_recv:
	mov	eax, DWORD PTR _soap$[ebp]
	cmp	DWORD PTR [eax+90568], 0
	je	SHORT $LN3@soap_recv
	mov	eax, DWORD PTR _soap$[ebp]
	mov	ecx, DWORD PTR [eax+90568]
	mov	DWORD PTR _fdebug$82782[ebp], ecx
	mov	esi, esp
	mov	eax, DWORD PTR _soap$[ebp]
	mov	ecx, DWORD PTR [eax+12448]
	push	ecx
	mov	edx, DWORD PTR _soap$[ebp]
	mov	eax, DWORD PTR _soap$[ebp]
	mov	ecx, DWORD PTR [edx+12432]
	sub	ecx, DWORD PTR [eax+12428]
	push	ecx
	push	OFFSET ??_C@_0BP@DMDBKBBH@?$CFlu?5bytes?5remaining?0?5count?$DN?$CFu?6?$AA@
	mov	edx, DWORD PTR _fdebug$82782[ebp]
	push	edx
	call	DWORD PTR __imp__fprintf
	add	esp, 16					; 00000010H
	cmp	esi, esp
	call	__RTC_CheckEsp
	mov	esi, esp
	mov	eax, DWORD PTR _fdebug$82782[ebp]
	push	eax
	call	DWORD PTR __imp__fflush
	add	esp, 4
	cmp	esi, esp
	call	__RTC_CheckEsp
$LN3@soap_recv:

; 1304 :       return SOAP_OK;

	xor	eax, eax
	jmp	SHORT $LN48@soap_recv
$LN47@soap_recv:

; 1305 :     }
; 1306 :   }
; 1307 : #endif
; 1308 :   return soap_recv_raw(soap);

	mov	eax, DWORD PTR _soap$[ebp]
	push	eax
	call	_soap_recv_raw
	add	esp, 4
$LN48@soap_recv:

; 1309 : }

	push	edx
	mov	ecx, ebp
	push	eax
	lea	edx, DWORD PTR $LN52@soap_recv
	call	@_RTC_CheckStackVars@8
	pop	eax
	pop	edx
	pop	edi
	pop	esi
	pop	ebx
	mov	ecx, DWORD PTR __$ArrayPad$[ebp]
	xor	ecx, ebp
	call	@__security_check_cookie@4
	add	esp, 348				; 0000015cH
	cmp	ebp, esp
	call	__RTC_CheckEsp
	mov	esp, ebp
	pop	ebp
	ret	0
	npad	3
$LN52@soap_recv:
	DD	1
	DD	$LN51@soap_recv
$LN51@soap_recv:
	DD	-44					; ffffffd4H
	DD	12					; 0000000cH
	DD	$LN50@soap_recv
$LN50@soap_recv:
	DB	116					; 00000074H
	DB	109					; 0000006dH
	DB	112					; 00000070H
	DB	0
_soap_recv ENDP
_TEXT	ENDS
PUBLIC	_soap_getchar
; Function compile flags: /Odtp /RTCcsu /ZI
;	COMDAT _soap_getchar
_TEXT	SEGMENT
tv81 = -208						; size = 4
_c$ = -8						; size = 4
_soap$ = 8						; size = 4
_soap_getchar PROC					; COMDAT

; 1318 : { register soap_wchar c;

	push	ebp
	mov	ebp, esp
	sub	esp, 208				; 000000d0H
	push	ebx
	push	esi
	push	edi
	lea	edi, DWORD PTR [ebp-208]
	mov	ecx, 52					; 00000034H
	mov	eax, -858993460				; ccccccccH
	rep stosd

; 1319 :   c = soap->ahead;

	mov	eax, DWORD PTR _soap$[ebp]
	mov	ecx, DWORD PTR [eax+12436]
	mov	DWORD PTR _c$[ebp], ecx

; 1320 :   if (c)

	cmp	DWORD PTR _c$[ebp], 0
	je	SHORT $LN2@soap_getch@2

; 1321 :   { if (c != EOF)

	cmp	DWORD PTR _c$[ebp], -1
	je	SHORT $LN1@soap_getch@2

; 1322 :       soap->ahead = 0;

	mov	eax, DWORD PTR _soap$[ebp]
	mov	DWORD PTR [eax+12436], 0
$LN1@soap_getch@2:

; 1323 :     return c;

	mov	eax, DWORD PTR _c$[ebp]
	jmp	SHORT $LN3@soap_getch@2
$LN2@soap_getch@2:

; 1324 :   }
; 1325 :   return soap_get1(soap);

	mov	eax, DWORD PTR _soap$[ebp]
	mov	ecx, DWORD PTR _soap$[ebp]
	mov	edx, DWORD PTR [eax+12428]
	cmp	edx, DWORD PTR [ecx+12432]
	jb	SHORT $LN5@soap_getch@2
	mov	eax, DWORD PTR _soap$[ebp]
	push	eax
	call	_soap_recv
	add	esp, 4
	test	eax, eax
	je	SHORT $LN5@soap_getch@2
	mov	DWORD PTR tv81[ebp], -1
	jmp	SHORT $LN6@soap_getch@2
$LN5@soap_getch@2:
	mov	ecx, DWORD PTR _soap$[ebp]
	mov	edx, DWORD PTR [ecx+12428]
	mov	eax, DWORD PTR _soap$[ebp]
	movzx	ecx, BYTE PTR [eax+edx+12468]
	mov	DWORD PTR tv81[ebp], ecx
	mov	edx, DWORD PTR _soap$[ebp]
	mov	eax, DWORD PTR [edx+12428]
	add	eax, 1
	mov	ecx, DWORD PTR _soap$[ebp]
	mov	DWORD PTR [ecx+12428], eax
$LN6@soap_getch@2:
	mov	eax, DWORD PTR tv81[ebp]
$LN3@soap_getch@2:

; 1326 : }

	pop	edi
	pop	esi
	pop	ebx
	add	esp, 208				; 000000d0H
	cmp	ebp, esp
	call	__RTC_CheckEsp
	mov	esp, ebp
	pop	ebp
	ret	0
_soap_getchar ENDP
_TEXT	ENDS
PUBLIC	_soap_code
EXTRN	_strcmp:PROC
; Function compile flags: /Odtp /RTCcsu /ZI
;	COMDAT _soap_code
_TEXT	SEGMENT
_code_map$ = 8						; size = 4
_str$ = 12						; size = 4
_soap_code PROC						; COMDAT

; 1335 : { if (code_map && str)

	push	ebp
	mov	ebp, esp
	sub	esp, 192				; 000000c0H
	push	ebx
	push	esi
	push	edi
	lea	edi, DWORD PTR [ebp-192]
	mov	ecx, 48					; 00000030H
	mov	eax, -858993460				; ccccccccH
	rep stosd
	cmp	DWORD PTR _code_map$[ebp], 0
	je	SHORT $LN4@soap_code
	cmp	DWORD PTR _str$[ebp], 0
	je	SHORT $LN4@soap_code
$LN3@soap_code:

; 1336 :   { while (code_map->string)

	mov	eax, DWORD PTR _code_map$[ebp]
	cmp	DWORD PTR [eax+4], 0
	je	SHORT $LN4@soap_code

; 1337 :     { if (!strcmp(str, code_map->string)) /* case sensitive */

	mov	eax, DWORD PTR _code_map$[ebp]
	mov	ecx, DWORD PTR [eax+4]
	push	ecx
	mov	edx, DWORD PTR _str$[ebp]
	push	edx
	call	_strcmp
	add	esp, 8
	test	eax, eax
	jne	SHORT $LN1@soap_code

; 1338 :         return code_map;

	mov	eax, DWORD PTR _code_map$[ebp]
	jmp	SHORT $LN5@soap_code
$LN1@soap_code:

; 1339 :       code_map++;

	mov	eax, DWORD PTR _code_map$[ebp]
	add	eax, 8
	mov	DWORD PTR _code_map$[ebp], eax

; 1340 :     }

	jmp	SHORT $LN3@soap_code
$LN4@soap_code:

; 1341 :   }
; 1342 :   return NULL;

	xor	eax, eax
$LN5@soap_code:

; 1343 : }

	pop	edi
	pop	esi
	pop	ebx
	add	esp, 192				; 000000c0H
	cmp	ebp, esp
	call	__RTC_CheckEsp
	mov	esp, ebp
	pop	ebp
	ret	0
_soap_code ENDP
_TEXT	ENDS
PUBLIC	_soap_tag_cmp
PUBLIC	_soap_code_int
; Function compile flags: /Odtp /RTCcsu /ZI
;	COMDAT _soap_code_int
_TEXT	SEGMENT
_code_map$ = 8						; size = 4
_str$ = 12						; size = 4
_other$ = 16						; size = 4
_soap_code_int PROC					; COMDAT

; 1352 : { if (code_map)

	push	ebp
	mov	ebp, esp
	sub	esp, 192				; 000000c0H
	push	ebx
	push	esi
	push	edi
	lea	edi, DWORD PTR [ebp-192]
	mov	ecx, 48					; 00000030H
	mov	eax, -858993460				; ccccccccH
	rep stosd
	cmp	DWORD PTR _code_map$[ebp], 0
	je	SHORT $LN4@soap_code_
$LN3@soap_code_:

; 1353 :   { while (code_map->string)

	mov	eax, DWORD PTR _code_map$[ebp]
	cmp	DWORD PTR [eax+4], 0
	je	SHORT $LN4@soap_code_

; 1354 :     { if (!soap_tag_cmp(str, code_map->string)) /* case insensitive */

	mov	eax, DWORD PTR _code_map$[ebp]
	mov	ecx, DWORD PTR [eax+4]
	push	ecx
	mov	edx, DWORD PTR _str$[ebp]
	push	edx
	call	_soap_tag_cmp
	add	esp, 8
	test	eax, eax
	jne	SHORT $LN1@soap_code_

; 1355 :         return code_map->code;

	mov	eax, DWORD PTR _code_map$[ebp]
	mov	eax, DWORD PTR [eax]
	jmp	SHORT $LN5@soap_code_
$LN1@soap_code_:

; 1356 :       code_map++;

	mov	eax, DWORD PTR _code_map$[ebp]
	add	eax, 8
	mov	DWORD PTR _code_map$[ebp], eax

; 1357 :     }

	jmp	SHORT $LN3@soap_code_
$LN4@soap_code_:

; 1358 :   }
; 1359 :   return other;

	mov	eax, DWORD PTR _other$[ebp]
$LN5@soap_code_:

; 1360 : }

	pop	edi
	pop	esi
	pop	ebx
	add	esp, 192				; 000000c0H
	cmp	ebp, esp
	call	__RTC_CheckEsp
	mov	esp, ebp
	pop	ebp
	ret	0
_soap_code_int ENDP
_TEXT	ENDS
PUBLIC	_soap_code_str
; Function compile flags: /Odtp /RTCcsu /ZI
;	COMDAT _soap_code_str
_TEXT	SEGMENT
_code_map$ = 8						; size = 4
_code$ = 12						; size = 4
_soap_code_str PROC					; COMDAT

; 1369 : { if (!code_map)

	push	ebp
	mov	ebp, esp
	sub	esp, 192				; 000000c0H
	push	ebx
	push	esi
	push	edi
	lea	edi, DWORD PTR [ebp-192]
	mov	ecx, 48					; 00000030H
	mov	eax, -858993460				; ccccccccH
	rep stosd
	cmp	DWORD PTR _code_map$[ebp], 0
	jne	SHORT $LN2@soap_code_@2

; 1370 :     return NULL;

	xor	eax, eax
	jmp	SHORT $LN4@soap_code_@2
$LN2@soap_code_@2:

; 1371 :   while (code_map->code != code && code_map->string)

	mov	eax, DWORD PTR _code_map$[ebp]
	mov	ecx, DWORD PTR [eax]
	cmp	ecx, DWORD PTR _code$[ebp]
	je	SHORT $LN1@soap_code_@2
	mov	eax, DWORD PTR _code_map$[ebp]
	cmp	DWORD PTR [eax+4], 0
	je	SHORT $LN1@soap_code_@2

; 1372 :     code_map++;

	mov	eax, DWORD PTR _code_map$[ebp]
	add	eax, 8
	mov	DWORD PTR _code_map$[ebp], eax
	jmp	SHORT $LN2@soap_code_@2
$LN1@soap_code_@2:

; 1373 :   return code_map->string;

	mov	eax, DWORD PTR _code_map$[ebp]
	mov	eax, DWORD PTR [eax+4]
$LN4@soap_code_@2:

; 1374 : }

	pop	edi
	pop	esi
	pop	ebx
	mov	esp, ebp
	pop	ebp
	ret	0
_soap_code_str ENDP
_TEXT	ENDS
PUBLIC	_soap_code_bits
EXTRN	__imp__strncmp:PROC
; Function compile flags: /Odtp /RTCcsu /ZI
;	COMDAT _soap_code_bits
_TEXT	SEGMENT
_n$82833 = -32						; size = 4
_p$82829 = -20						; size = 4
_bits$ = -8						; size = 4
_code_map$ = 8						; size = 4
_str$ = 12						; size = 4
_soap_code_bits PROC					; COMDAT

; 1383 : { register long bits = 0;

	push	ebp
	mov	ebp, esp
	sub	esp, 228				; 000000e4H
	push	ebx
	push	esi
	push	edi
	lea	edi, DWORD PTR [ebp-228]
	mov	ecx, 57					; 00000039H
	mov	eax, -858993460				; ccccccccH
	rep stosd
	mov	DWORD PTR _bits$[ebp], 0

; 1384 :   if (code_map)

	cmp	DWORD PTR _code_map$[ebp], 0
	je	$LN10@soap_code_@3
$LN9@soap_code_@3:

; 1385 :   { while (str && *str)

	cmp	DWORD PTR _str$[ebp], 0
	je	$LN10@soap_code_@3
	mov	eax, DWORD PTR _str$[ebp]
	movsx	ecx, BYTE PTR [eax]
	test	ecx, ecx
	je	$LN10@soap_code_@3

; 1386 :     { const struct soap_code_map *p;
; 1387 :       for (p = code_map; p->string; p++)

	mov	eax, DWORD PTR _code_map$[ebp]
	mov	DWORD PTR _p$82829[ebp], eax
	jmp	SHORT $LN7@soap_code_@3
$LN6@soap_code_@3:
	mov	eax, DWORD PTR _p$82829[ebp]
	add	eax, 8
	mov	DWORD PTR _p$82829[ebp], eax
$LN7@soap_code_@3:
	mov	eax, DWORD PTR _p$82829[ebp]
	cmp	DWORD PTR [eax+4], 0
	je	$LN5@soap_code_@3

; 1388 :       { register size_t n = strlen(p->string);

	mov	eax, DWORD PTR _p$82829[ebp]
	mov	ecx, DWORD PTR [eax+4]
	push	ecx
	call	_strlen
	add	esp, 4
	mov	DWORD PTR _n$82833[ebp], eax

; 1389 :         if (!strncmp(p->string, str, n) && soap_blank(str[n]))

	mov	esi, esp
	mov	eax, DWORD PTR _n$82833[ebp]
	push	eax
	mov	ecx, DWORD PTR _str$[ebp]
	push	ecx
	mov	edx, DWORD PTR _p$82829[ebp]
	mov	eax, DWORD PTR [edx+4]
	push	eax
	call	DWORD PTR __imp__strncmp
	add	esp, 12					; 0000000cH
	cmp	esi, esp
	call	__RTC_CheckEsp
	test	eax, eax
	jne	SHORT $LN4@soap_code_@3
	mov	eax, DWORD PTR _str$[ebp]
	add	eax, DWORD PTR _n$82833[ebp]
	movsx	ecx, BYTE PTR [eax]
	test	ecx, ecx
	jl	SHORT $LN4@soap_code_@3
	mov	eax, DWORD PTR _str$[ebp]
	add	eax, DWORD PTR _n$82833[ebp]
	movsx	ecx, BYTE PTR [eax]
	cmp	ecx, 32					; 00000020H
	jg	SHORT $LN4@soap_code_@3

; 1390 :         { bits |= p->code;

	mov	eax, DWORD PTR _p$82829[ebp]
	mov	ecx, DWORD PTR _bits$[ebp]
	or	ecx, DWORD PTR [eax]
	mov	DWORD PTR _bits$[ebp], ecx

; 1391 :           str += n;

	mov	eax, DWORD PTR _str$[ebp]
	add	eax, DWORD PTR _n$82833[ebp]
	mov	DWORD PTR _str$[ebp], eax
$LN3@soap_code_@3:

; 1392 :           while (*str > 0 && *str <= 32)

	mov	eax, DWORD PTR _str$[ebp]
	movsx	ecx, BYTE PTR [eax]
	test	ecx, ecx
	jle	SHORT $LN2@soap_code_@3
	mov	eax, DWORD PTR _str$[ebp]
	movsx	ecx, BYTE PTR [eax]
	cmp	ecx, 32					; 00000020H
	jg	SHORT $LN2@soap_code_@3

; 1393 :             str++;

	mov	eax, DWORD PTR _str$[ebp]
	add	eax, 1
	mov	DWORD PTR _str$[ebp], eax
	jmp	SHORT $LN3@soap_code_@3
$LN2@soap_code_@3:

; 1394 :           break;

	jmp	SHORT $LN5@soap_code_@3
$LN4@soap_code_@3:

; 1395 :         }
; 1396 :       }

	jmp	$LN6@soap_code_@3
$LN5@soap_code_@3:

; 1397 :       if (!p->string)

	mov	eax, DWORD PTR _p$82829[ebp]
	cmp	DWORD PTR [eax+4], 0
	jne	SHORT $LN1@soap_code_@3

; 1398 :         return 0;

	xor	eax, eax
	jmp	SHORT $LN11@soap_code_@3
$LN1@soap_code_@3:

; 1399 :     }

	jmp	$LN9@soap_code_@3
$LN10@soap_code_@3:

; 1400 :   }
; 1401 :   return bits;

	mov	eax, DWORD PTR _bits$[ebp]
$LN11@soap_code_@3:

; 1402 : }

	pop	edi
	pop	esi
	pop	ebx
	add	esp, 228				; 000000e4H
	cmp	ebp, esp
	call	__RTC_CheckEsp
	mov	esp, ebp
	pop	ebp
	ret	0
_soap_code_bits ENDP
_TEXT	ENDS
PUBLIC	_soap_code_list
; Function compile flags: /Odtp /RTCcsu /ZI
;	COMDAT _soap_code_list
_TEXT	SEGMENT
_s$82850 = -20						; size = 4
_t$ = -8						; size = 4
_soap$ = 8						; size = 4
_code_map$ = 12						; size = 4
_code$ = 16						; size = 4
_soap_code_list PROC					; COMDAT

; 1411 : { register char *t = soap->tmpbuf;

	push	ebp
	mov	ebp, esp
	sub	esp, 216				; 000000d8H
	push	ebx
	push	esi
	push	edi
	lea	edi, DWORD PTR [ebp-216]
	mov	ecx, 54					; 00000036H
	mov	eax, -858993460				; ccccccccH
	rep stosd
	mov	eax, DWORD PTR _soap$[ebp]
	add	eax, 79028				; 000134b4H
	mov	DWORD PTR _t$[ebp], eax

; 1412 :   if (code_map)

	cmp	DWORD PTR _code_map$[ebp], 0
	je	$LN8@soap_code_@4
$LN7@soap_code_@4:

; 1413 :   { while (code_map->string)

	mov	eax, DWORD PTR _code_map$[ebp]
	cmp	DWORD PTR [eax+4], 0
	je	$LN8@soap_code_@4

; 1414 :     { if (code_map->code & code)

	mov	eax, DWORD PTR _code_map$[ebp]
	mov	ecx, DWORD PTR [eax]
	and	ecx, DWORD PTR _code$[ebp]
	je	SHORT $LN5@soap_code_@4

; 1415 :       { register const char *s = code_map->string;

	mov	eax, DWORD PTR _code_map$[ebp]
	mov	ecx, DWORD PTR [eax+4]
	mov	DWORD PTR _s$82850[ebp], ecx

; 1416 :         if (t != soap->tmpbuf)

	mov	eax, DWORD PTR _soap$[ebp]
	add	eax, 79028				; 000134b4H
	cmp	DWORD PTR _t$[ebp], eax
	je	SHORT $LN3@soap_code_@4

; 1417 :           *t++ = ' ';

	mov	eax, DWORD PTR _t$[ebp]
	mov	BYTE PTR [eax], 32			; 00000020H
	mov	ecx, DWORD PTR _t$[ebp]
	add	ecx, 1
	mov	DWORD PTR _t$[ebp], ecx
$LN3@soap_code_@4:

; 1418 :         while (*s && t < soap->tmpbuf + sizeof(soap->tmpbuf) - 1)

	mov	eax, DWORD PTR _s$82850[ebp]
	movsx	ecx, BYTE PTR [eax]
	test	ecx, ecx
	je	SHORT $LN2@soap_code_@4
	mov	eax, DWORD PTR _soap$[ebp]
	add	eax, 80051				; 000138b3H
	cmp	DWORD PTR _t$[ebp], eax
	jae	SHORT $LN2@soap_code_@4

; 1419 :           *t++ = *s++;

	mov	eax, DWORD PTR _t$[ebp]
	mov	ecx, DWORD PTR _s$82850[ebp]
	mov	dl, BYTE PTR [ecx]
	mov	BYTE PTR [eax], dl
	mov	eax, DWORD PTR _t$[ebp]
	add	eax, 1
	mov	DWORD PTR _t$[ebp], eax
	mov	ecx, DWORD PTR _s$82850[ebp]
	add	ecx, 1
	mov	DWORD PTR _s$82850[ebp], ecx
	jmp	SHORT $LN3@soap_code_@4
$LN2@soap_code_@4:

; 1420 :         if (t == soap->tmpbuf + sizeof(soap->tmpbuf) - 1)

	mov	eax, DWORD PTR _soap$[ebp]
	add	eax, 80051				; 000138b3H
	cmp	DWORD PTR _t$[ebp], eax
	jne	SHORT $LN5@soap_code_@4

; 1421 :           break;

	jmp	SHORT $LN8@soap_code_@4
$LN5@soap_code_@4:

; 1422 :       }
; 1423 :       code_map++;

	mov	eax, DWORD PTR _code_map$[ebp]
	add	eax, 8
	mov	DWORD PTR _code_map$[ebp], eax

; 1424 :     }

	jmp	$LN7@soap_code_@4
$LN8@soap_code_@4:

; 1425 :   }
; 1426 :   *t = '\0';

	mov	eax, DWORD PTR _t$[ebp]
	mov	BYTE PTR [eax], 0

; 1427 :   return soap->tmpbuf;

	mov	eax, DWORD PTR _soap$[ebp]
	add	eax, 79028				; 000134b4H

; 1428 : }

	pop	edi
	pop	esi
	pop	ebx
	mov	esp, ebp
	pop	ebp
	ret	0
_soap_code_list ENDP
_TEXT	ENDS
PUBLIC	_soap_get
; Function compile flags: /Odtp /RTCcsu /ZI
;	COMDAT _soap_get
_TEXT	SEGMENT
tv332 = -220						; size = 4
tv317 = -220						; size = 4
tv292 = -220						; size = 4
tv277 = -220						; size = 4
tv262 = -220						; size = 4
tv247 = -220						; size = 4
tv229 = -220						; size = 4
tv214 = -220						; size = 4
tv194 = -220						; size = 4
tv180 = -220						; size = 4
tv174 = -220						; size = 4
tv160 = -220						; size = 4
tv144 = -220						; size = 4
tv132 = -220						; size = 4
tv81 = -220						; size = 4
_k$82921 = -20						; size = 4
_c$ = -8						; size = 4
_soap$ = 8						; size = 4
_soap_get PROC						; COMDAT

; 1499 : { register soap_wchar c;

	push	ebp
	mov	ebp, esp
	sub	esp, 220				; 000000dcH
	push	ebx
	push	esi
	push	edi
	lea	edi, DWORD PTR [ebp-220]
	mov	ecx, 55					; 00000037H
	mov	eax, -858993460				; ccccccccH
	rep stosd

; 1500 :   c = soap->ahead;

	mov	eax, DWORD PTR _soap$[ebp]
	mov	ecx, DWORD PTR [eax+12436]
	mov	DWORD PTR _c$[ebp], ecx

; 1501 :   if (c)

	cmp	DWORD PTR _c$[ebp], 0
	je	SHORT $LN47@soap_get

; 1502 :   { if ((int)c != EOF)

	cmp	DWORD PTR _c$[ebp], -1
	je	SHORT $LN46@soap_get

; 1503 :       soap->ahead = 0;

	mov	eax, DWORD PTR _soap$[ebp]
	mov	DWORD PTR [eax+12436], 0
$LN46@soap_get:

; 1504 :   }
; 1505 :   else

	jmp	SHORT $LN44@soap_get
$LN47@soap_get:

; 1506 :     c = soap_get1(soap);

	mov	eax, DWORD PTR _soap$[ebp]
	mov	ecx, DWORD PTR _soap$[ebp]
	mov	edx, DWORD PTR [eax+12428]
	cmp	edx, DWORD PTR [ecx+12432]
	jb	SHORT $LN50@soap_get
	mov	eax, DWORD PTR _soap$[ebp]
	push	eax
	call	_soap_recv
	add	esp, 4
	test	eax, eax
	je	SHORT $LN50@soap_get
	mov	DWORD PTR tv81[ebp], -1
	jmp	SHORT $LN51@soap_get
$LN50@soap_get:
	mov	ecx, DWORD PTR _soap$[ebp]
	mov	edx, DWORD PTR [ecx+12428]
	mov	eax, DWORD PTR _soap$[ebp]
	movzx	ecx, BYTE PTR [eax+edx+12468]
	mov	DWORD PTR tv81[ebp], ecx
	mov	edx, DWORD PTR _soap$[ebp]
	mov	eax, DWORD PTR [edx+12428]
	add	eax, 1
	mov	ecx, DWORD PTR _soap$[ebp]
	mov	DWORD PTR [ecx+12428], eax
$LN51@soap_get:
	mov	edx, DWORD PTR tv81[ebp]
	mov	DWORD PTR _c$[ebp], edx
$LN44@soap_get:

; 1507 :   while ((int)c != EOF)

	cmp	DWORD PTR _c$[ebp], -1
	je	$LN43@soap_get

; 1508 :   { if (soap->cdata)

	mov	eax, DWORD PTR _soap$[ebp]
	movsx	ecx, WORD PTR [eax+12440]
	test	ecx, ecx
	je	$LN42@soap_get

; 1509 :     { if (c == ']')

	cmp	DWORD PTR _c$[ebp], 93			; 0000005dH
	jne	$LN41@soap_get

; 1510 :       { c = soap_get1(soap);

	mov	eax, DWORD PTR _soap$[ebp]
	mov	ecx, DWORD PTR _soap$[ebp]
	mov	edx, DWORD PTR [eax+12428]
	cmp	edx, DWORD PTR [ecx+12432]
	jb	SHORT $LN52@soap_get
	mov	eax, DWORD PTR _soap$[ebp]
	push	eax
	call	_soap_recv
	add	esp, 4
	test	eax, eax
	je	SHORT $LN52@soap_get
	mov	DWORD PTR tv132[ebp], -1
	jmp	SHORT $LN53@soap_get
$LN52@soap_get:
	mov	ecx, DWORD PTR _soap$[ebp]
	mov	edx, DWORD PTR [ecx+12428]
	mov	eax, DWORD PTR _soap$[ebp]
	movzx	ecx, BYTE PTR [eax+edx+12468]
	mov	DWORD PTR tv132[ebp], ecx
	mov	edx, DWORD PTR _soap$[ebp]
	mov	eax, DWORD PTR [edx+12428]
	add	eax, 1
	mov	ecx, DWORD PTR _soap$[ebp]
	mov	DWORD PTR [ecx+12428], eax
$LN53@soap_get:
	mov	edx, DWORD PTR tv132[ebp]
	mov	DWORD PTR _c$[ebp], edx

; 1511 :         if (c == ']')

	cmp	DWORD PTR _c$[ebp], 93			; 0000005dH
	jne	$LN40@soap_get

; 1512 :         { c = soap_get0(soap);

	mov	eax, DWORD PTR _soap$[ebp]
	mov	ecx, DWORD PTR _soap$[ebp]
	mov	edx, DWORD PTR [eax+12428]
	cmp	edx, DWORD PTR [ecx+12432]
	jb	SHORT $LN54@soap_get
	mov	eax, DWORD PTR _soap$[ebp]
	push	eax
	call	_soap_recv
	add	esp, 4
	test	eax, eax
	je	SHORT $LN54@soap_get
	mov	DWORD PTR tv144[ebp], -1
	jmp	SHORT $LN55@soap_get
$LN54@soap_get:
	mov	ecx, DWORD PTR _soap$[ebp]
	mov	edx, DWORD PTR [ecx+12428]
	mov	eax, DWORD PTR _soap$[ebp]
	movzx	ecx, BYTE PTR [eax+edx+12468]
	mov	DWORD PTR tv144[ebp], ecx
$LN55@soap_get:
	mov	edx, DWORD PTR tv144[ebp]
	mov	DWORD PTR _c$[ebp], edx

; 1513 :           if (c == '>')

	cmp	DWORD PTR _c$[ebp], 62			; 0000003eH
	jne	$LN39@soap_get

; 1514 :           { soap->cdata = 0;

	xor	eax, eax
	mov	ecx, DWORD PTR _soap$[ebp]
	mov	WORD PTR [ecx+12440], ax

; 1515 :             soap_get1(soap);

	mov	eax, DWORD PTR _soap$[ebp]
	mov	ecx, DWORD PTR _soap$[ebp]
	mov	edx, DWORD PTR [eax+12428]
	cmp	edx, DWORD PTR [ecx+12432]
	jb	SHORT $LN56@soap_get
	mov	eax, DWORD PTR _soap$[ebp]
	push	eax
	call	_soap_recv
	add	esp, 4
	test	eax, eax
	je	SHORT $LN56@soap_get
	mov	DWORD PTR tv160[ebp], -1
	jmp	SHORT $LN57@soap_get
$LN56@soap_get:
	mov	ecx, DWORD PTR _soap$[ebp]
	mov	edx, DWORD PTR [ecx+12428]
	mov	eax, DWORD PTR _soap$[ebp]
	movzx	ecx, BYTE PTR [eax+edx+12468]
	mov	DWORD PTR tv160[ebp], ecx
	mov	edx, DWORD PTR _soap$[ebp]
	mov	eax, DWORD PTR [edx+12428]
	add	eax, 1
	mov	ecx, DWORD PTR _soap$[ebp]
	mov	DWORD PTR [ecx+12428], eax
$LN57@soap_get:

; 1516 :             c = soap_get1(soap);

	mov	eax, DWORD PTR _soap$[ebp]
	mov	ecx, DWORD PTR _soap$[ebp]
	mov	edx, DWORD PTR [eax+12428]
	cmp	edx, DWORD PTR [ecx+12432]
	jb	SHORT $LN58@soap_get
	mov	eax, DWORD PTR _soap$[ebp]
	push	eax
	call	_soap_recv
	add	esp, 4
	test	eax, eax
	je	SHORT $LN58@soap_get
	mov	DWORD PTR tv174[ebp], -1
	jmp	SHORT $LN59@soap_get
$LN58@soap_get:
	mov	ecx, DWORD PTR _soap$[ebp]
	mov	edx, DWORD PTR [ecx+12428]
	mov	eax, DWORD PTR _soap$[ebp]
	movzx	ecx, BYTE PTR [eax+edx+12468]
	mov	DWORD PTR tv174[ebp], ecx
	mov	edx, DWORD PTR _soap$[ebp]
	mov	eax, DWORD PTR [edx+12428]
	add	eax, 1
	mov	ecx, DWORD PTR _soap$[ebp]
	mov	DWORD PTR [ecx+12428], eax
$LN59@soap_get:
	mov	edx, DWORD PTR tv174[ebp]
	mov	DWORD PTR _c$[ebp], edx

; 1517 :           }
; 1518 :           else

	jmp	SHORT $LN38@soap_get
$LN39@soap_get:

; 1519 :           { soap_unget(soap, ']');

	mov	eax, DWORD PTR _soap$[ebp]
	mov	DWORD PTR [eax+12436], 93		; 0000005dH

; 1520 :             return ']';

	mov	eax, 93					; 0000005dH
	jmp	$LN48@soap_get
$LN38@soap_get:

; 1521 :           }
; 1522 :         }
; 1523 :         else

	jmp	SHORT $LN37@soap_get
$LN40@soap_get:

; 1524 :         { soap_revget1(soap);

	mov	eax, DWORD PTR _soap$[ebp]
	mov	ecx, DWORD PTR [eax+12428]
	sub	ecx, 1
	mov	edx, DWORD PTR _soap$[ebp]
	mov	DWORD PTR [edx+12428], ecx

; 1525 :           return ']';

	mov	eax, 93					; 0000005dH
	jmp	$LN48@soap_get
$LN37@soap_get:

; 1526 :         }
; 1527 :       }
; 1528 :       else

	jmp	SHORT $LN42@soap_get
$LN41@soap_get:

; 1529 :         return c;

	mov	eax, DWORD PTR _c$[ebp]
	jmp	$LN48@soap_get
$LN42@soap_get:

; 1530 :     }
; 1531 :     switch (c)

	mov	eax, DWORD PTR _c$[ebp]
	mov	DWORD PTR tv180[ebp], eax
	mov	ecx, DWORD PTR tv180[ebp]
	sub	ecx, 34					; 00000022H
	mov	DWORD PTR tv180[ebp], ecx
	cmp	DWORD PTR tv180[ebp], 28		; 0000001cH
	ja	$LN34@soap_get
	mov	edx, DWORD PTR tv180[ebp]
	movzx	eax, BYTE PTR $LN79@soap_get[edx]
	jmp	DWORD PTR $LN80@soap_get[eax*4]
$LN32@soap_get:

; 1532 :     { case '<':
; 1533 :         do c = soap_get1(soap);

	mov	eax, DWORD PTR _soap$[ebp]
	mov	ecx, DWORD PTR _soap$[ebp]
	mov	edx, DWORD PTR [eax+12428]
	cmp	edx, DWORD PTR [ecx+12432]
	jb	SHORT $LN60@soap_get
	mov	eax, DWORD PTR _soap$[ebp]
	push	eax
	call	_soap_recv
	add	esp, 4
	test	eax, eax
	je	SHORT $LN60@soap_get
	mov	DWORD PTR tv194[ebp], -1
	jmp	SHORT $LN61@soap_get
$LN60@soap_get:
	mov	ecx, DWORD PTR _soap$[ebp]
	mov	edx, DWORD PTR [ecx+12428]
	mov	eax, DWORD PTR _soap$[ebp]
	movzx	ecx, BYTE PTR [eax+edx+12468]
	mov	DWORD PTR tv194[ebp], ecx
	mov	edx, DWORD PTR _soap$[ebp]
	mov	eax, DWORD PTR [edx+12428]
	add	eax, 1
	mov	ecx, DWORD PTR _soap$[ebp]
	mov	DWORD PTR [ecx+12428], eax
$LN61@soap_get:
	mov	edx, DWORD PTR tv194[ebp]
	mov	DWORD PTR _c$[ebp], edx

; 1534 :         while (soap_blank(c));

	cmp	DWORD PTR _c$[ebp], 0
	jl	SHORT $LN30@soap_get
	cmp	DWORD PTR _c$[ebp], 32			; 00000020H
	jle	SHORT $LN32@soap_get
$LN30@soap_get:

; 1535 :         if (c == '!' || c == '?' || c == '%')

	cmp	DWORD PTR _c$[ebp], 33			; 00000021H
	je	SHORT $LN27@soap_get
	cmp	DWORD PTR _c$[ebp], 63			; 0000003fH
	je	SHORT $LN27@soap_get
	cmp	DWORD PTR _c$[ebp], 37			; 00000025H
	jne	$LN28@soap_get
$LN27@soap_get:

; 1536 :         { register int k = 1;

	mov	DWORD PTR _k$82921[ebp], 1

; 1537 :           if (c == '!')

	cmp	DWORD PTR _c$[ebp], 33			; 00000021H
	jne	$LN26@soap_get

; 1538 :           { c = soap_get1(soap);

	mov	eax, DWORD PTR _soap$[ebp]
	mov	ecx, DWORD PTR _soap$[ebp]
	mov	edx, DWORD PTR [eax+12428]
	cmp	edx, DWORD PTR [ecx+12432]
	jb	SHORT $LN62@soap_get
	mov	eax, DWORD PTR _soap$[ebp]
	push	eax
	call	_soap_recv
	add	esp, 4
	test	eax, eax
	je	SHORT $LN62@soap_get
	mov	DWORD PTR tv214[ebp], -1
	jmp	SHORT $LN63@soap_get
$LN62@soap_get:
	mov	ecx, DWORD PTR _soap$[ebp]
	mov	edx, DWORD PTR [ecx+12428]
	mov	eax, DWORD PTR _soap$[ebp]
	movzx	ecx, BYTE PTR [eax+edx+12468]
	mov	DWORD PTR tv214[ebp], ecx
	mov	edx, DWORD PTR _soap$[ebp]
	mov	eax, DWORD PTR [edx+12428]
	add	eax, 1
	mov	ecx, DWORD PTR _soap$[ebp]
	mov	DWORD PTR [ecx+12428], eax
$LN63@soap_get:
	mov	edx, DWORD PTR tv214[ebp]
	mov	DWORD PTR _c$[ebp], edx

; 1539 :             if (c == '[')

	cmp	DWORD PTR _c$[ebp], 91			; 0000005bH
	jne	$LN25@soap_get
$LN24@soap_get:

; 1540 :             { do c = soap_get1(soap);

	mov	eax, DWORD PTR _soap$[ebp]
	mov	ecx, DWORD PTR _soap$[ebp]
	mov	edx, DWORD PTR [eax+12428]
	cmp	edx, DWORD PTR [ecx+12432]
	jb	SHORT $LN64@soap_get
	mov	eax, DWORD PTR _soap$[ebp]
	push	eax
	call	_soap_recv
	add	esp, 4
	test	eax, eax
	je	SHORT $LN64@soap_get
	mov	DWORD PTR tv229[ebp], -1
	jmp	SHORT $LN65@soap_get
$LN64@soap_get:
	mov	ecx, DWORD PTR _soap$[ebp]
	mov	edx, DWORD PTR [ecx+12428]
	mov	eax, DWORD PTR _soap$[ebp]
	movzx	ecx, BYTE PTR [eax+edx+12468]
	mov	DWORD PTR tv229[ebp], ecx
	mov	edx, DWORD PTR _soap$[ebp]
	mov	eax, DWORD PTR [edx+12428]
	add	eax, 1
	mov	ecx, DWORD PTR _soap$[ebp]
	mov	DWORD PTR [ecx+12428], eax
$LN65@soap_get:
	mov	edx, DWORD PTR tv229[ebp]
	mov	DWORD PTR _c$[ebp], edx

; 1541 :               while ((int)c != EOF && c != '[');

	cmp	DWORD PTR _c$[ebp], -1
	je	SHORT $LN22@soap_get
	cmp	DWORD PTR _c$[ebp], 91			; 0000005bH
	jne	SHORT $LN24@soap_get
$LN22@soap_get:

; 1542 :               if ((int)c == EOF)

	cmp	DWORD PTR _c$[ebp], -1
	jne	SHORT $LN20@soap_get

; 1543 :                 break;

	jmp	$LN34@soap_get
$LN20@soap_get:

; 1544 :               soap->cdata = 1;

	mov	eax, 1
	mov	ecx, DWORD PTR _soap$[ebp]
	mov	WORD PTR [ecx+12440], ax

; 1545 :               c = soap_get1(soap);

	mov	eax, DWORD PTR _soap$[ebp]
	mov	ecx, DWORD PTR _soap$[ebp]
	mov	edx, DWORD PTR [eax+12428]
	cmp	edx, DWORD PTR [ecx+12432]
	jb	SHORT $LN66@soap_get
	mov	eax, DWORD PTR _soap$[ebp]
	push	eax
	call	_soap_recv
	add	esp, 4
	test	eax, eax
	je	SHORT $LN66@soap_get
	mov	DWORD PTR tv247[ebp], -1
	jmp	SHORT $LN67@soap_get
$LN66@soap_get:
	mov	ecx, DWORD PTR _soap$[ebp]
	mov	edx, DWORD PTR [ecx+12428]
	mov	eax, DWORD PTR _soap$[ebp]
	movzx	ecx, BYTE PTR [eax+edx+12468]
	mov	DWORD PTR tv247[ebp], ecx
	mov	edx, DWORD PTR _soap$[ebp]
	mov	eax, DWORD PTR [edx+12428]
	add	eax, 1
	mov	ecx, DWORD PTR _soap$[ebp]
	mov	DWORD PTR [ecx+12428], eax
$LN67@soap_get:
	mov	edx, DWORD PTR tv247[ebp]
	mov	DWORD PTR _c$[ebp], edx

; 1546 :               continue;

	jmp	$LN44@soap_get
$LN25@soap_get:

; 1547 :             }
; 1548 :             if (c == '-' && (c = soap_get1(soap)) == '-')

	cmp	DWORD PTR _c$[ebp], 45			; 0000002dH
	jne	$LN19@soap_get
	mov	eax, DWORD PTR _soap$[ebp]
	mov	ecx, DWORD PTR _soap$[ebp]
	mov	edx, DWORD PTR [eax+12428]
	cmp	edx, DWORD PTR [ecx+12432]
	jb	SHORT $LN68@soap_get
	mov	eax, DWORD PTR _soap$[ebp]
	push	eax
	call	_soap_recv
	add	esp, 4
	test	eax, eax
	je	SHORT $LN68@soap_get
	mov	DWORD PTR tv262[ebp], -1
	jmp	SHORT $LN69@soap_get
$LN68@soap_get:
	mov	ecx, DWORD PTR _soap$[ebp]
	mov	edx, DWORD PTR [ecx+12428]
	mov	eax, DWORD PTR _soap$[ebp]
	movzx	ecx, BYTE PTR [eax+edx+12468]
	mov	DWORD PTR tv262[ebp], ecx
	mov	edx, DWORD PTR _soap$[ebp]
	mov	eax, DWORD PTR [edx+12428]
	add	eax, 1
	mov	ecx, DWORD PTR _soap$[ebp]
	mov	DWORD PTR [ecx+12428], eax
$LN69@soap_get:
	mov	edx, DWORD PTR tv262[ebp]
	mov	DWORD PTR _c$[ebp], edx
	cmp	DWORD PTR _c$[ebp], 45			; 0000002dH
	jne	$LN19@soap_get
$LN18@soap_get:

; 1549 :             { do
; 1550 :               { c = soap_get1(soap);

	mov	eax, DWORD PTR _soap$[ebp]
	mov	ecx, DWORD PTR _soap$[ebp]
	mov	edx, DWORD PTR [eax+12428]
	cmp	edx, DWORD PTR [ecx+12432]
	jb	SHORT $LN70@soap_get
	mov	eax, DWORD PTR _soap$[ebp]
	push	eax
	call	_soap_recv
	add	esp, 4
	test	eax, eax
	je	SHORT $LN70@soap_get
	mov	DWORD PTR tv277[ebp], -1
	jmp	SHORT $LN71@soap_get
$LN70@soap_get:
	mov	ecx, DWORD PTR _soap$[ebp]
	mov	edx, DWORD PTR [ecx+12428]
	mov	eax, DWORD PTR _soap$[ebp]
	movzx	ecx, BYTE PTR [eax+edx+12468]
	mov	DWORD PTR tv277[ebp], ecx
	mov	edx, DWORD PTR _soap$[ebp]
	mov	eax, DWORD PTR [edx+12428]
	add	eax, 1
	mov	ecx, DWORD PTR _soap$[ebp]
	mov	DWORD PTR [ecx+12428], eax
$LN71@soap_get:
	mov	edx, DWORD PTR tv277[ebp]
	mov	DWORD PTR _c$[ebp], edx

; 1551 :                 if (c == '-' && (c = soap_get1(soap)) == '-')

	cmp	DWORD PTR _c$[ebp], 45			; 0000002dH
	jne	SHORT $LN17@soap_get
	mov	eax, DWORD PTR _soap$[ebp]
	mov	ecx, DWORD PTR _soap$[ebp]
	mov	edx, DWORD PTR [eax+12428]
	cmp	edx, DWORD PTR [ecx+12432]
	jb	SHORT $LN72@soap_get
	mov	eax, DWORD PTR _soap$[ebp]
	push	eax
	call	_soap_recv
	add	esp, 4
	test	eax, eax
	je	SHORT $LN72@soap_get
	mov	DWORD PTR tv292[ebp], -1
	jmp	SHORT $LN73@soap_get
$LN72@soap_get:
	mov	ecx, DWORD PTR _soap$[ebp]
	mov	edx, DWORD PTR [ecx+12428]
	mov	eax, DWORD PTR _soap$[ebp]
	movzx	ecx, BYTE PTR [eax+edx+12468]
	mov	DWORD PTR tv292[ebp], ecx
	mov	edx, DWORD PTR _soap$[ebp]
	mov	eax, DWORD PTR [edx+12428]
	add	eax, 1
	mov	ecx, DWORD PTR _soap$[ebp]
	mov	DWORD PTR [ecx+12428], eax
$LN73@soap_get:
	mov	edx, DWORD PTR tv292[ebp]
	mov	DWORD PTR _c$[ebp], edx
	cmp	DWORD PTR _c$[ebp], 45			; 0000002dH
	jne	SHORT $LN17@soap_get

; 1552 :                   break;

	jmp	SHORT $LN19@soap_get
$LN17@soap_get:

; 1553 :               } while ((int)c != EOF);

	cmp	DWORD PTR _c$[ebp], -1
	jne	$LN18@soap_get
$LN19@soap_get:

; 1554 :             }
; 1555 :           }

	jmp	SHORT $LN12@soap_get
$LN26@soap_get:

; 1556 :           else if (c == '?')

	cmp	DWORD PTR _c$[ebp], 63			; 0000003fH
	jne	SHORT $LN12@soap_get

; 1557 :             c = soap_get_pi(soap);

	mov	eax, DWORD PTR _soap$[ebp]
	push	eax
	call	_soap_get_pi
	add	esp, 4
	mov	DWORD PTR _c$[ebp], eax
$LN12@soap_get:

; 1558 :           while ((int)c != EOF)

	cmp	DWORD PTR _c$[ebp], -1
	je	$LN11@soap_get

; 1559 :           { if (c == '<')

	cmp	DWORD PTR _c$[ebp], 60			; 0000003cH
	jne	SHORT $LN10@soap_get

; 1560 :               k++;

	mov	eax, DWORD PTR _k$82921[ebp]
	add	eax, 1
	mov	DWORD PTR _k$82921[ebp], eax
	jmp	SHORT $LN9@soap_get
$LN10@soap_get:

; 1561 :             else if (c == '>')

	cmp	DWORD PTR _c$[ebp], 62			; 0000003eH
	jne	SHORT $LN9@soap_get

; 1562 :             { if (--k <= 0)

	mov	eax, DWORD PTR _k$82921[ebp]
	sub	eax, 1
	mov	DWORD PTR _k$82921[ebp], eax
	cmp	DWORD PTR _k$82921[ebp], 0
	jg	SHORT $LN9@soap_get

; 1563 :                 break;

	jmp	SHORT $LN11@soap_get
$LN9@soap_get:

; 1564 :             }
; 1565 :             c = soap_get1(soap);

	mov	eax, DWORD PTR _soap$[ebp]
	mov	ecx, DWORD PTR _soap$[ebp]
	mov	edx, DWORD PTR [eax+12428]
	cmp	edx, DWORD PTR [ecx+12432]
	jb	SHORT $LN74@soap_get
	mov	eax, DWORD PTR _soap$[ebp]
	push	eax
	call	_soap_recv
	add	esp, 4
	test	eax, eax
	je	SHORT $LN74@soap_get
	mov	DWORD PTR tv317[ebp], -1
	jmp	SHORT $LN75@soap_get
$LN74@soap_get:
	mov	ecx, DWORD PTR _soap$[ebp]
	mov	edx, DWORD PTR [ecx+12428]
	mov	eax, DWORD PTR _soap$[ebp]
	movzx	ecx, BYTE PTR [eax+edx+12468]
	mov	DWORD PTR tv317[ebp], ecx
	mov	edx, DWORD PTR _soap$[ebp]
	mov	eax, DWORD PTR [edx+12428]
	add	eax, 1
	mov	ecx, DWORD PTR _soap$[ebp]
	mov	DWORD PTR [ecx+12428], eax
$LN75@soap_get:
	mov	edx, DWORD PTR tv317[ebp]
	mov	DWORD PTR _c$[ebp], edx

; 1566 :           }

	jmp	$LN12@soap_get
$LN11@soap_get:

; 1567 :           if ((int)c == EOF)

	cmp	DWORD PTR _c$[ebp], -1
	jne	SHORT $LN6@soap_get

; 1568 :             break;

	jmp	$LN34@soap_get
$LN6@soap_get:

; 1569 :           c = soap_get1(soap);

	mov	eax, DWORD PTR _soap$[ebp]
	mov	ecx, DWORD PTR _soap$[ebp]
	mov	edx, DWORD PTR [eax+12428]
	cmp	edx, DWORD PTR [ecx+12432]
	jb	SHORT $LN76@soap_get
	mov	eax, DWORD PTR _soap$[ebp]
	push	eax
	call	_soap_recv
	add	esp, 4
	test	eax, eax
	je	SHORT $LN76@soap_get
	mov	DWORD PTR tv332[ebp], -1
	jmp	SHORT $LN77@soap_get
$LN76@soap_get:
	mov	ecx, DWORD PTR _soap$[ebp]
	mov	edx, DWORD PTR [ecx+12428]
	mov	eax, DWORD PTR _soap$[ebp]
	movzx	ecx, BYTE PTR [eax+edx+12468]
	mov	DWORD PTR tv332[ebp], ecx
	mov	edx, DWORD PTR _soap$[ebp]
	mov	eax, DWORD PTR [edx+12428]
	add	eax, 1
	mov	ecx, DWORD PTR _soap$[ebp]
	mov	DWORD PTR [ecx+12428], eax
$LN77@soap_get:
	mov	edx, DWORD PTR tv332[ebp]
	mov	DWORD PTR _c$[ebp], edx

; 1570 :           continue;

	jmp	$LN44@soap_get
$LN28@soap_get:

; 1571 :         }
; 1572 :         if (c == '/')

	cmp	DWORD PTR _c$[ebp], 47			; 0000002fH
	jne	SHORT $LN5@soap_get

; 1573 :           return SOAP_TT;

	mov	eax, -3					; fffffffdH
	jmp	SHORT $LN48@soap_get
$LN5@soap_get:

; 1574 :         soap_revget1(soap);

	mov	eax, DWORD PTR _soap$[ebp]
	mov	ecx, DWORD PTR [eax+12428]
	sub	ecx, 1
	mov	edx, DWORD PTR _soap$[ebp]
	mov	DWORD PTR [edx+12428], ecx

; 1575 :         return SOAP_LT;

	mov	eax, -2					; fffffffeH
	jmp	SHORT $LN48@soap_get
$LN4@soap_get:

; 1576 :       case '>':
; 1577 :         return SOAP_GT;

	mov	eax, -4					; fffffffcH
	jmp	SHORT $LN48@soap_get
$LN3@soap_get:

; 1578 :       case '"':
; 1579 :         return SOAP_QT;

	mov	eax, -5					; fffffffbH
	jmp	SHORT $LN48@soap_get
$LN2@soap_get:

; 1580 :       case '\'':
; 1581 :         return SOAP_AP;

	mov	eax, -6					; fffffffaH
	jmp	SHORT $LN48@soap_get
$LN1@soap_get:

; 1582 :       case '&':
; 1583 :         return soap_char(soap) | 0x80000000;

	mov	eax, DWORD PTR _soap$[ebp]
	push	eax
	call	_soap_char
	add	esp, 4
	or	eax, -2147483648			; 80000000H
	jmp	SHORT $LN48@soap_get
$LN34@soap_get:

; 1584 :     }
; 1585 :     break;

	jmp	SHORT $LN43@soap_get

; 1586 :   }

	jmp	$LN44@soap_get
$LN43@soap_get:

; 1587 :   return c;

	mov	eax, DWORD PTR _c$[ebp]
$LN48@soap_get:

; 1588 : }

	pop	edi
	pop	esi
	pop	ebx
	add	esp, 220				; 000000dcH
	cmp	ebp, esp
	call	__RTC_CheckEsp
	mov	esp, ebp
	pop	ebp
	ret	0
	npad	1
$LN80@soap_get:
	DD	$LN3@soap_get
	DD	$LN1@soap_get
	DD	$LN2@soap_get
	DD	$LN32@soap_get
	DD	$LN4@soap_get
	DD	$LN34@soap_get
$LN79@soap_get:
	DB	0
	DB	5
	DB	5
	DB	5
	DB	1
	DB	2
	DB	5
	DB	5
	DB	5
	DB	5
	DB	5
	DB	5
	DB	5
	DB	5
	DB	5
	DB	5
	DB	5
	DB	5
	DB	5
	DB	5
	DB	5
	DB	5
	DB	5
	DB	5
	DB	5
	DB	5
	DB	3
	DB	5
	DB	4
_soap_get ENDP
_TEXT	ENDS
PUBLIC	??_C@_04LBCJFAKL@apos?$AA@			; `string'
PUBLIC	??_C@_04KJFGKBNM@quot?$AA@			; `string'
PUBLIC	??_C@_03DCBBJBAA@amp?$AA@			; `string'
PUBLIC	??_C@_02GHFEHLK@gt?$AA@				; `string'
PUBLIC	??_C@_02KCAKIFL@lt?$AA@				; `string'
PUBLIC	__$ArrayPad$
EXTRN	__imp__atol:PROC
EXTRN	__imp__strtol:PROC
;	COMDAT ??_C@_04LBCJFAKL@apos?$AA@
CONST	SEGMENT
??_C@_04LBCJFAKL@apos?$AA@ DB 'apos', 00H		; `string'
CONST	ENDS
;	COMDAT ??_C@_04KJFGKBNM@quot?$AA@
CONST	SEGMENT
??_C@_04KJFGKBNM@quot?$AA@ DB 'quot', 00H		; `string'
CONST	ENDS
;	COMDAT ??_C@_03DCBBJBAA@amp?$AA@
CONST	SEGMENT
??_C@_03DCBBJBAA@amp?$AA@ DB 'amp', 00H			; `string'
CONST	ENDS
;	COMDAT ??_C@_02GHFEHLK@gt?$AA@
CONST	SEGMENT
??_C@_02GHFEHLK@gt?$AA@ DB 'gt', 00H			; `string'
CONST	ENDS
;	COMDAT ??_C@_02KCAKIFL@lt?$AA@
CONST	SEGMENT
??_C@_02KCAKIFL@lt?$AA@ DB 'lt', 00H			; `string'
; Function compile flags: /Odtp /RTCcsu /ZI
CONST	ENDS
;	COMDAT _soap_char
_TEXT	SEGMENT
tv79 = -252						; size = 4
_s$ = -52						; size = 4
_c$ = -40						; size = 4
_i$ = -28						; size = 4
_tmp$ = -16						; size = 8
__$ArrayPad$ = -4					; size = 4
_soap$ = 8						; size = 4
_soap_char PROC						; COMDAT

; 1435 : { char tmp[8];

	push	ebp
	mov	ebp, esp
	sub	esp, 252				; 000000fcH
	push	ebx
	push	esi
	push	edi
	lea	edi, DWORD PTR [ebp-252]
	mov	ecx, 63					; 0000003fH
	mov	eax, -858993460				; ccccccccH
	rep stosd
	mov	eax, DWORD PTR ___security_cookie
	xor	eax, ebp
	mov	DWORD PTR __$ArrayPad$[ebp], eax

; 1436 :   register int i;
; 1437 :   register soap_wchar c;
; 1438 :   register char *s = tmp;

	lea	eax, DWORD PTR _tmp$[ebp]
	mov	DWORD PTR _s$[ebp], eax

; 1439 :   for (i = 0; i < 7; i++)

	mov	DWORD PTR _i$[ebp], 0
	jmp	SHORT $LN13@soap_char
$LN12@soap_char:
	mov	eax, DWORD PTR _i$[ebp]
	add	eax, 1
	mov	DWORD PTR _i$[ebp], eax
$LN13@soap_char:
	cmp	DWORD PTR _i$[ebp], 7
	jge	$LN11@soap_char

; 1440 :   { c = soap_get1(soap);

	mov	eax, DWORD PTR _soap$[ebp]
	mov	ecx, DWORD PTR _soap$[ebp]
	mov	edx, DWORD PTR [eax+12428]
	cmp	edx, DWORD PTR [ecx+12432]
	jb	SHORT $LN16@soap_char
	mov	eax, DWORD PTR _soap$[ebp]
	push	eax
	call	_soap_recv
	add	esp, 4
	test	eax, eax
	je	SHORT $LN16@soap_char
	mov	DWORD PTR tv79[ebp], -1
	jmp	SHORT $LN17@soap_char
$LN16@soap_char:
	mov	ecx, DWORD PTR _soap$[ebp]
	mov	edx, DWORD PTR [ecx+12428]
	mov	eax, DWORD PTR _soap$[ebp]
	movzx	ecx, BYTE PTR [eax+edx+12468]
	mov	DWORD PTR tv79[ebp], ecx
	mov	edx, DWORD PTR _soap$[ebp]
	mov	eax, DWORD PTR [edx+12428]
	add	eax, 1
	mov	ecx, DWORD PTR _soap$[ebp]
	mov	DWORD PTR [ecx+12428], eax
$LN17@soap_char:
	mov	edx, DWORD PTR tv79[ebp]
	mov	DWORD PTR _c$[ebp], edx

; 1441 :     if (c == ';' || (int)c == EOF)

	cmp	DWORD PTR _c$[ebp], 59			; 0000003bH
	je	SHORT $LN9@soap_char
	cmp	DWORD PTR _c$[ebp], -1
	jne	SHORT $LN10@soap_char
$LN9@soap_char:

; 1442 :       break;

	jmp	SHORT $LN11@soap_char
$LN10@soap_char:

; 1443 :     *s++ = (char)c;

	mov	ecx, DWORD PTR _c$[ebp]
	call	@_RTC_Check_4_to_1@4
	mov	ecx, DWORD PTR _s$[ebp]
	mov	BYTE PTR [ecx], al
	mov	edx, DWORD PTR _s$[ebp]
	add	edx, 1
	mov	DWORD PTR _s$[ebp], edx

; 1444 :   }

	jmp	$LN12@soap_char
$LN11@soap_char:

; 1445 :   *s = '\0';

	mov	eax, DWORD PTR _s$[ebp]
	mov	BYTE PTR [eax], 0

; 1446 :   if (*tmp == '#')

	movsx	eax, BYTE PTR _tmp$[ebp]
	cmp	eax, 35					; 00000023H
	jne	SHORT $LN8@soap_char

; 1447 :   { if (tmp[1] == 'x' || tmp[1] == 'X')

	movsx	eax, BYTE PTR _tmp$[ebp+1]
	cmp	eax, 120				; 00000078H
	je	SHORT $LN6@soap_char
	movsx	eax, BYTE PTR _tmp$[ebp+1]
	cmp	eax, 88					; 00000058H
	jne	SHORT $LN7@soap_char
$LN6@soap_char:

; 1448 :       return soap_strtol(tmp + 2, NULL, 16);

	mov	esi, esp
	push	16					; 00000010H
	push	0
	lea	eax, DWORD PTR _tmp$[ebp+2]
	push	eax
	call	DWORD PTR __imp__strtol
	add	esp, 12					; 0000000cH
	cmp	esi, esp
	call	__RTC_CheckEsp
	jmp	$LN14@soap_char
$LN7@soap_char:

; 1449 :     return atol(tmp + 1);

	lea	eax, DWORD PTR _tmp$[ebp+1]
	mov	esi, esp
	push	eax
	call	DWORD PTR __imp__atol
	add	esp, 4
	cmp	esi, esp
	call	__RTC_CheckEsp
	jmp	$LN14@soap_char
$LN8@soap_char:

; 1450 :   }
; 1451 :   if (!strcmp(tmp, "lt"))

	push	OFFSET ??_C@_02KCAKIFL@lt?$AA@
	lea	eax, DWORD PTR _tmp$[ebp]
	push	eax
	call	_strcmp
	add	esp, 8
	test	eax, eax
	jne	SHORT $LN5@soap_char

; 1452 :     return '<';

	mov	eax, 60					; 0000003cH
	jmp	$LN14@soap_char
$LN5@soap_char:

; 1453 :   if (!strcmp(tmp, "gt"))

	push	OFFSET ??_C@_02GHFEHLK@gt?$AA@
	lea	eax, DWORD PTR _tmp$[ebp]
	push	eax
	call	_strcmp
	add	esp, 8
	test	eax, eax
	jne	SHORT $LN4@soap_char

; 1454 :     return '>';

	mov	eax, 62					; 0000003eH
	jmp	SHORT $LN14@soap_char
$LN4@soap_char:

; 1455 :   if (!strcmp(tmp, "amp"))

	push	OFFSET ??_C@_03DCBBJBAA@amp?$AA@
	lea	eax, DWORD PTR _tmp$[ebp]
	push	eax
	call	_strcmp
	add	esp, 8
	test	eax, eax
	jne	SHORT $LN3@soap_char

; 1456 :     return '&';

	mov	eax, 38					; 00000026H
	jmp	SHORT $LN14@soap_char
$LN3@soap_char:

; 1457 :   if (!strcmp(tmp, "quot"))

	push	OFFSET ??_C@_04KJFGKBNM@quot?$AA@
	lea	eax, DWORD PTR _tmp$[ebp]
	push	eax
	call	_strcmp
	add	esp, 8
	test	eax, eax
	jne	SHORT $LN2@soap_char

; 1458 :     return '"';

	mov	eax, 34					; 00000022H
	jmp	SHORT $LN14@soap_char
$LN2@soap_char:

; 1459 :   if (!strcmp(tmp, "apos"))

	push	OFFSET ??_C@_04LBCJFAKL@apos?$AA@
	lea	eax, DWORD PTR _tmp$[ebp]
	push	eax
	call	_strcmp
	add	esp, 8
	test	eax, eax
	jne	SHORT $LN1@soap_char

; 1460 :     return '\'';

	mov	eax, 39					; 00000027H
	jmp	SHORT $LN14@soap_char
$LN1@soap_char:

; 1461 : #ifndef WITH_LEAN
; 1462 :   return (soap_wchar)soap_code_int(html_entity_codes, tmp, SOAP_UNKNOWN_CHAR);

	push	127					; 0000007fH
	lea	eax, DWORD PTR _tmp$[ebp]
	push	eax
	push	OFFSET _html_entity_codes
	call	_soap_code_int
	add	esp, 12					; 0000000cH
$LN14@soap_char:

; 1463 : #else
; 1464 :   return SOAP_UNKNOWN_CHAR; /* use this to represent unknown code */
; 1465 : #endif
; 1466 : }

	push	edx
	mov	ecx, ebp
	push	eax
	lea	edx, DWORD PTR $LN20@soap_char
	call	@_RTC_CheckStackVars@8
	pop	eax
	pop	edx
	pop	edi
	pop	esi
	pop	ebx
	mov	ecx, DWORD PTR __$ArrayPad$[ebp]
	xor	ecx, ebp
	call	@__security_check_cookie@4
	add	esp, 252				; 000000fcH
	cmp	ebp, esp
	call	__RTC_CheckEsp
	mov	esp, ebp
	pop	ebp
	ret	0
	npad	1
$LN20@soap_char:
	DD	1
	DD	$LN19@soap_char
$LN19@soap_char:
	DD	-16					; fffffff0H
	DD	8
	DD	$LN18@soap_char
$LN18@soap_char:
	DB	116					; 00000074H
	DB	109					; 0000006dH
	DB	112					; 00000070H
	DB	0
_soap_char ENDP
_TEXT	ENDS
PUBLIC	??_C@_0BN@NFPKHKDB@Switching?5to?5utf?98?5encoding?6?$AA@ ; `string'
PUBLIC	??_C@_06ENEJBNNE@utf?98?$CK?$AA@		; `string'
PUBLIC	??_C@_0BO@DPPMDGG@Switching?5to?5latin1?5encoding?6?$AA@ ; `string'
PUBLIC	??_C@_07KFPCELGH@latin1?$CK?$AA@		; `string'
PUBLIC	??_C@_0M@CIPLLKIK@iso?98859?91?$CK?$AA@		; `string'
PUBLIC	?strstr@@YAPADPADPBD@Z				; strstr
PUBLIC	??_C@_0L@GJNPICMJ@?5encoding?$DN?$AA@		; `string'
PUBLIC	??_C@_04ONHKJKNE@xml?5?$AA@			; `string'
PUBLIC	??_C@_0P@CBJBIGLG@XML?5PI?5?$DM?$DP?$CFs?$DP?$DO?6?$AA@ ; `string'
PUBLIC	__$ArrayPad$
;	COMDAT ??_C@_0BN@NFPKHKDB@Switching?5to?5utf?98?5encoding?6?$AA@
CONST	SEGMENT
??_C@_0BN@NFPKHKDB@Switching?5to?5utf?98?5encoding?6?$AA@ DB 'Switching t'
	DB	'o utf-8 encoding', 0aH, 00H			; `string'
CONST	ENDS
;	COMDAT ??_C@_06ENEJBNNE@utf?98?$CK?$AA@
CONST	SEGMENT
??_C@_06ENEJBNNE@utf?98?$CK?$AA@ DB 'utf-8*', 00H	; `string'
CONST	ENDS
;	COMDAT ??_C@_0BO@DPPMDGG@Switching?5to?5latin1?5encoding?6?$AA@
CONST	SEGMENT
??_C@_0BO@DPPMDGG@Switching?5to?5latin1?5encoding?6?$AA@ DB 'Switching to'
	DB	' latin1 encoding', 0aH, 00H			; `string'
CONST	ENDS
;	COMDAT ??_C@_07KFPCELGH@latin1?$CK?$AA@
CONST	SEGMENT
??_C@_07KFPCELGH@latin1?$CK?$AA@ DB 'latin1*', 00H	; `string'
CONST	ENDS
;	COMDAT ??_C@_0M@CIPLLKIK@iso?98859?91?$CK?$AA@
CONST	SEGMENT
??_C@_0M@CIPLLKIK@iso?98859?91?$CK?$AA@ DB 'iso-8859-1*', 00H ; `string'
CONST	ENDS
;	COMDAT ??_C@_0L@GJNPICMJ@?5encoding?$DN?$AA@
CONST	SEGMENT
??_C@_0L@GJNPICMJ@?5encoding?$DN?$AA@ DB ' encoding=', 00H ; `string'
CONST	ENDS
;	COMDAT ??_C@_04ONHKJKNE@xml?5?$AA@
CONST	SEGMENT
??_C@_04ONHKJKNE@xml?5?$AA@ DB 'xml ', 00H		; `string'
CONST	ENDS
;	COMDAT ??_C@_0P@CBJBIGLG@XML?5PI?5?$DM?$DP?$CFs?$DP?$DO?6?$AA@
CONST	SEGMENT
??_C@_0P@CBJBIGLG@XML?5PI?5?$DM?$DP?$CFs?$DP?$DO?6?$AA@ DB 'XML PI <?%s?>'
	DB	0aH, 00H					; `string'
; Function compile flags: /Odtp /RTCcsu /ZI
CONST	ENDS
;	COMDAT _soap_get_pi
_TEXT	SEGMENT
_fdebug$83008 = -144					; size = 4
_fdebug$82999 = -132					; size = 4
_fdebug$82985 = -120					; size = 4
_c$ = -108						; size = 4
_i$ = -96						; size = 4
_s$ = -84						; size = 4
_buf$ = -72						; size = 64
__$ArrayPad$ = -4					; size = 4
_soap$ = 8						; size = 4
_soap_get_pi PROC					; COMDAT

; 1595 : { char buf[64];

	push	ebp
	mov	ebp, esp
	sub	esp, 340				; 00000154H
	push	ebx
	push	esi
	push	edi
	lea	edi, DWORD PTR [ebp-340]
	mov	ecx, 85					; 00000055H
	mov	eax, -858993460				; ccccccccH
	rep stosd
	mov	eax, DWORD PTR ___security_cookie
	xor	eax, ebp
	mov	DWORD PTR __$ArrayPad$[ebp], eax

; 1596 :   register char *s = buf;

	lea	eax, DWORD PTR _buf$[ebp]
	mov	DWORD PTR _s$[ebp], eax

; 1597 :   register int i = sizeof(buf);

	mov	DWORD PTR _i$[ebp], 64			; 00000040H

; 1598 :   register soap_wchar c = soap_getchar(soap);

	mov	eax, DWORD PTR _soap$[ebp]
	push	eax
	call	_soap_getchar
	add	esp, 4
	mov	DWORD PTR _c$[ebp], eax
$LN20@soap_get_p:

; 1599 :   /* This is a quick way to parse XML PI and we could use a callback instead to
; 1600 :    * enable applications to intercept processing instructions */
; 1601 :   while ((int)c != EOF && c != '?')

	cmp	DWORD PTR _c$[ebp], -1
	je	SHORT $LN19@soap_get_p
	cmp	DWORD PTR _c$[ebp], 63			; 0000003fH
	je	SHORT $LN19@soap_get_p

; 1602 :   { if (--i > 0)

	mov	eax, DWORD PTR _i$[ebp]
	sub	eax, 1
	mov	DWORD PTR _i$[ebp], eax
	cmp	DWORD PTR _i$[ebp], 0
	jle	SHORT $LN18@soap_get_p

; 1603 :     { if (soap_blank(c))

	cmp	DWORD PTR _c$[ebp], 0
	jl	SHORT $LN17@soap_get_p
	cmp	DWORD PTR _c$[ebp], 32			; 00000020H
	jg	SHORT $LN17@soap_get_p

; 1604 :         c = ' ';

	mov	DWORD PTR _c$[ebp], 32			; 00000020H
$LN17@soap_get_p:

; 1605 :       *s++ = (char)c;

	mov	ecx, DWORD PTR _c$[ebp]
	call	@_RTC_Check_4_to_1@4
	mov	ecx, DWORD PTR _s$[ebp]
	mov	BYTE PTR [ecx], al
	mov	edx, DWORD PTR _s$[ebp]
	add	edx, 1
	mov	DWORD PTR _s$[ebp], edx
$LN18@soap_get_p:

; 1606 :     }
; 1607 :     c = soap_getchar(soap);

	mov	eax, DWORD PTR _soap$[ebp]
	push	eax
	call	_soap_getchar
	add	esp, 4
	mov	DWORD PTR _c$[ebp], eax

; 1608 :   }

	jmp	SHORT $LN20@soap_get_p
$LN19@soap_get_p:

; 1609 :   *s = '\0';

	mov	eax, DWORD PTR _s$[ebp]
	mov	BYTE PTR [eax], 0

; 1610 :   DBGLOG(TEST, SOAP_MESSAGE(fdebug, "XML PI <?%s?>\n", buf));

	cmp	DWORD PTR _soap$[ebp], 0
	je	SHORT $LN16@soap_get_p
	mov	eax, DWORD PTR _soap$[ebp]
	cmp	DWORD PTR [eax+90568], 0
	jne	SHORT $LN15@soap_get_p
	push	2
	mov	eax, DWORD PTR _soap$[ebp]
	push	eax
	call	_soap_open_logfile
	add	esp, 8
$LN15@soap_get_p:
	mov	eax, DWORD PTR _soap$[ebp]
	cmp	DWORD PTR [eax+90568], 0
	je	SHORT $LN16@soap_get_p
	mov	eax, DWORD PTR _soap$[ebp]
	mov	ecx, DWORD PTR [eax+90568]
	mov	DWORD PTR _fdebug$82985[ebp], ecx
	mov	esi, esp
	lea	eax, DWORD PTR _buf$[ebp]
	push	eax
	push	OFFSET ??_C@_0P@CBJBIGLG@XML?5PI?5?$DM?$DP?$CFs?$DP?$DO?6?$AA@
	mov	ecx, DWORD PTR _fdebug$82985[ebp]
	push	ecx
	call	DWORD PTR __imp__fprintf
	add	esp, 12					; 0000000cH
	cmp	esi, esp
	call	__RTC_CheckEsp
	mov	esi, esp
	mov	eax, DWORD PTR _fdebug$82985[ebp]
	push	eax
	call	DWORD PTR __imp__fflush
	add	esp, 4
	cmp	esi, esp
	call	__RTC_CheckEsp
$LN16@soap_get_p:

; 1611 :   if (!strncmp(buf, "xml ", 4))

	mov	esi, esp
	push	4
	push	OFFSET ??_C@_04ONHKJKNE@xml?5?$AA@
	lea	eax, DWORD PTR _buf$[ebp]
	push	eax
	call	DWORD PTR __imp__strncmp
	add	esp, 12					; 0000000cH
	cmp	esi, esp
	call	__RTC_CheckEsp
	test	eax, eax
	jne	$LN13@soap_get_p

; 1612 :   { s = strstr(buf, " encoding=");

	push	OFFSET ??_C@_0L@GJNPICMJ@?5encoding?$DN?$AA@
	lea	eax, DWORD PTR _buf$[ebp]
	push	eax
	call	?strstr@@YAPADPADPBD@Z			; strstr
	add	esp, 8
	mov	DWORD PTR _s$[ebp], eax

; 1613 :     if (s && s[10])

	cmp	DWORD PTR _s$[ebp], 0
	je	$LN13@soap_get_p
	mov	eax, DWORD PTR _s$[ebp]
	movsx	ecx, BYTE PTR [eax+10]
	test	ecx, ecx
	je	$LN13@soap_get_p

; 1614 :     { if (!soap_tag_cmp(s + 11, "iso-8859-1*")
; 1615 :        || !soap_tag_cmp(s + 11, "latin1*"))

	push	OFFSET ??_C@_0M@CIPLLKIK@iso?98859?91?$CK?$AA@
	mov	eax, DWORD PTR _s$[ebp]
	add	eax, 11					; 0000000bH
	push	eax
	call	_soap_tag_cmp
	add	esp, 8
	test	eax, eax
	je	SHORT $LN10@soap_get_p
	push	OFFSET ??_C@_07KFPCELGH@latin1?$CK?$AA@
	mov	eax, DWORD PTR _s$[ebp]
	add	eax, 11					; 0000000bH
	push	eax
	call	_soap_tag_cmp
	add	esp, 8
	test	eax, eax
	jne	$LN11@soap_get_p
$LN10@soap_get_p:

; 1616 :       { DBGLOG(TEST, SOAP_MESSAGE(fdebug, "Switching to latin1 encoding\n"));

	cmp	DWORD PTR _soap$[ebp], 0
	je	SHORT $LN9@soap_get_p
	mov	eax, DWORD PTR _soap$[ebp]
	cmp	DWORD PTR [eax+90568], 0
	jne	SHORT $LN8@soap_get_p
	push	2
	mov	eax, DWORD PTR _soap$[ebp]
	push	eax
	call	_soap_open_logfile
	add	esp, 8
$LN8@soap_get_p:
	mov	eax, DWORD PTR _soap$[ebp]
	cmp	DWORD PTR [eax+90568], 0
	je	SHORT $LN9@soap_get_p
	mov	eax, DWORD PTR _soap$[ebp]
	mov	ecx, DWORD PTR [eax+90568]
	mov	DWORD PTR _fdebug$82999[ebp], ecx
	mov	esi, esp
	push	OFFSET ??_C@_0BO@DPPMDGG@Switching?5to?5latin1?5encoding?6?$AA@
	mov	eax, DWORD PTR _fdebug$82999[ebp]
	push	eax
	call	DWORD PTR __imp__fprintf
	add	esp, 8
	cmp	esi, esp
	call	__RTC_CheckEsp
	mov	esi, esp
	mov	eax, DWORD PTR _fdebug$82999[ebp]
	push	eax
	call	DWORD PTR __imp__fflush
	add	esp, 4
	cmp	esi, esp
	call	__RTC_CheckEsp
$LN9@soap_get_p:

; 1617 :         soap->mode |= SOAP_ENC_LATIN;

	mov	eax, DWORD PTR _soap$[ebp]
	mov	ecx, DWORD PTR [eax+8]
	or	ecx, 32					; 00000020H
	mov	edx, DWORD PTR _soap$[ebp]
	mov	DWORD PTR [edx+8], ecx
	jmp	$LN13@soap_get_p
$LN11@soap_get_p:

; 1618 :       }
; 1619 :       else if (!soap_tag_cmp(s + 11, "utf-8*"))

	push	OFFSET ??_C@_06ENEJBNNE@utf?98?$CK?$AA@
	mov	eax, DWORD PTR _s$[ebp]
	add	eax, 11					; 0000000bH
	push	eax
	call	_soap_tag_cmp
	add	esp, 8
	test	eax, eax
	jne	$LN13@soap_get_p

; 1620 :       { DBGLOG(TEST, SOAP_MESSAGE(fdebug, "Switching to utf-8 encoding\n"));

	cmp	DWORD PTR _soap$[ebp], 0
	je	SHORT $LN4@soap_get_p
	mov	eax, DWORD PTR _soap$[ebp]
	cmp	DWORD PTR [eax+90568], 0
	jne	SHORT $LN3@soap_get_p
	push	2
	mov	eax, DWORD PTR _soap$[ebp]
	push	eax
	call	_soap_open_logfile
	add	esp, 8
$LN3@soap_get_p:
	mov	eax, DWORD PTR _soap$[ebp]
	cmp	DWORD PTR [eax+90568], 0
	je	SHORT $LN4@soap_get_p
	mov	eax, DWORD PTR _soap$[ebp]
	mov	ecx, DWORD PTR [eax+90568]
	mov	DWORD PTR _fdebug$83008[ebp], ecx
	mov	esi, esp
	push	OFFSET ??_C@_0BN@NFPKHKDB@Switching?5to?5utf?98?5encoding?6?$AA@
	mov	eax, DWORD PTR _fdebug$83008[ebp]
	push	eax
	call	DWORD PTR __imp__fprintf
	add	esp, 8
	cmp	esi, esp
	call	__RTC_CheckEsp
	mov	esi, esp
	mov	eax, DWORD PTR _fdebug$83008[ebp]
	push	eax
	call	DWORD PTR __imp__fflush
	add	esp, 4
	cmp	esi, esp
	call	__RTC_CheckEsp
$LN4@soap_get_p:

; 1621 :         soap->mode &= ~SOAP_ENC_LATIN;

	mov	eax, DWORD PTR _soap$[ebp]
	mov	ecx, DWORD PTR [eax+8]
	and	ecx, -33				; ffffffdfH
	mov	edx, DWORD PTR _soap$[ebp]
	mov	DWORD PTR [edx+8], ecx
$LN13@soap_get_p:

; 1622 :       }
; 1623 :     }
; 1624 :   }
; 1625 :   if ((int)c != EOF)

	cmp	DWORD PTR _c$[ebp], -1
	je	SHORT $LN1@soap_get_p

; 1626 :     c = soap_getchar(soap);

	mov	eax, DWORD PTR _soap$[ebp]
	push	eax
	call	_soap_getchar
	add	esp, 4
	mov	DWORD PTR _c$[ebp], eax
$LN1@soap_get_p:

; 1627 :   return c;

	mov	eax, DWORD PTR _c$[ebp]

; 1628 : }

	push	edx
	mov	ecx, ebp
	push	eax
	lea	edx, DWORD PTR $LN25@soap_get_p
	call	@_RTC_CheckStackVars@8
	pop	eax
	pop	edx
	pop	edi
	pop	esi
	pop	ebx
	mov	ecx, DWORD PTR __$ArrayPad$[ebp]
	xor	ecx, ebp
	call	@__security_check_cookie@4
	add	esp, 340				; 00000154H
	cmp	ebp, esp
	call	__RTC_CheckEsp
	mov	esp, ebp
	pop	ebp
	ret	0
$LN25@soap_get_p:
	DD	1
	DD	$LN24@soap_get_p
$LN24@soap_get_p:
	DD	-72					; ffffffb8H
	DD	64					; 00000040H
	DD	$LN23@soap_get_p
$LN23@soap_get_p:
	DB	98					; 00000062H
	DB	117					; 00000075H
	DB	102					; 00000066H
	DB	0
_soap_get_pi ENDP
_TEXT	ENDS
EXTRN	__imp__strstr:PROC
; Function compile flags: /Odtp /RTCcsu /ZI
; File c:\program files\microsoft visual studio 9.0\vc\include\string.h
;	COMDAT ?strstr@@YAPADPADPBD@Z
_TEXT	SEGMENT
__Str$ = 8						; size = 4
__SubStr$ = 12						; size = 4
?strstr@@YAPADPADPBD@Z PROC				; strstr, COMDAT

; 190  : 	{ return (char*)strstr((const char*)_Str, _SubStr); }

	push	ebp
	mov	ebp, esp
	sub	esp, 192				; 000000c0H
	push	ebx
	push	esi
	push	edi
	lea	edi, DWORD PTR [ebp-192]
	mov	ecx, 48					; 00000030H
	mov	eax, -858993460				; ccccccccH
	rep stosd
	mov	esi, esp
	mov	eax, DWORD PTR __SubStr$[ebp]
	push	eax
	mov	ecx, DWORD PTR __Str$[ebp]
	push	ecx
	call	DWORD PTR __imp__strstr
	add	esp, 8
	cmp	esi, esp
	call	__RTC_CheckEsp
	pop	edi
	pop	esi
	pop	ebx
	add	esp, 192				; 000000c0H
	cmp	ebp, esp
	call	__RTC_CheckEsp
	mov	esp, ebp
	pop	ebp
	ret	0
?strstr@@YAPADPADPBD@Z ENDP				; strstr
_TEXT	ENDS
PUBLIC	??_C@_0BK@NEKAKPOO@Moving?5?$CFld?5bytes?5forward?6?$AA@ ; `string'
PUBLIC	_soap_move
;	COMDAT ??_C@_0BK@NEKAKPOO@Moving?5?$CFld?5bytes?5forward?6?$AA@
; File c:\users\crius\documents\visual studio 2008\projects\dramsimiihg\src\reporting\stdsoap2.cpp
CONST	SEGMENT
??_C@_0BK@NEKAKPOO@Moving?5?$CFld?5bytes?5forward?6?$AA@ DB 'Moving %ld b'
	DB	'ytes forward', 0aH, 00H			; `string'
; Function compile flags: /Odtp /RTCcsu /ZI
CONST	ENDS
;	COMDAT _soap_move
_TEXT	SEGMENT
_fdebug$83020 = -8					; size = 4
_soap$ = 8						; size = 4
_n$ = 12						; size = 4
_soap_move PROC						; COMDAT

; 1638 : { DBGLOG(TEST, SOAP_MESSAGE(fdebug, "Moving %ld bytes forward\n", (long)n));

	push	ebp
	mov	ebp, esp
	sub	esp, 204				; 000000ccH
	push	ebx
	push	esi
	push	edi
	lea	edi, DWORD PTR [ebp-204]
	mov	ecx, 51					; 00000033H
	mov	eax, -858993460				; ccccccccH
	rep stosd
	cmp	DWORD PTR _soap$[ebp], 0
	je	SHORT $LN7@soap_move
	mov	eax, DWORD PTR _soap$[ebp]
	cmp	DWORD PTR [eax+90568], 0
	jne	SHORT $LN6@soap_move
	push	2
	mov	eax, DWORD PTR _soap$[ebp]
	push	eax
	call	_soap_open_logfile
	add	esp, 8
$LN6@soap_move:
	mov	eax, DWORD PTR _soap$[ebp]
	cmp	DWORD PTR [eax+90568], 0
	je	SHORT $LN7@soap_move
	mov	eax, DWORD PTR _soap$[ebp]
	mov	ecx, DWORD PTR [eax+90568]
	mov	DWORD PTR _fdebug$83020[ebp], ecx
	mov	esi, esp
	mov	eax, DWORD PTR _n$[ebp]
	push	eax
	push	OFFSET ??_C@_0BK@NEKAKPOO@Moving?5?$CFld?5bytes?5forward?6?$AA@
	mov	ecx, DWORD PTR _fdebug$83020[ebp]
	push	ecx
	call	DWORD PTR __imp__fprintf
	add	esp, 12					; 0000000cH
	cmp	esi, esp
	call	__RTC_CheckEsp
	mov	esi, esp
	mov	eax, DWORD PTR _fdebug$83020[ebp]
	push	eax
	call	DWORD PTR __imp__fflush
	add	esp, 4
	cmp	esi, esp
	call	__RTC_CheckEsp
$LN7@soap_move:
	jmp	SHORT $LN4@soap_move
$LN3@soap_move:

; 1639 :   for (; n > 0; n--)

	mov	eax, DWORD PTR _n$[ebp]
	sub	eax, 1
	mov	DWORD PTR _n$[ebp], eax
$LN4@soap_move:
	cmp	DWORD PTR _n$[ebp], 0
	jle	SHORT $LN2@soap_move

; 1640 :     if ((int)soap_getchar(soap) == EOF)

	mov	eax, DWORD PTR _soap$[ebp]
	push	eax
	call	_soap_getchar
	add	esp, 4
	cmp	eax, -1
	jne	SHORT $LN1@soap_move

; 1641 :       return SOAP_EOF;

	or	eax, -1
	jmp	SHORT $LN8@soap_move
$LN1@soap_move:

; 1642 :   return SOAP_OK;

	jmp	SHORT $LN3@soap_move
$LN2@soap_move:
	xor	eax, eax
$LN8@soap_move:

; 1643 : }

	pop	edi
	pop	esi
	pop	ebx
	add	esp, 204				; 000000ccH
	cmp	ebp, esp
	call	__RTC_CheckEsp
	mov	esp, ebp
	pop	ebp
	ret	0
_soap_move ENDP
_TEXT	ENDS
PUBLIC	_soap_tell
; Function compile flags: /Odtp /RTCcsu /ZI
;	COMDAT _soap_tell
_TEXT	SEGMENT
_soap$ = 8						; size = 4
_soap_tell PROC						; COMDAT

; 1654 : { return soap->count - soap->buflen + soap->bufidx - (soap->ahead != 0);

	push	ebp
	mov	ebp, esp
	sub	esp, 192				; 000000c0H
	push	ebx
	push	esi
	push	edi
	lea	edi, DWORD PTR [ebp-192]
	mov	ecx, 48					; 00000030H
	mov	eax, -858993460				; ccccccccH
	rep stosd
	mov	eax, DWORD PTR _soap$[ebp]
	mov	ecx, DWORD PTR _soap$[ebp]
	mov	eax, DWORD PTR [eax+12448]
	sub	eax, DWORD PTR [ecx+12432]
	mov	edx, DWORD PTR _soap$[ebp]
	add	eax, DWORD PTR [edx+12428]
	mov	ecx, DWORD PTR _soap$[ebp]
	xor	edx, edx
	cmp	DWORD PTR [ecx+12436], 0
	setne	dl
	sub	eax, edx

; 1655 : }

	pop	edi
	pop	esi
	pop	ebx
	mov	esp, ebp
	pop	ebp
	ret	0
_soap_tell ENDP
_TEXT	ENDS
PUBLIC	__$ArrayPad$
PUBLIC	_soap_pututf8
; Function compile flags: /Odtp /RTCcsu /ZI
;	COMDAT _soap_pututf8
_TEXT	SEGMENT
_t$83039 = -36						; size = 4
_tmp$ = -24						; size = 16
__$ArrayPad$ = -4					; size = 4
_soap$ = 8						; size = 4
_c$ = 12						; size = 4
_soap_pututf8 PROC					; COMDAT

; 1665 : { char tmp[16];

	push	ebp
	mov	ebp, esp
	sub	esp, 232				; 000000e8H
	push	ebx
	push	esi
	push	edi
	lea	edi, DWORD PTR [ebp-232]
	mov	ecx, 58					; 0000003aH
	mov	eax, -858993460				; ccccccccH
	rep stosd
	mov	eax, DWORD PTR ___security_cookie
	xor	eax, ebp
	mov	DWORD PTR __$ArrayPad$[ebp], eax

; 1666 :   if (c < 0x80 && c > 0)

	cmp	DWORD PTR _c$[ebp], 128			; 00000080H
	jae	SHORT $LN10@soap_putut
	cmp	DWORD PTR _c$[ebp], 0
	jbe	SHORT $LN10@soap_putut

; 1667 :   { *tmp = (char)c;

	mov	ecx, DWORD PTR _c$[ebp]
	call	@_RTC_Check_4_to_1@4
	mov	BYTE PTR _tmp$[ebp], al

; 1668 :     return soap_send_raw(soap, tmp, 1);

	push	1
	lea	eax, DWORD PTR _tmp$[ebp]
	push	eax
	mov	ecx, DWORD PTR _soap$[ebp]
	push	ecx
	call	_soap_send_raw
	add	esp, 12					; 0000000cH
	jmp	$LN11@soap_putut
$LN10@soap_putut:

; 1669 :   }
; 1670 : #ifndef WITH_LEAN
; 1671 :   if (c >= 0x80)

	cmp	DWORD PTR _c$[ebp], 128			; 00000080H
	jb	$LN9@soap_putut

; 1672 :   { register char *t = tmp;

	lea	eax, DWORD PTR _tmp$[ebp]
	mov	DWORD PTR _t$83039[ebp], eax

; 1673 :     if (c < 0x0800)

	cmp	DWORD PTR _c$[ebp], 2048		; 00000800H
	jae	SHORT $LN8@soap_putut

; 1674 :       *t++ = (char)(0xC0 | ((c >> 6) & 0x1F));

	mov	ecx, DWORD PTR _c$[ebp]
	shr	ecx, 6
	and	ecx, 31					; 0000001fH
	or	ecx, 192				; 000000c0H
	call	@_RTC_Check_4_to_1@4
	mov	ecx, DWORD PTR _t$83039[ebp]
	mov	BYTE PTR [ecx], al
	mov	edx, DWORD PTR _t$83039[ebp]
	add	edx, 1
	mov	DWORD PTR _t$83039[ebp], edx

; 1675 :     else

	jmp	$LN7@soap_putut
$LN8@soap_putut:

; 1676 :     { if (c < 0x010000)

	cmp	DWORD PTR _c$[ebp], 65536		; 00010000H
	jae	SHORT $LN6@soap_putut

; 1677 :         *t++ = (char)(0xE0 | ((c >> 12) & 0x0F));

	mov	ecx, DWORD PTR _c$[ebp]
	shr	ecx, 12					; 0000000cH
	and	ecx, 15					; 0000000fH
	or	ecx, 224				; 000000e0H
	call	@_RTC_Check_4_to_1@4
	mov	ecx, DWORD PTR _t$83039[ebp]
	mov	BYTE PTR [ecx], al
	mov	edx, DWORD PTR _t$83039[ebp]
	add	edx, 1
	mov	DWORD PTR _t$83039[ebp], edx

; 1678 :       else

	jmp	$LN5@soap_putut
$LN6@soap_putut:

; 1679 :       { if (c < 0x200000)

	cmp	DWORD PTR _c$[ebp], 2097152		; 00200000H
	jae	SHORT $LN4@soap_putut

; 1680 :           *t++ = (char)(0xF0 | ((c >> 18) & 0x07));

	mov	ecx, DWORD PTR _c$[ebp]
	shr	ecx, 18					; 00000012H
	and	ecx, 7
	or	ecx, 240				; 000000f0H
	call	@_RTC_Check_4_to_1@4
	mov	ecx, DWORD PTR _t$83039[ebp]
	mov	BYTE PTR [ecx], al
	mov	edx, DWORD PTR _t$83039[ebp]
	add	edx, 1
	mov	DWORD PTR _t$83039[ebp], edx

; 1681 :         else

	jmp	$LN3@soap_putut
$LN4@soap_putut:

; 1682 :         { if (c < 0x04000000)

	cmp	DWORD PTR _c$[ebp], 67108864		; 04000000H
	jae	SHORT $LN2@soap_putut

; 1683 :             *t++ = (char)(0xF8 | ((c >> 24) & 0x03));

	mov	ecx, DWORD PTR _c$[ebp]
	shr	ecx, 24					; 00000018H
	and	ecx, 3
	or	ecx, 248				; 000000f8H
	call	@_RTC_Check_4_to_1@4
	mov	ecx, DWORD PTR _t$83039[ebp]
	mov	BYTE PTR [ecx], al
	mov	edx, DWORD PTR _t$83039[ebp]
	add	edx, 1
	mov	DWORD PTR _t$83039[ebp], edx

; 1684 :           else

	jmp	SHORT $LN1@soap_putut
$LN2@soap_putut:

; 1685 :           { *t++ = (char)(0xFC | ((c >> 30) & 0x01));

	mov	ecx, DWORD PTR _c$[ebp]
	shr	ecx, 30					; 0000001eH
	and	ecx, 1
	or	ecx, 252				; 000000fcH
	call	@_RTC_Check_4_to_1@4
	mov	ecx, DWORD PTR _t$83039[ebp]
	mov	BYTE PTR [ecx], al
	mov	edx, DWORD PTR _t$83039[ebp]
	add	edx, 1
	mov	DWORD PTR _t$83039[ebp], edx

; 1686 :             *t++ = (char)(0x80 | ((c >> 24) & 0x3F));

	mov	ecx, DWORD PTR _c$[ebp]
	shr	ecx, 24					; 00000018H
	and	ecx, 63					; 0000003fH
	or	ecx, 128				; 00000080H
	call	@_RTC_Check_4_to_1@4
	mov	ecx, DWORD PTR _t$83039[ebp]
	mov	BYTE PTR [ecx], al
	mov	edx, DWORD PTR _t$83039[ebp]
	add	edx, 1
	mov	DWORD PTR _t$83039[ebp], edx
$LN1@soap_putut:

; 1687 :           }
; 1688 :           *t++ = (char)(0x80 | ((c >> 18) & 0x3F));

	mov	ecx, DWORD PTR _c$[ebp]
	shr	ecx, 18					; 00000012H
	and	ecx, 63					; 0000003fH
	or	ecx, 128				; 00000080H
	call	@_RTC_Check_4_to_1@4
	mov	ecx, DWORD PTR _t$83039[ebp]
	mov	BYTE PTR [ecx], al
	mov	edx, DWORD PTR _t$83039[ebp]
	add	edx, 1
	mov	DWORD PTR _t$83039[ebp], edx
$LN3@soap_putut:

; 1689 :         }
; 1690 :         *t++ = (char)(0x80 | ((c >> 12) & 0x3F));

	mov	ecx, DWORD PTR _c$[ebp]
	shr	ecx, 12					; 0000000cH
	and	ecx, 63					; 0000003fH
	or	ecx, 128				; 00000080H
	call	@_RTC_Check_4_to_1@4
	mov	ecx, DWORD PTR _t$83039[ebp]
	mov	BYTE PTR [ecx], al
	mov	edx, DWORD PTR _t$83039[ebp]
	add	edx, 1
	mov	DWORD PTR _t$83039[ebp], edx
$LN5@soap_putut:

; 1691 :       }
; 1692 :       *t++ = (char)(0x80 | ((c >> 6) & 0x3F));

	mov	ecx, DWORD PTR _c$[ebp]
	shr	ecx, 6
	and	ecx, 63					; 0000003fH
	or	ecx, 128				; 00000080H
	call	@_RTC_Check_4_to_1@4
	mov	ecx, DWORD PTR _t$83039[ebp]
	mov	BYTE PTR [ecx], al
	mov	edx, DWORD PTR _t$83039[ebp]
	add	edx, 1
	mov	DWORD PTR _t$83039[ebp], edx
$LN7@soap_putut:

; 1693 :     }
; 1694 :     *t++ = (char)(0x80 | (c & 0x3F));

	mov	ecx, DWORD PTR _c$[ebp]
	and	ecx, 63					; 0000003fH
	or	ecx, 128				; 00000080H
	call	@_RTC_Check_4_to_1@4
	mov	ecx, DWORD PTR _t$83039[ebp]
	mov	BYTE PTR [ecx], al
	mov	edx, DWORD PTR _t$83039[ebp]
	add	edx, 1
	mov	DWORD PTR _t$83039[ebp], edx

; 1695 :     *t = '\0';

	mov	eax, DWORD PTR _t$83039[ebp]
	mov	BYTE PTR [eax], 0
$LN9@soap_putut:

; 1696 :   }
; 1697 : #else
; 1698 :   sprintf(tmp, "&#%lu;", c);
; 1699 : #endif
; 1700 :   return soap_send(soap, tmp);

	lea	eax, DWORD PTR _tmp$[ebp]
	push	eax
	mov	ecx, DWORD PTR _soap$[ebp]
	push	ecx
	call	_soap_send
	add	esp, 8
$LN11@soap_putut:

; 1701 : }

	push	edx
	mov	ecx, ebp
	push	eax
	lea	edx, DWORD PTR $LN15@soap_putut
	call	@_RTC_CheckStackVars@8
	pop	eax
	pop	edx
	pop	edi
	pop	esi
	pop	ebx
	mov	ecx, DWORD PTR __$ArrayPad$[ebp]
	xor	ecx, ebp
	call	@__security_check_cookie@4
	add	esp, 232				; 000000e8H
	cmp	ebp, esp
	call	__RTC_CheckEsp
	mov	esp, ebp
	pop	ebp
	ret	0
	npad	1
$LN15@soap_putut:
	DD	1
	DD	$LN14@soap_putut
$LN14@soap_putut:
	DD	-24					; ffffffe8H
	DD	16					; 00000010H
	DD	$LN13@soap_putut
$LN13@soap_putut:
	DB	116					; 00000074H
	DB	109					; 0000006dH
	DB	112					; 00000070H
	DB	0
_soap_pututf8 ENDP
_TEXT	ENDS
PUBLIC	_soap_getutf8
; Function compile flags: /Odtp /RTCcsu /ZI
;	COMDAT _soap_getutf8
_TEXT	SEGMENT
tv224 = -256						; size = 4
tv189 = -256						; size = 4
tv166 = -256						; size = 4
tv142 = -256						; size = 4
tv86 = -256						; size = 4
_c4$ = -56						; size = 4
_c3$ = -44						; size = 4
_c2$ = -32						; size = 4
_c1$ = -20						; size = 4
_c$ = -8						; size = 4
_soap$ = 8						; size = 4
_soap_getutf8 PROC					; COMDAT

; 1710 : { register soap_wchar c, c1, c2, c3, c4;

	push	ebp
	mov	ebp, esp
	sub	esp, 256				; 00000100H
	push	ebx
	push	esi
	push	edi
	lea	edi, DWORD PTR [ebp-256]
	mov	ecx, 64					; 00000040H
	mov	eax, -858993460				; ccccccccH
	rep stosd

; 1711 :   c = soap->ahead;

	mov	eax, DWORD PTR _soap$[ebp]
	mov	ecx, DWORD PTR [eax+12436]
	mov	DWORD PTR _c$[ebp], ecx

; 1712 :   if (c > 0xFF)

	cmp	DWORD PTR _c$[ebp], 255			; 000000ffH
	jle	SHORT $again$83067

; 1713 :   { soap->ahead = 0;

	mov	eax, DWORD PTR _soap$[ebp]
	mov	DWORD PTR [eax+12436], 0

; 1714 :     return c;

	mov	eax, DWORD PTR _c$[ebp]
	jmp	$LN10@soap_getut
$again$83067:

; 1715 :   }
; 1716 : again:
; 1717 :   c = soap_get(soap);

	mov	eax, DWORD PTR _soap$[ebp]
	push	eax
	call	_soap_get
	add	esp, 4
	mov	DWORD PTR _c$[ebp], eax

; 1718 :   if (c < 0x80 || (soap->mode & SOAP_ENC_LATIN))

	cmp	DWORD PTR _c$[ebp], 128			; 00000080H
	jl	SHORT $LN7@soap_getut
	mov	eax, DWORD PTR _soap$[ebp]
	mov	ecx, DWORD PTR [eax+8]
	and	ecx, 32					; 00000020H
	je	SHORT $LN8@soap_getut
$LN7@soap_getut:

; 1719 :     return c;

	mov	eax, DWORD PTR _c$[ebp]
	jmp	$LN10@soap_getut
$LN8@soap_getut:

; 1720 :   c1 = soap_get1(soap);

	mov	eax, DWORD PTR _soap$[ebp]
	mov	ecx, DWORD PTR _soap$[ebp]
	mov	edx, DWORD PTR [eax+12428]
	cmp	edx, DWORD PTR [ecx+12432]
	jb	SHORT $LN12@soap_getut
	mov	eax, DWORD PTR _soap$[ebp]
	push	eax
	call	_soap_recv
	add	esp, 4
	test	eax, eax
	je	SHORT $LN12@soap_getut
	mov	DWORD PTR tv86[ebp], -1
	jmp	SHORT $LN13@soap_getut
$LN12@soap_getut:
	mov	ecx, DWORD PTR _soap$[ebp]
	mov	edx, DWORD PTR [ecx+12428]
	mov	eax, DWORD PTR _soap$[ebp]
	movzx	ecx, BYTE PTR [eax+edx+12468]
	mov	DWORD PTR tv86[ebp], ecx
	mov	edx, DWORD PTR _soap$[ebp]
	mov	eax, DWORD PTR [edx+12428]
	add	eax, 1
	mov	ecx, DWORD PTR _soap$[ebp]
	mov	DWORD PTR [ecx+12428], eax
$LN13@soap_getut:
	mov	edx, DWORD PTR tv86[ebp]
	mov	DWORD PTR _c1$[ebp], edx

; 1721 :   if (c1 < 0x80)

	cmp	DWORD PTR _c1$[ebp], 128		; 00000080H
	jge	SHORT $LN6@soap_getut

; 1722 :   { soap_revget1(soap); /* doesn't look like this is UTF8 */

	mov	eax, DWORD PTR _soap$[ebp]
	mov	ecx, DWORD PTR [eax+12428]
	sub	ecx, 1
	mov	edx, DWORD PTR _soap$[ebp]
	mov	DWORD PTR [edx+12428], ecx

; 1723 :     return c;

	mov	eax, DWORD PTR _c$[ebp]
	jmp	$LN10@soap_getut
$LN6@soap_getut:

; 1724 :   }
; 1725 :   c1 &= 0x3F;

	mov	eax, DWORD PTR _c1$[ebp]
	and	eax, 63					; 0000003fH
	mov	DWORD PTR _c1$[ebp], eax

; 1726 :   if (c < 0xE0)

	cmp	DWORD PTR _c$[ebp], 224			; 000000e0H
	jge	SHORT $LN5@soap_getut

; 1727 :     return ((soap_wchar)(c & 0x1F) << 6) | c1;

	mov	eax, DWORD PTR _c$[ebp]
	and	eax, 31					; 0000001fH
	shl	eax, 6
	or	eax, DWORD PTR _c1$[ebp]
	jmp	$LN10@soap_getut
$LN5@soap_getut:

; 1728 :   c2 = (soap_wchar)soap_get1(soap) & 0x3F;

	mov	eax, DWORD PTR _soap$[ebp]
	mov	ecx, DWORD PTR _soap$[ebp]
	mov	edx, DWORD PTR [eax+12428]
	cmp	edx, DWORD PTR [ecx+12432]
	jb	SHORT $LN14@soap_getut
	mov	eax, DWORD PTR _soap$[ebp]
	push	eax
	call	_soap_recv
	add	esp, 4
	test	eax, eax
	je	SHORT $LN14@soap_getut
	mov	DWORD PTR tv142[ebp], -1
	jmp	SHORT $LN15@soap_getut
$LN14@soap_getut:
	mov	ecx, DWORD PTR _soap$[ebp]
	mov	edx, DWORD PTR [ecx+12428]
	mov	eax, DWORD PTR _soap$[ebp]
	movzx	ecx, BYTE PTR [eax+edx+12468]
	mov	DWORD PTR tv142[ebp], ecx
	mov	edx, DWORD PTR _soap$[ebp]
	mov	eax, DWORD PTR [edx+12428]
	add	eax, 1
	mov	ecx, DWORD PTR _soap$[ebp]
	mov	DWORD PTR [ecx+12428], eax
$LN15@soap_getut:
	mov	edx, DWORD PTR tv142[ebp]
	and	edx, 63					; 0000003fH
	mov	DWORD PTR _c2$[ebp], edx

; 1729 :   if (c == 0xEF && c1 == 0x3B && c2 == 0x3F)	/* ignore UTF-8 BOM */

	cmp	DWORD PTR _c$[ebp], 239			; 000000efH
	jne	SHORT $LN4@soap_getut
	cmp	DWORD PTR _c1$[ebp], 59			; 0000003bH
	jne	SHORT $LN4@soap_getut
	cmp	DWORD PTR _c2$[ebp], 63			; 0000003fH
	jne	SHORT $LN4@soap_getut

; 1730 :     goto again;

	jmp	$again$83067
$LN4@soap_getut:

; 1731 :   if (c < 0xF0)

	cmp	DWORD PTR _c$[ebp], 240			; 000000f0H
	jge	SHORT $LN3@soap_getut

; 1732 :     return ((soap_wchar)(c & 0x0F) << 12) | (c1 << 6) | c2;

	mov	eax, DWORD PTR _c$[ebp]
	and	eax, 15					; 0000000fH
	shl	eax, 12					; 0000000cH
	mov	ecx, DWORD PTR _c1$[ebp]
	shl	ecx, 6
	or	eax, ecx
	or	eax, DWORD PTR _c2$[ebp]
	jmp	$LN10@soap_getut
$LN3@soap_getut:

; 1733 :   c3 = (soap_wchar)soap_get1(soap) & 0x3F;

	mov	eax, DWORD PTR _soap$[ebp]
	mov	ecx, DWORD PTR _soap$[ebp]
	mov	edx, DWORD PTR [eax+12428]
	cmp	edx, DWORD PTR [ecx+12432]
	jb	SHORT $LN16@soap_getut
	mov	eax, DWORD PTR _soap$[ebp]
	push	eax
	call	_soap_recv
	add	esp, 4
	test	eax, eax
	je	SHORT $LN16@soap_getut
	mov	DWORD PTR tv166[ebp], -1
	jmp	SHORT $LN17@soap_getut
$LN16@soap_getut:
	mov	ecx, DWORD PTR _soap$[ebp]
	mov	edx, DWORD PTR [ecx+12428]
	mov	eax, DWORD PTR _soap$[ebp]
	movzx	ecx, BYTE PTR [eax+edx+12468]
	mov	DWORD PTR tv166[ebp], ecx
	mov	edx, DWORD PTR _soap$[ebp]
	mov	eax, DWORD PTR [edx+12428]
	add	eax, 1
	mov	ecx, DWORD PTR _soap$[ebp]
	mov	DWORD PTR [ecx+12428], eax
$LN17@soap_getut:
	mov	edx, DWORD PTR tv166[ebp]
	and	edx, 63					; 0000003fH
	mov	DWORD PTR _c3$[ebp], edx

; 1734 :   if (c < 0xF8)

	cmp	DWORD PTR _c$[ebp], 248			; 000000f8H
	jge	SHORT $LN2@soap_getut

; 1735 :     return ((soap_wchar)(c & 0x07) << 18) | (c1 << 12) | (c2 << 6) | c3;

	mov	eax, DWORD PTR _c$[ebp]
	and	eax, 7
	shl	eax, 18					; 00000012H
	mov	ecx, DWORD PTR _c1$[ebp]
	shl	ecx, 12					; 0000000cH
	or	eax, ecx
	mov	edx, DWORD PTR _c2$[ebp]
	shl	edx, 6
	or	eax, edx
	or	eax, DWORD PTR _c3$[ebp]
	jmp	$LN10@soap_getut
$LN2@soap_getut:

; 1736 :   c4 = (soap_wchar)soap_get1(soap) & 0x3F;

	mov	eax, DWORD PTR _soap$[ebp]
	mov	ecx, DWORD PTR _soap$[ebp]
	mov	edx, DWORD PTR [eax+12428]
	cmp	edx, DWORD PTR [ecx+12432]
	jb	SHORT $LN18@soap_getut
	mov	eax, DWORD PTR _soap$[ebp]
	push	eax
	call	_soap_recv
	add	esp, 4
	test	eax, eax
	je	SHORT $LN18@soap_getut
	mov	DWORD PTR tv189[ebp], -1
	jmp	SHORT $LN19@soap_getut
$LN18@soap_getut:
	mov	ecx, DWORD PTR _soap$[ebp]
	mov	edx, DWORD PTR [ecx+12428]
	mov	eax, DWORD PTR _soap$[ebp]
	movzx	ecx, BYTE PTR [eax+edx+12468]
	mov	DWORD PTR tv189[ebp], ecx
	mov	edx, DWORD PTR _soap$[ebp]
	mov	eax, DWORD PTR [edx+12428]
	add	eax, 1
	mov	ecx, DWORD PTR _soap$[ebp]
	mov	DWORD PTR [ecx+12428], eax
$LN19@soap_getut:
	mov	edx, DWORD PTR tv189[ebp]
	and	edx, 63					; 0000003fH
	mov	DWORD PTR _c4$[ebp], edx

; 1737 :   if (c < 0xFC)

	cmp	DWORD PTR _c$[ebp], 252			; 000000fcH
	jge	SHORT $LN1@soap_getut

; 1738 :     return ((soap_wchar)(c & 0x03) << 24) | (c1 << 18) | (c2 << 12) | (c3 << 6) | c4;

	mov	eax, DWORD PTR _c$[ebp]
	and	eax, 3
	shl	eax, 24					; 00000018H
	mov	ecx, DWORD PTR _c1$[ebp]
	shl	ecx, 18					; 00000012H
	or	eax, ecx
	mov	edx, DWORD PTR _c2$[ebp]
	shl	edx, 12					; 0000000cH
	or	eax, edx
	mov	ecx, DWORD PTR _c3$[ebp]
	shl	ecx, 6
	or	eax, ecx
	or	eax, DWORD PTR _c4$[ebp]
	jmp	$LN10@soap_getut
$LN1@soap_getut:

; 1739 :   return ((soap_wchar)(c & 0x01) << 30) | (c1 << 24) | (c2 << 18) | (c3 << 12) | (c4 << 6) | (soap_wchar)(soap_get1(soap) & 0x3F);

	mov	eax, DWORD PTR _soap$[ebp]
	mov	ecx, DWORD PTR _soap$[ebp]
	mov	edx, DWORD PTR [eax+12428]
	cmp	edx, DWORD PTR [ecx+12432]
	jb	SHORT $LN20@soap_getut
	mov	eax, DWORD PTR _soap$[ebp]
	push	eax
	call	_soap_recv
	add	esp, 4
	test	eax, eax
	je	SHORT $LN20@soap_getut
	mov	DWORD PTR tv224[ebp], -1
	jmp	SHORT $LN21@soap_getut
$LN20@soap_getut:
	mov	ecx, DWORD PTR _soap$[ebp]
	mov	edx, DWORD PTR [ecx+12428]
	mov	eax, DWORD PTR _soap$[ebp]
	movzx	ecx, BYTE PTR [eax+edx+12468]
	mov	DWORD PTR tv224[ebp], ecx
	mov	edx, DWORD PTR _soap$[ebp]
	mov	eax, DWORD PTR [edx+12428]
	add	eax, 1
	mov	ecx, DWORD PTR _soap$[ebp]
	mov	DWORD PTR [ecx+12428], eax
$LN21@soap_getut:
	mov	eax, DWORD PTR _c$[ebp]
	and	eax, 1
	shl	eax, 30					; 0000001eH
	mov	edx, DWORD PTR _c1$[ebp]
	shl	edx, 24					; 00000018H
	or	eax, edx
	mov	ecx, DWORD PTR _c2$[ebp]
	shl	ecx, 18					; 00000012H
	or	eax, ecx
	mov	edx, DWORD PTR _c3$[ebp]
	shl	edx, 12					; 0000000cH
	or	eax, edx
	mov	ecx, DWORD PTR _c4$[ebp]
	shl	ecx, 6
	or	eax, ecx
	mov	edx, DWORD PTR tv224[ebp]
	and	edx, 63					; 0000003fH
	or	eax, edx
$LN10@soap_getut:

; 1740 : }

	pop	edi
	pop	esi
	pop	ebx
	add	esp, 256				; 00000100H
	cmp	ebp, esp
	call	__RTC_CheckEsp
	mov	esp, ebp
	pop	ebp
	ret	0
_soap_getutf8 ENDP
_TEXT	ENDS
PUBLIC	_soap_puthex
; Function compile flags: /Odtp /RTCcsu /ZI
;	COMDAT _soap_puthex
_TEXT	SEGMENT
_m$83100 = -32						; size = 4
_i$ = -20						; size = 4
_d$ = -8						; size = 2
_soap$ = 8						; size = 4
_s$ = 12						; size = 4
_n$ = 16						; size = 4
_soap_puthex PROC					; COMDAT

; 1749 : { char d[2];

	push	ebp
	mov	ebp, esp
	sub	esp, 228				; 000000e4H
	push	ebx
	push	esi
	push	edi
	lea	edi, DWORD PTR [ebp-228]
	mov	ecx, 57					; 00000039H
	mov	eax, -858993460				; ccccccccH
	rep stosd

; 1750 :   register int i;
; 1751 : #ifdef WITH_DOM
; 1752 :   if ((soap->mode & SOAP_XML_DOM) && soap->dom)
; 1753 :   { if (!(soap->dom->data = soap_s2hex(soap, s, NULL, n)))
; 1754 :       return soap->error;
; 1755 :     return SOAP_OK;
; 1756 :   }
; 1757 : #endif
; 1758 :   for (i = 0; i < n; i++)

	mov	DWORD PTR _i$[ebp], 0
	jmp	SHORT $LN4@soap_puthe
$LN3@soap_puthe:
	mov	eax, DWORD PTR _i$[ebp]
	add	eax, 1
	mov	DWORD PTR _i$[ebp], eax
$LN4@soap_puthe:
	mov	eax, DWORD PTR _i$[ebp]
	cmp	eax, DWORD PTR _n$[ebp]
	jge	SHORT $LN2@soap_puthe

; 1759 :   { register int m = *s++;

	mov	eax, DWORD PTR _s$[ebp]
	movzx	ecx, BYTE PTR [eax]
	mov	DWORD PTR _m$83100[ebp], ecx
	mov	edx, DWORD PTR _s$[ebp]
	add	edx, 1
	mov	DWORD PTR _s$[ebp], edx

; 1760 :     d[0] = (char)((m >> 4) + (m > 159 ? '7' : '0'));

	mov	ecx, DWORD PTR _m$83100[ebp]
	sar	ecx, 4
	cmp	DWORD PTR _m$83100[ebp], 159		; 0000009fH
	setle	al
	sub	al, 1
	and	al, 7
	add	al, 48					; 00000030H
	movsx	edx, al
	add	ecx, edx
	call	@_RTC_Check_4_to_1@4
	mov	BYTE PTR _d$[ebp], al

; 1761 :     m &= 0x0F;

	mov	eax, DWORD PTR _m$83100[ebp]
	and	eax, 15					; 0000000fH
	mov	DWORD PTR _m$83100[ebp], eax

; 1762 :     d[1] = (char)(m + (m > 9 ? '7' : '0'));

	cmp	DWORD PTR _m$83100[ebp], 9
	setle	al
	sub	al, 1
	and	al, 7
	add	al, 48					; 00000030H
	movsx	ecx, al
	add	ecx, DWORD PTR _m$83100[ebp]
	call	@_RTC_Check_4_to_1@4
	mov	BYTE PTR _d$[ebp+1], al

; 1763 :     if (soap_send_raw(soap, d, 2))

	push	2
	lea	eax, DWORD PTR _d$[ebp]
	push	eax
	mov	ecx, DWORD PTR _soap$[ebp]
	push	ecx
	call	_soap_send_raw
	add	esp, 12					; 0000000cH
	test	eax, eax
	je	SHORT $LN1@soap_puthe

; 1764 :       return soap->error;

	mov	eax, DWORD PTR _soap$[ebp]
	mov	eax, DWORD PTR [eax+90460]
	jmp	SHORT $LN5@soap_puthe
$LN1@soap_puthe:

; 1765 :   }

	jmp	$LN3@soap_puthe
$LN2@soap_puthe:

; 1766 :   return SOAP_OK;

	xor	eax, eax
$LN5@soap_puthe:

; 1767 : }

	push	edx
	mov	ecx, ebp
	push	eax
	lea	edx, DWORD PTR $LN9@soap_puthe
	call	@_RTC_CheckStackVars@8
	pop	eax
	pop	edx
	pop	edi
	pop	esi
	pop	ebx
	add	esp, 228				; 000000e4H
	cmp	ebp, esp
	call	__RTC_CheckEsp
	mov	esp, ebp
	pop	ebp
	ret	0
	npad	2
$LN9@soap_puthe:
	DD	1
	DD	$LN8@soap_puthe
$LN8@soap_puthe:
	DD	-8					; fffffff8H
	DD	2
	DD	$LN7@soap_puthe
$LN7@soap_puthe:
	DB	100					; 00000064H
	DB	0
_soap_puthex ENDP
_TEXT	ENDS
PUBLIC	_soap_malloc
PUBLIC	_soap_append_lab
PUBLIC	_soap_gethex
; Function compile flags: /Odtp /RTCcsu /ZI
;	COMDAT _soap_gethex
_TEXT	SEGMENT
tv161 = -284						; size = 4
tv152 = -280						; size = 4
_p$83127 = -80						; size = 4
_c$83120 = -68						; size = 4
_d2$83119 = -53						; size = 1
_d1$83118 = -41						; size = 1
_k$83113 = -32						; size = 4
_i$83112 = -20						; size = 4
_s$83111 = -8						; size = 4
_soap$ = 8						; size = 4
_n$ = 12						; size = 4
_soap_gethex PROC					; COMDAT

; 1776 : {

	push	ebp
	mov	ebp, esp
	sub	esp, 284				; 0000011cH
	push	ebx
	push	esi
	push	edi
	lea	edi, DWORD PTR [ebp-284]
	mov	ecx, 71					; 00000047H
	mov	eax, -858993460				; ccccccccH
	rep stosd

; 1777 : #ifdef WITH_DOM
; 1778 :   if ((soap->mode & SOAP_XML_DOM) && soap->dom)
; 1779 :   { soap->dom->data = soap_string_in(soap, 0, -1, -1);
; 1780 :     return (unsigned char*)soap_hex2s(soap, soap->dom->data, NULL, 0, n);
; 1781 :   }
; 1782 : #endif
; 1783 : #ifdef WITH_FAST
; 1784 :   soap->labidx = 0;

	mov	eax, DWORD PTR _soap$[ebp]
	mov	DWORD PTR [eax+12464], 0
$LN12@soap_gethe:

; 1785 :   for (;;)
; 1786 :   { register char *s;
; 1787 :     register size_t i, k;
; 1788 :     if (soap_append_lab(soap, NULL, 0))

	push	0
	push	0
	mov	eax, DWORD PTR _soap$[ebp]
	push	eax
	call	_soap_append_lab
	add	esp, 12					; 0000000cH
	test	eax, eax
	je	SHORT $LN10@soap_gethe

; 1789 :       return NULL;

	xor	eax, eax
	jmp	$LN13@soap_gethe
$LN10@soap_gethe:

; 1790 :     s = soap->labbuf + soap->labidx;

	mov	eax, DWORD PTR _soap$[ebp]
	mov	ecx, DWORD PTR [eax+12456]
	mov	edx, DWORD PTR _soap$[ebp]
	add	ecx, DWORD PTR [edx+12464]
	mov	DWORD PTR _s$83111[ebp], ecx

; 1791 :     k = soap->lablen - soap->labidx;

	mov	eax, DWORD PTR _soap$[ebp]
	mov	ecx, DWORD PTR _soap$[ebp]
	mov	edx, DWORD PTR [eax+12460]
	sub	edx, DWORD PTR [ecx+12464]
	mov	DWORD PTR _k$83113[ebp], edx

; 1792 :     soap->labidx = soap->lablen;

	mov	eax, DWORD PTR _soap$[ebp]
	mov	ecx, DWORD PTR _soap$[ebp]
	mov	edx, DWORD PTR [ecx+12460]
	mov	DWORD PTR [eax+12464], edx

; 1793 :     for (i = 0; i < k; i++)

	mov	DWORD PTR _i$83112[ebp], 0
	jmp	SHORT $LN9@soap_gethe
$LN8@soap_gethe:
	mov	eax, DWORD PTR _i$83112[ebp]
	add	eax, 1
	mov	DWORD PTR _i$83112[ebp], eax
$LN9@soap_gethe:
	mov	eax, DWORD PTR _i$83112[ebp]
	cmp	eax, DWORD PTR _k$83113[ebp]
	jae	$LN7@soap_gethe

; 1794 :     { register char d1, d2;
; 1795 :       register soap_wchar c;
; 1796 :       c = soap_get(soap);

	mov	eax, DWORD PTR _soap$[ebp]
	push	eax
	call	_soap_get
	add	esp, 4
	mov	DWORD PTR _c$83120[ebp], eax

; 1797 :       if (soap_isxdigit(c))

	mov	eax, DWORD PTR _c$83120[ebp]
	push	eax
	call	_soap_isxdigit
	add	esp, 4
	test	eax, eax
	je	SHORT $LN6@soap_gethe

; 1798 :       { d1 = (char)c;

	mov	ecx, DWORD PTR _c$83120[ebp]
	call	@_RTC_Check_4_to_1@4
	mov	BYTE PTR _d1$83118[ebp], al

; 1799 :         c = soap_get(soap);

	mov	eax, DWORD PTR _soap$[ebp]
	push	eax
	call	_soap_get
	add	esp, 4
	mov	DWORD PTR _c$83120[ebp], eax

; 1800 :         if (soap_isxdigit(c))

	mov	eax, DWORD PTR _c$83120[ebp]
	push	eax
	call	_soap_isxdigit
	add	esp, 4
	test	eax, eax
	je	SHORT $LN5@soap_gethe

; 1801 :           d2 = (char)c;

	mov	ecx, DWORD PTR _c$83120[ebp]
	call	@_RTC_Check_4_to_1@4
	mov	BYTE PTR _d2$83119[ebp], al

; 1802 :         else

	jmp	SHORT $LN4@soap_gethe
$LN5@soap_gethe:

; 1803 :         { soap->error = SOAP_TYPE;

	mov	eax, DWORD PTR _soap$[ebp]
	mov	DWORD PTR [eax+90460], 4

; 1804 :           return NULL;

	xor	eax, eax
	jmp	$LN13@soap_gethe
$LN4@soap_gethe:

; 1805 :         }
; 1806 :       }
; 1807 :       else

	jmp	SHORT $LN3@soap_gethe
$LN6@soap_gethe:

; 1808 :       { unsigned char *p;
; 1809 :         soap_unget(soap, c);

	mov	eax, DWORD PTR _soap$[ebp]
	mov	ecx, DWORD PTR _c$83120[ebp]
	mov	DWORD PTR [eax+12436], ecx

; 1810 :         if (n)

	cmp	DWORD PTR _n$[ebp], 0
	je	SHORT $LN2@soap_gethe

; 1811 :           *n = (int)(soap->lablen + i - k);

	mov	eax, DWORD PTR _soap$[ebp]
	mov	ecx, DWORD PTR [eax+12460]
	add	ecx, DWORD PTR _i$83112[ebp]
	sub	ecx, DWORD PTR _k$83113[ebp]
	mov	edx, DWORD PTR _n$[ebp]
	mov	DWORD PTR [edx], ecx
$LN2@soap_gethe:

; 1812 :         p = (unsigned char*)soap_malloc(soap, soap->lablen + i - k);

	mov	eax, DWORD PTR _soap$[ebp]
	mov	ecx, DWORD PTR [eax+12460]
	add	ecx, DWORD PTR _i$83112[ebp]
	sub	ecx, DWORD PTR _k$83113[ebp]
	push	ecx
	mov	edx, DWORD PTR _soap$[ebp]
	push	edx
	call	_soap_malloc
	add	esp, 8
	mov	DWORD PTR _p$83127[ebp], eax

; 1813 :         if (p)

	cmp	DWORD PTR _p$83127[ebp], 0
	je	SHORT $LN1@soap_gethe

; 1814 :           memcpy(p, soap->labbuf, soap->lablen + i - k);

	mov	eax, DWORD PTR _soap$[ebp]
	mov	ecx, DWORD PTR [eax+12460]
	add	ecx, DWORD PTR _i$83112[ebp]
	sub	ecx, DWORD PTR _k$83113[ebp]
	push	ecx
	mov	edx, DWORD PTR _soap$[ebp]
	mov	eax, DWORD PTR [edx+12456]
	push	eax
	mov	ecx, DWORD PTR _p$83127[ebp]
	push	ecx
	call	_memcpy
	add	esp, 12					; 0000000cH
$LN1@soap_gethe:

; 1815 :         return p;

	mov	eax, DWORD PTR _p$83127[ebp]
	jmp	SHORT $LN13@soap_gethe
$LN3@soap_gethe:

; 1816 :       }
; 1817 :       *s++ = ((d1 >= 'A' ? (d1 & 0x7) + 9 : d1 - '0') << 4) + (d2 >= 'A' ? (d2 & 0x7) + 9 : d2 - '0');

	movsx	eax, BYTE PTR _d1$83118[ebp]
	cmp	eax, 65					; 00000041H
	jl	SHORT $LN15@soap_gethe
	movsx	ecx, BYTE PTR _d1$83118[ebp]
	and	ecx, 7
	add	ecx, 9
	mov	DWORD PTR tv152[ebp], ecx
	jmp	SHORT $LN16@soap_gethe
$LN15@soap_gethe:
	movsx	edx, BYTE PTR _d1$83118[ebp]
	sub	edx, 48					; 00000030H
	mov	DWORD PTR tv152[ebp], edx
$LN16@soap_gethe:
	movsx	eax, BYTE PTR _d2$83119[ebp]
	cmp	eax, 65					; 00000041H
	jl	SHORT $LN17@soap_gethe
	movsx	ecx, BYTE PTR _d2$83119[ebp]
	and	ecx, 7
	add	ecx, 9
	mov	DWORD PTR tv161[ebp], ecx
	jmp	SHORT $LN18@soap_gethe
$LN17@soap_gethe:
	movsx	edx, BYTE PTR _d2$83119[ebp]
	sub	edx, 48					; 00000030H
	mov	DWORD PTR tv161[ebp], edx
$LN18@soap_gethe:
	mov	ecx, DWORD PTR tv152[ebp]
	shl	ecx, 4
	add	ecx, DWORD PTR tv161[ebp]
	call	@_RTC_Check_4_to_1@4
	mov	ecx, DWORD PTR _s$83111[ebp]
	mov	BYTE PTR [ecx], al
	mov	edx, DWORD PTR _s$83111[ebp]
	add	edx, 1
	mov	DWORD PTR _s$83111[ebp], edx

; 1818 :     }

	jmp	$LN8@soap_gethe
$LN7@soap_gethe:

; 1819 :   }

	jmp	$LN12@soap_gethe
$LN13@soap_gethe:

; 1820 : #else
; 1821 :   if (soap_new_block(soap))
; 1822 :     return NULL;
; 1823 :   for (;;)
; 1824 :   { register int i;
; 1825 :     register char *s = (char*)soap_push_block(soap, SOAP_BLKLEN);
; 1826 :     if (!s)
; 1827 :     { soap_end_block(soap);
; 1828 :       return NULL;
; 1829 :     }
; 1830 :     for (i = 0; i < SOAP_BLKLEN; i++)
; 1831 :     { register char d1, d2;
; 1832 :       register soap_wchar c = soap_get(soap);
; 1833 :       if (soap_isxdigit(c))
; 1834 :       { d1 = (char)c;
; 1835 :         c = soap_get(soap);
; 1836 :         if (soap_isxdigit(c))
; 1837 :           d2 = (char)c;
; 1838 :         else
; 1839 :         { soap_end_block(soap);
; 1840 :           soap->error = SOAP_TYPE;
; 1841 :           return NULL;
; 1842 :         }
; 1843 :       }
; 1844 :       else
; 1845 :       { unsigned char *p;
; 1846 :         soap_unget(soap, c);
; 1847 :         if (n)
; 1848 :           *n = (int)soap_size_block(soap, i);
; 1849 :         p = (unsigned char*)soap_save_block(soap, NULL, 0);
; 1850 :         return p;
; 1851 :       }
; 1852 :       *s++ = ((d1 >= 'A' ? (d1 & 0x7) + 9 : d1 - '0') << 4) + (d2 >= 'A' ? (d2 & 0x7) + 9 : d2 - '0');
; 1853 :     }
; 1854 :   }
; 1855 : #endif
; 1856 : }

	pop	edi
	pop	esi
	pop	ebx
	add	esp, 284				; 0000011cH
	cmp	ebp, esp
	call	__RTC_CheckEsp
	mov	esp, ebp
	pop	ebp
	ret	0
_soap_gethex ENDP
_TEXT	ENDS
PUBLIC	_soap_putbase64
; Function compile flags: /Odtp /RTCcsu /ZI
;	COMDAT _soap_putbase64
_TEXT	SEGMENT
_d$ = -32						; size = 4
_m$ = -20						; size = 4
_i$ = -8						; size = 4
_soap$ = 8						; size = 4
_s$ = 12						; size = 4
_n$ = 16						; size = 4
_soap_putbase64 PROC					; COMDAT

; 1865 : { register int i;

	push	ebp
	mov	ebp, esp
	sub	esp, 228				; 000000e4H
	push	ebx
	push	esi
	push	edi
	lea	edi, DWORD PTR [ebp-228]
	mov	ecx, 57					; 00000039H
	mov	eax, -858993460				; ccccccccH
	rep stosd

; 1866 :   register unsigned long m;
; 1867 :   char d[4];
; 1868 :   if (!s)

	cmp	DWORD PTR _s$[ebp], 0
	jne	SHORT $LN22@soap_putba

; 1869 :     return SOAP_OK;

	xor	eax, eax
	jmp	$LN23@soap_putba
$LN22@soap_putba:

; 1870 : #ifdef WITH_DOM
; 1871 :   if ((soap->mode & SOAP_XML_DOM) && soap->dom)
; 1872 :   { if (!(soap->dom->data = soap_s2base64(soap, s, NULL, n)))
; 1873 :       return soap->error;
; 1874 :     return SOAP_OK;
; 1875 :   }
; 1876 : #endif
; 1877 :   for (; n > 2; n -= 3, s += 3)

	jmp	SHORT $LN21@soap_putba
$LN20@soap_putba:
	mov	eax, DWORD PTR _n$[ebp]
	sub	eax, 3
	mov	DWORD PTR _n$[ebp], eax
	mov	ecx, DWORD PTR _s$[ebp]
	add	ecx, 3
	mov	DWORD PTR _s$[ebp], ecx
$LN21@soap_putba:
	cmp	DWORD PTR _n$[ebp], 2
	jle	$LN19@soap_putba

; 1878 :   { m = s[0];

	mov	eax, DWORD PTR _s$[ebp]
	movzx	ecx, BYTE PTR [eax]
	mov	DWORD PTR _m$[ebp], ecx

; 1879 :     m = (m << 8) | s[1];

	mov	eax, DWORD PTR _m$[ebp]
	shl	eax, 8
	mov	ecx, DWORD PTR _s$[ebp]
	movzx	edx, BYTE PTR [ecx+1]
	or	eax, edx
	mov	DWORD PTR _m$[ebp], eax

; 1880 :     m = (m << 8) | s[2];

	mov	eax, DWORD PTR _m$[ebp]
	shl	eax, 8
	mov	ecx, DWORD PTR _s$[ebp]
	movzx	edx, BYTE PTR [ecx+2]
	or	eax, edx
	mov	DWORD PTR _m$[ebp], eax

; 1881 :     for (i = 4; i > 0; m >>= 6)

	mov	DWORD PTR _i$[ebp], 4
	jmp	SHORT $LN18@soap_putba
$LN17@soap_putba:
	mov	eax, DWORD PTR _m$[ebp]
	shr	eax, 6
	mov	DWORD PTR _m$[ebp], eax
$LN18@soap_putba:
	cmp	DWORD PTR _i$[ebp], 0
	jle	SHORT $LN16@soap_putba

; 1882 :       d[--i] = soap_base64o[m & 0x3F];

	mov	eax, DWORD PTR _i$[ebp]
	sub	eax, 1
	mov	DWORD PTR _i$[ebp], eax
	mov	ecx, DWORD PTR _m$[ebp]
	and	ecx, 63					; 0000003fH
	mov	edx, DWORD PTR _i$[ebp]
	mov	al, BYTE PTR _soap_base64o[ecx]
	mov	BYTE PTR _d$[ebp+edx], al
	jmp	SHORT $LN17@soap_putba
$LN16@soap_putba:

; 1883 :     if (soap_send_raw(soap, d, 4))

	push	4
	lea	eax, DWORD PTR _d$[ebp]
	push	eax
	mov	ecx, DWORD PTR _soap$[ebp]
	push	ecx
	call	_soap_send_raw
	add	esp, 12					; 0000000cH
	test	eax, eax
	je	SHORT $LN15@soap_putba

; 1884 :       return soap->error;

	mov	eax, DWORD PTR _soap$[ebp]
	mov	eax, DWORD PTR [eax+90460]
	jmp	$LN23@soap_putba
$LN15@soap_putba:

; 1885 :   }

	jmp	$LN20@soap_putba
$LN19@soap_putba:

; 1886 :   if (n > 0)

	cmp	DWORD PTR _n$[ebp], 0
	jle	$LN14@soap_putba

; 1887 :   { m = 0;

	mov	DWORD PTR _m$[ebp], 0

; 1888 :     for (i = 0; i < n; i++)

	mov	DWORD PTR _i$[ebp], 0
	jmp	SHORT $LN13@soap_putba
$LN12@soap_putba:
	mov	eax, DWORD PTR _i$[ebp]
	add	eax, 1
	mov	DWORD PTR _i$[ebp], eax
$LN13@soap_putba:
	mov	eax, DWORD PTR _i$[ebp]
	cmp	eax, DWORD PTR _n$[ebp]
	jge	SHORT $LN11@soap_putba

; 1889 :       m = (m << 8) | *s++;

	mov	eax, DWORD PTR _m$[ebp]
	shl	eax, 8
	mov	ecx, DWORD PTR _s$[ebp]
	movzx	edx, BYTE PTR [ecx]
	or	eax, edx
	mov	DWORD PTR _m$[ebp], eax
	mov	eax, DWORD PTR _s$[ebp]
	add	eax, 1
	mov	DWORD PTR _s$[ebp], eax
	jmp	SHORT $LN12@soap_putba
$LN11@soap_putba:

; 1890 :     for (; i < 3; i++)

	jmp	SHORT $LN10@soap_putba
$LN9@soap_putba:
	mov	eax, DWORD PTR _i$[ebp]
	add	eax, 1
	mov	DWORD PTR _i$[ebp], eax
$LN10@soap_putba:
	cmp	DWORD PTR _i$[ebp], 3
	jge	SHORT $LN8@soap_putba

; 1891 :       m <<= 8;

	mov	eax, DWORD PTR _m$[ebp]
	shl	eax, 8
	mov	DWORD PTR _m$[ebp], eax
	jmp	SHORT $LN9@soap_putba
$LN8@soap_putba:

; 1892 :     for (i++; i > 0; m >>= 6)

	mov	eax, DWORD PTR _i$[ebp]
	add	eax, 1
	mov	DWORD PTR _i$[ebp], eax
	jmp	SHORT $LN7@soap_putba
$LN6@soap_putba:
	mov	eax, DWORD PTR _m$[ebp]
	shr	eax, 6
	mov	DWORD PTR _m$[ebp], eax
$LN7@soap_putba:
	cmp	DWORD PTR _i$[ebp], 0
	jle	SHORT $LN5@soap_putba

; 1893 :       d[--i] = soap_base64o[m & 0x3F];

	mov	eax, DWORD PTR _i$[ebp]
	sub	eax, 1
	mov	DWORD PTR _i$[ebp], eax
	mov	ecx, DWORD PTR _m$[ebp]
	and	ecx, 63					; 0000003fH
	mov	edx, DWORD PTR _i$[ebp]
	mov	al, BYTE PTR _soap_base64o[ecx]
	mov	BYTE PTR _d$[ebp+edx], al
	jmp	SHORT $LN6@soap_putba
$LN5@soap_putba:

; 1894 :     for (i = 3; i > n; i--)

	mov	DWORD PTR _i$[ebp], 3
	jmp	SHORT $LN4@soap_putba
$LN3@soap_putba:
	mov	eax, DWORD PTR _i$[ebp]
	sub	eax, 1
	mov	DWORD PTR _i$[ebp], eax
$LN4@soap_putba:
	mov	eax, DWORD PTR _i$[ebp]
	cmp	eax, DWORD PTR _n$[ebp]
	jle	SHORT $LN2@soap_putba

; 1895 :       d[i] = '=';

	mov	eax, DWORD PTR _i$[ebp]
	mov	BYTE PTR _d$[ebp+eax], 61		; 0000003dH
	jmp	SHORT $LN3@soap_putba
$LN2@soap_putba:

; 1896 :     if (soap_send_raw(soap, d, 4))

	push	4
	lea	eax, DWORD PTR _d$[ebp]
	push	eax
	mov	ecx, DWORD PTR _soap$[ebp]
	push	ecx
	call	_soap_send_raw
	add	esp, 12					; 0000000cH
	test	eax, eax
	je	SHORT $LN14@soap_putba

; 1897 :       return soap->error;

	mov	eax, DWORD PTR _soap$[ebp]
	mov	eax, DWORD PTR [eax+90460]
	jmp	SHORT $LN23@soap_putba
$LN14@soap_putba:

; 1898 :   }
; 1899 :   return SOAP_OK;

	xor	eax, eax
$LN23@soap_putba:

; 1900 : }

	push	edx
	mov	ecx, ebp
	push	eax
	lea	edx, DWORD PTR $LN27@soap_putba
	call	@_RTC_CheckStackVars@8
	pop	eax
	pop	edx
	pop	edi
	pop	esi
	pop	ebx
	add	esp, 228				; 000000e4H
	cmp	ebp, esp
	call	__RTC_CheckEsp
	mov	esp, ebp
	pop	ebp
	ret	0
$LN27@soap_putba:
	DD	1
	DD	$LN26@soap_putba
$LN26@soap_putba:
	DD	-32					; ffffffe0H
	DD	4
	DD	$LN25@soap_putba
$LN25@soap_putba:
	DB	100					; 00000064H
	DB	0
_soap_putbase64 ENDP
_TEXT	ENDS
PUBLIC	_soap_getbase64
; Function compile flags: /Odtp /RTCcsu /ZI
;	COMDAT _soap_getbase64
_TEXT	SEGMENT
tv89 = -292						; size = 4
_b$83209 = -92						; size = 4
_p$83187 = -80						; size = 4
_c$83184 = -68						; size = 4
_j$83180 = -56						; size = 4
_m$83179 = -44						; size = 4
_s$83172 = -32						; size = 4
_k$83171 = -20						; size = 4
_i$83170 = -8						; size = 4
_soap$ = 8						; size = 4
_n$ = 12						; size = 4
_malloc_flag$ = 16					; size = 4
_soap_getbase64 PROC					; COMDAT

; 1909 : {

	push	ebp
	mov	ebp, esp
	sub	esp, 292				; 00000124H
	push	ebx
	push	esi
	push	edi
	lea	edi, DWORD PTR [ebp-292]
	mov	ecx, 73					; 00000049H
	mov	eax, -858993460				; ccccccccH
	rep stosd

; 1910 : #ifdef WITH_DOM
; 1911 :   if ((soap->mode & SOAP_XML_DOM) && soap->dom)
; 1912 :   { soap->dom->data = soap_string_in(soap, 0, -1, -1);
; 1913 :     return (unsigned char*)soap_base642s(soap, soap->dom->data, NULL, 0, n);
; 1914 :   }
; 1915 : #endif
; 1916 : #ifdef WITH_FAST
; 1917 :   soap->labidx = 0;

	mov	eax, DWORD PTR _soap$[ebp]
	mov	DWORD PTR [eax+12464], 0
$LN27@soap_getba:

; 1918 :   for (;;)
; 1919 :   { register size_t i, k;
; 1920 :     register char *s;
; 1921 :     if (soap_append_lab(soap, NULL, 2))

	push	2
	push	0
	mov	eax, DWORD PTR _soap$[ebp]
	push	eax
	call	_soap_append_lab
	add	esp, 12					; 0000000cH
	test	eax, eax
	je	SHORT $LN25@soap_getba

; 1922 :       return NULL;

	xor	eax, eax
	jmp	$LN28@soap_getba
$LN25@soap_getba:

; 1923 :     s = soap->labbuf + soap->labidx;

	mov	eax, DWORD PTR _soap$[ebp]
	mov	ecx, DWORD PTR [eax+12456]
	mov	edx, DWORD PTR _soap$[ebp]
	add	ecx, DWORD PTR [edx+12464]
	mov	DWORD PTR _s$83172[ebp], ecx

; 1924 :     k = soap->lablen - soap->labidx;

	mov	eax, DWORD PTR _soap$[ebp]
	mov	ecx, DWORD PTR _soap$[ebp]
	mov	edx, DWORD PTR [eax+12460]
	sub	edx, DWORD PTR [ecx+12464]
	mov	DWORD PTR _k$83171[ebp], edx

; 1925 :     soap->labidx = 3 * (soap->lablen / 3);

	mov	eax, DWORD PTR _soap$[ebp]
	mov	eax, DWORD PTR [eax+12460]
	xor	edx, edx
	mov	ecx, 3
	div	ecx
	imul	eax, 3
	mov	edx, DWORD PTR _soap$[ebp]
	mov	DWORD PTR [edx+12464], eax

; 1926 :     if (!s)

	cmp	DWORD PTR _s$83172[ebp], 0
	jne	SHORT $LN24@soap_getba

; 1927 :       return NULL;

	xor	eax, eax
	jmp	$LN28@soap_getba
$LN24@soap_getba:

; 1928 :     if (k > 2)

	cmp	DWORD PTR _k$83171[ebp], 2
	jbe	$LN23@soap_getba

; 1929 :     { for (i = 0; i < k - 2; i += 3)

	mov	DWORD PTR _i$83170[ebp], 0
	jmp	SHORT $LN22@soap_getba
$LN21@soap_getba:
	mov	eax, DWORD PTR _i$83170[ebp]
	add	eax, 3
	mov	DWORD PTR _i$83170[ebp], eax
$LN22@soap_getba:
	mov	eax, DWORD PTR _k$83171[ebp]
	sub	eax, 2
	cmp	DWORD PTR _i$83170[ebp], eax
	jae	$LN23@soap_getba

; 1930 :       { register unsigned long m = 0;

	mov	DWORD PTR _m$83179[ebp], 0

; 1931 :         register int j = 0;

	mov	DWORD PTR _j$83180[ebp], 0
$LN19@soap_getba:

; 1932 :         do
; 1933 :         { register soap_wchar c = soap_get(soap);

	mov	eax, DWORD PTR _soap$[ebp]
	push	eax
	call	_soap_get
	add	esp, 4
	mov	DWORD PTR _c$83184[ebp], eax

; 1934 :           if (c == '=' || c < 0)

	cmp	DWORD PTR _c$83184[ebp], 61		; 0000003dH
	je	SHORT $LN15@soap_getba
	cmp	DWORD PTR _c$83184[ebp], 0
	jge	$LN16@soap_getba
$LN15@soap_getba:

; 1935 :           { unsigned char *p;
; 1936 :             switch (j)

	mov	eax, DWORD PTR _j$83180[ebp]
	mov	DWORD PTR tv89[ebp], eax
	cmp	DWORD PTR tv89[ebp], 2
	je	SHORT $LN12@soap_getba
	cmp	DWORD PTR tv89[ebp], 3
	je	SHORT $LN11@soap_getba
	jmp	SHORT $LN13@soap_getba
$LN12@soap_getba:

; 1937 :             { case 2:
; 1938 :                 *s++ = (char)((m >> 4) & 0xFF);

	mov	ecx, DWORD PTR _m$83179[ebp]
	shr	ecx, 4
	and	ecx, 255				; 000000ffH
	call	@_RTC_Check_4_to_1@4
	mov	ecx, DWORD PTR _s$83172[ebp]
	mov	BYTE PTR [ecx], al
	mov	edx, DWORD PTR _s$83172[ebp]
	add	edx, 1
	mov	DWORD PTR _s$83172[ebp], edx

; 1939 :                 i++;

	mov	eax, DWORD PTR _i$83170[ebp]
	add	eax, 1
	mov	DWORD PTR _i$83170[ebp], eax

; 1940 :                 break;

	jmp	SHORT $LN13@soap_getba
$LN11@soap_getba:

; 1941 :               case 3:
; 1942 :                 *s++ = (char)((m >> 10) & 0xFF);

	mov	ecx, DWORD PTR _m$83179[ebp]
	shr	ecx, 10					; 0000000aH
	and	ecx, 255				; 000000ffH
	call	@_RTC_Check_4_to_1@4
	mov	ecx, DWORD PTR _s$83172[ebp]
	mov	BYTE PTR [ecx], al
	mov	edx, DWORD PTR _s$83172[ebp]
	add	edx, 1
	mov	DWORD PTR _s$83172[ebp], edx

; 1943 :                 *s++ = (char)((m >> 2) & 0xFF);

	mov	ecx, DWORD PTR _m$83179[ebp]
	shr	ecx, 2
	and	ecx, 255				; 000000ffH
	call	@_RTC_Check_4_to_1@4
	mov	ecx, DWORD PTR _s$83172[ebp]
	mov	BYTE PTR [ecx], al
	mov	edx, DWORD PTR _s$83172[ebp]
	add	edx, 1
	mov	DWORD PTR _s$83172[ebp], edx

; 1944 :                 i += 2;

	mov	eax, DWORD PTR _i$83170[ebp]
	add	eax, 2
	mov	DWORD PTR _i$83170[ebp], eax
$LN13@soap_getba:

; 1945 :             }
; 1946 :             if (n)

	cmp	DWORD PTR _n$[ebp], 0
	je	SHORT $LN10@soap_getba

; 1947 :               *n = (int)(soap->lablen + i - k);

	mov	eax, DWORD PTR _soap$[ebp]
	mov	ecx, DWORD PTR [eax+12460]
	add	ecx, DWORD PTR _i$83170[ebp]
	sub	ecx, DWORD PTR _k$83171[ebp]
	mov	edx, DWORD PTR _n$[ebp]
	mov	DWORD PTR [edx], ecx
$LN10@soap_getba:

; 1948 :             p = (unsigned char*)soap_malloc(soap, soap->lablen + i - k);

	mov	eax, DWORD PTR _soap$[ebp]
	mov	ecx, DWORD PTR [eax+12460]
	add	ecx, DWORD PTR _i$83170[ebp]
	sub	ecx, DWORD PTR _k$83171[ebp]
	push	ecx
	mov	edx, DWORD PTR _soap$[ebp]
	push	edx
	call	_soap_malloc
	add	esp, 8
	mov	DWORD PTR _p$83187[ebp], eax

; 1949 :             if (p)

	cmp	DWORD PTR _p$83187[ebp], 0
	je	SHORT $LN9@soap_getba

; 1950 :               memcpy(p, soap->labbuf, soap->lablen + i - k);

	mov	eax, DWORD PTR _soap$[ebp]
	mov	ecx, DWORD PTR [eax+12460]
	add	ecx, DWORD PTR _i$83170[ebp]
	sub	ecx, DWORD PTR _k$83171[ebp]
	push	ecx
	mov	edx, DWORD PTR _soap$[ebp]
	mov	eax, DWORD PTR [edx+12456]
	push	eax
	mov	ecx, DWORD PTR _p$83187[ebp]
	push	ecx
	call	_memcpy
	add	esp, 12					; 0000000cH
$LN9@soap_getba:

; 1951 :             if (c >= 0)

	cmp	DWORD PTR _c$83184[ebp], 0
	jl	SHORT $LN8@soap_getba
$LN7@soap_getba:

; 1952 :             { while ((int)((c = soap_get(soap)) != EOF) && c != SOAP_LT && c != SOAP_TT)

	mov	eax, DWORD PTR _soap$[ebp]
	push	eax
	call	_soap_get
	add	esp, 4
	mov	DWORD PTR _c$83184[ebp], eax
	xor	ecx, ecx
	cmp	DWORD PTR _c$83184[ebp], -1
	setne	cl
	test	ecx, ecx
	je	SHORT $LN8@soap_getba
	cmp	DWORD PTR _c$83184[ebp], -2		; fffffffeH
	je	SHORT $LN8@soap_getba
	cmp	DWORD PTR _c$83184[ebp], -3		; fffffffdH
	je	SHORT $LN8@soap_getba

; 1953 :                 ;

	jmp	SHORT $LN7@soap_getba
$LN8@soap_getba:

; 1954 :             }
; 1955 :             soap_unget(soap, c);

	mov	eax, DWORD PTR _soap$[ebp]
	mov	ecx, DWORD PTR _c$83184[ebp]
	mov	DWORD PTR [eax+12436], ecx

; 1956 :             return p;

	mov	eax, DWORD PTR _p$83187[ebp]
	jmp	$LN28@soap_getba
$LN16@soap_getba:

; 1957 :           }
; 1958 :           c -= '+';

	mov	eax, DWORD PTR _c$83184[ebp]
	sub	eax, 43					; 0000002bH
	mov	DWORD PTR _c$83184[ebp], eax

; 1959 :           if (c >= 0 && c <= 79)

	js	SHORT $LN5@soap_getba
	cmp	DWORD PTR _c$83184[ebp], 79		; 0000004fH
	jg	SHORT $LN5@soap_getba

; 1960 :           { register int b = soap_base64i[c];

	mov	eax, DWORD PTR _c$83184[ebp]
	movsx	ecx, BYTE PTR _soap_base64i[eax]
	mov	DWORD PTR _b$83209[ebp], ecx

; 1961 :             if (b >= 64)

	cmp	DWORD PTR _b$83209[ebp], 64		; 00000040H
	jl	SHORT $LN4@soap_getba

; 1962 :             { soap->error = SOAP_TYPE;

	mov	eax, DWORD PTR _soap$[ebp]
	mov	DWORD PTR [eax+90460], 4

; 1963 :               return NULL;

	xor	eax, eax
	jmp	$LN28@soap_getba
$LN4@soap_getba:

; 1964 :             }
; 1965 :             m = (m << 6) + b;

	mov	eax, DWORD PTR _m$83179[ebp]
	shl	eax, 6
	add	eax, DWORD PTR _b$83209[ebp]
	mov	DWORD PTR _m$83179[ebp], eax

; 1966 :             j++;

	mov	eax, DWORD PTR _j$83180[ebp]
	add	eax, 1
	mov	DWORD PTR _j$83180[ebp], eax
	jmp	SHORT $LN18@soap_getba
$LN5@soap_getba:

; 1967 :           }
; 1968 :           else if (!soap_blank(c + '+'))

	mov	eax, DWORD PTR _c$83184[ebp]
	add	eax, 43					; 0000002bH
	js	SHORT $LN1@soap_getba
	mov	eax, DWORD PTR _c$83184[ebp]
	add	eax, 43					; 0000002bH
	cmp	eax, 32					; 00000020H
	jle	SHORT $LN18@soap_getba
$LN1@soap_getba:

; 1969 :           { soap->error = SOAP_TYPE;

	mov	eax, DWORD PTR _soap$[ebp]
	mov	DWORD PTR [eax+90460], 4

; 1970 :             return NULL;

	xor	eax, eax
	jmp	SHORT $LN28@soap_getba
$LN18@soap_getba:

; 1971 :           }
; 1972 :         } while (j < 4);

	cmp	DWORD PTR _j$83180[ebp], 4
	jl	$LN19@soap_getba

; 1973 :         *s++ = (char)((m >> 16) & 0xFF);

	mov	ecx, DWORD PTR _m$83179[ebp]
	shr	ecx, 16					; 00000010H
	and	ecx, 255				; 000000ffH
	call	@_RTC_Check_4_to_1@4
	mov	ecx, DWORD PTR _s$83172[ebp]
	mov	BYTE PTR [ecx], al
	mov	edx, DWORD PTR _s$83172[ebp]
	add	edx, 1
	mov	DWORD PTR _s$83172[ebp], edx

; 1974 :         *s++ = (char)((m >> 8) & 0xFF);

	mov	ecx, DWORD PTR _m$83179[ebp]
	shr	ecx, 8
	and	ecx, 255				; 000000ffH
	call	@_RTC_Check_4_to_1@4
	mov	ecx, DWORD PTR _s$83172[ebp]
	mov	BYTE PTR [ecx], al
	mov	edx, DWORD PTR _s$83172[ebp]
	add	edx, 1
	mov	DWORD PTR _s$83172[ebp], edx

; 1975 :         *s++ = (char)(m & 0xFF);

	mov	ecx, DWORD PTR _m$83179[ebp]
	and	ecx, 255				; 000000ffH
	call	@_RTC_Check_4_to_1@4
	mov	ecx, DWORD PTR _s$83172[ebp]
	mov	BYTE PTR [ecx], al
	mov	edx, DWORD PTR _s$83172[ebp]
	add	edx, 1
	mov	DWORD PTR _s$83172[ebp], edx

; 1976 :       }

	jmp	$LN21@soap_getba
$LN23@soap_getba:

; 1977 :     }
; 1978 :   }

	jmp	$LN27@soap_getba
$LN28@soap_getba:

; 1979 : #else
; 1980 :   if (soap_new_block(soap))
; 1981 :     return NULL;
; 1982 :   for (;;)
; 1983 :   { register int i;
; 1984 :     register char *s = (char*)soap_push_block(soap, 3 * SOAP_BLKLEN); /* must be multiple of 3 */
; 1985 :     if (!s)
; 1986 :     { soap_end_block(soap);
; 1987 :       return NULL;
; 1988 :     }
; 1989 :     for (i = 0; i < SOAP_BLKLEN; i++)
; 1990 :     { register unsigned long m = 0;
; 1991 :       register int j = 0;
; 1992 :       do
; 1993 :       { register soap_wchar c = soap_get(soap);
; 1994 :         if (c == '=' || c < 0)
; 1995 :         { unsigned char *p;
; 1996 :           i *= 3;
; 1997 :           switch (j)
; 1998 :           { case 2:
; 1999 :               *s++ = (char)((m >> 4) & 0xFF);
; 2000 :               i++;
; 2001 :               break;
; 2002 :             case 3:
; 2003 :               *s++ = (char)((m >> 10) & 0xFF);
; 2004 :               *s++ = (char)((m >> 2) & 0xFF);
; 2005 :               i += 2;
; 2006 :           }
; 2007 :           if (n)
; 2008 :             *n = (int)soap_size_block(soap, i);
; 2009 :           p = (unsigned char*)soap_save_block(soap, NULL, 0);
; 2010 :           if (c >= 0)
; 2011 :           { while ((int)((c = soap_get(soap)) != EOF) && c != SOAP_LT && c != SOAP_TT)
; 2012 :               ;
; 2013 :           }
; 2014 :           soap_unget(soap, c);
; 2015 :           return p;
; 2016 :         }
; 2017 :         c -= '+';
; 2018 :         if (c >= 0 && c <= 79)
; 2019 :         { int b = soap_base64i[c];
; 2020 :           if (b >= 64)
; 2021 :           { soap->error = SOAP_TYPE;
; 2022 :             return NULL;
; 2023 :           }
; 2024 :           m = (m << 6) + b;
; 2025 :           j++;
; 2026 :         }
; 2027 :         else if (!soap_blank(c))
; 2028 :         { soap->error = SOAP_TYPE;
; 2029 :           return NULL;
; 2030 :         }
; 2031 :       } while (j < 4);
; 2032 :       *s++ = (char)((m >> 16) & 0xFF);
; 2033 :       *s++ = (char)((m >> 8) & 0xFF);
; 2034 :       *s++ = (char)(m & 0xFF);
; 2035 :     }
; 2036 :   }
; 2037 : #endif
; 2038 : }

	pop	edi
	pop	esi
	pop	ebx
	add	esp, 292				; 00000124H
	cmp	ebp, esp
	call	__RTC_CheckEsp
	mov	esp, ebp
	pop	ebp
	ret	0
_soap_getbase64 ENDP
_TEXT	ENDS
PUBLIC	_soap_element_end_in
PUBLIC	_soap_dime_forward
PUBLIC	_soap_element_begin_in
PUBLIC	??_C@_0M@BMFKMGMG@xop?3Include?$AA@		; `string'
PUBLIC	_soap_peek_element
PUBLIC	_soap_xop_forward
EXTRN	@_RTC_Check_4_to_2@4:PROC
;	COMDAT ??_C@_0M@BMFKMGMG@xop?3Include?$AA@
CONST	SEGMENT
??_C@_0M@BMFKMGMG@xop?3Include?$AA@ DB 'xop:Include', 00H ; `string'
; Function compile flags: /Odtp /RTCcsu /ZI
CONST	ENDS
;	COMDAT _soap_xop_forward
_TEXT	SEGMENT
_body$ = -8						; size = 4
_soap$ = 8						; size = 4
_ptr$ = 12						; size = 4
_size$ = 16						; size = 4
_id$ = 20						; size = 4
_type$ = 24						; size = 4
_options$ = 28						; size = 4
_soap_xop_forward PROC					; COMDAT

; 2048 : { /* Check MTOM xop:Include element (within hex/base64Binary) */

	push	ebp
	mov	ebp, esp
	sub	esp, 204				; 000000ccH
	push	ebx
	push	esi
	push	edi
	lea	edi, DWORD PTR [ebp-204]
	mov	ecx, 51					; 00000033H
	mov	eax, -858993460				; ccccccccH
	rep stosd

; 2049 :   /* TODO: this code to be obsoleted with new import/xop.h conventions */
; 2050 :   int body = soap->body; /* should save type too? */

	mov	eax, DWORD PTR _soap$[ebp]
	movsx	ecx, WORD PTR [eax+12442]
	mov	DWORD PTR _body$[ebp], ecx

; 2051 :   if (!soap_peek_element(soap))

	mov	eax, DWORD PTR _soap$[ebp]
	push	eax
	call	_soap_peek_element
	add	esp, 4
	test	eax, eax
	jne	$LN4@soap_xop_f

; 2052 :   { if (!soap_element_begin_in(soap, "xop:Include", 0, NULL) && *soap->href)

	push	0
	push	0
	push	OFFSET ??_C@_0M@BMFKMGMG@xop?3Include?$AA@
	mov	eax, DWORD PTR _soap$[ebp]
	push	eax
	call	_soap_element_begin_in
	add	esp, 16					; 00000010H
	test	eax, eax
	jne	SHORT $LN3@soap_xop_f
	mov	eax, DWORD PTR _soap$[ebp]
	movsx	ecx, BYTE PTR [eax+82100]
	test	ecx, ecx
	je	SHORT $LN3@soap_xop_f

; 2053 :     { if (soap_dime_forward(soap, ptr, size, id, type, options))

	mov	eax, DWORD PTR _options$[ebp]
	push	eax
	mov	ecx, DWORD PTR _type$[ebp]
	push	ecx
	mov	edx, DWORD PTR _id$[ebp]
	push	edx
	mov	eax, DWORD PTR _size$[ebp]
	push	eax
	mov	ecx, DWORD PTR _ptr$[ebp]
	push	ecx
	mov	edx, DWORD PTR _soap$[ebp]
	push	edx
	call	_soap_dime_forward
	add	esp, 24					; 00000018H
	test	eax, eax
	je	SHORT $LN3@soap_xop_f

; 2054 :         return soap->error;

	mov	eax, DWORD PTR _soap$[ebp]
	mov	eax, DWORD PTR [eax+90460]
	jmp	SHORT $LN5@soap_xop_f
$LN3@soap_xop_f:

; 2055 :     }
; 2056 :     if (soap->body && soap_element_end_in(soap, NULL))

	mov	eax, DWORD PTR _soap$[ebp]
	movsx	ecx, WORD PTR [eax+12442]
	test	ecx, ecx
	je	SHORT $LN4@soap_xop_f
	push	0
	mov	eax, DWORD PTR _soap$[ebp]
	push	eax
	call	_soap_element_end_in
	add	esp, 8
	test	eax, eax
	je	SHORT $LN4@soap_xop_f

; 2057 :       return soap->error;

	mov	eax, DWORD PTR _soap$[ebp]
	mov	eax, DWORD PTR [eax+90460]
	jmp	SHORT $LN5@soap_xop_f
$LN4@soap_xop_f:

; 2058 :   }
; 2059 :   soap->body = body;

	mov	ecx, DWORD PTR _body$[ebp]
	call	@_RTC_Check_4_to_2@4
	mov	ecx, DWORD PTR _soap$[ebp]
	mov	WORD PTR [ecx+12442], ax

; 2060 :   return SOAP_OK;

	xor	eax, eax
$LN5@soap_xop_f:

; 2061 : }

	pop	edi
	pop	esi
	pop	ebx
	add	esp, 204				; 000000ccH
	cmp	ebp, esp
	call	__RTC_CheckEsp
	mov	esp, ebp
	pop	ebp
	ret	0
_soap_xop_forward ENDP
_TEXT	ENDS
PUBLIC	_soap_track_malloc
PUBLIC	??_C@_0FM@PNAHPICO@c?3?2users?2crius?2documents?2visual?5@ ; `string'
PUBLIC	?__LINE__Var@?1??soap_dime_forward@@9@4JA	; `soap_dime_forward'::`2'::__LINE__Var
PUBLIC	_soap_strdup
;	COMDAT ??_C@_0FM@PNAHPICO@c?3?2users?2crius?2documents?2visual?5@
CONST	SEGMENT
??_C@_0FM@PNAHPICO@c?3?2users?2crius?2documents?2visual?5@ DB 'c:\users\c'
	DB	'rius\documents\visual studio 2008\projects\dramsimiihg\src\re'
	DB	'porting\stdsoap2.cpp', 00H			; `string'
CONST	ENDS
;	COMDAT ?__LINE__Var@?1??soap_dime_forward@@9@4JA
_DATA	SEGMENT
?__LINE__Var@?1??soap_dime_forward@@9@4JA DD 0818H	; `soap_dime_forward'::`2'::__LINE__Var
; Function compile flags: /Odtp /RTCcsu /ZI
_DATA	ENDS
;	COMDAT _soap_dime_forward
_TEXT	SEGMENT
_xp$ = -8						; size = 4
_soap$ = 8						; size = 4
_ptr$ = 12						; size = 4
_size$ = 16						; size = 4
_id$ = 20						; size = 4
_type$ = 24						; size = 4
_options$ = 28						; size = 4
_soap_dime_forward PROC					; COMDAT

; 2072 : { struct soap_xlist *xp;

	push	ebp
	mov	ebp, esp
	sub	esp, 204				; 000000ccH
	push	ebx
	push	esi
	push	edi
	lea	edi, DWORD PTR [ebp-204]
	mov	ecx, 51					; 00000033H
	mov	eax, -858993460				; ccccccccH
	rep stosd

; 2073 :   *ptr = NULL;

	mov	eax, DWORD PTR _ptr$[ebp]
	mov	DWORD PTR [eax], 0

; 2074 :   *size = 0;

	mov	eax, DWORD PTR _size$[ebp]
	mov	DWORD PTR [eax], 0

; 2075 :   *id = NULL;

	mov	eax, DWORD PTR _id$[ebp]
	mov	DWORD PTR [eax], 0

; 2076 :   *type = NULL;

	mov	eax, DWORD PTR _type$[ebp]
	mov	DWORD PTR [eax], 0

; 2077 :   *options = NULL;

	mov	eax, DWORD PTR _options$[ebp]
	mov	DWORD PTR [eax], 0

; 2078 :   if (!*soap->href)

	mov	eax, DWORD PTR _soap$[ebp]
	movsx	ecx, BYTE PTR [eax+82100]
	test	ecx, ecx
	jne	SHORT $LN2@soap_dime_

; 2079 :     return SOAP_OK;

	xor	eax, eax
	jmp	$LN3@soap_dime_
$LN2@soap_dime_:

; 2080 :   *id = soap_strdup(soap, soap->href);

	mov	eax, DWORD PTR _soap$[ebp]
	add	eax, 82100				; 000140b4H
	push	eax
	mov	ecx, DWORD PTR _soap$[ebp]
	push	ecx
	call	_soap_strdup
	add	esp, 8
	mov	edx, DWORD PTR _id$[ebp]
	mov	DWORD PTR [edx], eax

; 2081 :   xp = (struct soap_xlist*)SOAP_MALLOC(soap, sizeof(struct soap_xlist));

	push	24					; 00000018H
	mov	eax, DWORD PTR ?__LINE__Var@?1??soap_dime_forward@@9@4JA
	add	eax, 9
	push	eax
	push	OFFSET ??_C@_0FM@PNAHPICO@c?3?2users?2crius?2documents?2visual?5@
	mov	ecx, DWORD PTR _soap$[ebp]
	push	ecx
	call	_soap_track_malloc
	add	esp, 16					; 00000010H
	mov	DWORD PTR _xp$[ebp], eax

; 2082 :   if (!xp)

	cmp	DWORD PTR _xp$[ebp], 0
	jne	SHORT $LN1@soap_dime_

; 2083 :     return soap->error = SOAP_EOM;

	mov	eax, DWORD PTR _soap$[ebp]
	mov	DWORD PTR [eax+90460], 20		; 00000014H
	mov	eax, 20					; 00000014H
	jmp	SHORT $LN3@soap_dime_
$LN1@soap_dime_:

; 2084 :   xp->next = soap->xlist;

	mov	eax, DWORD PTR _xp$[ebp]
	mov	ecx, DWORD PTR _soap$[ebp]
	mov	edx, DWORD PTR [ecx+90544]
	mov	DWORD PTR [eax], edx

; 2085 :   xp->ptr = ptr;

	mov	eax, DWORD PTR _xp$[ebp]
	mov	ecx, DWORD PTR _ptr$[ebp]
	mov	DWORD PTR [eax+4], ecx

; 2086 :   xp->size = size;

	mov	eax, DWORD PTR _xp$[ebp]
	mov	ecx, DWORD PTR _size$[ebp]
	mov	DWORD PTR [eax+8], ecx

; 2087 :   xp->id = *id;

	mov	eax, DWORD PTR _xp$[ebp]
	mov	ecx, DWORD PTR _id$[ebp]
	mov	edx, DWORD PTR [ecx]
	mov	DWORD PTR [eax+12], edx

; 2088 :   xp->type = type;

	mov	eax, DWORD PTR _xp$[ebp]
	mov	ecx, DWORD PTR _type$[ebp]
	mov	DWORD PTR [eax+16], ecx

; 2089 :   xp->options = options;

	mov	eax, DWORD PTR _xp$[ebp]
	mov	ecx, DWORD PTR _options$[ebp]
	mov	DWORD PTR [eax+20], ecx

; 2090 :   soap->xlist = xp;

	mov	eax, DWORD PTR _soap$[ebp]
	mov	ecx, DWORD PTR _xp$[ebp]
	mov	DWORD PTR [eax+90544], ecx

; 2091 :   return SOAP_OK;

	xor	eax, eax
$LN3@soap_dime_:

; 2092 : }

	pop	edi
	pop	esi
	pop	ebx
	add	esp, 204				; 000000ccH
	cmp	ebp, esp
	call	__RTC_CheckEsp
	mov	esp, ebp
	pop	ebp
	ret	0
_soap_dime_forward ENDP
_TEXT	ENDS
EXTRN	_strcpy:PROC
; Function compile flags: /Odtp /RTCcsu /ZI
;	COMDAT _soap_strdup
_TEXT	SEGMENT
_t$ = -8						; size = 4
_soap$ = 8						; size = 4
_s$ = 12						; size = 4
_soap_strdup PROC					; COMDAT

; 2102 : { char *t = NULL;

	push	ebp
	mov	ebp, esp
	sub	esp, 204				; 000000ccH
	push	ebx
	push	esi
	push	edi
	lea	edi, DWORD PTR [ebp-204]
	mov	ecx, 51					; 00000033H
	mov	eax, -858993460				; ccccccccH
	rep stosd
	mov	DWORD PTR _t$[ebp], 0

; 2103 :   if (s && (t = (char*)soap_malloc(soap, strlen(s) + 1)))

	cmp	DWORD PTR _s$[ebp], 0
	je	SHORT $LN1@soap_strdu
	mov	eax, DWORD PTR _s$[ebp]
	push	eax
	call	_strlen
	add	esp, 4
	add	eax, 1
	push	eax
	mov	ecx, DWORD PTR _soap$[ebp]
	push	ecx
	call	_soap_malloc
	add	esp, 8
	mov	DWORD PTR _t$[ebp], eax
	cmp	DWORD PTR _t$[ebp], 0
	je	SHORT $LN1@soap_strdu

; 2104 :     strcpy(t, s);

	mov	eax, DWORD PTR _s$[ebp]
	push	eax
	mov	ecx, DWORD PTR _t$[ebp]
	push	ecx
	call	_strcpy
	add	esp, 8
$LN1@soap_strdu:

; 2105 :   return t;

	mov	eax, DWORD PTR _t$[ebp]

; 2106 : }

	pop	edi
	pop	esi
	pop	ebx
	add	esp, 204				; 000000ccH
	cmp	ebp, esp
	call	__RTC_CheckEsp
	mov	esp, ebp
	pop	ebp
	ret	0
_soap_strdup ENDP
_TEXT	ENDS
PUBLIC	_soap_wstrdup
; Function compile flags: /Odtp /RTCcsu /ZI
;	COMDAT _soap_wstrdup
_TEXT	SEGMENT
_n$83259 = -20						; size = 4
_t$ = -8						; size = 4
_soap$ = 8						; size = 4
_s$ = 12						; size = 4
_soap_wstrdup PROC					; COMDAT

; 2115 : { wchar_t *t = NULL;

	push	ebp
	mov	ebp, esp
	sub	esp, 216				; 000000d8H
	push	ebx
	push	esi
	push	edi
	lea	edi, DWORD PTR [ebp-216]
	mov	ecx, 54					; 00000036H
	mov	eax, -858993460				; ccccccccH
	rep stosd
	mov	DWORD PTR _t$[ebp], 0

; 2116 :   if (s)

	cmp	DWORD PTR _s$[ebp], 0
	je	SHORT $LN4@soap_wstrd

; 2117 :   { size_t n = 0;

	mov	DWORD PTR _n$83259[ebp], 0
$LN3@soap_wstrd:

; 2118 :     while (s[n])

	mov	eax, DWORD PTR _n$83259[ebp]
	mov	ecx, DWORD PTR _s$[ebp]
	movzx	edx, WORD PTR [ecx+eax*2]
	test	edx, edx
	je	SHORT $LN2@soap_wstrd

; 2119 :       n++;

	mov	eax, DWORD PTR _n$83259[ebp]
	add	eax, 1
	mov	DWORD PTR _n$83259[ebp], eax
	jmp	SHORT $LN3@soap_wstrd
$LN2@soap_wstrd:

; 2120 :     if ((t = (wchar_t*)soap_malloc(soap, sizeof(wchar_t)*(n+1))))

	mov	eax, DWORD PTR _n$83259[ebp]
	lea	ecx, DWORD PTR [eax+eax+2]
	push	ecx
	mov	edx, DWORD PTR _soap$[ebp]
	push	edx
	call	_soap_malloc
	add	esp, 8
	mov	DWORD PTR _t$[ebp], eax
	cmp	DWORD PTR _t$[ebp], 0
	je	SHORT $LN4@soap_wstrd

; 2121 :       memcpy(t, s, sizeof(wchar_t)*(n+1));

	mov	eax, DWORD PTR _n$83259[ebp]
	lea	ecx, DWORD PTR [eax+eax+2]
	push	ecx
	mov	edx, DWORD PTR _s$[ebp]
	push	edx
	mov	eax, DWORD PTR _t$[ebp]
	push	eax
	call	_memcpy
	add	esp, 12					; 0000000cH
$LN4@soap_wstrd:

; 2122 :   }
; 2123 :   return t;

	mov	eax, DWORD PTR _t$[ebp]

; 2124 : }

	pop	edi
	pop	esi
	pop	ebx
	add	esp, 216				; 000000d8H
	cmp	ebp, esp
	call	__RTC_CheckEsp
	mov	esp, ebp
	pop	ebp
	ret	0
_soap_wstrdup ENDP
_TEXT	ENDS
PUBLIC	?__LINE__Var@?1??soap_new_block@@9@4JA		; `soap_new_block'::`2'::__LINE__Var
PUBLIC	??_C@_0BO@CHHOBIIC@New?5block?5sequence?5?$CIprev?$DN?$CFp?$CJ?6?$AA@ ; `string'
PUBLIC	_soap_new_block
;	COMDAT ?__LINE__Var@?1??soap_new_block@@9@4JA
_DATA	SEGMENT
?__LINE__Var@?1??soap_new_block@@9@4JA DD 0855H		; `soap_new_block'::`2'::__LINE__Var
_DATA	ENDS
;	COMDAT ??_C@_0BO@CHHOBIIC@New?5block?5sequence?5?$CIprev?$DN?$CFp?$CJ?6?$AA@
CONST	SEGMENT
??_C@_0BO@CHHOBIIC@New?5block?5sequence?5?$CIprev?$DN?$CFp?$CJ?6?$AA@ DB 'N'
	DB	'ew block sequence (prev=%p)', 0aH, 00H	; `string'
; Function compile flags: /Odtp /RTCcsu /ZI
CONST	ENDS
;	COMDAT _soap_new_block
_TEXT	SEGMENT
_fdebug$83275 = -20					; size = 4
_p$ = -8						; size = 4
_soap$ = 8						; size = 4
_soap_new_block PROC					; COMDAT

; 2133 : { struct soap_blist *p;

	push	ebp
	mov	ebp, esp
	sub	esp, 216				; 000000d8H
	push	ebx
	push	esi
	push	edi
	lea	edi, DWORD PTR [ebp-216]
	mov	ecx, 54					; 00000036H
	mov	eax, -858993460				; ccccccccH
	rep stosd

; 2134 :   DBGLOG(TEST, SOAP_MESSAGE(fdebug, "New block sequence (prev=%p)\n", soap->blist));

	cmp	DWORD PTR _soap$[ebp], 0
	je	SHORT $LN4@soap_new_b
	mov	eax, DWORD PTR _soap$[ebp]
	cmp	DWORD PTR [eax+90568], 0
	jne	SHORT $LN3@soap_new_b
	push	2
	mov	eax, DWORD PTR _soap$[ebp]
	push	eax
	call	_soap_open_logfile
	add	esp, 8
$LN3@soap_new_b:
	mov	eax, DWORD PTR _soap$[ebp]
	cmp	DWORD PTR [eax+90568], 0
	je	SHORT $LN4@soap_new_b
	mov	eax, DWORD PTR _soap$[ebp]
	mov	ecx, DWORD PTR [eax+90568]
	mov	DWORD PTR _fdebug$83275[ebp], ecx
	mov	esi, esp
	mov	eax, DWORD PTR _soap$[ebp]
	mov	ecx, DWORD PTR [eax+92]
	push	ecx
	push	OFFSET ??_C@_0BO@CHHOBIIC@New?5block?5sequence?5?$CIprev?$DN?$CFp?$CJ?6?$AA@
	mov	edx, DWORD PTR _fdebug$83275[ebp]
	push	edx
	call	DWORD PTR __imp__fprintf
	add	esp, 12					; 0000000cH
	cmp	esi, esp
	call	__RTC_CheckEsp
	mov	esi, esp
	mov	eax, DWORD PTR _fdebug$83275[ebp]
	push	eax
	call	DWORD PTR __imp__fflush
	add	esp, 4
	cmp	esi, esp
	call	__RTC_CheckEsp
$LN4@soap_new_b:

; 2135 :   if (!(p = (struct soap_blist*)SOAP_MALLOC(soap, sizeof(struct soap_blist))))

	push	12					; 0000000cH
	mov	eax, DWORD PTR ?__LINE__Var@?1??soap_new_block@@9@4JA
	add	eax, 2
	push	eax
	push	OFFSET ??_C@_0FM@PNAHPICO@c?3?2users?2crius?2documents?2visual?5@
	mov	ecx, DWORD PTR _soap$[ebp]
	push	ecx
	call	_soap_track_malloc
	add	esp, 16					; 00000010H
	mov	DWORD PTR _p$[ebp], eax
	cmp	DWORD PTR _p$[ebp], 0
	jne	SHORT $LN1@soap_new_b

; 2136 :     return SOAP_EOM;

	mov	eax, 20					; 00000014H
	jmp	SHORT $LN5@soap_new_b
$LN1@soap_new_b:

; 2137 :   p->next = soap->blist;

	mov	eax, DWORD PTR _p$[ebp]
	mov	ecx, DWORD PTR _soap$[ebp]
	mov	edx, DWORD PTR [ecx+92]
	mov	DWORD PTR [eax], edx

; 2138 :   p->ptr = NULL;

	mov	eax, DWORD PTR _p$[ebp]
	mov	DWORD PTR [eax+4], 0

; 2139 :   p->size = 0;

	mov	eax, DWORD PTR _p$[ebp]
	mov	DWORD PTR [eax+8], 0

; 2140 :   soap->blist = p;

	mov	eax, DWORD PTR _soap$[ebp]
	mov	ecx, DWORD PTR _p$[ebp]
	mov	DWORD PTR [eax+92], ecx

; 2141 :   return SOAP_OK;

	xor	eax, eax
$LN5@soap_new_b:

; 2142 : }

	pop	edi
	pop	esi
	pop	ebx
	add	esp, 216				; 000000d8H
	cmp	ebp, esp
	call	__RTC_CheckEsp
	mov	esp, ebp
	pop	ebp
	ret	0
_soap_new_block ENDP
_TEXT	ENDS
PUBLIC	?__LINE__Var@?1??soap_push_block@@9@4JA		; `soap_push_block'::`2'::__LINE__Var
PUBLIC	??_C@_0CJ@FPDHAHMG@Push?5block?5of?5?$CFu?5bytes?5?$CI?$CFu?5bytes@ ; `string'
;	COMDAT ?__LINE__Var@?1??soap_push_block@@9@4JA
_DATA	SEGMENT
?__LINE__Var@?1??soap_push_block@@9@4JA DD 0867H	; `soap_push_block'::`2'::__LINE__Var
_DATA	ENDS
;	COMDAT ??_C@_0CJ@FPDHAHMG@Push?5block?5of?5?$CFu?5bytes?5?$CI?$CFu?5bytes@
CONST	SEGMENT
??_C@_0CJ@FPDHAHMG@Push?5block?5of?5?$CFu?5bytes?5?$CI?$CFu?5bytes@ DB 'P'
	DB	'ush block of %u bytes (%u bytes total)', 0aH, 00H ; `string'
; Function compile flags: /Odtp /RTCcsu /ZI
CONST	ENDS
;	COMDAT _soap_push_block
_TEXT	SEGMENT
_fdebug$83290 = -20					; size = 4
_p$ = -8						; size = 4
_soap$ = 8						; size = 4
_n$ = 12						; size = 4
_soap_push_block PROC					; COMDAT

; 2151 : { char *p;

	push	ebp
	mov	ebp, esp
	sub	esp, 216				; 000000d8H
	push	ebx
	push	esi
	push	edi
	lea	edi, DWORD PTR [ebp-216]
	mov	ecx, 54					; 00000036H
	mov	eax, -858993460				; ccccccccH
	rep stosd

; 2152 :   DBGLOG(TEST, SOAP_MESSAGE(fdebug, "Push block of %u bytes (%u bytes total)\n", (unsigned int)n, (unsigned int)soap->blist->size + (unsigned int)n));

	cmp	DWORD PTR _soap$[ebp], 0
	je	SHORT $LN4@soap_push_
	mov	eax, DWORD PTR _soap$[ebp]
	cmp	DWORD PTR [eax+90568], 0
	jne	SHORT $LN3@soap_push_
	push	2
	mov	eax, DWORD PTR _soap$[ebp]
	push	eax
	call	_soap_open_logfile
	add	esp, 8
$LN3@soap_push_:
	mov	eax, DWORD PTR _soap$[ebp]
	cmp	DWORD PTR [eax+90568], 0
	je	SHORT $LN4@soap_push_
	mov	eax, DWORD PTR _soap$[ebp]
	mov	ecx, DWORD PTR [eax+90568]
	mov	DWORD PTR _fdebug$83290[ebp], ecx
	mov	eax, DWORD PTR _soap$[ebp]
	mov	ecx, DWORD PTR [eax+92]
	mov	edx, DWORD PTR [ecx+8]
	add	edx, DWORD PTR _n$[ebp]
	mov	esi, esp
	push	edx
	mov	eax, DWORD PTR _n$[ebp]
	push	eax
	push	OFFSET ??_C@_0CJ@FPDHAHMG@Push?5block?5of?5?$CFu?5bytes?5?$CI?$CFu?5bytes@
	mov	ecx, DWORD PTR _fdebug$83290[ebp]
	push	ecx
	call	DWORD PTR __imp__fprintf
	add	esp, 16					; 00000010H
	cmp	esi, esp
	call	__RTC_CheckEsp
	mov	esi, esp
	mov	eax, DWORD PTR _fdebug$83290[ebp]
	push	eax
	call	DWORD PTR __imp__fflush
	add	esp, 4
	cmp	esi, esp
	call	__RTC_CheckEsp
$LN4@soap_push_:

; 2153 :   if (!(p = (char*)SOAP_MALLOC(soap, n + sizeof(char*) + sizeof(size_t))))

	mov	eax, DWORD PTR _n$[ebp]
	add	eax, 8
	push	eax
	mov	ecx, DWORD PTR ?__LINE__Var@?1??soap_push_block@@9@4JA
	add	ecx, 2
	push	ecx
	push	OFFSET ??_C@_0FM@PNAHPICO@c?3?2users?2crius?2documents?2visual?5@
	mov	edx, DWORD PTR _soap$[ebp]
	push	edx
	call	_soap_track_malloc
	add	esp, 16					; 00000010H
	mov	DWORD PTR _p$[ebp], eax
	cmp	DWORD PTR _p$[ebp], 0
	jne	SHORT $LN1@soap_push_

; 2154 :   { soap->error = SOAP_EOM;

	mov	eax, DWORD PTR _soap$[ebp]
	mov	DWORD PTR [eax+90460], 20		; 00000014H

; 2155 :     return NULL;

	xor	eax, eax
	jmp	SHORT $LN5@soap_push_
$LN1@soap_push_:

; 2156 :   }
; 2157 :   *(char**)p = soap->blist->ptr;

	mov	eax, DWORD PTR _soap$[ebp]
	mov	ecx, DWORD PTR [eax+92]
	mov	edx, DWORD PTR _p$[ebp]
	mov	eax, DWORD PTR [ecx+4]
	mov	DWORD PTR [edx], eax

; 2158 :   *(size_t*)(p + sizeof(char*)) = n;

	mov	eax, DWORD PTR _p$[ebp]
	mov	ecx, DWORD PTR _n$[ebp]
	mov	DWORD PTR [eax+4], ecx

; 2159 :   soap->blist->ptr = p;

	mov	eax, DWORD PTR _soap$[ebp]
	mov	ecx, DWORD PTR [eax+92]
	mov	edx, DWORD PTR _p$[ebp]
	mov	DWORD PTR [ecx+4], edx

; 2160 :   soap->blist->size += n;

	mov	eax, DWORD PTR _soap$[ebp]
	mov	ecx, DWORD PTR [eax+92]
	mov	edx, DWORD PTR [ecx+8]
	add	edx, DWORD PTR _n$[ebp]
	mov	eax, DWORD PTR _soap$[ebp]
	mov	ecx, DWORD PTR [eax+92]
	mov	DWORD PTR [ecx+8], edx

; 2161 :   return p + sizeof(char*) + sizeof(size_t);

	mov	eax, DWORD PTR _p$[ebp]
	add	eax, 8
$LN5@soap_push_:

; 2162 : }

	pop	edi
	pop	esi
	pop	ebx
	add	esp, 216				; 000000d8H
	cmp	ebp, esp
	call	__RTC_CheckEsp
	mov	esp, ebp
	pop	ebp
	ret	0
_soap_push_block ENDP
_TEXT	ENDS
PUBLIC	_soap_track_free
PUBLIC	?__LINE__Var@?1??soap_pop_block@@9@4JA		; `soap_pop_block'::`2'::__LINE__Var
PUBLIC	??_C@_0L@CKHMILJO@Pop?5block?6?$AA@		; `string'
PUBLIC	_soap_pop_block
;	COMDAT ?__LINE__Var@?1??soap_pop_block@@9@4JA
_DATA	SEGMENT
?__LINE__Var@?1??soap_pop_block@@9@4JA DD 087bH		; `soap_pop_block'::`2'::__LINE__Var
_DATA	ENDS
;	COMDAT ??_C@_0L@CKHMILJO@Pop?5block?6?$AA@
CONST	SEGMENT
??_C@_0L@CKHMILJO@Pop?5block?6?$AA@ DB 'Pop block', 0aH, 00H ; `string'
; Function compile flags: /Odtp /RTCcsu /ZI
CONST	ENDS
;	COMDAT _soap_pop_block
_TEXT	SEGMENT
_fdebug$83314 = -20					; size = 4
_p$ = -8						; size = 4
_soap$ = 8						; size = 4
_soap_pop_block PROC					; COMDAT

; 2171 : { char *p;

	push	ebp
	mov	ebp, esp
	sub	esp, 216				; 000000d8H
	push	ebx
	push	esi
	push	edi
	lea	edi, DWORD PTR [ebp-216]
	mov	ecx, 54					; 00000036H
	mov	eax, -858993460				; ccccccccH
	rep stosd

; 2172 :   if (!soap->blist->ptr)

	mov	eax, DWORD PTR _soap$[ebp]
	mov	ecx, DWORD PTR [eax+92]
	cmp	DWORD PTR [ecx+4], 0
	jne	SHORT $LN4@soap_pop_b@2

; 2173 :     return;

	jmp	$LN5@soap_pop_b@2
$LN4@soap_pop_b@2:

; 2174 :   DBGLOG(TEST, SOAP_MESSAGE(fdebug, "Pop block\n"));

	cmp	DWORD PTR _soap$[ebp], 0
	je	SHORT $LN3@soap_pop_b@2
	mov	eax, DWORD PTR _soap$[ebp]
	cmp	DWORD PTR [eax+90568], 0
	jne	SHORT $LN2@soap_pop_b@2
	push	2
	mov	eax, DWORD PTR _soap$[ebp]
	push	eax
	call	_soap_open_logfile
	add	esp, 8
$LN2@soap_pop_b@2:
	mov	eax, DWORD PTR _soap$[ebp]
	cmp	DWORD PTR [eax+90568], 0
	je	SHORT $LN3@soap_pop_b@2
	mov	eax, DWORD PTR _soap$[ebp]
	mov	ecx, DWORD PTR [eax+90568]
	mov	DWORD PTR _fdebug$83314[ebp], ecx
	mov	esi, esp
	push	OFFSET ??_C@_0L@CKHMILJO@Pop?5block?6?$AA@
	mov	eax, DWORD PTR _fdebug$83314[ebp]
	push	eax
	call	DWORD PTR __imp__fprintf
	add	esp, 8
	cmp	esi, esp
	call	__RTC_CheckEsp
	mov	esi, esp
	mov	eax, DWORD PTR _fdebug$83314[ebp]
	push	eax
	call	DWORD PTR __imp__fflush
	add	esp, 4
	cmp	esi, esp
	call	__RTC_CheckEsp
$LN3@soap_pop_b@2:

; 2175 :   p = soap->blist->ptr;

	mov	eax, DWORD PTR _soap$[ebp]
	mov	ecx, DWORD PTR [eax+92]
	mov	edx, DWORD PTR [ecx+4]
	mov	DWORD PTR _p$[ebp], edx

; 2176 :   soap->blist->size -= *(size_t*)(p + sizeof(char*));

	mov	eax, DWORD PTR _soap$[ebp]
	mov	ecx, DWORD PTR [eax+92]
	mov	edx, DWORD PTR _p$[ebp]
	mov	eax, DWORD PTR [ecx+8]
	sub	eax, DWORD PTR [edx+4]
	mov	ecx, DWORD PTR _soap$[ebp]
	mov	edx, DWORD PTR [ecx+92]
	mov	DWORD PTR [edx+8], eax

; 2177 :   soap->blist->ptr = *(char**)p;

	mov	eax, DWORD PTR _soap$[ebp]
	mov	ecx, DWORD PTR [eax+92]
	mov	edx, DWORD PTR _p$[ebp]
	mov	eax, DWORD PTR [edx]
	mov	DWORD PTR [ecx+4], eax

; 2178 :   SOAP_FREE(soap, p);

	mov	eax, DWORD PTR _p$[ebp]
	push	eax
	mov	ecx, DWORD PTR ?__LINE__Var@?1??soap_pop_block@@9@4JA
	add	ecx, 7
	push	ecx
	push	OFFSET ??_C@_0FM@PNAHPICO@c?3?2users?2crius?2documents?2visual?5@
	mov	edx, DWORD PTR _soap$[ebp]
	push	edx
	call	_soap_track_free
	add	esp, 16					; 00000010H
$LN5@soap_pop_b@2:

; 2179 : }

	pop	edi
	pop	esi
	pop	ebx
	add	esp, 216				; 000000d8H
	cmp	ebp, esp
	call	__RTC_CheckEsp
	mov	esp, ebp
	pop	ebp
	ret	0
_soap_pop_block ENDP
_TEXT	ENDS
PUBLIC	??_C@_0BB@DOJCLNM@Resolution?5done?6?$AA@	; `string'
PUBLIC	??_C@_0HE@LGGIOOAK@Resolution?5error?3?5forwarded?5data@ ; `string'
PUBLIC	?__LINE__Var@?1??soap_resolve@@9@4JA		; `soap_resolve'::`2'::__LINE__Var
PUBLIC	_soap_fcopy
PUBLIC	??_C@_0DD@NKJBOFEE@Descending?5one?5level?0?5new?5locati@ ; `string'
PUBLIC	??_C@_0EC@KDOGKLNK@Resolving?5forwarded?5data?5type?$DN?$CFd@ ; `string'
PUBLIC	??_C@_0BO@BDFNFBLI@?4?4?4?5copy?5?$CFp?5?9?$DO?5?$CFp?5?$CI?$CFu?5bytes?$CJ?6?$AA@ ; `string'
PUBLIC	??_C@_0CK@PJODKEFC@Traversing?5copy?5chain?5to?5resolve@ ; `string'
PUBLIC	??_C@_0BC@EPLEAELE@Resolution?5phase?6?$AA@	; `string'
PUBLIC	??_C@_0BK@ENJKNJEG@Missing?5data?5for?5id?$DN?8?$CFs?8?6?$AA@ ; `string'
PUBLIC	??_C@_0BD@GNFMOHKP@?4?4?4?5link?5?$CFp?5?9?$DO?5?$CFp?6?$AA@ ; `string'
PUBLIC	??_C@_0CK@IOGIIBAJ@Traversing?5link?5chain?5to?5resolve@ ; `string'
PUBLIC	??_C@_0BK@BJFFABPO@Resolving?5forwarded?5data?6?$AA@ ; `string'
PUBLIC	_soap_resolve
;	COMDAT ??_C@_0BB@DOJCLNM@Resolution?5done?6?$AA@
CONST	SEGMENT
??_C@_0BB@DOJCLNM@Resolution?5done?6?$AA@ DB 'Resolution done', 0aH, 00H ; `string'
CONST	ENDS
;	COMDAT ??_C@_0HE@LGGIOOAK@Resolution?5error?3?5forwarded?5data@
CONST	SEGMENT
??_C@_0HE@LGGIOOAK@Resolution?5error?3?5forwarded?5data@ DB 'Resolution e'
	DB	'rror: forwarded data for id=''%s'' could not be propagated, p'
	DB	'lease report this problem to the developers', 0aH, 00H ; `string'
CONST	ENDS
;	COMDAT ?__LINE__Var@?1??soap_resolve@@9@4JA
_DATA	SEGMENT
?__LINE__Var@?1??soap_resolve@@9@4JA DD 08dcH		; `soap_resolve'::`2'::__LINE__Var
_DATA	ENDS
;	COMDAT ??_C@_0DD@NKJBOFEE@Descending?5one?5level?0?5new?5locati@
CONST	SEGMENT
??_C@_0DD@NKJBOFEE@Descending?5one?5level?0?5new?5locati@ DB 'Descending '
	DB	'one level, new location=%p holds=%p...', 0aH, 00H ; `string'
CONST	ENDS
;	COMDAT ??_C@_0EC@KDOGKLNK@Resolving?5forwarded?5data?5type?$DN?$CFd@
CONST	SEGMENT
??_C@_0EC@KDOGKLNK@Resolving?5forwarded?5data?5type?$DN?$CFd@ DB 'Resolvi'
	DB	'ng forwarded data type=%d location=%p level=%u,%u id=''%s''', 0aH
	DB	00H						; `string'
CONST	ENDS
;	COMDAT ??_C@_0BO@BDFNFBLI@?4?4?4?5copy?5?$CFp?5?9?$DO?5?$CFp?5?$CI?$CFu?5bytes?$CJ?6?$AA@
CONST	SEGMENT
??_C@_0BO@BDFNFBLI@?4?4?4?5copy?5?$CFp?5?9?$DO?5?$CFp?5?$CI?$CFu?5bytes?$CJ?6?$AA@ DB '.'
	DB	'.. copy %p -> %p (%u bytes)', 0aH, 00H	; `string'
CONST	ENDS
;	COMDAT ??_C@_0CK@PJODKEFC@Traversing?5copy?5chain?5to?5resolve@
CONST	SEGMENT
??_C@_0CK@PJODKEFC@Traversing?5copy?5chain?5to?5resolve@ DB 'Traversing c'
	DB	'opy chain to resolve id=''%s''', 0aH, 00H	; `string'
CONST	ENDS
;	COMDAT ??_C@_0BC@EPLEAELE@Resolution?5phase?6?$AA@
CONST	SEGMENT
??_C@_0BC@EPLEAELE@Resolution?5phase?6?$AA@ DB 'Resolution phase', 0aH, 00H ; `string'
CONST	ENDS
;	COMDAT ??_C@_0BK@ENJKNJEG@Missing?5data?5for?5id?$DN?8?$CFs?8?6?$AA@
CONST	SEGMENT
??_C@_0BK@ENJKNJEG@Missing?5data?5for?5id?$DN?8?$CFs?8?6?$AA@ DB 'Missing'
	DB	' data for id=''%s''', 0aH, 00H		; `string'
CONST	ENDS
;	COMDAT ??_C@_0BD@GNFMOHKP@?4?4?4?5link?5?$CFp?5?9?$DO?5?$CFp?6?$AA@
CONST	SEGMENT
??_C@_0BD@GNFMOHKP@?4?4?4?5link?5?$CFp?5?9?$DO?5?$CFp?6?$AA@ DB '... link'
	DB	' %p -> %p', 0aH, 00H			; `string'
CONST	ENDS
;	COMDAT ??_C@_0CK@IOGIIBAJ@Traversing?5link?5chain?5to?5resolve@
CONST	SEGMENT
??_C@_0CK@IOGIIBAJ@Traversing?5link?5chain?5to?5resolve@ DB 'Traversing l'
	DB	'ink chain to resolve id=''%s''', 0aH, 00H	; `string'
CONST	ENDS
;	COMDAT ??_C@_0BK@BJFFABPO@Resolving?5forwarded?5data?6?$AA@
CONST	SEGMENT
??_C@_0BK@BJFFABPO@Resolving?5forwarded?5data?6?$AA@ DB 'Resolving forwar'
	DB	'ded data', 0aH, 00H				; `string'
; Function compile flags: /Odtp /RTCcsu /ZI
CONST	ENDS
;	COMDAT _soap_resolve
_TEXT	SEGMENT
_fdebug$83574 = -272					; size = 4
_fdebug$83568 = -260					; size = 4
_fdebug$83550 = -248					; size = 4
_q$83542 = -236						; size = 4
_fdebug$83537 = -224					; size = 4
_p$83532 = -212						; size = 4
_k$83531 = -200						; size = 4
_fdebug$83524 = -188					; size = 4
_fdebug$83514 = -176					; size = 4
_q$83508 = -164						; size = 4
_p$83507 = -152						; size = 4
_fdebug$83495 = -140					; size = 4
_fdebug$83486 = -128					; size = 4
_fdebug$83477 = -116					; size = 4
_fdebug$83467 = -104					; size = 4
_r$83461 = -92						; size = 4
_q$83460 = -80						; size = 4
_p$83459 = -68						; size = 4
_fdebug$83450 = -56					; size = 4
_flag$ = -44						; size = 2
_fp$ = -32						; size = 4
_ip$ = -20						; size = 4
_i$ = -8						; size = 4
_soap$ = 8						; size = 4
_soap_resolve PROC					; COMDAT

; 2268 : { register int i;

	push	ebp
	mov	ebp, esp
	sub	esp, 468				; 000001d4H
	push	ebx
	push	esi
	push	edi
	lea	edi, DWORD PTR [ebp-468]
	mov	ecx, 117				; 00000075H
	mov	eax, -858993460				; ccccccccH
	rep stosd

